ARM GAS  /tmp/cc3nrMTO.s 			page 1


   1              		.syntax unified
   2              		.cpu cortex-m4
   3              		.eabi_attribute 27, 1
   4              		.eabi_attribute 28, 1
   5              		.fpu fpv4-sp-d16
   6              		.eabi_attribute 20, 1
   7              		.eabi_attribute 21, 1
   8              		.eabi_attribute 23, 3
   9              		.eabi_attribute 24, 1
  10              		.eabi_attribute 25, 1
  11              		.eabi_attribute 26, 1
  12              		.eabi_attribute 30, 6
  13              		.eabi_attribute 34, 1
  14              		.eabi_attribute 18, 4
  15              		.thumb
  16              		.file	"adc.c"
  17              		.text
  18              	.Ltext0:
  19              		.cfi_sections	.debug_frame
  20              		.section	.text.adcInit,"ax",%progbits
  21              		.align	2
  22              		.p2align 4,,15
  23              		.global	adcInit
  24              		.thumb
  25              		.thumb_func
  26              		.type	adcInit, %function
  27              	adcInit:
  28              	.LFB111:
  29              		.file 1 "/home/makkmarci/workspace/ChibiOS_2.6.8/os/hal/src/adc.c"
  30              		.loc 1 68 0
  31              		.cfi_startproc
  32              		@ args = 0, pretend = 0, frame = 0
  33              		@ frame_needed = 0, uses_anonymous_args = 0
  34 0000 08B5     		push	{r3, lr}
  35              		.cfi_def_cfa_offset 8
  36              		.cfi_offset 3, -8
  37              		.cfi_offset 14, -4
  38              		.loc 1 70 0
  39 0002 FFF7FEFF 		bl	adc_lld_init
  40              		.loc 1 71 0
  41 0006 08BD     		pop	{r3, pc}
  42              		.cfi_endproc
  43              	.LFE111:
  44              		.size	adcInit, .-adcInit
  45 0008 AFF30080 		.section	.text.adcObjectInit,"ax",%progbits
  45      AFF30080 
  46              		.align	2
  47              		.p2align 4,,15
  48              		.global	adcObjectInit
  49              		.thumb
  50              		.thumb_func
  51              		.type	adcObjectInit, %function
  52              	adcObjectInit:
  53              	.LFB112:
  54              		.loc 1 80 0
  55              		.cfi_startproc
  56              		@ args = 0, pretend = 0, frame = 8
ARM GAS  /tmp/cc3nrMTO.s 			page 2


  57              		@ frame_needed = 0, uses_anonymous_args = 0
  58 0000 00B5     		push	{lr}
  59              		.cfi_def_cfa_offset 4
  60              		.cfi_offset 14, -4
  61 0002 83B0     		sub	sp, sp, #12
  62              		.cfi_def_cfa_offset 16
  63 0004 0190     		str	r0, [sp, #4]
  64              		.loc 1 82 0
  65 0006 019B     		ldr	r3, [sp, #4]
  66 0008 0122     		movs	r2, #1
  67 000a 1A70     		strb	r2, [r3]
  68              		.loc 1 83 0
  69 000c 019B     		ldr	r3, [sp, #4]
  70 000e 0022     		movs	r2, #0
  71 0010 5A60     		str	r2, [r3, #4]
  72              		.loc 1 84 0
  73 0012 019B     		ldr	r3, [sp, #4]
  74 0014 0022     		movs	r2, #0
  75 0016 9A60     		str	r2, [r3, #8]
  76              		.loc 1 85 0
  77 0018 019B     		ldr	r3, [sp, #4]
  78 001a 0022     		movs	r2, #0
  79 001c DA60     		str	r2, [r3, #12]
  80              		.loc 1 86 0
  81 001e 019B     		ldr	r3, [sp, #4]
  82 0020 0022     		movs	r2, #0
  83 0022 1A61     		str	r2, [r3, #16]
  84              		.loc 1 88 0
  85 0024 019B     		ldr	r3, [sp, #4]
  86 0026 0022     		movs	r2, #0
  87 0028 5A61     		str	r2, [r3, #20]
  88              		.loc 1 92 0
  89 002a 019B     		ldr	r3, [sp, #4]
  90 002c 1833     		adds	r3, r3, #24
  91 002e 1846     		mov	r0, r3
  92 0030 FFF7FEFF 		bl	chMtxInit
  93              		.loc 1 100 0
  94 0034 03B0     		add	sp, sp, #12
  95              		.cfi_def_cfa_offset 4
  96              		@ sp needed
  97 0036 5DF804FB 		ldr	pc, [sp], #4
  98              		.cfi_endproc
  99              	.LFE112:
 100              		.size	adcObjectInit, .-adcObjectInit
 101 003a 00BFAFF3 		.section	.rodata
 101      0080
 102              		.align	2
 103              	.LC0:
 104 0000 22616463 		.ascii	"\"adcStart\"()\000"
 104      53746172 
 104      74222829 
 104      00
 105 000d 000000   		.align	2
 106              	.LC1:
 107 0010 61646353 		.ascii	"adcStart(), #1\000"
 107      74617274 
 107      28292C20 
ARM GAS  /tmp/cc3nrMTO.s 			page 3


 107      233100
 108              		.section	.text.adcStart,"ax",%progbits
 109              		.align	2
 110              		.p2align 4,,15
 111              		.global	adcStart
 112              		.thumb
 113              		.thumb_func
 114              		.type	adcStart, %function
 115              	adcStart:
 116              	.LFB113:
 117              		.loc 1 111 0
 118              		.cfi_startproc
 119              		@ args = 0, pretend = 0, frame = 8
 120              		@ frame_needed = 0, uses_anonymous_args = 0
 121 0000 00B5     		push	{lr}
 122              		.cfi_def_cfa_offset 4
 123              		.cfi_offset 14, -4
 124 0002 83B0     		sub	sp, sp, #12
 125              		.cfi_def_cfa_offset 16
 126 0004 0190     		str	r0, [sp, #4]
 127 0006 0091     		str	r1, [sp]
 128              		.loc 1 113 0
 129 0008 019B     		ldr	r3, [sp, #4]
 130 000a 002B     		cmp	r3, #0
 131 000c 02D1     		bne	.L4
 132              		.loc 1 113 0 is_stmt 0 discriminator 1
 133 000e 0F48     		ldr	r0, .L6
 134 0010 FFF7FEFF 		bl	chDbgPanic
 135              	.L4:
 136              		.loc 1 115 0 is_stmt 1
 137              	@ 115 "/home/makkmarci/workspace/ChibiOS_2.6.8/os/hal/src/adc.c" 1
 138 0014 FFF7FEFF 		bl      _port_lock
 139              	@ 0 "" 2
 140              		.loc 1 116 0
 141              		.thumb
 142 0018 019B     		ldr	r3, [sp, #4]
 143 001a 1B78     		ldrb	r3, [r3]	@ zero_extendqisi2
 144 001c 012B     		cmp	r3, #1
 145 001e 06D0     		beq	.L5
 146              		.loc 1 116 0 is_stmt 0 discriminator 1
 147 0020 019B     		ldr	r3, [sp, #4]
 148 0022 1B78     		ldrb	r3, [r3]	@ zero_extendqisi2
 149 0024 022B     		cmp	r3, #2
 150 0026 02D0     		beq	.L5
 151              		.loc 1 116 0 discriminator 2
 152 0028 0948     		ldr	r0, .L6+4
 153 002a FFF7FEFF 		bl	chDbgPanic
 154              	.L5:
 155              		.loc 1 118 0 is_stmt 1
 156 002e 019B     		ldr	r3, [sp, #4]
 157 0030 009A     		ldr	r2, [sp]
 158 0032 5A60     		str	r2, [r3, #4]
 159              		.loc 1 119 0
 160 0034 0198     		ldr	r0, [sp, #4]
 161 0036 FFF7FEFF 		bl	adc_lld_start
 162              		.loc 1 120 0
 163 003a 019B     		ldr	r3, [sp, #4]
ARM GAS  /tmp/cc3nrMTO.s 			page 4


 164 003c 0222     		movs	r2, #2
 165 003e 1A70     		strb	r2, [r3]
 166              		.loc 1 121 0
 167              	@ 121 "/home/makkmarci/workspace/ChibiOS_2.6.8/os/hal/src/adc.c" 1
 168 0040 FFF7FEFF 		bl      _port_unlock
 169              	@ 0 "" 2
 170              		.loc 1 122 0
 171              		.thumb
 172 0044 03B0     		add	sp, sp, #12
 173              		.cfi_def_cfa_offset 4
 174              		@ sp needed
 175 0046 5DF804FB 		ldr	pc, [sp], #4
 176              	.L7:
 177 004a 00BF     		.align	2
 178              	.L6:
 179 004c 00000000 		.word	.LC0
 180 0050 10000000 		.word	.LC1
 181              		.cfi_endproc
 182              	.LFE113:
 183              		.size	adcStart, .-adcStart
 184 0054 AFF30080 		.section	.rodata
 184      AFF30080 
 184      AFF30080 
 185 001f 00       		.align	2
 186              	.LC2:
 187 0020 22616463 		.ascii	"\"adcStop\"()\000"
 187      53746F70 
 187      22282900 
 188              		.align	2
 189              	.LC3:
 190 002c 61646353 		.ascii	"adcStop(), #1\000"
 190      746F7028 
 190      292C2023 
 190      3100
 191              		.section	.text.adcStop,"ax",%progbits
 192              		.align	2
 193              		.p2align 4,,15
 194              		.global	adcStop
 195              		.thumb
 196              		.thumb_func
 197              		.type	adcStop, %function
 198              	adcStop:
 199              	.LFB114:
 200              		.loc 1 131 0
 201              		.cfi_startproc
 202              		@ args = 0, pretend = 0, frame = 8
 203              		@ frame_needed = 0, uses_anonymous_args = 0
 204 0000 00B5     		push	{lr}
 205              		.cfi_def_cfa_offset 4
 206              		.cfi_offset 14, -4
 207 0002 83B0     		sub	sp, sp, #12
 208              		.cfi_def_cfa_offset 16
 209 0004 0190     		str	r0, [sp, #4]
 210              		.loc 1 133 0
 211 0006 019B     		ldr	r3, [sp, #4]
 212 0008 002B     		cmp	r3, #0
 213 000a 02D1     		bne	.L9
ARM GAS  /tmp/cc3nrMTO.s 			page 5


 214              		.loc 1 133 0 is_stmt 0 discriminator 1
 215 000c 0D48     		ldr	r0, .L11
 216 000e FFF7FEFF 		bl	chDbgPanic
 217              	.L9:
 218              		.loc 1 135 0 is_stmt 1
 219              	@ 135 "/home/makkmarci/workspace/ChibiOS_2.6.8/os/hal/src/adc.c" 1
 220 0012 FFF7FEFF 		bl      _port_lock
 221              	@ 0 "" 2
 222              		.loc 1 136 0
 223              		.thumb
 224 0016 019B     		ldr	r3, [sp, #4]
 225 0018 1B78     		ldrb	r3, [r3]	@ zero_extendqisi2
 226 001a 012B     		cmp	r3, #1
 227 001c 06D0     		beq	.L10
 228              		.loc 1 136 0 is_stmt 0 discriminator 1
 229 001e 019B     		ldr	r3, [sp, #4]
 230 0020 1B78     		ldrb	r3, [r3]	@ zero_extendqisi2
 231 0022 022B     		cmp	r3, #2
 232 0024 02D0     		beq	.L10
 233              		.loc 1 136 0 discriminator 2
 234 0026 0848     		ldr	r0, .L11+4
 235 0028 FFF7FEFF 		bl	chDbgPanic
 236              	.L10:
 237              		.loc 1 138 0 is_stmt 1
 238 002c 0198     		ldr	r0, [sp, #4]
 239 002e FFF7FEFF 		bl	adc_lld_stop
 240              		.loc 1 139 0
 241 0032 019B     		ldr	r3, [sp, #4]
 242 0034 0122     		movs	r2, #1
 243 0036 1A70     		strb	r2, [r3]
 244              		.loc 1 140 0
 245              	@ 140 "/home/makkmarci/workspace/ChibiOS_2.6.8/os/hal/src/adc.c" 1
 246 0038 FFF7FEFF 		bl      _port_unlock
 247              	@ 0 "" 2
 248              		.loc 1 141 0
 249              		.thumb
 250 003c 03B0     		add	sp, sp, #12
 251              		.cfi_def_cfa_offset 4
 252              		@ sp needed
 253 003e 5DF804FB 		ldr	pc, [sp], #4
 254              	.L12:
 255 0042 00BF     		.align	2
 256              	.L11:
 257 0044 20000000 		.word	.LC2
 258 0048 2C000000 		.word	.LC3
 259              		.cfi_endproc
 260              	.LFE114:
 261              		.size	adcStop, .-adcStop
 262 004c AFF30080 		.section	.text.adcStartConversion,"ax",%progbits
 263              		.align	2
 264              		.p2align 4,,15
 265              		.global	adcStartConversion
 266              		.thumb
 267              		.thumb_func
 268              		.type	adcStartConversion, %function
 269              	adcStartConversion:
 270              	.LFB115:
ARM GAS  /tmp/cc3nrMTO.s 			page 6


 271              		.loc 1 162 0
 272              		.cfi_startproc
 273              		@ args = 0, pretend = 0, frame = 16
 274              		@ frame_needed = 0, uses_anonymous_args = 0
 275 0000 00B5     		push	{lr}
 276              		.cfi_def_cfa_offset 4
 277              		.cfi_offset 14, -4
 278 0002 85B0     		sub	sp, sp, #20
 279              		.cfi_def_cfa_offset 24
 280 0004 0390     		str	r0, [sp, #12]
 281 0006 0291     		str	r1, [sp, #8]
 282 0008 0192     		str	r2, [sp, #4]
 283 000a 0093     		str	r3, [sp]
 284              		.loc 1 164 0
 285              	@ 164 "/home/makkmarci/workspace/ChibiOS_2.6.8/os/hal/src/adc.c" 1
 286 000c FFF7FEFF 		bl      _port_lock
 287              	@ 0 "" 2
 288              		.loc 1 165 0
 289              		.thumb
 290 0010 0398     		ldr	r0, [sp, #12]
 291 0012 0299     		ldr	r1, [sp, #8]
 292 0014 019A     		ldr	r2, [sp, #4]
 293 0016 009B     		ldr	r3, [sp]
 294 0018 FFF7FEFF 		bl	adcStartConversionI
 295              		.loc 1 166 0
 296              	@ 166 "/home/makkmarci/workspace/ChibiOS_2.6.8/os/hal/src/adc.c" 1
 297 001c FFF7FEFF 		bl      _port_unlock
 298              	@ 0 "" 2
 299              		.loc 1 167 0
 300              		.thumb
 301 0020 05B0     		add	sp, sp, #20
 302              		.cfi_def_cfa_offset 4
 303              		@ sp needed
 304 0022 5DF804FB 		ldr	pc, [sp], #4
 305              		.cfi_endproc
 306              	.LFE115:
 307              		.size	adcStartConversion, .-adcStartConversion
 308 0026 00BFAFF3 		.section	.rodata
 308      0080AFF3 
 308      0080
 309 003a 0000     		.align	2
 310              	.LC4:
 311 003c 22616463 		.ascii	"\"adcStartConversionI\"()\000"
 311      53746172 
 311      74436F6E 
 311      76657273 
 311      696F6E49 
 312              		.align	2
 313              	.LC5:
 314 0054 61646353 		.ascii	"adcStartConversionI(), #1\000"
 314      74617274 
 314      436F6E76 
 314      65727369 
 314      6F6E4928 
 315              		.section	.text.adcStartConversionI,"ax",%progbits
 316              		.align	2
 317              		.p2align 4,,15
ARM GAS  /tmp/cc3nrMTO.s 			page 7


 318              		.global	adcStartConversionI
 319              		.thumb
 320              		.thumb_func
 321              		.type	adcStartConversionI, %function
 322              	adcStartConversionI:
 323              	.LFB116:
 324              		.loc 1 190 0
 325              		.cfi_startproc
 326              		@ args = 0, pretend = 0, frame = 16
 327              		@ frame_needed = 0, uses_anonymous_args = 0
 328 0000 00B5     		push	{lr}
 329              		.cfi_def_cfa_offset 4
 330              		.cfi_offset 14, -4
 331 0002 85B0     		sub	sp, sp, #20
 332              		.cfi_def_cfa_offset 24
 333 0004 0390     		str	r0, [sp, #12]
 334 0006 0291     		str	r1, [sp, #8]
 335 0008 0192     		str	r2, [sp, #4]
 336 000a 0093     		str	r3, [sp]
 337              		.loc 1 193 0
 338 000c 039B     		ldr	r3, [sp, #12]
 339 000e 002B     		cmp	r3, #0
 340 0010 0DD0     		beq	.L15
 341              		.loc 1 193 0 is_stmt 0 discriminator 2
 342 0012 029B     		ldr	r3, [sp, #8]
 343 0014 002B     		cmp	r3, #0
 344 0016 0AD0     		beq	.L15
 345              		.loc 1 193 0 discriminator 4
 346 0018 019B     		ldr	r3, [sp, #4]
 347 001a 002B     		cmp	r3, #0
 348 001c 07D0     		beq	.L15
 349              		.loc 1 193 0 discriminator 6
 350 001e 009B     		ldr	r3, [sp]
 351 0020 012B     		cmp	r3, #1
 352 0022 07D0     		beq	.L16
 353              		.loc 1 193 0 discriminator 7
 354 0024 009B     		ldr	r3, [sp]
 355 0026 03F00103 		and	r3, r3, #1
 356 002a 002B     		cmp	r3, #0
 357 002c 02D0     		beq	.L16
 358              	.L15:
 359              		.loc 1 193 0 discriminator 8
 360 002e 1248     		ldr	r0, .L18
 361 0030 FFF7FEFF 		bl	chDbgPanic
 362              	.L16:
 363              		.loc 1 196 0 is_stmt 1
 364 0034 039B     		ldr	r3, [sp, #12]
 365 0036 1B78     		ldrb	r3, [r3]	@ zero_extendqisi2
 366 0038 022B     		cmp	r3, #2
 367 003a 0AD0     		beq	.L17
 368              		.loc 1 196 0 is_stmt 0 discriminator 1
 369 003c 039B     		ldr	r3, [sp, #12]
 370 003e 1B78     		ldrb	r3, [r3]	@ zero_extendqisi2
 371 0040 042B     		cmp	r3, #4
 372 0042 06D0     		beq	.L17
 373              		.loc 1 196 0 discriminator 2
 374 0044 039B     		ldr	r3, [sp, #12]
ARM GAS  /tmp/cc3nrMTO.s 			page 8


 375 0046 1B78     		ldrb	r3, [r3]	@ zero_extendqisi2
 376 0048 052B     		cmp	r3, #5
 377 004a 02D0     		beq	.L17
 378              		.loc 1 196 0 discriminator 3
 379 004c 0B48     		ldr	r0, .L18+4
 380 004e FFF7FEFF 		bl	chDbgPanic
 381              	.L17:
 382              		.loc 1 201 0 is_stmt 1
 383 0052 039B     		ldr	r3, [sp, #12]
 384 0054 019A     		ldr	r2, [sp, #4]
 385 0056 9A60     		str	r2, [r3, #8]
 386              		.loc 1 202 0
 387 0058 039B     		ldr	r3, [sp, #12]
 388 005a 009A     		ldr	r2, [sp]
 389 005c DA60     		str	r2, [r3, #12]
 390              		.loc 1 203 0
 391 005e 039B     		ldr	r3, [sp, #12]
 392 0060 029A     		ldr	r2, [sp, #8]
 393 0062 1A61     		str	r2, [r3, #16]
 394              		.loc 1 204 0
 395 0064 039B     		ldr	r3, [sp, #12]
 396 0066 0322     		movs	r2, #3
 397 0068 1A70     		strb	r2, [r3]
 398              		.loc 1 205 0
 399 006a 0398     		ldr	r0, [sp, #12]
 400 006c FFF7FEFF 		bl	adc_lld_start_conversion
 401              		.loc 1 206 0
 402 0070 05B0     		add	sp, sp, #20
 403              		.cfi_def_cfa_offset 4
 404              		@ sp needed
 405 0072 5DF804FB 		ldr	pc, [sp], #4
 406              	.L19:
 407 0076 00BF     		.align	2
 408              	.L18:
 409 0078 3C000000 		.word	.LC4
 410 007c 54000000 		.word	.LC5
 411              		.cfi_endproc
 412              	.LFE116:
 413              		.size	adcStartConversionI, .-adcStartConversionI
 414              		.section	.rodata
 415 006e 0000     		.align	2
 416              	.LC6:
 417 0070 22616463 		.ascii	"\"adcStopConversion\"()\000"
 417      53746F70 
 417      436F6E76 
 417      65727369 
 417      6F6E2228 
 418 0086 0000     		.align	2
 419              	.LC7:
 420 0088 61646353 		.ascii	"adcStopConversion(), #1\000"
 420      746F7043 
 420      6F6E7665 
 420      7273696F 
 420      6E28292C 
 421              		.section	.text.adcStopConversion,"ax",%progbits
 422              		.align	2
 423              		.p2align 4,,15
ARM GAS  /tmp/cc3nrMTO.s 			page 9


 424              		.global	adcStopConversion
 425              		.thumb
 426              		.thumb_func
 427              		.type	adcStopConversion, %function
 428              	adcStopConversion:
 429              	.LFB117:
 430              		.loc 1 218 0
 431              		.cfi_startproc
 432              		@ args = 0, pretend = 0, frame = 16
 433              		@ frame_needed = 0, uses_anonymous_args = 0
 434 0000 00B5     		push	{lr}
 435              		.cfi_def_cfa_offset 4
 436              		.cfi_offset 14, -4
 437 0002 85B0     		sub	sp, sp, #20
 438              		.cfi_def_cfa_offset 24
 439 0004 0190     		str	r0, [sp, #4]
 440              		.loc 1 220 0
 441 0006 019B     		ldr	r3, [sp, #4]
 442 0008 002B     		cmp	r3, #0
 443 000a 02D1     		bne	.L21
 444              		.loc 1 220 0 is_stmt 0 discriminator 1
 445 000c 1848     		ldr	r0, .L24
 446 000e FFF7FEFF 		bl	chDbgPanic
 447              	.L21:
 448              		.loc 1 222 0 is_stmt 1
 449              	@ 222 "/home/makkmarci/workspace/ChibiOS_2.6.8/os/hal/src/adc.c" 1
 450 0012 FFF7FEFF 		bl      _port_lock
 451              	@ 0 "" 2
 452              		.loc 1 223 0
 453              		.thumb
 454 0016 019B     		ldr	r3, [sp, #4]
 455 0018 1B78     		ldrb	r3, [r3]	@ zero_extendqisi2
 456 001a 022B     		cmp	r3, #2
 457 001c 06D0     		beq	.L22
 458              		.loc 1 223 0 is_stmt 0 discriminator 1
 459 001e 019B     		ldr	r3, [sp, #4]
 460 0020 1B78     		ldrb	r3, [r3]	@ zero_extendqisi2
 461 0022 032B     		cmp	r3, #3
 462 0024 02D0     		beq	.L22
 463              		.loc 1 223 0 discriminator 2
 464 0026 1348     		ldr	r0, .L24+4
 465 0028 FFF7FEFF 		bl	chDbgPanic
 466              	.L22:
 467              		.loc 1 226 0 is_stmt 1
 468 002c 019B     		ldr	r3, [sp, #4]
 469 002e 1B78     		ldrb	r3, [r3]	@ zero_extendqisi2
 470 0030 022B     		cmp	r3, #2
 471 0032 17D0     		beq	.L23
 472              		.loc 1 227 0
 473 0034 0198     		ldr	r0, [sp, #4]
 474 0036 FFF7FEFF 		bl	adc_lld_stop_conversion
 475              		.loc 1 228 0
 476 003a 019B     		ldr	r3, [sp, #4]
 477 003c 0022     		movs	r2, #0
 478 003e 1A61     		str	r2, [r3, #16]
 479              		.loc 1 229 0
 480 0040 019B     		ldr	r3, [sp, #4]
ARM GAS  /tmp/cc3nrMTO.s 			page 10


 481 0042 0222     		movs	r2, #2
 482 0044 1A70     		strb	r2, [r3]
 483              		.loc 1 230 0
 484 0046 019B     		ldr	r3, [sp, #4]
 485 0048 5B69     		ldr	r3, [r3, #20]
 486 004a 002B     		cmp	r3, #0
 487 004c 0AD0     		beq	.L23
 488              	.LBB2:
 489              		.loc 1 230 0 is_stmt 0 discriminator 1
 490 004e 019B     		ldr	r3, [sp, #4]
 491 0050 5B69     		ldr	r3, [r3, #20]
 492 0052 0393     		str	r3, [sp, #12]
 493 0054 019B     		ldr	r3, [sp, #4]
 494 0056 0022     		movs	r2, #0
 495 0058 5A61     		str	r2, [r3, #20]
 496 005a 0398     		ldr	r0, [sp, #12]
 497 005c 6FF00101 		mvn	r1, #1
 498 0060 FFF7FEFF 		bl	chSchWakeupS
 499              	.L23:
 500              	.LBE2:
 501              		.loc 1 232 0 is_stmt 1
 502              	@ 232 "/home/makkmarci/workspace/ChibiOS_2.6.8/os/hal/src/adc.c" 1
 503 0064 FFF7FEFF 		bl      _port_unlock
 504              	@ 0 "" 2
 505              		.loc 1 233 0
 506              		.thumb
 507 0068 05B0     		add	sp, sp, #20
 508              		.cfi_def_cfa_offset 4
 509              		@ sp needed
 510 006a 5DF804FB 		ldr	pc, [sp], #4
 511              	.L25:
 512 006e 00BF     		.align	2
 513              	.L24:
 514 0070 70000000 		.word	.LC6
 515 0074 88000000 		.word	.LC7
 516              		.cfi_endproc
 517              	.LFE117:
 518              		.size	adcStopConversion, .-adcStopConversion
 519 0078 AFF30080 		.section	.rodata
 519      AFF30080 
 520              		.align	2
 521              	.LC8:
 522 00a0 22616463 		.ascii	"\"adcStopConversionI\"()\000"
 522      53746F70 
 522      436F6E76 
 522      65727369 
 522      6F6E4922 
 523 00b7 00       		.align	2
 524              	.LC9:
 525 00b8 61646353 		.ascii	"adcStopConversionI(), #1\000"
 525      746F7043 
 525      6F6E7665 
 525      7273696F 
 525      6E492829 
 526              		.section	.text.adcStopConversionI,"ax",%progbits
 527              		.align	2
 528              		.p2align 4,,15
ARM GAS  /tmp/cc3nrMTO.s 			page 11


 529              		.global	adcStopConversionI
 530              		.thumb
 531              		.thumb_func
 532              		.type	adcStopConversionI, %function
 533              	adcStopConversionI:
 534              	.LFB118:
 535              		.loc 1 245 0
 536              		.cfi_startproc
 537              		@ args = 0, pretend = 0, frame = 16
 538              		@ frame_needed = 0, uses_anonymous_args = 0
 539 0000 00B5     		push	{lr}
 540              		.cfi_def_cfa_offset 4
 541              		.cfi_offset 14, -4
 542 0002 85B0     		sub	sp, sp, #20
 543              		.cfi_def_cfa_offset 24
 544 0004 0190     		str	r0, [sp, #4]
 545              		.loc 1 248 0
 546 0006 019B     		ldr	r3, [sp, #4]
 547 0008 002B     		cmp	r3, #0
 548 000a 02D1     		bne	.L27
 549              		.loc 1 248 0 is_stmt 0 discriminator 1
 550 000c 1948     		ldr	r0, .L30
 551 000e FFF7FEFF 		bl	chDbgPanic
 552              	.L27:
 553              		.loc 1 249 0 is_stmt 1
 554 0012 019B     		ldr	r3, [sp, #4]
 555 0014 1B78     		ldrb	r3, [r3]	@ zero_extendqisi2
 556 0016 022B     		cmp	r3, #2
 557 0018 0AD0     		beq	.L28
 558              		.loc 1 249 0 is_stmt 0 discriminator 1
 559 001a 019B     		ldr	r3, [sp, #4]
 560 001c 1B78     		ldrb	r3, [r3]	@ zero_extendqisi2
 561 001e 032B     		cmp	r3, #3
 562 0020 06D0     		beq	.L28
 563              		.loc 1 249 0 discriminator 2
 564 0022 019B     		ldr	r3, [sp, #4]
 565 0024 1B78     		ldrb	r3, [r3]	@ zero_extendqisi2
 566 0026 042B     		cmp	r3, #4
 567 0028 02D0     		beq	.L28
 568              		.loc 1 249 0 discriminator 3
 569 002a 1348     		ldr	r0, .L30+4
 570 002c FFF7FEFF 		bl	chDbgPanic
 571              	.L28:
 572              		.loc 1 254 0 is_stmt 1
 573 0030 019B     		ldr	r3, [sp, #4]
 574 0032 1B78     		ldrb	r3, [r3]	@ zero_extendqisi2
 575 0034 022B     		cmp	r3, #2
 576 0036 19D0     		beq	.L26
 577              		.loc 1 255 0
 578 0038 0198     		ldr	r0, [sp, #4]
 579 003a FFF7FEFF 		bl	adc_lld_stop_conversion
 580              		.loc 1 256 0
 581 003e 019B     		ldr	r3, [sp, #4]
 582 0040 0022     		movs	r2, #0
 583 0042 1A61     		str	r2, [r3, #16]
 584              		.loc 1 257 0
 585 0044 019B     		ldr	r3, [sp, #4]
ARM GAS  /tmp/cc3nrMTO.s 			page 12


 586 0046 0222     		movs	r2, #2
 587 0048 1A70     		strb	r2, [r3]
 588              		.loc 1 258 0
 589 004a 019B     		ldr	r3, [sp, #4]
 590 004c 5B69     		ldr	r3, [r3, #20]
 591 004e 002B     		cmp	r3, #0
 592 0050 0CD0     		beq	.L26
 593              	.LBB3:
 594              		.loc 1 258 0 is_stmt 0 discriminator 1
 595 0052 019B     		ldr	r3, [sp, #4]
 596 0054 5B69     		ldr	r3, [r3, #20]
 597 0056 0393     		str	r3, [sp, #12]
 598 0058 019B     		ldr	r3, [sp, #4]
 599 005a 0022     		movs	r2, #0
 600 005c 5A61     		str	r2, [r3, #20]
 601 005e 039B     		ldr	r3, [sp, #12]
 602 0060 6FF00102 		mvn	r2, #1
 603 0064 9A62     		str	r2, [r3, #40]
 604 0066 0398     		ldr	r0, [sp, #12]
 605 0068 FFF7FEFF 		bl	chSchReadyI
 606              	.L26:
 607              	.LBE3:
 608              		.loc 1 260 0 is_stmt 1
 609 006c 05B0     		add	sp, sp, #20
 610              		.cfi_def_cfa_offset 4
 611              		@ sp needed
 612 006e 5DF804FB 		ldr	pc, [sp], #4
 613              	.L31:
 614 0072 00BF     		.align	2
 615              	.L30:
 616 0074 A0000000 		.word	.LC8
 617 0078 B8000000 		.word	.LC9
 618              		.cfi_endproc
 619              	.LFE118:
 620              		.size	adcStopConversionI, .-adcStopConversionI
 621 007c AFF30080 		.section	.rodata
 622 00d1 000000   		.align	2
 623              	.LC10:
 624 00d4 61646343 		.ascii	"adcConvert(), #1\000"
 624      6F6E7665 
 624      72742829 
 624      2C202331 
 624      00
 625              		.section	.text.adcConvert,"ax",%progbits
 626              		.align	2
 627              		.p2align 4,,15
 628              		.global	adcConvert
 629              		.thumb
 630              		.thumb_func
 631              		.type	adcConvert, %function
 632              	adcConvert:
 633              	.LFB119:
 634              		.loc 1 289 0
 635              		.cfi_startproc
 636              		@ args = 0, pretend = 0, frame = 24
 637              		@ frame_needed = 0, uses_anonymous_args = 0
 638 0000 00B5     		push	{lr}
ARM GAS  /tmp/cc3nrMTO.s 			page 13


 639              		.cfi_def_cfa_offset 4
 640              		.cfi_offset 14, -4
 641 0002 87B0     		sub	sp, sp, #28
 642              		.cfi_def_cfa_offset 32
 643 0004 0390     		str	r0, [sp, #12]
 644 0006 0291     		str	r1, [sp, #8]
 645 0008 0192     		str	r2, [sp, #4]
 646 000a 0093     		str	r3, [sp]
 647              		.loc 1 292 0
 648              	@ 292 "/home/makkmarci/workspace/ChibiOS_2.6.8/os/hal/src/adc.c" 1
 649 000c FFF7FEFF 		bl      _port_lock
 650              	@ 0 "" 2
 651              		.loc 1 293 0
 652              		.thumb
 653 0010 039B     		ldr	r3, [sp, #12]
 654 0012 5B69     		ldr	r3, [r3, #20]
 655 0014 002B     		cmp	r3, #0
 656 0016 02D0     		beq	.L33
 657              		.loc 1 293 0 is_stmt 0 discriminator 1
 658 0018 0D48     		ldr	r0, .L35
 659 001a FFF7FEFF 		bl	chDbgPanic
 660              	.L33:
 661              		.loc 1 294 0 is_stmt 1
 662 001e 0398     		ldr	r0, [sp, #12]
 663 0020 0299     		ldr	r1, [sp, #8]
 664 0022 019A     		ldr	r2, [sp, #4]
 665 0024 009B     		ldr	r3, [sp]
 666 0026 FFF7FEFF 		bl	adcStartConversionI
 667              		.loc 1 295 0
 668 002a 0A4B     		ldr	r3, .L35+4
 669 002c 9A69     		ldr	r2, [r3, #24]
 670 002e 039B     		ldr	r3, [sp, #12]
 671 0030 5A61     		str	r2, [r3, #20]
 672              		.loc 1 296 0
 673 0032 0220     		movs	r0, #2
 674 0034 FFF7FEFF 		bl	chSchGoSleepS
 675              		.loc 1 297 0
 676 0038 064B     		ldr	r3, .L35+4
 677 003a 9B69     		ldr	r3, [r3, #24]
 678 003c 9B6A     		ldr	r3, [r3, #40]
 679 003e 0593     		str	r3, [sp, #20]
 680              		.loc 1 298 0
 681              	@ 298 "/home/makkmarci/workspace/ChibiOS_2.6.8/os/hal/src/adc.c" 1
 682 0040 FFF7FEFF 		bl      _port_unlock
 683              	@ 0 "" 2
 684              		.loc 1 299 0
 685              		.thumb
 686 0044 059B     		ldr	r3, [sp, #20]
 687              		.loc 1 300 0
 688 0046 1846     		mov	r0, r3
 689 0048 07B0     		add	sp, sp, #28
 690              		.cfi_def_cfa_offset 4
 691              		@ sp needed
 692 004a 5DF804FB 		ldr	pc, [sp], #4
 693              	.L36:
 694 004e 00BF     		.align	2
 695              	.L35:
ARM GAS  /tmp/cc3nrMTO.s 			page 14


 696 0050 D4000000 		.word	.LC10
 697 0054 00000000 		.word	rlist
 698              		.cfi_endproc
 699              	.LFE119:
 700              		.size	adcConvert, .-adcConvert
 701 0058 AFF30080 		.section	.rodata
 701      AFF30080 
 702 00e5 000000   		.align	2
 703              	.LC11:
 704 00e8 22616463 		.ascii	"\"adcAcquireBus\"()\000"
 704      41637175 
 704      69726542 
 704      75732228 
 704      2900
 705              		.section	.text.adcAcquireBus,"ax",%progbits
 706              		.align	2
 707              		.p2align 4,,15
 708              		.global	adcAcquireBus
 709              		.thumb
 710              		.thumb_func
 711              		.type	adcAcquireBus, %function
 712              	adcAcquireBus:
 713              	.LFB120:
 714              		.loc 1 315 0
 715              		.cfi_startproc
 716              		@ args = 0, pretend = 0, frame = 8
 717              		@ frame_needed = 0, uses_anonymous_args = 0
 718 0000 00B5     		push	{lr}
 719              		.cfi_def_cfa_offset 4
 720              		.cfi_offset 14, -4
 721 0002 83B0     		sub	sp, sp, #12
 722              		.cfi_def_cfa_offset 16
 723 0004 0190     		str	r0, [sp, #4]
 724              		.loc 1 317 0
 725 0006 019B     		ldr	r3, [sp, #4]
 726 0008 002B     		cmp	r3, #0
 727 000a 02D1     		bne	.L38
 728              		.loc 1 317 0 is_stmt 0 discriminator 1
 729 000c 0548     		ldr	r0, .L39
 730 000e FFF7FEFF 		bl	chDbgPanic
 731              	.L38:
 732              		.loc 1 320 0 is_stmt 1
 733 0012 019B     		ldr	r3, [sp, #4]
 734 0014 1833     		adds	r3, r3, #24
 735 0016 1846     		mov	r0, r3
 736 0018 FFF7FEFF 		bl	chMtxLock
 737              		.loc 1 324 0
 738 001c 03B0     		add	sp, sp, #12
 739              		.cfi_def_cfa_offset 4
 740              		@ sp needed
 741 001e 5DF804FB 		ldr	pc, [sp], #4
 742              	.L40:
 743 0022 00BF     		.align	2
 744              	.L39:
 745 0024 E8000000 		.word	.LC11
 746              		.cfi_endproc
 747              	.LFE120:
ARM GAS  /tmp/cc3nrMTO.s 			page 15


 748              		.size	adcAcquireBus, .-adcAcquireBus
 749 0028 AFF30080 		.section	.rodata
 749      AFF30080 
 750 00fa 0000     		.align	2
 751              	.LC12:
 752 00fc 22616463 		.ascii	"\"adcReleaseBus\"()\000"
 752      52656C65 
 752      61736542 
 752      75732228 
 752      2900
 753 010e 0000     		.section	.text.adcReleaseBus,"ax",%progbits
 754              		.align	2
 755              		.p2align 4,,15
 756              		.global	adcReleaseBus
 757              		.thumb
 758              		.thumb_func
 759              		.type	adcReleaseBus, %function
 760              	adcReleaseBus:
 761              	.LFB121:
 762              		.loc 1 335 0
 763              		.cfi_startproc
 764              		@ args = 0, pretend = 0, frame = 8
 765              		@ frame_needed = 0, uses_anonymous_args = 0
 766 0000 00B5     		push	{lr}
 767              		.cfi_def_cfa_offset 4
 768              		.cfi_offset 14, -4
 769 0002 83B0     		sub	sp, sp, #12
 770              		.cfi_def_cfa_offset 16
 771 0004 0190     		str	r0, [sp, #4]
 772              		.loc 1 337 0
 773 0006 019B     		ldr	r3, [sp, #4]
 774 0008 002B     		cmp	r3, #0
 775 000a 02D1     		bne	.L42
 776              		.loc 1 337 0 is_stmt 0 discriminator 1
 777 000c 0348     		ldr	r0, .L43
 778 000e FFF7FEFF 		bl	chDbgPanic
 779              	.L42:
 780              		.loc 1 341 0 is_stmt 1
 781 0012 FFF7FEFF 		bl	chMtxUnlock
 782              		.loc 1 345 0
 783 0016 03B0     		add	sp, sp, #12
 784              		.cfi_def_cfa_offset 4
 785              		@ sp needed
 786 0018 5DF804FB 		ldr	pc, [sp], #4
 787              	.L44:
 788              		.align	2
 789              	.L43:
 790 001c FC000000 		.word	.LC12
 791              		.cfi_endproc
 792              	.LFE121:
 793              		.size	adcReleaseBus, .-adcReleaseBus
 794              		.text
 795              	.Letext0:
 796              		.file 2 "/opt/gcc-arm-none-eabi/lib/gcc/arm-none-eabi/4.9.3/include/stddef.h"
 797              		.file 3 "/opt/gcc-arm-none-eabi/arm-none-eabi/include/machine/_default_types.h"
 798              		.file 4 "/opt/gcc-arm-none-eabi/arm-none-eabi/include/stdint.h"
 799              		.file 5 "/home/makkmarci/workspace/ChibiOS_2.6.8/os/ports/GCC/ARMCMx/chtypes.h"
ARM GAS  /tmp/cc3nrMTO.s 			page 16


 800              		.file 6 "/home/makkmarci/workspace/ChibiOS_2.6.8/os/kernel/include/chlists.h"
 801              		.file 7 "/home/makkmarci/workspace/ChibiOS_2.6.8/os/kernel/include/chthreads.h"
 802              		.file 8 "/home/makkmarci/workspace/ChibiOS_2.6.8/os/ports/GCC/ARMCMx/chcore_v7m.h"
 803              		.file 9 "/home/makkmarci/workspace/ChibiOS_2.6.8/os/kernel/include/chschd.h"
 804              		.file 10 "/home/makkmarci/workspace/ChibiOS_2.6.8/os/kernel/include/chmtx.h"
 805              		.file 11 "/home/makkmarci/workspace/ChibiOS_2.6.8/os/hal/platforms/STM32F4xx/stm32f4xx.h"
 806              		.file 12 "/home/makkmarci/workspace/ChibiOS_2.6.8/os/hal/platforms/STM32F4xx/stm32_dma.h"
 807              		.file 13 "/home/makkmarci/workspace/ChibiOS_2.6.8/os/hal/include/adc.h"
 808              		.file 14 "/home/makkmarci/workspace/ChibiOS_2.6.8/os/hal/platforms/STM32F4xx/adc_lld.h"
 809              		.file 15 "/home/makkmarci/workspace/ChibiOS_2.6.8/os/ports/common/ARMCMx/CMSIS/include/core_cm4.h"