ARM GAS  /tmp/cc2xpVSZ.s 			page 1


   1              		.syntax unified
   2              		.cpu cortex-m4
   3              		.eabi_attribute 27, 1
   4              		.eabi_attribute 28, 1
   5              		.fpu fpv4-sp-d16
   6              		.eabi_attribute 20, 1
   7              		.eabi_attribute 21, 1
   8              		.eabi_attribute 23, 3
   9              		.eabi_attribute 24, 1
  10              		.eabi_attribute 25, 1
  11              		.eabi_attribute 26, 1
  12              		.eabi_attribute 30, 6
  13              		.eabi_attribute 34, 1
  14              		.eabi_attribute 18, 4
  15              		.thumb
  16              		.file	"adc_lld.c"
  17              		.text
  18              	.Ltext0:
  19              		.cfi_sections	.debug_frame
  20              		.global	ADCD1
  21              		.section	.bss.ADCD1,"aw",%nobits
  22              		.align	2
  23              		.type	ADCD1, %object
  24              		.size	ADCD1, 52
  25              	ADCD1:
  26 0000 00000000 		.space	52
  26      00000000 
  26      00000000 
  26      00000000 
  26      00000000 
  27              		.global	ADCD2
  28              		.section	.bss.ADCD2,"aw",%nobits
  29              		.align	2
  30              		.type	ADCD2, %object
  31              		.size	ADCD2, 52
  32              	ADCD2:
  33 0000 00000000 		.space	52
  33      00000000 
  33      00000000 
  33      00000000 
  33      00000000 
  34              		.section	.text.adc_lld_serve_rx_interrupt,"ax",%progbits
  35              		.align	2
  36              		.p2align 4,,15
  37              		.thumb
  38              		.thumb_func
  39              		.type	adc_lld_serve_rx_interrupt, %function
  40              	adc_lld_serve_rx_interrupt:
  41              	.LFB111:
  42              		.file 1 "/home/makkmarci/workspace/ChibiOS_2.6.8/os/hal/platforms/STM32F4xx/adc_lld.c"
  43              		.loc 1 76 0
  44              		.cfi_startproc
  45              		@ args = 0, pretend = 0, frame = 24
  46              		@ frame_needed = 0, uses_anonymous_args = 0
  47 0000 00B5     		push	{lr}
  48              		.cfi_def_cfa_offset 4
  49              		.cfi_offset 14, -4
ARM GAS  /tmp/cc2xpVSZ.s 			page 2


  50 0002 87B0     		sub	sp, sp, #28
  51              		.cfi_def_cfa_offset 32
  52 0004 0190     		str	r0, [sp, #4]
  53 0006 0091     		str	r1, [sp]
  54              		.loc 1 79 0
  55 0008 009B     		ldr	r3, [sp]
  56 000a 03F00C03 		and	r3, r3, #12
  57 000e 002B     		cmp	r3, #0
  58 0010 30D0     		beq	.L2
  59              		.loc 1 82 0
  60 0012 0198     		ldr	r0, [sp, #4]
  61 0014 FFF7FEFF 		bl	adc_lld_stop_conversion
  62 0018 019B     		ldr	r3, [sp, #4]
  63 001a 1B69     		ldr	r3, [r3, #16]
  64 001c 9B68     		ldr	r3, [r3, #8]
  65 001e 002B     		cmp	r3, #0
  66 0020 0FD0     		beq	.L3
  67              		.loc 1 82 0 is_stmt 0 discriminator 1
  68 0022 019B     		ldr	r3, [sp, #4]
  69 0024 0522     		movs	r2, #5
  70 0026 1A70     		strb	r2, [r3]
  71 0028 019B     		ldr	r3, [sp, #4]
  72 002a 1B69     		ldr	r3, [r3, #16]
  73 002c 9B68     		ldr	r3, [r3, #8]
  74 002e 0198     		ldr	r0, [sp, #4]
  75 0030 0021     		movs	r1, #0
  76 0032 9847     		blx	r3
  77 0034 019B     		ldr	r3, [sp, #4]
  78 0036 1B78     		ldrb	r3, [r3]	@ zero_extendqisi2
  79 0038 052B     		cmp	r3, #5
  80 003a 02D1     		bne	.L3
  81              		.loc 1 82 0 discriminator 3
  82 003c 019B     		ldr	r3, [sp, #4]
  83 003e 0222     		movs	r2, #2
  84 0040 1A70     		strb	r2, [r3]
  85              	.L3:
  86              		.loc 1 82 0 discriminator 5
  87 0042 019B     		ldr	r3, [sp, #4]
  88 0044 0022     		movs	r2, #0
  89 0046 1A61     		str	r2, [r3, #16]
  90              	@ 82 "/home/makkmarci/workspace/ChibiOS_2.6.8/os/hal/platforms/STM32F4xx/adc_lld.c" 1
  91 0048 FFF7FEFF 		bl      _port_lock
  92              	@ 0 "" 2
  93              		.thumb
  94 004c 019B     		ldr	r3, [sp, #4]
  95 004e 5B69     		ldr	r3, [r3, #20]
  96 0050 002B     		cmp	r3, #0
  97 0052 0CD0     		beq	.L4
  98              	.LBB2:
  99              		.loc 1 82 0 discriminator 6
 100 0054 019B     		ldr	r3, [sp, #4]
 101 0056 5B69     		ldr	r3, [r3, #20]
 102 0058 0593     		str	r3, [sp, #20]
 103 005a 019B     		ldr	r3, [sp, #4]
 104 005c 0022     		movs	r2, #0
 105 005e 5A61     		str	r2, [r3, #20]
 106 0060 059B     		ldr	r3, [sp, #20]
ARM GAS  /tmp/cc2xpVSZ.s 			page 3


 107 0062 4FF0FF32 		mov	r2, #-1
 108 0066 9A62     		str	r2, [r3, #40]
 109 0068 0598     		ldr	r0, [sp, #20]
 110 006a FFF7FEFF 		bl	chSchReadyI
 111              	.L4:
 112              	.LBE2:
 113              		.loc 1 82 0 discriminator 8
 114              	@ 82 "/home/makkmarci/workspace/ChibiOS_2.6.8/os/hal/platforms/STM32F4xx/adc_lld.c" 1
 115 006e FFF7FEFF 		bl      _port_unlock
 116              	@ 0 "" 2
 117              		.thumb
 118 0072 88E0     		b	.L1
 119              	.L2:
 120              		.loc 1 87 0 is_stmt 1
 121 0074 019B     		ldr	r3, [sp, #4]
 122 0076 1B69     		ldr	r3, [r3, #16]
 123 0078 002B     		cmp	r3, #0
 124 007a 00F08480 		beq	.L1
 125              		.loc 1 88 0
 126 007e 009B     		ldr	r3, [sp]
 127 0080 03F02003 		and	r3, r3, #32
 128 0084 002B     		cmp	r3, #0
 129 0086 6AD0     		beq	.L6
 130              		.loc 1 90 0
 131 0088 019B     		ldr	r3, [sp, #4]
 132 008a 1B69     		ldr	r3, [r3, #16]
 133 008c 1B78     		ldrb	r3, [r3]	@ zero_extendqisi2
 134 008e 002B     		cmp	r3, #0
 135 0090 2BD0     		beq	.L7
 136              		.loc 1 90 0 is_stmt 0 discriminator 1
 137 0092 019B     		ldr	r3, [sp, #4]
 138 0094 1B69     		ldr	r3, [r3, #16]
 139 0096 5B68     		ldr	r3, [r3, #4]
 140 0098 002B     		cmp	r3, #0
 141 009a 74D0     		beq	.L1
 142              		.loc 1 90 0 discriminator 3
 143 009c 019B     		ldr	r3, [sp, #4]
 144 009e DB68     		ldr	r3, [r3, #12]
 145 00a0 012B     		cmp	r3, #1
 146 00a2 18D9     		bls	.L9
 147              	.LBB3:
 148              		.loc 1 90 0 discriminator 4
 149 00a4 019B     		ldr	r3, [sp, #4]
 150 00a6 DB68     		ldr	r3, [r3, #12]
 151 00a8 5B08     		lsrs	r3, r3, #1
 152 00aa 0493     		str	r3, [sp, #16]
 153 00ac 019B     		ldr	r3, [sp, #4]
 154 00ae 1B69     		ldr	r3, [r3, #16]
 155 00b0 5B88     		ldrh	r3, [r3, #2]
 156 00b2 1A46     		mov	r2, r3
 157 00b4 049B     		ldr	r3, [sp, #16]
 158 00b6 03FB02F3 		mul	r3, r3, r2
 159 00ba 0393     		str	r3, [sp, #12]
 160 00bc 019B     		ldr	r3, [sp, #4]
 161 00be 1B69     		ldr	r3, [r3, #16]
 162 00c0 5B68     		ldr	r3, [r3, #4]
 163 00c2 019A     		ldr	r2, [sp, #4]
ARM GAS  /tmp/cc2xpVSZ.s 			page 4


 164 00c4 9168     		ldr	r1, [r2, #8]
 165 00c6 039A     		ldr	r2, [sp, #12]
 166 00c8 5200     		lsls	r2, r2, #1
 167 00ca 0A44     		add	r2, r2, r1
 168 00cc 0198     		ldr	r0, [sp, #4]
 169 00ce 1146     		mov	r1, r2
 170 00d0 049A     		ldr	r2, [sp, #16]
 171 00d2 9847     		blx	r3
 172              	.LBE3:
 173 00d4 57E0     		b	.L1
 174              	.L9:
 175              		.loc 1 90 0 discriminator 5
 176 00d6 019B     		ldr	r3, [sp, #4]
 177 00d8 1B69     		ldr	r3, [r3, #16]
 178 00da 5B68     		ldr	r3, [r3, #4]
 179 00dc 019A     		ldr	r2, [sp, #4]
 180 00de 9168     		ldr	r1, [r2, #8]
 181 00e0 019A     		ldr	r2, [sp, #4]
 182 00e2 D268     		ldr	r2, [r2, #12]
 183 00e4 0198     		ldr	r0, [sp, #4]
 184 00e6 9847     		blx	r3
 185 00e8 4DE0     		b	.L1
 186              	.L7:
 187              		.loc 1 90 0 discriminator 2
 188 00ea 0198     		ldr	r0, [sp, #4]
 189 00ec FFF7FEFF 		bl	adc_lld_stop_conversion
 190 00f0 019B     		ldr	r3, [sp, #4]
 191 00f2 1B69     		ldr	r3, [r3, #16]
 192 00f4 5B68     		ldr	r3, [r3, #4]
 193 00f6 002B     		cmp	r3, #0
 194 00f8 16D0     		beq	.L11
 195              		.loc 1 90 0 discriminator 6
 196 00fa 019B     		ldr	r3, [sp, #4]
 197 00fc 0422     		movs	r2, #4
 198 00fe 1A70     		strb	r2, [r3]
 199 0100 019B     		ldr	r3, [sp, #4]
 200 0102 1B69     		ldr	r3, [r3, #16]
 201 0104 5B68     		ldr	r3, [r3, #4]
 202 0106 019A     		ldr	r2, [sp, #4]
 203 0108 9168     		ldr	r1, [r2, #8]
 204 010a 019A     		ldr	r2, [sp, #4]
 205 010c D268     		ldr	r2, [r2, #12]
 206 010e 0198     		ldr	r0, [sp, #4]
 207 0110 9847     		blx	r3
 208 0112 019B     		ldr	r3, [sp, #4]
 209 0114 1B78     		ldrb	r3, [r3]	@ zero_extendqisi2
 210 0116 042B     		cmp	r3, #4
 211 0118 0CD1     		bne	.L13
 212              		.loc 1 90 0 discriminator 8
 213 011a 019B     		ldr	r3, [sp, #4]
 214 011c 0222     		movs	r2, #2
 215 011e 1A70     		strb	r2, [r3]
 216 0120 019B     		ldr	r3, [sp, #4]
 217 0122 0022     		movs	r2, #0
 218 0124 1A61     		str	r2, [r3, #16]
 219 0126 05E0     		b	.L13
 220              	.L11:
ARM GAS  /tmp/cc2xpVSZ.s 			page 5


 221              		.loc 1 90 0 discriminator 7
 222 0128 019B     		ldr	r3, [sp, #4]
 223 012a 0222     		movs	r2, #2
 224 012c 1A70     		strb	r2, [r3]
 225 012e 019B     		ldr	r3, [sp, #4]
 226 0130 0022     		movs	r2, #0
 227 0132 1A61     		str	r2, [r3, #16]
 228              	.L13:
 229              		.loc 1 90 0 discriminator 9
 230              	@ 90 "/home/makkmarci/workspace/ChibiOS_2.6.8/os/hal/platforms/STM32F4xx/adc_lld.c" 1
 231 0134 FFF7FEFF 		bl      _port_lock
 232              	@ 0 "" 2
 233              		.thumb
 234 0138 019B     		ldr	r3, [sp, #4]
 235 013a 5B69     		ldr	r3, [r3, #20]
 236 013c 002B     		cmp	r3, #0
 237 013e 0BD0     		beq	.L14
 238              	.LBB4:
 239              		.loc 1 90 0 discriminator 10
 240 0140 019B     		ldr	r3, [sp, #4]
 241 0142 5B69     		ldr	r3, [r3, #20]
 242 0144 0293     		str	r3, [sp, #8]
 243 0146 019B     		ldr	r3, [sp, #4]
 244 0148 0022     		movs	r2, #0
 245 014a 5A61     		str	r2, [r3, #20]
 246 014c 029B     		ldr	r3, [sp, #8]
 247 014e 0022     		movs	r2, #0
 248 0150 9A62     		str	r2, [r3, #40]
 249 0152 0298     		ldr	r0, [sp, #8]
 250 0154 FFF7FEFF 		bl	chSchReadyI
 251              	.L14:
 252              	.LBE4:
 253              		.loc 1 90 0 discriminator 12
 254              	@ 90 "/home/makkmarci/workspace/ChibiOS_2.6.8/os/hal/platforms/STM32F4xx/adc_lld.c" 1
 255 0158 FFF7FEFF 		bl      _port_unlock
 256              	@ 0 "" 2
 257              		.thumb
 258 015c 13E0     		b	.L1
 259              	.L6:
 260              		.loc 1 92 0 is_stmt 1
 261 015e 009B     		ldr	r3, [sp]
 262 0160 03F01003 		and	r3, r3, #16
 263 0164 002B     		cmp	r3, #0
 264 0166 0ED0     		beq	.L1
 265              		.loc 1 94 0
 266 0168 019B     		ldr	r3, [sp, #4]
 267 016a 1B69     		ldr	r3, [r3, #16]
 268 016c 5B68     		ldr	r3, [r3, #4]
 269 016e 002B     		cmp	r3, #0
 270 0170 09D0     		beq	.L1
 271              		.loc 1 94 0 is_stmt 0 discriminator 1
 272 0172 019B     		ldr	r3, [sp, #4]
 273 0174 1B69     		ldr	r3, [r3, #16]
 274 0176 5B68     		ldr	r3, [r3, #4]
 275 0178 019A     		ldr	r2, [sp, #4]
 276 017a 9168     		ldr	r1, [r2, #8]
 277 017c 019A     		ldr	r2, [sp, #4]
ARM GAS  /tmp/cc2xpVSZ.s 			page 6


 278 017e D268     		ldr	r2, [r2, #12]
 279 0180 5208     		lsrs	r2, r2, #1
 280 0182 0198     		ldr	r0, [sp, #4]
 281 0184 9847     		blx	r3
 282              	.L1:
 283              		.loc 1 98 0 is_stmt 1
 284 0186 07B0     		add	sp, sp, #28
 285              		.cfi_def_cfa_offset 4
 286              		@ sp needed
 287 0188 5DF804FB 		ldr	pc, [sp], #4
 288              		.cfi_endproc
 289              	.LFE111:
 290              		.size	adc_lld_serve_rx_interrupt, .-adc_lld_serve_rx_interrupt
 291 018c AFF30080 		.section	.text.Vector88,"ax",%progbits
 292              		.align	2
 293              		.p2align 4,,15
 294              		.global	Vector88
 295              		.thumb
 296              		.thumb_func
 297              		.type	Vector88, %function
 298              	Vector88:
 299              	.LFB112:
 300              		.loc 1 111 0
 301              		.cfi_startproc
 302              		@ args = 0, pretend = 0, frame = 16
 303              		@ frame_needed = 0, uses_anonymous_args = 0
 304 0000 00B5     		push	{lr}
 305              		.cfi_def_cfa_offset 4
 306              		.cfi_offset 14, -4
 307 0002 85B0     		sub	sp, sp, #20
 308              		.cfi_def_cfa_offset 24
 309              		.loc 1 117 0
 310 0004 474B     		ldr	r3, .L22
 311 0006 1B68     		ldr	r3, [r3]
 312 0008 0393     		str	r3, [sp, #12]
 313              		.loc 1 118 0
 314 000a 464B     		ldr	r3, .L22
 315 000c 0022     		movs	r2, #0
 316 000e 1A60     		str	r2, [r3]
 317              		.loc 1 121 0
 318 0010 039B     		ldr	r3, [sp, #12]
 319 0012 03F02003 		and	r3, r3, #32
 320 0016 002B     		cmp	r3, #0
 321 0018 39D0     		beq	.L16
 322              		.loc 1 121 0 is_stmt 0 discriminator 1
 323 001a 434B     		ldr	r3, .L22+4
 324 001c DB6A     		ldr	r3, [r3, #44]
 325 001e 1B68     		ldr	r3, [r3]
 326 0020 5B68     		ldr	r3, [r3, #4]
 327 0022 002B     		cmp	r3, #0
 328 0024 33D0     		beq	.L16
 329              		.loc 1 124 0 is_stmt 1
 330 0026 404B     		ldr	r3, .L22+4
 331 0028 1B69     		ldr	r3, [r3, #16]
 332 002a 002B     		cmp	r3, #0
 333 002c 2FD0     		beq	.L16
 334              		.loc 1 125 0
ARM GAS  /tmp/cc2xpVSZ.s 			page 7


 335 002e 3E48     		ldr	r0, .L22+4
 336 0030 FFF7FEFF 		bl	adc_lld_stop_conversion
 337 0034 3C4B     		ldr	r3, .L22+4
 338 0036 1B69     		ldr	r3, [r3, #16]
 339 0038 9B68     		ldr	r3, [r3, #8]
 340 003a 002B     		cmp	r3, #0
 341 003c 0FD0     		beq	.L17
 342              		.loc 1 125 0 is_stmt 0 discriminator 1
 343 003e 3A4B     		ldr	r3, .L22+4
 344 0040 0522     		movs	r2, #5
 345 0042 1A70     		strb	r2, [r3]
 346 0044 384B     		ldr	r3, .L22+4
 347 0046 1B69     		ldr	r3, [r3, #16]
 348 0048 9B68     		ldr	r3, [r3, #8]
 349 004a 3748     		ldr	r0, .L22+4
 350 004c 0121     		movs	r1, #1
 351 004e 9847     		blx	r3
 352 0050 354B     		ldr	r3, .L22+4
 353 0052 1B78     		ldrb	r3, [r3]	@ zero_extendqisi2
 354 0054 052B     		cmp	r3, #5
 355 0056 02D1     		bne	.L17
 356              		.loc 1 125 0 discriminator 3
 357 0058 334B     		ldr	r3, .L22+4
 358 005a 0222     		movs	r2, #2
 359 005c 1A70     		strb	r2, [r3]
 360              	.L17:
 361              		.loc 1 125 0 discriminator 5
 362 005e 324B     		ldr	r3, .L22+4
 363 0060 0022     		movs	r2, #0
 364 0062 1A61     		str	r2, [r3, #16]
 365              	@ 125 "/home/makkmarci/workspace/ChibiOS_2.6.8/os/hal/platforms/STM32F4xx/adc_lld.c" 1
 366 0064 FFF7FEFF 		bl      _port_lock
 367              	@ 0 "" 2
 368              		.thumb
 369 0068 2F4B     		ldr	r3, .L22+4
 370 006a 5B69     		ldr	r3, [r3, #20]
 371 006c 002B     		cmp	r3, #0
 372 006e 0CD0     		beq	.L18
 373              	.LBB5:
 374              		.loc 1 125 0 discriminator 6
 375 0070 2D4B     		ldr	r3, .L22+4
 376 0072 5B69     		ldr	r3, [r3, #20]
 377 0074 0293     		str	r3, [sp, #8]
 378 0076 2C4B     		ldr	r3, .L22+4
 379 0078 0022     		movs	r2, #0
 380 007a 5A61     		str	r2, [r3, #20]
 381 007c 029B     		ldr	r3, [sp, #8]
 382 007e 4FF0FF32 		mov	r2, #-1
 383 0082 9A62     		str	r2, [r3, #40]
 384 0084 0298     		ldr	r0, [sp, #8]
 385 0086 FFF7FEFF 		bl	chSchReadyI
 386              	.L18:
 387              	.LBE5:
 388              		.loc 1 125 0 discriminator 8
 389              	@ 125 "/home/makkmarci/workspace/ChibiOS_2.6.8/os/hal/platforms/STM32F4xx/adc_lld.c" 1
 390 008a FFF7FEFF 		bl      _port_unlock
 391              	@ 0 "" 2
ARM GAS  /tmp/cc2xpVSZ.s 			page 8


 392              		.thumb
 393              	.L16:
 394              		.loc 1 131 0 is_stmt 1
 395 008e 274B     		ldr	r3, .L22+8
 396 0090 1B68     		ldr	r3, [r3]
 397 0092 0393     		str	r3, [sp, #12]
 398              		.loc 1 132 0
 399 0094 254B     		ldr	r3, .L22+8
 400 0096 0022     		movs	r2, #0
 401 0098 1A60     		str	r2, [r3]
 402              		.loc 1 135 0
 403 009a 039B     		ldr	r3, [sp, #12]
 404 009c 03F02003 		and	r3, r3, #32
 405 00a0 002B     		cmp	r3, #0
 406 00a2 39D0     		beq	.L19
 407              		.loc 1 135 0 is_stmt 0 discriminator 1
 408 00a4 224B     		ldr	r3, .L22+12
 409 00a6 DB6A     		ldr	r3, [r3, #44]
 410 00a8 1B68     		ldr	r3, [r3]
 411 00aa 5B68     		ldr	r3, [r3, #4]
 412 00ac 002B     		cmp	r3, #0
 413 00ae 33D0     		beq	.L19
 414              		.loc 1 138 0 is_stmt 1
 415 00b0 1F4B     		ldr	r3, .L22+12
 416 00b2 1B69     		ldr	r3, [r3, #16]
 417 00b4 002B     		cmp	r3, #0
 418 00b6 2FD0     		beq	.L19
 419              		.loc 1 139 0
 420 00b8 1D48     		ldr	r0, .L22+12
 421 00ba FFF7FEFF 		bl	adc_lld_stop_conversion
 422 00be 1C4B     		ldr	r3, .L22+12
 423 00c0 1B69     		ldr	r3, [r3, #16]
 424 00c2 9B68     		ldr	r3, [r3, #8]
 425 00c4 002B     		cmp	r3, #0
 426 00c6 0FD0     		beq	.L20
 427              		.loc 1 139 0 is_stmt 0 discriminator 1
 428 00c8 194B     		ldr	r3, .L22+12
 429 00ca 0522     		movs	r2, #5
 430 00cc 1A70     		strb	r2, [r3]
 431 00ce 184B     		ldr	r3, .L22+12
 432 00d0 1B69     		ldr	r3, [r3, #16]
 433 00d2 9B68     		ldr	r3, [r3, #8]
 434 00d4 1648     		ldr	r0, .L22+12
 435 00d6 0121     		movs	r1, #1
 436 00d8 9847     		blx	r3
 437 00da 154B     		ldr	r3, .L22+12
 438 00dc 1B78     		ldrb	r3, [r3]	@ zero_extendqisi2
 439 00de 052B     		cmp	r3, #5
 440 00e0 02D1     		bne	.L20
 441              		.loc 1 139 0 discriminator 3
 442 00e2 134B     		ldr	r3, .L22+12
 443 00e4 0222     		movs	r2, #2
 444 00e6 1A70     		strb	r2, [r3]
 445              	.L20:
 446              		.loc 1 139 0 discriminator 5
 447 00e8 114B     		ldr	r3, .L22+12
 448 00ea 0022     		movs	r2, #0
ARM GAS  /tmp/cc2xpVSZ.s 			page 9


 449 00ec 1A61     		str	r2, [r3, #16]
 450              	@ 139 "/home/makkmarci/workspace/ChibiOS_2.6.8/os/hal/platforms/STM32F4xx/adc_lld.c" 1
 451 00ee FFF7FEFF 		bl      _port_lock
 452              	@ 0 "" 2
 453              		.thumb
 454 00f2 0F4B     		ldr	r3, .L22+12
 455 00f4 5B69     		ldr	r3, [r3, #20]
 456 00f6 002B     		cmp	r3, #0
 457 00f8 0CD0     		beq	.L21
 458              	.LBB6:
 459              		.loc 1 139 0 discriminator 6
 460 00fa 0D4B     		ldr	r3, .L22+12
 461 00fc 5B69     		ldr	r3, [r3, #20]
 462 00fe 0193     		str	r3, [sp, #4]
 463 0100 0B4B     		ldr	r3, .L22+12
 464 0102 0022     		movs	r2, #0
 465 0104 5A61     		str	r2, [r3, #20]
 466 0106 019B     		ldr	r3, [sp, #4]
 467 0108 4FF0FF32 		mov	r2, #-1
 468 010c 9A62     		str	r2, [r3, #40]
 469 010e 0198     		ldr	r0, [sp, #4]
 470 0110 FFF7FEFF 		bl	chSchReadyI
 471              	.L21:
 472              	.LBE6:
 473              		.loc 1 139 0 discriminator 8
 474              	@ 139 "/home/makkmarci/workspace/ChibiOS_2.6.8/os/hal/platforms/STM32F4xx/adc_lld.c" 1
 475 0114 FFF7FEFF 		bl      _port_unlock
 476              	@ 0 "" 2
 477              		.thumb
 478              	.L19:
 479              		.loc 1 158 0 is_stmt 1
 480 0118 FFF7FEFF 		bl	_port_irq_epilogue
 481              		.loc 1 159 0
 482 011c 05B0     		add	sp, sp, #20
 483              		.cfi_def_cfa_offset 4
 484              		@ sp needed
 485 011e 5DF804FB 		ldr	pc, [sp], #4
 486              	.L23:
 487 0122 00BF     		.align	2
 488              	.L22:
 489 0124 00200140 		.word	1073815552
 490 0128 00000000 		.word	ADCD1
 491 012c 00210140 		.word	1073815808
 492 0130 00000000 		.word	ADCD2
 493              		.cfi_endproc
 494              	.LFE112:
 495              		.size	Vector88, .-Vector88
 496 0134 AFF30080 		.section	.text.adc_lld_init,"ax",%progbits
 496      AFF30080 
 496      AFF30080 
 497              		.align	2
 498              		.p2align 4,,15
 499              		.global	adc_lld_init
 500              		.thumb
 501              		.thumb_func
 502              		.type	adc_lld_init, %function
 503              	adc_lld_init:
ARM GAS  /tmp/cc2xpVSZ.s 			page 10


 504              	.LFB113:
 505              		.loc 1 171 0
 506              		.cfi_startproc
 507              		@ args = 0, pretend = 0, frame = 0
 508              		@ frame_needed = 0, uses_anonymous_args = 0
 509 0000 08B5     		push	{r3, lr}
 510              		.cfi_def_cfa_offset 8
 511              		.cfi_offset 3, -8
 512              		.cfi_offset 14, -4
 513              		.loc 1 175 0
 514 0002 0E48     		ldr	r0, .L25
 515 0004 FFF7FEFF 		bl	adcObjectInit
 516              		.loc 1 176 0
 517 0008 0C4B     		ldr	r3, .L25
 518 000a 0D4A     		ldr	r2, .L25+4
 519 000c 9A62     		str	r2, [r3, #40]
 520              		.loc 1 177 0
 521 000e 0B4B     		ldr	r3, .L25
 522 0010 0C4A     		ldr	r2, .L25+8
 523 0012 DA62     		str	r2, [r3, #44]
 524              		.loc 1 178 0
 525 0014 094B     		ldr	r3, .L25
 526 0016 0C4A     		ldr	r2, .L25+12
 527 0018 1A63     		str	r2, [r3, #48]
 528              		.loc 1 188 0
 529 001a 0C48     		ldr	r0, .L25+16
 530 001c FFF7FEFF 		bl	adcObjectInit
 531              		.loc 1 189 0
 532 0020 0A4B     		ldr	r3, .L25+16
 533 0022 0B4A     		ldr	r2, .L25+20
 534 0024 9A62     		str	r2, [r3, #40]
 535              		.loc 1 190 0
 536 0026 094B     		ldr	r3, .L25+16
 537 0028 0A4A     		ldr	r2, .L25+24
 538 002a DA62     		str	r2, [r3, #44]
 539              		.loc 1 191 0
 540 002c 074B     		ldr	r3, .L25+16
 541 002e 0A4A     		ldr	r2, .L25+28
 542 0030 1A63     		str	r2, [r3, #48]
 543              		.loc 1 214 0
 544 0032 1220     		movs	r0, #18
 545 0034 6021     		movs	r1, #96
 546 0036 FFF7FEFF 		bl	nvicEnableVector
 547              		.loc 1 215 0
 548 003a 08BD     		pop	{r3, pc}
 549              	.L26:
 550              		.align	2
 551              	.L25:
 552 003c 00000000 		.word	ADCD1
 553 0040 00200140 		.word	1073815552
 554 0044 90000000 		.word	_stm32_dma_streams+144
 555 0048 162C0200 		.word	142358
 556 004c 00000000 		.word	ADCD2
 557 0050 00210140 		.word	1073815808
 558 0054 78000000 		.word	_stm32_dma_streams+120
 559 0058 162C0202 		.word	33696790
 560              		.cfi_endproc
ARM GAS  /tmp/cc2xpVSZ.s 			page 11


 561              	.LFE113:
 562              		.size	adc_lld_init, .-adc_lld_init
 563 005c AFF30080 		.section	.rodata
 564              		.align	2
 565              	.LC0:
 566 0000 6164635F 		.ascii	"adc_lld_start(), #1\000"
 566      6C6C645F 
 566      73746172 
 566      7428292C 
 566      20233100 
 567              		.align	2
 568              	.LC1:
 569 0014 6164635F 		.ascii	"adc_lld_start(), #2\000"
 569      6C6C645F 
 569      73746172 
 569      7428292C 
 569      20233200 
 570              		.section	.text.adc_lld_start,"ax",%progbits
 571              		.align	2
 572              		.p2align 4,,15
 573              		.global	adc_lld_start
 574              		.thumb
 575              		.thumb_func
 576              		.type	adc_lld_start, %function
 577              	adc_lld_start:
 578              	.LFB114:
 579              		.loc 1 224 0
 580              		.cfi_startproc
 581              		@ args = 0, pretend = 0, frame = 16
 582              		@ frame_needed = 0, uses_anonymous_args = 0
 583 0000 00B5     		push	{lr}
 584              		.cfi_def_cfa_offset 4
 585              		.cfi_offset 14, -4
 586 0002 85B0     		sub	sp, sp, #20
 587              		.cfi_def_cfa_offset 24
 588 0004 0190     		str	r0, [sp, #4]
 589              		.loc 1 227 0
 590 0006 019B     		ldr	r3, [sp, #4]
 591 0008 1B78     		ldrb	r3, [r3]	@ zero_extendqisi2
 592 000a 012B     		cmp	r3, #1
 593 000c 55D1     		bne	.L27
 594              		.loc 1 229 0
 595 000e 019B     		ldr	r3, [sp, #4]
 596 0010 2B4A     		ldr	r2, .L33
 597 0012 9342     		cmp	r3, r2
 598 0014 1CD1     		bne	.L29
 599              	.LBB7:
 600              		.loc 1 231 0
 601 0016 019B     		ldr	r3, [sp, #4]
 602 0018 DB6A     		ldr	r3, [r3, #44]
 603 001a 1846     		mov	r0, r3
 604 001c 0621     		movs	r1, #6
 605 001e 294A     		ldr	r2, .L33+4
 606 0020 019B     		ldr	r3, [sp, #4]
 607 0022 FFF7FEFF 		bl	dmaStreamAllocate
 608 0026 0346     		mov	r3, r0
 609 0028 8DF80F30 		strb	r3, [sp, #15]
ARM GAS  /tmp/cc2xpVSZ.s 			page 12


 610              		.loc 1 235 0
 611 002c 9DF80F30 		ldrb	r3, [sp, #15]	@ zero_extendqisi2
 612 0030 002B     		cmp	r3, #0
 613 0032 02D0     		beq	.L30
 614              		.loc 1 235 0 is_stmt 0 discriminator 1
 615 0034 2448     		ldr	r0, .L33+8
 616 0036 FFF7FEFF 		bl	chDbgPanic
 617              	.L30:
 618              		.loc 1 236 0 is_stmt 1
 619 003a 019B     		ldr	r3, [sp, #4]
 620 003c DB6A     		ldr	r3, [r3, #44]
 621 003e 1B68     		ldr	r3, [r3]
 622 0040 224A     		ldr	r2, .L33+12
 623 0042 9A60     		str	r2, [r3, #8]
 624              		.loc 1 237 0
 625 0044 224A     		ldr	r2, .L33+16
 626 0046 224B     		ldr	r3, .L33+16
 627 0048 5B6C     		ldr	r3, [r3, #68]
 628 004a 43F48073 		orr	r3, r3, #256
 629 004e 5364     		str	r3, [r2, #68]
 630              	.L29:
 631              	.LBE7:
 632              		.loc 1 242 0
 633 0050 019B     		ldr	r3, [sp, #4]
 634 0052 204A     		ldr	r2, .L33+20
 635 0054 9342     		cmp	r3, r2
 636 0056 1CD1     		bne	.L31
 637              	.LBB8:
 638              		.loc 1 244 0
 639 0058 019B     		ldr	r3, [sp, #4]
 640 005a DB6A     		ldr	r3, [r3, #44]
 641 005c 1846     		mov	r0, r3
 642 005e 0621     		movs	r1, #6
 643 0060 184A     		ldr	r2, .L33+4
 644 0062 019B     		ldr	r3, [sp, #4]
 645 0064 FFF7FEFF 		bl	dmaStreamAllocate
 646 0068 0346     		mov	r3, r0
 647 006a 8DF80E30 		strb	r3, [sp, #14]
 648              		.loc 1 248 0
 649 006e 9DF80E30 		ldrb	r3, [sp, #14]	@ zero_extendqisi2
 650 0072 002B     		cmp	r3, #0
 651 0074 02D0     		beq	.L32
 652              		.loc 1 248 0 is_stmt 0 discriminator 1
 653 0076 1848     		ldr	r0, .L33+24
 654 0078 FFF7FEFF 		bl	chDbgPanic
 655              	.L32:
 656              		.loc 1 249 0 is_stmt 1
 657 007c 019B     		ldr	r3, [sp, #4]
 658 007e DB6A     		ldr	r3, [r3, #44]
 659 0080 1B68     		ldr	r3, [r3]
 660 0082 164A     		ldr	r2, .L33+28
 661 0084 9A60     		str	r2, [r3, #8]
 662              		.loc 1 250 0
 663 0086 124A     		ldr	r2, .L33+16
 664 0088 114B     		ldr	r3, .L33+16
 665 008a 5B6C     		ldr	r3, [r3, #68]
 666 008c 43F40073 		orr	r3, r3, #512
ARM GAS  /tmp/cc2xpVSZ.s 			page 13


 667 0090 5364     		str	r3, [r2, #68]
 668              	.L31:
 669              	.LBE8:
 670              		.loc 1 269 0
 671 0092 134A     		ldr	r2, .L33+32
 672 0094 124B     		ldr	r3, .L33+32
 673 0096 5B68     		ldr	r3, [r3, #4]
 674 0098 03F44003 		and	r3, r3, #12582912
 675 009c 43F48033 		orr	r3, r3, #65536
 676 00a0 5360     		str	r3, [r2, #4]
 677              		.loc 1 274 0
 678 00a2 019B     		ldr	r3, [sp, #4]
 679 00a4 9B6A     		ldr	r3, [r3, #40]
 680 00a6 0022     		movs	r2, #0
 681 00a8 5A60     		str	r2, [r3, #4]
 682              		.loc 1 275 0
 683 00aa 019B     		ldr	r3, [sp, #4]
 684 00ac 9B6A     		ldr	r3, [r3, #40]
 685 00ae 0022     		movs	r2, #0
 686 00b0 9A60     		str	r2, [r3, #8]
 687              		.loc 1 276 0
 688 00b2 019B     		ldr	r3, [sp, #4]
 689 00b4 9B6A     		ldr	r3, [r3, #40]
 690 00b6 0122     		movs	r2, #1
 691 00b8 9A60     		str	r2, [r3, #8]
 692              	.L27:
 693              		.loc 1 278 0
 694 00ba 05B0     		add	sp, sp, #20
 695              		.cfi_def_cfa_offset 4
 696              		@ sp needed
 697 00bc 5DF804FB 		ldr	pc, [sp], #4
 698              	.L34:
 699              		.align	2
 700              	.L33:
 701 00c0 00000000 		.word	ADCD1
 702 00c4 00000000 		.word	adc_lld_serve_rx_interrupt
 703 00c8 00000000 		.word	.LC0
 704 00cc 4C200140 		.word	1073815628
 705 00d0 00380240 		.word	1073887232
 706 00d4 00000000 		.word	ADCD2
 707 00d8 14000000 		.word	.LC1
 708 00dc 4C210140 		.word	1073815884
 709 00e0 00230140 		.word	1073816320
 710              		.cfi_endproc
 711              	.LFE114:
 712              		.size	adc_lld_start, .-adc_lld_start
 713 00e4 AFF30080 		.section	.text.adc_lld_stop,"ax",%progbits
 713      AFF30080 
 713      AFF30080 
 714              		.align	2
 715              		.p2align 4,,15
 716              		.global	adc_lld_stop
 717              		.thumb
 718              		.thumb_func
 719              		.type	adc_lld_stop, %function
 720              	adc_lld_stop:
 721              	.LFB115:
ARM GAS  /tmp/cc2xpVSZ.s 			page 14


 722              		.loc 1 287 0
 723              		.cfi_startproc
 724              		@ args = 0, pretend = 0, frame = 8
 725              		@ frame_needed = 0, uses_anonymous_args = 0
 726 0000 00B5     		push	{lr}
 727              		.cfi_def_cfa_offset 4
 728              		.cfi_offset 14, -4
 729 0002 83B0     		sub	sp, sp, #12
 730              		.cfi_def_cfa_offset 16
 731 0004 0190     		str	r0, [sp, #4]
 732              		.loc 1 290 0
 733 0006 019B     		ldr	r3, [sp, #4]
 734 0008 1B78     		ldrb	r3, [r3]	@ zero_extendqisi2
 735 000a 022B     		cmp	r3, #2
 736 000c 20D1     		bne	.L35
 737              		.loc 1 291 0
 738 000e 019B     		ldr	r3, [sp, #4]
 739 0010 DB6A     		ldr	r3, [r3, #44]
 740 0012 1846     		mov	r0, r3
 741 0014 FFF7FEFF 		bl	dmaStreamRelease
 742              		.loc 1 292 0
 743 0018 019B     		ldr	r3, [sp, #4]
 744 001a 9B6A     		ldr	r3, [r3, #40]
 745 001c 0022     		movs	r2, #0
 746 001e 5A60     		str	r2, [r3, #4]
 747              		.loc 1 293 0
 748 0020 019B     		ldr	r3, [sp, #4]
 749 0022 9B6A     		ldr	r3, [r3, #40]
 750 0024 0022     		movs	r2, #0
 751 0026 9A60     		str	r2, [r3, #8]
 752              		.loc 1 296 0
 753 0028 019B     		ldr	r3, [sp, #4]
 754 002a 0B4A     		ldr	r2, .L38
 755 002c 9342     		cmp	r3, r2
 756 002e 05D1     		bne	.L37
 757              		.loc 1 297 0
 758 0030 0A4A     		ldr	r2, .L38+4
 759 0032 0A4B     		ldr	r3, .L38+4
 760 0034 5B6C     		ldr	r3, [r3, #68]
 761 0036 23F48073 		bic	r3, r3, #256
 762 003a 5364     		str	r3, [r2, #68]
 763              	.L37:
 764              		.loc 1 301 0
 765 003c 019B     		ldr	r3, [sp, #4]
 766 003e 084A     		ldr	r2, .L38+8
 767 0040 9342     		cmp	r3, r2
 768 0042 05D1     		bne	.L35
 769              		.loc 1 302 0
 770 0044 054A     		ldr	r2, .L38+4
 771 0046 054B     		ldr	r3, .L38+4
 772 0048 5B6C     		ldr	r3, [r3, #68]
 773 004a 23F40073 		bic	r3, r3, #512
 774 004e 5364     		str	r3, [r2, #68]
 775              	.L35:
 776              		.loc 1 310 0
 777 0050 03B0     		add	sp, sp, #12
 778              		.cfi_def_cfa_offset 4
ARM GAS  /tmp/cc2xpVSZ.s 			page 15


 779              		@ sp needed
 780 0052 5DF804FB 		ldr	pc, [sp], #4
 781              	.L39:
 782 0056 00BF     		.align	2
 783              	.L38:
 784 0058 00000000 		.word	ADCD1
 785 005c 00380240 		.word	1073887232
 786 0060 00000000 		.word	ADCD2
 787              		.cfi_endproc
 788              	.LFE115:
 789              		.size	adc_lld_stop, .-adc_lld_stop
 790 0064 AFF30080 		.section	.text.adc_lld_start_conversion,"ax",%progbits
 790      AFF30080 
 790      AFF30080 
 791              		.align	2
 792              		.p2align 4,,15
 793              		.global	adc_lld_start_conversion
 794              		.thumb
 795              		.thumb_func
 796              		.type	adc_lld_start_conversion, %function
 797              	adc_lld_start_conversion:
 798              	.LFB116:
 799              		.loc 1 319 0
 800              		.cfi_startproc
 801              		@ args = 0, pretend = 0, frame = 24
 802              		@ frame_needed = 0, uses_anonymous_args = 0
 803              		@ link register save eliminated.
 804 0000 86B0     		sub	sp, sp, #24
 805              		.cfi_def_cfa_offset 24
 806 0002 0190     		str	r0, [sp, #4]
 807              		.loc 1 322 0
 808 0004 019B     		ldr	r3, [sp, #4]
 809 0006 1B69     		ldr	r3, [r3, #16]
 810 0008 0493     		str	r3, [sp, #16]
 811              		.loc 1 325 0
 812 000a 019B     		ldr	r3, [sp, #4]
 813 000c 1B6B     		ldr	r3, [r3, #48]
 814 000e 0593     		str	r3, [sp, #20]
 815              		.loc 1 326 0
 816 0010 049B     		ldr	r3, [sp, #16]
 817 0012 1B78     		ldrb	r3, [r3]	@ zero_extendqisi2
 818 0014 002B     		cmp	r3, #0
 819 0016 0BD0     		beq	.L41
 820              		.loc 1 327 0
 821 0018 059B     		ldr	r3, [sp, #20]
 822 001a 43F48073 		orr	r3, r3, #256
 823 001e 0593     		str	r3, [sp, #20]
 824              		.loc 1 328 0
 825 0020 019B     		ldr	r3, [sp, #4]
 826 0022 DB68     		ldr	r3, [r3, #12]
 827 0024 012B     		cmp	r3, #1
 828 0026 03D9     		bls	.L41
 829              		.loc 1 331 0
 830 0028 059B     		ldr	r3, [sp, #20]
 831 002a 43F00803 		orr	r3, r3, #8
 832 002e 0593     		str	r3, [sp, #20]
 833              	.L41:
ARM GAS  /tmp/cc2xpVSZ.s 			page 16


 834              		.loc 1 334 0
 835 0030 019B     		ldr	r3, [sp, #4]
 836 0032 DB6A     		ldr	r3, [r3, #44]
 837 0034 1B68     		ldr	r3, [r3]
 838 0036 019A     		ldr	r2, [sp, #4]
 839 0038 9268     		ldr	r2, [r2, #8]
 840 003a DA60     		str	r2, [r3, #12]
 841              		.loc 1 335 0
 842 003c 019B     		ldr	r3, [sp, #4]
 843 003e DB6A     		ldr	r3, [r3, #44]
 844 0040 1B68     		ldr	r3, [r3]
 845 0042 049A     		ldr	r2, [sp, #16]
 846 0044 5288     		ldrh	r2, [r2, #2]
 847 0046 1146     		mov	r1, r2
 848 0048 019A     		ldr	r2, [sp, #4]
 849 004a D268     		ldr	r2, [r2, #12]
 850 004c 02FB01F2 		mul	r2, r2, r1
 851 0050 5A60     		str	r2, [r3, #4]
 852              		.loc 1 337 0
 853 0052 019B     		ldr	r3, [sp, #4]
 854 0054 DB6A     		ldr	r3, [r3, #44]
 855 0056 1B68     		ldr	r3, [r3]
 856 0058 059A     		ldr	r2, [sp, #20]
 857 005a 1A60     		str	r2, [r3]
 858              		.loc 1 338 0
 859 005c 019B     		ldr	r3, [sp, #4]
 860 005e DB6A     		ldr	r3, [r3, #44]
 861 0060 1B68     		ldr	r3, [r3]
 862 0062 019A     		ldr	r2, [sp, #4]
 863 0064 D26A     		ldr	r2, [r2, #44]
 864 0066 1268     		ldr	r2, [r2]
 865 0068 1268     		ldr	r2, [r2]
 866 006a 42F00102 		orr	r2, r2, #1
 867 006e 1A60     		str	r2, [r3]
 868              		.loc 1 341 0
 869 0070 019B     		ldr	r3, [sp, #4]
 870 0072 9B6A     		ldr	r3, [r3, #40]
 871 0074 0022     		movs	r2, #0
 872 0076 1A60     		str	r2, [r3]
 873              		.loc 1 342 0
 874 0078 019B     		ldr	r3, [sp, #4]
 875 007a 9B6A     		ldr	r3, [r3, #40]
 876 007c 049A     		ldr	r2, [sp, #16]
 877 007e 5269     		ldr	r2, [r2, #20]
 878 0080 DA60     		str	r2, [r3, #12]
 879              		.loc 1 343 0
 880 0082 019B     		ldr	r3, [sp, #4]
 881 0084 9B6A     		ldr	r3, [r3, #40]
 882 0086 049A     		ldr	r2, [sp, #16]
 883 0088 9269     		ldr	r2, [r2, #24]
 884 008a 1A61     		str	r2, [r3, #16]
 885              		.loc 1 344 0
 886 008c 019B     		ldr	r3, [sp, #4]
 887 008e 9B6A     		ldr	r3, [r3, #40]
 888 0090 049A     		ldr	r2, [sp, #16]
 889 0092 D269     		ldr	r2, [r2, #28]
 890 0094 DA62     		str	r2, [r3, #44]
ARM GAS  /tmp/cc2xpVSZ.s 			page 17


 891              		.loc 1 345 0
 892 0096 019B     		ldr	r3, [sp, #4]
 893 0098 9B6A     		ldr	r3, [r3, #40]
 894 009a 049A     		ldr	r2, [sp, #16]
 895 009c 126A     		ldr	r2, [r2, #32]
 896 009e 1A63     		str	r2, [r3, #48]
 897              		.loc 1 346 0
 898 00a0 019B     		ldr	r3, [sp, #4]
 899 00a2 9B6A     		ldr	r3, [r3, #40]
 900 00a4 049A     		ldr	r2, [sp, #16]
 901 00a6 526A     		ldr	r2, [r2, #36]
 902 00a8 5A63     		str	r2, [r3, #52]
 903              		.loc 1 349 0
 904 00aa 019B     		ldr	r3, [sp, #4]
 905 00ac 9A6A     		ldr	r2, [r3, #40]
 906 00ae 049B     		ldr	r3, [sp, #16]
 907 00b0 DB68     		ldr	r3, [r3, #12]
 908 00b2 43F08063 		orr	r3, r3, #67108864
 909 00b6 43F48073 		orr	r3, r3, #256
 910 00ba 5360     		str	r3, [r2, #4]
 911              		.loc 1 352 0
 912 00bc 049B     		ldr	r3, [sp, #16]
 913 00be 1B69     		ldr	r3, [r3, #16]
 914 00c0 43F44073 		orr	r3, r3, #768
 915 00c4 43F00103 		orr	r3, r3, #1
 916 00c8 0393     		str	r3, [sp, #12]
 917              		.loc 1 356 0
 918 00ca 039B     		ldr	r3, [sp, #12]
 919 00cc 03F08043 		and	r3, r3, #1073741824
 920 00d0 002B     		cmp	r3, #0
 921 00d2 10D0     		beq	.L42
 922              		.loc 1 358 0
 923 00d4 019B     		ldr	r3, [sp, #4]
 924 00d6 9A6A     		ldr	r2, [r3, #40]
 925 00d8 039B     		ldr	r3, [sp, #12]
 926 00da 23F08043 		bic	r3, r3, #1073741824
 927 00de 23F00203 		bic	r3, r3, #2
 928 00e2 43F00203 		orr	r3, r3, #2
 929 00e6 9360     		str	r3, [r2, #8]
 930              		.loc 1 361 0
 931 00e8 019B     		ldr	r3, [sp, #4]
 932 00ea 9B6A     		ldr	r3, [r3, #40]
 933 00ec 039A     		ldr	r2, [sp, #12]
 934 00ee 42F00202 		orr	r2, r2, #2
 935 00f2 9A60     		str	r2, [r3, #8]
 936 00f4 03E0     		b	.L40
 937              	.L42:
 938              		.loc 1 364 0
 939 00f6 019B     		ldr	r3, [sp, #4]
 940 00f8 9B6A     		ldr	r3, [r3, #40]
 941 00fa 039A     		ldr	r2, [sp, #12]
 942 00fc 9A60     		str	r2, [r3, #8]
 943              	.L40:
 944              		.loc 1 365 0
 945 00fe 06B0     		add	sp, sp, #24
 946              		.cfi_def_cfa_offset 0
 947              		@ sp needed
ARM GAS  /tmp/cc2xpVSZ.s 			page 18


 948 0100 7047     		bx	lr
 949              		.cfi_endproc
 950              	.LFE116:
 951              		.size	adc_lld_start_conversion, .-adc_lld_start_conversion
 952 0102 00BFAFF3 		.section	.text.adc_lld_stop_conversion,"ax",%progbits
 952      0080AFF3 
 952      0080AFF3 
 952      0080
 953              		.align	2
 954              		.p2align 4,,15
 955              		.global	adc_lld_stop_conversion
 956              		.thumb
 957              		.thumb_func
 958              		.type	adc_lld_stop_conversion, %function
 959              	adc_lld_stop_conversion:
 960              	.LFB117:
 961              		.loc 1 374 0
 962              		.cfi_startproc
 963              		@ args = 0, pretend = 0, frame = 8
 964              		@ frame_needed = 0, uses_anonymous_args = 0
 965              		@ link register save eliminated.
 966 0000 82B0     		sub	sp, sp, #8
 967              		.cfi_def_cfa_offset 8
 968 0002 0190     		str	r0, [sp, #4]
 969              		.loc 1 376 0
 970 0004 019B     		ldr	r3, [sp, #4]
 971 0006 DB6A     		ldr	r3, [r3, #44]
 972 0008 1B68     		ldr	r3, [r3]
 973 000a 019A     		ldr	r2, [sp, #4]
 974 000c D26A     		ldr	r2, [r2, #44]
 975 000e 1268     		ldr	r2, [r2]
 976 0010 1268     		ldr	r2, [r2]
 977 0012 22F01F02 		bic	r2, r2, #31
 978 0016 1A60     		str	r2, [r3]
 979 0018 00BF     		nop
 980              	.L45:
 981              		.loc 1 376 0 is_stmt 0 discriminator 2
 982 001a 019B     		ldr	r3, [sp, #4]
 983 001c DB6A     		ldr	r3, [r3, #44]
 984 001e 1B68     		ldr	r3, [r3]
 985 0020 1B68     		ldr	r3, [r3]
 986 0022 03F00103 		and	r3, r3, #1
 987 0026 002B     		cmp	r3, #0
 988 0028 F7D1     		bne	.L45
 989              		.loc 1 376 0 discriminator 3
 990 002a 019B     		ldr	r3, [sp, #4]
 991 002c DB6A     		ldr	r3, [r3, #44]
 992 002e 5B68     		ldr	r3, [r3, #4]
 993 0030 019A     		ldr	r2, [sp, #4]
 994 0032 D26A     		ldr	r2, [r2, #44]
 995 0034 127A     		ldrb	r2, [r2, #8]	@ zero_extendqisi2
 996 0036 1146     		mov	r1, r2
 997 0038 3D22     		movs	r2, #61
 998 003a 8A40     		lsls	r2, r2, r1
 999 003c 1A60     		str	r2, [r3]
 1000              		.loc 1 377 0 is_stmt 1 discriminator 3
 1001 003e 019B     		ldr	r3, [sp, #4]
ARM GAS  /tmp/cc2xpVSZ.s 			page 19


 1002 0040 9B6A     		ldr	r3, [r3, #40]
 1003 0042 0022     		movs	r2, #0
 1004 0044 5A60     		str	r2, [r3, #4]
 1005              		.loc 1 378 0 discriminator 3
 1006 0046 019B     		ldr	r3, [sp, #4]
 1007 0048 9B6A     		ldr	r3, [r3, #40]
 1008 004a 0022     		movs	r2, #0
 1009 004c 9A60     		str	r2, [r3, #8]
 1010              		.loc 1 379 0 discriminator 3
 1011 004e 019B     		ldr	r3, [sp, #4]
 1012 0050 9B6A     		ldr	r3, [r3, #40]
 1013 0052 0122     		movs	r2, #1
 1014 0054 9A60     		str	r2, [r3, #8]
 1015              		.loc 1 380 0 discriminator 3
 1016 0056 02B0     		add	sp, sp, #8
 1017              		.cfi_def_cfa_offset 0
 1018              		@ sp needed
 1019 0058 7047     		bx	lr
 1020              		.cfi_endproc
 1021              	.LFE117:
 1022              		.size	adc_lld_stop_conversion, .-adc_lld_stop_conversion
 1023 005a 00BFAFF3 		.section	.text.adcSTM32EnableTSVREFE,"ax",%progbits
 1023      0080
 1024              		.align	2
 1025              		.p2align 4,,15
 1026              		.global	adcSTM32EnableTSVREFE
 1027              		.thumb
 1028              		.thumb_func
 1029              		.type	adcSTM32EnableTSVREFE, %function
 1030              	adcSTM32EnableTSVREFE:
 1031              	.LFB118:
 1032              		.loc 1 388 0
 1033              		.cfi_startproc
 1034              		@ args = 0, pretend = 0, frame = 0
 1035              		@ frame_needed = 0, uses_anonymous_args = 0
 1036              		@ link register save eliminated.
 1037              		.loc 1 390 0
 1038 0000 034A     		ldr	r2, .L47
 1039 0002 034B     		ldr	r3, .L47
 1040 0004 5B68     		ldr	r3, [r3, #4]
 1041 0006 43F40003 		orr	r3, r3, #8388608
 1042 000a 5360     		str	r3, [r2, #4]
 1043              		.loc 1 391 0
 1044 000c 7047     		bx	lr
 1045              	.L48:
 1046 000e 00BF     		.align	2
 1047              	.L47:
 1048 0010 00230140 		.word	1073816320
 1049              		.cfi_endproc
 1050              	.LFE118:
 1051              		.size	adcSTM32EnableTSVREFE, .-adcSTM32EnableTSVREFE
 1052 0014 AFF30080 		.section	.text.adcSTM32DisableTSVREFE,"ax",%progbits
 1052      AFF30080 
 1052      AFF30080 
 1053              		.align	2
 1054              		.p2align 4,,15
 1055              		.global	adcSTM32DisableTSVREFE
ARM GAS  /tmp/cc2xpVSZ.s 			page 20


 1056              		.thumb
 1057              		.thumb_func
 1058              		.type	adcSTM32DisableTSVREFE, %function
 1059              	adcSTM32DisableTSVREFE:
 1060              	.LFB119:
 1061              		.loc 1 399 0
 1062              		.cfi_startproc
 1063              		@ args = 0, pretend = 0, frame = 0
 1064              		@ frame_needed = 0, uses_anonymous_args = 0
 1065              		@ link register save eliminated.
 1066              		.loc 1 401 0
 1067 0000 034A     		ldr	r2, .L50
 1068 0002 034B     		ldr	r3, .L50
 1069 0004 5B68     		ldr	r3, [r3, #4]
 1070 0006 23F40003 		bic	r3, r3, #8388608
 1071 000a 5360     		str	r3, [r2, #4]
 1072              		.loc 1 402 0
 1073 000c 7047     		bx	lr
 1074              	.L51:
 1075 000e 00BF     		.align	2
 1076              	.L50:
 1077 0010 00230140 		.word	1073816320
 1078              		.cfi_endproc
 1079              	.LFE119:
 1080              		.size	adcSTM32DisableTSVREFE, .-adcSTM32DisableTSVREFE
 1081 0014 AFF30080 		.section	.text.adcSTM32EnableVBATE,"ax",%progbits
 1081      AFF30080 
 1081      AFF30080 
 1082              		.align	2
 1083              		.p2align 4,,15
 1084              		.global	adcSTM32EnableVBATE
 1085              		.thumb
 1086              		.thumb_func
 1087              		.type	adcSTM32EnableVBATE, %function
 1088              	adcSTM32EnableVBATE:
 1089              	.LFB120:
 1090              		.loc 1 410 0
 1091              		.cfi_startproc
 1092              		@ args = 0, pretend = 0, frame = 0
 1093              		@ frame_needed = 0, uses_anonymous_args = 0
 1094              		@ link register save eliminated.
 1095              		.loc 1 412 0
 1096 0000 034A     		ldr	r2, .L53
 1097 0002 034B     		ldr	r3, .L53
 1098 0004 5B68     		ldr	r3, [r3, #4]
 1099 0006 43F48003 		orr	r3, r3, #4194304
 1100 000a 5360     		str	r3, [r2, #4]
 1101              		.loc 1 413 0
 1102 000c 7047     		bx	lr
 1103              	.L54:
 1104 000e 00BF     		.align	2
 1105              	.L53:
 1106 0010 00230140 		.word	1073816320
 1107              		.cfi_endproc
 1108              	.LFE120:
 1109              		.size	adcSTM32EnableVBATE, .-adcSTM32EnableVBATE
 1110 0014 AFF30080 		.section	.text.adcSTM32DisableVBATE,"ax",%progbits
ARM GAS  /tmp/cc2xpVSZ.s 			page 21


 1110      AFF30080 
 1110      AFF30080 
 1111              		.align	2
 1112              		.p2align 4,,15
 1113              		.global	adcSTM32DisableVBATE
 1114              		.thumb
 1115              		.thumb_func
 1116              		.type	adcSTM32DisableVBATE, %function
 1117              	adcSTM32DisableVBATE:
 1118              	.LFB121:
 1119              		.loc 1 421 0
 1120              		.cfi_startproc
 1121              		@ args = 0, pretend = 0, frame = 0
 1122              		@ frame_needed = 0, uses_anonymous_args = 0
 1123              		@ link register save eliminated.
 1124              		.loc 1 423 0
 1125 0000 034A     		ldr	r2, .L56
 1126 0002 034B     		ldr	r3, .L56
 1127 0004 5B68     		ldr	r3, [r3, #4]
 1128 0006 23F48003 		bic	r3, r3, #4194304
 1129 000a 5360     		str	r3, [r2, #4]
 1130              		.loc 1 424 0
 1131 000c 7047     		bx	lr
 1132              	.L57:
 1133 000e 00BF     		.align	2
 1134              	.L56:
 1135 0010 00230140 		.word	1073816320
 1136              		.cfi_endproc
 1137              	.LFE121:
 1138              		.size	adcSTM32DisableVBATE, .-adcSTM32DisableVBATE
 1139 0014 AFF30080 		.text
 1139      AFF30080 
 1139      AFF30080 
 1140              	.Letext0:
 1141              		.file 2 "/opt/gcc-arm-none-eabi/lib/gcc/arm-none-eabi/4.9.3/include/stddef.h"
 1142              		.file 3 "/opt/gcc-arm-none-eabi/arm-none-eabi/include/machine/_default_types.h"
 1143              		.file 4 "/opt/gcc-arm-none-eabi/arm-none-eabi/include/stdint.h"
 1144              		.file 5 "/home/makkmarci/workspace/ChibiOS_2.6.8/os/ports/GCC/ARMCMx/chtypes.h"
 1145              		.file 6 "/home/makkmarci/workspace/ChibiOS_2.6.8/os/kernel/include/chlists.h"
 1146              		.file 7 "/home/makkmarci/workspace/ChibiOS_2.6.8/os/kernel/include/chthreads.h"
 1147              		.file 8 "/home/makkmarci/workspace/ChibiOS_2.6.8/os/ports/GCC/ARMCMx/chcore_v7m.h"
 1148              		.file 9 "/home/makkmarci/workspace/ChibiOS_2.6.8/os/kernel/include/chmtx.h"
 1149              		.file 10 "/home/makkmarci/workspace/ChibiOS_2.6.8/os/hal/platforms/STM32F4xx/stm32f4xx.h"
 1150              		.file 11 "/home/makkmarci/workspace/ChibiOS_2.6.8/os/hal/platforms/STM32F4xx/stm32_dma.h"
 1151              		.file 12 "/home/makkmarci/workspace/ChibiOS_2.6.8/os/hal/include/adc.h"
 1152              		.file 13 "/home/makkmarci/workspace/ChibiOS_2.6.8/os/hal/platforms/STM32F4xx/adc_lld.h"
 1153              		.file 14 "/home/makkmarci/workspace/ChibiOS_2.6.8/os/ports/common/ARMCMx/CMSIS/include/core_cm4.h"