ARM GAS  /tmp/ccV91MuA.s 			page 1


   1              		.syntax unified
   2              		.cpu cortex-m4
   3              		.eabi_attribute 27, 3
   4              		.eabi_attribute 28, 1
   5              		.fpu fpv4-sp-d16
   6              		.eabi_attribute 20, 1
   7              		.eabi_attribute 21, 1
   8              		.eabi_attribute 23, 3
   9              		.eabi_attribute 24, 1
  10              		.eabi_attribute 25, 1
  11              		.eabi_attribute 26, 1
  12              		.eabi_attribute 30, 2
  13              		.eabi_attribute 34, 1
  14              		.eabi_attribute 18, 4
  15              		.thumb
  16              		.file	"adc_lld.c"
  17              		.text
  18              	.Ltext0:
  19              		.cfi_sections	.debug_frame
  20              		.section	.text.adc_lld_init,"ax",%progbits
  21              		.align	2
  22              		.p2align 4,,15
  23              		.global	adc_lld_init
  24              		.thumb
  25              		.thumb_func
  26              		.type	adc_lld_init, %function
  27              	adc_lld_init:
  28              	.LFB113:
  29              		.file 1 "../../os/hal/platforms/STM32F4xx/adc_lld.c"
  30              		.loc 1 171 0
  31              		.cfi_startproc
  32              		@ args = 0, pretend = 0, frame = 0
  33              		@ frame_needed = 0, uses_anonymous_args = 0
  34 0000 70B5     		push	{r4, r5, r6, lr}
  35              		.cfi_def_cfa_offset 16
  36              		.cfi_offset 4, -16
  37              		.cfi_offset 5, -12
  38              		.cfi_offset 6, -8
  39              		.cfi_offset 14, -4
  40              		.loc 1 175 0
  41 0002 0D4D     		ldr	r5, .L2
  42              		.loc 1 188 0
  43 0004 0D4C     		ldr	r4, .L2+4
  44              		.loc 1 177 0
  45 0006 0E4E     		ldr	r6, .L2+8
  46              		.loc 1 175 0
  47 0008 2846     		mov	r0, r5
  48 000a FFF7FEFF 		bl	adcObjectInit
  49              	.LVL0:
  50              		.loc 1 176 0
  51 000e 0D4A     		ldr	r2, .L2+12
  52              		.loc 1 178 0
  53 0010 0D4B     		ldr	r3, .L2+16
  54              		.loc 1 176 0
  55 0012 AA62     		str	r2, [r5, #40]
  56              		.loc 1 188 0
  57 0014 2046     		mov	r0, r4
ARM GAS  /tmp/ccV91MuA.s 			page 2


  58              		.loc 1 178 0
  59 0016 2B63     		str	r3, [r5, #48]
  60              		.loc 1 177 0
  61 0018 EE62     		str	r6, [r5, #44]
  62              		.loc 1 188 0
  63 001a FFF7FEFF 		bl	adcObjectInit
  64              	.LVL1:
  65              		.loc 1 190 0
  66 001e 183E     		subs	r6, r6, #24
  67              		.loc 1 189 0
  68 0020 0A4A     		ldr	r2, .L2+20
  69              		.loc 1 191 0
  70 0022 0B4B     		ldr	r3, .L2+24
  71              		.loc 1 190 0
  72 0024 E662     		str	r6, [r4, #44]
  73              		.loc 1 189 0
  74 0026 A262     		str	r2, [r4, #40]
  75              		.loc 1 191 0
  76 0028 2363     		str	r3, [r4, #48]
  77              		.loc 1 214 0
  78 002a 1220     		movs	r0, #18
  79 002c 6021     		movs	r1, #96
  80              		.loc 1 215 0
  81 002e BDE87040 		pop	{r4, r5, r6, lr}
  82              		.loc 1 214 0
  83 0032 FFF7FEBF 		b	nvicEnableVector
  84              	.LVL2:
  85              	.L3:
  86 0036 00BF     		.align	2
  87              	.L2:
  88 0038 00000000 		.word	.LANCHOR0
  89 003c 00000000 		.word	.LANCHOR1
  90 0040 90000000 		.word	_stm32_dma_streams+144
  91 0044 00200140 		.word	1073815552
  92 0048 162C0200 		.word	142358
  93 004c 00210140 		.word	1073815808
  94 0050 162C0202 		.word	33696790
  95              		.cfi_endproc
  96              	.LFE113:
  97              		.size	adc_lld_init, .-adc_lld_init
  98 0054 AFF30080 		.section	.text.adc_lld_start,"ax",%progbits
  98      AFF30080 
  98      AFF30080 
  99              		.align	2
 100              		.p2align 4,,15
 101              		.global	adc_lld_start
 102              		.thumb
 103              		.thumb_func
 104              		.type	adc_lld_start, %function
 105              	adc_lld_start:
 106              	.LFB114:
 107              		.loc 1 224 0
 108              		.cfi_startproc
 109              		@ args = 0, pretend = 0, frame = 0
 110              		@ frame_needed = 0, uses_anonymous_args = 0
 111              	.LVL3:
 112 0000 38B5     		push	{r3, r4, r5, lr}
ARM GAS  /tmp/ccV91MuA.s 			page 3


 113              		.cfi_def_cfa_offset 16
 114              		.cfi_offset 3, -16
 115              		.cfi_offset 4, -12
 116              		.cfi_offset 5, -8
 117              		.cfi_offset 14, -4
 118              		.loc 1 227 0
 119 0002 0378     		ldrb	r3, [r0]	@ zero_extendqisi2
 120 0004 012B     		cmp	r3, #1
 121              		.loc 1 224 0
 122 0006 0446     		mov	r4, r0
 123              		.loc 1 227 0
 124 0008 00D0     		beq	.L17
 125 000a 38BD     		pop	{r3, r4, r5, pc}
 126              	.L17:
 127              		.loc 1 229 0
 128 000c 1E4D     		ldr	r5, .L22
 129 000e A842     		cmp	r0, r5
 130 0010 10D0     		beq	.L18
 131              		.loc 1 242 0
 132 0012 1E4D     		ldr	r5, .L22+4
 133 0014 A842     		cmp	r0, r5
 134 0016 1ED0     		beq	.L19
 135              	.LVL4:
 136              	.L8:
 137              		.loc 1 269 0
 138 0018 1D49     		ldr	r1, .L22+8
 139              		.loc 1 274 0
 140 001a A36A     		ldr	r3, [r4, #40]
 141              		.loc 1 269 0
 142 001c 4C68     		ldr	r4, [r1, #4]
 143              	.LVL5:
 144 001e 04F44004 		and	r4, r4, #12582912
 145              		.loc 1 274 0
 146 0022 0022     		movs	r2, #0
 147              		.loc 1 269 0
 148 0024 44F48034 		orr	r4, r4, #65536
 149              		.loc 1 276 0
 150 0028 0120     		movs	r0, #1
 151              		.loc 1 269 0
 152 002a 4C60     		str	r4, [r1, #4]
 153              		.loc 1 274 0
 154 002c 5A60     		str	r2, [r3, #4]
 155              		.loc 1 275 0
 156 002e 9A60     		str	r2, [r3, #8]
 157              		.loc 1 276 0
 158 0030 9860     		str	r0, [r3, #8]
 159 0032 38BD     		pop	{r3, r4, r5, pc}
 160              	.LVL6:
 161              	.L18:
 162              	.LBB2:
 163              		.loc 1 231 0
 164 0034 C06A     		ldr	r0, [r0, #44]
 165              	.LVL7:
 166 0036 174A     		ldr	r2, .L22+12
 167 0038 0621     		movs	r1, #6
 168 003a 2346     		mov	r3, r4
 169 003c FFF7FEFF 		bl	dmaStreamAllocate
ARM GAS  /tmp/ccV91MuA.s 			page 4


 170              	.LVL8:
 171              		.loc 1 235 0
 172 0040 D0B9     		cbnz	r0, .L20
 173              	.LVL9:
 174              	.L7:
 175              		.loc 1 236 0
 176 0042 EB6A     		ldr	r3, [r5, #44]
 177 0044 1449     		ldr	r1, .L22+16
 178 0046 1A68     		ldr	r2, [r3]
 179              		.loc 1 237 0
 180 0048 144B     		ldr	r3, .L22+20
 181              		.loc 1 236 0
 182 004a 9160     		str	r1, [r2, #8]
 183              		.loc 1 237 0
 184 004c 5A6C     		ldr	r2, [r3, #68]
 185 004e 42F48072 		orr	r2, r2, #256
 186 0052 5A64     		str	r2, [r3, #68]
 187 0054 E0E7     		b	.L8
 188              	.LVL10:
 189              	.L19:
 190              	.LBE2:
 191              	.LBB3:
 192              		.loc 1 244 0
 193 0056 C06A     		ldr	r0, [r0, #44]
 194              	.LVL11:
 195 0058 0E4A     		ldr	r2, .L22+12
 196 005a 0621     		movs	r1, #6
 197 005c 2346     		mov	r3, r4
 198 005e FFF7FEFF 		bl	dmaStreamAllocate
 199              	.LVL12:
 200              		.loc 1 248 0
 201 0062 68B9     		cbnz	r0, .L21
 202              	.LVL13:
 203              	.L9:
 204              		.loc 1 249 0
 205 0064 EB6A     		ldr	r3, [r5, #44]
 206 0066 0E49     		ldr	r1, .L22+24
 207 0068 1A68     		ldr	r2, [r3]
 208              		.loc 1 250 0
 209 006a 0C4B     		ldr	r3, .L22+20
 210              		.loc 1 249 0
 211 006c 9160     		str	r1, [r2, #8]
 212              		.loc 1 250 0
 213 006e 5A6C     		ldr	r2, [r3, #68]
 214 0070 42F40072 		orr	r2, r2, #512
 215 0074 5A64     		str	r2, [r3, #68]
 216 0076 CFE7     		b	.L8
 217              	.LVL14:
 218              	.L20:
 219              	.LBE3:
 220              	.LBB4:
 221              		.loc 1 235 0 discriminator 1
 222 0078 0A48     		ldr	r0, .L22+28
 223              	.LVL15:
 224 007a FFF7FEFF 		bl	chDbgPanic
 225              	.LVL16:
 226 007e E0E7     		b	.L7
ARM GAS  /tmp/ccV91MuA.s 			page 5


 227              	.LVL17:
 228              	.L21:
 229              	.LBE4:
 230              	.LBB5:
 231              		.loc 1 248 0 discriminator 1
 232 0080 0948     		ldr	r0, .L22+32
 233              	.LVL18:
 234 0082 FFF7FEFF 		bl	chDbgPanic
 235              	.LVL19:
 236 0086 EDE7     		b	.L9
 237              	.L23:
 238              		.align	2
 239              	.L22:
 240 0088 00000000 		.word	.LANCHOR0
 241 008c 00000000 		.word	.LANCHOR1
 242 0090 00230140 		.word	1073816320
 243 0094 00000000 		.word	adc_lld_serve_rx_interrupt
 244 0098 4C200140 		.word	1073815628
 245 009c 00380240 		.word	1073887232
 246 00a0 4C210140 		.word	1073815884
 247 00a4 00000000 		.word	.LC0
 248 00a8 14000000 		.word	.LC1
 249              	.LBE5:
 250              		.cfi_endproc
 251              	.LFE114:
 252              		.size	adc_lld_start, .-adc_lld_start
 253 00ac AFF30080 		.section	.text.adc_lld_stop,"ax",%progbits
 254              		.align	2
 255              		.p2align 4,,15
 256              		.global	adc_lld_stop
 257              		.thumb
 258              		.thumb_func
 259              		.type	adc_lld_stop, %function
 260              	adc_lld_stop:
 261              	.LFB115:
 262              		.loc 1 287 0
 263              		.cfi_startproc
 264              		@ args = 0, pretend = 0, frame = 0
 265              		@ frame_needed = 0, uses_anonymous_args = 0
 266              	.LVL20:
 267              		.loc 1 290 0
 268 0000 0378     		ldrb	r3, [r0]	@ zero_extendqisi2
 269 0002 022B     		cmp	r3, #2
 270              		.loc 1 287 0
 271 0004 10B5     		push	{r4, lr}
 272              		.cfi_def_cfa_offset 8
 273              		.cfi_offset 4, -8
 274              		.cfi_offset 14, -4
 275              		.loc 1 287 0
 276 0006 0446     		mov	r4, r0
 277              		.loc 1 290 0
 278 0008 00D0     		beq	.L29
 279              	.LVL21:
 280              	.L24:
 281 000a 10BD     		pop	{r4, pc}
 282              	.LVL22:
 283              	.L29:
ARM GAS  /tmp/ccV91MuA.s 			page 6


 284              		.loc 1 291 0
 285 000c C06A     		ldr	r0, [r0, #44]
 286              	.LVL23:
 287 000e FFF7FEFF 		bl	dmaStreamRelease
 288              	.LVL24:
 289              		.loc 1 296 0
 290 0012 0B49     		ldr	r1, .L31
 291              		.loc 1 292 0
 292 0014 A36A     		ldr	r3, [r4, #40]
 293 0016 0022     		movs	r2, #0
 294              		.loc 1 296 0
 295 0018 8C42     		cmp	r4, r1
 296              		.loc 1 292 0
 297 001a 5A60     		str	r2, [r3, #4]
 298              		.loc 1 293 0
 299 001c 9A60     		str	r2, [r3, #8]
 300              		.loc 1 296 0
 301 001e 08D0     		beq	.L30
 302              		.loc 1 301 0
 303 0020 084B     		ldr	r3, .L31+4
 304 0022 9C42     		cmp	r4, r3
 305 0024 F1D1     		bne	.L24
 306              		.loc 1 302 0
 307 0026 084B     		ldr	r3, .L31+8
 308 0028 5A6C     		ldr	r2, [r3, #68]
 309 002a 22F40072 		bic	r2, r2, #512
 310 002e 5A64     		str	r2, [r3, #68]
 311 0030 EBE7     		b	.L24
 312              	.L30:
 313              		.loc 1 297 0
 314 0032 054B     		ldr	r3, .L31+8
 315 0034 5A6C     		ldr	r2, [r3, #68]
 316 0036 22F48072 		bic	r2, r2, #256
 317 003a 5A64     		str	r2, [r3, #68]
 318 003c 10BD     		pop	{r4, pc}
 319              	.LVL25:
 320              	.L32:
 321 003e 00BF     		.align	2
 322              	.L31:
 323 0040 00000000 		.word	.LANCHOR0
 324 0044 00000000 		.word	.LANCHOR1
 325 0048 00380240 		.word	1073887232
 326              		.cfi_endproc
 327              	.LFE115:
 328              		.size	adc_lld_stop, .-adc_lld_stop
 329 004c AFF30080 		.section	.text.adc_lld_start_conversion,"ax",%progbits
 330              		.align	2
 331              		.p2align 4,,15
 332              		.global	adc_lld_start_conversion
 333              		.thumb
 334              		.thumb_func
 335              		.type	adc_lld_start_conversion, %function
 336              	adc_lld_start_conversion:
 337              	.LFB116:
 338              		.loc 1 319 0
 339              		.cfi_startproc
 340              		@ args = 0, pretend = 0, frame = 0
ARM GAS  /tmp/ccV91MuA.s 			page 7


 341              		@ frame_needed = 0, uses_anonymous_args = 0
 342              		@ link register save eliminated.
 343              	.LVL26:
 344              		.loc 1 321 0
 345 0000 0369     		ldr	r3, [r0, #16]
 346              	.LVL27:
 347              		.loc 1 324 0
 348 0002 026B     		ldr	r2, [r0, #48]
 349              	.LVL28:
 350              		.loc 1 325 0
 351 0004 1978     		ldrb	r1, [r3]	@ zero_extendqisi2
 352              		.loc 1 319 0
 353 0006 2DE9F003 		push	{r4, r5, r6, r7, r8, r9}
 354              		.cfi_def_cfa_offset 24
 355              		.cfi_offset 4, -24
 356              		.cfi_offset 5, -20
 357              		.cfi_offset 6, -16
 358              		.cfi_offset 7, -12
 359              		.cfi_offset 8, -8
 360              		.cfi_offset 9, -4
 361              		.loc 1 327 0
 362 000a C468     		ldr	r4, [r0, #12]
 363              		.loc 1 325 0
 364 000c 29B1     		cbz	r1, .L35
 365              	.LVL29:
 366              		.loc 1 327 0
 367 000e 012C     		cmp	r4, #1
 368              		.loc 1 326 0
 369 0010 94BF     		ite	ls
 370 0012 42F48072 		orrls	r2, r2, #256
 371              	.LVL30:
 372              		.loc 1 330 0
 373 0016 42F48472 		orrhi	r2, r2, #264
 374              	.LVL31:
 375              	.L35:
 376              		.loc 1 333 0
 377 001a C16A     		ldr	r1, [r0, #44]
 378              		.loc 1 334 0
 379 001c 5E88     		ldrh	r6, [r3, #2]
 380              		.loc 1 333 0
 381 001e 0968     		ldr	r1, [r1]
 382 0020 8568     		ldr	r5, [r0, #8]
 383 0022 CD60     		str	r5, [r1, #12]
 384              		.loc 1 334 0
 385 0024 06FB04F4 		mul	r4, r6, r4
 386 0028 4C60     		str	r4, [r1, #4]
 387              		.loc 1 349 0
 388 002a D3F80C80 		ldr	r8, [r3, #12]
 389              		.loc 1 336 0
 390 002e 0A60     		str	r2, [r1]
 391              		.loc 1 340 0
 392 0030 826A     		ldr	r2, [r0, #40]
 393              	.LVL32:
 394              		.loc 1 350 0
 395 0032 1869     		ldr	r0, [r3, #16]
 396              	.LVL33:
 397              		.loc 1 337 0
ARM GAS  /tmp/ccV91MuA.s 			page 8


 398 0034 D1F80090 		ldr	r9, [r1]
 399              		.loc 1 342 0
 400 0038 9F69     		ldr	r7, [r3, #24]
 401              		.loc 1 343 0
 402 003a DE69     		ldr	r6, [r3, #28]
 403              		.loc 1 344 0
 404 003c 1D6A     		ldr	r5, [r3, #32]
 405              		.loc 1 345 0
 406 003e 5C6A     		ldr	r4, [r3, #36]
 407              		.loc 1 341 0
 408 0040 D3F814C0 		ldr	ip, [r3, #20]
 409              		.loc 1 350 0
 410 0044 10F0804F 		tst	r0, #1073741824
 411              		.loc 1 349 0
 412 0048 48F08063 		orr	r3, r8, #67108864
 413              	.LVL34:
 414              		.loc 1 352 0
 415 004c 40F44070 		orr	r0, r0, #768
 416              		.loc 1 337 0
 417 0050 49F00109 		orr	r9, r9, #1
 418              		.loc 1 340 0
 419 0054 4FF00008 		mov	r8, #0
 420              		.loc 1 349 0
 421 0058 43F48073 		orr	r3, r3, #256
 422              		.loc 1 352 0
 423 005c 14BF     		ite	ne
 424 005e 40F00300 		orrne	r0, r0, #3
 425              		.loc 1 355 0
 426 0062 40F00100 		orreq	r0, r0, #1
 427              		.loc 1 337 0
 428 0066 C1F80090 		str	r9, [r1]
 429              	.LVL35:
 430              		.loc 1 340 0
 431 006a C2F80080 		str	r8, [r2]
 432              		.loc 1 341 0
 433 006e C2F80CC0 		str	ip, [r2, #12]
 434              		.loc 1 342 0
 435 0072 1761     		str	r7, [r2, #16]
 436              		.loc 1 343 0
 437 0074 D662     		str	r6, [r2, #44]
 438              		.loc 1 344 0
 439 0076 1563     		str	r5, [r2, #48]
 440              		.loc 1 345 0
 441 0078 5463     		str	r4, [r2, #52]
 442              		.loc 1 349 0
 443 007a 5360     		str	r3, [r2, #4]
 444              		.loc 1 356 0
 445 007c BDE8F003 		pop	{r4, r5, r6, r7, r8, r9}
 446              		.loc 1 354 0
 447 0080 9060     		str	r0, [r2, #8]
 448              		.loc 1 356 0
 449 0082 7047     		bx	lr
 450              		.cfi_endproc
 451              	.LFE116:
 452              		.size	adc_lld_start_conversion, .-adc_lld_start_conversion
 453 0084 AFF30080 		.section	.text.adc_lld_stop_conversion,"ax",%progbits
 453      AFF30080 
ARM GAS  /tmp/ccV91MuA.s 			page 9


 453      AFF30080 
 454              		.align	2
 455              		.p2align 4,,15
 456              		.global	adc_lld_stop_conversion
 457              		.thumb
 458              		.thumb_func
 459              		.type	adc_lld_stop_conversion, %function
 460              	adc_lld_stop_conversion:
 461              	.LFB117:
 462              		.loc 1 365 0
 463              		.cfi_startproc
 464              		@ args = 0, pretend = 0, frame = 0
 465              		@ frame_needed = 0, uses_anonymous_args = 0
 466              		@ link register save eliminated.
 467              	.LVL36:
 468              		.loc 1 367 0
 469 0000 C16A     		ldr	r1, [r0, #44]
 470 0002 0A68     		ldr	r2, [r1]
 471 0004 1368     		ldr	r3, [r2]
 472 0006 23F01F03 		bic	r3, r3, #31
 473              		.loc 1 365 0
 474 000a 10B4     		push	{r4}
 475              		.cfi_def_cfa_offset 4
 476              		.cfi_offset 4, -4
 477              		.loc 1 367 0
 478 000c 1360     		str	r3, [r2]
 479              	.L41:
 480              		.loc 1 367 0 is_stmt 0 discriminator 1
 481 000e 1368     		ldr	r3, [r2]
 482 0010 13F00103 		ands	r3, r3, #1
 483 0014 FBD1     		bne	.L41
 484              		.loc 1 367 0 discriminator 2
 485 0016 0C7A     		ldrb	r4, [r1, #8]	@ zero_extendqisi2
 486              		.loc 1 368 0 is_stmt 1 discriminator 2
 487 0018 826A     		ldr	r2, [r0, #40]
 488              		.loc 1 367 0 discriminator 2
 489 001a 4868     		ldr	r0, [r1, #4]
 490              	.LVL37:
 491 001c 3D21     		movs	r1, #61
 492 001e 01FA04F4 		lsl	r4, r1, r4
 493              		.loc 1 370 0 discriminator 2
 494 0022 0121     		movs	r1, #1
 495              		.loc 1 367 0 discriminator 2
 496 0024 0460     		str	r4, [r0]
 497              		.loc 1 368 0 discriminator 2
 498 0026 5360     		str	r3, [r2, #4]
 499              		.loc 1 371 0 discriminator 2
 500 0028 5DF8044B 		ldr	r4, [sp], #4
 501              		.loc 1 369 0 discriminator 2
 502 002c 9360     		str	r3, [r2, #8]
 503              		.loc 1 370 0 discriminator 2
 504 002e 9160     		str	r1, [r2, #8]
 505              		.loc 1 371 0 discriminator 2
 506 0030 7047     		bx	lr
 507              		.cfi_endproc
 508              	.LFE117:
 509              		.size	adc_lld_stop_conversion, .-adc_lld_stop_conversion
ARM GAS  /tmp/ccV91MuA.s 			page 10


 510 0032 00BFAFF3 		.section	.text.Vector88,"ax",%progbits
 510      0080AFF3 
 510      0080AFF3 
 510      0080
 511              		.align	2
 512              		.p2align 4,,15
 513              		.global	Vector88
 514              		.thumb
 515              		.thumb_func
 516              		.type	Vector88, %function
 517              	Vector88:
 518              	.LFB112:
 519              		.loc 1 111 0
 520              		.cfi_startproc
 521              		@ args = 0, pretend = 0, frame = 0
 522              		@ frame_needed = 0, uses_anonymous_args = 0
 523              		.loc 1 117 0
 524 0000 2F4B     		ldr	r3, .L78
 525 0002 1A68     		ldr	r2, [r3]
 526              	.LVL38:
 527              		.loc 1 118 0
 528 0004 0021     		movs	r1, #0
 529              		.loc 1 121 0
 530 0006 9206     		lsls	r2, r2, #26
 531              	.LVL39:
 532              		.loc 1 111 0
 533 0008 10B5     		push	{r4, lr}
 534              		.cfi_def_cfa_offset 8
 535              		.cfi_offset 4, -8
 536              		.cfi_offset 14, -4
 537              		.loc 1 118 0
 538 000a 1960     		str	r1, [r3]
 539              		.loc 1 121 0
 540 000c 05D5     		bpl	.L43
 541              		.loc 1 121 0 is_stmt 0 discriminator 1
 542 000e 2D4C     		ldr	r4, .L78+4
 543 0010 E36A     		ldr	r3, [r4, #44]
 544 0012 1B68     		ldr	r3, [r3]
 545 0014 5B68     		ldr	r3, [r3, #4]
 546 0016 002B     		cmp	r3, #0
 547 0018 2FD1     		bne	.L77
 548              	.L43:
 549              		.loc 1 131 0 is_stmt 1
 550 001a 2B4B     		ldr	r3, .L78+8
 551 001c 1A68     		ldr	r2, [r3]
 552              	.LVL40:
 553              		.loc 1 132 0
 554 001e 0021     		movs	r1, #0
 555 0020 1960     		str	r1, [r3]
 556              		.loc 1 135 0
 557 0022 9306     		lsls	r3, r2, #26
 558 0024 25D5     		bpl	.L48
 559              		.loc 1 135 0 is_stmt 0 discriminator 1
 560 0026 294C     		ldr	r4, .L78+12
 561 0028 E36A     		ldr	r3, [r4, #44]
 562 002a 1B68     		ldr	r3, [r3]
 563 002c 5B68     		ldr	r3, [r3, #4]
ARM GAS  /tmp/ccV91MuA.s 			page 11


 564 002e 03B3     		cbz	r3, .L48
 565              		.loc 1 138 0 is_stmt 1
 566 0030 2369     		ldr	r3, [r4, #16]
 567 0032 F3B1     		cbz	r3, .L48
 568              		.loc 1 139 0
 569 0034 2046     		mov	r0, r4
 570 0036 FFF7FEFF 		bl	adc_lld_stop_conversion
 571              	.LVL41:
 572 003a 2369     		ldr	r3, [r4, #16]
 573 003c 9B68     		ldr	r3, [r3, #8]
 574 003e 4BB1     		cbz	r3, .L50
 575              		.loc 1 139 0 is_stmt 0 discriminator 1
 576 0040 0522     		movs	r2, #5
 577 0042 2270     		strb	r2, [r4]
 578 0044 2046     		mov	r0, r4
 579 0046 0121     		movs	r1, #1
 580 0048 9847     		blx	r3
 581              	.LVL42:
 582 004a 2378     		ldrb	r3, [r4]	@ zero_extendqisi2
 583 004c 052B     		cmp	r3, #5
 584 004e 04BF     		itt	eq
 585 0050 0223     		moveq	r3, #2
 586 0052 2370     		strbeq	r3, [r4]
 587              	.L50:
 588              		.loc 1 139 0 discriminator 2
 589 0054 0022     		movs	r2, #0
 590 0056 2261     		str	r2, [r4, #16]
 591 0058 1C49     		ldr	r1, .L78+12
 592              	@ 139 "../../os/hal/platforms/STM32F4xx/adc_lld.c" 1
 593 005a FFF7FEFF 		bl      _port_lock
 594              	@ 0 "" 2
 595              		.thumb
 596 005e 6069     		ldr	r0, [r4, #20]
 597 0060 28B1     		cbz	r0, .L52
 598              	.LVL43:
 599              	.LBB6:
 600              		.loc 1 139 0 discriminator 1
 601 0062 4FF0FF33 		mov	r3, #-1
 602 0066 8362     		str	r3, [r0, #40]
 603 0068 4A61     		str	r2, [r1, #20]
 604 006a FFF7FEFF 		bl	chSchReadyI
 605              	.LVL44:
 606              	.L52:
 607              	.LBE6:
 608              		.loc 1 139 0 discriminator 2
 609              	@ 139 "../../os/hal/platforms/STM32F4xx/adc_lld.c" 1
 610 006e FFF7FEFF 		bl      _port_unlock
 611              	@ 0 "" 2
 612              		.thumb
 613              	.L48:
 614              		.loc 1 159 0 is_stmt 1
 615 0072 BDE81040 		pop	{r4, lr}
 616              		.loc 1 158 0
 617 0076 FFF7FEBF 		b	_port_irq_epilogue
 618              	.LVL45:
 619              	.L77:
 620              		.loc 1 124 0
ARM GAS  /tmp/ccV91MuA.s 			page 12


 621 007a 2369     		ldr	r3, [r4, #16]
 622 007c 002B     		cmp	r3, #0
 623 007e CCD0     		beq	.L43
 624              		.loc 1 125 0
 625 0080 2046     		mov	r0, r4
 626 0082 FFF7FEFF 		bl	adc_lld_stop_conversion
 627              	.LVL46:
 628 0086 2369     		ldr	r3, [r4, #16]
 629 0088 9B68     		ldr	r3, [r3, #8]
 630 008a 4BB1     		cbz	r3, .L45
 631              		.loc 1 125 0 is_stmt 0 discriminator 1
 632 008c 0522     		movs	r2, #5
 633 008e 2270     		strb	r2, [r4]
 634 0090 2046     		mov	r0, r4
 635 0092 0121     		movs	r1, #1
 636 0094 9847     		blx	r3
 637              	.LVL47:
 638 0096 2378     		ldrb	r3, [r4]	@ zero_extendqisi2
 639 0098 052B     		cmp	r3, #5
 640 009a 04BF     		itt	eq
 641 009c 0223     		moveq	r3, #2
 642 009e 2370     		strbeq	r3, [r4]
 643              	.L45:
 644              		.loc 1 125 0 discriminator 2
 645 00a0 0022     		movs	r2, #0
 646 00a2 2261     		str	r2, [r4, #16]
 647 00a4 0749     		ldr	r1, .L78+4
 648              	@ 125 "../../os/hal/platforms/STM32F4xx/adc_lld.c" 1
 649 00a6 FFF7FEFF 		bl      _port_lock
 650              	@ 0 "" 2
 651              		.thumb
 652 00aa 6069     		ldr	r0, [r4, #20]
 653 00ac 28B1     		cbz	r0, .L47
 654              	.LVL48:
 655              	.LBB7:
 656              		.loc 1 125 0 discriminator 1
 657 00ae 4FF0FF33 		mov	r3, #-1
 658 00b2 8362     		str	r3, [r0, #40]
 659 00b4 4A61     		str	r2, [r1, #20]
 660 00b6 FFF7FEFF 		bl	chSchReadyI
 661              	.LVL49:
 662              	.L47:
 663              	.LBE7:
 664              		.loc 1 125 0 discriminator 2
 665              	@ 125 "../../os/hal/platforms/STM32F4xx/adc_lld.c" 1
 666 00ba FFF7FEFF 		bl      _port_unlock
 667              	@ 0 "" 2
 668              		.thumb
 669 00be ACE7     		b	.L43
 670              	.L79:
 671              		.align	2
 672              	.L78:
 673 00c0 00200140 		.word	1073815552
 674 00c4 00000000 		.word	.LANCHOR0
 675 00c8 00210140 		.word	1073815808
 676 00cc 00000000 		.word	.LANCHOR1
 677              		.cfi_endproc
ARM GAS  /tmp/ccV91MuA.s 			page 13


 678              	.LFE112:
 679              		.size	Vector88, .-Vector88
 680              		.section	.text.adc_lld_serve_rx_interrupt,"ax",%progbits
 681              		.align	2
 682              		.p2align 4,,15
 683              		.thumb
 684              		.thumb_func
 685              		.type	adc_lld_serve_rx_interrupt, %function
 686              	adc_lld_serve_rx_interrupt:
 687              	.LFB111:
 688              		.loc 1 76 0 is_stmt 1
 689              		.cfi_startproc
 690              		@ args = 0, pretend = 0, frame = 0
 691              		@ frame_needed = 0, uses_anonymous_args = 0
 692              	.LVL50:
 693              		.loc 1 79 0
 694 0000 11F00C0F 		tst	r1, #12
 695              		.loc 1 76 0
 696 0004 38B5     		push	{r3, r4, r5, lr}
 697              		.cfi_def_cfa_offset 16
 698              		.cfi_offset 3, -16
 699              		.cfi_offset 4, -12
 700              		.cfi_offset 5, -8
 701              		.cfi_offset 14, -4
 702              		.loc 1 76 0
 703 0006 0446     		mov	r4, r0
 704              		.loc 1 79 0
 705 0008 1DD1     		bne	.L111
 706              		.loc 1 87 0
 707 000a 0369     		ldr	r3, [r0, #16]
 708 000c D3B1     		cbz	r3, .L80
 709              		.loc 1 88 0
 710 000e 8D06     		lsls	r5, r1, #26
 711 0010 10D5     		bpl	.L87
 712              		.loc 1 90 0
 713 0012 1D78     		ldrb	r5, [r3]	@ zero_extendqisi2
 714 0014 002D     		cmp	r5, #0
 715 0016 38D0     		beq	.L88
 716              		.loc 1 90 0 is_stmt 0 discriminator 1
 717 0018 5D68     		ldr	r5, [r3, #4]
 718 001a 9DB1     		cbz	r5, .L80
 719 001c C268     		ldr	r2, [r0, #12]
 720 001e 012A     		cmp	r2, #1
 721 0020 30D9     		bls	.L89
 722              	.LBB8:
 723 0022 5988     		ldrh	r1, [r3, #2]
 724              	.LVL51:
 725 0024 8368     		ldr	r3, [r0, #8]
 726 0026 5208     		lsrs	r2, r2, #1
 727              	.LVL52:
 728 0028 01FB02F1 		mul	r1, r1, r2
 729 002c 03EB4101 		add	r1, r3, r1, lsl #1
 730 0030 A847     		blx	r5
 731              	.LVL53:
 732              	.LBE8:
 733 0032 38BD     		pop	{r3, r4, r5, pc}
 734              	.LVL54:
ARM GAS  /tmp/ccV91MuA.s 			page 14


 735              	.L87:
 736              		.loc 1 92 0 is_stmt 1
 737 0034 CA06     		lsls	r2, r1, #27
 738 0036 05D5     		bpl	.L80
 739              		.loc 1 94 0
 740 0038 5B68     		ldr	r3, [r3, #4]
 741 003a 1BB1     		cbz	r3, .L80
 742              		.loc 1 94 0 is_stmt 0 discriminator 1
 743 003c C268     		ldr	r2, [r0, #12]
 744 003e 8168     		ldr	r1, [r0, #8]
 745              	.LVL55:
 746 0040 5208     		lsrs	r2, r2, #1
 747 0042 9847     		blx	r3
 748              	.LVL56:
 749              	.L80:
 750 0044 38BD     		pop	{r3, r4, r5, pc}
 751              	.LVL57:
 752              	.L111:
 753              		.loc 1 82 0 is_stmt 1
 754 0046 FFF7FEFF 		bl	adc_lld_stop_conversion
 755              	.LVL58:
 756 004a 2369     		ldr	r3, [r4, #16]
 757 004c 9B68     		ldr	r3, [r3, #8]
 758 004e 4BB1     		cbz	r3, .L83
 759              		.loc 1 82 0 is_stmt 0 discriminator 1
 760 0050 0522     		movs	r2, #5
 761 0052 2270     		strb	r2, [r4]
 762 0054 2046     		mov	r0, r4
 763 0056 0021     		movs	r1, #0
 764 0058 9847     		blx	r3
 765              	.LVL59:
 766 005a 2378     		ldrb	r3, [r4]	@ zero_extendqisi2
 767 005c 052B     		cmp	r3, #5
 768 005e 04BF     		itt	eq
 769 0060 0223     		moveq	r3, #2
 770 0062 2370     		strbeq	r3, [r4]
 771              	.L83:
 772              		.loc 1 82 0 discriminator 2
 773 0064 0022     		movs	r2, #0
 774 0066 2261     		str	r2, [r4, #16]
 775              	@ 82 "../../os/hal/platforms/STM32F4xx/adc_lld.c" 1
 776 0068 FFF7FEFF 		bl      _port_lock
 777              	@ 0 "" 2
 778              		.thumb
 779 006c 6369     		ldr	r3, [r4, #20]
 780 006e 33B1     		cbz	r3, .L92
 781              	.LVL60:
 782              	.LBB9:
 783              		.loc 1 82 0 discriminator 1
 784 0070 4FF0FF31 		mov	r1, #-1
 785 0074 6261     		str	r2, [r4, #20]
 786 0076 1846     		mov	r0, r3
 787 0078 9962     		str	r1, [r3, #40]
 788 007a FFF7FEFF 		bl	chSchReadyI
 789              	.LVL61:
 790              	.L92:
 791              	.LBE9:
ARM GAS  /tmp/ccV91MuA.s 			page 15


 792              		.loc 1 90 0 is_stmt 1 discriminator 2
 793              	@ 90 "../../os/hal/platforms/STM32F4xx/adc_lld.c" 1
 794 007e FFF7FEFF 		bl      _port_unlock
 795              	@ 0 "" 2
 796              		.thumb
 797 0082 38BD     		pop	{r3, r4, r5, pc}
 798              	.LVL62:
 799              	.L89:
 800 0084 8168     		ldr	r1, [r0, #8]
 801              	.LVL63:
 802 0086 A847     		blx	r5
 803              	.LVL64:
 804 0088 38BD     		pop	{r3, r4, r5, pc}
 805              	.LVL65:
 806              	.L88:
 807 008a FFF7FEFF 		bl	adc_lld_stop_conversion
 808              	.LVL66:
 809 008e 2369     		ldr	r3, [r4, #16]
 810 0090 5B68     		ldr	r3, [r3, #4]
 811 0092 C3B1     		cbz	r3, .L90
 812              		.loc 1 90 0 is_stmt 0 discriminator 1
 813 0094 0422     		movs	r2, #4
 814 0096 2270     		strb	r2, [r4]
 815 0098 2046     		mov	r0, r4
 816 009a A168     		ldr	r1, [r4, #8]
 817 009c E268     		ldr	r2, [r4, #12]
 818 009e 9847     		blx	r3
 819              	.LVL67:
 820 00a0 2378     		ldrb	r3, [r4]	@ zero_extendqisi2
 821 00a2 042B     		cmp	r3, #4
 822 00a4 0BD0     		beq	.L112
 823              	.L91:
 824              	@ 90 "../../os/hal/platforms/STM32F4xx/adc_lld.c" 1
 825 00a6 FFF7FEFF 		bl      _port_lock
 826              	@ 0 "" 2
 827              		.thumb
 828 00aa 6369     		ldr	r3, [r4, #20]
 829 00ac 002B     		cmp	r3, #0
 830 00ae E6D0     		beq	.L92
 831              	.LVL68:
 832              	.LBB10:
 833 00b0 0022     		movs	r2, #0
 834 00b2 6261     		str	r2, [r4, #20]
 835 00b4 1846     		mov	r0, r3
 836 00b6 9A62     		str	r2, [r3, #40]
 837 00b8 FFF7FEFF 		bl	chSchReadyI
 838              	.LVL69:
 839 00bc DFE7     		b	.L92
 840              	.L112:
 841              	.LBE10:
 842 00be 0223     		movs	r3, #2
 843 00c0 2561     		str	r5, [r4, #16]
 844 00c2 2370     		strb	r3, [r4]
 845 00c4 EFE7     		b	.L91
 846              	.L90:
 847              		.loc 1 90 0 discriminator 2
 848 00c6 0222     		movs	r2, #2
ARM GAS  /tmp/ccV91MuA.s 			page 16


 849 00c8 2361     		str	r3, [r4, #16]
 850 00ca 2270     		strb	r2, [r4]
 851 00cc EBE7     		b	.L91
 852              		.cfi_endproc
 853              	.LFE111:
 854              		.size	adc_lld_serve_rx_interrupt, .-adc_lld_serve_rx_interrupt
 855 00ce 00BF     		.section	.text.adcSTM32EnableTSVREFE,"ax",%progbits
 856              		.align	2
 857              		.p2align 4,,15
 858              		.global	adcSTM32EnableTSVREFE
 859              		.thumb
 860              		.thumb_func
 861              		.type	adcSTM32EnableTSVREFE, %function
 862              	adcSTM32EnableTSVREFE:
 863              	.LFB118:
 864              		.loc 1 379 0 is_stmt 1
 865              		.cfi_startproc
 866              		@ args = 0, pretend = 0, frame = 0
 867              		@ frame_needed = 0, uses_anonymous_args = 0
 868              		@ link register save eliminated.
 869              		.loc 1 381 0
 870 0000 024B     		ldr	r3, .L114
 871 0002 5A68     		ldr	r2, [r3, #4]
 872 0004 42F40002 		orr	r2, r2, #8388608
 873 0008 5A60     		str	r2, [r3, #4]
 874 000a 7047     		bx	lr
 875              	.L115:
 876              		.align	2
 877              	.L114:
 878 000c 00230140 		.word	1073816320
 879              		.cfi_endproc
 880              	.LFE118:
 881              		.size	adcSTM32EnableTSVREFE, .-adcSTM32EnableTSVREFE
 882              		.section	.text.adcSTM32DisableTSVREFE,"ax",%progbits
 883              		.align	2
 884              		.p2align 4,,15
 885              		.global	adcSTM32DisableTSVREFE
 886              		.thumb
 887              		.thumb_func
 888              		.type	adcSTM32DisableTSVREFE, %function
 889              	adcSTM32DisableTSVREFE:
 890              	.LFB119:
 891              		.loc 1 390 0
 892              		.cfi_startproc
 893              		@ args = 0, pretend = 0, frame = 0
 894              		@ frame_needed = 0, uses_anonymous_args = 0
 895              		@ link register save eliminated.
 896              		.loc 1 392 0
 897 0000 024B     		ldr	r3, .L117
 898 0002 5A68     		ldr	r2, [r3, #4]
 899 0004 22F40002 		bic	r2, r2, #8388608
 900 0008 5A60     		str	r2, [r3, #4]
 901 000a 7047     		bx	lr
 902              	.L118:
 903              		.align	2
 904              	.L117:
 905 000c 00230140 		.word	1073816320
ARM GAS  /tmp/ccV91MuA.s 			page 17


 906              		.cfi_endproc
 907              	.LFE119:
 908              		.size	adcSTM32DisableTSVREFE, .-adcSTM32DisableTSVREFE
 909              		.section	.text.adcSTM32EnableVBATE,"ax",%progbits
 910              		.align	2
 911              		.p2align 4,,15
 912              		.global	adcSTM32EnableVBATE
 913              		.thumb
 914              		.thumb_func
 915              		.type	adcSTM32EnableVBATE, %function
 916              	adcSTM32EnableVBATE:
 917              	.LFB120:
 918              		.loc 1 401 0
 919              		.cfi_startproc
 920              		@ args = 0, pretend = 0, frame = 0
 921              		@ frame_needed = 0, uses_anonymous_args = 0
 922              		@ link register save eliminated.
 923              		.loc 1 403 0
 924 0000 024B     		ldr	r3, .L120
 925 0002 5A68     		ldr	r2, [r3, #4]
 926 0004 42F48002 		orr	r2, r2, #4194304
 927 0008 5A60     		str	r2, [r3, #4]
 928 000a 7047     		bx	lr
 929              	.L121:
 930              		.align	2
 931              	.L120:
 932 000c 00230140 		.word	1073816320
 933              		.cfi_endproc
 934              	.LFE120:
 935              		.size	adcSTM32EnableVBATE, .-adcSTM32EnableVBATE
 936              		.section	.text.adcSTM32DisableVBATE,"ax",%progbits
 937              		.align	2
 938              		.p2align 4,,15
 939              		.global	adcSTM32DisableVBATE
 940              		.thumb
 941              		.thumb_func
 942              		.type	adcSTM32DisableVBATE, %function
 943              	adcSTM32DisableVBATE:
 944              	.LFB121:
 945              		.loc 1 412 0
 946              		.cfi_startproc
 947              		@ args = 0, pretend = 0, frame = 0
 948              		@ frame_needed = 0, uses_anonymous_args = 0
 949              		@ link register save eliminated.
 950              		.loc 1 414 0
 951 0000 024B     		ldr	r3, .L123
 952 0002 5A68     		ldr	r2, [r3, #4]
 953 0004 22F48002 		bic	r2, r2, #4194304
 954 0008 5A60     		str	r2, [r3, #4]
 955 000a 7047     		bx	lr
 956              	.L124:
 957              		.align	2
 958              	.L123:
 959 000c 00230140 		.word	1073816320
 960              		.cfi_endproc
 961              	.LFE121:
 962              		.size	adcSTM32DisableVBATE, .-adcSTM32DisableVBATE
ARM GAS  /tmp/ccV91MuA.s 			page 18


 963              		.global	ADCD2
 964              		.global	ADCD1
 965              		.section	.bss.ADCD1,"aw",%nobits
 966              		.align	2
 967              		.set	.LANCHOR0,. + 0
 968              		.type	ADCD1, %object
 969              		.size	ADCD1, 52
 970              	ADCD1:
 971 0000 00000000 		.space	52
 971      00000000 
 971      00000000 
 971      00000000 
 971      00000000 
 972              		.section	.bss.ADCD2,"aw",%nobits
 973              		.align	2
 974              		.set	.LANCHOR1,. + 0
 975              		.type	ADCD2, %object
 976              		.size	ADCD2, 52
 977              	ADCD2:
 978 0000 00000000 		.space	52
 978      00000000 
 978      00000000 
 978      00000000 
 978      00000000 
 979              		.section	.rodata.str1.4,"aMS",%progbits,1
 980              		.align	2
 981              	.LC0:
 982 0000 6164635F 		.ascii	"adc_lld_start(), #1\000"
 982      6C6C645F 
 982      73746172 
 982      7428292C 
 982      20233100 
 983              	.LC1:
 984 0014 6164635F 		.ascii	"adc_lld_start(), #2\000"
 984      6C6C645F 
 984      73746172 
 984      7428292C 
 984      20233200 
 985              		.text
 986              	.Letext0:
 987              		.file 2 "/opt/ARM/lib/gcc/arm-none-eabi/4.8.4/include/stddef.h"
 988              		.file 3 "/opt/ARM/arm-none-eabi/include/machine/_default_types.h"
 989              		.file 4 "/opt/ARM/arm-none-eabi/include/stdint.h"
 990              		.file 5 "../../os/ports/GCC/ARMCMx/chtypes.h"
 991              		.file 6 "../../os/kernel/include/chlists.h"
 992              		.file 7 "../../os/kernel/include/chthreads.h"
 993              		.file 8 "../../os/ports/GCC/ARMCMx/chcore_v7m.h"
 994              		.file 9 "../../os/kernel/include/chmtx.h"
 995              		.file 10 "../../os/hal/platforms/STM32F4xx/stm32f4xx.h"
 996              		.file 11 "../../os/hal/platforms/STM32F4xx/stm32_dma.h"
 997              		.file 12 "../../os/hal/include/adc.h"
 998              		.file 13 "../../os/hal/platforms/STM32F4xx/adc_lld.h"
 999              		.file 14 "../../os/ports/common/ARMCMx/CMSIS/include/core_cm4.h"
 1000              		.file 15 "../../os/ports/common/ARMCMx/nvic.h"
 1001              		.file 16 "../../os/kernel/include/chdebug.h"
 1002              		.file 17 "../../os/kernel/include/chschd.h"
 1003              		.section	.debug_info,"",%progbits
ARM GAS  /tmp/ccV91MuA.s 			page 19


 1004              	.Ldebug_info0:
 1005 0000 08120000 		.4byte	0x1208
 1006 0004 0400     		.2byte	0x4
 1007 0006 00000000 		.4byte	.Ldebug_abbrev0
 1008 000a 04       		.byte	0x4
 1009 000b 01       		.uleb128 0x1
 1010 000c FC090000 		.4byte	.LASF275
 1011 0010 01       		.byte	0x1
 1012 0011 6D070000 		.4byte	.LASF276
 1013 0015 A5070000 		.4byte	.LASF277
 1014 0019 30000000 		.4byte	.Ldebug_ranges0+0x30
 1015 001d 00000000 		.4byte	0
 1016 0021 00000000 		.4byte	.Ldebug_line0
 1017 0025 02       		.uleb128 0x2
 1018 0026 04       		.byte	0x4
 1019 0027 05       		.byte	0x5
 1020 0028 696E7400 		.ascii	"int\000"
 1021 002c 03       		.uleb128 0x3
 1022 002d 10000000 		.4byte	.LASF2
 1023 0031 02       		.byte	0x2
 1024 0032 D4       		.byte	0xd4
 1025 0033 37000000 		.4byte	0x37
 1026 0037 04       		.uleb128 0x4
 1027 0038 04       		.byte	0x4
 1028 0039 07       		.byte	0x7
 1029 003a 23070000 		.4byte	.LASF0
 1030 003e 04       		.uleb128 0x4
 1031 003f 01       		.byte	0x1
 1032 0040 06       		.byte	0x6
 1033 0041 82020000 		.4byte	.LASF1
 1034 0045 03       		.uleb128 0x3
 1035 0046 76010000 		.4byte	.LASF3
 1036 004a 03       		.byte	0x3
 1037 004b 1C       		.byte	0x1c
 1038 004c 50000000 		.4byte	0x50
 1039 0050 04       		.uleb128 0x4
 1040 0051 01       		.byte	0x1
 1041 0052 08       		.byte	0x8
 1042 0053 DA020000 		.4byte	.LASF4
 1043 0057 04       		.uleb128 0x4
 1044 0058 02       		.byte	0x2
 1045 0059 05       		.byte	0x5
 1046 005a A60B0000 		.4byte	.LASF5
 1047 005e 03       		.uleb128 0x3
 1048 005f C0030000 		.4byte	.LASF6
 1049 0063 03       		.byte	0x3
 1050 0064 26       		.byte	0x26
 1051 0065 69000000 		.4byte	0x69
 1052 0069 04       		.uleb128 0x4
 1053 006a 02       		.byte	0x2
 1054 006b 07       		.byte	0x7
 1055 006c EA0C0000 		.4byte	.LASF7
 1056 0070 03       		.uleb128 0x3
 1057 0071 5B0D0000 		.4byte	.LASF8
 1058 0075 03       		.byte	0x3
 1059 0076 37       		.byte	0x37
 1060 0077 7B000000 		.4byte	0x7b
ARM GAS  /tmp/ccV91MuA.s 			page 20


 1061 007b 04       		.uleb128 0x4
 1062 007c 04       		.byte	0x4
 1063 007d 05       		.byte	0x5
 1064 007e BE010000 		.4byte	.LASF9
 1065 0082 03       		.uleb128 0x3
 1066 0083 3A060000 		.4byte	.LASF10
 1067 0087 03       		.byte	0x3
 1068 0088 38       		.byte	0x38
 1069 0089 8D000000 		.4byte	0x8d
 1070 008d 04       		.uleb128 0x4
 1071 008e 04       		.byte	0x4
 1072 008f 07       		.byte	0x7
 1073 0090 1B050000 		.4byte	.LASF11
 1074 0094 04       		.uleb128 0x4
 1075 0095 08       		.byte	0x8
 1076 0096 05       		.byte	0x5
 1077 0097 55060000 		.4byte	.LASF12
 1078 009b 03       		.uleb128 0x3
 1079 009c 06050000 		.4byte	.LASF13
 1080 00a0 03       		.byte	0x3
 1081 00a1 4E       		.byte	0x4e
 1082 00a2 A6000000 		.4byte	0xa6
 1083 00a6 04       		.uleb128 0x4
 1084 00a7 08       		.byte	0x8
 1085 00a8 07       		.byte	0x7
 1086 00a9 1C090000 		.4byte	.LASF14
 1087 00ad 03       		.uleb128 0x3
 1088 00ae 98020000 		.4byte	.LASF15
 1089 00b2 04       		.byte	0x4
 1090 00b3 2A       		.byte	0x2a
 1091 00b4 45000000 		.4byte	0x45
 1092 00b8 03       		.uleb128 0x3
 1093 00b9 3B090000 		.4byte	.LASF16
 1094 00bd 04       		.byte	0x4
 1095 00be 36       		.byte	0x36
 1096 00bf 5E000000 		.4byte	0x5e
 1097 00c3 03       		.uleb128 0x3
 1098 00c4 96000000 		.4byte	.LASF17
 1099 00c8 04       		.byte	0x4
 1100 00c9 41       		.byte	0x41
 1101 00ca 70000000 		.4byte	0x70
 1102 00ce 03       		.uleb128 0x3
 1103 00cf 810C0000 		.4byte	.LASF18
 1104 00d3 04       		.byte	0x4
 1105 00d4 42       		.byte	0x42
 1106 00d5 82000000 		.4byte	0x82
 1107 00d9 03       		.uleb128 0x3
 1108 00da B00B0000 		.4byte	.LASF19
 1109 00de 04       		.byte	0x4
 1110 00df 4E       		.byte	0x4e
 1111 00e0 9B000000 		.4byte	0x9b
 1112 00e4 03       		.uleb128 0x3
 1113 00e5 F10B0000 		.4byte	.LASF20
 1114 00e9 05       		.byte	0x5
 1115 00ea 2B       		.byte	0x2b
 1116 00eb EF000000 		.4byte	0xef
 1117 00ef 04       		.uleb128 0x4
ARM GAS  /tmp/ccV91MuA.s 			page 21


 1118 00f0 01       		.byte	0x1
 1119 00f1 02       		.byte	0x2
 1120 00f2 5E030000 		.4byte	.LASF21
 1121 00f6 03       		.uleb128 0x3
 1122 00f7 150B0000 		.4byte	.LASF22
 1123 00fb 05       		.byte	0x5
 1124 00fc 2C       		.byte	0x2c
 1125 00fd AD000000 		.4byte	0xad
 1126 0101 03       		.uleb128 0x3
 1127 0102 EF010000 		.4byte	.LASF23
 1128 0106 05       		.byte	0x5
 1129 0107 2D       		.byte	0x2d
 1130 0108 AD000000 		.4byte	0xad
 1131 010c 03       		.uleb128 0x3
 1132 010d 410C0000 		.4byte	.LASF24
 1133 0111 05       		.byte	0x5
 1134 0112 2E       		.byte	0x2e
 1135 0113 AD000000 		.4byte	0xad
 1136 0117 03       		.uleb128 0x3
 1137 0118 60090000 		.4byte	.LASF25
 1138 011c 05       		.byte	0x5
 1139 011d 2F       		.byte	0x2f
 1140 011e AD000000 		.4byte	0xad
 1141 0122 03       		.uleb128 0x3
 1142 0123 66000000 		.4byte	.LASF26
 1143 0127 05       		.byte	0x5
 1144 0128 30       		.byte	0x30
 1145 0129 CE000000 		.4byte	0xce
 1146 012d 03       		.uleb128 0x3
 1147 012e 44090000 		.4byte	.LASF27
 1148 0132 05       		.byte	0x5
 1149 0133 31       		.byte	0x31
 1150 0134 C3000000 		.4byte	0xc3
 1151 0138 03       		.uleb128 0x3
 1152 0139 A0020000 		.4byte	.LASF28
 1153 013d 05       		.byte	0x5
 1154 013e 33       		.byte	0x33
 1155 013f CE000000 		.4byte	0xce
 1156 0143 03       		.uleb128 0x3
 1157 0144 4B000000 		.4byte	.LASF29
 1158 0148 05       		.byte	0x5
 1159 0149 35       		.byte	0x35
 1160 014a CE000000 		.4byte	0xce
 1161 014e 03       		.uleb128 0x3
 1162 014f 150C0000 		.4byte	.LASF30
 1163 0153 06       		.byte	0x6
 1164 0154 2A       		.byte	0x2a
 1165 0155 59010000 		.4byte	0x159
 1166 0159 05       		.uleb128 0x5
 1167 015a 150C0000 		.4byte	.LASF30
 1168 015e 4C       		.byte	0x4c
 1169 015f 07       		.byte	0x7
 1170 0160 5E       		.byte	0x5e
 1171 0161 62020000 		.4byte	0x262
 1172 0165 06       		.uleb128 0x6
 1173 0166 C7010000 		.4byte	.LASF31
 1174 016a 07       		.byte	0x7
ARM GAS  /tmp/ccV91MuA.s 			page 22


 1175 016b 5F       		.byte	0x5f
 1176 016c 83020000 		.4byte	0x283
 1177 0170 00       		.byte	0
 1178 0171 06       		.uleb128 0x6
 1179 0172 CE010000 		.4byte	.LASF32
 1180 0176 07       		.byte	0x7
 1181 0177 61       		.byte	0x61
 1182 0178 83020000 		.4byte	0x283
 1183 017c 04       		.byte	0x4
 1184 017d 06       		.uleb128 0x6
 1185 017e B9030000 		.4byte	.LASF33
 1186 0182 07       		.byte	0x7
 1187 0183 63       		.byte	0x63
 1188 0184 22010000 		.4byte	0x122
 1189 0188 08       		.byte	0x8
 1190 0189 06       		.uleb128 0x6
 1191 018a 60000000 		.4byte	.LASF34
 1192 018e 07       		.byte	0x7
 1193 018f 64       		.byte	0x64
 1194 0190 18040000 		.4byte	0x418
 1195 0194 0C       		.byte	0xc
 1196 0195 06       		.uleb128 0x6
 1197 0196 B6010000 		.4byte	.LASF35
 1198 019a 07       		.byte	0x7
 1199 019b 66       		.byte	0x66
 1200 019c 83020000 		.4byte	0x283
 1201 01a0 10       		.byte	0x10
 1202 01a1 06       		.uleb128 0x6
 1203 01a2 33090000 		.4byte	.LASF36
 1204 01a6 07       		.byte	0x7
 1205 01a7 67       		.byte	0x67
 1206 01a8 83020000 		.4byte	0x283
 1207 01ac 14       		.byte	0x14
 1208 01ad 06       		.uleb128 0x6
 1209 01ae 7D0D0000 		.4byte	.LASF37
 1210 01b2 07       		.byte	0x7
 1211 01b3 6E       		.byte	0x6e
 1212 01b4 C1040000 		.4byte	0x4c1
 1213 01b8 18       		.byte	0x18
 1214 01b9 06       		.uleb128 0x6
 1215 01ba 3E0D0000 		.4byte	.LASF38
 1216 01be 07       		.byte	0x7
 1217 01bf 74       		.byte	0x74
 1218 01c0 D3040000 		.4byte	0x4d3
 1219 01c4 1C       		.byte	0x1c
 1220 01c5 06       		.uleb128 0x6
 1221 01c6 CC0D0000 		.4byte	.LASF39
 1222 01ca 07       		.byte	0x7
 1223 01cb 79       		.byte	0x79
 1224 01cc 01010000 		.4byte	0x101
 1225 01d0 20       		.byte	0x20
 1226 01d1 06       		.uleb128 0x6
 1227 01d2 11070000 		.4byte	.LASF40
 1228 01d6 07       		.byte	0x7
 1229 01d7 7D       		.byte	0x7d
 1230 01d8 F6000000 		.4byte	0xf6
 1231 01dc 21       		.byte	0x21
ARM GAS  /tmp/ccV91MuA.s 			page 23


 1232 01dd 06       		.uleb128 0x6
 1233 01de 66070000 		.4byte	.LASF41
 1234 01e2 07       		.byte	0x7
 1235 01e3 82       		.byte	0x82
 1236 01e4 0C010000 		.4byte	0x10c
 1237 01e8 22       		.byte	0x22
 1238 01e9 06       		.uleb128 0x6
 1239 01ea 8E020000 		.4byte	.LASF42
 1240 01ee 07       		.byte	0x7
 1241 01ef 88       		.byte	0x88
 1242 01f0 17010000 		.4byte	0x117
 1243 01f4 23       		.byte	0x23
 1244 01f5 06       		.uleb128 0x6
 1245 01f6 80080000 		.4byte	.LASF43
 1246 01fa 07       		.byte	0x7
 1247 01fb 8F       		.byte	0x8f
 1248 01fc 45040000 		.4byte	0x445
 1249 0200 24       		.byte	0x24
 1250 0201 07       		.uleb128 0x7
 1251 0202 705F7500 		.ascii	"p_u\000"
 1252 0206 07       		.byte	0x7
 1253 0207 B4       		.byte	0xb4
 1254 0208 8C040000 		.4byte	0x48c
 1255 020c 28       		.byte	0x28
 1256 020d 06       		.uleb128 0x6
 1257 020e F6060000 		.4byte	.LASF44
 1258 0212 07       		.byte	0x7
 1259 0213 B9       		.byte	0xb9
 1260 0214 A9020000 		.4byte	0x2a9
 1261 0218 2C       		.byte	0x2c
 1262 0219 06       		.uleb128 0x6
 1263 021a 8B000000 		.4byte	.LASF45
 1264 021e 07       		.byte	0x7
 1265 021f BF       		.byte	0xbf
 1266 0220 89020000 		.4byte	0x289
 1267 0224 30       		.byte	0x30
 1268 0225 06       		.uleb128 0x6
 1269 0226 BC0D0000 		.4byte	.LASF46
 1270 022a 07       		.byte	0x7
 1271 022b C3       		.byte	0xc3
 1272 022c 2D010000 		.4byte	0x12d
 1273 0230 38       		.byte	0x38
 1274 0231 06       		.uleb128 0x6
 1275 0232 67040000 		.4byte	.LASF47
 1276 0236 07       		.byte	0x7
 1277 0237 C9       		.byte	0xc9
 1278 0238 38010000 		.4byte	0x138
 1279 023c 3C       		.byte	0x3c
 1280 023d 06       		.uleb128 0x6
 1281 023e 01020000 		.4byte	.LASF48
 1282 0242 07       		.byte	0x7
 1283 0243 D0       		.byte	0xd0
 1284 0244 D9040000 		.4byte	0x4d9
 1285 0248 40       		.byte	0x40
 1286 0249 06       		.uleb128 0x6
 1287 024a A7080000 		.4byte	.LASF49
 1288 024e 07       		.byte	0x7
ARM GAS  /tmp/ccV91MuA.s 			page 24


 1289 024f D4       		.byte	0xd4
 1290 0250 22010000 		.4byte	0x122
 1291 0254 44       		.byte	0x44
 1292 0255 06       		.uleb128 0x6
 1293 0256 51070000 		.4byte	.LASF50
 1294 025a 07       		.byte	0x7
 1295 025b DA       		.byte	0xda
 1296 025c BF020000 		.4byte	0x2bf
 1297 0260 48       		.byte	0x48
 1298 0261 00       		.byte	0
 1299 0262 08       		.uleb128 0x8
 1300 0263 08       		.byte	0x8
 1301 0264 06       		.byte	0x6
 1302 0265 61       		.byte	0x61
 1303 0266 83020000 		.4byte	0x283
 1304 026a 06       		.uleb128 0x6
 1305 026b C7010000 		.4byte	.LASF31
 1306 026f 06       		.byte	0x6
 1307 0270 62       		.byte	0x62
 1308 0271 83020000 		.4byte	0x283
 1309 0275 00       		.byte	0
 1310 0276 06       		.uleb128 0x6
 1311 0277 CE010000 		.4byte	.LASF32
 1312 027b 06       		.byte	0x6
 1313 027c 64       		.byte	0x64
 1314 027d 83020000 		.4byte	0x283
 1315 0281 04       		.byte	0x4
 1316 0282 00       		.byte	0
 1317 0283 09       		.uleb128 0x9
 1318 0284 04       		.byte	0x4
 1319 0285 4E010000 		.4byte	0x14e
 1320 0289 03       		.uleb128 0x3
 1321 028a 980C0000 		.4byte	.LASF51
 1322 028e 06       		.byte	0x6
 1323 028f 66       		.byte	0x66
 1324 0290 62020000 		.4byte	0x262
 1325 0294 08       		.uleb128 0x8
 1326 0295 04       		.byte	0x4
 1327 0296 06       		.byte	0x6
 1328 0297 6B       		.byte	0x6b
 1329 0298 A9020000 		.4byte	0x2a9
 1330 029c 06       		.uleb128 0x6
 1331 029d C7010000 		.4byte	.LASF31
 1332 02a1 06       		.byte	0x6
 1333 02a2 6D       		.byte	0x6d
 1334 02a3 83020000 		.4byte	0x283
 1335 02a7 00       		.byte	0
 1336 02a8 00       		.byte	0
 1337 02a9 03       		.uleb128 0x3
 1338 02aa 02080000 		.4byte	.LASF52
 1339 02ae 06       		.byte	0x6
 1340 02af 70       		.byte	0x70
 1341 02b0 94020000 		.4byte	0x294
 1342 02b4 03       		.uleb128 0x3
 1343 02b5 23020000 		.4byte	.LASF53
 1344 02b9 08       		.byte	0x8
 1345 02ba E5       		.byte	0xe5
ARM GAS  /tmp/ccV91MuA.s 			page 25


 1346 02bb BF020000 		.4byte	0x2bf
 1347 02bf 0A       		.uleb128 0xa
 1348 02c0 04       		.byte	0x4
 1349 02c1 03       		.uleb128 0x3
 1350 02c2 F2030000 		.4byte	.LASF54
 1351 02c6 08       		.byte	0x8
 1352 02c7 EB       		.byte	0xeb
 1353 02c8 D9000000 		.4byte	0xd9
 1354 02cc 0B       		.uleb128 0xb
 1355 02cd 60040000 		.4byte	.LASF55
 1356 02d1 64       		.byte	0x64
 1357 02d2 08       		.byte	0x8
 1358 02d3 0C01     		.2byte	0x10c
 1359 02d5 18040000 		.4byte	0x418
 1360 02d9 0C       		.uleb128 0xc
 1361 02da 73313600 		.ascii	"s16\000"
 1362 02de 08       		.byte	0x8
 1363 02df 0E01     		.2byte	0x10e
 1364 02e1 B4020000 		.4byte	0x2b4
 1365 02e5 00       		.byte	0
 1366 02e6 0C       		.uleb128 0xc
 1367 02e7 73313700 		.ascii	"s17\000"
 1368 02eb 08       		.byte	0x8
 1369 02ec 0F01     		.2byte	0x10f
 1370 02ee B4020000 		.4byte	0x2b4
 1371 02f2 04       		.byte	0x4
 1372 02f3 0C       		.uleb128 0xc
 1373 02f4 73313800 		.ascii	"s18\000"
 1374 02f8 08       		.byte	0x8
 1375 02f9 1001     		.2byte	0x110
 1376 02fb B4020000 		.4byte	0x2b4
 1377 02ff 08       		.byte	0x8
 1378 0300 0C       		.uleb128 0xc
 1379 0301 73313900 		.ascii	"s19\000"
 1380 0305 08       		.byte	0x8
 1381 0306 1101     		.2byte	0x111
 1382 0308 B4020000 		.4byte	0x2b4
 1383 030c 0C       		.byte	0xc
 1384 030d 0C       		.uleb128 0xc
 1385 030e 73323000 		.ascii	"s20\000"
 1386 0312 08       		.byte	0x8
 1387 0313 1201     		.2byte	0x112
 1388 0315 B4020000 		.4byte	0x2b4
 1389 0319 10       		.byte	0x10
 1390 031a 0C       		.uleb128 0xc
 1391 031b 73323100 		.ascii	"s21\000"
 1392 031f 08       		.byte	0x8
 1393 0320 1301     		.2byte	0x113
 1394 0322 B4020000 		.4byte	0x2b4
 1395 0326 14       		.byte	0x14
 1396 0327 0C       		.uleb128 0xc
 1397 0328 73323200 		.ascii	"s22\000"
 1398 032c 08       		.byte	0x8
 1399 032d 1401     		.2byte	0x114
 1400 032f B4020000 		.4byte	0x2b4
 1401 0333 18       		.byte	0x18
 1402 0334 0C       		.uleb128 0xc
ARM GAS  /tmp/ccV91MuA.s 			page 26


 1403 0335 73323300 		.ascii	"s23\000"
 1404 0339 08       		.byte	0x8
 1405 033a 1501     		.2byte	0x115
 1406 033c B4020000 		.4byte	0x2b4
 1407 0340 1C       		.byte	0x1c
 1408 0341 0C       		.uleb128 0xc
 1409 0342 73323400 		.ascii	"s24\000"
 1410 0346 08       		.byte	0x8
 1411 0347 1601     		.2byte	0x116
 1412 0349 B4020000 		.4byte	0x2b4
 1413 034d 20       		.byte	0x20
 1414 034e 0C       		.uleb128 0xc
 1415 034f 73323500 		.ascii	"s25\000"
 1416 0353 08       		.byte	0x8
 1417 0354 1701     		.2byte	0x117
 1418 0356 B4020000 		.4byte	0x2b4
 1419 035a 24       		.byte	0x24
 1420 035b 0C       		.uleb128 0xc
 1421 035c 73323600 		.ascii	"s26\000"
 1422 0360 08       		.byte	0x8
 1423 0361 1801     		.2byte	0x118
 1424 0363 B4020000 		.4byte	0x2b4
 1425 0367 28       		.byte	0x28
 1426 0368 0C       		.uleb128 0xc
 1427 0369 73323700 		.ascii	"s27\000"
 1428 036d 08       		.byte	0x8
 1429 036e 1901     		.2byte	0x119
 1430 0370 B4020000 		.4byte	0x2b4
 1431 0374 2C       		.byte	0x2c
 1432 0375 0C       		.uleb128 0xc
 1433 0376 73323800 		.ascii	"s28\000"
 1434 037a 08       		.byte	0x8
 1435 037b 1A01     		.2byte	0x11a
 1436 037d B4020000 		.4byte	0x2b4
 1437 0381 30       		.byte	0x30
 1438 0382 0C       		.uleb128 0xc
 1439 0383 73323900 		.ascii	"s29\000"
 1440 0387 08       		.byte	0x8
 1441 0388 1B01     		.2byte	0x11b
 1442 038a B4020000 		.4byte	0x2b4
 1443 038e 34       		.byte	0x34
 1444 038f 0C       		.uleb128 0xc
 1445 0390 73333000 		.ascii	"s30\000"
 1446 0394 08       		.byte	0x8
 1447 0395 1C01     		.2byte	0x11c
 1448 0397 B4020000 		.4byte	0x2b4
 1449 039b 38       		.byte	0x38
 1450 039c 0C       		.uleb128 0xc
 1451 039d 73333100 		.ascii	"s31\000"
 1452 03a1 08       		.byte	0x8
 1453 03a2 1D01     		.2byte	0x11d
 1454 03a4 B4020000 		.4byte	0x2b4
 1455 03a8 3C       		.byte	0x3c
 1456 03a9 0C       		.uleb128 0xc
 1457 03aa 723400   		.ascii	"r4\000"
 1458 03ad 08       		.byte	0x8
 1459 03ae 1F01     		.2byte	0x11f
ARM GAS  /tmp/ccV91MuA.s 			page 27


 1460 03b0 B4020000 		.4byte	0x2b4
 1461 03b4 40       		.byte	0x40
 1462 03b5 0C       		.uleb128 0xc
 1463 03b6 723500   		.ascii	"r5\000"
 1464 03b9 08       		.byte	0x8
 1465 03ba 2001     		.2byte	0x120
 1466 03bc B4020000 		.4byte	0x2b4
 1467 03c0 44       		.byte	0x44
 1468 03c1 0C       		.uleb128 0xc
 1469 03c2 723600   		.ascii	"r6\000"
 1470 03c5 08       		.byte	0x8
 1471 03c6 2101     		.2byte	0x121
 1472 03c8 B4020000 		.4byte	0x2b4
 1473 03cc 48       		.byte	0x48
 1474 03cd 0C       		.uleb128 0xc
 1475 03ce 723700   		.ascii	"r7\000"
 1476 03d1 08       		.byte	0x8
 1477 03d2 2201     		.2byte	0x122
 1478 03d4 B4020000 		.4byte	0x2b4
 1479 03d8 4C       		.byte	0x4c
 1480 03d9 0C       		.uleb128 0xc
 1481 03da 723800   		.ascii	"r8\000"
 1482 03dd 08       		.byte	0x8
 1483 03de 2301     		.2byte	0x123
 1484 03e0 B4020000 		.4byte	0x2b4
 1485 03e4 50       		.byte	0x50
 1486 03e5 0C       		.uleb128 0xc
 1487 03e6 723900   		.ascii	"r9\000"
 1488 03e9 08       		.byte	0x8
 1489 03ea 2401     		.2byte	0x124
 1490 03ec B4020000 		.4byte	0x2b4
 1491 03f0 54       		.byte	0x54
 1492 03f1 0C       		.uleb128 0xc
 1493 03f2 72313000 		.ascii	"r10\000"
 1494 03f6 08       		.byte	0x8
 1495 03f7 2501     		.2byte	0x125
 1496 03f9 B4020000 		.4byte	0x2b4
 1497 03fd 58       		.byte	0x58
 1498 03fe 0C       		.uleb128 0xc
 1499 03ff 72313100 		.ascii	"r11\000"
 1500 0403 08       		.byte	0x8
 1501 0404 2601     		.2byte	0x126
 1502 0406 B4020000 		.4byte	0x2b4
 1503 040a 5C       		.byte	0x5c
 1504 040b 0C       		.uleb128 0xc
 1505 040c 6C7200   		.ascii	"lr\000"
 1506 040f 08       		.byte	0x8
 1507 0410 2701     		.2byte	0x127
 1508 0412 B4020000 		.4byte	0x2b4
 1509 0416 60       		.byte	0x60
 1510 0417 00       		.byte	0
 1511 0418 0B       		.uleb128 0xb
 1512 0419 AC020000 		.4byte	.LASF56
 1513 041d 04       		.byte	0x4
 1514 041e 08       		.byte	0x8
 1515 041f 3101     		.2byte	0x131
 1516 0421 33040000 		.4byte	0x433
ARM GAS  /tmp/ccV91MuA.s 			page 28


 1517 0425 0C       		.uleb128 0xc
 1518 0426 72313300 		.ascii	"r13\000"
 1519 042a 08       		.byte	0x8
 1520 042b 3201     		.2byte	0x132
 1521 042d 33040000 		.4byte	0x433
 1522 0431 00       		.byte	0
 1523 0432 00       		.byte	0
 1524 0433 09       		.uleb128 0x9
 1525 0434 04       		.byte	0x4
 1526 0435 CC020000 		.4byte	0x2cc
 1527 0439 0D       		.uleb128 0xd
 1528 043a CE000000 		.4byte	0xce
 1529 043e 04       		.uleb128 0x4
 1530 043f 04       		.byte	0x4
 1531 0440 07       		.byte	0x7
 1532 0441 34000000 		.4byte	.LASF57
 1533 0445 0D       		.uleb128 0xd
 1534 0446 43010000 		.4byte	0x143
 1535 044a 05       		.uleb128 0x5
 1536 044b 45060000 		.4byte	.LASF58
 1537 044f 10       		.byte	0x10
 1538 0450 09       		.byte	0x9
 1539 0451 2C       		.byte	0x2c
 1540 0452 7B040000 		.4byte	0x47b
 1541 0456 06       		.uleb128 0x6
 1542 0457 87060000 		.4byte	.LASF59
 1543 045b 09       		.byte	0x9
 1544 045c 2D       		.byte	0x2d
 1545 045d 89020000 		.4byte	0x289
 1546 0461 00       		.byte	0
 1547 0462 06       		.uleb128 0x6
 1548 0463 59010000 		.4byte	.LASF60
 1549 0467 09       		.byte	0x9
 1550 0468 2F       		.byte	0x2f
 1551 0469 83020000 		.4byte	0x283
 1552 046d 08       		.byte	0x8
 1553 046e 06       		.uleb128 0x6
 1554 046f 840D0000 		.4byte	.LASF61
 1555 0473 09       		.byte	0x9
 1556 0474 31       		.byte	0x31
 1557 0475 7B040000 		.4byte	0x47b
 1558 0479 0C       		.byte	0xc
 1559 047a 00       		.byte	0
 1560 047b 09       		.uleb128 0x9
 1561 047c 04       		.byte	0x4
 1562 047d 4A040000 		.4byte	0x44a
 1563 0481 03       		.uleb128 0x3
 1564 0482 45060000 		.4byte	.LASF58
 1565 0486 09       		.byte	0x9
 1566 0487 33       		.byte	0x33
 1567 0488 4A040000 		.4byte	0x44a
 1568 048c 0E       		.uleb128 0xe
 1569 048d 04       		.byte	0x4
 1570 048e 07       		.byte	0x7
 1571 048f 96       		.byte	0x96
 1572 0490 C1040000 		.4byte	0x4c1
 1573 0494 0F       		.uleb128 0xf
ARM GAS  /tmp/ccV91MuA.s 			page 29


 1574 0495 D80C0000 		.4byte	.LASF62
 1575 0499 07       		.byte	0x7
 1576 049a 9D       		.byte	0x9d
 1577 049b 2D010000 		.4byte	0x12d
 1578 049f 0F       		.uleb128 0xf
 1579 04a0 6D010000 		.4byte	.LASF63
 1580 04a4 07       		.byte	0x7
 1581 04a5 A4       		.byte	0xa4
 1582 04a6 2D010000 		.4byte	0x12d
 1583 04aa 0F       		.uleb128 0xf
 1584 04ab D3030000 		.4byte	.LASF64
 1585 04af 07       		.byte	0x7
 1586 04b0 AB       		.byte	0xab
 1587 04b1 BF020000 		.4byte	0x2bf
 1588 04b5 0F       		.uleb128 0xf
 1589 04b6 91010000 		.4byte	.LASF65
 1590 04ba 07       		.byte	0x7
 1591 04bb B2       		.byte	0xb2
 1592 04bc 38010000 		.4byte	0x138
 1593 04c0 00       		.byte	0
 1594 04c1 09       		.uleb128 0x9
 1595 04c2 04       		.byte	0x4
 1596 04c3 C7040000 		.4byte	0x4c7
 1597 04c7 10       		.uleb128 0x10
 1598 04c8 CC040000 		.4byte	0x4cc
 1599 04cc 04       		.uleb128 0x4
 1600 04cd 01       		.byte	0x1
 1601 04ce 08       		.byte	0x8
 1602 04cf A4030000 		.4byte	.LASF66
 1603 04d3 09       		.uleb128 0x9
 1604 04d4 04       		.byte	0x4
 1605 04d5 C1020000 		.4byte	0x2c1
 1606 04d9 09       		.uleb128 0x9
 1607 04da 04       		.byte	0x4
 1608 04db 81040000 		.4byte	0x481
 1609 04df 11       		.uleb128 0x11
 1610 04e0 87080000 		.4byte	.LASF278
 1611 04e4 01       		.byte	0x1
 1612 04e5 0A       		.byte	0xa
 1613 04e6 AA       		.byte	0xaa
 1614 04e7 1A070000 		.4byte	0x71a
 1615 04eb 12       		.uleb128 0x12
 1616 04ec F2040000 		.4byte	.LASF67
 1617 04f0 72       		.sleb128 -14
 1618 04f1 12       		.uleb128 0x12
 1619 04f2 3C050000 		.4byte	.LASF68
 1620 04f6 74       		.sleb128 -12
 1621 04f7 12       		.uleb128 0x12
 1622 04f8 06060000 		.4byte	.LASF69
 1623 04fc 75       		.sleb128 -11
 1624 04fd 12       		.uleb128 0x12
 1625 04fe 94030000 		.4byte	.LASF70
 1626 0502 76       		.sleb128 -10
 1627 0503 12       		.uleb128 0x12
 1628 0504 B7060000 		.4byte	.LASF71
 1629 0508 7B       		.sleb128 -5
 1630 0509 12       		.uleb128 0x12
ARM GAS  /tmp/ccV91MuA.s 			page 30


 1631 050a 580B0000 		.4byte	.LASF72
 1632 050e 7C       		.sleb128 -4
 1633 050f 12       		.uleb128 0x12
 1634 0510 1F0D0000 		.4byte	.LASF73
 1635 0514 7E       		.sleb128 -2
 1636 0515 12       		.uleb128 0x12
 1637 0516 4B020000 		.4byte	.LASF74
 1638 051a 7F       		.sleb128 -1
 1639 051b 12       		.uleb128 0x12
 1640 051c 11050000 		.4byte	.LASF75
 1641 0520 00       		.sleb128 0
 1642 0521 12       		.uleb128 0x12
 1643 0522 E9090000 		.4byte	.LASF76
 1644 0526 01       		.sleb128 1
 1645 0527 12       		.uleb128 0x12
 1646 0528 52050000 		.4byte	.LASF77
 1647 052c 02       		.sleb128 2
 1648 052d 12       		.uleb128 0x12
 1649 052e 5D0C0000 		.4byte	.LASF78
 1650 0532 03       		.sleb128 3
 1651 0533 12       		.uleb128 0x12
 1652 0534 F5000000 		.4byte	.LASF79
 1653 0538 04       		.sleb128 4
 1654 0539 12       		.uleb128 0x12
 1655 053a B90B0000 		.4byte	.LASF80
 1656 053e 05       		.sleb128 5
 1657 053f 12       		.uleb128 0x12
 1658 0540 05000000 		.4byte	.LASF81
 1659 0544 06       		.sleb128 6
 1660 0545 12       		.uleb128 0x12
 1661 0546 92040000 		.4byte	.LASF82
 1662 054a 07       		.sleb128 7
 1663 054b 12       		.uleb128 0x12
 1664 054c 75090000 		.4byte	.LASF83
 1665 0550 08       		.sleb128 8
 1666 0551 12       		.uleb128 0x12
 1667 0552 140D0000 		.4byte	.LASF84
 1668 0556 09       		.sleb128 9
 1669 0557 12       		.uleb128 0x12
 1670 0558 DF0C0000 		.4byte	.LASF85
 1671 055c 0A       		.sleb128 10
 1672 055d 12       		.uleb128 0x12
 1673 055e BD080000 		.4byte	.LASF86
 1674 0562 0B       		.sleb128 11
 1675 0563 12       		.uleb128 0x12
 1676 0564 24080000 		.4byte	.LASF87
 1677 0568 0C       		.sleb128 12
 1678 0569 12       		.uleb128 0x12
 1679 056a B4020000 		.4byte	.LASF88
 1680 056e 0D       		.sleb128 13
 1681 056f 12       		.uleb128 0x12
 1682 0570 DF0B0000 		.4byte	.LASF89
 1683 0574 0E       		.sleb128 14
 1684 0575 12       		.uleb128 0x12
 1685 0576 1D0B0000 		.4byte	.LASF90
 1686 057a 0F       		.sleb128 15
 1687 057b 12       		.uleb128 0x12
ARM GAS  /tmp/ccV91MuA.s 			page 31


 1688 057c AA040000 		.4byte	.LASF91
 1689 0580 10       		.sleb128 16
 1690 0581 12       		.uleb128 0x12
 1691 0582 8C080000 		.4byte	.LASF92
 1692 0586 11       		.sleb128 17
 1693 0587 12       		.uleb128 0x12
 1694 0588 AC090000 		.4byte	.LASF93
 1695 058c 12       		.sleb128 18
 1696 058d 12       		.uleb128 0x12
 1697 058e 9D040000 		.4byte	.LASF94
 1698 0592 13       		.sleb128 19
 1699 0593 12       		.uleb128 0x12
 1700 0594 DA030000 		.4byte	.LASF95
 1701 0598 14       		.sleb128 20
 1702 0599 12       		.uleb128 0x12
 1703 059a 8A0C0000 		.4byte	.LASF96
 1704 059e 15       		.sleb128 21
 1705 059f 12       		.uleb128 0x12
 1706 05a0 62050000 		.4byte	.LASF97
 1707 05a4 16       		.sleb128 22
 1708 05a5 12       		.uleb128 0x12
 1709 05a6 A50C0000 		.4byte	.LASF98
 1710 05aa 17       		.sleb128 23
 1711 05ab 12       		.uleb128 0x12
 1712 05ac 27060000 		.4byte	.LASF99
 1713 05b0 18       		.sleb128 24
 1714 05b1 12       		.uleb128 0x12
 1715 05b2 210C0000 		.4byte	.LASF100
 1716 05b6 19       		.sleb128 25
 1717 05b7 12       		.uleb128 0x12
 1718 05b8 0B020000 		.4byte	.LASF101
 1719 05bc 1A       		.sleb128 26
 1720 05bd 12       		.uleb128 0x12
 1721 05be 77040000 		.4byte	.LASF102
 1722 05c2 1B       		.sleb128 27
 1723 05c3 12       		.uleb128 0x12
 1724 05c4 17010000 		.4byte	.LASF103
 1725 05c8 1C       		.sleb128 28
 1726 05c9 12       		.uleb128 0x12
 1727 05ca 4A090000 		.4byte	.LASF104
 1728 05ce 1D       		.sleb128 29
 1729 05cf 12       		.uleb128 0x12
 1730 05d0 0B040000 		.4byte	.LASF105
 1731 05d4 1E       		.sleb128 30
 1732 05d5 12       		.uleb128 0x12
 1733 05d6 47040000 		.4byte	.LASF106
 1734 05da 1F       		.sleb128 31
 1735 05db 12       		.uleb128 0x12
 1736 05dc 2E030000 		.4byte	.LASF107
 1737 05e0 20       		.sleb128 32
 1738 05e1 12       		.uleb128 0x12
 1739 05e2 59070000 		.4byte	.LASF108
 1740 05e6 21       		.sleb128 33
 1741 05e7 12       		.uleb128 0x12
 1742 05e8 B4050000 		.4byte	.LASF109
 1743 05ec 22       		.sleb128 34
 1744 05ed 12       		.uleb128 0x12
ARM GAS  /tmp/ccV91MuA.s 			page 32


 1745 05ee 95060000 		.4byte	.LASF110
 1746 05f2 23       		.sleb128 35
 1747 05f3 12       		.uleb128 0x12
 1748 05f4 71060000 		.4byte	.LASF111
 1749 05f8 24       		.sleb128 36
 1750 05f9 12       		.uleb128 0x12
 1751 05fa 54090000 		.4byte	.LASF112
 1752 05fe 25       		.sleb128 37
 1753 05ff 12       		.uleb128 0x12
 1754 0600 15040000 		.4byte	.LASF113
 1755 0604 26       		.sleb128 38
 1756 0605 12       		.uleb128 0x12
 1757 0606 58020000 		.4byte	.LASF114
 1758 060a 27       		.sleb128 39
 1759 060b 12       		.uleb128 0x12
 1760 060c 0D090000 		.4byte	.LASF115
 1761 0610 28       		.sleb128 40
 1762 0611 12       		.uleb128 0x12
 1763 0612 E7080000 		.4byte	.LASF116
 1764 0616 29       		.sleb128 41
 1765 0617 12       		.uleb128 0x12
 1766 0618 00070000 		.4byte	.LASF117
 1767 061c 2A       		.sleb128 42
 1768 061d 12       		.uleb128 0x12
 1769 061e 98010000 		.4byte	.LASF118
 1770 0622 2B       		.sleb128 43
 1771 0623 12       		.uleb128 0x12
 1772 0624 17000000 		.4byte	.LASF119
 1773 0628 2C       		.sleb128 44
 1774 0629 12       		.uleb128 0x12
 1775 062a BC040000 		.4byte	.LASF120
 1776 062e 2D       		.sleb128 45
 1777 062f 12       		.uleb128 0x12
 1778 0630 FD0C0000 		.4byte	.LASF121
 1779 0634 2E       		.sleb128 46
 1780 0635 12       		.uleb128 0x12
 1781 0636 490D0000 		.4byte	.LASF122
 1782 063a 2F       		.sleb128 47
 1783 063b 12       		.uleb128 0x12
 1784 063c F2090000 		.4byte	.LASF123
 1785 0640 30       		.sleb128 48
 1786 0641 12       		.uleb128 0x12
 1787 0642 0A0D0000 		.4byte	.LASF124
 1788 0646 31       		.sleb128 49
 1789 0647 12       		.uleb128 0x12
 1790 0648 7E030000 		.4byte	.LASF125
 1791 064c 32       		.sleb128 50
 1792 064d 12       		.uleb128 0x12
 1793 064e EB000000 		.4byte	.LASF126
 1794 0652 33       		.sleb128 51
 1795 0653 12       		.uleb128 0x12
 1796 0654 E1060000 		.4byte	.LASF127
 1797 0658 34       		.sleb128 52
 1798 0659 12       		.uleb128 0x12
 1799 065a 1C060000 		.4byte	.LASF128
 1800 065e 35       		.sleb128 53
 1801 065f 12       		.uleb128 0x12
ARM GAS  /tmp/ccV91MuA.s 			page 33


 1802 0660 30070000 		.4byte	.LASF129
 1803 0664 36       		.sleb128 54
 1804 0665 12       		.uleb128 0x12
 1805 0666 4B060000 		.4byte	.LASF130
 1806 066a 37       		.sleb128 55
 1807 066b 12       		.uleb128 0x12
 1808 066c 83050000 		.4byte	.LASF131
 1809 0670 38       		.sleb128 56
 1810 0671 12       		.uleb128 0x12
 1811 0672 D9000000 		.4byte	.LASF132
 1812 0676 39       		.sleb128 57
 1813 0677 12       		.uleb128 0x12
 1814 0678 AA0D0000 		.4byte	.LASF133
 1815 067c 3A       		.sleb128 58
 1816 067d 12       		.uleb128 0x12
 1817 067e 36080000 		.4byte	.LASF134
 1818 0682 3B       		.sleb128 59
 1819 0683 12       		.uleb128 0x12
 1820 0684 E8020000 		.4byte	.LASF135
 1821 0688 3C       		.sleb128 60
 1822 0689 12       		.uleb128 0x12
 1823 068a 910B0000 		.4byte	.LASF136
 1824 068e 3D       		.sleb128 61
 1825 068f 12       		.uleb128 0x12
 1826 0690 63060000 		.4byte	.LASF137
 1827 0694 3E       		.sleb128 62
 1828 0695 12       		.uleb128 0x12
 1829 0696 48080000 		.4byte	.LASF138
 1830 069a 3F       		.sleb128 63
 1831 069b 12       		.uleb128 0x12
 1832 069c 3F010000 		.4byte	.LASF139
 1833 06a0 C000     		.sleb128 64
 1834 06a2 12       		.uleb128 0x12
 1835 06a3 97090000 		.4byte	.LASF140
 1836 06a7 C100     		.sleb128 65
 1837 06a9 12       		.uleb128 0x12
 1838 06aa 46030000 		.4byte	.LASF141
 1839 06ae C200     		.sleb128 66
 1840 06b0 12       		.uleb128 0x12
 1841 06b1 E6040000 		.4byte	.LASF142
 1842 06b5 C300     		.sleb128 67
 1843 06b7 12       		.uleb128 0x12
 1844 06b8 DD010000 		.4byte	.LASF143
 1845 06bc C400     		.sleb128 68
 1846 06be 12       		.uleb128 0x12
 1847 06bf 3E0B0000 		.4byte	.LASF144
 1848 06c3 C500     		.sleb128 69
 1849 06c5 12       		.uleb128 0x12
 1850 06c6 D4040000 		.4byte	.LASF145
 1851 06ca C600     		.sleb128 70
 1852 06cc 12       		.uleb128 0x12
 1853 06cd 4D010000 		.4byte	.LASF146
 1854 06d1 C700     		.sleb128 71
 1855 06d3 12       		.uleb128 0x12
 1856 06d4 6A0B0000 		.4byte	.LASF147
 1857 06d8 C800     		.sleb128 72
 1858 06da 12       		.uleb128 0x12
ARM GAS  /tmp/ccV91MuA.s 			page 34


 1859 06db F6080000 		.4byte	.LASF148
 1860 06df C900     		.sleb128 73
 1861 06e1 12       		.uleb128 0x12
 1862 06e2 490C0000 		.4byte	.LASF149
 1863 06e6 CA00     		.sleb128 74
 1864 06e8 12       		.uleb128 0x12
 1865 06e9 2B0D0000 		.4byte	.LASF150
 1866 06ed CB00     		.sleb128 75
 1867 06ef 12       		.uleb128 0x12
 1868 06f0 80010000 		.4byte	.LASF151
 1869 06f4 CC00     		.sleb128 76
 1870 06f6 12       		.uleb128 0x12
 1871 06f7 7B060000 		.4byte	.LASF152
 1872 06fb CD00     		.sleb128 77
 1873 06fd 12       		.uleb128 0x12
 1874 06fe 00010000 		.4byte	.LASF153
 1875 0702 CE00     		.sleb128 78
 1876 0704 12       		.uleb128 0x12
 1877 0705 03090000 		.4byte	.LASF154
 1878 0709 CF00     		.sleb128 79
 1879 070b 12       		.uleb128 0x12
 1880 070c 84040000 		.4byte	.LASF155
 1881 0710 D000     		.sleb128 80
 1882 0712 12       		.uleb128 0x12
 1883 0713 D8060000 		.4byte	.LASF156
 1884 0717 D100     		.sleb128 81
 1885 0719 00       		.byte	0
 1886 071a 13       		.uleb128 0x13
 1887 071b CE000000 		.4byte	0xce
 1888 071f 2A070000 		.4byte	0x72a
 1889 0723 14       		.uleb128 0x14
 1890 0724 3E040000 		.4byte	0x43e
 1891 0728 01       		.byte	0x1
 1892 0729 00       		.byte	0
 1893 072a 0D       		.uleb128 0xd
 1894 072b C3000000 		.4byte	0xc3
 1895 072f 15       		.uleb128 0x15
 1896 0730 50       		.byte	0x50
 1897 0731 0A       		.byte	0xa
 1898 0732 0A02     		.2byte	0x20a
 1899 0734 3B080000 		.4byte	0x83b
 1900 0738 0C       		.uleb128 0xc
 1901 0739 535200   		.ascii	"SR\000"
 1902 073c 0A       		.byte	0xa
 1903 073d 0C02     		.2byte	0x20c
 1904 073f 39040000 		.4byte	0x439
 1905 0743 00       		.byte	0
 1906 0744 0C       		.uleb128 0xc
 1907 0745 43523100 		.ascii	"CR1\000"
 1908 0749 0A       		.byte	0xa
 1909 074a 0D02     		.2byte	0x20d
 1910 074c 39040000 		.4byte	0x439
 1911 0750 04       		.byte	0x4
 1912 0751 0C       		.uleb128 0xc
 1913 0752 43523200 		.ascii	"CR2\000"
 1914 0756 0A       		.byte	0xa
 1915 0757 0E02     		.2byte	0x20e
ARM GAS  /tmp/ccV91MuA.s 			page 35


 1916 0759 39040000 		.4byte	0x439
 1917 075d 08       		.byte	0x8
 1918 075e 16       		.uleb128 0x16
 1919 075f 95050000 		.4byte	.LASF157
 1920 0763 0A       		.byte	0xa
 1921 0764 0F02     		.2byte	0x20f
 1922 0766 39040000 		.4byte	0x439
 1923 076a 0C       		.byte	0xc
 1924 076b 16       		.uleb128 0x16
 1925 076c 9B050000 		.4byte	.LASF158
 1926 0770 0A       		.byte	0xa
 1927 0771 1002     		.2byte	0x210
 1928 0773 39040000 		.4byte	0x439
 1929 0777 10       		.byte	0x10
 1930 0778 16       		.uleb128 0x16
 1931 0779 C70B0000 		.4byte	.LASF159
 1932 077d 0A       		.byte	0xa
 1933 077e 1102     		.2byte	0x211
 1934 0780 39040000 		.4byte	0x439
 1935 0784 14       		.byte	0x14
 1936 0785 16       		.uleb128 0x16
 1937 0786 CD0B0000 		.4byte	.LASF160
 1938 078a 0A       		.byte	0xa
 1939 078b 1202     		.2byte	0x212
 1940 078d 39040000 		.4byte	0x439
 1941 0791 18       		.byte	0x18
 1942 0792 16       		.uleb128 0x16
 1943 0793 D30B0000 		.4byte	.LASF161
 1944 0797 0A       		.byte	0xa
 1945 0798 1302     		.2byte	0x213
 1946 079a 39040000 		.4byte	0x439
 1947 079e 1C       		.byte	0x1c
 1948 079f 16       		.uleb128 0x16
 1949 07a0 D90B0000 		.4byte	.LASF162
 1950 07a4 0A       		.byte	0xa
 1951 07a5 1402     		.2byte	0x214
 1952 07a7 39040000 		.4byte	0x439
 1953 07ab 20       		.byte	0x20
 1954 07ac 0C       		.uleb128 0xc
 1955 07ad 48545200 		.ascii	"HTR\000"
 1956 07b1 0A       		.byte	0xa
 1957 07b2 1502     		.2byte	0x215
 1958 07b4 39040000 		.4byte	0x439
 1959 07b8 24       		.byte	0x24
 1960 07b9 0C       		.uleb128 0xc
 1961 07ba 4C545200 		.ascii	"LTR\000"
 1962 07be 0A       		.byte	0xa
 1963 07bf 1602     		.2byte	0x216
 1964 07c1 39040000 		.4byte	0x439
 1965 07c5 28       		.byte	0x28
 1966 07c6 16       		.uleb128 0x16
 1967 07c7 7C000000 		.4byte	.LASF163
 1968 07cb 0A       		.byte	0xa
 1969 07cc 1702     		.2byte	0x217
 1970 07ce 39040000 		.4byte	0x439
 1971 07d2 2C       		.byte	0x2c
 1972 07d3 16       		.uleb128 0x16
ARM GAS  /tmp/ccV91MuA.s 			page 36


 1973 07d4 81000000 		.4byte	.LASF164
 1974 07d8 0A       		.byte	0xa
 1975 07d9 1802     		.2byte	0x218
 1976 07db 39040000 		.4byte	0x439
 1977 07df 30       		.byte	0x30
 1978 07e0 16       		.uleb128 0x16
 1979 07e1 86000000 		.4byte	.LASF165
 1980 07e5 0A       		.byte	0xa
 1981 07e6 1902     		.2byte	0x219
 1982 07e8 39040000 		.4byte	0x439
 1983 07ec 34       		.byte	0x34
 1984 07ed 16       		.uleb128 0x16
 1985 07ee 1C0C0000 		.4byte	.LASF166
 1986 07f2 0A       		.byte	0xa
 1987 07f3 1A02     		.2byte	0x21a
 1988 07f5 39040000 		.4byte	0x439
 1989 07f9 38       		.byte	0x38
 1990 07fa 16       		.uleb128 0x16
 1991 07fb 060C0000 		.4byte	.LASF167
 1992 07ff 0A       		.byte	0xa
 1993 0800 1B02     		.2byte	0x21b
 1994 0802 39040000 		.4byte	0x439
 1995 0806 3C       		.byte	0x3c
 1996 0807 16       		.uleb128 0x16
 1997 0808 0B0C0000 		.4byte	.LASF168
 1998 080c 0A       		.byte	0xa
 1999 080d 1C02     		.2byte	0x21c
 2000 080f 39040000 		.4byte	0x439
 2001 0813 40       		.byte	0x40
 2002 0814 16       		.uleb128 0x16
 2003 0815 100C0000 		.4byte	.LASF169
 2004 0819 0A       		.byte	0xa
 2005 081a 1D02     		.2byte	0x21d
 2006 081c 39040000 		.4byte	0x439
 2007 0820 44       		.byte	0x44
 2008 0821 16       		.uleb128 0x16
 2009 0822 61010000 		.4byte	.LASF170
 2010 0826 0A       		.byte	0xa
 2011 0827 1E02     		.2byte	0x21e
 2012 0829 39040000 		.4byte	0x439
 2013 082d 48       		.byte	0x48
 2014 082e 0C       		.uleb128 0xc
 2015 082f 445200   		.ascii	"DR\000"
 2016 0832 0A       		.byte	0xa
 2017 0833 1F02     		.2byte	0x21f
 2018 0835 39040000 		.4byte	0x439
 2019 0839 4C       		.byte	0x4c
 2020 083a 00       		.byte	0
 2021 083b 17       		.uleb128 0x17
 2022 083c 54040000 		.4byte	.LASF171
 2023 0840 0A       		.byte	0xa
 2024 0841 2002     		.2byte	0x220
 2025 0843 2F070000 		.4byte	0x72f
 2026 0847 15       		.uleb128 0x15
 2027 0848 0C       		.byte	0xc
 2028 0849 0A       		.byte	0xa
 2029 084a 2202     		.2byte	0x222
ARM GAS  /tmp/ccV91MuA.s 			page 37


 2030 084c 78080000 		.4byte	0x878
 2031 0850 0C       		.uleb128 0xc
 2032 0851 43535200 		.ascii	"CSR\000"
 2033 0855 0A       		.byte	0xa
 2034 0856 2402     		.2byte	0x224
 2035 0858 39040000 		.4byte	0x439
 2036 085c 00       		.byte	0
 2037 085d 0C       		.uleb128 0xc
 2038 085e 43435200 		.ascii	"CCR\000"
 2039 0862 0A       		.byte	0xa
 2040 0863 2502     		.2byte	0x225
 2041 0865 39040000 		.4byte	0x439
 2042 0869 04       		.byte	0x4
 2043 086a 0C       		.uleb128 0xc
 2044 086b 43445200 		.ascii	"CDR\000"
 2045 086f 0A       		.byte	0xa
 2046 0870 2602     		.2byte	0x226
 2047 0872 39040000 		.4byte	0x439
 2048 0876 08       		.byte	0x8
 2049 0877 00       		.byte	0
 2050 0878 17       		.uleb128 0x17
 2051 0879 650D0000 		.4byte	.LASF172
 2052 087d 0A       		.byte	0xa
 2053 087e 2802     		.2byte	0x228
 2054 0880 47080000 		.4byte	0x847
 2055 0884 15       		.uleb128 0x15
 2056 0885 18       		.byte	0x18
 2057 0886 0A       		.byte	0xa
 2058 0887 B102     		.2byte	0x2b1
 2059 0889 DB080000 		.4byte	0x8db
 2060 088d 0C       		.uleb128 0xc
 2061 088e 435200   		.ascii	"CR\000"
 2062 0891 0A       		.byte	0xa
 2063 0892 B302     		.2byte	0x2b3
 2064 0894 39040000 		.4byte	0x439
 2065 0898 00       		.byte	0
 2066 0899 16       		.uleb128 0x16
 2067 089a 6B0C0000 		.4byte	.LASF173
 2068 089e 0A       		.byte	0xa
 2069 089f B402     		.2byte	0x2b4
 2070 08a1 39040000 		.4byte	0x439
 2071 08a5 04       		.byte	0x4
 2072 08a6 0C       		.uleb128 0xc
 2073 08a7 50415200 		.ascii	"PAR\000"
 2074 08ab 0A       		.byte	0xa
 2075 08ac B502     		.2byte	0x2b5
 2076 08ae 39040000 		.4byte	0x439
 2077 08b2 08       		.byte	0x8
 2078 08b3 16       		.uleb128 0x16
 2079 08b4 8C0B0000 		.4byte	.LASF174
 2080 08b8 0A       		.byte	0xa
 2081 08b9 B602     		.2byte	0x2b6
 2082 08bb 39040000 		.4byte	0x439
 2083 08bf 0C       		.byte	0xc
 2084 08c0 16       		.uleb128 0x16
 2085 08c1 00000000 		.4byte	.LASF175
 2086 08c5 0A       		.byte	0xa
ARM GAS  /tmp/ccV91MuA.s 			page 38


 2087 08c6 B702     		.2byte	0x2b7
 2088 08c8 39040000 		.4byte	0x439
 2089 08cc 10       		.byte	0x10
 2090 08cd 0C       		.uleb128 0xc
 2091 08ce 46435200 		.ascii	"FCR\000"
 2092 08d2 0A       		.byte	0xa
 2093 08d3 B802     		.2byte	0x2b8
 2094 08d5 39040000 		.4byte	0x439
 2095 08d9 14       		.byte	0x14
 2096 08da 00       		.byte	0
 2097 08db 17       		.uleb128 0x17
 2098 08dc 6D080000 		.4byte	.LASF176
 2099 08e0 0A       		.byte	0xa
 2100 08e1 B902     		.2byte	0x2b9
 2101 08e3 84080000 		.4byte	0x884
 2102 08e7 15       		.uleb128 0x15
 2103 08e8 90       		.byte	0x90
 2104 08e9 0A       		.byte	0xa
 2105 08ea 5804     		.2byte	0x458
 2106 08ec 900A0000 		.4byte	0xa90
 2107 08f0 0C       		.uleb128 0xc
 2108 08f1 435200   		.ascii	"CR\000"
 2109 08f4 0A       		.byte	0xa
 2110 08f5 5A04     		.2byte	0x45a
 2111 08f7 39040000 		.4byte	0x439
 2112 08fb 00       		.byte	0
 2113 08fc 16       		.uleb128 0x16
 2114 08fd 14060000 		.4byte	.LASF177
 2115 0901 0A       		.byte	0xa
 2116 0902 5B04     		.2byte	0x45b
 2117 0904 39040000 		.4byte	0x439
 2118 0908 04       		.byte	0x4
 2119 0909 16       		.uleb128 0x16
 2120 090a 72040000 		.4byte	.LASF178
 2121 090e 0A       		.byte	0xa
 2122 090f 5C04     		.2byte	0x45c
 2123 0911 39040000 		.4byte	0x439
 2124 0915 08       		.byte	0x8
 2125 0916 0C       		.uleb128 0xc
 2126 0917 43495200 		.ascii	"CIR\000"
 2127 091b 0A       		.byte	0xa
 2128 091c 5D04     		.2byte	0x45d
 2129 091e 39040000 		.4byte	0x439
 2130 0922 0C       		.byte	0xc
 2131 0923 16       		.uleb128 0x16
 2132 0924 B0030000 		.4byte	.LASF179
 2133 0928 0A       		.byte	0xa
 2134 0929 5E04     		.2byte	0x45e
 2135 092b 39040000 		.4byte	0x439
 2136 092f 10       		.byte	0x10
 2137 0930 16       		.uleb128 0x16
 2138 0931 7C0B0000 		.4byte	.LASF180
 2139 0935 0A       		.byte	0xa
 2140 0936 5F04     		.2byte	0x45f
 2141 0938 39040000 		.4byte	0x439
 2142 093c 14       		.byte	0x14
 2143 093d 16       		.uleb128 0x16
ARM GAS  /tmp/ccV91MuA.s 			page 39


 2144 093e 9E080000 		.4byte	.LASF181
 2145 0942 0A       		.byte	0xa
 2146 0943 6004     		.2byte	0x460
 2147 0945 39040000 		.4byte	0x439
 2148 0949 18       		.byte	0x18
 2149 094a 16       		.uleb128 0x16
 2150 094b C6020000 		.4byte	.LASF182
 2151 094f 0A       		.byte	0xa
 2152 0950 6104     		.2byte	0x461
 2153 0952 CE000000 		.4byte	0xce
 2154 0956 1C       		.byte	0x1c
 2155 0957 16       		.uleb128 0x16
 2156 0958 CF080000 		.4byte	.LASF183
 2157 095c 0A       		.byte	0xa
 2158 095d 6204     		.2byte	0x462
 2159 095f 39040000 		.4byte	0x439
 2160 0963 20       		.byte	0x20
 2161 0964 16       		.uleb128 0x16
 2162 0965 C3060000 		.4byte	.LASF184
 2163 0969 0A       		.byte	0xa
 2164 096a 6304     		.2byte	0x463
 2165 096c 39040000 		.4byte	0x439
 2166 0970 24       		.byte	0x24
 2167 0971 16       		.uleb128 0x16
 2168 0972 D0020000 		.4byte	.LASF185
 2169 0976 0A       		.byte	0xa
 2170 0977 6404     		.2byte	0x464
 2171 0979 1A070000 		.4byte	0x71a
 2172 097d 28       		.byte	0x28
 2173 097e 16       		.uleb128 0x16
 2174 097f 500B0000 		.4byte	.LASF186
 2175 0983 0A       		.byte	0xa
 2176 0984 6504     		.2byte	0x465
 2177 0986 39040000 		.4byte	0x439
 2178 098a 30       		.byte	0x30
 2179 098b 16       		.uleb128 0x16
 2180 098c CB030000 		.4byte	.LASF187
 2181 0990 0A       		.byte	0xa
 2182 0991 6604     		.2byte	0x466
 2183 0993 39040000 		.4byte	0x439
 2184 0997 34       		.byte	0x34
 2185 0998 16       		.uleb128 0x16
 2186 0999 A20D0000 		.4byte	.LASF188
 2187 099d 0A       		.byte	0xa
 2188 099e 6704     		.2byte	0x467
 2189 09a0 39040000 		.4byte	0x439
 2190 09a4 38       		.byte	0x38
 2191 09a5 16       		.uleb128 0x16
 2192 09a6 64030000 		.4byte	.LASF189
 2193 09aa 0A       		.byte	0xa
 2194 09ab 6804     		.2byte	0x468
 2195 09ad CE000000 		.4byte	0xce
 2196 09b1 3C       		.byte	0x3c
 2197 09b2 16       		.uleb128 0x16
 2198 09b3 2D050000 		.4byte	.LASF190
 2199 09b7 0A       		.byte	0xa
 2200 09b8 6904     		.2byte	0x469
ARM GAS  /tmp/ccV91MuA.s 			page 40


 2201 09ba 39040000 		.4byte	0x439
 2202 09be 40       		.byte	0x40
 2203 09bf 16       		.uleb128 0x16
 2204 09c0 39020000 		.4byte	.LASF191
 2205 09c4 0A       		.byte	0xa
 2206 09c5 6A04     		.2byte	0x46a
 2207 09c7 39040000 		.4byte	0x439
 2208 09cb 44       		.byte	0x44
 2209 09cc 16       		.uleb128 0x16
 2210 09cd 6E030000 		.4byte	.LASF192
 2211 09d1 0A       		.byte	0xa
 2212 09d2 6B04     		.2byte	0x46b
 2213 09d4 1A070000 		.4byte	0x71a
 2214 09d8 48       		.byte	0x48
 2215 09d9 16       		.uleb128 0x16
 2216 09da 41020000 		.4byte	.LASF193
 2217 09de 0A       		.byte	0xa
 2218 09df 6C04     		.2byte	0x46c
 2219 09e1 39040000 		.4byte	0x439
 2220 09e5 50       		.byte	0x50
 2221 09e6 16       		.uleb128 0x16
 2222 09e7 AC010000 		.4byte	.LASF194
 2223 09eb 0A       		.byte	0xa
 2224 09ec 6D04     		.2byte	0x46d
 2225 09ee 39040000 		.4byte	0x439
 2226 09f2 54       		.byte	0x54
 2227 09f3 16       		.uleb128 0x16
 2228 09f4 CB090000 		.4byte	.LASF195
 2229 09f8 0A       		.byte	0xa
 2230 09f9 6E04     		.2byte	0x46e
 2231 09fb 39040000 		.4byte	0x439
 2232 09ff 58       		.byte	0x58
 2233 0a00 16       		.uleb128 0x16
 2234 0a01 FA020000 		.4byte	.LASF196
 2235 0a05 0A       		.byte	0xa
 2236 0a06 6F04     		.2byte	0x46f
 2237 0a08 CE000000 		.4byte	0xce
 2238 0a0c 5C       		.byte	0x5c
 2239 0a0d 16       		.uleb128 0x16
 2240 0a0e 1A080000 		.4byte	.LASF197
 2241 0a12 0A       		.byte	0xa
 2242 0a13 7004     		.2byte	0x470
 2243 0a15 39040000 		.4byte	0x439
 2244 0a19 60       		.byte	0x60
 2245 0a1a 16       		.uleb128 0x16
 2246 0a1b EC060000 		.4byte	.LASF198
 2247 0a1f 0A       		.byte	0xa
 2248 0a20 7104     		.2byte	0x471
 2249 0a22 39040000 		.4byte	0x439
 2250 0a26 64       		.byte	0x64
 2251 0a27 16       		.uleb128 0x16
 2252 0a28 04030000 		.4byte	.LASF199
 2253 0a2c 0A       		.byte	0xa
 2254 0a2d 7204     		.2byte	0x472
 2255 0a2f 1A070000 		.4byte	0x71a
 2256 0a33 68       		.byte	0x68
 2257 0a34 16       		.uleb128 0x16
ARM GAS  /tmp/ccV91MuA.s 			page 41


 2258 0a35 3A040000 		.4byte	.LASF200
 2259 0a39 0A       		.byte	0xa
 2260 0a3a 7304     		.2byte	0x473
 2261 0a3c 39040000 		.4byte	0x439
 2262 0a40 70       		.byte	0x70
 2263 0a41 0C       		.uleb128 0xc
 2264 0a42 43535200 		.ascii	"CSR\000"
 2265 0a46 0A       		.byte	0xa
 2266 0a47 7404     		.2byte	0x474
 2267 0a49 39040000 		.4byte	0x439
 2268 0a4d 74       		.byte	0x74
 2269 0a4e 16       		.uleb128 0x16
 2270 0a4f 0E030000 		.4byte	.LASF201
 2271 0a53 0A       		.byte	0xa
 2272 0a54 7504     		.2byte	0x475
 2273 0a56 1A070000 		.4byte	0x71a
 2274 0a5a 78       		.byte	0x78
 2275 0a5b 16       		.uleb128 0x16
 2276 0a5c 8F060000 		.4byte	.LASF202
 2277 0a60 0A       		.byte	0xa
 2278 0a61 7604     		.2byte	0x476
 2279 0a63 39040000 		.4byte	0x439
 2280 0a67 80       		.byte	0x80
 2281 0a68 16       		.uleb128 0x16
 2282 0a69 55000000 		.4byte	.LASF203
 2283 0a6d 0A       		.byte	0xa
 2284 0a6e 7704     		.2byte	0x477
 2285 0a70 39040000 		.4byte	0x439
 2286 0a74 84       		.byte	0x84
 2287 0a75 16       		.uleb128 0x16
 2288 0a76 B20C0000 		.4byte	.LASF204
 2289 0a7a 0A       		.byte	0xa
 2290 0a7b 7804     		.2byte	0x478
 2291 0a7d 39040000 		.4byte	0x439
 2292 0a81 88       		.byte	0x88
 2293 0a82 16       		.uleb128 0x16
 2294 0a83 64020000 		.4byte	.LASF205
 2295 0a87 0A       		.byte	0xa
 2296 0a88 7904     		.2byte	0x479
 2297 0a8a 39040000 		.4byte	0x439
 2298 0a8e 8C       		.byte	0x8c
 2299 0a8f 00       		.byte	0
 2300 0a90 17       		.uleb128 0x17
 2301 0a91 9A0B0000 		.4byte	.LASF206
 2302 0a95 0A       		.byte	0xa
 2303 0a96 7B04     		.2byte	0x47b
 2304 0a98 E7080000 		.4byte	0x8e7
 2305 0a9c 08       		.uleb128 0x8
 2306 0a9d 0C       		.byte	0xc
 2307 0a9e 0B       		.byte	0xb
 2308 0a9f DA       		.byte	0xda
 2309 0aa0 E10A0000 		.4byte	0xae1
 2310 0aa4 06       		.uleb128 0x6
 2311 0aa5 21040000 		.4byte	.LASF207
 2312 0aa9 0B       		.byte	0xb
 2313 0aaa DB       		.byte	0xdb
 2314 0aab E10A0000 		.4byte	0xae1
ARM GAS  /tmp/ccV91MuA.s 			page 42


 2315 0aaf 00       		.byte	0
 2316 0ab0 06       		.uleb128 0x6
 2317 0ab1 780D0000 		.4byte	.LASF208
 2318 0ab5 0B       		.byte	0xb
 2319 0ab6 DC       		.byte	0xdc
 2320 0ab7 E70A0000 		.4byte	0xae7
 2321 0abb 04       		.byte	0x4
 2322 0abc 06       		.uleb128 0x6
 2323 0abd A9030000 		.4byte	.LASF209
 2324 0ac1 0B       		.byte	0xb
 2325 0ac2 DD       		.byte	0xdd
 2326 0ac3 AD000000 		.4byte	0xad
 2327 0ac7 08       		.byte	0x8
 2328 0ac8 06       		.uleb128 0x6
 2329 0ac9 19070000 		.4byte	.LASF210
 2330 0acd 0B       		.byte	0xb
 2331 0ace DF       		.byte	0xdf
 2332 0acf AD000000 		.4byte	0xad
 2333 0ad3 09       		.byte	0x9
 2334 0ad4 06       		.uleb128 0x6
 2335 0ad5 A5090000 		.4byte	.LASF211
 2336 0ad9 0B       		.byte	0xb
 2337 0ada E0       		.byte	0xe0
 2338 0adb AD000000 		.4byte	0xad
 2339 0adf 0A       		.byte	0xa
 2340 0ae0 00       		.byte	0
 2341 0ae1 09       		.uleb128 0x9
 2342 0ae2 04       		.byte	0x4
 2343 0ae3 DB080000 		.4byte	0x8db
 2344 0ae7 09       		.uleb128 0x9
 2345 0ae8 04       		.byte	0x4
 2346 0ae9 39040000 		.4byte	0x439
 2347 0aed 03       		.uleb128 0x3
 2348 0aee A1050000 		.4byte	.LASF212
 2349 0af2 0B       		.byte	0xb
 2350 0af3 E1       		.byte	0xe1
 2351 0af4 9C0A0000 		.4byte	0xa9c
 2352 0af8 03       		.uleb128 0x3
 2353 0af9 D8080000 		.4byte	.LASF213
 2354 0afd 0B       		.byte	0xb
 2355 0afe EA       		.byte	0xea
 2356 0aff 030B0000 		.4byte	0xb03
 2357 0b03 09       		.uleb128 0x9
 2358 0b04 04       		.byte	0x4
 2359 0b05 090B0000 		.4byte	0xb09
 2360 0b09 18       		.uleb128 0x18
 2361 0b0a 190B0000 		.4byte	0xb19
 2362 0b0e 19       		.uleb128 0x19
 2363 0b0f BF020000 		.4byte	0x2bf
 2364 0b13 19       		.uleb128 0x19
 2365 0b14 CE000000 		.4byte	0xce
 2366 0b18 00       		.byte	0
 2367 0b19 1A       		.uleb128 0x1a
 2368 0b1a 01       		.byte	0x1
 2369 0b1b 0C       		.byte	0xc
 2370 0b1c 55       		.byte	0x55
 2371 0b1d 460B0000 		.4byte	0xb46
ARM GAS  /tmp/ccV91MuA.s 			page 43


 2372 0b21 12       		.uleb128 0x12
 2373 0b22 3B030000 		.4byte	.LASF214
 2374 0b26 00       		.sleb128 0
 2375 0b27 12       		.uleb128 0x12
 2376 0b28 350B0000 		.4byte	.LASF215
 2377 0b2c 01       		.sleb128 1
 2378 0b2d 12       		.uleb128 0x12
 2379 0b2e 54030000 		.4byte	.LASF216
 2380 0b32 02       		.sleb128 2
 2381 0b33 12       		.uleb128 0x12
 2382 0b34 B2080000 		.4byte	.LASF217
 2383 0b38 03       		.sleb128 3
 2384 0b39 12       		.uleb128 0x12
 2385 0b3a D4050000 		.4byte	.LASF218
 2386 0b3e 04       		.sleb128 4
 2387 0b3f 12       		.uleb128 0x12
 2388 0b40 E8030000 		.4byte	.LASF219
 2389 0b44 05       		.sleb128 5
 2390 0b45 00       		.byte	0
 2391 0b46 03       		.uleb128 0x3
 2392 0b47 9E000000 		.4byte	.LASF220
 2393 0b4b 0C       		.byte	0xc
 2394 0b4c 5C       		.byte	0x5c
 2395 0b4d 190B0000 		.4byte	0xb19
 2396 0b51 17       		.uleb128 0x17
 2397 0b52 88030000 		.4byte	.LASF221
 2398 0b56 0D       		.byte	0xd
 2399 0b57 2701     		.2byte	0x127
 2400 0b59 B8000000 		.4byte	0xb8
 2401 0b5d 17       		.uleb128 0x17
 2402 0b5e 3E070000 		.4byte	.LASF222
 2403 0b62 0D       		.byte	0xd
 2404 0b63 2C01     		.2byte	0x12c
 2405 0b65 B8000000 		.4byte	0xb8
 2406 0b69 1B       		.uleb128 0x1b
 2407 0b6a 01       		.byte	0x1
 2408 0b6b 0D       		.byte	0xd
 2409 0b6c 3301     		.2byte	0x133
 2410 0b6e 7F0B0000 		.4byte	0xb7f
 2411 0b72 12       		.uleb128 0x12
 2412 0b73 BA000000 		.4byte	.LASF223
 2413 0b77 00       		.sleb128 0
 2414 0b78 12       		.uleb128 0x12
 2415 0b79 B5090000 		.4byte	.LASF224
 2416 0b7d 01       		.sleb128 1
 2417 0b7e 00       		.byte	0
 2418 0b7f 17       		.uleb128 0x17
 2419 0b80 23030000 		.4byte	.LASF225
 2420 0b84 0D       		.byte	0xd
 2421 0b85 3601     		.2byte	0x136
 2422 0b87 690B0000 		.4byte	0xb69
 2423 0b8b 17       		.uleb128 0x17
 2424 0b8c 80090000 		.4byte	.LASF226
 2425 0b90 0D       		.byte	0xd
 2426 0b91 3B01     		.2byte	0x13b
 2427 0b93 970B0000 		.4byte	0xb97
 2428 0b97 0B       		.uleb128 0xb
ARM GAS  /tmp/ccV91MuA.s 			page 44


 2429 0b98 80090000 		.4byte	.LASF226
 2430 0b9c 34       		.byte	0x34
 2431 0b9d 0D       		.byte	0xd
 2432 0b9e 9F01     		.2byte	0x19f
 2433 0ba0 270C0000 		.4byte	0xc27
 2434 0ba4 16       		.uleb128 0x16
 2435 0ba5 11010000 		.4byte	.LASF227
 2436 0ba9 0D       		.byte	0xd
 2437 0baa A301     		.2byte	0x1a3
 2438 0bac 460B0000 		.4byte	0xb46
 2439 0bb0 00       		.byte	0
 2440 0bb1 16       		.uleb128 0x16
 2441 0bb2 0A010000 		.4byte	.LASF228
 2442 0bb6 0D       		.byte	0xd
 2443 0bb7 A701     		.2byte	0x1a7
 2444 0bb9 440D0000 		.4byte	0xd44
 2445 0bbd 04       		.byte	0x4
 2446 0bbe 16       		.uleb128 0x16
 2447 0bbf 3F040000 		.4byte	.LASF229
 2448 0bc3 0D       		.byte	0xd
 2449 0bc4 AB01     		.2byte	0x1ab
 2450 0bc6 540C0000 		.4byte	0xc54
 2451 0bca 08       		.byte	0x8
 2452 0bcb 16       		.uleb128 0x16
 2453 0bcc CC060000 		.4byte	.LASF230
 2454 0bd0 0D       		.byte	0xd
 2455 0bd1 AF01     		.2byte	0x1af
 2456 0bd3 2C000000 		.4byte	0x2c
 2457 0bd7 0C       		.byte	0xc
 2458 0bd8 16       		.uleb128 0x16
 2459 0bd9 770B0000 		.4byte	.LASF231
 2460 0bdd 0D       		.byte	0xd
 2461 0bde B301     		.2byte	0x1b3
 2462 0be0 4F0D0000 		.4byte	0xd4f
 2463 0be4 10       		.byte	0x10
 2464 0be5 16       		.uleb128 0x16
 2465 0be6 850B0000 		.4byte	.LASF232
 2466 0bea 0D       		.byte	0xd
 2467 0beb B801     		.2byte	0x1b8
 2468 0bed 83020000 		.4byte	0x283
 2469 0bf1 14       		.byte	0x14
 2470 0bf2 16       		.uleb128 0x16
 2471 0bf3 D2060000 		.4byte	.LASF233
 2472 0bf7 0D       		.byte	0xd
 2473 0bf8 BF01     		.2byte	0x1bf
 2474 0bfa 81040000 		.4byte	0x481
 2475 0bfe 18       		.byte	0x18
 2476 0bff 0C       		.uleb128 0xc
 2477 0c00 61646300 		.ascii	"adc\000"
 2478 0c04 0D       		.byte	0xd
 2479 0c05 CB01     		.2byte	0x1cb
 2480 0c07 5A0D0000 		.4byte	0xd5a
 2481 0c0b 28       		.byte	0x28
 2482 0c0c 16       		.uleb128 0x16
 2483 0c0d 35050000 		.4byte	.LASF234
 2484 0c11 0D       		.byte	0xd
 2485 0c12 CF01     		.2byte	0x1cf
ARM GAS  /tmp/ccV91MuA.s 			page 45


 2486 0c14 600D0000 		.4byte	0xd60
 2487 0c18 2C       		.byte	0x2c
 2488 0c19 16       		.uleb128 0x16
 2489 0c1a D5010000 		.4byte	.LASF235
 2490 0c1e 0D       		.byte	0xd
 2491 0c1f D301     		.2byte	0x1d3
 2492 0c21 CE000000 		.4byte	0xce
 2493 0c25 30       		.byte	0x30
 2494 0c26 00       		.byte	0
 2495 0c27 17       		.uleb128 0x17
 2496 0c28 6E000000 		.4byte	.LASF236
 2497 0c2c 0D       		.byte	0xd
 2498 0c2d 4501     		.2byte	0x145
 2499 0c2f 330C0000 		.4byte	0xc33
 2500 0c33 09       		.uleb128 0x9
 2501 0c34 04       		.byte	0x4
 2502 0c35 390C0000 		.4byte	0xc39
 2503 0c39 18       		.uleb128 0x18
 2504 0c3a 4E0C0000 		.4byte	0xc4e
 2505 0c3e 19       		.uleb128 0x19
 2506 0c3f 4E0C0000 		.4byte	0xc4e
 2507 0c43 19       		.uleb128 0x19
 2508 0c44 540C0000 		.4byte	0xc54
 2509 0c48 19       		.uleb128 0x19
 2510 0c49 2C000000 		.4byte	0x2c
 2511 0c4d 00       		.byte	0
 2512 0c4e 09       		.uleb128 0x9
 2513 0c4f 04       		.byte	0x4
 2514 0c50 8B0B0000 		.4byte	0xb8b
 2515 0c54 09       		.uleb128 0x9
 2516 0c55 04       		.byte	0x4
 2517 0c56 510B0000 		.4byte	0xb51
 2518 0c5a 17       		.uleb128 0x17
 2519 0c5b A4060000 		.4byte	.LASF237
 2520 0c5f 0D       		.byte	0xd
 2521 0c60 4E01     		.2byte	0x14e
 2522 0c62 660C0000 		.4byte	0xc66
 2523 0c66 09       		.uleb128 0x9
 2524 0c67 04       		.byte	0x4
 2525 0c68 6C0C0000 		.4byte	0xc6c
 2526 0c6c 18       		.uleb128 0x18
 2527 0c6d 7C0C0000 		.4byte	0xc7c
 2528 0c71 19       		.uleb128 0x19
 2529 0c72 4E0C0000 		.4byte	0xc4e
 2530 0c76 19       		.uleb128 0x19
 2531 0c77 7F0B0000 		.4byte	0xb7f
 2532 0c7b 00       		.byte	0
 2533 0c7c 15       		.uleb128 0x15
 2534 0c7d 28       		.byte	0x28
 2535 0c7e 0D       		.byte	0xd
 2536 0c7f 5801     		.2byte	0x158
 2537 0c81 150D0000 		.4byte	0xd15
 2538 0c85 16       		.uleb128 0x16
 2539 0c86 02040000 		.4byte	.LASF238
 2540 0c8a 0D       		.byte	0xd
 2541 0c8b 5C01     		.2byte	0x15c
 2542 0c8d E4000000 		.4byte	0xe4
ARM GAS  /tmp/ccV91MuA.s 			page 46


 2543 0c91 00       		.byte	0
 2544 0c92 16       		.uleb128 0x16
 2545 0c93 98070000 		.4byte	.LASF239
 2546 0c97 0D       		.byte	0xd
 2547 0c98 6001     		.2byte	0x160
 2548 0c9a 5D0B0000 		.4byte	0xb5d
 2549 0c9e 02       		.byte	0x2
 2550 0c9f 16       		.uleb128 0x16
 2551 0ca0 66010000 		.4byte	.LASF240
 2552 0ca4 0D       		.byte	0xd
 2553 0ca5 6401     		.2byte	0x164
 2554 0ca7 270C0000 		.4byte	0xc27
 2555 0cab 04       		.byte	0x4
 2556 0cac 16       		.uleb128 0x16
 2557 0cad 36010000 		.4byte	.LASF241
 2558 0cb1 0D       		.byte	0xd
 2559 0cb2 6801     		.2byte	0x168
 2560 0cb4 5A0C0000 		.4byte	0xc5a
 2561 0cb8 08       		.byte	0x8
 2562 0cb9 0C       		.uleb128 0xc
 2563 0cba 63723100 		.ascii	"cr1\000"
 2564 0cbe 0D       		.byte	0xd
 2565 0cbf 6F01     		.2byte	0x16f
 2566 0cc1 CE000000 		.4byte	0xce
 2567 0cc5 0C       		.byte	0xc
 2568 0cc6 0C       		.uleb128 0xc
 2569 0cc7 63723200 		.ascii	"cr2\000"
 2570 0ccb 0D       		.byte	0xd
 2571 0ccc 7601     		.2byte	0x176
 2572 0cce CE000000 		.4byte	0xce
 2573 0cd2 10       		.byte	0x10
 2574 0cd3 16       		.uleb128 0x16
 2575 0cd4 E1050000 		.4byte	.LASF242
 2576 0cd8 0D       		.byte	0xd
 2577 0cd9 7C01     		.2byte	0x17c
 2578 0cdb CE000000 		.4byte	0xce
 2579 0cdf 14       		.byte	0x14
 2580 0ce0 16       		.uleb128 0x16
 2581 0ce1 E7050000 		.4byte	.LASF243
 2582 0ce5 0D       		.byte	0xd
 2583 0ce6 8201     		.2byte	0x182
 2584 0ce8 CE000000 		.4byte	0xce
 2585 0cec 18       		.byte	0x18
 2586 0ced 16       		.uleb128 0x16
 2587 0cee 2A000000 		.4byte	.LASF244
 2588 0cf2 0D       		.byte	0xd
 2589 0cf3 8701     		.2byte	0x187
 2590 0cf5 CE000000 		.4byte	0xce
 2591 0cf9 1C       		.byte	0x1c
 2592 0cfa 16       		.uleb128 0x16
 2593 0cfb 2F000000 		.4byte	.LASF245
 2594 0cff 0D       		.byte	0xd
 2595 0d00 8C01     		.2byte	0x18c
 2596 0d02 CE000000 		.4byte	0xce
 2597 0d06 20       		.byte	0x20
 2598 0d07 16       		.uleb128 0x16
 2599 0d08 FD030000 		.4byte	.LASF246
ARM GAS  /tmp/ccV91MuA.s 			page 47


 2600 0d0c 0D       		.byte	0xd
 2601 0d0d 9101     		.2byte	0x191
 2602 0d0f CE000000 		.4byte	0xce
 2603 0d13 24       		.byte	0x24
 2604 0d14 00       		.byte	0
 2605 0d15 17       		.uleb128 0x17
 2606 0d16 C1050000 		.4byte	.LASF247
 2607 0d1a 0D       		.byte	0xd
 2608 0d1b 9201     		.2byte	0x192
 2609 0d1d 7C0C0000 		.4byte	0xc7c
 2610 0d21 15       		.uleb128 0x15
 2611 0d22 04       		.byte	0x4
 2612 0d23 0D       		.byte	0xd
 2613 0d24 9801     		.2byte	0x198
 2614 0d26 380D0000 		.4byte	0xd38
 2615 0d2a 16       		.uleb128 0x16
 2616 0d2b 2F0B0000 		.4byte	.LASF248
 2617 0d2f 0D       		.byte	0xd
 2618 0d30 9901     		.2byte	0x199
 2619 0d32 CE000000 		.4byte	0xce
 2620 0d36 00       		.byte	0
 2621 0d37 00       		.byte	0
 2622 0d38 17       		.uleb128 0x17
 2623 0d39 C20D0000 		.4byte	.LASF249
 2624 0d3d 0D       		.byte	0xd
 2625 0d3e 9A01     		.2byte	0x19a
 2626 0d40 210D0000 		.4byte	0xd21
 2627 0d44 09       		.uleb128 0x9
 2628 0d45 04       		.byte	0x4
 2629 0d46 4A0D0000 		.4byte	0xd4a
 2630 0d4a 10       		.uleb128 0x10
 2631 0d4b 380D0000 		.4byte	0xd38
 2632 0d4f 09       		.uleb128 0x9
 2633 0d50 04       		.byte	0x4
 2634 0d51 550D0000 		.4byte	0xd55
 2635 0d55 10       		.uleb128 0x10
 2636 0d56 150D0000 		.4byte	0xd15
 2637 0d5a 09       		.uleb128 0x9
 2638 0d5b 04       		.byte	0x4
 2639 0d5c 3B080000 		.4byte	0x83b
 2640 0d60 09       		.uleb128 0x9
 2641 0d61 04       		.byte	0x4
 2642 0d62 660D0000 		.4byte	0xd66
 2643 0d66 10       		.uleb128 0x10
 2644 0d67 ED0A0000 		.4byte	0xaed
 2645 0d6b 1C       		.uleb128 0x1c
 2646 0d6c 8A090000 		.4byte	.LASF250
 2647 0d70 01       		.byte	0x1
 2648 0d71 AB       		.byte	0xab
 2649 0d72 00000000 		.4byte	.LFB113
 2650 0d76 54000000 		.4byte	.LFE113-.LFB113
 2651 0d7a 01       		.uleb128 0x1
 2652 0d7b 9C       		.byte	0x9c
 2653 0d7c BE0D0000 		.4byte	0xdbe
 2654 0d80 1D       		.uleb128 0x1d
 2655 0d81 0E000000 		.4byte	.LVL0
 2656 0d85 7D110000 		.4byte	0x117d
ARM GAS  /tmp/ccV91MuA.s 			page 48


 2657 0d89 940D0000 		.4byte	0xd94
 2658 0d8d 1E       		.uleb128 0x1e
 2659 0d8e 01       		.uleb128 0x1
 2660 0d8f 50       		.byte	0x50
 2661 0d90 02       		.uleb128 0x2
 2662 0d91 75       		.byte	0x75
 2663 0d92 00       		.sleb128 0
 2664 0d93 00       		.byte	0
 2665 0d94 1D       		.uleb128 0x1d
 2666 0d95 1E000000 		.4byte	.LVL1
 2667 0d99 7D110000 		.4byte	0x117d
 2668 0d9d A80D0000 		.4byte	0xda8
 2669 0da1 1E       		.uleb128 0x1e
 2670 0da2 01       		.uleb128 0x1
 2671 0da3 50       		.byte	0x50
 2672 0da4 02       		.uleb128 0x2
 2673 0da5 74       		.byte	0x74
 2674 0da6 00       		.sleb128 0
 2675 0da7 00       		.byte	0
 2676 0da8 1F       		.uleb128 0x1f
 2677 0da9 36000000 		.4byte	.LVL2
 2678 0dad 8F110000 		.4byte	0x118f
 2679 0db1 1E       		.uleb128 0x1e
 2680 0db2 01       		.uleb128 0x1
 2681 0db3 51       		.byte	0x51
 2682 0db4 02       		.uleb128 0x2
 2683 0db5 08       		.byte	0x8
 2684 0db6 60       		.byte	0x60
 2685 0db7 1E       		.uleb128 0x1e
 2686 0db8 01       		.uleb128 0x1
 2687 0db9 50       		.byte	0x50
 2688 0dba 01       		.uleb128 0x1
 2689 0dbb 42       		.byte	0x42
 2690 0dbc 00       		.byte	0
 2691 0dbd 00       		.byte	0
 2692 0dbe 1C       		.uleb128 0x1c
 2693 0dbf 3D000000 		.4byte	.LASF251
 2694 0dc3 01       		.byte	0x1
 2695 0dc4 E0       		.byte	0xe0
 2696 0dc5 00000000 		.4byte	.LFB114
 2697 0dc9 AC000000 		.4byte	.LFE114-.LFB114
 2698 0dcd 01       		.uleb128 0x1
 2699 0dce 9C       		.byte	0x9c
 2700 0dcf 770E0000 		.4byte	0xe77
 2701 0dd3 20       		.uleb128 0x20
 2702 0dd4 9F060000 		.4byte	.LASF253
 2703 0dd8 01       		.byte	0x1
 2704 0dd9 E0       		.byte	0xe0
 2705 0dda 4E0C0000 		.4byte	0xc4e
 2706 0dde 00000000 		.4byte	.LLST0
 2707 0de2 21       		.uleb128 0x21
 2708 0de3 00000000 		.4byte	.Ldebug_ranges0+0
 2709 0de7 2E0E0000 		.4byte	0xe2e
 2710 0deb 22       		.uleb128 0x22
 2711 0dec 6200     		.ascii	"b\000"
 2712 0dee 01       		.byte	0x1
 2713 0def E6       		.byte	0xe6
ARM GAS  /tmp/ccV91MuA.s 			page 49


 2714 0df0 E4000000 		.4byte	0xe4
 2715 0df4 58000000 		.4byte	.LLST1
 2716 0df8 1D       		.uleb128 0x1d
 2717 0df9 40000000 		.4byte	.LVL8
 2718 0dfd A6110000 		.4byte	0x11a6
 2719 0e01 1A0E0000 		.4byte	0xe1a
 2720 0e05 1E       		.uleb128 0x1e
 2721 0e06 01       		.uleb128 0x1
 2722 0e07 53       		.byte	0x53
 2723 0e08 02       		.uleb128 0x2
 2724 0e09 74       		.byte	0x74
 2725 0e0a 00       		.sleb128 0
 2726 0e0b 1E       		.uleb128 0x1e
 2727 0e0c 01       		.uleb128 0x1
 2728 0e0d 52       		.byte	0x52
 2729 0e0e 05       		.uleb128 0x5
 2730 0e0f 03       		.byte	0x3
 2731 0e10 00000000 		.4byte	adc_lld_serve_rx_interrupt
 2732 0e14 1E       		.uleb128 0x1e
 2733 0e15 01       		.uleb128 0x1
 2734 0e16 51       		.byte	0x51
 2735 0e17 01       		.uleb128 0x1
 2736 0e18 36       		.byte	0x36
 2737 0e19 00       		.byte	0
 2738 0e1a 23       		.uleb128 0x23
 2739 0e1b 7E000000 		.4byte	.LVL16
 2740 0e1f CB110000 		.4byte	0x11cb
 2741 0e23 1E       		.uleb128 0x1e
 2742 0e24 01       		.uleb128 0x1
 2743 0e25 50       		.byte	0x50
 2744 0e26 05       		.uleb128 0x5
 2745 0e27 03       		.byte	0x3
 2746 0e28 00000000 		.4byte	.LC0
 2747 0e2c 00       		.byte	0
 2748 0e2d 00       		.byte	0
 2749 0e2e 24       		.uleb128 0x24
 2750 0e2f 18000000 		.4byte	.Ldebug_ranges0+0x18
 2751 0e33 22       		.uleb128 0x22
 2752 0e34 6200     		.ascii	"b\000"
 2753 0e36 01       		.byte	0x1
 2754 0e37 F3       		.byte	0xf3
 2755 0e38 E4000000 		.4byte	0xe4
 2756 0e3c 76000000 		.4byte	.LLST2
 2757 0e40 1D       		.uleb128 0x1d
 2758 0e41 62000000 		.4byte	.LVL12
 2759 0e45 A6110000 		.4byte	0x11a6
 2760 0e49 620E0000 		.4byte	0xe62
 2761 0e4d 1E       		.uleb128 0x1e
 2762 0e4e 01       		.uleb128 0x1
 2763 0e4f 53       		.byte	0x53
 2764 0e50 02       		.uleb128 0x2
 2765 0e51 74       		.byte	0x74
 2766 0e52 00       		.sleb128 0
 2767 0e53 1E       		.uleb128 0x1e
 2768 0e54 01       		.uleb128 0x1
 2769 0e55 52       		.byte	0x52
 2770 0e56 05       		.uleb128 0x5
ARM GAS  /tmp/ccV91MuA.s 			page 50


 2771 0e57 03       		.byte	0x3
 2772 0e58 00000000 		.4byte	adc_lld_serve_rx_interrupt
 2773 0e5c 1E       		.uleb128 0x1e
 2774 0e5d 01       		.uleb128 0x1
 2775 0e5e 51       		.byte	0x51
 2776 0e5f 01       		.uleb128 0x1
 2777 0e60 36       		.byte	0x36
 2778 0e61 00       		.byte	0
 2779 0e62 23       		.uleb128 0x23
 2780 0e63 86000000 		.4byte	.LVL19
 2781 0e67 CB110000 		.4byte	0x11cb
 2782 0e6b 1E       		.uleb128 0x1e
 2783 0e6c 01       		.uleb128 0x1
 2784 0e6d 50       		.byte	0x50
 2785 0e6e 05       		.uleb128 0x5
 2786 0e6f 03       		.byte	0x3
 2787 0e70 14000000 		.4byte	.LC1
 2788 0e74 00       		.byte	0
 2789 0e75 00       		.byte	0
 2790 0e76 00       		.byte	0
 2791 0e77 25       		.uleb128 0x25
 2792 0e78 2C020000 		.4byte	.LASF252
 2793 0e7c 01       		.byte	0x1
 2794 0e7d 1F01     		.2byte	0x11f
 2795 0e7f 00000000 		.4byte	.LFB115
 2796 0e83 4C000000 		.4byte	.LFE115-.LFB115
 2797 0e87 01       		.uleb128 0x1
 2798 0e88 9C       		.byte	0x9c
 2799 0e89 A70E0000 		.4byte	0xea7
 2800 0e8d 26       		.uleb128 0x26
 2801 0e8e 9F060000 		.4byte	.LASF253
 2802 0e92 01       		.byte	0x1
 2803 0e93 1F01     		.2byte	0x11f
 2804 0e95 4E0C0000 		.4byte	0xc4e
 2805 0e99 94000000 		.4byte	.LLST3
 2806 0e9d 27       		.uleb128 0x27
 2807 0e9e 12000000 		.4byte	.LVL24
 2808 0ea2 DC110000 		.4byte	0x11dc
 2809 0ea6 00       		.byte	0
 2810 0ea7 25       		.uleb128 0x25
 2811 0ea8 ED050000 		.4byte	.LASF254
 2812 0eac 01       		.byte	0x1
 2813 0ead 3F01     		.2byte	0x13f
 2814 0eaf 00000000 		.4byte	.LFB116
 2815 0eb3 84000000 		.4byte	.LFE116-.LFB116
 2816 0eb7 01       		.uleb128 0x1
 2817 0eb8 9C       		.byte	0x9c
 2818 0eb9 EE0E0000 		.4byte	0xeee
 2819 0ebd 26       		.uleb128 0x26
 2820 0ebe 9F060000 		.4byte	.LASF253
 2821 0ec2 01       		.byte	0x1
 2822 0ec3 3F01     		.2byte	0x13f
 2823 0ec5 4E0C0000 		.4byte	0xc4e
 2824 0ec9 D6000000 		.4byte	.LLST4
 2825 0ecd 28       		.uleb128 0x28
 2826 0ece C20B0000 		.4byte	.LASF255
 2827 0ed2 01       		.byte	0x1
ARM GAS  /tmp/ccV91MuA.s 			page 51


 2828 0ed3 4001     		.2byte	0x140
 2829 0ed5 CE000000 		.4byte	0xce
 2830 0ed9 F7000000 		.4byte	.LLST5
 2831 0edd 28       		.uleb128 0x28
 2832 0ede 770B0000 		.4byte	.LASF231
 2833 0ee2 01       		.byte	0x1
 2834 0ee3 4101     		.2byte	0x141
 2835 0ee5 4F0D0000 		.4byte	0xd4f
 2836 0ee9 44010000 		.4byte	.LLST6
 2837 0eed 00       		.byte	0
 2838 0eee 25       		.uleb128 0x25
 2839 0eef 55080000 		.4byte	.LASF256
 2840 0ef3 01       		.byte	0x1
 2841 0ef4 6D01     		.2byte	0x16d
 2842 0ef6 00000000 		.4byte	.LFB117
 2843 0efa 32000000 		.4byte	.LFE117-.LFB117
 2844 0efe 01       		.uleb128 0x1
 2845 0eff 9C       		.byte	0x9c
 2846 0f00 150F0000 		.4byte	0xf15
 2847 0f04 26       		.uleb128 0x26
 2848 0f05 9F060000 		.4byte	.LASF253
 2849 0f09 01       		.byte	0x1
 2850 0f0a 6D01     		.2byte	0x16d
 2851 0f0c 4E0C0000 		.4byte	0xc4e
 2852 0f10 66010000 		.4byte	.LLST7
 2853 0f14 00       		.byte	0
 2854 0f15 1C       		.uleb128 0x1c
 2855 0f16 F8010000 		.4byte	.LASF257
 2856 0f1a 01       		.byte	0x1
 2857 0f1b 6F       		.byte	0x6f
 2858 0f1c 00000000 		.4byte	.LFB112
 2859 0f20 D0000000 		.4byte	.LFE112-.LFB112
 2860 0f24 01       		.uleb128 0x1
 2861 0f25 9C       		.byte	0x9c
 2862 0f26 DA0F0000 		.4byte	0xfda
 2863 0f2a 22       		.uleb128 0x22
 2864 0f2b 737200   		.ascii	"sr\000"
 2865 0f2e 01       		.byte	0x1
 2866 0f2f 70       		.byte	0x70
 2867 0f30 CE000000 		.4byte	0xce
 2868 0f34 87010000 		.4byte	.LLST8
 2869 0f38 29       		.uleb128 0x29
 2870 0f39 62000000 		.4byte	.LBB6
 2871 0f3d 0C000000 		.4byte	.LBE6-.LBB6
 2872 0f41 5D0F0000 		.4byte	0xf5d
 2873 0f45 22       		.uleb128 0x22
 2874 0f46 747000   		.ascii	"tp\000"
 2875 0f49 01       		.byte	0x1
 2876 0f4a 8B       		.byte	0x8b
 2877 0f4b 83020000 		.4byte	0x283
 2878 0f4f A5010000 		.4byte	.LLST9
 2879 0f53 27       		.uleb128 0x27
 2880 0f54 6E000000 		.4byte	.LVL44
 2881 0f58 EE110000 		.4byte	0x11ee
 2882 0f5c 00       		.byte	0
 2883 0f5d 29       		.uleb128 0x29
 2884 0f5e AE000000 		.4byte	.LBB7
ARM GAS  /tmp/ccV91MuA.s 			page 52


 2885 0f62 0C000000 		.4byte	.LBE7-.LBB7
 2886 0f66 820F0000 		.4byte	0xf82
 2887 0f6a 22       		.uleb128 0x22
 2888 0f6b 747000   		.ascii	"tp\000"
 2889 0f6e 01       		.byte	0x1
 2890 0f6f 7D       		.byte	0x7d
 2891 0f70 83020000 		.4byte	0x283
 2892 0f74 B8010000 		.4byte	.LLST10
 2893 0f78 27       		.uleb128 0x27
 2894 0f79 BA000000 		.4byte	.LVL49
 2895 0f7d EE110000 		.4byte	0x11ee
 2896 0f81 00       		.byte	0
 2897 0f82 1D       		.uleb128 0x1d
 2898 0f83 3A000000 		.4byte	.LVL41
 2899 0f87 EE0E0000 		.4byte	0xeee
 2900 0f8b 960F0000 		.4byte	0xf96
 2901 0f8f 1E       		.uleb128 0x1e
 2902 0f90 01       		.uleb128 0x1
 2903 0f91 50       		.byte	0x50
 2904 0f92 02       		.uleb128 0x2
 2905 0f93 74       		.byte	0x74
 2906 0f94 00       		.sleb128 0
 2907 0f95 00       		.byte	0
 2908 0f96 2A       		.uleb128 0x2a
 2909 0f97 4A000000 		.4byte	.LVL42
 2910 0f9b AB0F0000 		.4byte	0xfab
 2911 0f9f 1E       		.uleb128 0x1e
 2912 0fa0 01       		.uleb128 0x1
 2913 0fa1 51       		.byte	0x51
 2914 0fa2 01       		.uleb128 0x1
 2915 0fa3 31       		.byte	0x31
 2916 0fa4 1E       		.uleb128 0x1e
 2917 0fa5 01       		.uleb128 0x1
 2918 0fa6 50       		.byte	0x50
 2919 0fa7 02       		.uleb128 0x2
 2920 0fa8 74       		.byte	0x74
 2921 0fa9 00       		.sleb128 0
 2922 0faa 00       		.byte	0
 2923 0fab 2B       		.uleb128 0x2b
 2924 0fac 7A000000 		.4byte	.LVL45
 2925 0fb0 03120000 		.4byte	0x1203
 2926 0fb4 1D       		.uleb128 0x1d
 2927 0fb5 86000000 		.4byte	.LVL46
 2928 0fb9 EE0E0000 		.4byte	0xeee
 2929 0fbd C80F0000 		.4byte	0xfc8
 2930 0fc1 1E       		.uleb128 0x1e
 2931 0fc2 01       		.uleb128 0x1
 2932 0fc3 50       		.byte	0x50
 2933 0fc4 02       		.uleb128 0x2
 2934 0fc5 74       		.byte	0x74
 2935 0fc6 00       		.sleb128 0
 2936 0fc7 00       		.byte	0
 2937 0fc8 2C       		.uleb128 0x2c
 2938 0fc9 96000000 		.4byte	.LVL47
 2939 0fcd 1E       		.uleb128 0x1e
 2940 0fce 01       		.uleb128 0x1
 2941 0fcf 51       		.byte	0x51
ARM GAS  /tmp/ccV91MuA.s 			page 53


 2942 0fd0 01       		.uleb128 0x1
 2943 0fd1 31       		.byte	0x31
 2944 0fd2 1E       		.uleb128 0x1e
 2945 0fd3 01       		.uleb128 0x1
 2946 0fd4 50       		.byte	0x50
 2947 0fd5 02       		.uleb128 0x2
 2948 0fd6 74       		.byte	0x74
 2949 0fd7 00       		.sleb128 0
 2950 0fd8 00       		.byte	0
 2951 0fd9 00       		.byte	0
 2952 0fda 2D       		.uleb128 0x2d
 2953 0fdb BD0C0000 		.4byte	.LASF279
 2954 0fdf 01       		.byte	0x1
 2955 0fe0 4C       		.byte	0x4c
 2956 0fe1 00000000 		.4byte	.LFB111
 2957 0fe5 CE000000 		.4byte	.LFE111-.LFB111
 2958 0fe9 01       		.uleb128 0x1
 2959 0fea 9C       		.byte	0x9c
 2960 0feb E6100000 		.4byte	0x10e6
 2961 0fef 20       		.uleb128 0x20
 2962 0ff0 9F060000 		.4byte	.LASF253
 2963 0ff4 01       		.byte	0x1
 2964 0ff5 4C       		.byte	0x4c
 2965 0ff6 4E0C0000 		.4byte	0xc4e
 2966 0ffa CB010000 		.4byte	.LLST11
 2967 0ffe 20       		.uleb128 0x20
 2968 0fff 78030000 		.4byte	.LASF258
 2969 1003 01       		.byte	0x1
 2970 1004 4C       		.byte	0x4c
 2971 1005 CE000000 		.4byte	0xce
 2972 1009 41020000 		.4byte	.LLST12
 2973 100d 29       		.uleb128 0x29
 2974 100e 22000000 		.4byte	.LBB8
 2975 1012 10000000 		.4byte	.LBE8-.LBB8
 2976 1016 48100000 		.4byte	0x1048
 2977 101a 2E       		.uleb128 0x2e
 2978 101b C6090000 		.4byte	.LASF259
 2979 101f 01       		.byte	0x1
 2980 1020 5A       		.byte	0x5a
 2981 1021 2C000000 		.4byte	0x2c
 2982 1025 C6020000 		.4byte	.LLST13
 2983 1029 2E       		.uleb128 0x2e
 2984 102a 6A090000 		.4byte	.LASF260
 2985 102e 01       		.byte	0x1
 2986 102f 5A       		.byte	0x5a
 2987 1030 2C000000 		.4byte	0x2c
 2988 1034 D9020000 		.4byte	.LLST14
 2989 1038 2F       		.uleb128 0x2f
 2990 1039 32000000 		.4byte	.LVL53
 2991 103d 02       		.uleb128 0x2
 2992 103e 75       		.byte	0x75
 2993 103f 00       		.sleb128 0
 2994 1040 1E       		.uleb128 0x1e
 2995 1041 01       		.uleb128 0x1
 2996 1042 50       		.byte	0x50
 2997 1043 02       		.uleb128 0x2
 2998 1044 74       		.byte	0x74
ARM GAS  /tmp/ccV91MuA.s 			page 54


 2999 1045 00       		.sleb128 0
 3000 1046 00       		.byte	0
 3001 1047 00       		.byte	0
 3002 1048 29       		.uleb128 0x29
 3003 1049 70000000 		.4byte	.LBB9
 3004 104d 0E000000 		.4byte	.LBE9-.LBB9
 3005 1051 6D100000 		.4byte	0x106d
 3006 1055 22       		.uleb128 0x22
 3007 1056 747000   		.ascii	"tp\000"
 3008 1059 01       		.byte	0x1
 3009 105a 52       		.byte	0x52
 3010 105b 83020000 		.4byte	0x283
 3011 105f FA020000 		.4byte	.LLST15
 3012 1063 27       		.uleb128 0x27
 3013 1064 7E000000 		.4byte	.LVL61
 3014 1068 EE110000 		.4byte	0x11ee
 3015 106c 00       		.byte	0
 3016 106d 29       		.uleb128 0x29
 3017 106e B0000000 		.4byte	.LBB10
 3018 1072 0E000000 		.4byte	.LBE10-.LBB10
 3019 1076 92100000 		.4byte	0x1092
 3020 107a 22       		.uleb128 0x22
 3021 107b 747000   		.ascii	"tp\000"
 3022 107e 01       		.byte	0x1
 3023 107f 5A       		.byte	0x5a
 3024 1080 83020000 		.4byte	0x283
 3025 1084 0D030000 		.4byte	.LLST16
 3026 1088 27       		.uleb128 0x27
 3027 1089 BC000000 		.4byte	.LVL69
 3028 108d EE110000 		.4byte	0x11ee
 3029 1091 00       		.byte	0
 3030 1092 2A       		.uleb128 0x2a
 3031 1093 44000000 		.4byte	.LVL56
 3032 1097 A2100000 		.4byte	0x10a2
 3033 109b 1E       		.uleb128 0x1e
 3034 109c 01       		.uleb128 0x1
 3035 109d 50       		.byte	0x50
 3036 109e 02       		.uleb128 0x2
 3037 109f 74       		.byte	0x74
 3038 10a0 00       		.sleb128 0
 3039 10a1 00       		.byte	0
 3040 10a2 27       		.uleb128 0x27
 3041 10a3 4A000000 		.4byte	.LVL58
 3042 10a7 EE0E0000 		.4byte	0xeee
 3043 10ab 2A       		.uleb128 0x2a
 3044 10ac 5A000000 		.4byte	.LVL59
 3045 10b0 C0100000 		.4byte	0x10c0
 3046 10b4 1E       		.uleb128 0x1e
 3047 10b5 01       		.uleb128 0x1
 3048 10b6 51       		.byte	0x51
 3049 10b7 01       		.uleb128 0x1
 3050 10b8 30       		.byte	0x30
 3051 10b9 1E       		.uleb128 0x1e
 3052 10ba 01       		.uleb128 0x1
 3053 10bb 50       		.byte	0x50
 3054 10bc 02       		.uleb128 0x2
 3055 10bd 74       		.byte	0x74
ARM GAS  /tmp/ccV91MuA.s 			page 55


 3056 10be 00       		.sleb128 0
 3057 10bf 00       		.byte	0
 3058 10c0 2A       		.uleb128 0x2a
 3059 10c1 88000000 		.4byte	.LVL64
 3060 10c5 D0100000 		.4byte	0x10d0
 3061 10c9 1E       		.uleb128 0x1e
 3062 10ca 01       		.uleb128 0x1
 3063 10cb 50       		.byte	0x50
 3064 10cc 02       		.uleb128 0x2
 3065 10cd 74       		.byte	0x74
 3066 10ce 00       		.sleb128 0
 3067 10cf 00       		.byte	0
 3068 10d0 27       		.uleb128 0x27
 3069 10d1 8E000000 		.4byte	.LVL66
 3070 10d5 EE0E0000 		.4byte	0xeee
 3071 10d9 2C       		.uleb128 0x2c
 3072 10da A0000000 		.4byte	.LVL67
 3073 10de 1E       		.uleb128 0x1e
 3074 10df 01       		.uleb128 0x1
 3075 10e0 50       		.byte	0x50
 3076 10e1 02       		.uleb128 0x2
 3077 10e2 74       		.byte	0x74
 3078 10e3 00       		.sleb128 0
 3079 10e4 00       		.byte	0
 3080 10e5 00       		.byte	0
 3081 10e6 30       		.uleb128 0x30
 3082 10e7 6C020000 		.4byte	.LASF261
 3083 10eb 01       		.byte	0x1
 3084 10ec 7B01     		.2byte	0x17b
 3085 10ee 00000000 		.4byte	.LFB118
 3086 10f2 10000000 		.4byte	.LFE118-.LFB118
 3087 10f6 01       		.uleb128 0x1
 3088 10f7 9C       		.byte	0x9c
 3089 10f8 30       		.uleb128 0x30
 3090 10f9 8B0D0000 		.4byte	.LASF262
 3091 10fd 01       		.byte	0x1
 3092 10fe 8601     		.2byte	0x186
 3093 1100 00000000 		.4byte	.LFB119
 3094 1104 10000000 		.4byte	.LFE119-.LFB119
 3095 1108 01       		.uleb128 0x1
 3096 1109 9C       		.byte	0x9c
 3097 110a 30       		.uleb128 0x30
 3098 110b D5090000 		.4byte	.LASF263
 3099 110f 01       		.byte	0x1
 3100 1110 9101     		.2byte	0x191
 3101 1112 00000000 		.4byte	.LFB120
 3102 1116 10000000 		.4byte	.LFE120-.LFB120
 3103 111a 01       		.uleb128 0x1
 3104 111b 9C       		.byte	0x9c
 3105 111c 30       		.uleb128 0x30
 3106 111d 21010000 		.4byte	.LASF264
 3107 1121 01       		.byte	0x1
 3108 1122 9C01     		.2byte	0x19c
 3109 1124 00000000 		.4byte	.LFB121
 3110 1128 10000000 		.4byte	.LFE121-.LFB121
 3111 112c 01       		.uleb128 0x1
 3112 112d 9C       		.byte	0x9c
ARM GAS  /tmp/ccV91MuA.s 			page 56


 3113 112e 31       		.uleb128 0x31
 3114 112f 340C0000 		.4byte	.LASF265
 3115 1133 0E       		.byte	0xe
 3116 1134 9806     		.2byte	0x698
 3117 1136 2A070000 		.4byte	0x72a
 3118 113a 13       		.uleb128 0x13
 3119 113b ED0A0000 		.4byte	0xaed
 3120 113f 4A110000 		.4byte	0x114a
 3121 1143 14       		.uleb128 0x14
 3122 1144 3E040000 		.4byte	0x43e
 3123 1148 0F       		.byte	0xf
 3124 1149 00       		.byte	0
 3125 114a 31       		.uleb128 0x31
 3126 114b 70050000 		.4byte	.LASF266
 3127 114f 0B       		.byte	0xb
 3128 1150 BB01     		.2byte	0x1bb
 3129 1152 56110000 		.4byte	0x1156
 3130 1156 10       		.uleb128 0x10
 3131 1157 3A110000 		.4byte	0x113a
 3132 115b 32       		.uleb128 0x32
 3133 115c 0E080000 		.4byte	.LASF267
 3134 1160 01       		.byte	0x1
 3135 1161 31       		.byte	0x31
 3136 1162 8B0B0000 		.4byte	0xb8b
 3137 1166 05       		.uleb128 0x5
 3138 1167 03       		.byte	0x3
 3139 1168 00000000 		.4byte	ADCD1
 3140 116c 32       		.uleb128 0x32
 3141 116d 14080000 		.4byte	.LASF268
 3142 1171 01       		.byte	0x1
 3143 1172 36       		.byte	0x36
 3144 1173 8B0B0000 		.4byte	0xb8b
 3145 1177 05       		.uleb128 0x5
 3146 1178 03       		.byte	0x3
 3147 1179 00000000 		.4byte	ADCD2
 3148 117d 33       		.uleb128 0x33
 3149 117e F80B0000 		.4byte	.LASF269
 3150 1182 0C       		.byte	0xc
 3151 1183 1D01     		.2byte	0x11d
 3152 1185 8F110000 		.4byte	0x118f
 3153 1189 19       		.uleb128 0x19
 3154 118a 4E0C0000 		.4byte	0xc4e
 3155 118e 00       		.byte	0
 3156 118f 33       		.uleb128 0x33
 3157 1190 700C0000 		.4byte	.LASF270
 3158 1194 0F       		.byte	0xf
 3159 1195 2301     		.2byte	0x123
 3160 1197 A6110000 		.4byte	0x11a6
 3161 119b 19       		.uleb128 0x19
 3162 119c CE000000 		.4byte	0xce
 3163 11a0 19       		.uleb128 0x19
 3164 11a1 CE000000 		.4byte	0xce
 3165 11a5 00       		.byte	0
 3166 11a6 34       		.uleb128 0x34
 3167 11a7 28040000 		.4byte	.LASF273
 3168 11ab 0B       		.byte	0xb
 3169 11ac C201     		.2byte	0x1c2
ARM GAS  /tmp/ccV91MuA.s 			page 57


 3170 11ae E4000000 		.4byte	0xe4
 3171 11b2 CB110000 		.4byte	0x11cb
 3172 11b6 19       		.uleb128 0x19
 3173 11b7 600D0000 		.4byte	0xd60
 3174 11bb 19       		.uleb128 0x19
 3175 11bc CE000000 		.4byte	0xce
 3176 11c0 19       		.uleb128 0x19
 3177 11c1 F80A0000 		.4byte	0xaf8
 3178 11c5 19       		.uleb128 0x19
 3179 11c6 BF020000 		.4byte	0x2bf
 3180 11ca 00       		.byte	0
 3181 11cb 35       		.uleb128 0x35
 3182 11cc 18030000 		.4byte	.LASF271
 3183 11d0 10       		.byte	0x10
 3184 11d1 F6       		.byte	0xf6
 3185 11d2 DC110000 		.4byte	0x11dc
 3186 11d6 19       		.uleb128 0x19
 3187 11d7 C1040000 		.4byte	0x4c1
 3188 11db 00       		.byte	0
 3189 11dc 33       		.uleb128 0x33
 3190 11dd A9000000 		.4byte	.LASF272
 3191 11e1 0B       		.byte	0xb
 3192 11e2 C601     		.2byte	0x1c6
 3193 11e4 EE110000 		.4byte	0x11ee
 3194 11e8 19       		.uleb128 0x19
 3195 11e9 600D0000 		.4byte	0xd60
 3196 11ed 00       		.byte	0
 3197 11ee 36       		.uleb128 0x36
 3198 11ef CD000000 		.4byte	.LASF274
 3199 11f3 11       		.byte	0x11
 3200 11f4 90       		.byte	0x90
 3201 11f5 83020000 		.4byte	0x283
 3202 11f9 03120000 		.4byte	0x1203
 3203 11fd 19       		.uleb128 0x19
 3204 11fe 83020000 		.4byte	0x283
 3205 1202 00       		.byte	0
 3206 1203 37       		.uleb128 0x37
 3207 1204 EF070000 		.4byte	.LASF280
 3208 1208 08       		.byte	0x8
 3209 1209 0302     		.2byte	0x203
 3210 120b 00       		.byte	0
 3211              		.section	.debug_abbrev,"",%progbits
 3212              	.Ldebug_abbrev0:
 3213 0000 01       		.uleb128 0x1
 3214 0001 11       		.uleb128 0x11
 3215 0002 01       		.byte	0x1
 3216 0003 25       		.uleb128 0x25
 3217 0004 0E       		.uleb128 0xe
 3218 0005 13       		.uleb128 0x13
 3219 0006 0B       		.uleb128 0xb
 3220 0007 03       		.uleb128 0x3
 3221 0008 0E       		.uleb128 0xe
 3222 0009 1B       		.uleb128 0x1b
 3223 000a 0E       		.uleb128 0xe
 3224 000b 55       		.uleb128 0x55
 3225 000c 17       		.uleb128 0x17
 3226 000d 11       		.uleb128 0x11
ARM GAS  /tmp/ccV91MuA.s 			page 58


 3227 000e 01       		.uleb128 0x1
 3228 000f 10       		.uleb128 0x10
 3229 0010 17       		.uleb128 0x17
 3230 0011 00       		.byte	0
 3231 0012 00       		.byte	0
 3232 0013 02       		.uleb128 0x2
 3233 0014 24       		.uleb128 0x24
 3234 0015 00       		.byte	0
 3235 0016 0B       		.uleb128 0xb
 3236 0017 0B       		.uleb128 0xb
 3237 0018 3E       		.uleb128 0x3e
 3238 0019 0B       		.uleb128 0xb
 3239 001a 03       		.uleb128 0x3
 3240 001b 08       		.uleb128 0x8
 3241 001c 00       		.byte	0
 3242 001d 00       		.byte	0
 3243 001e 03       		.uleb128 0x3
 3244 001f 16       		.uleb128 0x16
 3245 0020 00       		.byte	0
 3246 0021 03       		.uleb128 0x3
 3247 0022 0E       		.uleb128 0xe
 3248 0023 3A       		.uleb128 0x3a
 3249 0024 0B       		.uleb128 0xb
 3250 0025 3B       		.uleb128 0x3b
 3251 0026 0B       		.uleb128 0xb
 3252 0027 49       		.uleb128 0x49
 3253 0028 13       		.uleb128 0x13
 3254 0029 00       		.byte	0
 3255 002a 00       		.byte	0
 3256 002b 04       		.uleb128 0x4
 3257 002c 24       		.uleb128 0x24
 3258 002d 00       		.byte	0
 3259 002e 0B       		.uleb128 0xb
 3260 002f 0B       		.uleb128 0xb
 3261 0030 3E       		.uleb128 0x3e
 3262 0031 0B       		.uleb128 0xb
 3263 0032 03       		.uleb128 0x3
 3264 0033 0E       		.uleb128 0xe
 3265 0034 00       		.byte	0
 3266 0035 00       		.byte	0
 3267 0036 05       		.uleb128 0x5
 3268 0037 13       		.uleb128 0x13
 3269 0038 01       		.byte	0x1
 3270 0039 03       		.uleb128 0x3
 3271 003a 0E       		.uleb128 0xe
 3272 003b 0B       		.uleb128 0xb
 3273 003c 0B       		.uleb128 0xb
 3274 003d 3A       		.uleb128 0x3a
 3275 003e 0B       		.uleb128 0xb
 3276 003f 3B       		.uleb128 0x3b
 3277 0040 0B       		.uleb128 0xb
 3278 0041 01       		.uleb128 0x1
 3279 0042 13       		.uleb128 0x13
 3280 0043 00       		.byte	0
 3281 0044 00       		.byte	0
 3282 0045 06       		.uleb128 0x6
 3283 0046 0D       		.uleb128 0xd
ARM GAS  /tmp/ccV91MuA.s 			page 59


 3284 0047 00       		.byte	0
 3285 0048 03       		.uleb128 0x3
 3286 0049 0E       		.uleb128 0xe
 3287 004a 3A       		.uleb128 0x3a
 3288 004b 0B       		.uleb128 0xb
 3289 004c 3B       		.uleb128 0x3b
 3290 004d 0B       		.uleb128 0xb
 3291 004e 49       		.uleb128 0x49
 3292 004f 13       		.uleb128 0x13
 3293 0050 38       		.uleb128 0x38
 3294 0051 0B       		.uleb128 0xb
 3295 0052 00       		.byte	0
 3296 0053 00       		.byte	0
 3297 0054 07       		.uleb128 0x7
 3298 0055 0D       		.uleb128 0xd
 3299 0056 00       		.byte	0
 3300 0057 03       		.uleb128 0x3
 3301 0058 08       		.uleb128 0x8
 3302 0059 3A       		.uleb128 0x3a
 3303 005a 0B       		.uleb128 0xb
 3304 005b 3B       		.uleb128 0x3b
 3305 005c 0B       		.uleb128 0xb
 3306 005d 49       		.uleb128 0x49
 3307 005e 13       		.uleb128 0x13
 3308 005f 38       		.uleb128 0x38
 3309 0060 0B       		.uleb128 0xb
 3310 0061 00       		.byte	0
 3311 0062 00       		.byte	0
 3312 0063 08       		.uleb128 0x8
 3313 0064 13       		.uleb128 0x13
 3314 0065 01       		.byte	0x1
 3315 0066 0B       		.uleb128 0xb
 3316 0067 0B       		.uleb128 0xb
 3317 0068 3A       		.uleb128 0x3a
 3318 0069 0B       		.uleb128 0xb
 3319 006a 3B       		.uleb128 0x3b
 3320 006b 0B       		.uleb128 0xb
 3321 006c 01       		.uleb128 0x1
 3322 006d 13       		.uleb128 0x13
 3323 006e 00       		.byte	0
 3324 006f 00       		.byte	0
 3325 0070 09       		.uleb128 0x9
 3326 0071 0F       		.uleb128 0xf
 3327 0072 00       		.byte	0
 3328 0073 0B       		.uleb128 0xb
 3329 0074 0B       		.uleb128 0xb
 3330 0075 49       		.uleb128 0x49
 3331 0076 13       		.uleb128 0x13
 3332 0077 00       		.byte	0
 3333 0078 00       		.byte	0
 3334 0079 0A       		.uleb128 0xa
 3335 007a 0F       		.uleb128 0xf
 3336 007b 00       		.byte	0
 3337 007c 0B       		.uleb128 0xb
 3338 007d 0B       		.uleb128 0xb
 3339 007e 00       		.byte	0
 3340 007f 00       		.byte	0
ARM GAS  /tmp/ccV91MuA.s 			page 60


 3341 0080 0B       		.uleb128 0xb
 3342 0081 13       		.uleb128 0x13
 3343 0082 01       		.byte	0x1
 3344 0083 03       		.uleb128 0x3
 3345 0084 0E       		.uleb128 0xe
 3346 0085 0B       		.uleb128 0xb
 3347 0086 0B       		.uleb128 0xb
 3348 0087 3A       		.uleb128 0x3a
 3349 0088 0B       		.uleb128 0xb
 3350 0089 3B       		.uleb128 0x3b
 3351 008a 05       		.uleb128 0x5
 3352 008b 01       		.uleb128 0x1
 3353 008c 13       		.uleb128 0x13
 3354 008d 00       		.byte	0
 3355 008e 00       		.byte	0
 3356 008f 0C       		.uleb128 0xc
 3357 0090 0D       		.uleb128 0xd
 3358 0091 00       		.byte	0
 3359 0092 03       		.uleb128 0x3
 3360 0093 08       		.uleb128 0x8
 3361 0094 3A       		.uleb128 0x3a
 3362 0095 0B       		.uleb128 0xb
 3363 0096 3B       		.uleb128 0x3b
 3364 0097 05       		.uleb128 0x5
 3365 0098 49       		.uleb128 0x49
 3366 0099 13       		.uleb128 0x13
 3367 009a 38       		.uleb128 0x38
 3368 009b 0B       		.uleb128 0xb
 3369 009c 00       		.byte	0
 3370 009d 00       		.byte	0
 3371 009e 0D       		.uleb128 0xd
 3372 009f 35       		.uleb128 0x35
 3373 00a0 00       		.byte	0
 3374 00a1 49       		.uleb128 0x49
 3375 00a2 13       		.uleb128 0x13
 3376 00a3 00       		.byte	0
 3377 00a4 00       		.byte	0
 3378 00a5 0E       		.uleb128 0xe
 3379 00a6 17       		.uleb128 0x17
 3380 00a7 01       		.byte	0x1
 3381 00a8 0B       		.uleb128 0xb
 3382 00a9 0B       		.uleb128 0xb
 3383 00aa 3A       		.uleb128 0x3a
 3384 00ab 0B       		.uleb128 0xb
 3385 00ac 3B       		.uleb128 0x3b
 3386 00ad 0B       		.uleb128 0xb
 3387 00ae 01       		.uleb128 0x1
 3388 00af 13       		.uleb128 0x13
 3389 00b0 00       		.byte	0
 3390 00b1 00       		.byte	0
 3391 00b2 0F       		.uleb128 0xf
 3392 00b3 0D       		.uleb128 0xd
 3393 00b4 00       		.byte	0
 3394 00b5 03       		.uleb128 0x3
 3395 00b6 0E       		.uleb128 0xe
 3396 00b7 3A       		.uleb128 0x3a
 3397 00b8 0B       		.uleb128 0xb
ARM GAS  /tmp/ccV91MuA.s 			page 61


 3398 00b9 3B       		.uleb128 0x3b
 3399 00ba 0B       		.uleb128 0xb
 3400 00bb 49       		.uleb128 0x49
 3401 00bc 13       		.uleb128 0x13
 3402 00bd 00       		.byte	0
 3403 00be 00       		.byte	0
 3404 00bf 10       		.uleb128 0x10
 3405 00c0 26       		.uleb128 0x26
 3406 00c1 00       		.byte	0
 3407 00c2 49       		.uleb128 0x49
 3408 00c3 13       		.uleb128 0x13
 3409 00c4 00       		.byte	0
 3410 00c5 00       		.byte	0
 3411 00c6 11       		.uleb128 0x11
 3412 00c7 04       		.uleb128 0x4
 3413 00c8 01       		.byte	0x1
 3414 00c9 03       		.uleb128 0x3
 3415 00ca 0E       		.uleb128 0xe
 3416 00cb 0B       		.uleb128 0xb
 3417 00cc 0B       		.uleb128 0xb
 3418 00cd 3A       		.uleb128 0x3a
 3419 00ce 0B       		.uleb128 0xb
 3420 00cf 3B       		.uleb128 0x3b
 3421 00d0 0B       		.uleb128 0xb
 3422 00d1 01       		.uleb128 0x1
 3423 00d2 13       		.uleb128 0x13
 3424 00d3 00       		.byte	0
 3425 00d4 00       		.byte	0
 3426 00d5 12       		.uleb128 0x12
 3427 00d6 28       		.uleb128 0x28
 3428 00d7 00       		.byte	0
 3429 00d8 03       		.uleb128 0x3
 3430 00d9 0E       		.uleb128 0xe
 3431 00da 1C       		.uleb128 0x1c
 3432 00db 0D       		.uleb128 0xd
 3433 00dc 00       		.byte	0
 3434 00dd 00       		.byte	0
 3435 00de 13       		.uleb128 0x13
 3436 00df 01       		.uleb128 0x1
 3437 00e0 01       		.byte	0x1
 3438 00e1 49       		.uleb128 0x49
 3439 00e2 13       		.uleb128 0x13
 3440 00e3 01       		.uleb128 0x1
 3441 00e4 13       		.uleb128 0x13
 3442 00e5 00       		.byte	0
 3443 00e6 00       		.byte	0
 3444 00e7 14       		.uleb128 0x14
 3445 00e8 21       		.uleb128 0x21
 3446 00e9 00       		.byte	0
 3447 00ea 49       		.uleb128 0x49
 3448 00eb 13       		.uleb128 0x13
 3449 00ec 2F       		.uleb128 0x2f
 3450 00ed 0B       		.uleb128 0xb
 3451 00ee 00       		.byte	0
 3452 00ef 00       		.byte	0
 3453 00f0 15       		.uleb128 0x15
 3454 00f1 13       		.uleb128 0x13
ARM GAS  /tmp/ccV91MuA.s 			page 62


 3455 00f2 01       		.byte	0x1
 3456 00f3 0B       		.uleb128 0xb
 3457 00f4 0B       		.uleb128 0xb
 3458 00f5 3A       		.uleb128 0x3a
 3459 00f6 0B       		.uleb128 0xb
 3460 00f7 3B       		.uleb128 0x3b
 3461 00f8 05       		.uleb128 0x5
 3462 00f9 01       		.uleb128 0x1
 3463 00fa 13       		.uleb128 0x13
 3464 00fb 00       		.byte	0
 3465 00fc 00       		.byte	0
 3466 00fd 16       		.uleb128 0x16
 3467 00fe 0D       		.uleb128 0xd
 3468 00ff 00       		.byte	0
 3469 0100 03       		.uleb128 0x3
 3470 0101 0E       		.uleb128 0xe
 3471 0102 3A       		.uleb128 0x3a
 3472 0103 0B       		.uleb128 0xb
 3473 0104 3B       		.uleb128 0x3b
 3474 0105 05       		.uleb128 0x5
 3475 0106 49       		.uleb128 0x49
 3476 0107 13       		.uleb128 0x13
 3477 0108 38       		.uleb128 0x38
 3478 0109 0B       		.uleb128 0xb
 3479 010a 00       		.byte	0
 3480 010b 00       		.byte	0
 3481 010c 17       		.uleb128 0x17
 3482 010d 16       		.uleb128 0x16
 3483 010e 00       		.byte	0
 3484 010f 03       		.uleb128 0x3
 3485 0110 0E       		.uleb128 0xe
 3486 0111 3A       		.uleb128 0x3a
 3487 0112 0B       		.uleb128 0xb
 3488 0113 3B       		.uleb128 0x3b
 3489 0114 05       		.uleb128 0x5
 3490 0115 49       		.uleb128 0x49
 3491 0116 13       		.uleb128 0x13
 3492 0117 00       		.byte	0
 3493 0118 00       		.byte	0
 3494 0119 18       		.uleb128 0x18
 3495 011a 15       		.uleb128 0x15
 3496 011b 01       		.byte	0x1
 3497 011c 27       		.uleb128 0x27
 3498 011d 19       		.uleb128 0x19
 3499 011e 01       		.uleb128 0x1
 3500 011f 13       		.uleb128 0x13
 3501 0120 00       		.byte	0
 3502 0121 00       		.byte	0
 3503 0122 19       		.uleb128 0x19
 3504 0123 05       		.uleb128 0x5
 3505 0124 00       		.byte	0
 3506 0125 49       		.uleb128 0x49
 3507 0126 13       		.uleb128 0x13
 3508 0127 00       		.byte	0
 3509 0128 00       		.byte	0
 3510 0129 1A       		.uleb128 0x1a
 3511 012a 04       		.uleb128 0x4
ARM GAS  /tmp/ccV91MuA.s 			page 63


 3512 012b 01       		.byte	0x1
 3513 012c 0B       		.uleb128 0xb
 3514 012d 0B       		.uleb128 0xb
 3515 012e 3A       		.uleb128 0x3a
 3516 012f 0B       		.uleb128 0xb
 3517 0130 3B       		.uleb128 0x3b
 3518 0131 0B       		.uleb128 0xb
 3519 0132 01       		.uleb128 0x1
 3520 0133 13       		.uleb128 0x13
 3521 0134 00       		.byte	0
 3522 0135 00       		.byte	0
 3523 0136 1B       		.uleb128 0x1b
 3524 0137 04       		.uleb128 0x4
 3525 0138 01       		.byte	0x1
 3526 0139 0B       		.uleb128 0xb
 3527 013a 0B       		.uleb128 0xb
 3528 013b 3A       		.uleb128 0x3a
 3529 013c 0B       		.uleb128 0xb
 3530 013d 3B       		.uleb128 0x3b
 3531 013e 05       		.uleb128 0x5
 3532 013f 01       		.uleb128 0x1
 3533 0140 13       		.uleb128 0x13
 3534 0141 00       		.byte	0
 3535 0142 00       		.byte	0
 3536 0143 1C       		.uleb128 0x1c
 3537 0144 2E       		.uleb128 0x2e
 3538 0145 01       		.byte	0x1
 3539 0146 3F       		.uleb128 0x3f
 3540 0147 19       		.uleb128 0x19
 3541 0148 03       		.uleb128 0x3
 3542 0149 0E       		.uleb128 0xe
 3543 014a 3A       		.uleb128 0x3a
 3544 014b 0B       		.uleb128 0xb
 3545 014c 3B       		.uleb128 0x3b
 3546 014d 0B       		.uleb128 0xb
 3547 014e 27       		.uleb128 0x27
 3548 014f 19       		.uleb128 0x19
 3549 0150 11       		.uleb128 0x11
 3550 0151 01       		.uleb128 0x1
 3551 0152 12       		.uleb128 0x12
 3552 0153 06       		.uleb128 0x6
 3553 0154 40       		.uleb128 0x40
 3554 0155 18       		.uleb128 0x18
 3555 0156 9742     		.uleb128 0x2117
 3556 0158 19       		.uleb128 0x19
 3557 0159 01       		.uleb128 0x1
 3558 015a 13       		.uleb128 0x13
 3559 015b 00       		.byte	0
 3560 015c 00       		.byte	0
 3561 015d 1D       		.uleb128 0x1d
 3562 015e 898201   		.uleb128 0x4109
 3563 0161 01       		.byte	0x1
 3564 0162 11       		.uleb128 0x11
 3565 0163 01       		.uleb128 0x1
 3566 0164 31       		.uleb128 0x31
 3567 0165 13       		.uleb128 0x13
 3568 0166 01       		.uleb128 0x1
ARM GAS  /tmp/ccV91MuA.s 			page 64


 3569 0167 13       		.uleb128 0x13
 3570 0168 00       		.byte	0
 3571 0169 00       		.byte	0
 3572 016a 1E       		.uleb128 0x1e
 3573 016b 8A8201   		.uleb128 0x410a
 3574 016e 00       		.byte	0
 3575 016f 02       		.uleb128 0x2
 3576 0170 18       		.uleb128 0x18
 3577 0171 9142     		.uleb128 0x2111
 3578 0173 18       		.uleb128 0x18
 3579 0174 00       		.byte	0
 3580 0175 00       		.byte	0
 3581 0176 1F       		.uleb128 0x1f
 3582 0177 898201   		.uleb128 0x4109
 3583 017a 01       		.byte	0x1
 3584 017b 11       		.uleb128 0x11
 3585 017c 01       		.uleb128 0x1
 3586 017d 9542     		.uleb128 0x2115
 3587 017f 19       		.uleb128 0x19
 3588 0180 31       		.uleb128 0x31
 3589 0181 13       		.uleb128 0x13
 3590 0182 00       		.byte	0
 3591 0183 00       		.byte	0
 3592 0184 20       		.uleb128 0x20
 3593 0185 05       		.uleb128 0x5
 3594 0186 00       		.byte	0
 3595 0187 03       		.uleb128 0x3
 3596 0188 0E       		.uleb128 0xe
 3597 0189 3A       		.uleb128 0x3a
 3598 018a 0B       		.uleb128 0xb
 3599 018b 3B       		.uleb128 0x3b
 3600 018c 0B       		.uleb128 0xb
 3601 018d 49       		.uleb128 0x49
 3602 018e 13       		.uleb128 0x13
 3603 018f 02       		.uleb128 0x2
 3604 0190 17       		.uleb128 0x17
 3605 0191 00       		.byte	0
 3606 0192 00       		.byte	0
 3607 0193 21       		.uleb128 0x21
 3608 0194 0B       		.uleb128 0xb
 3609 0195 01       		.byte	0x1
 3610 0196 55       		.uleb128 0x55
 3611 0197 17       		.uleb128 0x17
 3612 0198 01       		.uleb128 0x1
 3613 0199 13       		.uleb128 0x13
 3614 019a 00       		.byte	0
 3615 019b 00       		.byte	0
 3616 019c 22       		.uleb128 0x22
 3617 019d 34       		.uleb128 0x34
 3618 019e 00       		.byte	0
 3619 019f 03       		.uleb128 0x3
 3620 01a0 08       		.uleb128 0x8
 3621 01a1 3A       		.uleb128 0x3a
 3622 01a2 0B       		.uleb128 0xb
 3623 01a3 3B       		.uleb128 0x3b
 3624 01a4 0B       		.uleb128 0xb
 3625 01a5 49       		.uleb128 0x49
ARM GAS  /tmp/ccV91MuA.s 			page 65


 3626 01a6 13       		.uleb128 0x13
 3627 01a7 02       		.uleb128 0x2
 3628 01a8 17       		.uleb128 0x17
 3629 01a9 00       		.byte	0
 3630 01aa 00       		.byte	0
 3631 01ab 23       		.uleb128 0x23
 3632 01ac 898201   		.uleb128 0x4109
 3633 01af 01       		.byte	0x1
 3634 01b0 11       		.uleb128 0x11
 3635 01b1 01       		.uleb128 0x1
 3636 01b2 31       		.uleb128 0x31
 3637 01b3 13       		.uleb128 0x13
 3638 01b4 00       		.byte	0
 3639 01b5 00       		.byte	0
 3640 01b6 24       		.uleb128 0x24
 3641 01b7 0B       		.uleb128 0xb
 3642 01b8 01       		.byte	0x1
 3643 01b9 55       		.uleb128 0x55
 3644 01ba 17       		.uleb128 0x17
 3645 01bb 00       		.byte	0
 3646 01bc 00       		.byte	0
 3647 01bd 25       		.uleb128 0x25
 3648 01be 2E       		.uleb128 0x2e
 3649 01bf 01       		.byte	0x1
 3650 01c0 3F       		.uleb128 0x3f
 3651 01c1 19       		.uleb128 0x19
 3652 01c2 03       		.uleb128 0x3
 3653 01c3 0E       		.uleb128 0xe
 3654 01c4 3A       		.uleb128 0x3a
 3655 01c5 0B       		.uleb128 0xb
 3656 01c6 3B       		.uleb128 0x3b
 3657 01c7 05       		.uleb128 0x5
 3658 01c8 27       		.uleb128 0x27
 3659 01c9 19       		.uleb128 0x19
 3660 01ca 11       		.uleb128 0x11
 3661 01cb 01       		.uleb128 0x1
 3662 01cc 12       		.uleb128 0x12
 3663 01cd 06       		.uleb128 0x6
 3664 01ce 40       		.uleb128 0x40
 3665 01cf 18       		.uleb128 0x18
 3666 01d0 9742     		.uleb128 0x2117
 3667 01d2 19       		.uleb128 0x19
 3668 01d3 01       		.uleb128 0x1
 3669 01d4 13       		.uleb128 0x13
 3670 01d5 00       		.byte	0
 3671 01d6 00       		.byte	0
 3672 01d7 26       		.uleb128 0x26
 3673 01d8 05       		.uleb128 0x5
 3674 01d9 00       		.byte	0
 3675 01da 03       		.uleb128 0x3
 3676 01db 0E       		.uleb128 0xe
 3677 01dc 3A       		.uleb128 0x3a
 3678 01dd 0B       		.uleb128 0xb
 3679 01de 3B       		.uleb128 0x3b
 3680 01df 05       		.uleb128 0x5
 3681 01e0 49       		.uleb128 0x49
 3682 01e1 13       		.uleb128 0x13
ARM GAS  /tmp/ccV91MuA.s 			page 66


 3683 01e2 02       		.uleb128 0x2
 3684 01e3 17       		.uleb128 0x17
 3685 01e4 00       		.byte	0
 3686 01e5 00       		.byte	0
 3687 01e6 27       		.uleb128 0x27
 3688 01e7 898201   		.uleb128 0x4109
 3689 01ea 00       		.byte	0
 3690 01eb 11       		.uleb128 0x11
 3691 01ec 01       		.uleb128 0x1
 3692 01ed 31       		.uleb128 0x31
 3693 01ee 13       		.uleb128 0x13
 3694 01ef 00       		.byte	0
 3695 01f0 00       		.byte	0
 3696 01f1 28       		.uleb128 0x28
 3697 01f2 34       		.uleb128 0x34
 3698 01f3 00       		.byte	0
 3699 01f4 03       		.uleb128 0x3
 3700 01f5 0E       		.uleb128 0xe
 3701 01f6 3A       		.uleb128 0x3a
 3702 01f7 0B       		.uleb128 0xb
 3703 01f8 3B       		.uleb128 0x3b
 3704 01f9 05       		.uleb128 0x5
 3705 01fa 49       		.uleb128 0x49
 3706 01fb 13       		.uleb128 0x13
 3707 01fc 02       		.uleb128 0x2
 3708 01fd 17       		.uleb128 0x17
 3709 01fe 00       		.byte	0
 3710 01ff 00       		.byte	0
 3711 0200 29       		.uleb128 0x29
 3712 0201 0B       		.uleb128 0xb
 3713 0202 01       		.byte	0x1
 3714 0203 11       		.uleb128 0x11
 3715 0204 01       		.uleb128 0x1
 3716 0205 12       		.uleb128 0x12
 3717 0206 06       		.uleb128 0x6
 3718 0207 01       		.uleb128 0x1
 3719 0208 13       		.uleb128 0x13
 3720 0209 00       		.byte	0
 3721 020a 00       		.byte	0
 3722 020b 2A       		.uleb128 0x2a
 3723 020c 898201   		.uleb128 0x4109
 3724 020f 01       		.byte	0x1
 3725 0210 11       		.uleb128 0x11
 3726 0211 01       		.uleb128 0x1
 3727 0212 01       		.uleb128 0x1
 3728 0213 13       		.uleb128 0x13
 3729 0214 00       		.byte	0
 3730 0215 00       		.byte	0
 3731 0216 2B       		.uleb128 0x2b
 3732 0217 898201   		.uleb128 0x4109
 3733 021a 00       		.byte	0
 3734 021b 11       		.uleb128 0x11
 3735 021c 01       		.uleb128 0x1
 3736 021d 9542     		.uleb128 0x2115
 3737 021f 19       		.uleb128 0x19
 3738 0220 31       		.uleb128 0x31
 3739 0221 13       		.uleb128 0x13
ARM GAS  /tmp/ccV91MuA.s 			page 67


 3740 0222 00       		.byte	0
 3741 0223 00       		.byte	0
 3742 0224 2C       		.uleb128 0x2c
 3743 0225 898201   		.uleb128 0x4109
 3744 0228 01       		.byte	0x1
 3745 0229 11       		.uleb128 0x11
 3746 022a 01       		.uleb128 0x1
 3747 022b 00       		.byte	0
 3748 022c 00       		.byte	0
 3749 022d 2D       		.uleb128 0x2d
 3750 022e 2E       		.uleb128 0x2e
 3751 022f 01       		.byte	0x1
 3752 0230 03       		.uleb128 0x3
 3753 0231 0E       		.uleb128 0xe
 3754 0232 3A       		.uleb128 0x3a
 3755 0233 0B       		.uleb128 0xb
 3756 0234 3B       		.uleb128 0x3b
 3757 0235 0B       		.uleb128 0xb
 3758 0236 27       		.uleb128 0x27
 3759 0237 19       		.uleb128 0x19
 3760 0238 11       		.uleb128 0x11
 3761 0239 01       		.uleb128 0x1
 3762 023a 12       		.uleb128 0x12
 3763 023b 06       		.uleb128 0x6
 3764 023c 40       		.uleb128 0x40
 3765 023d 18       		.uleb128 0x18
 3766 023e 9742     		.uleb128 0x2117
 3767 0240 19       		.uleb128 0x19
 3768 0241 01       		.uleb128 0x1
 3769 0242 13       		.uleb128 0x13
 3770 0243 00       		.byte	0
 3771 0244 00       		.byte	0
 3772 0245 2E       		.uleb128 0x2e
 3773 0246 34       		.uleb128 0x34
 3774 0247 00       		.byte	0
 3775 0248 03       		.uleb128 0x3
 3776 0249 0E       		.uleb128 0xe
 3777 024a 3A       		.uleb128 0x3a
 3778 024b 0B       		.uleb128 0xb
 3779 024c 3B       		.uleb128 0x3b
 3780 024d 0B       		.uleb128 0xb
 3781 024e 49       		.uleb128 0x49
 3782 024f 13       		.uleb128 0x13
 3783 0250 02       		.uleb128 0x2
 3784 0251 17       		.uleb128 0x17
 3785 0252 00       		.byte	0
 3786 0253 00       		.byte	0
 3787 0254 2F       		.uleb128 0x2f
 3788 0255 898201   		.uleb128 0x4109
 3789 0258 01       		.byte	0x1
 3790 0259 11       		.uleb128 0x11
 3791 025a 01       		.uleb128 0x1
 3792 025b 9342     		.uleb128 0x2113
 3793 025d 18       		.uleb128 0x18
 3794 025e 00       		.byte	0
 3795 025f 00       		.byte	0
 3796 0260 30       		.uleb128 0x30
ARM GAS  /tmp/ccV91MuA.s 			page 68


 3797 0261 2E       		.uleb128 0x2e
 3798 0262 00       		.byte	0
 3799 0263 3F       		.uleb128 0x3f
 3800 0264 19       		.uleb128 0x19
 3801 0265 03       		.uleb128 0x3
 3802 0266 0E       		.uleb128 0xe
 3803 0267 3A       		.uleb128 0x3a
 3804 0268 0B       		.uleb128 0xb
 3805 0269 3B       		.uleb128 0x3b
 3806 026a 05       		.uleb128 0x5
 3807 026b 27       		.uleb128 0x27
 3808 026c 19       		.uleb128 0x19
 3809 026d 11       		.uleb128 0x11
 3810 026e 01       		.uleb128 0x1
 3811 026f 12       		.uleb128 0x12
 3812 0270 06       		.uleb128 0x6
 3813 0271 40       		.uleb128 0x40
 3814 0272 18       		.uleb128 0x18
 3815 0273 9742     		.uleb128 0x2117
 3816 0275 19       		.uleb128 0x19
 3817 0276 00       		.byte	0
 3818 0277 00       		.byte	0
 3819 0278 31       		.uleb128 0x31
 3820 0279 34       		.uleb128 0x34
 3821 027a 00       		.byte	0
 3822 027b 03       		.uleb128 0x3
 3823 027c 0E       		.uleb128 0xe
 3824 027d 3A       		.uleb128 0x3a
 3825 027e 0B       		.uleb128 0xb
 3826 027f 3B       		.uleb128 0x3b
 3827 0280 05       		.uleb128 0x5
 3828 0281 49       		.uleb128 0x49
 3829 0282 13       		.uleb128 0x13
 3830 0283 3F       		.uleb128 0x3f
 3831 0284 19       		.uleb128 0x19
 3832 0285 3C       		.uleb128 0x3c
 3833 0286 19       		.uleb128 0x19
 3834 0287 00       		.byte	0
 3835 0288 00       		.byte	0
 3836 0289 32       		.uleb128 0x32
 3837 028a 34       		.uleb128 0x34
 3838 028b 00       		.byte	0
 3839 028c 03       		.uleb128 0x3
 3840 028d 0E       		.uleb128 0xe
 3841 028e 3A       		.uleb128 0x3a
 3842 028f 0B       		.uleb128 0xb
 3843 0290 3B       		.uleb128 0x3b
 3844 0291 0B       		.uleb128 0xb
 3845 0292 49       		.uleb128 0x49
 3846 0293 13       		.uleb128 0x13
 3847 0294 3F       		.uleb128 0x3f
 3848 0295 19       		.uleb128 0x19
 3849 0296 02       		.uleb128 0x2
 3850 0297 18       		.uleb128 0x18
 3851 0298 00       		.byte	0
 3852 0299 00       		.byte	0
 3853 029a 33       		.uleb128 0x33
ARM GAS  /tmp/ccV91MuA.s 			page 69


 3854 029b 2E       		.uleb128 0x2e
 3855 029c 01       		.byte	0x1
 3856 029d 3F       		.uleb128 0x3f
 3857 029e 19       		.uleb128 0x19
 3858 029f 03       		.uleb128 0x3
 3859 02a0 0E       		.uleb128 0xe
 3860 02a1 3A       		.uleb128 0x3a
 3861 02a2 0B       		.uleb128 0xb
 3862 02a3 3B       		.uleb128 0x3b
 3863 02a4 05       		.uleb128 0x5
 3864 02a5 27       		.uleb128 0x27
 3865 02a6 19       		.uleb128 0x19
 3866 02a7 3C       		.uleb128 0x3c
 3867 02a8 19       		.uleb128 0x19
 3868 02a9 01       		.uleb128 0x1
 3869 02aa 13       		.uleb128 0x13
 3870 02ab 00       		.byte	0
 3871 02ac 00       		.byte	0
 3872 02ad 34       		.uleb128 0x34
 3873 02ae 2E       		.uleb128 0x2e
 3874 02af 01       		.byte	0x1
 3875 02b0 3F       		.uleb128 0x3f
 3876 02b1 19       		.uleb128 0x19
 3877 02b2 03       		.uleb128 0x3
 3878 02b3 0E       		.uleb128 0xe
 3879 02b4 3A       		.uleb128 0x3a
 3880 02b5 0B       		.uleb128 0xb
 3881 02b6 3B       		.uleb128 0x3b
 3882 02b7 05       		.uleb128 0x5
 3883 02b8 27       		.uleb128 0x27
 3884 02b9 19       		.uleb128 0x19
 3885 02ba 49       		.uleb128 0x49
 3886 02bb 13       		.uleb128 0x13
 3887 02bc 3C       		.uleb128 0x3c
 3888 02bd 19       		.uleb128 0x19
 3889 02be 01       		.uleb128 0x1
 3890 02bf 13       		.uleb128 0x13
 3891 02c0 00       		.byte	0
 3892 02c1 00       		.byte	0
 3893 02c2 35       		.uleb128 0x35
 3894 02c3 2E       		.uleb128 0x2e
 3895 02c4 01       		.byte	0x1
 3896 02c5 3F       		.uleb128 0x3f
 3897 02c6 19       		.uleb128 0x19
 3898 02c7 03       		.uleb128 0x3
 3899 02c8 0E       		.uleb128 0xe
 3900 02c9 3A       		.uleb128 0x3a
 3901 02ca 0B       		.uleb128 0xb
 3902 02cb 3B       		.uleb128 0x3b
 3903 02cc 0B       		.uleb128 0xb
 3904 02cd 27       		.uleb128 0x27
 3905 02ce 19       		.uleb128 0x19
 3906 02cf 3C       		.uleb128 0x3c
 3907 02d0 19       		.uleb128 0x19
 3908 02d1 01       		.uleb128 0x1
 3909 02d2 13       		.uleb128 0x13
 3910 02d3 00       		.byte	0
ARM GAS  /tmp/ccV91MuA.s 			page 70


 3911 02d4 00       		.byte	0
 3912 02d5 36       		.uleb128 0x36
 3913 02d6 2E       		.uleb128 0x2e
 3914 02d7 01       		.byte	0x1
 3915 02d8 3F       		.uleb128 0x3f
 3916 02d9 19       		.uleb128 0x19
 3917 02da 03       		.uleb128 0x3
 3918 02db 0E       		.uleb128 0xe
 3919 02dc 3A       		.uleb128 0x3a
 3920 02dd 0B       		.uleb128 0xb
 3921 02de 3B       		.uleb128 0x3b
 3922 02df 0B       		.uleb128 0xb
 3923 02e0 27       		.uleb128 0x27
 3924 02e1 19       		.uleb128 0x19
 3925 02e2 49       		.uleb128 0x49
 3926 02e3 13       		.uleb128 0x13
 3927 02e4 3C       		.uleb128 0x3c
 3928 02e5 19       		.uleb128 0x19
 3929 02e6 01       		.uleb128 0x1
 3930 02e7 13       		.uleb128 0x13
 3931 02e8 00       		.byte	0
 3932 02e9 00       		.byte	0
 3933 02ea 37       		.uleb128 0x37
 3934 02eb 2E       		.uleb128 0x2e
 3935 02ec 00       		.byte	0
 3936 02ed 3F       		.uleb128 0x3f
 3937 02ee 19       		.uleb128 0x19
 3938 02ef 03       		.uleb128 0x3
 3939 02f0 0E       		.uleb128 0xe
 3940 02f1 3A       		.uleb128 0x3a
 3941 02f2 0B       		.uleb128 0xb
 3942 02f3 3B       		.uleb128 0x3b
 3943 02f4 05       		.uleb128 0x5
 3944 02f5 27       		.uleb128 0x27
 3945 02f6 19       		.uleb128 0x19
 3946 02f7 3C       		.uleb128 0x3c
 3947 02f8 19       		.uleb128 0x19
 3948 02f9 00       		.byte	0
 3949 02fa 00       		.byte	0
 3950 02fb 00       		.byte	0
 3951              		.section	.debug_loc,"",%progbits
 3952              	.Ldebug_loc0:
 3953              	.LLST0:
 3954 0000 00000000 		.4byte	.LVL3
 3955 0004 18000000 		.4byte	.LVL4
 3956 0008 0100     		.2byte	0x1
 3957 000a 50       		.byte	0x50
 3958 000b 18000000 		.4byte	.LVL4
 3959 000f 1E000000 		.4byte	.LVL5
 3960 0013 0100     		.2byte	0x1
 3961 0015 54       		.byte	0x54
 3962 0016 1E000000 		.4byte	.LVL5
 3963 001a 34000000 		.4byte	.LVL6
 3964 001e 0400     		.2byte	0x4
 3965 0020 F3       		.byte	0xf3
 3966 0021 01       		.uleb128 0x1
 3967 0022 50       		.byte	0x50
ARM GAS  /tmp/ccV91MuA.s 			page 71


 3968 0023 9F       		.byte	0x9f
 3969 0024 34000000 		.4byte	.LVL6
 3970 0028 36000000 		.4byte	.LVL7
 3971 002c 0100     		.2byte	0x1
 3972 002e 50       		.byte	0x50
 3973 002f 36000000 		.4byte	.LVL7
 3974 0033 56000000 		.4byte	.LVL10
 3975 0037 0100     		.2byte	0x1
 3976 0039 54       		.byte	0x54
 3977 003a 56000000 		.4byte	.LVL10
 3978 003e 58000000 		.4byte	.LVL11
 3979 0042 0100     		.2byte	0x1
 3980 0044 50       		.byte	0x50
 3981 0045 58000000 		.4byte	.LVL11
 3982 0049 AC000000 		.4byte	.LFE114
 3983 004d 0100     		.2byte	0x1
 3984 004f 54       		.byte	0x54
 3985 0050 00000000 		.4byte	0
 3986 0054 00000000 		.4byte	0
 3987              	.LLST1:
 3988 0058 40000000 		.4byte	.LVL8
 3989 005c 42000000 		.4byte	.LVL9
 3990 0060 0100     		.2byte	0x1
 3991 0062 50       		.byte	0x50
 3992 0063 78000000 		.4byte	.LVL14
 3993 0067 7A000000 		.4byte	.LVL15
 3994 006b 0100     		.2byte	0x1
 3995 006d 50       		.byte	0x50
 3996 006e 00000000 		.4byte	0
 3997 0072 00000000 		.4byte	0
 3998              	.LLST2:
 3999 0076 62000000 		.4byte	.LVL12
 4000 007a 64000000 		.4byte	.LVL13
 4001 007e 0100     		.2byte	0x1
 4002 0080 50       		.byte	0x50
 4003 0081 80000000 		.4byte	.LVL17
 4004 0085 82000000 		.4byte	.LVL18
 4005 0089 0100     		.2byte	0x1
 4006 008b 50       		.byte	0x50
 4007 008c 00000000 		.4byte	0
 4008 0090 00000000 		.4byte	0
 4009              	.LLST3:
 4010 0094 00000000 		.4byte	.LVL20
 4011 0098 0A000000 		.4byte	.LVL21
 4012 009c 0100     		.2byte	0x1
 4013 009e 50       		.byte	0x50
 4014 009f 0A000000 		.4byte	.LVL21
 4015 00a3 0C000000 		.4byte	.LVL22
 4016 00a7 0100     		.2byte	0x1
 4017 00a9 54       		.byte	0x54
 4018 00aa 0C000000 		.4byte	.LVL22
 4019 00ae 0E000000 		.4byte	.LVL23
 4020 00b2 0100     		.2byte	0x1
 4021 00b4 50       		.byte	0x50
 4022 00b5 0E000000 		.4byte	.LVL23
 4023 00b9 3E000000 		.4byte	.LVL25
 4024 00bd 0100     		.2byte	0x1
ARM GAS  /tmp/ccV91MuA.s 			page 72


 4025 00bf 54       		.byte	0x54
 4026 00c0 3E000000 		.4byte	.LVL25
 4027 00c4 4C000000 		.4byte	.LFE115
 4028 00c8 0400     		.2byte	0x4
 4029 00ca F3       		.byte	0xf3
 4030 00cb 01       		.uleb128 0x1
 4031 00cc 50       		.byte	0x50
 4032 00cd 9F       		.byte	0x9f
 4033 00ce 00000000 		.4byte	0
 4034 00d2 00000000 		.4byte	0
 4035              	.LLST4:
 4036 00d6 00000000 		.4byte	.LVL26
 4037 00da 34000000 		.4byte	.LVL33
 4038 00de 0100     		.2byte	0x1
 4039 00e0 50       		.byte	0x50
 4040 00e1 34000000 		.4byte	.LVL33
 4041 00e5 84000000 		.4byte	.LFE116
 4042 00e9 0400     		.2byte	0x4
 4043 00eb F3       		.byte	0xf3
 4044 00ec 01       		.uleb128 0x1
 4045 00ed 50       		.byte	0x50
 4046 00ee 9F       		.byte	0x9f
 4047 00ef 00000000 		.4byte	0
 4048 00f3 00000000 		.4byte	0
 4049              	.LLST5:
 4050 00f7 04000000 		.4byte	.LVL28
 4051 00fb 0E000000 		.4byte	.LVL29
 4052 00ff 0100     		.2byte	0x1
 4053 0101 52       		.byte	0x52
 4054 0102 0E000000 		.4byte	.LVL29
 4055 0106 16000000 		.4byte	.LVL30
 4056 010a 0700     		.2byte	0x7
 4057 010c 72       		.byte	0x72
 4058 010d 00       		.sleb128 0
 4059 010e 0A       		.byte	0xa
 4060 010f 0001     		.2byte	0x100
 4061 0111 21       		.byte	0x21
 4062 0112 9F       		.byte	0x9f
 4063 0113 16000000 		.4byte	.LVL30
 4064 0117 1A000000 		.4byte	.LVL31
 4065 011b 0800     		.2byte	0x8
 4066 011d 70       		.byte	0x70
 4067 011e 30       		.sleb128 48
 4068 011f 06       		.byte	0x6
 4069 0120 0A       		.byte	0xa
 4070 0121 0001     		.2byte	0x100
 4071 0123 21       		.byte	0x21
 4072 0124 9F       		.byte	0x9f
 4073 0125 1A000000 		.4byte	.LVL31
 4074 0129 32000000 		.4byte	.LVL32
 4075 012d 0100     		.2byte	0x1
 4076 012f 52       		.byte	0x52
 4077 0130 32000000 		.4byte	.LVL32
 4078 0134 6A000000 		.4byte	.LVL35
 4079 0138 0200     		.2byte	0x2
 4080 013a 71       		.byte	0x71
 4081 013b 00       		.sleb128 0
ARM GAS  /tmp/ccV91MuA.s 			page 73


 4082 013c 00000000 		.4byte	0
 4083 0140 00000000 		.4byte	0
 4084              	.LLST6:
 4085 0144 02000000 		.4byte	.LVL27
 4086 0148 4C000000 		.4byte	.LVL34
 4087 014c 0100     		.2byte	0x1
 4088 014e 53       		.byte	0x53
 4089 014f 4C000000 		.4byte	.LVL34
 4090 0153 84000000 		.4byte	.LFE116
 4091 0157 0500     		.2byte	0x5
 4092 0159 F3       		.byte	0xf3
 4093 015a 01       		.uleb128 0x1
 4094 015b 50       		.byte	0x50
 4095 015c 23       		.byte	0x23
 4096 015d 10       		.uleb128 0x10
 4097 015e 00000000 		.4byte	0
 4098 0162 00000000 		.4byte	0
 4099              	.LLST7:
 4100 0166 00000000 		.4byte	.LVL36
 4101 016a 1C000000 		.4byte	.LVL37
 4102 016e 0100     		.2byte	0x1
 4103 0170 50       		.byte	0x50
 4104 0171 1C000000 		.4byte	.LVL37
 4105 0175 32000000 		.4byte	.LFE117
 4106 0179 0400     		.2byte	0x4
 4107 017b F3       		.byte	0xf3
 4108 017c 01       		.uleb128 0x1
 4109 017d 50       		.byte	0x50
 4110 017e 9F       		.byte	0x9f
 4111 017f 00000000 		.4byte	0
 4112 0183 00000000 		.4byte	0
 4113              	.LLST8:
 4114 0187 04000000 		.4byte	.LVL38
 4115 018b 08000000 		.4byte	.LVL39
 4116 018f 0100     		.2byte	0x1
 4117 0191 52       		.byte	0x52
 4118 0192 1E000000 		.4byte	.LVL40
 4119 0196 39000000 		.4byte	.LVL41-1
 4120 019a 0100     		.2byte	0x1
 4121 019c 52       		.byte	0x52
 4122 019d 00000000 		.4byte	0
 4123 01a1 00000000 		.4byte	0
 4124              	.LLST9:
 4125 01a5 62000000 		.4byte	.LVL43
 4126 01a9 6D000000 		.4byte	.LVL44-1
 4127 01ad 0100     		.2byte	0x1
 4128 01af 50       		.byte	0x50
 4129 01b0 00000000 		.4byte	0
 4130 01b4 00000000 		.4byte	0
 4131              	.LLST10:
 4132 01b8 AE000000 		.4byte	.LVL48
 4133 01bc B9000000 		.4byte	.LVL49-1
 4134 01c0 0100     		.2byte	0x1
 4135 01c2 50       		.byte	0x50
 4136 01c3 00000000 		.4byte	0
 4137 01c7 00000000 		.4byte	0
 4138              	.LLST11:
ARM GAS  /tmp/ccV91MuA.s 			page 74


 4139 01cb 00000000 		.4byte	.LVL50
 4140 01cf 31000000 		.4byte	.LVL53-1
 4141 01d3 0100     		.2byte	0x1
 4142 01d5 50       		.byte	0x50
 4143 01d6 31000000 		.4byte	.LVL53-1
 4144 01da 34000000 		.4byte	.LVL54
 4145 01de 0100     		.2byte	0x1
 4146 01e0 54       		.byte	0x54
 4147 01e1 34000000 		.4byte	.LVL54
 4148 01e5 43000000 		.4byte	.LVL56-1
 4149 01e9 0100     		.2byte	0x1
 4150 01eb 50       		.byte	0x50
 4151 01ec 43000000 		.4byte	.LVL56-1
 4152 01f0 46000000 		.4byte	.LVL57
 4153 01f4 0100     		.2byte	0x1
 4154 01f6 54       		.byte	0x54
 4155 01f7 46000000 		.4byte	.LVL57
 4156 01fb 49000000 		.4byte	.LVL58-1
 4157 01ff 0100     		.2byte	0x1
 4158 0201 50       		.byte	0x50
 4159 0202 49000000 		.4byte	.LVL58-1
 4160 0206 84000000 		.4byte	.LVL62
 4161 020a 0100     		.2byte	0x1
 4162 020c 54       		.byte	0x54
 4163 020d 84000000 		.4byte	.LVL62
 4164 0211 87000000 		.4byte	.LVL64-1
 4165 0215 0100     		.2byte	0x1
 4166 0217 50       		.byte	0x50
 4167 0218 87000000 		.4byte	.LVL64-1
 4168 021c 8A000000 		.4byte	.LVL65
 4169 0220 0100     		.2byte	0x1
 4170 0222 54       		.byte	0x54
 4171 0223 8A000000 		.4byte	.LVL65
 4172 0227 8D000000 		.4byte	.LVL66-1
 4173 022b 0100     		.2byte	0x1
 4174 022d 50       		.byte	0x50
 4175 022e 8D000000 		.4byte	.LVL66-1
 4176 0232 CE000000 		.4byte	.LFE111
 4177 0236 0100     		.2byte	0x1
 4178 0238 54       		.byte	0x54
 4179 0239 00000000 		.4byte	0
 4180 023d 00000000 		.4byte	0
 4181              	.LLST12:
 4182 0241 00000000 		.4byte	.LVL50
 4183 0245 24000000 		.4byte	.LVL51
 4184 0249 0100     		.2byte	0x1
 4185 024b 51       		.byte	0x51
 4186 024c 24000000 		.4byte	.LVL51
 4187 0250 34000000 		.4byte	.LVL54
 4188 0254 0400     		.2byte	0x4
 4189 0256 F3       		.byte	0xf3
 4190 0257 01       		.uleb128 0x1
 4191 0258 51       		.byte	0x51
 4192 0259 9F       		.byte	0x9f
 4193 025a 34000000 		.4byte	.LVL54
 4194 025e 40000000 		.4byte	.LVL55
 4195 0262 0100     		.2byte	0x1
ARM GAS  /tmp/ccV91MuA.s 			page 75


 4196 0264 51       		.byte	0x51
 4197 0265 40000000 		.4byte	.LVL55
 4198 0269 46000000 		.4byte	.LVL57
 4199 026d 0400     		.2byte	0x4
 4200 026f F3       		.byte	0xf3
 4201 0270 01       		.uleb128 0x1
 4202 0271 51       		.byte	0x51
 4203 0272 9F       		.byte	0x9f
 4204 0273 46000000 		.4byte	.LVL57
 4205 0277 49000000 		.4byte	.LVL58-1
 4206 027b 0100     		.2byte	0x1
 4207 027d 51       		.byte	0x51
 4208 027e 49000000 		.4byte	.LVL58-1
 4209 0282 84000000 		.4byte	.LVL62
 4210 0286 0400     		.2byte	0x4
 4211 0288 F3       		.byte	0xf3
 4212 0289 01       		.uleb128 0x1
 4213 028a 51       		.byte	0x51
 4214 028b 9F       		.byte	0x9f
 4215 028c 84000000 		.4byte	.LVL62
 4216 0290 86000000 		.4byte	.LVL63
 4217 0294 0100     		.2byte	0x1
 4218 0296 51       		.byte	0x51
 4219 0297 86000000 		.4byte	.LVL63
 4220 029b 8A000000 		.4byte	.LVL65
 4221 029f 0400     		.2byte	0x4
 4222 02a1 F3       		.byte	0xf3
 4223 02a2 01       		.uleb128 0x1
 4224 02a3 51       		.byte	0x51
 4225 02a4 9F       		.byte	0x9f
 4226 02a5 8A000000 		.4byte	.LVL65
 4227 02a9 8D000000 		.4byte	.LVL66-1
 4228 02ad 0100     		.2byte	0x1
 4229 02af 51       		.byte	0x51
 4230 02b0 8D000000 		.4byte	.LVL66-1
 4231 02b4 CE000000 		.4byte	.LFE111
 4232 02b8 0400     		.2byte	0x4
 4233 02ba F3       		.byte	0xf3
 4234 02bb 01       		.uleb128 0x1
 4235 02bc 51       		.byte	0x51
 4236 02bd 9F       		.byte	0x9f
 4237 02be 00000000 		.4byte	0
 4238 02c2 00000000 		.4byte	0
 4239              	.LLST13:
 4240 02c6 28000000 		.4byte	.LVL52
 4241 02ca 31000000 		.4byte	.LVL53-1
 4242 02ce 0100     		.2byte	0x1
 4243 02d0 52       		.byte	0x52
 4244 02d1 00000000 		.4byte	0
 4245 02d5 00000000 		.4byte	0
 4246              	.LLST14:
 4247 02d9 28000000 		.4byte	.LVL52
 4248 02dd 31000000 		.4byte	.LVL53-1
 4249 02e1 0F00     		.2byte	0xf
 4250 02e3 70       		.byte	0x70
 4251 02e4 10       		.sleb128 16
 4252 02e5 06       		.byte	0x6
ARM GAS  /tmp/ccV91MuA.s 			page 76


 4253 02e6 23       		.byte	0x23
 4254 02e7 02       		.uleb128 0x2
 4255 02e8 94       		.byte	0x94
 4256 02e9 02       		.byte	0x2
 4257 02ea 0A       		.byte	0xa
 4258 02eb FFFF     		.2byte	0xffff
 4259 02ed 1A       		.byte	0x1a
 4260 02ee 72       		.byte	0x72
 4261 02ef 00       		.sleb128 0
 4262 02f0 1E       		.byte	0x1e
 4263 02f1 9F       		.byte	0x9f
 4264 02f2 00000000 		.4byte	0
 4265 02f6 00000000 		.4byte	0
 4266              	.LLST15:
 4267 02fa 70000000 		.4byte	.LVL60
 4268 02fe 7D000000 		.4byte	.LVL61-1
 4269 0302 0100     		.2byte	0x1
 4270 0304 53       		.byte	0x53
 4271 0305 00000000 		.4byte	0
 4272 0309 00000000 		.4byte	0
 4273              	.LLST16:
 4274 030d B0000000 		.4byte	.LVL68
 4275 0311 BB000000 		.4byte	.LVL69-1
 4276 0315 0100     		.2byte	0x1
 4277 0317 53       		.byte	0x53
 4278 0318 00000000 		.4byte	0
 4279 031c 00000000 		.4byte	0
 4280              		.section	.debug_aranges,"",%progbits
 4281 0000 6C000000 		.4byte	0x6c
 4282 0004 0200     		.2byte	0x2
 4283 0006 00000000 		.4byte	.Ldebug_info0
 4284 000a 04       		.byte	0x4
 4285 000b 00       		.byte	0
 4286 000c 0000     		.2byte	0
 4287 000e 0000     		.2byte	0
 4288 0010 00000000 		.4byte	.LFB113
 4289 0014 54000000 		.4byte	.LFE113-.LFB113
 4290 0018 00000000 		.4byte	.LFB114
 4291 001c AC000000 		.4byte	.LFE114-.LFB114
 4292 0020 00000000 		.4byte	.LFB115
 4293 0024 4C000000 		.4byte	.LFE115-.LFB115
 4294 0028 00000000 		.4byte	.LFB116
 4295 002c 84000000 		.4byte	.LFE116-.LFB116
 4296 0030 00000000 		.4byte	.LFB117
 4297 0034 32000000 		.4byte	.LFE117-.LFB117
 4298 0038 00000000 		.4byte	.LFB112
 4299 003c D0000000 		.4byte	.LFE112-.LFB112
 4300 0040 00000000 		.4byte	.LFB111
 4301 0044 CE000000 		.4byte	.LFE111-.LFB111
 4302 0048 00000000 		.4byte	.LFB118
 4303 004c 10000000 		.4byte	.LFE118-.LFB118
 4304 0050 00000000 		.4byte	.LFB119
 4305 0054 10000000 		.4byte	.LFE119-.LFB119
 4306 0058 00000000 		.4byte	.LFB120
 4307 005c 10000000 		.4byte	.LFE120-.LFB120
 4308 0060 00000000 		.4byte	.LFB121
 4309 0064 10000000 		.4byte	.LFE121-.LFB121
ARM GAS  /tmp/ccV91MuA.s 			page 77


 4310 0068 00000000 		.4byte	0
 4311 006c 00000000 		.4byte	0
 4312              		.section	.debug_ranges,"",%progbits
 4313              	.Ldebug_ranges0:
 4314 0000 34000000 		.4byte	.LBB2
 4315 0004 56000000 		.4byte	.LBE2
 4316 0008 78000000 		.4byte	.LBB4
 4317 000c 80000000 		.4byte	.LBE4
 4318 0010 00000000 		.4byte	0
 4319 0014 00000000 		.4byte	0
 4320 0018 56000000 		.4byte	.LBB3
 4321 001c 78000000 		.4byte	.LBE3
 4322 0020 80000000 		.4byte	.LBB5
 4323 0024 AC000000 		.4byte	.LBE5
 4324 0028 00000000 		.4byte	0
 4325 002c 00000000 		.4byte	0
 4326 0030 00000000 		.4byte	.LFB113
 4327 0034 54000000 		.4byte	.LFE113
 4328 0038 00000000 		.4byte	.LFB114
 4329 003c AC000000 		.4byte	.LFE114
 4330 0040 00000000 		.4byte	.LFB115
 4331 0044 4C000000 		.4byte	.LFE115
 4332 0048 00000000 		.4byte	.LFB116
 4333 004c 84000000 		.4byte	.LFE116
 4334 0050 00000000 		.4byte	.LFB117
 4335 0054 32000000 		.4byte	.LFE117
 4336 0058 00000000 		.4byte	.LFB112
 4337 005c D0000000 		.4byte	.LFE112
 4338 0060 00000000 		.4byte	.LFB111
 4339 0064 CE000000 		.4byte	.LFE111
 4340 0068 00000000 		.4byte	.LFB118
 4341 006c 10000000 		.4byte	.LFE118
 4342 0070 00000000 		.4byte	.LFB119
 4343 0074 10000000 		.4byte	.LFE119
 4344 0078 00000000 		.4byte	.LFB120
 4345 007c 10000000 		.4byte	.LFE120
 4346 0080 00000000 		.4byte	.LFB121
 4347 0084 10000000 		.4byte	.LFE121
 4348 0088 00000000 		.4byte	0
 4349 008c 00000000 		.4byte	0
 4350              		.section	.debug_line,"",%progbits
 4351              	.Ldebug_line0:
 4352 0000 34040000 		.section	.debug_str,"MS",%progbits,1
 4352      02001802 
 4352      00000201 
 4352      FB0E0D00 
 4352      01010101 
 4353              	.LASF175:
 4354 0000 4D314152 		.ascii	"M1AR\000"
 4354      00
 4355              	.LASF81:
 4356 0005 45585449 		.ascii	"EXTI0_IRQn\000"
 4356      305F4952 
 4356      516E00
 4357              	.LASF2:
 4358 0010 73697A65 		.ascii	"size_t\000"
 4358      5F7400
ARM GAS  /tmp/ccV91MuA.s 			page 78


 4359              	.LASF119:
 4360 0017 54494D38 		.ascii	"TIM8_UP_TIM13_IRQn\000"
 4360      5F55505F 
 4360      54494D31 
 4360      335F4952 
 4360      516E00
 4361              	.LASF244:
 4362 002a 73717231 		.ascii	"sqr1\000"
 4362      00
 4363              	.LASF245:
 4364 002f 73717232 		.ascii	"sqr2\000"
 4364      00
 4365              	.LASF57:
 4366 0034 73697A65 		.ascii	"sizetype\000"
 4366      74797065 
 4366      00
 4367              	.LASF251:
 4368 003d 6164635F 		.ascii	"adc_lld_start\000"
 4368      6C6C645F 
 4368      73746172 
 4368      7400
 4369              	.LASF29:
 4370 004b 73797374 		.ascii	"systime_t\000"
 4370      696D655F 
 4370      7400
 4371              	.LASF203:
 4372 0055 504C4C49 		.ascii	"PLLI2SCFGR\000"
 4372      32534346 
 4372      475200
 4373              	.LASF34:
 4374 0060 705F6374 		.ascii	"p_ctx\000"
 4374      7800
 4375              	.LASF26:
 4376 0066 74707269 		.ascii	"tprio_t\000"
 4376      6F5F7400 
 4377              	.LASF236:
 4378 006e 61646363 		.ascii	"adccallback_t\000"
 4378      616C6C62 
 4378      61636B5F 
 4378      7400
 4379              	.LASF163:
 4380 007c 53515231 		.ascii	"SQR1\000"
 4380      00
 4381              	.LASF164:
 4382 0081 53515232 		.ascii	"SQR2\000"
 4382      00
 4383              	.LASF165:
 4384 0086 53515233 		.ascii	"SQR3\000"
 4384      00
 4385              	.LASF45:
 4386 008b 705F6D73 		.ascii	"p_msgqueue\000"
 4386      67717565 
 4386      756500
 4387              	.LASF17:
 4388 0096 696E7433 		.ascii	"int32_t\000"
 4388      325F7400 
 4389              	.LASF220:
ARM GAS  /tmp/ccV91MuA.s 			page 79


 4390 009e 61646373 		.ascii	"adcstate_t\000"
 4390      74617465 
 4390      5F7400
 4391              	.LASF272:
 4392 00a9 646D6153 		.ascii	"dmaStreamRelease\000"
 4392      74726561 
 4392      6D52656C 
 4392      65617365 
 4392      00
 4393              	.LASF223:
 4394 00ba 4144435F 		.ascii	"ADC_ERR_DMAFAILURE\000"
 4394      4552525F 
 4394      444D4146 
 4394      41494C55 
 4394      524500
 4395              	.LASF274:
 4396 00cd 63685363 		.ascii	"chSchReadyI\000"
 4396      68526561 
 4396      64794900 
 4397              	.LASF132:
 4398 00d9 444D4132 		.ascii	"DMA2_Stream1_IRQn\000"
 4398      5F537472 
 4398      65616D31 
 4398      5F495251 
 4398      6E00
 4399              	.LASF126:
 4400 00eb 53504933 		.ascii	"SPI3_IRQn\000"
 4400      5F495251 
 4400      6E00
 4401              	.LASF79:
 4402 00f5 464C4153 		.ascii	"FLASH_IRQn\000"
 4402      485F4952 
 4402      516E00
 4403              	.LASF153:
 4404 0100 44434D49 		.ascii	"DCMI_IRQn\000"
 4404      5F495251 
 4404      6E00
 4405              	.LASF228:
 4406 010a 636F6E66 		.ascii	"config\000"
 4406      696700
 4407              	.LASF227:
 4408 0111 73746174 		.ascii	"state\000"
 4408      6500
 4409              	.LASF103:
 4410 0117 54494D32 		.ascii	"TIM2_IRQn\000"
 4410      5F495251 
 4410      6E00
 4411              	.LASF264:
 4412 0121 61646353 		.ascii	"adcSTM32DisableVBATE\000"
 4412      544D3332 
 4412      44697361 
 4412      626C6556 
 4412      42415445 
 4413              	.LASF241:
 4414 0136 6572726F 		.ascii	"error_cb\000"
 4414      725F6362 
 4414      00
ARM GAS  /tmp/ccV91MuA.s 			page 80


 4415              	.LASF139:
 4416 013f 43414E32 		.ascii	"CAN2_RX0_IRQn\000"
 4416      5F525830 
 4416      5F495251 
 4416      6E00
 4417              	.LASF146:
 4418 014d 55534152 		.ascii	"USART6_IRQn\000"
 4418      54365F49 
 4418      52516E00 
 4419              	.LASF60:
 4420 0159 6D5F6F77 		.ascii	"m_owner\000"
 4420      6E657200 
 4421              	.LASF170:
 4422 0161 4A445234 		.ascii	"JDR4\000"
 4422      00
 4423              	.LASF240:
 4424 0166 656E645F 		.ascii	"end_cb\000"
 4424      636200
 4425              	.LASF63:
 4426 016d 65786974 		.ascii	"exitcode\000"
 4426      636F6465 
 4426      00
 4427              	.LASF3:
 4428 0176 5F5F7569 		.ascii	"__uint8_t\000"
 4428      6E74385F 
 4428      7400
 4429              	.LASF151:
 4430 0180 4F54475F 		.ascii	"OTG_HS_WKUP_IRQn\000"
 4430      48535F57 
 4430      4B55505F 
 4430      4952516E 
 4430      00
 4431              	.LASF65:
 4432 0191 65776D61 		.ascii	"ewmask\000"
 4432      736B00
 4433              	.LASF118:
 4434 0198 54494D38 		.ascii	"TIM8_BRK_TIM12_IRQn\000"
 4434      5F42524B 
 4434      5F54494D 
 4434      31325F49 
 4434      52516E00 
 4435              	.LASF194:
 4436 01ac 41484232 		.ascii	"AHB2LPENR\000"
 4436      4C50454E 
 4436      5200
 4437              	.LASF35:
 4438 01b6 705F6E65 		.ascii	"p_newer\000"
 4438      77657200 
 4439              	.LASF9:
 4440 01be 6C6F6E67 		.ascii	"long int\000"
 4440      20696E74 
 4440      00
 4441              	.LASF31:
 4442 01c7 705F6E65 		.ascii	"p_next\000"
 4442      787400
 4443              	.LASF32:
 4444 01ce 705F7072 		.ascii	"p_prev\000"
ARM GAS  /tmp/ccV91MuA.s 			page 81


 4444      657600
 4445              	.LASF235:
 4446 01d5 646D616D 		.ascii	"dmamode\000"
 4446      6F646500 
 4447              	.LASF143:
 4448 01dd 444D4132 		.ascii	"DMA2_Stream5_IRQn\000"
 4448      5F537472 
 4448      65616D35 
 4448      5F495251 
 4448      6E00
 4449              	.LASF23:
 4450 01ef 74737461 		.ascii	"tstate_t\000"
 4450      74655F74 
 4450      00
 4451              	.LASF257:
 4452 01f8 56656374 		.ascii	"Vector88\000"
 4452      6F723838 
 4452      00
 4453              	.LASF48:
 4454 0201 705F6D74 		.ascii	"p_mtxlist\000"
 4454      786C6973 
 4454      7400
 4455              	.LASF101:
 4456 020b 54494D31 		.ascii	"TIM1_TRG_COM_TIM11_IRQn\000"
 4456      5F545247 
 4456      5F434F4D 
 4456      5F54494D 
 4456      31315F49 
 4457              	.LASF53:
 4458 0223 72656761 		.ascii	"regarm_t\000"
 4458      726D5F74 
 4458      00
 4459              	.LASF252:
 4460 022c 6164635F 		.ascii	"adc_lld_stop\000"
 4460      6C6C645F 
 4460      73746F70 
 4460      00
 4461              	.LASF191:
 4462 0239 41504232 		.ascii	"APB2ENR\000"
 4462      454E5200 
 4463              	.LASF193:
 4464 0241 41484231 		.ascii	"AHB1LPENR\000"
 4464      4C50454E 
 4464      5200
 4465              	.LASF74:
 4466 024b 53797354 		.ascii	"SysTick_IRQn\000"
 4466      69636B5F 
 4466      4952516E 
 4466      00
 4467              	.LASF114:
 4468 0258 55534152 		.ascii	"USART3_IRQn\000"
 4468      54335F49 
 4468      52516E00 
 4469              	.LASF205:
 4470 0264 44434B43 		.ascii	"DCKCFGR\000"
 4470      46475200 
 4471              	.LASF261:
ARM GAS  /tmp/ccV91MuA.s 			page 82


 4472 026c 61646353 		.ascii	"adcSTM32EnableTSVREFE\000"
 4472      544D3332 
 4472      456E6162 
 4472      6C655453 
 4472      56524546 
 4473              	.LASF1:
 4474 0282 7369676E 		.ascii	"signed char\000"
 4474      65642063 
 4474      68617200 
 4475              	.LASF42:
 4476 028e 705F7072 		.ascii	"p_preempt\000"
 4476      65656D70 
 4476      7400
 4477              	.LASF15:
 4478 0298 75696E74 		.ascii	"uint8_t\000"
 4478      385F7400 
 4479              	.LASF28:
 4480 02a0 6576656E 		.ascii	"eventmask_t\000"
 4480      746D6173 
 4480      6B5F7400 
 4481              	.LASF56:
 4482 02ac 636F6E74 		.ascii	"context\000"
 4482      65787400 
 4483              	.LASF88:
 4484 02b4 444D4131 		.ascii	"DMA1_Stream2_IRQn\000"
 4484      5F537472 
 4484      65616D32 
 4484      5F495251 
 4484      6E00
 4485              	.LASF182:
 4486 02c6 52455345 		.ascii	"RESERVED0\000"
 4486      52564544 
 4486      3000
 4487              	.LASF185:
 4488 02d0 52455345 		.ascii	"RESERVED1\000"
 4488      52564544 
 4488      3100
 4489              	.LASF4:
 4490 02da 756E7369 		.ascii	"unsigned char\000"
 4490      676E6564 
 4490      20636861 
 4490      7200
 4491              	.LASF135:
 4492 02e8 444D4132 		.ascii	"DMA2_Stream4_IRQn\000"
 4492      5F537472 
 4492      65616D34 
 4492      5F495251 
 4492      6E00
 4493              	.LASF196:
 4494 02fa 52455345 		.ascii	"RESERVED4\000"
 4494      52564544 
 4494      3400
 4495              	.LASF199:
 4496 0304 52455345 		.ascii	"RESERVED5\000"
 4496      52564544 
 4496      3500
 4497              	.LASF201:
ARM GAS  /tmp/ccV91MuA.s 			page 83


 4498 030e 52455345 		.ascii	"RESERVED6\000"
 4498      52564544 
 4498      3600
 4499              	.LASF271:
 4500 0318 63684462 		.ascii	"chDbgPanic\000"
 4500      6750616E 
 4500      696300
 4501              	.LASF225:
 4502 0323 61646365 		.ascii	"adcerror_t\000"
 4502      72726F72 
 4502      5F7400
 4503              	.LASF107:
 4504 032e 49324331 		.ascii	"I2C1_ER_IRQn\000"
 4504      5F45525F 
 4504      4952516E 
 4504      00
 4505              	.LASF214:
 4506 033b 4144435F 		.ascii	"ADC_UNINIT\000"
 4506      554E494E 
 4506      495400
 4507              	.LASF141:
 4508 0346 43414E32 		.ascii	"CAN2_SCE_IRQn\000"
 4508      5F534345 
 4508      5F495251 
 4508      6E00
 4509              	.LASF216:
 4510 0354 4144435F 		.ascii	"ADC_READY\000"
 4510      52454144 
 4510      5900
 4511              	.LASF21:
 4512 035e 5F426F6F 		.ascii	"_Bool\000"
 4512      6C00
 4513              	.LASF189:
 4514 0364 52455345 		.ascii	"RESERVED2\000"
 4514      52564544 
 4514      3200
 4515              	.LASF192:
 4516 036e 52455345 		.ascii	"RESERVED3\000"
 4516      52564544 
 4516      3300
 4517              	.LASF258:
 4518 0378 666C6167 		.ascii	"flags\000"
 4518      7300
 4519              	.LASF125:
 4520 037e 54494D35 		.ascii	"TIM5_IRQn\000"
 4520      5F495251 
 4520      6E00
 4521              	.LASF221:
 4522 0388 61646373 		.ascii	"adcsample_t\000"
 4522      616D706C 
 4522      655F7400 
 4523              	.LASF70:
 4524 0394 55736167 		.ascii	"UsageFault_IRQn\000"
 4524      65466175 
 4524      6C745F49 
 4524      52516E00 
 4525              	.LASF66:
ARM GAS  /tmp/ccV91MuA.s 			page 84


 4526 03a4 63686172 		.ascii	"char\000"
 4526      00
 4527              	.LASF209:
 4528 03a9 69736869 		.ascii	"ishift\000"
 4528      667400
 4529              	.LASF179:
 4530 03b0 41484231 		.ascii	"AHB1RSTR\000"
 4530      52535452 
 4530      00
 4531              	.LASF33:
 4532 03b9 705F7072 		.ascii	"p_prio\000"
 4532      696F00
 4533              	.LASF6:
 4534 03c0 5F5F7569 		.ascii	"__uint16_t\000"
 4534      6E743136 
 4534      5F7400
 4535              	.LASF187:
 4536 03cb 41484232 		.ascii	"AHB2ENR\000"
 4536      454E5200 
 4537              	.LASF64:
 4538 03d3 77746F62 		.ascii	"wtobjp\000"
 4538      6A7000
 4539              	.LASF95:
 4540 03da 43414E31 		.ascii	"CAN1_RX0_IRQn\000"
 4540      5F525830 
 4540      5F495251 
 4540      6E00
 4541              	.LASF219:
 4542 03e8 4144435F 		.ascii	"ADC_ERROR\000"
 4542      4552524F 
 4542      5200
 4543              	.LASF54:
 4544 03f2 73746B61 		.ascii	"stkalign_t\000"
 4544      6C69676E 
 4544      5F7400
 4545              	.LASF246:
 4546 03fd 73717233 		.ascii	"sqr3\000"
 4546      00
 4547              	.LASF238:
 4548 0402 63697263 		.ascii	"circular\000"
 4548      756C6172 
 4548      00
 4549              	.LASF105:
 4550 040b 54494D34 		.ascii	"TIM4_IRQn\000"
 4550      5F495251 
 4550      6E00
 4551              	.LASF113:
 4552 0415 55534152 		.ascii	"USART2_IRQn\000"
 4552      54325F49 
 4552      52516E00 
 4553              	.LASF207:
 4554 0421 73747265 		.ascii	"stream\000"
 4554      616D00
 4555              	.LASF273:
 4556 0428 646D6153 		.ascii	"dmaStreamAllocate\000"
 4556      74726561 
 4556      6D416C6C 
ARM GAS  /tmp/ccV91MuA.s 			page 85


 4556      6F636174 
 4556      6500
 4557              	.LASF200:
 4558 043a 42444352 		.ascii	"BDCR\000"
 4558      00
 4559              	.LASF229:
 4560 043f 73616D70 		.ascii	"samples\000"
 4560      6C657300 
 4561              	.LASF106:
 4562 0447 49324331 		.ascii	"I2C1_EV_IRQn\000"
 4562      5F45565F 
 4562      4952516E 
 4562      00
 4563              	.LASF171:
 4564 0454 4144435F 		.ascii	"ADC_TypeDef\000"
 4564      54797065 
 4564      44656600 
 4565              	.LASF55:
 4566 0460 696E7463 		.ascii	"intctx\000"
 4566      747800
 4567              	.LASF47:
 4568 0467 705F6570 		.ascii	"p_epending\000"
 4568      656E6469 
 4568      6E6700
 4569              	.LASF178:
 4570 0472 43464752 		.ascii	"CFGR\000"
 4570      00
 4571              	.LASF102:
 4572 0477 54494D31 		.ascii	"TIM1_CC_IRQn\000"
 4572      5F43435F 
 4572      4952516E 
 4572      00
 4573              	.LASF155:
 4574 0484 48415348 		.ascii	"HASH_RNG_IRQn\000"
 4574      5F524E47 
 4574      5F495251 
 4574      6E00
 4575              	.LASF82:
 4576 0492 45585449 		.ascii	"EXTI1_IRQn\000"
 4576      315F4952 
 4576      516E00
 4577              	.LASF94:
 4578 049d 43414E31 		.ascii	"CAN1_TX_IRQn\000"
 4578      5F54585F 
 4578      4952516E 
 4578      00
 4579              	.LASF91:
 4580 04aa 444D4131 		.ascii	"DMA1_Stream5_IRQn\000"
 4580      5F537472 
 4580      65616D35 
 4580      5F495251 
 4580      6E00
 4581              	.LASF120:
 4582 04bc 54494D38 		.ascii	"TIM8_TRG_COM_TIM14_IRQn\000"
 4582      5F545247 
 4582      5F434F4D 
 4582      5F54494D 
ARM GAS  /tmp/ccV91MuA.s 			page 86


 4582      31345F49 
 4583              	.LASF145:
 4584 04d4 444D4132 		.ascii	"DMA2_Stream7_IRQn\000"
 4584      5F537472 
 4584      65616D37 
 4584      5F495251 
 4584      6E00
 4585              	.LASF142:
 4586 04e6 4F54475F 		.ascii	"OTG_FS_IRQn\000"
 4586      46535F49 
 4586      52516E00 
 4587              	.LASF67:
 4588 04f2 4E6F6E4D 		.ascii	"NonMaskableInt_IRQn\000"
 4588      61736B61 
 4588      626C6549 
 4588      6E745F49 
 4588      52516E00 
 4589              	.LASF13:
 4590 0506 5F5F7569 		.ascii	"__uint64_t\000"
 4590      6E743634 
 4590      5F7400
 4591              	.LASF75:
 4592 0511 57574447 		.ascii	"WWDG_IRQn\000"
 4592      5F495251 
 4592      6E00
 4593              	.LASF11:
 4594 051b 6C6F6E67 		.ascii	"long unsigned int\000"
 4594      20756E73 
 4594      69676E65 
 4594      6420696E 
 4594      7400
 4595              	.LASF190:
 4596 052d 41504231 		.ascii	"APB1ENR\000"
 4596      454E5200 
 4597              	.LASF234:
 4598 0535 646D6173 		.ascii	"dmastp\000"
 4598      747000
 4599              	.LASF68:
 4600 053c 4D656D6F 		.ascii	"MemoryManagement_IRQn\000"
 4600      72794D61 
 4600      6E616765 
 4600      6D656E74 
 4600      5F495251 
 4601              	.LASF77:
 4602 0552 54414D50 		.ascii	"TAMP_STAMP_IRQn\000"
 4602      5F535441 
 4602      4D505F49 
 4602      52516E00 
 4603              	.LASF97:
 4604 0562 43414E31 		.ascii	"CAN1_SCE_IRQn\000"
 4604      5F534345 
 4604      5F495251 
 4604      6E00
 4605              	.LASF266:
 4606 0570 5F73746D 		.ascii	"_stm32_dma_streams\000"
 4606      33325F64 
 4606      6D615F73 
ARM GAS  /tmp/ccV91MuA.s 			page 87


 4606      74726561 
 4606      6D7300
 4607              	.LASF131:
 4608 0583 444D4132 		.ascii	"DMA2_Stream0_IRQn\000"
 4608      5F537472 
 4608      65616D30 
 4608      5F495251 
 4608      6E00
 4609              	.LASF157:
 4610 0595 534D5052 		.ascii	"SMPR1\000"
 4610      3100
 4611              	.LASF158:
 4612 059b 534D5052 		.ascii	"SMPR2\000"
 4612      3200
 4613              	.LASF212:
 4614 05a1 73746D33 		.ascii	"stm32_dma_stream_t\000"
 4614      325F646D 
 4614      615F7374 
 4614      7265616D 
 4614      5F7400
 4615              	.LASF109:
 4616 05b4 49324332 		.ascii	"I2C2_ER_IRQn\000"
 4616      5F45525F 
 4616      4952516E 
 4616      00
 4617              	.LASF247:
 4618 05c1 41444343 		.ascii	"ADCConversionGroup\000"
 4618      6F6E7665 
 4618      7273696F 
 4618      6E47726F 
 4618      757000
 4619              	.LASF218:
 4620 05d4 4144435F 		.ascii	"ADC_COMPLETE\000"
 4620      434F4D50 
 4620      4C455445 
 4620      00
 4621              	.LASF242:
 4622 05e1 736D7072 		.ascii	"smpr1\000"
 4622      3100
 4623              	.LASF243:
 4624 05e7 736D7072 		.ascii	"smpr2\000"
 4624      3200
 4625              	.LASF254:
 4626 05ed 6164635F 		.ascii	"adc_lld_start_conversion\000"
 4626      6C6C645F 
 4626      73746172 
 4626      745F636F 
 4626      6E766572 
 4627              	.LASF69:
 4628 0606 42757346 		.ascii	"BusFault_IRQn\000"
 4628      61756C74 
 4628      5F495251 
 4628      6E00
 4629              	.LASF177:
 4630 0614 504C4C43 		.ascii	"PLLCFGR\000"
 4630      46475200 
 4631              	.LASF128:
ARM GAS  /tmp/ccV91MuA.s 			page 88


 4632 061c 55415254 		.ascii	"UART5_IRQn\000"
 4632      355F4952 
 4632      516E00
 4633              	.LASF99:
 4634 0627 54494D31 		.ascii	"TIM1_BRK_TIM9_IRQn\000"
 4634      5F42524B 
 4634      5F54494D 
 4634      395F4952 
 4634      516E00
 4635              	.LASF10:
 4636 063a 5F5F7569 		.ascii	"__uint32_t\000"
 4636      6E743332 
 4636      5F7400
 4637              	.LASF58:
 4638 0645 4D757465 		.ascii	"Mutex\000"
 4638      7800
 4639              	.LASF130:
 4640 064b 54494D37 		.ascii	"TIM7_IRQn\000"
 4640      5F495251 
 4640      6E00
 4641              	.LASF12:
 4642 0655 6C6F6E67 		.ascii	"long long int\000"
 4642      206C6F6E 
 4642      6720696E 
 4642      7400
 4643              	.LASF137:
 4644 0663 4554485F 		.ascii	"ETH_WKUP_IRQn\000"
 4644      574B5550 
 4644      5F495251 
 4644      6E00
 4645              	.LASF111:
 4646 0671 53504932 		.ascii	"SPI2_IRQn\000"
 4646      5F495251 
 4646      6E00
 4647              	.LASF152:
 4648 067b 4F54475F 		.ascii	"OTG_HS_IRQn\000"
 4648      48535F49 
 4648      52516E00 
 4649              	.LASF59:
 4650 0687 6D5F7175 		.ascii	"m_queue\000"
 4650      65756500 
 4651              	.LASF202:
 4652 068f 53534347 		.ascii	"SSCGR\000"
 4652      5200
 4653              	.LASF110:
 4654 0695 53504931 		.ascii	"SPI1_IRQn\000"
 4654      5F495251 
 4654      6E00
 4655              	.LASF253:
 4656 069f 61646370 		.ascii	"adcp\000"
 4656      00
 4657              	.LASF237:
 4658 06a4 61646365 		.ascii	"adcerrorcallback_t\000"
 4658      72726F72 
 4658      63616C6C 
 4658      6261636B 
 4658      5F7400
ARM GAS  /tmp/ccV91MuA.s 			page 89


 4659              	.LASF71:
 4660 06b7 53564361 		.ascii	"SVCall_IRQn\000"
 4660      6C6C5F49 
 4660      52516E00 
 4661              	.LASF184:
 4662 06c3 41504232 		.ascii	"APB2RSTR\000"
 4662      52535452 
 4662      00
 4663              	.LASF230:
 4664 06cc 64657074 		.ascii	"depth\000"
 4664      6800
 4665              	.LASF233:
 4666 06d2 6D757465 		.ascii	"mutex\000"
 4666      7800
 4667              	.LASF156:
 4668 06d8 4650555F 		.ascii	"FPU_IRQn\000"
 4668      4952516E 
 4668      00
 4669              	.LASF127:
 4670 06e1 55415254 		.ascii	"UART4_IRQn\000"
 4670      345F4952 
 4670      516E00
 4671              	.LASF198:
 4672 06ec 41504232 		.ascii	"APB2LPENR\000"
 4672      4C50454E 
 4672      5200
 4673              	.LASF44:
 4674 06f6 705F7761 		.ascii	"p_waiting\000"
 4674      6974696E 
 4674      6700
 4675              	.LASF117:
 4676 0700 4F54475F 		.ascii	"OTG_FS_WKUP_IRQn\000"
 4676      46535F57 
 4676      4B55505F 
 4676      4952516E 
 4676      00
 4677              	.LASF40:
 4678 0711 705F666C 		.ascii	"p_flags\000"
 4678      61677300 
 4679              	.LASF210:
 4680 0719 73656C66 		.ascii	"selfindex\000"
 4680      696E6465 
 4680      7800
 4681              	.LASF0:
 4682 0723 756E7369 		.ascii	"unsigned int\000"
 4682      676E6564 
 4682      20696E74 
 4682      00
 4683              	.LASF129:
 4684 0730 54494D36 		.ascii	"TIM6_DAC_IRQn\000"
 4684      5F444143 
 4684      5F495251 
 4684      6E00
 4685              	.LASF222:
 4686 073e 6164635F 		.ascii	"adc_channels_num_t\000"
 4686      6368616E 
 4686      6E656C73 
ARM GAS  /tmp/ccV91MuA.s 			page 90


 4686      5F6E756D 
 4686      5F7400
 4687              	.LASF50:
 4688 0751 705F6D70 		.ascii	"p_mpool\000"
 4688      6F6F6C00 
 4689              	.LASF108:
 4690 0759 49324332 		.ascii	"I2C2_EV_IRQn\000"
 4690      5F45565F 
 4690      4952516E 
 4690      00
 4691              	.LASF41:
 4692 0766 705F7265 		.ascii	"p_refs\000"
 4692      667300
 4693              	.LASF276:
 4694 076d 2E2E2F2E 		.ascii	"../../os/hal/platforms/STM32F4xx/adc_lld.c\000"
 4694      2E2F6F73 
 4694      2F68616C 
 4694      2F706C61 
 4694      74666F72 
 4695              	.LASF239:
 4696 0798 6E756D5F 		.ascii	"num_channels\000"
 4696      6368616E 
 4696      6E656C73 
 4696      00
 4697              	.LASF277:
 4698 07a5 2F686F6D 		.ascii	"/home/makkmarci/devel/ChibiOS_2.6.5/projects/STM32F"
 4698      652F6D61 
 4698      6B6B6D61 
 4698      7263692F 
 4698      64657665 
 4699 07d8 345F4368 		.ascii	"4_ChibiOS_uGFX_gwin_2/\000"
 4699      6962694F 
 4699      535F7547 
 4699      46585F67 
 4699      77696E5F 
 4700              	.LASF280:
 4701 07ef 5F706F72 		.ascii	"_port_irq_epilogue\000"
 4701      745F6972 
 4701      715F6570 
 4701      696C6F67 
 4701      756500
 4702              	.LASF52:
 4703 0802 54687265 		.ascii	"ThreadsList\000"
 4703      6164734C 
 4703      69737400 
 4704              	.LASF267:
 4705 080e 41444344 		.ascii	"ADCD1\000"
 4705      3100
 4706              	.LASF268:
 4707 0814 41444344 		.ascii	"ADCD2\000"
 4707      3200
 4708              	.LASF197:
 4709 081a 41504231 		.ascii	"APB1LPENR\000"
 4709      4C50454E 
 4709      5200
 4710              	.LASF87:
 4711 0824 444D4131 		.ascii	"DMA1_Stream1_IRQn\000"
ARM GAS  /tmp/ccV91MuA.s 			page 91


 4711      5F537472 
 4711      65616D31 
 4711      5F495251 
 4711      6E00
 4712              	.LASF134:
 4713 0836 444D4132 		.ascii	"DMA2_Stream3_IRQn\000"
 4713      5F537472 
 4713      65616D33 
 4713      5F495251 
 4713      6E00
 4714              	.LASF138:
 4715 0848 43414E32 		.ascii	"CAN2_TX_IRQn\000"
 4715      5F54585F 
 4715      4952516E 
 4715      00
 4716              	.LASF256:
 4717 0855 6164635F 		.ascii	"adc_lld_stop_conversion\000"
 4717      6C6C645F 
 4717      73746F70 
 4717      5F636F6E 
 4717      76657273 
 4718              	.LASF176:
 4719 086d 444D415F 		.ascii	"DMA_Stream_TypeDef\000"
 4719      53747265 
 4719      616D5F54 
 4719      79706544 
 4719      656600
 4720              	.LASF43:
 4721 0880 705F7469 		.ascii	"p_time\000"
 4721      6D6500
 4722              	.LASF278:
 4723 0887 4952516E 		.ascii	"IRQn\000"
 4723      00
 4724              	.LASF92:
 4725 088c 444D4131 		.ascii	"DMA1_Stream6_IRQn\000"
 4725      5F537472 
 4725      65616D36 
 4725      5F495251 
 4725      6E00
 4726              	.LASF181:
 4727 089e 41484233 		.ascii	"AHB3RSTR\000"
 4727      52535452 
 4727      00
 4728              	.LASF49:
 4729 08a7 705F7265 		.ascii	"p_realprio\000"
 4729      616C7072 
 4729      696F00
 4730              	.LASF217:
 4731 08b2 4144435F 		.ascii	"ADC_ACTIVE\000"
 4731      41435449 
 4731      564500
 4732              	.LASF86:
 4733 08bd 444D4131 		.ascii	"DMA1_Stream0_IRQn\000"
 4733      5F537472 
 4733      65616D30 
 4733      5F495251 
 4733      6E00
ARM GAS  /tmp/ccV91MuA.s 			page 92


 4734              	.LASF183:
 4735 08cf 41504231 		.ascii	"APB1RSTR\000"
 4735      52535452 
 4735      00
 4736              	.LASF213:
 4737 08d8 73746D33 		.ascii	"stm32_dmaisr_t\000"
 4737      325F646D 
 4737      61697372 
 4737      5F7400
 4738              	.LASF116:
 4739 08e7 5254435F 		.ascii	"RTC_Alarm_IRQn\000"
 4739      416C6172 
 4739      6D5F4952 
 4739      516E00
 4740              	.LASF148:
 4741 08f6 49324333 		.ascii	"I2C3_ER_IRQn\000"
 4741      5F45525F 
 4741      4952516E 
 4741      00
 4742              	.LASF154:
 4743 0903 43525950 		.ascii	"CRYP_IRQn\000"
 4743      5F495251 
 4743      6E00
 4744              	.LASF115:
 4745 090d 45585449 		.ascii	"EXTI15_10_IRQn\000"
 4745      31355F31 
 4745      305F4952 
 4745      516E00
 4746              	.LASF14:
 4747 091c 6C6F6E67 		.ascii	"long long unsigned int\000"
 4747      206C6F6E 
 4747      6720756E 
 4747      7369676E 
 4747      65642069 
 4748              	.LASF36:
 4749 0933 705F6F6C 		.ascii	"p_older\000"
 4749      64657200 
 4750              	.LASF16:
 4751 093b 75696E74 		.ascii	"uint16_t\000"
 4751      31365F74 
 4751      00
 4752              	.LASF27:
 4753 0944 6D73675F 		.ascii	"msg_t\000"
 4753      7400
 4754              	.LASF104:
 4755 094a 54494D33 		.ascii	"TIM3_IRQn\000"
 4755      5F495251 
 4755      6E00
 4756              	.LASF112:
 4757 0954 55534152 		.ascii	"USART1_IRQn\000"
 4757      54315F49 
 4757      52516E00 
 4758              	.LASF25:
 4759 0960 74736C69 		.ascii	"tslices_t\000"
 4759      6365735F 
 4759      7400
 4760              	.LASF260:
ARM GAS  /tmp/ccV91MuA.s 			page 93


 4761 096a 68616C66 		.ascii	"half_index\000"
 4761      5F696E64 
 4761      657800
 4762              	.LASF83:
 4763 0975 45585449 		.ascii	"EXTI2_IRQn\000"
 4763      325F4952 
 4763      516E00
 4764              	.LASF226:
 4765 0980 41444344 		.ascii	"ADCDriver\000"
 4765      72697665 
 4765      7200
 4766              	.LASF250:
 4767 098a 6164635F 		.ascii	"adc_lld_init\000"
 4767      6C6C645F 
 4767      696E6974 
 4767      00
 4768              	.LASF140:
 4769 0997 43414E32 		.ascii	"CAN2_RX1_IRQn\000"
 4769      5F525831 
 4769      5F495251 
 4769      6E00
 4770              	.LASF211:
 4771 09a5 76656374 		.ascii	"vector\000"
 4771      6F7200
 4772              	.LASF93:
 4773 09ac 4144435F 		.ascii	"ADC_IRQn\000"
 4773      4952516E 
 4773      00
 4774              	.LASF224:
 4775 09b5 4144435F 		.ascii	"ADC_ERR_OVERFLOW\000"
 4775      4552525F 
 4775      4F564552 
 4775      464C4F57 
 4775      00
 4776              	.LASF259:
 4777 09c6 68616C66 		.ascii	"half\000"
 4777      00
 4778              	.LASF195:
 4779 09cb 41484233 		.ascii	"AHB3LPENR\000"
 4779      4C50454E 
 4779      5200
 4780              	.LASF263:
 4781 09d5 61646353 		.ascii	"adcSTM32EnableVBATE\000"
 4781      544D3332 
 4781      456E6162 
 4781      6C655642 
 4781      41544500 
 4782              	.LASF76:
 4783 09e9 5056445F 		.ascii	"PVD_IRQn\000"
 4783      4952516E 
 4783      00
 4784              	.LASF123:
 4785 09f2 46534D43 		.ascii	"FSMC_IRQn\000"
 4785      5F495251 
 4785      6E00
 4786              	.LASF275:
 4787 09fc 474E5520 		.ascii	"GNU C 4.8.4 20140526 (release) [ARM/embedded-4_8-br"
ARM GAS  /tmp/ccV91MuA.s 			page 94


 4787      4320342E 
 4787      382E3420 
 4787      32303134 
 4787      30353236 
 4788 0a2f 616E6368 		.ascii	"anch revision 211358] -mcpu=cortex-m4 -mfloat-abi=h"
 4788      20726576 
 4788      6973696F 
 4788      6E203231 
 4788      31333538 
 4789 0a62 61726420 		.ascii	"ard -mfpu=fpv4-sp-d16 -mno-thumb-interwork -mthumb "
 4789      2D6D6670 
 4789      753D6670 
 4789      76342D73 
 4789      702D6431 
 4790 0a95 2D676764 		.ascii	"-ggdb -O2 -fomit-frame-pointer -falign-functions=16"
 4790      62202D4F 
 4790      32202D66 
 4790      6F6D6974 
 4790      2D667261 
 4791 0ac8 202D6666 		.ascii	" -ffunction-sections -fdata-sections -fno-common -f"
 4791      756E6374 
 4791      696F6E2D 
 4791      73656374 
 4791      696F6E73 
 4792 0afb 73696E67 		.ascii	"single-precision-constant\000"
 4792      6C652D70 
 4792      72656369 
 4792      73696F6E 
 4792      2D636F6E 
 4793              	.LASF22:
 4794 0b15 746D6F64 		.ascii	"tmode_t\000"
 4794      655F7400 
 4795              	.LASF90:
 4796 0b1d 444D4131 		.ascii	"DMA1_Stream4_IRQn\000"
 4796      5F537472 
 4796      65616D34 
 4796      5F495251 
 4796      6E00
 4797              	.LASF248:
 4798 0b2f 64756D6D 		.ascii	"dummy\000"
 4798      7900
 4799              	.LASF215:
 4800 0b35 4144435F 		.ascii	"ADC_STOP\000"
 4800      53544F50 
 4800      00
 4801              	.LASF144:
 4802 0b3e 444D4132 		.ascii	"DMA2_Stream6_IRQn\000"
 4802      5F537472 
 4802      65616D36 
 4802      5F495251 
 4802      6E00
 4803              	.LASF186:
 4804 0b50 41484231 		.ascii	"AHB1ENR\000"
 4804      454E5200 
 4805              	.LASF72:
 4806 0b58 44656275 		.ascii	"DebugMonitor_IRQn\000"
 4806      674D6F6E 
ARM GAS  /tmp/ccV91MuA.s 			page 95


 4806      69746F72 
 4806      5F495251 
 4806      6E00
 4807              	.LASF147:
 4808 0b6a 49324333 		.ascii	"I2C3_EV_IRQn\000"
 4808      5F45565F 
 4808      4952516E 
 4808      00
 4809              	.LASF231:
 4810 0b77 67727070 		.ascii	"grpp\000"
 4810      00
 4811              	.LASF180:
 4812 0b7c 41484232 		.ascii	"AHB2RSTR\000"
 4812      52535452 
 4812      00
 4813              	.LASF232:
 4814 0b85 74687265 		.ascii	"thread\000"
 4814      616400
 4815              	.LASF174:
 4816 0b8c 4D304152 		.ascii	"M0AR\000"
 4816      00
 4817              	.LASF136:
 4818 0b91 4554485F 		.ascii	"ETH_IRQn\000"
 4818      4952516E 
 4818      00
 4819              	.LASF206:
 4820 0b9a 5243435F 		.ascii	"RCC_TypeDef\000"
 4820      54797065 
 4820      44656600 
 4821              	.LASF5:
 4822 0ba6 73686F72 		.ascii	"short int\000"
 4822      7420696E 
 4822      7400
 4823              	.LASF19:
 4824 0bb0 75696E74 		.ascii	"uint64_t\000"
 4824      36345F74 
 4824      00
 4825              	.LASF80:
 4826 0bb9 5243435F 		.ascii	"RCC_IRQn\000"
 4826      4952516E 
 4826      00
 4827              	.LASF255:
 4828 0bc2 6D6F6465 		.ascii	"mode\000"
 4828      00
 4829              	.LASF159:
 4830 0bc7 4A4F4652 		.ascii	"JOFR1\000"
 4830      3100
 4831              	.LASF160:
 4832 0bcd 4A4F4652 		.ascii	"JOFR2\000"
 4832      3200
 4833              	.LASF161:
 4834 0bd3 4A4F4652 		.ascii	"JOFR3\000"
 4834      3300
 4835              	.LASF162:
 4836 0bd9 4A4F4652 		.ascii	"JOFR4\000"
 4836      3400
 4837              	.LASF89:
ARM GAS  /tmp/ccV91MuA.s 			page 96


 4838 0bdf 444D4131 		.ascii	"DMA1_Stream3_IRQn\000"
 4838      5F537472 
 4838      65616D33 
 4838      5F495251 
 4838      6E00
 4839              	.LASF20:
 4840 0bf1 626F6F6C 		.ascii	"bool_t\000"
 4840      5F7400
 4841              	.LASF269:
 4842 0bf8 6164634F 		.ascii	"adcObjectInit\000"
 4842      626A6563 
 4842      74496E69 
 4842      7400
 4843              	.LASF167:
 4844 0c06 4A445231 		.ascii	"JDR1\000"
 4844      00
 4845              	.LASF168:
 4846 0c0b 4A445232 		.ascii	"JDR2\000"
 4846      00
 4847              	.LASF169:
 4848 0c10 4A445233 		.ascii	"JDR3\000"
 4848      00
 4849              	.LASF30:
 4850 0c15 54687265 		.ascii	"Thread\000"
 4850      616400
 4851              	.LASF166:
 4852 0c1c 4A535152 		.ascii	"JSQR\000"
 4852      00
 4853              	.LASF100:
 4854 0c21 54494D31 		.ascii	"TIM1_UP_TIM10_IRQn\000"
 4854      5F55505F 
 4854      54494D31 
 4854      305F4952 
 4854      516E00
 4855              	.LASF265:
 4856 0c34 49544D5F 		.ascii	"ITM_RxBuffer\000"
 4856      52784275 
 4856      66666572 
 4856      00
 4857              	.LASF24:
 4858 0c41 74726566 		.ascii	"trefs_t\000"
 4858      735F7400 
 4859              	.LASF149:
 4860 0c49 4F54475F 		.ascii	"OTG_HS_EP1_OUT_IRQn\000"
 4860      48535F45 
 4860      50315F4F 
 4860      55545F49 
 4860      52516E00 
 4861              	.LASF78:
 4862 0c5d 5254435F 		.ascii	"RTC_WKUP_IRQn\000"
 4862      574B5550 
 4862      5F495251 
 4862      6E00
 4863              	.LASF173:
 4864 0c6b 4E445452 		.ascii	"NDTR\000"
 4864      00
 4865              	.LASF270:
ARM GAS  /tmp/ccV91MuA.s 			page 97


 4866 0c70 6E766963 		.ascii	"nvicEnableVector\000"
 4866      456E6162 
 4866      6C655665 
 4866      63746F72 
 4866      00
 4867              	.LASF18:
 4868 0c81 75696E74 		.ascii	"uint32_t\000"
 4868      33325F74 
 4868      00
 4869              	.LASF96:
 4870 0c8a 43414E31 		.ascii	"CAN1_RX1_IRQn\000"
 4870      5F525831 
 4870      5F495251 
 4870      6E00
 4871              	.LASF51:
 4872 0c98 54687265 		.ascii	"ThreadsQueue\000"
 4872      61647351 
 4872      75657565 
 4872      00
 4873              	.LASF98:
 4874 0ca5 45585449 		.ascii	"EXTI9_5_IRQn\000"
 4874      395F355F 
 4874      4952516E 
 4874      00
 4875              	.LASF204:
 4876 0cb2 504C4C53 		.ascii	"PLLSAICFGR\000"
 4876      41494346 
 4876      475200
 4877              	.LASF279:
 4878 0cbd 6164635F 		.ascii	"adc_lld_serve_rx_interrupt\000"
 4878      6C6C645F 
 4878      73657276 
 4878      655F7278 
 4878      5F696E74 
 4879              	.LASF62:
 4880 0cd8 7264796D 		.ascii	"rdymsg\000"
 4880      736700
 4881              	.LASF85:
 4882 0cdf 45585449 		.ascii	"EXTI4_IRQn\000"
 4882      345F4952 
 4882      516E00
 4883              	.LASF7:
 4884 0cea 73686F72 		.ascii	"short unsigned int\000"
 4884      7420756E 
 4884      7369676E 
 4884      65642069 
 4884      6E7400
 4885              	.LASF121:
 4886 0cfd 54494D38 		.ascii	"TIM8_CC_IRQn\000"
 4886      5F43435F 
 4886      4952516E 
 4886      00
 4887              	.LASF124:
 4888 0d0a 5344494F 		.ascii	"SDIO_IRQn\000"
 4888      5F495251 
 4888      6E00
 4889              	.LASF84:
ARM GAS  /tmp/ccV91MuA.s 			page 98


 4890 0d14 45585449 		.ascii	"EXTI3_IRQn\000"
 4890      335F4952 
 4890      516E00
 4891              	.LASF73:
 4892 0d1f 50656E64 		.ascii	"PendSV_IRQn\000"
 4892      53565F49 
 4892      52516E00 
 4893              	.LASF150:
 4894 0d2b 4F54475F 		.ascii	"OTG_HS_EP1_IN_IRQn\000"
 4894      48535F45 
 4894      50315F49 
 4894      4E5F4952 
 4894      516E00
 4895              	.LASF38:
 4896 0d3e 705F7374 		.ascii	"p_stklimit\000"
 4896      6B6C696D 
 4896      697400
 4897              	.LASF122:
 4898 0d49 444D4131 		.ascii	"DMA1_Stream7_IRQn\000"
 4898      5F537472 
 4898      65616D37 
 4898      5F495251 
 4898      6E00
 4899              	.LASF8:
 4900 0d5b 5F5F696E 		.ascii	"__int32_t\000"
 4900      7433325F 
 4900      7400
 4901              	.LASF172:
 4902 0d65 4144435F 		.ascii	"ADC_Common_TypeDef\000"
 4902      436F6D6D 
 4902      6F6E5F54 
 4902      79706544 
 4902      656600
 4903              	.LASF208:
 4904 0d78 69666372 		.ascii	"ifcr\000"
 4904      00
 4905              	.LASF37:
 4906 0d7d 705F6E61 		.ascii	"p_name\000"
 4906      6D6500
 4907              	.LASF61:
 4908 0d84 6D5F6E65 		.ascii	"m_next\000"
 4908      787400
 4909              	.LASF262:
 4910 0d8b 61646353 		.ascii	"adcSTM32DisableTSVREFE\000"
 4910      544D3332 
 4910      44697361 
 4910      626C6554 
 4910      53565245 
 4911              	.LASF188:
 4912 0da2 41484233 		.ascii	"AHB3ENR\000"
 4912      454E5200 
 4913              	.LASF133:
 4914 0daa 444D4132 		.ascii	"DMA2_Stream2_IRQn\000"
 4914      5F537472 
 4914      65616D32 
 4914      5F495251 
 4914      6E00
ARM GAS  /tmp/ccV91MuA.s 			page 99


 4915              	.LASF46:
 4916 0dbc 705F6D73 		.ascii	"p_msg\000"
 4916      6700
 4917              	.LASF249:
 4918 0dc2 41444343 		.ascii	"ADCConfig\000"
 4918      6F6E6669 
 4918      6700
 4919              	.LASF39:
 4920 0dcc 705F7374 		.ascii	"p_state\000"
 4920      61746500 
 4921              		.ident	"GCC: (GNU Tools for ARM Embedded Processors) 4.8.4 20140526 (release) [ARM/embedded-4_8-br
ARM GAS  /tmp/ccV91MuA.s 			page 100


DEFINED SYMBOLS
                            *ABS*:00000000 adc_lld.c
     /tmp/ccV91MuA.s:21     .text.adc_lld_init:00000000 $t
     /tmp/ccV91MuA.s:27     .text.adc_lld_init:00000000 adc_lld_init
     /tmp/ccV91MuA.s:88     .text.adc_lld_init:00000038 $d
     /tmp/ccV91MuA.s:99     .text.adc_lld_start:00000000 $t
     /tmp/ccV91MuA.s:105    .text.adc_lld_start:00000000 adc_lld_start
     /tmp/ccV91MuA.s:240    .text.adc_lld_start:00000088 $d
     /tmp/ccV91MuA.s:686    .text.adc_lld_serve_rx_interrupt:00000000 adc_lld_serve_rx_interrupt
     /tmp/ccV91MuA.s:254    .text.adc_lld_stop:00000000 $t
     /tmp/ccV91MuA.s:260    .text.adc_lld_stop:00000000 adc_lld_stop
     /tmp/ccV91MuA.s:323    .text.adc_lld_stop:00000040 $d
     /tmp/ccV91MuA.s:330    .text.adc_lld_start_conversion:00000000 $t
     /tmp/ccV91MuA.s:336    .text.adc_lld_start_conversion:00000000 adc_lld_start_conversion
     /tmp/ccV91MuA.s:454    .text.adc_lld_stop_conversion:00000000 $t
     /tmp/ccV91MuA.s:460    .text.adc_lld_stop_conversion:00000000 adc_lld_stop_conversion
     /tmp/ccV91MuA.s:511    .text.Vector88:00000000 $t
     /tmp/ccV91MuA.s:517    .text.Vector88:00000000 Vector88
     /tmp/ccV91MuA.s:673    .text.Vector88:000000c0 $d
     /tmp/ccV91MuA.s:681    .text.adc_lld_serve_rx_interrupt:00000000 $t
     /tmp/ccV91MuA.s:856    .text.adcSTM32EnableTSVREFE:00000000 $t
     /tmp/ccV91MuA.s:862    .text.adcSTM32EnableTSVREFE:00000000 adcSTM32EnableTSVREFE
     /tmp/ccV91MuA.s:878    .text.adcSTM32EnableTSVREFE:0000000c $d
     /tmp/ccV91MuA.s:883    .text.adcSTM32DisableTSVREFE:00000000 $t
     /tmp/ccV91MuA.s:889    .text.adcSTM32DisableTSVREFE:00000000 adcSTM32DisableTSVREFE
     /tmp/ccV91MuA.s:905    .text.adcSTM32DisableTSVREFE:0000000c $d
     /tmp/ccV91MuA.s:910    .text.adcSTM32EnableVBATE:00000000 $t
     /tmp/ccV91MuA.s:916    .text.adcSTM32EnableVBATE:00000000 adcSTM32EnableVBATE
     /tmp/ccV91MuA.s:932    .text.adcSTM32EnableVBATE:0000000c $d
     /tmp/ccV91MuA.s:937    .text.adcSTM32DisableVBATE:00000000 $t
     /tmp/ccV91MuA.s:943    .text.adcSTM32DisableVBATE:00000000 adcSTM32DisableVBATE
     /tmp/ccV91MuA.s:959    .text.adcSTM32DisableVBATE:0000000c $d
     /tmp/ccV91MuA.s:977    .bss.ADCD2:00000000 ADCD2
     /tmp/ccV91MuA.s:970    .bss.ADCD1:00000000 ADCD1
     /tmp/ccV91MuA.s:966    .bss.ADCD1:00000000 $d
     /tmp/ccV91MuA.s:973    .bss.ADCD2:00000000 $d
     /tmp/ccV91MuA.s:980    .rodata.str1.4:00000000 $d
                     .debug_frame:00000010 $d
     /tmp/ccV91MuA.s:98     .text.adc_lld_init:00000054 $t
     /tmp/ccV91MuA.s:253    .text.adc_lld_start:000000ac $t
     /tmp/ccV91MuA.s:329    .text.adc_lld_stop:0000004c $t

UNDEFINED SYMBOLS
adcObjectInit
nvicEnableVector
_stm32_dma_streams
dmaStreamAllocate
chDbgPanic
dmaStreamRelease
_port_lock
chSchReadyI
_port_unlock
_port_irq_epilogue
