ARM GAS  /tmp/cc2xpVSZ.s 			page 1


   1              		.syntax unified
   2              		.cpu cortex-m4
   3              		.eabi_attribute 27, 1
   4              		.eabi_attribute 28, 1
   5              		.fpu fpv4-sp-d16
   6              		.eabi_attribute 20, 1
   7              		.eabi_attribute 21, 1
   8              		.eabi_attribute 23, 3
   9              		.eabi_attribute 24, 1
  10              		.eabi_attribute 25, 1
  11              		.eabi_attribute 26, 1
  12              		.eabi_attribute 30, 6
  13              		.eabi_attribute 34, 1
  14              		.eabi_attribute 18, 4
  15              		.thumb
  16              		.file	"adc_lld.c"
  17              		.text
  18              	.Ltext0:
  19              		.cfi_sections	.debug_frame
  20              		.global	ADCD1
  21              		.section	.bss.ADCD1,"aw",%nobits
  22              		.align	2
  23              		.type	ADCD1, %object
  24              		.size	ADCD1, 52
  25              	ADCD1:
  26 0000 00000000 		.space	52
  26      00000000 
  26      00000000 
  26      00000000 
  26      00000000 
  27              		.global	ADCD2
  28              		.section	.bss.ADCD2,"aw",%nobits
  29              		.align	2
  30              		.type	ADCD2, %object
  31              		.size	ADCD2, 52
  32              	ADCD2:
  33 0000 00000000 		.space	52
  33      00000000 
  33      00000000 
  33      00000000 
  33      00000000 
  34              		.section	.text.adc_lld_serve_rx_interrupt,"ax",%progbits
  35              		.align	2
  36              		.p2align 4,,15
  37              		.thumb
  38              		.thumb_func
  39              		.type	adc_lld_serve_rx_interrupt, %function
  40              	adc_lld_serve_rx_interrupt:
  41              	.LFB111:
  42              		.file 1 "/home/makkmarci/workspace/ChibiOS_2.6.8/os/hal/platforms/STM32F4xx/adc_lld.c"
  43              		.loc 1 76 0
  44              		.cfi_startproc
  45              		@ args = 0, pretend = 0, frame = 24
  46              		@ frame_needed = 0, uses_anonymous_args = 0
  47 0000 00B5     		push	{lr}
  48              		.cfi_def_cfa_offset 4
  49              		.cfi_offset 14, -4
ARM GAS  /tmp/cc2xpVSZ.s 			page 2


  50 0002 87B0     		sub	sp, sp, #28
  51              		.cfi_def_cfa_offset 32
  52 0004 0190     		str	r0, [sp, #4]
  53 0006 0091     		str	r1, [sp]
  54              		.loc 1 79 0
  55 0008 009B     		ldr	r3, [sp]
  56 000a 03F00C03 		and	r3, r3, #12
  57 000e 002B     		cmp	r3, #0
  58 0010 30D0     		beq	.L2
  59              		.loc 1 82 0
  60 0012 0198     		ldr	r0, [sp, #4]
  61 0014 FFF7FEFF 		bl	adc_lld_stop_conversion
  62 0018 019B     		ldr	r3, [sp, #4]
  63 001a 1B69     		ldr	r3, [r3, #16]
  64 001c 9B68     		ldr	r3, [r3, #8]
  65 001e 002B     		cmp	r3, #0
  66 0020 0FD0     		beq	.L3
  67              		.loc 1 82 0 is_stmt 0 discriminator 1
  68 0022 019B     		ldr	r3, [sp, #4]
  69 0024 0522     		movs	r2, #5
  70 0026 1A70     		strb	r2, [r3]
  71 0028 019B     		ldr	r3, [sp, #4]
  72 002a 1B69     		ldr	r3, [r3, #16]
  73 002c 9B68     		ldr	r3, [r3, #8]
  74 002e 0198     		ldr	r0, [sp, #4]
  75 0030 0021     		movs	r1, #0
  76 0032 9847     		blx	r3
  77 0034 019B     		ldr	r3, [sp, #4]
  78 0036 1B78     		ldrb	r3, [r3]	@ zero_extendqisi2
  79 0038 052B     		cmp	r3, #5
  80 003a 02D1     		bne	.L3
  81              		.loc 1 82 0 discriminator 3
  82 003c 019B     		ldr	r3, [sp, #4]
  83 003e 0222     		movs	r2, #2
  84 0040 1A70     		strb	r2, [r3]
  85              	.L3:
  86              		.loc 1 82 0 discriminator 5
  87 0042 019B     		ldr	r3, [sp, #4]
  88 0044 0022     		movs	r2, #0
  89 0046 1A61     		str	r2, [r3, #16]
  90              	@ 82 "/home/makkmarci/workspace/ChibiOS_2.6.8/os/hal/platforms/STM32F4xx/adc_lld.c" 1
  91 0048 FFF7FEFF 		bl      _port_lock
  92              	@ 0 "" 2
  93              		.thumb
  94 004c 019B     		ldr	r3, [sp, #4]
  95 004e 5B69     		ldr	r3, [r3, #20]
  96 0050 002B     		cmp	r3, #0
  97 0052 0CD0     		beq	.L4
  98              	.LBB2:
  99              		.loc 1 82 0 discriminator 6
 100 0054 019B     		ldr	r3, [sp, #4]
 101 0056 5B69     		ldr	r3, [r3, #20]
 102 0058 0593     		str	r3, [sp, #20]
 103 005a 019B     		ldr	r3, [sp, #4]
 104 005c 0022     		movs	r2, #0
 105 005e 5A61     		str	r2, [r3, #20]
 106 0060 059B     		ldr	r3, [sp, #20]
ARM GAS  /tmp/cc2xpVSZ.s 			page 3


 107 0062 4FF0FF32 		mov	r2, #-1
 108 0066 9A62     		str	r2, [r3, #40]
 109 0068 0598     		ldr	r0, [sp, #20]
 110 006a FFF7FEFF 		bl	chSchReadyI
 111              	.L4:
 112              	.LBE2:
 113              		.loc 1 82 0 discriminator 8
 114              	@ 82 "/home/makkmarci/workspace/ChibiOS_2.6.8/os/hal/platforms/STM32F4xx/adc_lld.c" 1
 115 006e FFF7FEFF 		bl      _port_unlock
 116              	@ 0 "" 2
 117              		.thumb
 118 0072 88E0     		b	.L1
 119              	.L2:
 120              		.loc 1 87 0 is_stmt 1
 121 0074 019B     		ldr	r3, [sp, #4]
 122 0076 1B69     		ldr	r3, [r3, #16]
 123 0078 002B     		cmp	r3, #0
 124 007a 00F08480 		beq	.L1
 125              		.loc 1 88 0
 126 007e 009B     		ldr	r3, [sp]
 127 0080 03F02003 		and	r3, r3, #32
 128 0084 002B     		cmp	r3, #0
 129 0086 6AD0     		beq	.L6
 130              		.loc 1 90 0
 131 0088 019B     		ldr	r3, [sp, #4]
 132 008a 1B69     		ldr	r3, [r3, #16]
 133 008c 1B78     		ldrb	r3, [r3]	@ zero_extendqisi2
 134 008e 002B     		cmp	r3, #0
 135 0090 2BD0     		beq	.L7
 136              		.loc 1 90 0 is_stmt 0 discriminator 1
 137 0092 019B     		ldr	r3, [sp, #4]
 138 0094 1B69     		ldr	r3, [r3, #16]
 139 0096 5B68     		ldr	r3, [r3, #4]
 140 0098 002B     		cmp	r3, #0
 141 009a 74D0     		beq	.L1
 142              		.loc 1 90 0 discriminator 3
 143 009c 019B     		ldr	r3, [sp, #4]
 144 009e DB68     		ldr	r3, [r3, #12]
 145 00a0 012B     		cmp	r3, #1
 146 00a2 18D9     		bls	.L9
 147              	.LBB3:
 148              		.loc 1 90 0 discriminator 4
 149 00a4 019B     		ldr	r3, [sp, #4]
 150 00a6 DB68     		ldr	r3, [r3, #12]
 151 00a8 5B08     		lsrs	r3, r3, #1
 152 00aa 0493     		str	r3, [sp, #16]
 153 00ac 019B     		ldr	r3, [sp, #4]
 154 00ae 1B69     		ldr	r3, [r3, #16]
 155 00b0 5B88     		ldrh	r3, [r3, #2]
 156 00b2 1A46     		mov	r2, r3
 157 00b4 049B     		ldr	r3, [sp, #16]
 158 00b6 03FB02F3 		mul	r3, r3, r2
 159 00ba 0393     		str	r3, [sp, #12]
 160 00bc 019B     		ldr	r3, [sp, #4]
 161 00be 1B69     		ldr	r3, [r3, #16]
 162 00c0 5B68     		ldr	r3, [r3, #4]
 163 00c2 019A     		ldr	r2, [sp, #4]
ARM GAS  /tmp/cc2xpVSZ.s 			page 4


 164 00c4 9168     		ldr	r1, [r2, #8]
 165 00c6 039A     		ldr	r2, [sp, #12]
 166 00c8 5200     		lsls	r2, r2, #1
 167 00ca 0A44     		add	r2, r2, r1
 168 00cc 0198     		ldr	r0, [sp, #4]
 169 00ce 1146     		mov	r1, r2
 170 00d0 049A     		ldr	r2, [sp, #16]
 171 00d2 9847     		blx	r3
 172              	.LBE3:
 173 00d4 57E0     		b	.L1
 174              	.L9:
 175              		.loc 1 90 0 discriminator 5
 176 00d6 019B     		ldr	r3, [sp, #4]
 177 00d8 1B69     		ldr	r3, [r3, #16]
 178 00da 5B68     		ldr	r3, [r3, #4]
 179 00dc 019A     		ldr	r2, [sp, #4]
 180 00de 9168     		ldr	r1, [r2, #8]
 181 00e0 019A     		ldr	r2, [sp, #4]
 182 00e2 D268     		ldr	r2, [r2, #12]
 183 00e4 0198     		ldr	r0, [sp, #4]
 184 00e6 9847     		blx	r3
 185 00e8 4DE0     		b	.L1
 186              	.L7:
 187              		.loc 1 90 0 discriminator 2
 188 00ea 0198     		ldr	r0, [sp, #4]
 189 00ec FFF7FEFF 		bl	adc_lld_stop_conversion
 190 00f0 019B     		ldr	r3, [sp, #4]
 191 00f2 1B69     		ldr	r3, [r3, #16]
 192 00f4 5B68     		ldr	r3, [r3, #4]
 193 00f6 002B     		cmp	r3, #0
 194 00f8 16D0     		beq	.L11
 195              		.loc 1 90 0 discriminator 6
 196 00fa 019B     		ldr	r3, [sp, #4]
 197 00fc 0422     		movs	r2, #4
 198 00fe 1A70     		strb	r2, [r3]
 199 0100 019B     		ldr	r3, [sp, #4]
 200 0102 1B69     		ldr	r3, [r3, #16]
 201 0104 5B68     		ldr	r3, [r3, #4]
 202 0106 019A     		ldr	r2, [sp, #4]
 203 0108 9168     		ldr	r1, [r2, #8]
 204 010a 019A     		ldr	r2, [sp, #4]
 205 010c D268     		ldr	r2, [r2, #12]
 206 010e 0198     		ldr	r0, [sp, #4]
 207 0110 9847     		blx	r3
 208 0112 019B     		ldr	r3, [sp, #4]
 209 0114 1B78     		ldrb	r3, [r3]	@ zero_extendqisi2
 210 0116 042B     		cmp	r3, #4
 211 0118 0CD1     		bne	.L13
 212              		.loc 1 90 0 discriminator 8
 213 011a 019B     		ldr	r3, [sp, #4]
 214 011c 0222     		movs	r2, #2
 215 011e 1A70     		strb	r2, [r3]
 216 0120 019B     		ldr	r3, [sp, #4]
 217 0122 0022     		movs	r2, #0
 218 0124 1A61     		str	r2, [r3, #16]
 219 0126 05E0     		b	.L13
 220              	.L11:
ARM GAS  /tmp/cc2xpVSZ.s 			page 5


 221              		.loc 1 90 0 discriminator 7
 222 0128 019B     		ldr	r3, [sp, #4]
 223 012a 0222     		movs	r2, #2
 224 012c 1A70     		strb	r2, [r3]
 225 012e 019B     		ldr	r3, [sp, #4]
 226 0130 0022     		movs	r2, #0
 227 0132 1A61     		str	r2, [r3, #16]
 228              	.L13:
 229              		.loc 1 90 0 discriminator 9
 230              	@ 90 "/home/makkmarci/workspace/ChibiOS_2.6.8/os/hal/platforms/STM32F4xx/adc_lld.c" 1
 231 0134 FFF7FEFF 		bl      _port_lock
 232              	@ 0 "" 2
 233              		.thumb
 234 0138 019B     		ldr	r3, [sp, #4]
 235 013a 5B69     		ldr	r3, [r3, #20]
 236 013c 002B     		cmp	r3, #0
 237 013e 0BD0     		beq	.L14
 238              	.LBB4:
 239              		.loc 1 90 0 discriminator 10
 240 0140 019B     		ldr	r3, [sp, #4]
 241 0142 5B69     		ldr	r3, [r3, #20]
 242 0144 0293     		str	r3, [sp, #8]
 243 0146 019B     		ldr	r3, [sp, #4]
 244 0148 0022     		movs	r2, #0
 245 014a 5A61     		str	r2, [r3, #20]
 246 014c 029B     		ldr	r3, [sp, #8]
 247 014e 0022     		movs	r2, #0
 248 0150 9A62     		str	r2, [r3, #40]
 249 0152 0298     		ldr	r0, [sp, #8]
 250 0154 FFF7FEFF 		bl	chSchReadyI
 251              	.L14:
 252              	.LBE4:
 253              		.loc 1 90 0 discriminator 12
 254              	@ 90 "/home/makkmarci/workspace/ChibiOS_2.6.8/os/hal/platforms/STM32F4xx/adc_lld.c" 1
 255 0158 FFF7FEFF 		bl      _port_unlock
 256              	@ 0 "" 2
 257              		.thumb
 258 015c 13E0     		b	.L1
 259              	.L6:
 260              		.loc 1 92 0 is_stmt 1
 261 015e 009B     		ldr	r3, [sp]
 262 0160 03F01003 		and	r3, r3, #16
 263 0164 002B     		cmp	r3, #0
 264 0166 0ED0     		beq	.L1
 265              		.loc 1 94 0
 266 0168 019B     		ldr	r3, [sp, #4]
 267 016a 1B69     		ldr	r3, [r3, #16]
 268 016c 5B68     		ldr	r3, [r3, #4]
 269 016e 002B     		cmp	r3, #0
 270 0170 09D0     		beq	.L1
 271              		.loc 1 94 0 is_stmt 0 discriminator 1
 272 0172 019B     		ldr	r3, [sp, #4]
 273 0174 1B69     		ldr	r3, [r3, #16]
 274 0176 5B68     		ldr	r3, [r3, #4]
 275 0178 019A     		ldr	r2, [sp, #4]
 276 017a 9168     		ldr	r1, [r2, #8]
 277 017c 019A     		ldr	r2, [sp, #4]
ARM GAS  /tmp/cc2xpVSZ.s 			page 6


 278 017e D268     		ldr	r2, [r2, #12]
 279 0180 5208     		lsrs	r2, r2, #1
 280 0182 0198     		ldr	r0, [sp, #4]
 281 0184 9847     		blx	r3
 282              	.L1:
 283              		.loc 1 98 0 is_stmt 1
 284 0186 07B0     		add	sp, sp, #28
 285              		.cfi_def_cfa_offset 4
 286              		@ sp needed
 287 0188 5DF804FB 		ldr	pc, [sp], #4
 288              		.cfi_endproc
 289              	.LFE111:
 290              		.size	adc_lld_serve_rx_interrupt, .-adc_lld_serve_rx_interrupt
 291 018c AFF30080 		.section	.text.Vector88,"ax",%progbits
 292              		.align	2
 293              		.p2align 4,,15
 294              		.global	Vector88
 295              		.thumb
 296              		.thumb_func
 297              		.type	Vector88, %function
 298              	Vector88:
 299              	.LFB112:
 300              		.loc 1 111 0
 301              		.cfi_startproc
 302              		@ args = 0, pretend = 0, frame = 16
 303              		@ frame_needed = 0, uses_anonymous_args = 0
 304 0000 00B5     		push	{lr}
 305              		.cfi_def_cfa_offset 4
 306              		.cfi_offset 14, -4
 307 0002 85B0     		sub	sp, sp, #20
 308              		.cfi_def_cfa_offset 24
 309              		.loc 1 117 0
 310 0004 474B     		ldr	r3, .L22
 311 0006 1B68     		ldr	r3, [r3]
 312 0008 0393     		str	r3, [sp, #12]
 313              		.loc 1 118 0
 314 000a 464B     		ldr	r3, .L22
 315 000c 0022     		movs	r2, #0
 316 000e 1A60     		str	r2, [r3]
 317              		.loc 1 121 0
 318 0010 039B     		ldr	r3, [sp, #12]
 319 0012 03F02003 		and	r3, r3, #32
 320 0016 002B     		cmp	r3, #0
 321 0018 39D0     		beq	.L16
 322              		.loc 1 121 0 is_stmt 0 discriminator 1
 323 001a 434B     		ldr	r3, .L22+4
 324 001c DB6A     		ldr	r3, [r3, #44]
 325 001e 1B68     		ldr	r3, [r3]
 326 0020 5B68     		ldr	r3, [r3, #4]
 327 0022 002B     		cmp	r3, #0
 328 0024 33D0     		beq	.L16
 329              		.loc 1 124 0 is_stmt 1
 330 0026 404B     		ldr	r3, .L22+4
 331 0028 1B69     		ldr	r3, [r3, #16]
 332 002a 002B     		cmp	r3, #0
 333 002c 2FD0     		beq	.L16
 334              		.loc 1 125 0
ARM GAS  /tmp/cc2xpVSZ.s 			page 7


 335 002e 3E48     		ldr	r0, .L22+4
 336 0030 FFF7FEFF 		bl	adc_lld_stop_conversion
 337 0034 3C4B     		ldr	r3, .L22+4
 338 0036 1B69     		ldr	r3, [r3, #16]
 339 0038 9B68     		ldr	r3, [r3, #8]
 340 003a 002B     		cmp	r3, #0
 341 003c 0FD0     		beq	.L17
 342              		.loc 1 125 0 is_stmt 0 discriminator 1
 343 003e 3A4B     		ldr	r3, .L22+4
 344 0040 0522     		movs	r2, #5
 345 0042 1A70     		strb	r2, [r3]
 346 0044 384B     		ldr	r3, .L22+4
 347 0046 1B69     		ldr	r3, [r3, #16]
 348 0048 9B68     		ldr	r3, [r3, #8]
 349 004a 3748     		ldr	r0, .L22+4
 350 004c 0121     		movs	r1, #1
 351 004e 9847     		blx	r3
 352 0050 354B     		ldr	r3, .L22+4
 353 0052 1B78     		ldrb	r3, [r3]	@ zero_extendqisi2
 354 0054 052B     		cmp	r3, #5
 355 0056 02D1     		bne	.L17
 356              		.loc 1 125 0 discriminator 3
 357 0058 334B     		ldr	r3, .L22+4
 358 005a 0222     		movs	r2, #2
 359 005c 1A70     		strb	r2, [r3]
 360              	.L17:
 361              		.loc 1 125 0 discriminator 5
 362 005e 324B     		ldr	r3, .L22+4
 363 0060 0022     		movs	r2, #0
 364 0062 1A61     		str	r2, [r3, #16]
 365              	@ 125 "/home/makkmarci/workspace/ChibiOS_2.6.8/os/hal/platforms/STM32F4xx/adc_lld.c" 1
 366 0064 FFF7FEFF 		bl      _port_lock
 367              	@ 0 "" 2
 368              		.thumb
 369 0068 2F4B     		ldr	r3, .L22+4
 370 006a 5B69     		ldr	r3, [r3, #20]
 371 006c 002B     		cmp	r3, #0
 372 006e 0CD0     		beq	.L18
 373              	.LBB5:
 374              		.loc 1 125 0 discriminator 6
 375 0070 2D4B     		ldr	r3, .L22+4
 376 0072 5B69     		ldr	r3, [r3, #20]
 377 0074 0293     		str	r3, [sp, #8]
 378 0076 2C4B     		ldr	r3, .L22+4
 379 0078 0022     		movs	r2, #0
 380 007a 5A61     		str	r2, [r3, #20]
 381 007c 029B     		ldr	r3, [sp, #8]
 382 007e 4FF0FF32 		mov	r2, #-1
 383 0082 9A62     		str	r2, [r3, #40]
 384 0084 0298     		ldr	r0, [sp, #8]
 385 0086 FFF7FEFF 		bl	chSchReadyI
 386              	.L18:
 387              	.LBE5:
 388              		.loc 1 125 0 discriminator 8
 389              	@ 125 "/home/makkmarci/workspace/ChibiOS_2.6.8/os/hal/platforms/STM32F4xx/adc_lld.c" 1
 390 008a FFF7FEFF 		bl      _port_unlock
 391              	@ 0 "" 2
ARM GAS  /tmp/cc2xpVSZ.s 			page 8


 392              		.thumb
 393              	.L16:
 394              		.loc 1 131 0 is_stmt 1
 395 008e 274B     		ldr	r3, .L22+8
 396 0090 1B68     		ldr	r3, [r3]
 397 0092 0393     		str	r3, [sp, #12]
 398              		.loc 1 132 0
 399 0094 254B     		ldr	r3, .L22+8
 400 0096 0022     		movs	r2, #0
 401 0098 1A60     		str	r2, [r3]
 402              		.loc 1 135 0
 403 009a 039B     		ldr	r3, [sp, #12]
 404 009c 03F02003 		and	r3, r3, #32
 405 00a0 002B     		cmp	r3, #0
 406 00a2 39D0     		beq	.L19
 407              		.loc 1 135 0 is_stmt 0 discriminator 1
 408 00a4 224B     		ldr	r3, .L22+12
 409 00a6 DB6A     		ldr	r3, [r3, #44]
 410 00a8 1B68     		ldr	r3, [r3]
 411 00aa 5B68     		ldr	r3, [r3, #4]
 412 00ac 002B     		cmp	r3, #0
 413 00ae 33D0     		beq	.L19
 414              		.loc 1 138 0 is_stmt 1
 415 00b0 1F4B     		ldr	r3, .L22+12
 416 00b2 1B69     		ldr	r3, [r3, #16]
 417 00b4 002B     		cmp	r3, #0
 418 00b6 2FD0     		beq	.L19
 419              		.loc 1 139 0
 420 00b8 1D48     		ldr	r0, .L22+12
 421 00ba FFF7FEFF 		bl	adc_lld_stop_conversion
 422 00be 1C4B     		ldr	r3, .L22+12
 423 00c0 1B69     		ldr	r3, [r3, #16]
 424 00c2 9B68     		ldr	r3, [r3, #8]
 425 00c4 002B     		cmp	r3, #0
 426 00c6 0FD0     		beq	.L20
 427              		.loc 1 139 0 is_stmt 0 discriminator 1
 428 00c8 194B     		ldr	r3, .L22+12
 429 00ca 0522     		movs	r2, #5
 430 00cc 1A70     		strb	r2, [r3]
 431 00ce 184B     		ldr	r3, .L22+12
 432 00d0 1B69     		ldr	r3, [r3, #16]
 433 00d2 9B68     		ldr	r3, [r3, #8]
 434 00d4 1648     		ldr	r0, .L22+12
 435 00d6 0121     		movs	r1, #1
 436 00d8 9847     		blx	r3
 437 00da 154B     		ldr	r3, .L22+12
 438 00dc 1B78     		ldrb	r3, [r3]	@ zero_extendqisi2
 439 00de 052B     		cmp	r3, #5
 440 00e0 02D1     		bne	.L20
 441              		.loc 1 139 0 discriminator 3
 442 00e2 134B     		ldr	r3, .L22+12
 443 00e4 0222     		movs	r2, #2
 444 00e6 1A70     		strb	r2, [r3]
 445              	.L20:
 446              		.loc 1 139 0 discriminator 5
 447 00e8 114B     		ldr	r3, .L22+12
 448 00ea 0022     		movs	r2, #0
ARM GAS  /tmp/cc2xpVSZ.s 			page 9


 449 00ec 1A61     		str	r2, [r3, #16]
 450              	@ 139 "/home/makkmarci/workspace/ChibiOS_2.6.8/os/hal/platforms/STM32F4xx/adc_lld.c" 1
 451 00ee FFF7FEFF 		bl      _port_lock
 452              	@ 0 "" 2
 453              		.thumb
 454 00f2 0F4B     		ldr	r3, .L22+12
 455 00f4 5B69     		ldr	r3, [r3, #20]
 456 00f6 002B     		cmp	r3, #0
 457 00f8 0CD0     		beq	.L21
 458              	.LBB6:
 459              		.loc 1 139 0 discriminator 6
 460 00fa 0D4B     		ldr	r3, .L22+12
 461 00fc 5B69     		ldr	r3, [r3, #20]
 462 00fe 0193     		str	r3, [sp, #4]
 463 0100 0B4B     		ldr	r3, .L22+12
 464 0102 0022     		movs	r2, #0
 465 0104 5A61     		str	r2, [r3, #20]
 466 0106 019B     		ldr	r3, [sp, #4]
 467 0108 4FF0FF32 		mov	r2, #-1
 468 010c 9A62     		str	r2, [r3, #40]
 469 010e 0198     		ldr	r0, [sp, #4]
 470 0110 FFF7FEFF 		bl	chSchReadyI
 471              	.L21:
 472              	.LBE6:
 473              		.loc 1 139 0 discriminator 8
 474              	@ 139 "/home/makkmarci/workspace/ChibiOS_2.6.8/os/hal/platforms/STM32F4xx/adc_lld.c" 1
 475 0114 FFF7FEFF 		bl      _port_unlock
 476              	@ 0 "" 2
 477              		.thumb
 478              	.L19:
 479              		.loc 1 158 0 is_stmt 1
 480 0118 FFF7FEFF 		bl	_port_irq_epilogue
 481              		.loc 1 159 0
 482 011c 05B0     		add	sp, sp, #20
 483              		.cfi_def_cfa_offset 4
 484              		@ sp needed
 485 011e 5DF804FB 		ldr	pc, [sp], #4
 486              	.L23:
 487 0122 00BF     		.align	2
 488              	.L22:
 489 0124 00200140 		.word	1073815552
 490 0128 00000000 		.word	ADCD1
 491 012c 00210140 		.word	1073815808
 492 0130 00000000 		.word	ADCD2
 493              		.cfi_endproc
 494              	.LFE112:
 495              		.size	Vector88, .-Vector88
 496 0134 AFF30080 		.section	.text.adc_lld_init,"ax",%progbits
 496      AFF30080 
 496      AFF30080 
 497              		.align	2
 498              		.p2align 4,,15
 499              		.global	adc_lld_init
 500              		.thumb
 501              		.thumb_func
 502              		.type	adc_lld_init, %function
 503              	adc_lld_init:
ARM GAS  /tmp/cc2xpVSZ.s 			page 10


 504              	.LFB113:
 505              		.loc 1 171 0
 506              		.cfi_startproc
 507              		@ args = 0, pretend = 0, frame = 0
 508              		@ frame_needed = 0, uses_anonymous_args = 0
 509 0000 08B5     		push	{r3, lr}
 510              		.cfi_def_cfa_offset 8
 511              		.cfi_offset 3, -8
 512              		.cfi_offset 14, -4
 513              		.loc 1 175 0
 514 0002 0E48     		ldr	r0, .L25
 515 0004 FFF7FEFF 		bl	adcObjectInit
 516              		.loc 1 176 0
 517 0008 0C4B     		ldr	r3, .L25
 518 000a 0D4A     		ldr	r2, .L25+4
 519 000c 9A62     		str	r2, [r3, #40]
 520              		.loc 1 177 0
 521 000e 0B4B     		ldr	r3, .L25
 522 0010 0C4A     		ldr	r2, .L25+8
 523 0012 DA62     		str	r2, [r3, #44]
 524              		.loc 1 178 0
 525 0014 094B     		ldr	r3, .L25
 526 0016 0C4A     		ldr	r2, .L25+12
 527 0018 1A63     		str	r2, [r3, #48]
 528              		.loc 1 188 0
 529 001a 0C48     		ldr	r0, .L25+16
 530 001c FFF7FEFF 		bl	adcObjectInit
 531              		.loc 1 189 0
 532 0020 0A4B     		ldr	r3, .L25+16
 533 0022 0B4A     		ldr	r2, .L25+20
 534 0024 9A62     		str	r2, [r3, #40]
 535              		.loc 1 190 0
 536 0026 094B     		ldr	r3, .L25+16
 537 0028 0A4A     		ldr	r2, .L25+24
 538 002a DA62     		str	r2, [r3, #44]
 539              		.loc 1 191 0
 540 002c 074B     		ldr	r3, .L25+16
 541 002e 0A4A     		ldr	r2, .L25+28
 542 0030 1A63     		str	r2, [r3, #48]
 543              		.loc 1 214 0
 544 0032 1220     		movs	r0, #18
 545 0034 6021     		movs	r1, #96
 546 0036 FFF7FEFF 		bl	nvicEnableVector
 547              		.loc 1 215 0
 548 003a 08BD     		pop	{r3, pc}
 549              	.L26:
 550              		.align	2
 551              	.L25:
 552 003c 00000000 		.word	ADCD1
 553 0040 00200140 		.word	1073815552
 554 0044 90000000 		.word	_stm32_dma_streams+144
 555 0048 162C0200 		.word	142358
 556 004c 00000000 		.word	ADCD2
 557 0050 00210140 		.word	1073815808
 558 0054 78000000 		.word	_stm32_dma_streams+120
 559 0058 162C0202 		.word	33696790
 560              		.cfi_endproc
ARM GAS  /tmp/cc2xpVSZ.s 			page 11


 561              	.LFE113:
 562              		.size	adc_lld_init, .-adc_lld_init
 563 005c AFF30080 		.section	.rodata
 564              		.align	2
 565              	.LC0:
 566 0000 6164635F 		.ascii	"adc_lld_start(), #1\000"
 566      6C6C645F 
 566      73746172 
 566      7428292C 
 566      20233100 
 567              		.align	2
 568              	.LC1:
 569 0014 6164635F 		.ascii	"adc_lld_start(), #2\000"
 569      6C6C645F 
 569      73746172 
 569      7428292C 
 569      20233200 
 570              		.section	.text.adc_lld_start,"ax",%progbits
 571              		.align	2
 572              		.p2align 4,,15
 573              		.global	adc_lld_start
 574              		.thumb
 575              		.thumb_func
 576              		.type	adc_lld_start, %function
 577              	adc_lld_start:
 578              	.LFB114:
 579              		.loc 1 224 0
 580              		.cfi_startproc
 581              		@ args = 0, pretend = 0, frame = 16
 582              		@ frame_needed = 0, uses_anonymous_args = 0
 583 0000 00B5     		push	{lr}
 584              		.cfi_def_cfa_offset 4
 585              		.cfi_offset 14, -4
 586 0002 85B0     		sub	sp, sp, #20
 587              		.cfi_def_cfa_offset 24
 588 0004 0190     		str	r0, [sp, #4]
 589              		.loc 1 227 0
 590 0006 019B     		ldr	r3, [sp, #4]
 591 0008 1B78     		ldrb	r3, [r3]	@ zero_extendqisi2
 592 000a 012B     		cmp	r3, #1
 593 000c 55D1     		bne	.L27
 594              		.loc 1 229 0
 595 000e 019B     		ldr	r3, [sp, #4]
 596 0010 2B4A     		ldr	r2, .L33
 597 0012 9342     		cmp	r3, r2
 598 0014 1CD1     		bne	.L29
 599              	.LBB7:
 600              		.loc 1 231 0
 601 0016 019B     		ldr	r3, [sp, #4]
 602 0018 DB6A     		ldr	r3, [r3, #44]
 603 001a 1846     		mov	r0, r3
 604 001c 0621     		movs	r1, #6
 605 001e 294A     		ldr	r2, .L33+4
 606 0020 019B     		ldr	r3, [sp, #4]
 607 0022 FFF7FEFF 		bl	dmaStreamAllocate
 608 0026 0346     		mov	r3, r0
 609 0028 8DF80F30 		strb	r3, [sp, #15]
ARM GAS  /tmp/cc2xpVSZ.s 			page 12


 610              		.loc 1 235 0
 611 002c 9DF80F30 		ldrb	r3, [sp, #15]	@ zero_extendqisi2
 612 0030 002B     		cmp	r3, #0
 613 0032 02D0     		beq	.L30
 614              		.loc 1 235 0 is_stmt 0 discriminator 1
 615 0034 2448     		ldr	r0, .L33+8
 616 0036 FFF7FEFF 		bl	chDbgPanic
 617              	.L30:
 618              		.loc 1 236 0 is_stmt 1
 619 003a 019B     		ldr	r3, [sp, #4]
 620 003c DB6A     		ldr	r3, [r3, #44]
 621 003e 1B68     		ldr	r3, [r3]
 622 0040 224A     		ldr	r2, .L33+12
 623 0042 9A60     		str	r2, [r3, #8]
 624              		.loc 1 237 0
 625 0044 224A     		ldr	r2, .L33+16
 626 0046 224B     		ldr	r3, .L33+16
 627 0048 5B6C     		ldr	r3, [r3, #68]
 628 004a 43F48073 		orr	r3, r3, #256
 629 004e 5364     		str	r3, [r2, #68]
 630              	.L29:
 631              	.LBE7:
 632              		.loc 1 242 0
 633 0050 019B     		ldr	r3, [sp, #4]
 634 0052 204A     		ldr	r2, .L33+20
 635 0054 9342     		cmp	r3, r2
 636 0056 1CD1     		bne	.L31
 637              	.LBB8:
 638              		.loc 1 244 0
 639 0058 019B     		ldr	r3, [sp, #4]
 640 005a DB6A     		ldr	r3, [r3, #44]
 641 005c 1846     		mov	r0, r3
 642 005e 0621     		movs	r1, #6
 643 0060 184A     		ldr	r2, .L33+4
 644 0062 019B     		ldr	r3, [sp, #4]
 645 0064 FFF7FEFF 		bl	dmaStreamAllocate
 646 0068 0346     		mov	r3, r0
 647 006a 8DF80E30 		strb	r3, [sp, #14]
 648              		.loc 1 248 0
 649 006e 9DF80E30 		ldrb	r3, [sp, #14]	@ zero_extendqisi2
 650 0072 002B     		cmp	r3, #0
 651 0074 02D0     		beq	.L32
 652              		.loc 1 248 0 is_stmt 0 discriminator 1
 653 0076 1848     		ldr	r0, .L33+24
 654 0078 FFF7FEFF 		bl	chDbgPanic
 655              	.L32:
 656              		.loc 1 249 0 is_stmt 1
 657 007c 019B     		ldr	r3, [sp, #4]
 658 007e DB6A     		ldr	r3, [r3, #44]
 659 0080 1B68     		ldr	r3, [r3]
 660 0082 164A     		ldr	r2, .L33+28
 661 0084 9A60     		str	r2, [r3, #8]
 662              		.loc 1 250 0
 663 0086 124A     		ldr	r2, .L33+16
 664 0088 114B     		ldr	r3, .L33+16
 665 008a 5B6C     		ldr	r3, [r3, #68]
 666 008c 43F40073 		orr	r3, r3, #512
ARM GAS  /tmp/cc2xpVSZ.s 			page 13


 667 0090 5364     		str	r3, [r2, #68]
 668              	.L31:
 669              	.LBE8:
 670              		.loc 1 269 0
 671 0092 134A     		ldr	r2, .L33+32
 672 0094 124B     		ldr	r3, .L33+32
 673 0096 5B68     		ldr	r3, [r3, #4]
 674 0098 03F44003 		and	r3, r3, #12582912
 675 009c 43F48033 		orr	r3, r3, #65536
 676 00a0 5360     		str	r3, [r2, #4]
 677              		.loc 1 274 0
 678 00a2 019B     		ldr	r3, [sp, #4]
 679 00a4 9B6A     		ldr	r3, [r3, #40]
 680 00a6 0022     		movs	r2, #0
 681 00a8 5A60     		str	r2, [r3, #4]
 682              		.loc 1 275 0
 683 00aa 019B     		ldr	r3, [sp, #4]
 684 00ac 9B6A     		ldr	r3, [r3, #40]
 685 00ae 0022     		movs	r2, #0
 686 00b0 9A60     		str	r2, [r3, #8]
 687              		.loc 1 276 0
 688 00b2 019B     		ldr	r3, [sp, #4]
 689 00b4 9B6A     		ldr	r3, [r3, #40]
 690 00b6 0122     		movs	r2, #1
 691 00b8 9A60     		str	r2, [r3, #8]
 692              	.L27:
 693              		.loc 1 278 0
 694 00ba 05B0     		add	sp, sp, #20
 695              		.cfi_def_cfa_offset 4
 696              		@ sp needed
 697 00bc 5DF804FB 		ldr	pc, [sp], #4
 698              	.L34:
 699              		.align	2
 700              	.L33:
 701 00c0 00000000 		.word	ADCD1
 702 00c4 00000000 		.word	adc_lld_serve_rx_interrupt
 703 00c8 00000000 		.word	.LC0
 704 00cc 4C200140 		.word	1073815628
 705 00d0 00380240 		.word	1073887232
 706 00d4 00000000 		.word	ADCD2
 707 00d8 14000000 		.word	.LC1
 708 00dc 4C210140 		.word	1073815884
 709 00e0 00230140 		.word	1073816320
 710              		.cfi_endproc
 711              	.LFE114:
 712              		.size	adc_lld_start, .-adc_lld_start
 713 00e4 AFF30080 		.section	.text.adc_lld_stop,"ax",%progbits
 713      AFF30080 
 713      AFF30080 
 714              		.align	2
 715              		.p2align 4,,15
 716              		.global	adc_lld_stop
 717              		.thumb
 718              		.thumb_func
 719              		.type	adc_lld_stop, %function
 720              	adc_lld_stop:
 721              	.LFB115:
ARM GAS  /tmp/cc2xpVSZ.s 			page 14


 722              		.loc 1 287 0
 723              		.cfi_startproc
 724              		@ args = 0, pretend = 0, frame = 8
 725              		@ frame_needed = 0, uses_anonymous_args = 0
 726 0000 00B5     		push	{lr}
 727              		.cfi_def_cfa_offset 4
 728              		.cfi_offset 14, -4
 729 0002 83B0     		sub	sp, sp, #12
 730              		.cfi_def_cfa_offset 16
 731 0004 0190     		str	r0, [sp, #4]
 732              		.loc 1 290 0
 733 0006 019B     		ldr	r3, [sp, #4]
 734 0008 1B78     		ldrb	r3, [r3]	@ zero_extendqisi2
 735 000a 022B     		cmp	r3, #2
 736 000c 20D1     		bne	.L35
 737              		.loc 1 291 0
 738 000e 019B     		ldr	r3, [sp, #4]
 739 0010 DB6A     		ldr	r3, [r3, #44]
 740 0012 1846     		mov	r0, r3
 741 0014 FFF7FEFF 		bl	dmaStreamRelease
 742              		.loc 1 292 0
 743 0018 019B     		ldr	r3, [sp, #4]
 744 001a 9B6A     		ldr	r3, [r3, #40]
 745 001c 0022     		movs	r2, #0
 746 001e 5A60     		str	r2, [r3, #4]
 747              		.loc 1 293 0
 748 0020 019B     		ldr	r3, [sp, #4]
 749 0022 9B6A     		ldr	r3, [r3, #40]
 750 0024 0022     		movs	r2, #0
 751 0026 9A60     		str	r2, [r3, #8]
 752              		.loc 1 296 0
 753 0028 019B     		ldr	r3, [sp, #4]
 754 002a 0B4A     		ldr	r2, .L38
 755 002c 9342     		cmp	r3, r2
 756 002e 05D1     		bne	.L37
 757              		.loc 1 297 0
 758 0030 0A4A     		ldr	r2, .L38+4
 759 0032 0A4B     		ldr	r3, .L38+4
 760 0034 5B6C     		ldr	r3, [r3, #68]
 761 0036 23F48073 		bic	r3, r3, #256
 762 003a 5364     		str	r3, [r2, #68]
 763              	.L37:
 764              		.loc 1 301 0
 765 003c 019B     		ldr	r3, [sp, #4]
 766 003e 084A     		ldr	r2, .L38+8
 767 0040 9342     		cmp	r3, r2
 768 0042 05D1     		bne	.L35
 769              		.loc 1 302 0
 770 0044 054A     		ldr	r2, .L38+4
 771 0046 054B     		ldr	r3, .L38+4
 772 0048 5B6C     		ldr	r3, [r3, #68]
 773 004a 23F40073 		bic	r3, r3, #512
 774 004e 5364     		str	r3, [r2, #68]
 775              	.L35:
 776              		.loc 1 310 0
 777 0050 03B0     		add	sp, sp, #12
 778              		.cfi_def_cfa_offset 4
ARM GAS  /tmp/cc2xpVSZ.s 			page 15


 779              		@ sp needed
 780 0052 5DF804FB 		ldr	pc, [sp], #4
 781              	.L39:
 782 0056 00BF     		.align	2
 783              	.L38:
 784 0058 00000000 		.word	ADCD1
 785 005c 00380240 		.word	1073887232
 786 0060 00000000 		.word	ADCD2
 787              		.cfi_endproc
 788              	.LFE115:
 789              		.size	adc_lld_stop, .-adc_lld_stop
 790 0064 AFF30080 		.section	.text.adc_lld_start_conversion,"ax",%progbits
 790      AFF30080 
 790      AFF30080 
 791              		.align	2
 792              		.p2align 4,,15
 793              		.global	adc_lld_start_conversion
 794              		.thumb
 795              		.thumb_func
 796              		.type	adc_lld_start_conversion, %function
 797              	adc_lld_start_conversion:
 798              	.LFB116:
 799              		.loc 1 319 0
 800              		.cfi_startproc
 801              		@ args = 0, pretend = 0, frame = 24
 802              		@ frame_needed = 0, uses_anonymous_args = 0
 803              		@ link register save eliminated.
 804 0000 86B0     		sub	sp, sp, #24
 805              		.cfi_def_cfa_offset 24
 806 0002 0190     		str	r0, [sp, #4]
 807              		.loc 1 322 0
 808 0004 019B     		ldr	r3, [sp, #4]
 809 0006 1B69     		ldr	r3, [r3, #16]
 810 0008 0493     		str	r3, [sp, #16]
 811              		.loc 1 325 0
 812 000a 019B     		ldr	r3, [sp, #4]
 813 000c 1B6B     		ldr	r3, [r3, #48]
 814 000e 0593     		str	r3, [sp, #20]
 815              		.loc 1 326 0
 816 0010 049B     		ldr	r3, [sp, #16]
 817 0012 1B78     		ldrb	r3, [r3]	@ zero_extendqisi2
 818 0014 002B     		cmp	r3, #0
 819 0016 0BD0     		beq	.L41
 820              		.loc 1 327 0
 821 0018 059B     		ldr	r3, [sp, #20]
 822 001a 43F48073 		orr	r3, r3, #256
 823 001e 0593     		str	r3, [sp, #20]
 824              		.loc 1 328 0
 825 0020 019B     		ldr	r3, [sp, #4]
 826 0022 DB68     		ldr	r3, [r3, #12]
 827 0024 012B     		cmp	r3, #1
 828 0026 03D9     		bls	.L41
 829              		.loc 1 331 0
 830 0028 059B     		ldr	r3, [sp, #20]
 831 002a 43F00803 		orr	r3, r3, #8
 832 002e 0593     		str	r3, [sp, #20]
 833              	.L41:
ARM GAS  /tmp/cc2xpVSZ.s 			page 16


 834              		.loc 1 334 0
 835 0030 019B     		ldr	r3, [sp, #4]
 836 0032 DB6A     		ldr	r3, [r3, #44]
 837 0034 1B68     		ldr	r3, [r3]
 838 0036 019A     		ldr	r2, [sp, #4]
 839 0038 9268     		ldr	r2, [r2, #8]
 840 003a DA60     		str	r2, [r3, #12]
 841              		.loc 1 335 0
 842 003c 019B     		ldr	r3, [sp, #4]
 843 003e DB6A     		ldr	r3, [r3, #44]
 844 0040 1B68     		ldr	r3, [r3]
 845 0042 049A     		ldr	r2, [sp, #16]
 846 0044 5288     		ldrh	r2, [r2, #2]
 847 0046 1146     		mov	r1, r2
 848 0048 019A     		ldr	r2, [sp, #4]
 849 004a D268     		ldr	r2, [r2, #12]
 850 004c 02FB01F2 		mul	r2, r2, r1
 851 0050 5A60     		str	r2, [r3, #4]
 852              		.loc 1 337 0
 853 0052 019B     		ldr	r3, [sp, #4]
 854 0054 DB6A     		ldr	r3, [r3, #44]
 855 0056 1B68     		ldr	r3, [r3]
 856 0058 059A     		ldr	r2, [sp, #20]
 857 005a 1A60     		str	r2, [r3]
 858              		.loc 1 338 0
 859 005c 019B     		ldr	r3, [sp, #4]
 860 005e DB6A     		ldr	r3, [r3, #44]
 861 0060 1B68     		ldr	r3, [r3]
 862 0062 019A     		ldr	r2, [sp, #4]
 863 0064 D26A     		ldr	r2, [r2, #44]
 864 0066 1268     		ldr	r2, [r2]
 865 0068 1268     		ldr	r2, [r2]
 866 006a 42F00102 		orr	r2, r2, #1
 867 006e 1A60     		str	r2, [r3]
 868              		.loc 1 341 0
 869 0070 019B     		ldr	r3, [sp, #4]
 870 0072 9B6A     		ldr	r3, [r3, #40]
 871 0074 0022     		movs	r2, #0
 872 0076 1A60     		str	r2, [r3]
 873              		.loc 1 342 0
 874 0078 019B     		ldr	r3, [sp, #4]
 875 007a 9B6A     		ldr	r3, [r3, #40]
 876 007c 049A     		ldr	r2, [sp, #16]
 877 007e 5269     		ldr	r2, [r2, #20]
 878 0080 DA60     		str	r2, [r3, #12]
 879              		.loc 1 343 0
 880 0082 019B     		ldr	r3, [sp, #4]
 881 0084 9B6A     		ldr	r3, [r3, #40]
 882 0086 049A     		ldr	r2, [sp, #16]
 883 0088 9269     		ldr	r2, [r2, #24]
 884 008a 1A61     		str	r2, [r3, #16]
 885              		.loc 1 344 0
 886 008c 019B     		ldr	r3, [sp, #4]
 887 008e 9B6A     		ldr	r3, [r3, #40]
 888 0090 049A     		ldr	r2, [sp, #16]
 889 0092 D269     		ldr	r2, [r2, #28]
 890 0094 DA62     		str	r2, [r3, #44]
ARM GAS  /tmp/cc2xpVSZ.s 			page 17


 891              		.loc 1 345 0
 892 0096 019B     		ldr	r3, [sp, #4]
 893 0098 9B6A     		ldr	r3, [r3, #40]
 894 009a 049A     		ldr	r2, [sp, #16]
 895 009c 126A     		ldr	r2, [r2, #32]
 896 009e 1A63     		str	r2, [r3, #48]
 897              		.loc 1 346 0
 898 00a0 019B     		ldr	r3, [sp, #4]
 899 00a2 9B6A     		ldr	r3, [r3, #40]
 900 00a4 049A     		ldr	r2, [sp, #16]
 901 00a6 526A     		ldr	r2, [r2, #36]
 902 00a8 5A63     		str	r2, [r3, #52]
 903              		.loc 1 349 0
 904 00aa 019B     		ldr	r3, [sp, #4]
 905 00ac 9A6A     		ldr	r2, [r3, #40]
 906 00ae 049B     		ldr	r3, [sp, #16]
 907 00b0 DB68     		ldr	r3, [r3, #12]
 908 00b2 43F08063 		orr	r3, r3, #67108864
 909 00b6 43F48073 		orr	r3, r3, #256
 910 00ba 5360     		str	r3, [r2, #4]
 911              		.loc 1 352 0
 912 00bc 049B     		ldr	r3, [sp, #16]
 913 00be 1B69     		ldr	r3, [r3, #16]
 914 00c0 43F44073 		orr	r3, r3, #768
 915 00c4 43F00103 		orr	r3, r3, #1
 916 00c8 0393     		str	r3, [sp, #12]
 917              		.loc 1 356 0
 918 00ca 039B     		ldr	r3, [sp, #12]
 919 00cc 03F08043 		and	r3, r3, #1073741824
 920 00d0 002B     		cmp	r3, #0
 921 00d2 10D0     		beq	.L42
 922              		.loc 1 358 0
 923 00d4 019B     		ldr	r3, [sp, #4]
 924 00d6 9A6A     		ldr	r2, [r3, #40]
 925 00d8 039B     		ldr	r3, [sp, #12]
 926 00da 23F08043 		bic	r3, r3, #1073741824
 927 00de 23F00203 		bic	r3, r3, #2
 928 00e2 43F00203 		orr	r3, r3, #2
 929 00e6 9360     		str	r3, [r2, #8]
 930              		.loc 1 361 0
 931 00e8 019B     		ldr	r3, [sp, #4]
 932 00ea 9B6A     		ldr	r3, [r3, #40]
 933 00ec 039A     		ldr	r2, [sp, #12]
 934 00ee 42F00202 		orr	r2, r2, #2
 935 00f2 9A60     		str	r2, [r3, #8]
 936 00f4 03E0     		b	.L40
 937              	.L42:
 938              		.loc 1 364 0
 939 00f6 019B     		ldr	r3, [sp, #4]
 940 00f8 9B6A     		ldr	r3, [r3, #40]
 941 00fa 039A     		ldr	r2, [sp, #12]
 942 00fc 9A60     		str	r2, [r3, #8]
 943              	.L40:
 944              		.loc 1 365 0
 945 00fe 06B0     		add	sp, sp, #24
 946              		.cfi_def_cfa_offset 0
 947              		@ sp needed
ARM GAS  /tmp/cc2xpVSZ.s 			page 18


 948 0100 7047     		bx	lr
 949              		.cfi_endproc
 950              	.LFE116:
 951              		.size	adc_lld_start_conversion, .-adc_lld_start_conversion
 952 0102 00BFAFF3 		.section	.text.adc_lld_stop_conversion,"ax",%progbits
 952      0080AFF3 
 952      0080AFF3 
 952      0080
 953              		.align	2
 954              		.p2align 4,,15
 955              		.global	adc_lld_stop_conversion
 956              		.thumb
 957              		.thumb_func
 958              		.type	adc_lld_stop_conversion, %function
 959              	adc_lld_stop_conversion:
 960              	.LFB117:
 961              		.loc 1 374 0
 962              		.cfi_startproc
 963              		@ args = 0, pretend = 0, frame = 8
 964              		@ frame_needed = 0, uses_anonymous_args = 0
 965              		@ link register save eliminated.
 966 0000 82B0     		sub	sp, sp, #8
 967              		.cfi_def_cfa_offset 8
 968 0002 0190     		str	r0, [sp, #4]
 969              		.loc 1 376 0
 970 0004 019B     		ldr	r3, [sp, #4]
 971 0006 DB6A     		ldr	r3, [r3, #44]
 972 0008 1B68     		ldr	r3, [r3]
 973 000a 019A     		ldr	r2, [sp, #4]
 974 000c D26A     		ldr	r2, [r2, #44]
 975 000e 1268     		ldr	r2, [r2]
 976 0010 1268     		ldr	r2, [r2]
 977 0012 22F01F02 		bic	r2, r2, #31
 978 0016 1A60     		str	r2, [r3]
 979 0018 00BF     		nop
 980              	.L45:
 981              		.loc 1 376 0 is_stmt 0 discriminator 2
 982 001a 019B     		ldr	r3, [sp, #4]
 983 001c DB6A     		ldr	r3, [r3, #44]
 984 001e 1B68     		ldr	r3, [r3]
 985 0020 1B68     		ldr	r3, [r3]
 986 0022 03F00103 		and	r3, r3, #1
 987 0026 002B     		cmp	r3, #0
 988 0028 F7D1     		bne	.L45
 989              		.loc 1 376 0 discriminator 3
 990 002a 019B     		ldr	r3, [sp, #4]
 991 002c DB6A     		ldr	r3, [r3, #44]
 992 002e 5B68     		ldr	r3, [r3, #4]
 993 0030 019A     		ldr	r2, [sp, #4]
 994 0032 D26A     		ldr	r2, [r2, #44]
 995 0034 127A     		ldrb	r2, [r2, #8]	@ zero_extendqisi2
 996 0036 1146     		mov	r1, r2
 997 0038 3D22     		movs	r2, #61
 998 003a 8A40     		lsls	r2, r2, r1
 999 003c 1A60     		str	r2, [r3]
 1000              		.loc 1 377 0 is_stmt 1 discriminator 3
 1001 003e 019B     		ldr	r3, [sp, #4]
ARM GAS  /tmp/cc2xpVSZ.s 			page 19


 1002 0040 9B6A     		ldr	r3, [r3, #40]
 1003 0042 0022     		movs	r2, #0
 1004 0044 5A60     		str	r2, [r3, #4]
 1005              		.loc 1 378 0 discriminator 3
 1006 0046 019B     		ldr	r3, [sp, #4]
 1007 0048 9B6A     		ldr	r3, [r3, #40]
 1008 004a 0022     		movs	r2, #0
 1009 004c 9A60     		str	r2, [r3, #8]
 1010              		.loc 1 379 0 discriminator 3
 1011 004e 019B     		ldr	r3, [sp, #4]
 1012 0050 9B6A     		ldr	r3, [r3, #40]
 1013 0052 0122     		movs	r2, #1
 1014 0054 9A60     		str	r2, [r3, #8]
 1015              		.loc 1 380 0 discriminator 3
 1016 0056 02B0     		add	sp, sp, #8
 1017              		.cfi_def_cfa_offset 0
 1018              		@ sp needed
 1019 0058 7047     		bx	lr
 1020              		.cfi_endproc
 1021              	.LFE117:
 1022              		.size	adc_lld_stop_conversion, .-adc_lld_stop_conversion
 1023 005a 00BFAFF3 		.section	.text.adcSTM32EnableTSVREFE,"ax",%progbits
 1023      0080
 1024              		.align	2
 1025              		.p2align 4,,15
 1026              		.global	adcSTM32EnableTSVREFE
 1027              		.thumb
 1028              		.thumb_func
 1029              		.type	adcSTM32EnableTSVREFE, %function
 1030              	adcSTM32EnableTSVREFE:
 1031              	.LFB118:
 1032              		.loc 1 388 0
 1033              		.cfi_startproc
 1034              		@ args = 0, pretend = 0, frame = 0
 1035              		@ frame_needed = 0, uses_anonymous_args = 0
 1036              		@ link register save eliminated.
 1037              		.loc 1 390 0
 1038 0000 034A     		ldr	r2, .L47
 1039 0002 034B     		ldr	r3, .L47
 1040 0004 5B68     		ldr	r3, [r3, #4]
 1041 0006 43F40003 		orr	r3, r3, #8388608
 1042 000a 5360     		str	r3, [r2, #4]
 1043              		.loc 1 391 0
 1044 000c 7047     		bx	lr
 1045              	.L48:
 1046 000e 00BF     		.align	2
 1047              	.L47:
 1048 0010 00230140 		.word	1073816320
 1049              		.cfi_endproc
 1050              	.LFE118:
 1051              		.size	adcSTM32EnableTSVREFE, .-adcSTM32EnableTSVREFE
 1052 0014 AFF30080 		.section	.text.adcSTM32DisableTSVREFE,"ax",%progbits
 1052      AFF30080 
 1052      AFF30080 
 1053              		.align	2
 1054              		.p2align 4,,15
 1055              		.global	adcSTM32DisableTSVREFE
ARM GAS  /tmp/cc2xpVSZ.s 			page 20


 1056              		.thumb
 1057              		.thumb_func
 1058              		.type	adcSTM32DisableTSVREFE, %function
 1059              	adcSTM32DisableTSVREFE:
 1060              	.LFB119:
 1061              		.loc 1 399 0
 1062              		.cfi_startproc
 1063              		@ args = 0, pretend = 0, frame = 0
 1064              		@ frame_needed = 0, uses_anonymous_args = 0
 1065              		@ link register save eliminated.
 1066              		.loc 1 401 0
 1067 0000 034A     		ldr	r2, .L50
 1068 0002 034B     		ldr	r3, .L50
 1069 0004 5B68     		ldr	r3, [r3, #4]
 1070 0006 23F40003 		bic	r3, r3, #8388608
 1071 000a 5360     		str	r3, [r2, #4]
 1072              		.loc 1 402 0
 1073 000c 7047     		bx	lr
 1074              	.L51:
 1075 000e 00BF     		.align	2
 1076              	.L50:
 1077 0010 00230140 		.word	1073816320
 1078              		.cfi_endproc
 1079              	.LFE119:
 1080              		.size	adcSTM32DisableTSVREFE, .-adcSTM32DisableTSVREFE
 1081 0014 AFF30080 		.section	.text.adcSTM32EnableVBATE,"ax",%progbits
 1081      AFF30080 
 1081      AFF30080 
 1082              		.align	2
 1083              		.p2align 4,,15
 1084              		.global	adcSTM32EnableVBATE
 1085              		.thumb
 1086              		.thumb_func
 1087              		.type	adcSTM32EnableVBATE, %function
 1088              	adcSTM32EnableVBATE:
 1089              	.LFB120:
 1090              		.loc 1 410 0
 1091              		.cfi_startproc
 1092              		@ args = 0, pretend = 0, frame = 0
 1093              		@ frame_needed = 0, uses_anonymous_args = 0
 1094              		@ link register save eliminated.
 1095              		.loc 1 412 0
 1096 0000 034A     		ldr	r2, .L53
 1097 0002 034B     		ldr	r3, .L53
 1098 0004 5B68     		ldr	r3, [r3, #4]
 1099 0006 43F48003 		orr	r3, r3, #4194304
 1100 000a 5360     		str	r3, [r2, #4]
 1101              		.loc 1 413 0
 1102 000c 7047     		bx	lr
 1103              	.L54:
 1104 000e 00BF     		.align	2
 1105              	.L53:
 1106 0010 00230140 		.word	1073816320
 1107              		.cfi_endproc
 1108              	.LFE120:
 1109              		.size	adcSTM32EnableVBATE, .-adcSTM32EnableVBATE
 1110 0014 AFF30080 		.section	.text.adcSTM32DisableVBATE,"ax",%progbits
ARM GAS  /tmp/cc2xpVSZ.s 			page 21


 1110      AFF30080 
 1110      AFF30080 
 1111              		.align	2
 1112              		.p2align 4,,15
 1113              		.global	adcSTM32DisableVBATE
 1114              		.thumb
 1115              		.thumb_func
 1116              		.type	adcSTM32DisableVBATE, %function
 1117              	adcSTM32DisableVBATE:
 1118              	.LFB121:
 1119              		.loc 1 421 0
 1120              		.cfi_startproc
 1121              		@ args = 0, pretend = 0, frame = 0
 1122              		@ frame_needed = 0, uses_anonymous_args = 0
 1123              		@ link register save eliminated.
 1124              		.loc 1 423 0
 1125 0000 034A     		ldr	r2, .L56
 1126 0002 034B     		ldr	r3, .L56
 1127 0004 5B68     		ldr	r3, [r3, #4]
 1128 0006 23F48003 		bic	r3, r3, #4194304
 1129 000a 5360     		str	r3, [r2, #4]
 1130              		.loc 1 424 0
 1131 000c 7047     		bx	lr
 1132              	.L57:
 1133 000e 00BF     		.align	2
 1134              	.L56:
 1135 0010 00230140 		.word	1073816320
 1136              		.cfi_endproc
 1137              	.LFE121:
 1138              		.size	adcSTM32DisableVBATE, .-adcSTM32DisableVBATE
 1139 0014 AFF30080 		.text
 1139      AFF30080 
 1139      AFF30080 
 1140              	.Letext0:
 1141              		.file 2 "/opt/gcc-arm-none-eabi/lib/gcc/arm-none-eabi/4.9.3/include/stddef.h"
 1142              		.file 3 "/opt/gcc-arm-none-eabi/arm-none-eabi/include/machine/_default_types.h"
 1143              		.file 4 "/opt/gcc-arm-none-eabi/arm-none-eabi/include/stdint.h"
 1144              		.file 5 "/home/makkmarci/workspace/ChibiOS_2.6.8/os/ports/GCC/ARMCMx/chtypes.h"
 1145              		.file 6 "/home/makkmarci/workspace/ChibiOS_2.6.8/os/kernel/include/chlists.h"
 1146              		.file 7 "/home/makkmarci/workspace/ChibiOS_2.6.8/os/kernel/include/chthreads.h"
 1147              		.file 8 "/home/makkmarci/workspace/ChibiOS_2.6.8/os/ports/GCC/ARMCMx/chcore_v7m.h"
 1148              		.file 9 "/home/makkmarci/workspace/ChibiOS_2.6.8/os/kernel/include/chmtx.h"
 1149              		.file 10 "/home/makkmarci/workspace/ChibiOS_2.6.8/os/hal/platforms/STM32F4xx/stm32f4xx.h"
 1150              		.file 11 "/home/makkmarci/workspace/ChibiOS_2.6.8/os/hal/platforms/STM32F4xx/stm32_dma.h"
 1151              		.file 12 "/home/makkmarci/workspace/ChibiOS_2.6.8/os/hal/include/adc.h"
 1152              		.file 13 "/home/makkmarci/workspace/ChibiOS_2.6.8/os/hal/platforms/STM32F4xx/adc_lld.h"
 1153              		.file 14 "/home/makkmarci/workspace/ChibiOS_2.6.8/os/ports/common/ARMCMx/CMSIS/include/core_cm4.h"
 1154              		.section	.debug_info,"",%progbits
 1155              	.Ldebug_info0:
 1156 0000 E20F0000 		.4byte	0xfe2
 1157 0004 0400     		.2byte	0x4
 1158 0006 00000000 		.4byte	.Ldebug_abbrev0
 1159 000a 04       		.byte	0x4
 1160 000b 01       		.uleb128 0x1
 1161 000c BF030000 		.4byte	.LASF269
 1162 0010 01       		.byte	0x1
 1163 0011 30050000 		.4byte	.LASF270
ARM GAS  /tmp/cc2xpVSZ.s 			page 22


 1164 0015 00000000 		.4byte	.Ldebug_ranges0+0
 1165 0019 00000000 		.4byte	0
 1166 001d 00000000 		.4byte	.Ldebug_line0
 1167 0021 02       		.uleb128 0x2
 1168 0022 04       		.byte	0x4
 1169 0023 05       		.byte	0x5
 1170 0024 696E7400 		.ascii	"int\000"
 1171 0028 03       		.uleb128 0x3
 1172 0029 05000000 		.4byte	.LASF2
 1173 002d 02       		.byte	0x2
 1174 002e D4       		.byte	0xd4
 1175 002f 33000000 		.4byte	0x33
 1176 0033 04       		.uleb128 0x4
 1177 0034 04       		.byte	0x4
 1178 0035 07       		.byte	0x7
 1179 0036 40080000 		.4byte	.LASF0
 1180 003a 04       		.uleb128 0x4
 1181 003b 01       		.byte	0x1
 1182 003c 06       		.byte	0x6
 1183 003d 5A020000 		.4byte	.LASF1
 1184 0041 03       		.uleb128 0x3
 1185 0042 4E010000 		.4byte	.LASF3
 1186 0046 03       		.byte	0x3
 1187 0047 1D       		.byte	0x1d
 1188 0048 4C000000 		.4byte	0x4c
 1189 004c 04       		.uleb128 0x4
 1190 004d 01       		.byte	0x1
 1191 004e 08       		.byte	0x8
 1192 004f B2020000 		.4byte	.LASF4
 1193 0053 04       		.uleb128 0x4
 1194 0054 02       		.byte	0x2
 1195 0055 05       		.byte	0x5
 1196 0056 2D0B0000 		.4byte	.LASF5
 1197 005a 03       		.uleb128 0x3
 1198 005b 8D030000 		.4byte	.LASF6
 1199 005f 03       		.byte	0x3
 1200 0060 2B       		.byte	0x2b
 1201 0061 65000000 		.4byte	0x65
 1202 0065 04       		.uleb128 0x4
 1203 0066 02       		.byte	0x2
 1204 0067 07       		.byte	0x7
 1205 0068 520C0000 		.4byte	.LASF7
 1206 006c 03       		.uleb128 0x3
 1207 006d C30C0000 		.4byte	.LASF8
 1208 0071 03       		.byte	0x3
 1209 0072 3F       		.byte	0x3f
 1210 0073 77000000 		.4byte	0x77
 1211 0077 04       		.uleb128 0x4
 1212 0078 04       		.byte	0x4
 1213 0079 05       		.byte	0x5
 1214 007a 96010000 		.4byte	.LASF9
 1215 007e 03       		.uleb128 0x3
 1216 007f 57070000 		.4byte	.LASF10
 1217 0083 03       		.byte	0x3
 1218 0084 41       		.byte	0x41
 1219 0085 89000000 		.4byte	0x89
 1220 0089 04       		.uleb128 0x4
ARM GAS  /tmp/cc2xpVSZ.s 			page 23


 1221 008a 04       		.byte	0x4
 1222 008b 07       		.byte	0x7
 1223 008c 38060000 		.4byte	.LASF11
 1224 0090 04       		.uleb128 0x4
 1225 0091 08       		.byte	0x8
 1226 0092 05       		.byte	0x5
 1227 0093 72070000 		.4byte	.LASF12
 1228 0097 03       		.uleb128 0x3
 1229 0098 23060000 		.4byte	.LASF13
 1230 009c 03       		.byte	0x3
 1231 009d 5B       		.byte	0x5b
 1232 009e A2000000 		.4byte	0xa2
 1233 00a2 04       		.uleb128 0x4
 1234 00a3 08       		.byte	0x8
 1235 00a4 07       		.byte	0x7
 1236 00a5 B1090000 		.4byte	.LASF14
 1237 00a9 03       		.uleb128 0x3
 1238 00aa 70020000 		.4byte	.LASF15
 1239 00ae 04       		.byte	0x4
 1240 00af 15       		.byte	0x15
 1241 00b0 41000000 		.4byte	0x41
 1242 00b4 03       		.uleb128 0x3
 1243 00b5 D0090000 		.4byte	.LASF16
 1244 00b9 04       		.byte	0x4
 1245 00ba 21       		.byte	0x21
 1246 00bb 5A000000 		.4byte	0x5a
 1247 00bf 03       		.uleb128 0x3
 1248 00c0 8B000000 		.4byte	.LASF17
 1249 00c4 04       		.byte	0x4
 1250 00c5 2C       		.byte	0x2c
 1251 00c6 6C000000 		.4byte	0x6c
 1252 00ca 03       		.uleb128 0x3
 1253 00cb E90B0000 		.4byte	.LASF18
 1254 00cf 04       		.byte	0x4
 1255 00d0 2D       		.byte	0x2d
 1256 00d1 7E000000 		.4byte	0x7e
 1257 00d5 03       		.uleb128 0x3
 1258 00d6 370B0000 		.4byte	.LASF19
 1259 00da 04       		.byte	0x4
 1260 00db 39       		.byte	0x39
 1261 00dc 97000000 		.4byte	0x97
 1262 00e0 03       		.uleb128 0x3
 1263 00e1 780B0000 		.4byte	.LASF20
 1264 00e5 05       		.byte	0x5
 1265 00e6 2B       		.byte	0x2b
 1266 00e7 EB000000 		.4byte	0xeb
 1267 00eb 04       		.uleb128 0x4
 1268 00ec 01       		.byte	0x1
 1269 00ed 02       		.byte	0x2
 1270 00ee 2B030000 		.4byte	.LASF21
 1271 00f2 03       		.uleb128 0x3
 1272 00f3 9C0A0000 		.4byte	.LASF22
 1273 00f7 05       		.byte	0x5
 1274 00f8 2C       		.byte	0x2c
 1275 00f9 A9000000 		.4byte	0xa9
 1276 00fd 03       		.uleb128 0x3
 1277 00fe C7010000 		.4byte	.LASF23
ARM GAS  /tmp/cc2xpVSZ.s 			page 24


 1278 0102 05       		.byte	0x5
 1279 0103 2D       		.byte	0x2d
 1280 0104 A9000000 		.4byte	0xa9
 1281 0108 03       		.uleb128 0x3
 1282 0109 BA0B0000 		.4byte	.LASF24
 1283 010d 05       		.byte	0x5
 1284 010e 2E       		.byte	0x2e
 1285 010f A9000000 		.4byte	0xa9
 1286 0113 03       		.uleb128 0x3
 1287 0114 F5090000 		.4byte	.LASF25
 1288 0118 05       		.byte	0x5
 1289 0119 2F       		.byte	0x2f
 1290 011a A9000000 		.4byte	0xa9
 1291 011e 03       		.uleb128 0x3
 1292 011f 5B000000 		.4byte	.LASF26
 1293 0123 05       		.byte	0x5
 1294 0124 30       		.byte	0x30
 1295 0125 CA000000 		.4byte	0xca
 1296 0129 03       		.uleb128 0x3
 1297 012a D9090000 		.4byte	.LASF27
 1298 012e 05       		.byte	0x5
 1299 012f 31       		.byte	0x31
 1300 0130 BF000000 		.4byte	0xbf
 1301 0134 03       		.uleb128 0x3
 1302 0135 78020000 		.4byte	.LASF28
 1303 0139 05       		.byte	0x5
 1304 013a 33       		.byte	0x33
 1305 013b CA000000 		.4byte	0xca
 1306 013f 03       		.uleb128 0x3
 1307 0140 40000000 		.4byte	.LASF29
 1308 0144 05       		.byte	0x5
 1309 0145 35       		.byte	0x35
 1310 0146 CA000000 		.4byte	0xca
 1311 014a 03       		.uleb128 0x3
 1312 014b 8E0B0000 		.4byte	.LASF30
 1313 014f 06       		.byte	0x6
 1314 0150 2A       		.byte	0x2a
 1315 0151 55010000 		.4byte	0x155
 1316 0155 05       		.uleb128 0x5
 1317 0156 8E0B0000 		.4byte	.LASF30
 1318 015a 4C       		.byte	0x4c
 1319 015b 07       		.byte	0x7
 1320 015c 5E       		.byte	0x5e
 1321 015d 5E020000 		.4byte	0x25e
 1322 0161 06       		.uleb128 0x6
 1323 0162 9F010000 		.4byte	.LASF31
 1324 0166 07       		.byte	0x7
 1325 0167 5F       		.byte	0x5f
 1326 0168 7F020000 		.4byte	0x27f
 1327 016c 00       		.byte	0
 1328 016d 06       		.uleb128 0x6
 1329 016e A6010000 		.4byte	.LASF32
 1330 0172 07       		.byte	0x7
 1331 0173 61       		.byte	0x61
 1332 0174 7F020000 		.4byte	0x27f
 1333 0178 04       		.byte	0x4
 1334 0179 06       		.uleb128 0x6
ARM GAS  /tmp/cc2xpVSZ.s 			page 25


 1335 017a 86030000 		.4byte	.LASF33
 1336 017e 07       		.byte	0x7
 1337 017f 63       		.byte	0x63
 1338 0180 1E010000 		.4byte	0x11e
 1339 0184 08       		.byte	0x8
 1340 0185 06       		.uleb128 0x6
 1341 0186 55000000 		.4byte	.LASF34
 1342 018a 07       		.byte	0x7
 1343 018b 64       		.byte	0x64
 1344 018c 14040000 		.4byte	0x414
 1345 0190 0C       		.byte	0xc
 1346 0191 06       		.uleb128 0x6
 1347 0192 8E010000 		.4byte	.LASF35
 1348 0196 07       		.byte	0x7
 1349 0197 66       		.byte	0x66
 1350 0198 7F020000 		.4byte	0x27f
 1351 019c 10       		.byte	0x10
 1352 019d 06       		.uleb128 0x6
 1353 019e C8090000 		.4byte	.LASF36
 1354 01a2 07       		.byte	0x7
 1355 01a3 67       		.byte	0x67
 1356 01a4 7F020000 		.4byte	0x27f
 1357 01a8 14       		.byte	0x14
 1358 01a9 06       		.uleb128 0x6
 1359 01aa E50C0000 		.4byte	.LASF37
 1360 01ae 07       		.byte	0x7
 1361 01af 6E       		.byte	0x6e
 1362 01b0 BD040000 		.4byte	0x4bd
 1363 01b4 18       		.byte	0x18
 1364 01b5 06       		.uleb128 0x6
 1365 01b6 A60C0000 		.4byte	.LASF38
 1366 01ba 07       		.byte	0x7
 1367 01bb 74       		.byte	0x74
 1368 01bc CF040000 		.4byte	0x4cf
 1369 01c0 1C       		.byte	0x1c
 1370 01c1 06       		.uleb128 0x6
 1371 01c2 340D0000 		.4byte	.LASF39
 1372 01c6 07       		.byte	0x7
 1373 01c7 79       		.byte	0x79
 1374 01c8 FD000000 		.4byte	0xfd
 1375 01cc 20       		.byte	0x20
 1376 01cd 06       		.uleb128 0x6
 1377 01ce 2E080000 		.4byte	.LASF40
 1378 01d2 07       		.byte	0x7
 1379 01d3 7D       		.byte	0x7d
 1380 01d4 F2000000 		.4byte	0xf2
 1381 01d8 21       		.byte	0x21
 1382 01d9 06       		.uleb128 0x6
 1383 01da 83080000 		.4byte	.LASF41
 1384 01de 07       		.byte	0x7
 1385 01df 82       		.byte	0x82
 1386 01e0 08010000 		.4byte	0x108
 1387 01e4 22       		.byte	0x22
 1388 01e5 06       		.uleb128 0x6
 1389 01e6 66020000 		.4byte	.LASF42
 1390 01ea 07       		.byte	0x7
 1391 01eb 88       		.byte	0x88
ARM GAS  /tmp/cc2xpVSZ.s 			page 26


 1392 01ec 13010000 		.4byte	0x113
 1393 01f0 23       		.byte	0x23
 1394 01f1 06       		.uleb128 0x6
 1395 01f2 15090000 		.4byte	.LASF43
 1396 01f6 07       		.byte	0x7
 1397 01f7 8F       		.byte	0x8f
 1398 01f8 41040000 		.4byte	0x441
 1399 01fc 24       		.byte	0x24
 1400 01fd 07       		.uleb128 0x7
 1401 01fe 705F7500 		.ascii	"p_u\000"
 1402 0202 07       		.byte	0x7
 1403 0203 B4       		.byte	0xb4
 1404 0204 88040000 		.4byte	0x488
 1405 0208 28       		.byte	0x28
 1406 0209 06       		.uleb128 0x6
 1407 020a 13080000 		.4byte	.LASF44
 1408 020e 07       		.byte	0x7
 1409 020f B9       		.byte	0xb9
 1410 0210 A5020000 		.4byte	0x2a5
 1411 0214 2C       		.byte	0x2c
 1412 0215 06       		.uleb128 0x6
 1413 0216 80000000 		.4byte	.LASF45
 1414 021a 07       		.byte	0x7
 1415 021b BF       		.byte	0xbf
 1416 021c 85020000 		.4byte	0x285
 1417 0220 30       		.byte	0x30
 1418 0221 06       		.uleb128 0x6
 1419 0222 240D0000 		.4byte	.LASF46
 1420 0226 07       		.byte	0x7
 1421 0227 C3       		.byte	0xc3
 1422 0228 29010000 		.4byte	0x129
 1423 022c 38       		.byte	0x38
 1424 022d 06       		.uleb128 0x6
 1425 022e 84050000 		.4byte	.LASF47
 1426 0232 07       		.byte	0x7
 1427 0233 C9       		.byte	0xc9
 1428 0234 34010000 		.4byte	0x134
 1429 0238 3C       		.byte	0x3c
 1430 0239 06       		.uleb128 0x6
 1431 023a D9010000 		.4byte	.LASF48
 1432 023e 07       		.byte	0x7
 1433 023f D0       		.byte	0xd0
 1434 0240 D5040000 		.4byte	0x4d5
 1435 0244 40       		.byte	0x40
 1436 0245 06       		.uleb128 0x6
 1437 0246 3C090000 		.4byte	.LASF49
 1438 024a 07       		.byte	0x7
 1439 024b D4       		.byte	0xd4
 1440 024c 1E010000 		.4byte	0x11e
 1441 0250 44       		.byte	0x44
 1442 0251 06       		.uleb128 0x6
 1443 0252 6E080000 		.4byte	.LASF50
 1444 0256 07       		.byte	0x7
 1445 0257 DA       		.byte	0xda
 1446 0258 BB020000 		.4byte	0x2bb
 1447 025c 48       		.byte	0x48
 1448 025d 00       		.byte	0
ARM GAS  /tmp/cc2xpVSZ.s 			page 27


 1449 025e 08       		.uleb128 0x8
 1450 025f 08       		.byte	0x8
 1451 0260 06       		.byte	0x6
 1452 0261 61       		.byte	0x61
 1453 0262 7F020000 		.4byte	0x27f
 1454 0266 06       		.uleb128 0x6
 1455 0267 9F010000 		.4byte	.LASF31
 1456 026b 06       		.byte	0x6
 1457 026c 62       		.byte	0x62
 1458 026d 7F020000 		.4byte	0x27f
 1459 0271 00       		.byte	0
 1460 0272 06       		.uleb128 0x6
 1461 0273 A6010000 		.4byte	.LASF32
 1462 0277 06       		.byte	0x6
 1463 0278 64       		.byte	0x64
 1464 0279 7F020000 		.4byte	0x27f
 1465 027d 04       		.byte	0x4
 1466 027e 00       		.byte	0
 1467 027f 09       		.uleb128 0x9
 1468 0280 04       		.byte	0x4
 1469 0281 4A010000 		.4byte	0x14a
 1470 0285 03       		.uleb128 0x3
 1471 0286 000C0000 		.4byte	.LASF51
 1472 028a 06       		.byte	0x6
 1473 028b 66       		.byte	0x66
 1474 028c 5E020000 		.4byte	0x25e
 1475 0290 08       		.uleb128 0x8
 1476 0291 04       		.byte	0x4
 1477 0292 06       		.byte	0x6
 1478 0293 6B       		.byte	0x6b
 1479 0294 A5020000 		.4byte	0x2a5
 1480 0298 06       		.uleb128 0x6
 1481 0299 9F010000 		.4byte	.LASF31
 1482 029d 06       		.byte	0x6
 1483 029e 6D       		.byte	0x6d
 1484 029f 7F020000 		.4byte	0x27f
 1485 02a3 00       		.byte	0
 1486 02a4 00       		.byte	0
 1487 02a5 03       		.uleb128 0x3
 1488 02a6 97080000 		.4byte	.LASF52
 1489 02aa 06       		.byte	0x6
 1490 02ab 70       		.byte	0x70
 1491 02ac 90020000 		.4byte	0x290
 1492 02b0 03       		.uleb128 0x3
 1493 02b1 FB010000 		.4byte	.LASF53
 1494 02b5 08       		.byte	0x8
 1495 02b6 E5       		.byte	0xe5
 1496 02b7 BB020000 		.4byte	0x2bb
 1497 02bb 0A       		.uleb128 0xa
 1498 02bc 04       		.byte	0x4
 1499 02bd 03       		.uleb128 0x3
 1500 02be D4040000 		.4byte	.LASF54
 1501 02c2 08       		.byte	0x8
 1502 02c3 EB       		.byte	0xeb
 1503 02c4 D5000000 		.4byte	0xd5
 1504 02c8 0B       		.uleb128 0xb
 1505 02c9 7D050000 		.4byte	.LASF55
ARM GAS  /tmp/cc2xpVSZ.s 			page 28


 1506 02cd 64       		.byte	0x64
 1507 02ce 08       		.byte	0x8
 1508 02cf 0C01     		.2byte	0x10c
 1509 02d1 14040000 		.4byte	0x414
 1510 02d5 0C       		.uleb128 0xc
 1511 02d6 73313600 		.ascii	"s16\000"
 1512 02da 08       		.byte	0x8
 1513 02db 0E01     		.2byte	0x10e
 1514 02dd B0020000 		.4byte	0x2b0
 1515 02e1 00       		.byte	0
 1516 02e2 0C       		.uleb128 0xc
 1517 02e3 73313700 		.ascii	"s17\000"
 1518 02e7 08       		.byte	0x8
 1519 02e8 0F01     		.2byte	0x10f
 1520 02ea B0020000 		.4byte	0x2b0
 1521 02ee 04       		.byte	0x4
 1522 02ef 0C       		.uleb128 0xc
 1523 02f0 73313800 		.ascii	"s18\000"
 1524 02f4 08       		.byte	0x8
 1525 02f5 1001     		.2byte	0x110
 1526 02f7 B0020000 		.4byte	0x2b0
 1527 02fb 08       		.byte	0x8
 1528 02fc 0C       		.uleb128 0xc
 1529 02fd 73313900 		.ascii	"s19\000"
 1530 0301 08       		.byte	0x8
 1531 0302 1101     		.2byte	0x111
 1532 0304 B0020000 		.4byte	0x2b0
 1533 0308 0C       		.byte	0xc
 1534 0309 0C       		.uleb128 0xc
 1535 030a 73323000 		.ascii	"s20\000"
 1536 030e 08       		.byte	0x8
 1537 030f 1201     		.2byte	0x112
 1538 0311 B0020000 		.4byte	0x2b0
 1539 0315 10       		.byte	0x10
 1540 0316 0C       		.uleb128 0xc
 1541 0317 73323100 		.ascii	"s21\000"
 1542 031b 08       		.byte	0x8
 1543 031c 1301     		.2byte	0x113
 1544 031e B0020000 		.4byte	0x2b0
 1545 0322 14       		.byte	0x14
 1546 0323 0C       		.uleb128 0xc
 1547 0324 73323200 		.ascii	"s22\000"
 1548 0328 08       		.byte	0x8
 1549 0329 1401     		.2byte	0x114
 1550 032b B0020000 		.4byte	0x2b0
 1551 032f 18       		.byte	0x18
 1552 0330 0C       		.uleb128 0xc
 1553 0331 73323300 		.ascii	"s23\000"
 1554 0335 08       		.byte	0x8
 1555 0336 1501     		.2byte	0x115
 1556 0338 B0020000 		.4byte	0x2b0
 1557 033c 1C       		.byte	0x1c
 1558 033d 0C       		.uleb128 0xc
 1559 033e 73323400 		.ascii	"s24\000"
 1560 0342 08       		.byte	0x8
 1561 0343 1601     		.2byte	0x116
 1562 0345 B0020000 		.4byte	0x2b0
ARM GAS  /tmp/cc2xpVSZ.s 			page 29


 1563 0349 20       		.byte	0x20
 1564 034a 0C       		.uleb128 0xc
 1565 034b 73323500 		.ascii	"s25\000"
 1566 034f 08       		.byte	0x8
 1567 0350 1701     		.2byte	0x117
 1568 0352 B0020000 		.4byte	0x2b0
 1569 0356 24       		.byte	0x24
 1570 0357 0C       		.uleb128 0xc
 1571 0358 73323600 		.ascii	"s26\000"
 1572 035c 08       		.byte	0x8
 1573 035d 1801     		.2byte	0x118
 1574 035f B0020000 		.4byte	0x2b0
 1575 0363 28       		.byte	0x28
 1576 0364 0C       		.uleb128 0xc
 1577 0365 73323700 		.ascii	"s27\000"
 1578 0369 08       		.byte	0x8
 1579 036a 1901     		.2byte	0x119
 1580 036c B0020000 		.4byte	0x2b0
 1581 0370 2C       		.byte	0x2c
 1582 0371 0C       		.uleb128 0xc
 1583 0372 73323800 		.ascii	"s28\000"
 1584 0376 08       		.byte	0x8
 1585 0377 1A01     		.2byte	0x11a
 1586 0379 B0020000 		.4byte	0x2b0
 1587 037d 30       		.byte	0x30
 1588 037e 0C       		.uleb128 0xc
 1589 037f 73323900 		.ascii	"s29\000"
 1590 0383 08       		.byte	0x8
 1591 0384 1B01     		.2byte	0x11b
 1592 0386 B0020000 		.4byte	0x2b0
 1593 038a 34       		.byte	0x34
 1594 038b 0C       		.uleb128 0xc
 1595 038c 73333000 		.ascii	"s30\000"
 1596 0390 08       		.byte	0x8
 1597 0391 1C01     		.2byte	0x11c
 1598 0393 B0020000 		.4byte	0x2b0
 1599 0397 38       		.byte	0x38
 1600 0398 0C       		.uleb128 0xc
 1601 0399 73333100 		.ascii	"s31\000"
 1602 039d 08       		.byte	0x8
 1603 039e 1D01     		.2byte	0x11d
 1604 03a0 B0020000 		.4byte	0x2b0
 1605 03a4 3C       		.byte	0x3c
 1606 03a5 0C       		.uleb128 0xc
 1607 03a6 723400   		.ascii	"r4\000"
 1608 03a9 08       		.byte	0x8
 1609 03aa 1F01     		.2byte	0x11f
 1610 03ac B0020000 		.4byte	0x2b0
 1611 03b0 40       		.byte	0x40
 1612 03b1 0C       		.uleb128 0xc
 1613 03b2 723500   		.ascii	"r5\000"
 1614 03b5 08       		.byte	0x8
 1615 03b6 2001     		.2byte	0x120
 1616 03b8 B0020000 		.4byte	0x2b0
 1617 03bc 44       		.byte	0x44
 1618 03bd 0C       		.uleb128 0xc
 1619 03be 723600   		.ascii	"r6\000"
ARM GAS  /tmp/cc2xpVSZ.s 			page 30


 1620 03c1 08       		.byte	0x8
 1621 03c2 2101     		.2byte	0x121
 1622 03c4 B0020000 		.4byte	0x2b0
 1623 03c8 48       		.byte	0x48
 1624 03c9 0C       		.uleb128 0xc
 1625 03ca 723700   		.ascii	"r7\000"
 1626 03cd 08       		.byte	0x8
 1627 03ce 2201     		.2byte	0x122
 1628 03d0 B0020000 		.4byte	0x2b0
 1629 03d4 4C       		.byte	0x4c
 1630 03d5 0C       		.uleb128 0xc
 1631 03d6 723800   		.ascii	"r8\000"
 1632 03d9 08       		.byte	0x8
 1633 03da 2301     		.2byte	0x123
 1634 03dc B0020000 		.4byte	0x2b0
 1635 03e0 50       		.byte	0x50
 1636 03e1 0C       		.uleb128 0xc
 1637 03e2 723900   		.ascii	"r9\000"
 1638 03e5 08       		.byte	0x8
 1639 03e6 2401     		.2byte	0x124
 1640 03e8 B0020000 		.4byte	0x2b0
 1641 03ec 54       		.byte	0x54
 1642 03ed 0C       		.uleb128 0xc
 1643 03ee 72313000 		.ascii	"r10\000"
 1644 03f2 08       		.byte	0x8
 1645 03f3 2501     		.2byte	0x125
 1646 03f5 B0020000 		.4byte	0x2b0
 1647 03f9 58       		.byte	0x58
 1648 03fa 0C       		.uleb128 0xc
 1649 03fb 72313100 		.ascii	"r11\000"
 1650 03ff 08       		.byte	0x8
 1651 0400 2601     		.2byte	0x126
 1652 0402 B0020000 		.4byte	0x2b0
 1653 0406 5C       		.byte	0x5c
 1654 0407 0C       		.uleb128 0xc
 1655 0408 6C7200   		.ascii	"lr\000"
 1656 040b 08       		.byte	0x8
 1657 040c 2701     		.2byte	0x127
 1658 040e B0020000 		.4byte	0x2b0
 1659 0412 60       		.byte	0x60
 1660 0413 00       		.byte	0
 1661 0414 0B       		.uleb128 0xb
 1662 0415 84020000 		.4byte	.LASF56
 1663 0419 04       		.byte	0x4
 1664 041a 08       		.byte	0x8
 1665 041b 3101     		.2byte	0x131
 1666 041d 2F040000 		.4byte	0x42f
 1667 0421 0C       		.uleb128 0xc
 1668 0422 72313300 		.ascii	"r13\000"
 1669 0426 08       		.byte	0x8
 1670 0427 3201     		.2byte	0x132
 1671 0429 2F040000 		.4byte	0x42f
 1672 042d 00       		.byte	0
 1673 042e 00       		.byte	0
 1674 042f 09       		.uleb128 0x9
 1675 0430 04       		.byte	0x4
 1676 0431 C8020000 		.4byte	0x2c8
ARM GAS  /tmp/cc2xpVSZ.s 			page 31


 1677 0435 0D       		.uleb128 0xd
 1678 0436 CA000000 		.4byte	0xca
 1679 043a 04       		.uleb128 0x4
 1680 043b 04       		.byte	0x4
 1681 043c 07       		.byte	0x7
 1682 043d 29000000 		.4byte	.LASF57
 1683 0441 0D       		.uleb128 0xd
 1684 0442 3F010000 		.4byte	0x13f
 1685 0446 05       		.uleb128 0x5
 1686 0447 62070000 		.4byte	.LASF58
 1687 044b 10       		.byte	0x10
 1688 044c 09       		.byte	0x9
 1689 044d 2C       		.byte	0x2c
 1690 044e 77040000 		.4byte	0x477
 1691 0452 06       		.uleb128 0x6
 1692 0453 A4070000 		.4byte	.LASF59
 1693 0457 09       		.byte	0x9
 1694 0458 2D       		.byte	0x2d
 1695 0459 85020000 		.4byte	0x285
 1696 045d 00       		.byte	0
 1697 045e 06       		.uleb128 0x6
 1698 045f 31010000 		.4byte	.LASF60
 1699 0463 09       		.byte	0x9
 1700 0464 2F       		.byte	0x2f
 1701 0465 7F020000 		.4byte	0x27f
 1702 0469 08       		.byte	0x8
 1703 046a 06       		.uleb128 0x6
 1704 046b EC0C0000 		.4byte	.LASF61
 1705 046f 09       		.byte	0x9
 1706 0470 31       		.byte	0x31
 1707 0471 77040000 		.4byte	0x477
 1708 0475 0C       		.byte	0xc
 1709 0476 00       		.byte	0
 1710 0477 09       		.uleb128 0x9
 1711 0478 04       		.byte	0x4
 1712 0479 46040000 		.4byte	0x446
 1713 047d 03       		.uleb128 0x3
 1714 047e 62070000 		.4byte	.LASF58
 1715 0482 09       		.byte	0x9
 1716 0483 33       		.byte	0x33
 1717 0484 46040000 		.4byte	0x446
 1718 0488 0E       		.uleb128 0xe
 1719 0489 04       		.byte	0x4
 1720 048a 07       		.byte	0x7
 1721 048b 96       		.byte	0x96
 1722 048c BD040000 		.4byte	0x4bd
 1723 0490 0F       		.uleb128 0xf
 1724 0491 400C0000 		.4byte	.LASF62
 1725 0495 07       		.byte	0x7
 1726 0496 9D       		.byte	0x9d
 1727 0497 29010000 		.4byte	0x129
 1728 049b 0F       		.uleb128 0xf
 1729 049c 45010000 		.4byte	.LASF63
 1730 04a0 07       		.byte	0x7
 1731 04a1 A4       		.byte	0xa4
 1732 04a2 29010000 		.4byte	0x129
 1733 04a6 0F       		.uleb128 0xf
ARM GAS  /tmp/cc2xpVSZ.s 			page 32


 1734 04a7 A0030000 		.4byte	.LASF64
 1735 04ab 07       		.byte	0x7
 1736 04ac AB       		.byte	0xab
 1737 04ad BB020000 		.4byte	0x2bb
 1738 04b1 0F       		.uleb128 0xf
 1739 04b2 69010000 		.4byte	.LASF65
 1740 04b6 07       		.byte	0x7
 1741 04b7 B2       		.byte	0xb2
 1742 04b8 34010000 		.4byte	0x134
 1743 04bc 00       		.byte	0
 1744 04bd 09       		.uleb128 0x9
 1745 04be 04       		.byte	0x4
 1746 04bf C3040000 		.4byte	0x4c3
 1747 04c3 10       		.uleb128 0x10
 1748 04c4 C8040000 		.4byte	0x4c8
 1749 04c8 04       		.uleb128 0x4
 1750 04c9 01       		.byte	0x1
 1751 04ca 08       		.byte	0x8
 1752 04cb 71030000 		.4byte	.LASF66
 1753 04cf 09       		.uleb128 0x9
 1754 04d0 04       		.byte	0x4
 1755 04d1 BD020000 		.4byte	0x2bd
 1756 04d5 09       		.uleb128 0x9
 1757 04d6 04       		.byte	0x4
 1758 04d7 7D040000 		.4byte	0x47d
 1759 04db 11       		.uleb128 0x11
 1760 04dc 1C090000 		.4byte	.LASF271
 1761 04e0 01       		.byte	0x1
 1762 04e1 0A       		.byte	0xa
 1763 04e2 AA       		.byte	0xaa
 1764 04e3 16070000 		.4byte	0x716
 1765 04e7 12       		.uleb128 0x12
 1766 04e8 0F060000 		.4byte	.LASF67
 1767 04ec 72       		.sleb128 -14
 1768 04ed 12       		.uleb128 0x12
 1769 04ee 59060000 		.4byte	.LASF68
 1770 04f2 74       		.sleb128 -12
 1771 04f3 12       		.uleb128 0x12
 1772 04f4 23070000 		.4byte	.LASF69
 1773 04f8 75       		.sleb128 -11
 1774 04f9 12       		.uleb128 0x12
 1775 04fa 61030000 		.4byte	.LASF70
 1776 04fe 76       		.sleb128 -10
 1777 04ff 12       		.uleb128 0x12
 1778 0500 D4070000 		.4byte	.LASF71
 1779 0504 7B       		.sleb128 -5
 1780 0505 12       		.uleb128 0x12
 1781 0506 DF0A0000 		.4byte	.LASF72
 1782 050a 7C       		.sleb128 -4
 1783 050b 12       		.uleb128 0x12
 1784 050c 870C0000 		.4byte	.LASF73
 1785 0510 7E       		.sleb128 -2
 1786 0511 12       		.uleb128 0x12
 1787 0512 23020000 		.4byte	.LASF74
 1788 0516 7F       		.sleb128 -1
 1789 0517 12       		.uleb128 0x12
 1790 0518 2E060000 		.4byte	.LASF75
ARM GAS  /tmp/cc2xpVSZ.s 			page 33


 1791 051c 00       		.sleb128 0
 1792 051d 12       		.uleb128 0x12
 1793 051e 7E0A0000 		.4byte	.LASF76
 1794 0522 01       		.sleb128 1
 1795 0523 12       		.uleb128 0x12
 1796 0524 6F060000 		.4byte	.LASF77
 1797 0528 02       		.sleb128 2
 1798 0529 12       		.uleb128 0x12
 1799 052a D60B0000 		.4byte	.LASF78
 1800 052e 03       		.sleb128 3
 1801 052f 12       		.uleb128 0x12
 1802 0530 CD000000 		.4byte	.LASF79
 1803 0534 04       		.sleb128 4
 1804 0535 12       		.uleb128 0x12
 1805 0536 400B0000 		.4byte	.LASF80
 1806 053a 05       		.sleb128 5
 1807 053b 12       		.uleb128 0x12
 1808 053c 910A0000 		.4byte	.LASF81
 1809 0540 06       		.sleb128 6
 1810 0541 12       		.uleb128 0x12
 1811 0542 AF050000 		.4byte	.LASF82
 1812 0546 07       		.sleb128 7
 1813 0547 12       		.uleb128 0x12
 1814 0548 0A0A0000 		.4byte	.LASF83
 1815 054c 08       		.sleb128 8
 1816 054d 12       		.uleb128 0x12
 1817 054e 7C0C0000 		.4byte	.LASF84
 1818 0552 09       		.sleb128 9
 1819 0553 12       		.uleb128 0x12
 1820 0554 470C0000 		.4byte	.LASF85
 1821 0558 0A       		.sleb128 10
 1822 0559 12       		.uleb128 0x12
 1823 055a 52090000 		.4byte	.LASF86
 1824 055e 0B       		.sleb128 11
 1825 055f 12       		.uleb128 0x12
 1826 0560 B9080000 		.4byte	.LASF87
 1827 0564 0C       		.sleb128 12
 1828 0565 12       		.uleb128 0x12
 1829 0566 8C020000 		.4byte	.LASF88
 1830 056a 0D       		.sleb128 13
 1831 056b 12       		.uleb128 0x12
 1832 056c 660B0000 		.4byte	.LASF89
 1833 0570 0E       		.sleb128 14
 1834 0571 12       		.uleb128 0x12
 1835 0572 A40A0000 		.4byte	.LASF90
 1836 0576 0F       		.sleb128 15
 1837 0577 12       		.uleb128 0x12
 1838 0578 C7050000 		.4byte	.LASF91
 1839 057c 10       		.sleb128 16
 1840 057d 12       		.uleb128 0x12
 1841 057e 21090000 		.4byte	.LASF92
 1842 0582 11       		.sleb128 17
 1843 0583 12       		.uleb128 0x12
 1844 0584 410A0000 		.4byte	.LASF93
 1845 0588 12       		.sleb128 18
 1846 0589 12       		.uleb128 0x12
 1847 058a BA050000 		.4byte	.LASF94
ARM GAS  /tmp/cc2xpVSZ.s 			page 34


 1848 058e 13       		.sleb128 19
 1849 058f 12       		.uleb128 0x12
 1850 0590 A7030000 		.4byte	.LASF95
 1851 0594 14       		.sleb128 20
 1852 0595 12       		.uleb128 0x12
 1853 0596 F20B0000 		.4byte	.LASF96
 1854 059a 15       		.sleb128 21
 1855 059b 12       		.uleb128 0x12
 1856 059c 7F060000 		.4byte	.LASF97
 1857 05a0 16       		.sleb128 22
 1858 05a1 12       		.uleb128 0x12
 1859 05a2 0D0C0000 		.4byte	.LASF98
 1860 05a6 17       		.sleb128 23
 1861 05a7 12       		.uleb128 0x12
 1862 05a8 44070000 		.4byte	.LASF99
 1863 05ac 18       		.sleb128 24
 1864 05ad 12       		.uleb128 0x12
 1865 05ae 9A0B0000 		.4byte	.LASF100
 1866 05b2 19       		.sleb128 25
 1867 05b3 12       		.uleb128 0x12
 1868 05b4 E3010000 		.4byte	.LASF101
 1869 05b8 1A       		.sleb128 26
 1870 05b9 12       		.uleb128 0x12
 1871 05ba 94050000 		.4byte	.LASF102
 1872 05be 1B       		.sleb128 27
 1873 05bf 12       		.uleb128 0x12
 1874 05c0 EF000000 		.4byte	.LASF103
 1875 05c4 1C       		.sleb128 28
 1876 05c5 12       		.uleb128 0x12
 1877 05c6 DF090000 		.4byte	.LASF104
 1878 05ca 1D       		.sleb128 29
 1879 05cb 12       		.uleb128 0x12
 1880 05cc ED040000 		.4byte	.LASF105
 1881 05d0 1E       		.sleb128 30
 1882 05d1 12       		.uleb128 0x12
 1883 05d2 17050000 		.4byte	.LASF106
 1884 05d6 1F       		.sleb128 31
 1885 05d7 12       		.uleb128 0x12
 1886 05d8 FB020000 		.4byte	.LASF107
 1887 05dc 20       		.sleb128 32
 1888 05dd 12       		.uleb128 0x12
 1889 05de 76080000 		.4byte	.LASF108
 1890 05e2 21       		.sleb128 33
 1891 05e3 12       		.uleb128 0x12
 1892 05e4 D1060000 		.4byte	.LASF109
 1893 05e8 22       		.sleb128 34
 1894 05e9 12       		.uleb128 0x12
 1895 05ea B2070000 		.4byte	.LASF110
 1896 05ee 23       		.sleb128 35
 1897 05ef 12       		.uleb128 0x12
 1898 05f0 8E070000 		.4byte	.LASF111
 1899 05f4 24       		.sleb128 36
 1900 05f5 12       		.uleb128 0x12
 1901 05f6 E9090000 		.4byte	.LASF112
 1902 05fa 25       		.sleb128 37
 1903 05fb 12       		.uleb128 0x12
 1904 05fc F7040000 		.4byte	.LASF113
ARM GAS  /tmp/cc2xpVSZ.s 			page 35


 1905 0600 26       		.sleb128 38
 1906 0601 12       		.uleb128 0x12
 1907 0602 30020000 		.4byte	.LASF114
 1908 0606 27       		.sleb128 39
 1909 0607 12       		.uleb128 0x12
 1910 0608 A2090000 		.4byte	.LASF115
 1911 060c 28       		.sleb128 40
 1912 060d 12       		.uleb128 0x12
 1913 060e 7C090000 		.4byte	.LASF116
 1914 0612 29       		.sleb128 41
 1915 0613 12       		.uleb128 0x12
 1916 0614 1D080000 		.4byte	.LASF117
 1917 0618 2A       		.sleb128 42
 1918 0619 12       		.uleb128 0x12
 1919 061a 70010000 		.4byte	.LASF118
 1920 061e 2B       		.sleb128 43
 1921 061f 12       		.uleb128 0x12
 1922 0620 0C000000 		.4byte	.LASF119
 1923 0624 2C       		.sleb128 44
 1924 0625 12       		.uleb128 0x12
 1925 0626 D9050000 		.4byte	.LASF120
 1926 062a 2D       		.sleb128 45
 1927 062b 12       		.uleb128 0x12
 1928 062c 650C0000 		.4byte	.LASF121
 1929 0630 2E       		.sleb128 46
 1930 0631 12       		.uleb128 0x12
 1931 0632 B10C0000 		.4byte	.LASF122
 1932 0636 2F       		.sleb128 47
 1933 0637 12       		.uleb128 0x12
 1934 0638 870A0000 		.4byte	.LASF123
 1935 063c 30       		.sleb128 48
 1936 063d 12       		.uleb128 0x12
 1937 063e 720C0000 		.4byte	.LASF124
 1938 0642 31       		.sleb128 49
 1939 0643 12       		.uleb128 0x12
 1940 0644 4B030000 		.4byte	.LASF125
 1941 0648 32       		.sleb128 50
 1942 0649 12       		.uleb128 0x12
 1943 064a C3000000 		.4byte	.LASF126
 1944 064e 33       		.sleb128 51
 1945 064f 12       		.uleb128 0x12
 1946 0650 FE070000 		.4byte	.LASF127
 1947 0654 34       		.sleb128 52
 1948 0655 12       		.uleb128 0x12
 1949 0656 39070000 		.4byte	.LASF128
 1950 065a 35       		.sleb128 53
 1951 065b 12       		.uleb128 0x12
 1952 065c 4D080000 		.4byte	.LASF129
 1953 0660 36       		.sleb128 54
 1954 0661 12       		.uleb128 0x12
 1955 0662 68070000 		.4byte	.LASF130
 1956 0666 37       		.sleb128 55
 1957 0667 12       		.uleb128 0x12
 1958 0668 A0060000 		.4byte	.LASF131
 1959 066c 38       		.sleb128 56
 1960 066d 12       		.uleb128 0x12
 1961 066e B1000000 		.4byte	.LASF132
ARM GAS  /tmp/cc2xpVSZ.s 			page 36


 1962 0672 39       		.sleb128 57
 1963 0673 12       		.uleb128 0x12
 1964 0674 120D0000 		.4byte	.LASF133
 1965 0678 3A       		.sleb128 58
 1966 0679 12       		.uleb128 0x12
 1967 067a CB080000 		.4byte	.LASF134
 1968 067e 3B       		.sleb128 59
 1969 067f 12       		.uleb128 0x12
 1970 0680 C0020000 		.4byte	.LASF135
 1971 0684 3C       		.sleb128 60
 1972 0685 12       		.uleb128 0x12
 1973 0686 180B0000 		.4byte	.LASF136
 1974 068a 3D       		.sleb128 61
 1975 068b 12       		.uleb128 0x12
 1976 068c 80070000 		.4byte	.LASF137
 1977 0690 3E       		.sleb128 62
 1978 0691 12       		.uleb128 0x12
 1979 0692 DD080000 		.4byte	.LASF138
 1980 0696 3F       		.sleb128 63
 1981 0697 12       		.uleb128 0x12
 1982 0698 17010000 		.4byte	.LASF139
 1983 069c C000     		.sleb128 64
 1984 069e 12       		.uleb128 0x12
 1985 069f 2C0A0000 		.4byte	.LASF140
 1986 06a3 C100     		.sleb128 65
 1987 06a5 12       		.uleb128 0x12
 1988 06a6 13030000 		.4byte	.LASF141
 1989 06aa C200     		.sleb128 66
 1990 06ac 12       		.uleb128 0x12
 1991 06ad 03060000 		.4byte	.LASF142
 1992 06b1 C300     		.sleb128 67
 1993 06b3 12       		.uleb128 0x12
 1994 06b4 B5010000 		.4byte	.LASF143
 1995 06b8 C400     		.sleb128 68
 1996 06ba 12       		.uleb128 0x12
 1997 06bb C50A0000 		.4byte	.LASF144
 1998 06bf C500     		.sleb128 69
 1999 06c1 12       		.uleb128 0x12
 2000 06c2 F1050000 		.4byte	.LASF145
 2001 06c6 C600     		.sleb128 70
 2002 06c8 12       		.uleb128 0x12
 2003 06c9 25010000 		.4byte	.LASF146
 2004 06cd C700     		.sleb128 71
 2005 06cf 12       		.uleb128 0x12
 2006 06d0 F10A0000 		.4byte	.LASF147
 2007 06d4 C800     		.sleb128 72
 2008 06d6 12       		.uleb128 0x12
 2009 06d7 8B090000 		.4byte	.LASF148
 2010 06db C900     		.sleb128 73
 2011 06dd 12       		.uleb128 0x12
 2012 06de C20B0000 		.4byte	.LASF149
 2013 06e2 CA00     		.sleb128 74
 2014 06e4 12       		.uleb128 0x12
 2015 06e5 930C0000 		.4byte	.LASF150
 2016 06e9 CB00     		.sleb128 75
 2017 06eb 12       		.uleb128 0x12
 2018 06ec 58010000 		.4byte	.LASF151
ARM GAS  /tmp/cc2xpVSZ.s 			page 37


 2019 06f0 CC00     		.sleb128 76
 2020 06f2 12       		.uleb128 0x12
 2021 06f3 98070000 		.4byte	.LASF152
 2022 06f7 CD00     		.sleb128 77
 2023 06f9 12       		.uleb128 0x12
 2024 06fa D8000000 		.4byte	.LASF153
 2025 06fe CE00     		.sleb128 78
 2026 0700 12       		.uleb128 0x12
 2027 0701 98090000 		.4byte	.LASF154
 2028 0705 CF00     		.sleb128 79
 2029 0707 12       		.uleb128 0x12
 2030 0708 A1050000 		.4byte	.LASF155
 2031 070c D000     		.sleb128 80
 2032 070e 12       		.uleb128 0x12
 2033 070f F5070000 		.4byte	.LASF156
 2034 0713 D100     		.sleb128 81
 2035 0715 00       		.byte	0
 2036 0716 13       		.uleb128 0x13
 2037 0717 CA000000 		.4byte	0xca
 2038 071b 26070000 		.4byte	0x726
 2039 071f 14       		.uleb128 0x14
 2040 0720 3A040000 		.4byte	0x43a
 2041 0724 01       		.byte	0x1
 2042 0725 00       		.byte	0
 2043 0726 0D       		.uleb128 0xd
 2044 0727 BF000000 		.4byte	0xbf
 2045 072b 15       		.uleb128 0x15
 2046 072c 50       		.byte	0x50
 2047 072d 0A       		.byte	0xa
 2048 072e 0A02     		.2byte	0x20a
 2049 0730 37080000 		.4byte	0x837
 2050 0734 0C       		.uleb128 0xc
 2051 0735 535200   		.ascii	"SR\000"
 2052 0738 0A       		.byte	0xa
 2053 0739 0C02     		.2byte	0x20c
 2054 073b 35040000 		.4byte	0x435
 2055 073f 00       		.byte	0
 2056 0740 0C       		.uleb128 0xc
 2057 0741 43523100 		.ascii	"CR1\000"
 2058 0745 0A       		.byte	0xa
 2059 0746 0D02     		.2byte	0x20d
 2060 0748 35040000 		.4byte	0x435
 2061 074c 04       		.byte	0x4
 2062 074d 0C       		.uleb128 0xc
 2063 074e 43523200 		.ascii	"CR2\000"
 2064 0752 0A       		.byte	0xa
 2065 0753 0E02     		.2byte	0x20e
 2066 0755 35040000 		.4byte	0x435
 2067 0759 08       		.byte	0x8
 2068 075a 16       		.uleb128 0x16
 2069 075b B2060000 		.4byte	.LASF157
 2070 075f 0A       		.byte	0xa
 2071 0760 0F02     		.2byte	0x20f
 2072 0762 35040000 		.4byte	0x435
 2073 0766 0C       		.byte	0xc
 2074 0767 16       		.uleb128 0x16
 2075 0768 B8060000 		.4byte	.LASF158
ARM GAS  /tmp/cc2xpVSZ.s 			page 38


 2076 076c 0A       		.byte	0xa
 2077 076d 1002     		.2byte	0x210
 2078 076f 35040000 		.4byte	0x435
 2079 0773 10       		.byte	0x10
 2080 0774 16       		.uleb128 0x16
 2081 0775 4E0B0000 		.4byte	.LASF159
 2082 0779 0A       		.byte	0xa
 2083 077a 1102     		.2byte	0x211
 2084 077c 35040000 		.4byte	0x435
 2085 0780 14       		.byte	0x14
 2086 0781 16       		.uleb128 0x16
 2087 0782 540B0000 		.4byte	.LASF160
 2088 0786 0A       		.byte	0xa
 2089 0787 1202     		.2byte	0x212
 2090 0789 35040000 		.4byte	0x435
 2091 078d 18       		.byte	0x18
 2092 078e 16       		.uleb128 0x16
 2093 078f 5A0B0000 		.4byte	.LASF161
 2094 0793 0A       		.byte	0xa
 2095 0794 1302     		.2byte	0x213
 2096 0796 35040000 		.4byte	0x435
 2097 079a 1C       		.byte	0x1c
 2098 079b 16       		.uleb128 0x16
 2099 079c 600B0000 		.4byte	.LASF162
 2100 07a0 0A       		.byte	0xa
 2101 07a1 1402     		.2byte	0x214
 2102 07a3 35040000 		.4byte	0x435
 2103 07a7 20       		.byte	0x20
 2104 07a8 0C       		.uleb128 0xc
 2105 07a9 48545200 		.ascii	"HTR\000"
 2106 07ad 0A       		.byte	0xa
 2107 07ae 1502     		.2byte	0x215
 2108 07b0 35040000 		.4byte	0x435
 2109 07b4 24       		.byte	0x24
 2110 07b5 0C       		.uleb128 0xc
 2111 07b6 4C545200 		.ascii	"LTR\000"
 2112 07ba 0A       		.byte	0xa
 2113 07bb 1602     		.2byte	0x216
 2114 07bd 35040000 		.4byte	0x435
 2115 07c1 28       		.byte	0x28
 2116 07c2 16       		.uleb128 0x16
 2117 07c3 71000000 		.4byte	.LASF163
 2118 07c7 0A       		.byte	0xa
 2119 07c8 1702     		.2byte	0x217
 2120 07ca 35040000 		.4byte	0x435
 2121 07ce 2C       		.byte	0x2c
 2122 07cf 16       		.uleb128 0x16
 2123 07d0 76000000 		.4byte	.LASF164
 2124 07d4 0A       		.byte	0xa
 2125 07d5 1802     		.2byte	0x218
 2126 07d7 35040000 		.4byte	0x435
 2127 07db 30       		.byte	0x30
 2128 07dc 16       		.uleb128 0x16
 2129 07dd 7B000000 		.4byte	.LASF165
 2130 07e1 0A       		.byte	0xa
 2131 07e2 1902     		.2byte	0x219
 2132 07e4 35040000 		.4byte	0x435
ARM GAS  /tmp/cc2xpVSZ.s 			page 39


 2133 07e8 34       		.byte	0x34
 2134 07e9 16       		.uleb128 0x16
 2135 07ea 950B0000 		.4byte	.LASF166
 2136 07ee 0A       		.byte	0xa
 2137 07ef 1A02     		.2byte	0x21a
 2138 07f1 35040000 		.4byte	0x435
 2139 07f5 38       		.byte	0x38
 2140 07f6 16       		.uleb128 0x16
 2141 07f7 7F0B0000 		.4byte	.LASF167
 2142 07fb 0A       		.byte	0xa
 2143 07fc 1B02     		.2byte	0x21b
 2144 07fe 35040000 		.4byte	0x435
 2145 0802 3C       		.byte	0x3c
 2146 0803 16       		.uleb128 0x16
 2147 0804 840B0000 		.4byte	.LASF168
 2148 0808 0A       		.byte	0xa
 2149 0809 1C02     		.2byte	0x21c
 2150 080b 35040000 		.4byte	0x435
 2151 080f 40       		.byte	0x40
 2152 0810 16       		.uleb128 0x16
 2153 0811 890B0000 		.4byte	.LASF169
 2154 0815 0A       		.byte	0xa
 2155 0816 1D02     		.2byte	0x21d
 2156 0818 35040000 		.4byte	0x435
 2157 081c 44       		.byte	0x44
 2158 081d 16       		.uleb128 0x16
 2159 081e 39010000 		.4byte	.LASF170
 2160 0822 0A       		.byte	0xa
 2161 0823 1E02     		.2byte	0x21e
 2162 0825 35040000 		.4byte	0x435
 2163 0829 48       		.byte	0x48
 2164 082a 0C       		.uleb128 0xc
 2165 082b 445200   		.ascii	"DR\000"
 2166 082e 0A       		.byte	0xa
 2167 082f 1F02     		.2byte	0x21f
 2168 0831 35040000 		.4byte	0x435
 2169 0835 4C       		.byte	0x4c
 2170 0836 00       		.byte	0
 2171 0837 17       		.uleb128 0x17
 2172 0838 24050000 		.4byte	.LASF171
 2173 083c 0A       		.byte	0xa
 2174 083d 2002     		.2byte	0x220
 2175 083f 2B070000 		.4byte	0x72b
 2176 0843 15       		.uleb128 0x15
 2177 0844 0C       		.byte	0xc
 2178 0845 0A       		.byte	0xa
 2179 0846 2202     		.2byte	0x222
 2180 0848 74080000 		.4byte	0x874
 2181 084c 0C       		.uleb128 0xc
 2182 084d 43535200 		.ascii	"CSR\000"
 2183 0851 0A       		.byte	0xa
 2184 0852 2402     		.2byte	0x224
 2185 0854 35040000 		.4byte	0x435
 2186 0858 00       		.byte	0
 2187 0859 0C       		.uleb128 0xc
 2188 085a 43435200 		.ascii	"CCR\000"
 2189 085e 0A       		.byte	0xa
ARM GAS  /tmp/cc2xpVSZ.s 			page 40


 2190 085f 2502     		.2byte	0x225
 2191 0861 35040000 		.4byte	0x435
 2192 0865 04       		.byte	0x4
 2193 0866 0C       		.uleb128 0xc
 2194 0867 43445200 		.ascii	"CDR\000"
 2195 086b 0A       		.byte	0xa
 2196 086c 2602     		.2byte	0x226
 2197 086e 35040000 		.4byte	0x435
 2198 0872 08       		.byte	0x8
 2199 0873 00       		.byte	0
 2200 0874 17       		.uleb128 0x17
 2201 0875 CD0C0000 		.4byte	.LASF172
 2202 0879 0A       		.byte	0xa
 2203 087a 2802     		.2byte	0x228
 2204 087c 43080000 		.4byte	0x843
 2205 0880 15       		.uleb128 0x15
 2206 0881 18       		.byte	0x18
 2207 0882 0A       		.byte	0xa
 2208 0883 B102     		.2byte	0x2b1
 2209 0885 D7080000 		.4byte	0x8d7
 2210 0889 0C       		.uleb128 0xc
 2211 088a 435200   		.ascii	"CR\000"
 2212 088d 0A       		.byte	0xa
 2213 088e B302     		.2byte	0x2b3
 2214 0890 35040000 		.4byte	0x435
 2215 0894 00       		.byte	0
 2216 0895 16       		.uleb128 0x16
 2217 0896 E40B0000 		.4byte	.LASF173
 2218 089a 0A       		.byte	0xa
 2219 089b B402     		.2byte	0x2b4
 2220 089d 35040000 		.4byte	0x435
 2221 08a1 04       		.byte	0x4
 2222 08a2 0C       		.uleb128 0xc
 2223 08a3 50415200 		.ascii	"PAR\000"
 2224 08a7 0A       		.byte	0xa
 2225 08a8 B502     		.2byte	0x2b5
 2226 08aa 35040000 		.4byte	0x435
 2227 08ae 08       		.byte	0x8
 2228 08af 16       		.uleb128 0x16
 2229 08b0 130B0000 		.4byte	.LASF174
 2230 08b4 0A       		.byte	0xa
 2231 08b5 B602     		.2byte	0x2b6
 2232 08b7 35040000 		.4byte	0x435
 2233 08bb 0C       		.byte	0xc
 2234 08bc 16       		.uleb128 0x16
 2235 08bd 00000000 		.4byte	.LASF175
 2236 08c1 0A       		.byte	0xa
 2237 08c2 B702     		.2byte	0x2b7
 2238 08c4 35040000 		.4byte	0x435
 2239 08c8 10       		.byte	0x10
 2240 08c9 0C       		.uleb128 0xc
 2241 08ca 46435200 		.ascii	"FCR\000"
 2242 08ce 0A       		.byte	0xa
 2243 08cf B802     		.2byte	0x2b8
 2244 08d1 35040000 		.4byte	0x435
 2245 08d5 14       		.byte	0x14
 2246 08d6 00       		.byte	0
ARM GAS  /tmp/cc2xpVSZ.s 			page 41


 2247 08d7 17       		.uleb128 0x17
 2248 08d8 02090000 		.4byte	.LASF176
 2249 08dc 0A       		.byte	0xa
 2250 08dd B902     		.2byte	0x2b9
 2251 08df 80080000 		.4byte	0x880
 2252 08e3 15       		.uleb128 0x15
 2253 08e4 90       		.byte	0x90
 2254 08e5 0A       		.byte	0xa
 2255 08e6 5804     		.2byte	0x458
 2256 08e8 8C0A0000 		.4byte	0xa8c
 2257 08ec 0C       		.uleb128 0xc
 2258 08ed 435200   		.ascii	"CR\000"
 2259 08f0 0A       		.byte	0xa
 2260 08f1 5A04     		.2byte	0x45a
 2261 08f3 35040000 		.4byte	0x435
 2262 08f7 00       		.byte	0
 2263 08f8 16       		.uleb128 0x16
 2264 08f9 31070000 		.4byte	.LASF177
 2265 08fd 0A       		.byte	0xa
 2266 08fe 5B04     		.2byte	0x45b
 2267 0900 35040000 		.4byte	0x435
 2268 0904 04       		.byte	0x4
 2269 0905 16       		.uleb128 0x16
 2270 0906 8F050000 		.4byte	.LASF178
 2271 090a 0A       		.byte	0xa
 2272 090b 5C04     		.2byte	0x45c
 2273 090d 35040000 		.4byte	0x435
 2274 0911 08       		.byte	0x8
 2275 0912 0C       		.uleb128 0xc
 2276 0913 43495200 		.ascii	"CIR\000"
 2277 0917 0A       		.byte	0xa
 2278 0918 5D04     		.2byte	0x45d
 2279 091a 35040000 		.4byte	0x435
 2280 091e 0C       		.byte	0xc
 2281 091f 16       		.uleb128 0x16
 2282 0920 7D030000 		.4byte	.LASF179
 2283 0924 0A       		.byte	0xa
 2284 0925 5E04     		.2byte	0x45e
 2285 0927 35040000 		.4byte	0x435
 2286 092b 10       		.byte	0x10
 2287 092c 16       		.uleb128 0x16
 2288 092d 030B0000 		.4byte	.LASF180
 2289 0931 0A       		.byte	0xa
 2290 0932 5F04     		.2byte	0x45f
 2291 0934 35040000 		.4byte	0x435
 2292 0938 14       		.byte	0x14
 2293 0939 16       		.uleb128 0x16
 2294 093a 33090000 		.4byte	.LASF181
 2295 093e 0A       		.byte	0xa
 2296 093f 6004     		.2byte	0x460
 2297 0941 35040000 		.4byte	0x435
 2298 0945 18       		.byte	0x18
 2299 0946 16       		.uleb128 0x16
 2300 0947 9E020000 		.4byte	.LASF182
 2301 094b 0A       		.byte	0xa
 2302 094c 6104     		.2byte	0x461
 2303 094e CA000000 		.4byte	0xca
ARM GAS  /tmp/cc2xpVSZ.s 			page 42


 2304 0952 1C       		.byte	0x1c
 2305 0953 16       		.uleb128 0x16
 2306 0954 64090000 		.4byte	.LASF183
 2307 0958 0A       		.byte	0xa
 2308 0959 6204     		.2byte	0x462
 2309 095b 35040000 		.4byte	0x435
 2310 095f 20       		.byte	0x20
 2311 0960 16       		.uleb128 0x16
 2312 0961 E0070000 		.4byte	.LASF184
 2313 0965 0A       		.byte	0xa
 2314 0966 6304     		.2byte	0x463
 2315 0968 35040000 		.4byte	0x435
 2316 096c 24       		.byte	0x24
 2317 096d 16       		.uleb128 0x16
 2318 096e A8020000 		.4byte	.LASF185
 2319 0972 0A       		.byte	0xa
 2320 0973 6404     		.2byte	0x464
 2321 0975 16070000 		.4byte	0x716
 2322 0979 28       		.byte	0x28
 2323 097a 16       		.uleb128 0x16
 2324 097b D70A0000 		.4byte	.LASF186
 2325 097f 0A       		.byte	0xa
 2326 0980 6504     		.2byte	0x465
 2327 0982 35040000 		.4byte	0x435
 2328 0986 30       		.byte	0x30
 2329 0987 16       		.uleb128 0x16
 2330 0988 98030000 		.4byte	.LASF187
 2331 098c 0A       		.byte	0xa
 2332 098d 6604     		.2byte	0x466
 2333 098f 35040000 		.4byte	0x435
 2334 0993 34       		.byte	0x34
 2335 0994 16       		.uleb128 0x16
 2336 0995 0A0D0000 		.4byte	.LASF188
 2337 0999 0A       		.byte	0xa
 2338 099a 6704     		.2byte	0x467
 2339 099c 35040000 		.4byte	0x435
 2340 09a0 38       		.byte	0x38
 2341 09a1 16       		.uleb128 0x16
 2342 09a2 31030000 		.4byte	.LASF189
 2343 09a6 0A       		.byte	0xa
 2344 09a7 6804     		.2byte	0x468
 2345 09a9 CA000000 		.4byte	0xca
 2346 09ad 3C       		.byte	0x3c
 2347 09ae 16       		.uleb128 0x16
 2348 09af 4A060000 		.4byte	.LASF190
 2349 09b3 0A       		.byte	0xa
 2350 09b4 6904     		.2byte	0x469
 2351 09b6 35040000 		.4byte	0x435
 2352 09ba 40       		.byte	0x40
 2353 09bb 16       		.uleb128 0x16
 2354 09bc 11020000 		.4byte	.LASF191
 2355 09c0 0A       		.byte	0xa
 2356 09c1 6A04     		.2byte	0x46a
 2357 09c3 35040000 		.4byte	0x435
 2358 09c7 44       		.byte	0x44
 2359 09c8 16       		.uleb128 0x16
 2360 09c9 3B030000 		.4byte	.LASF192
ARM GAS  /tmp/cc2xpVSZ.s 			page 43


 2361 09cd 0A       		.byte	0xa
 2362 09ce 6B04     		.2byte	0x46b
 2363 09d0 16070000 		.4byte	0x716
 2364 09d4 48       		.byte	0x48
 2365 09d5 16       		.uleb128 0x16
 2366 09d6 19020000 		.4byte	.LASF193
 2367 09da 0A       		.byte	0xa
 2368 09db 6C04     		.2byte	0x46c
 2369 09dd 35040000 		.4byte	0x435
 2370 09e1 50       		.byte	0x50
 2371 09e2 16       		.uleb128 0x16
 2372 09e3 84010000 		.4byte	.LASF194
 2373 09e7 0A       		.byte	0xa
 2374 09e8 6D04     		.2byte	0x46d
 2375 09ea 35040000 		.4byte	0x435
 2376 09ee 54       		.byte	0x54
 2377 09ef 16       		.uleb128 0x16
 2378 09f0 600A0000 		.4byte	.LASF195
 2379 09f4 0A       		.byte	0xa
 2380 09f5 6E04     		.2byte	0x46e
 2381 09f7 35040000 		.4byte	0x435
 2382 09fb 58       		.byte	0x58
 2383 09fc 16       		.uleb128 0x16
 2384 09fd D2020000 		.4byte	.LASF196
 2385 0a01 0A       		.byte	0xa
 2386 0a02 6F04     		.2byte	0x46f
 2387 0a04 CA000000 		.4byte	0xca
 2388 0a08 5C       		.byte	0x5c
 2389 0a09 16       		.uleb128 0x16
 2390 0a0a AF080000 		.4byte	.LASF197
 2391 0a0e 0A       		.byte	0xa
 2392 0a0f 7004     		.2byte	0x470
 2393 0a11 35040000 		.4byte	0x435
 2394 0a15 60       		.byte	0x60
 2395 0a16 16       		.uleb128 0x16
 2396 0a17 09080000 		.4byte	.LASF198
 2397 0a1b 0A       		.byte	0xa
 2398 0a1c 7104     		.2byte	0x471
 2399 0a1e 35040000 		.4byte	0x435
 2400 0a22 64       		.byte	0x64
 2401 0a23 16       		.uleb128 0x16
 2402 0a24 DC020000 		.4byte	.LASF199
 2403 0a28 0A       		.byte	0xa
 2404 0a29 7204     		.2byte	0x472
 2405 0a2b 16070000 		.4byte	0x716
 2406 0a2f 68       		.byte	0x68
 2407 0a30 16       		.uleb128 0x16
 2408 0a31 0A050000 		.4byte	.LASF200
 2409 0a35 0A       		.byte	0xa
 2410 0a36 7304     		.2byte	0x473
 2411 0a38 35040000 		.4byte	0x435
 2412 0a3c 70       		.byte	0x70
 2413 0a3d 0C       		.uleb128 0xc
 2414 0a3e 43535200 		.ascii	"CSR\000"
 2415 0a42 0A       		.byte	0xa
 2416 0a43 7404     		.2byte	0x474
 2417 0a45 35040000 		.4byte	0x435
ARM GAS  /tmp/cc2xpVSZ.s 			page 44


 2418 0a49 74       		.byte	0x74
 2419 0a4a 16       		.uleb128 0x16
 2420 0a4b E6020000 		.4byte	.LASF201
 2421 0a4f 0A       		.byte	0xa
 2422 0a50 7504     		.2byte	0x475
 2423 0a52 16070000 		.4byte	0x716
 2424 0a56 78       		.byte	0x78
 2425 0a57 16       		.uleb128 0x16
 2426 0a58 AC070000 		.4byte	.LASF202
 2427 0a5c 0A       		.byte	0xa
 2428 0a5d 7604     		.2byte	0x476
 2429 0a5f 35040000 		.4byte	0x435
 2430 0a63 80       		.byte	0x80
 2431 0a64 16       		.uleb128 0x16
 2432 0a65 4A000000 		.4byte	.LASF203
 2433 0a69 0A       		.byte	0xa
 2434 0a6a 7704     		.2byte	0x477
 2435 0a6c 35040000 		.4byte	0x435
 2436 0a70 84       		.byte	0x84
 2437 0a71 16       		.uleb128 0x16
 2438 0a72 1A0C0000 		.4byte	.LASF204
 2439 0a76 0A       		.byte	0xa
 2440 0a77 7804     		.2byte	0x478
 2441 0a79 35040000 		.4byte	0x435
 2442 0a7d 88       		.byte	0x88
 2443 0a7e 16       		.uleb128 0x16
 2444 0a7f 3C020000 		.4byte	.LASF205
 2445 0a83 0A       		.byte	0xa
 2446 0a84 7904     		.2byte	0x479
 2447 0a86 35040000 		.4byte	0x435
 2448 0a8a 8C       		.byte	0x8c
 2449 0a8b 00       		.byte	0
 2450 0a8c 17       		.uleb128 0x17
 2451 0a8d 210B0000 		.4byte	.LASF206
 2452 0a91 0A       		.byte	0xa
 2453 0a92 7B04     		.2byte	0x47b
 2454 0a94 E3080000 		.4byte	0x8e3
 2455 0a98 08       		.uleb128 0x8
 2456 0a99 0C       		.byte	0xc
 2457 0a9a 0B       		.byte	0xb
 2458 0a9b DA       		.byte	0xda
 2459 0a9c DD0A0000 		.4byte	0xadd
 2460 0aa0 06       		.uleb128 0x6
 2461 0aa1 03050000 		.4byte	.LASF207
 2462 0aa5 0B       		.byte	0xb
 2463 0aa6 DB       		.byte	0xdb
 2464 0aa7 DD0A0000 		.4byte	0xadd
 2465 0aab 00       		.byte	0
 2466 0aac 06       		.uleb128 0x6
 2467 0aad E00C0000 		.4byte	.LASF208
 2468 0ab1 0B       		.byte	0xb
 2469 0ab2 DC       		.byte	0xdc
 2470 0ab3 E30A0000 		.4byte	0xae3
 2471 0ab7 04       		.byte	0x4
 2472 0ab8 06       		.uleb128 0x6
 2473 0ab9 76030000 		.4byte	.LASF209
 2474 0abd 0B       		.byte	0xb
ARM GAS  /tmp/cc2xpVSZ.s 			page 45


 2475 0abe DD       		.byte	0xdd
 2476 0abf A9000000 		.4byte	0xa9
 2477 0ac3 08       		.byte	0x8
 2478 0ac4 06       		.uleb128 0x6
 2479 0ac5 36080000 		.4byte	.LASF210
 2480 0ac9 0B       		.byte	0xb
 2481 0aca DF       		.byte	0xdf
 2482 0acb A9000000 		.4byte	0xa9
 2483 0acf 09       		.byte	0x9
 2484 0ad0 06       		.uleb128 0x6
 2485 0ad1 3A0A0000 		.4byte	.LASF211
 2486 0ad5 0B       		.byte	0xb
 2487 0ad6 E0       		.byte	0xe0
 2488 0ad7 A9000000 		.4byte	0xa9
 2489 0adb 0A       		.byte	0xa
 2490 0adc 00       		.byte	0
 2491 0add 09       		.uleb128 0x9
 2492 0ade 04       		.byte	0x4
 2493 0adf D7080000 		.4byte	0x8d7
 2494 0ae3 09       		.uleb128 0x9
 2495 0ae4 04       		.byte	0x4
 2496 0ae5 35040000 		.4byte	0x435
 2497 0ae9 03       		.uleb128 0x3
 2498 0aea BE060000 		.4byte	.LASF212
 2499 0aee 0B       		.byte	0xb
 2500 0aef E1       		.byte	0xe1
 2501 0af0 980A0000 		.4byte	0xa98
 2502 0af4 03       		.uleb128 0x3
 2503 0af5 6D090000 		.4byte	.LASF213
 2504 0af9 0B       		.byte	0xb
 2505 0afa EA       		.byte	0xea
 2506 0afb FF0A0000 		.4byte	0xaff
 2507 0aff 09       		.uleb128 0x9
 2508 0b00 04       		.byte	0x4
 2509 0b01 050B0000 		.4byte	0xb05
 2510 0b05 18       		.uleb128 0x18
 2511 0b06 150B0000 		.4byte	0xb15
 2512 0b0a 19       		.uleb128 0x19
 2513 0b0b BB020000 		.4byte	0x2bb
 2514 0b0f 19       		.uleb128 0x19
 2515 0b10 CA000000 		.4byte	0xca
 2516 0b14 00       		.byte	0
 2517 0b15 1A       		.uleb128 0x1a
 2518 0b16 01       		.byte	0x1
 2519 0b17 0C       		.byte	0xc
 2520 0b18 55       		.byte	0x55
 2521 0b19 420B0000 		.4byte	0xb42
 2522 0b1d 12       		.uleb128 0x12
 2523 0b1e 08030000 		.4byte	.LASF214
 2524 0b22 00       		.sleb128 0
 2525 0b23 12       		.uleb128 0x12
 2526 0b24 BC0A0000 		.4byte	.LASF215
 2527 0b28 01       		.sleb128 1
 2528 0b29 12       		.uleb128 0x12
 2529 0b2a 21030000 		.4byte	.LASF216
 2530 0b2e 02       		.sleb128 2
 2531 0b2f 12       		.uleb128 0x12
ARM GAS  /tmp/cc2xpVSZ.s 			page 46


 2532 0b30 47090000 		.4byte	.LASF217
 2533 0b34 03       		.sleb128 3
 2534 0b35 12       		.uleb128 0x12
 2535 0b36 F1060000 		.4byte	.LASF218
 2536 0b3a 04       		.sleb128 4
 2537 0b3b 12       		.uleb128 0x12
 2538 0b3c B5030000 		.4byte	.LASF219
 2539 0b40 05       		.sleb128 5
 2540 0b41 00       		.byte	0
 2541 0b42 03       		.uleb128 0x3
 2542 0b43 93000000 		.4byte	.LASF220
 2543 0b47 0C       		.byte	0xc
 2544 0b48 5C       		.byte	0x5c
 2545 0b49 150B0000 		.4byte	0xb15
 2546 0b4d 17       		.uleb128 0x17
 2547 0b4e 55030000 		.4byte	.LASF221
 2548 0b52 0D       		.byte	0xd
 2549 0b53 2701     		.2byte	0x127
 2550 0b55 B4000000 		.4byte	0xb4
 2551 0b59 17       		.uleb128 0x17
 2552 0b5a 5B080000 		.4byte	.LASF222
 2553 0b5e 0D       		.byte	0xd
 2554 0b5f 2C01     		.2byte	0x12c
 2555 0b61 B4000000 		.4byte	0xb4
 2556 0b65 1B       		.uleb128 0x1b
 2557 0b66 01       		.byte	0x1
 2558 0b67 0D       		.byte	0xd
 2559 0b68 3301     		.2byte	0x133
 2560 0b6a 7B0B0000 		.4byte	0xb7b
 2561 0b6e 12       		.uleb128 0x12
 2562 0b6f 9E000000 		.4byte	.LASF223
 2563 0b73 00       		.sleb128 0
 2564 0b74 12       		.uleb128 0x12
 2565 0b75 4A0A0000 		.4byte	.LASF224
 2566 0b79 01       		.sleb128 1
 2567 0b7a 00       		.byte	0
 2568 0b7b 17       		.uleb128 0x17
 2569 0b7c F0020000 		.4byte	.LASF225
 2570 0b80 0D       		.byte	0xd
 2571 0b81 3601     		.2byte	0x136
 2572 0b83 650B0000 		.4byte	0xb65
 2573 0b87 17       		.uleb128 0x17
 2574 0b88 150A0000 		.4byte	.LASF226
 2575 0b8c 0D       		.byte	0xd
 2576 0b8d 3B01     		.2byte	0x13b
 2577 0b8f 930B0000 		.4byte	0xb93
 2578 0b93 0B       		.uleb128 0xb
 2579 0b94 150A0000 		.4byte	.LASF226
 2580 0b98 34       		.byte	0x34
 2581 0b99 0D       		.byte	0xd
 2582 0b9a 9F01     		.2byte	0x19f
 2583 0b9c 230C0000 		.4byte	0xc23
 2584 0ba0 16       		.uleb128 0x16
 2585 0ba1 E9000000 		.4byte	.LASF227
 2586 0ba5 0D       		.byte	0xd
 2587 0ba6 A301     		.2byte	0x1a3
 2588 0ba8 420B0000 		.4byte	0xb42
ARM GAS  /tmp/cc2xpVSZ.s 			page 47


 2589 0bac 00       		.byte	0
 2590 0bad 16       		.uleb128 0x16
 2591 0bae E2000000 		.4byte	.LASF228
 2592 0bb2 0D       		.byte	0xd
 2593 0bb3 A701     		.2byte	0x1a7
 2594 0bb5 400D0000 		.4byte	0xd40
 2595 0bb9 04       		.byte	0x4
 2596 0bba 16       		.uleb128 0x16
 2597 0bbb 0F050000 		.4byte	.LASF229
 2598 0bbf 0D       		.byte	0xd
 2599 0bc0 AB01     		.2byte	0x1ab
 2600 0bc2 500C0000 		.4byte	0xc50
 2601 0bc6 08       		.byte	0x8
 2602 0bc7 16       		.uleb128 0x16
 2603 0bc8 E9070000 		.4byte	.LASF230
 2604 0bcc 0D       		.byte	0xd
 2605 0bcd AF01     		.2byte	0x1af
 2606 0bcf 28000000 		.4byte	0x28
 2607 0bd3 0C       		.byte	0xc
 2608 0bd4 16       		.uleb128 0x16
 2609 0bd5 FE0A0000 		.4byte	.LASF231
 2610 0bd9 0D       		.byte	0xd
 2611 0bda B301     		.2byte	0x1b3
 2612 0bdc 4B0D0000 		.4byte	0xd4b
 2613 0be0 10       		.byte	0x10
 2614 0be1 16       		.uleb128 0x16
 2615 0be2 0C0B0000 		.4byte	.LASF232
 2616 0be6 0D       		.byte	0xd
 2617 0be7 B801     		.2byte	0x1b8
 2618 0be9 7F020000 		.4byte	0x27f
 2619 0bed 14       		.byte	0x14
 2620 0bee 16       		.uleb128 0x16
 2621 0bef EF070000 		.4byte	.LASF233
 2622 0bf3 0D       		.byte	0xd
 2623 0bf4 BF01     		.2byte	0x1bf
 2624 0bf6 7D040000 		.4byte	0x47d
 2625 0bfa 18       		.byte	0x18
 2626 0bfb 0C       		.uleb128 0xc
 2627 0bfc 61646300 		.ascii	"adc\000"
 2628 0c00 0D       		.byte	0xd
 2629 0c01 CB01     		.2byte	0x1cb
 2630 0c03 560D0000 		.4byte	0xd56
 2631 0c07 28       		.byte	0x28
 2632 0c08 16       		.uleb128 0x16
 2633 0c09 52060000 		.4byte	.LASF234
 2634 0c0d 0D       		.byte	0xd
 2635 0c0e CF01     		.2byte	0x1cf
 2636 0c10 5C0D0000 		.4byte	0xd5c
 2637 0c14 2C       		.byte	0x2c
 2638 0c15 16       		.uleb128 0x16
 2639 0c16 AD010000 		.4byte	.LASF235
 2640 0c1a 0D       		.byte	0xd
 2641 0c1b D301     		.2byte	0x1d3
 2642 0c1d CA000000 		.4byte	0xca
 2643 0c21 30       		.byte	0x30
 2644 0c22 00       		.byte	0
 2645 0c23 17       		.uleb128 0x17
ARM GAS  /tmp/cc2xpVSZ.s 			page 48


 2646 0c24 63000000 		.4byte	.LASF236
 2647 0c28 0D       		.byte	0xd
 2648 0c29 4501     		.2byte	0x145
 2649 0c2b 2F0C0000 		.4byte	0xc2f
 2650 0c2f 09       		.uleb128 0x9
 2651 0c30 04       		.byte	0x4
 2652 0c31 350C0000 		.4byte	0xc35
 2653 0c35 18       		.uleb128 0x18
 2654 0c36 4A0C0000 		.4byte	0xc4a
 2655 0c3a 19       		.uleb128 0x19
 2656 0c3b 4A0C0000 		.4byte	0xc4a
 2657 0c3f 19       		.uleb128 0x19
 2658 0c40 500C0000 		.4byte	0xc50
 2659 0c44 19       		.uleb128 0x19
 2660 0c45 28000000 		.4byte	0x28
 2661 0c49 00       		.byte	0
 2662 0c4a 09       		.uleb128 0x9
 2663 0c4b 04       		.byte	0x4
 2664 0c4c 870B0000 		.4byte	0xb87
 2665 0c50 09       		.uleb128 0x9
 2666 0c51 04       		.byte	0x4
 2667 0c52 4D0B0000 		.4byte	0xb4d
 2668 0c56 17       		.uleb128 0x17
 2669 0c57 C1070000 		.4byte	.LASF237
 2670 0c5b 0D       		.byte	0xd
 2671 0c5c 4E01     		.2byte	0x14e
 2672 0c5e 620C0000 		.4byte	0xc62
 2673 0c62 09       		.uleb128 0x9
 2674 0c63 04       		.byte	0x4
 2675 0c64 680C0000 		.4byte	0xc68
 2676 0c68 18       		.uleb128 0x18
 2677 0c69 780C0000 		.4byte	0xc78
 2678 0c6d 19       		.uleb128 0x19
 2679 0c6e 4A0C0000 		.4byte	0xc4a
 2680 0c72 19       		.uleb128 0x19
 2681 0c73 7B0B0000 		.4byte	0xb7b
 2682 0c77 00       		.byte	0
 2683 0c78 15       		.uleb128 0x15
 2684 0c79 28       		.byte	0x28
 2685 0c7a 0D       		.byte	0xd
 2686 0c7b 5801     		.2byte	0x158
 2687 0c7d 110D0000 		.4byte	0xd11
 2688 0c81 16       		.uleb128 0x16
 2689 0c82 E4040000 		.4byte	.LASF238
 2690 0c86 0D       		.byte	0xd
 2691 0c87 5C01     		.2byte	0x15c
 2692 0c89 E0000000 		.4byte	0xe0
 2693 0c8d 00       		.byte	0
 2694 0c8e 16       		.uleb128 0x16
 2695 0c8f 8A080000 		.4byte	.LASF239
 2696 0c93 0D       		.byte	0xd
 2697 0c94 6001     		.2byte	0x160
 2698 0c96 590B0000 		.4byte	0xb59
 2699 0c9a 02       		.byte	0x2
 2700 0c9b 16       		.uleb128 0x16
 2701 0c9c 3E010000 		.4byte	.LASF240
 2702 0ca0 0D       		.byte	0xd
ARM GAS  /tmp/cc2xpVSZ.s 			page 49


 2703 0ca1 6401     		.2byte	0x164
 2704 0ca3 230C0000 		.4byte	0xc23
 2705 0ca7 04       		.byte	0x4
 2706 0ca8 16       		.uleb128 0x16
 2707 0ca9 0E010000 		.4byte	.LASF241
 2708 0cad 0D       		.byte	0xd
 2709 0cae 6801     		.2byte	0x168
 2710 0cb0 560C0000 		.4byte	0xc56
 2711 0cb4 08       		.byte	0x8
 2712 0cb5 0C       		.uleb128 0xc
 2713 0cb6 63723100 		.ascii	"cr1\000"
 2714 0cba 0D       		.byte	0xd
 2715 0cbb 6F01     		.2byte	0x16f
 2716 0cbd CA000000 		.4byte	0xca
 2717 0cc1 0C       		.byte	0xc
 2718 0cc2 0C       		.uleb128 0xc
 2719 0cc3 63723200 		.ascii	"cr2\000"
 2720 0cc7 0D       		.byte	0xd
 2721 0cc8 7601     		.2byte	0x176
 2722 0cca CA000000 		.4byte	0xca
 2723 0cce 10       		.byte	0x10
 2724 0ccf 16       		.uleb128 0x16
 2725 0cd0 FE060000 		.4byte	.LASF242
 2726 0cd4 0D       		.byte	0xd
 2727 0cd5 7C01     		.2byte	0x17c
 2728 0cd7 CA000000 		.4byte	0xca
 2729 0cdb 14       		.byte	0x14
 2730 0cdc 16       		.uleb128 0x16
 2731 0cdd 04070000 		.4byte	.LASF243
 2732 0ce1 0D       		.byte	0xd
 2733 0ce2 8201     		.2byte	0x182
 2734 0ce4 CA000000 		.4byte	0xca
 2735 0ce8 18       		.byte	0x18
 2736 0ce9 16       		.uleb128 0x16
 2737 0cea 1F000000 		.4byte	.LASF244
 2738 0cee 0D       		.byte	0xd
 2739 0cef 8701     		.2byte	0x187
 2740 0cf1 CA000000 		.4byte	0xca
 2741 0cf5 1C       		.byte	0x1c
 2742 0cf6 16       		.uleb128 0x16
 2743 0cf7 24000000 		.4byte	.LASF245
 2744 0cfb 0D       		.byte	0xd
 2745 0cfc 8C01     		.2byte	0x18c
 2746 0cfe CA000000 		.4byte	0xca
 2747 0d02 20       		.byte	0x20
 2748 0d03 16       		.uleb128 0x16
 2749 0d04 DF040000 		.4byte	.LASF246
 2750 0d08 0D       		.byte	0xd
 2751 0d09 9101     		.2byte	0x191
 2752 0d0b CA000000 		.4byte	0xca
 2753 0d0f 24       		.byte	0x24
 2754 0d10 00       		.byte	0
 2755 0d11 17       		.uleb128 0x17
 2756 0d12 DE060000 		.4byte	.LASF247
 2757 0d16 0D       		.byte	0xd
 2758 0d17 9201     		.2byte	0x192
 2759 0d19 780C0000 		.4byte	0xc78
ARM GAS  /tmp/cc2xpVSZ.s 			page 50


 2760 0d1d 15       		.uleb128 0x15
 2761 0d1e 04       		.byte	0x4
 2762 0d1f 0D       		.byte	0xd
 2763 0d20 9801     		.2byte	0x198
 2764 0d22 340D0000 		.4byte	0xd34
 2765 0d26 16       		.uleb128 0x16
 2766 0d27 B60A0000 		.4byte	.LASF248
 2767 0d2b 0D       		.byte	0xd
 2768 0d2c 9901     		.2byte	0x199
 2769 0d2e CA000000 		.4byte	0xca
 2770 0d32 00       		.byte	0
 2771 0d33 00       		.byte	0
 2772 0d34 17       		.uleb128 0x17
 2773 0d35 2A0D0000 		.4byte	.LASF249
 2774 0d39 0D       		.byte	0xd
 2775 0d3a 9A01     		.2byte	0x19a
 2776 0d3c 1D0D0000 		.4byte	0xd1d
 2777 0d40 09       		.uleb128 0x9
 2778 0d41 04       		.byte	0x4
 2779 0d42 460D0000 		.4byte	0xd46
 2780 0d46 10       		.uleb128 0x10
 2781 0d47 340D0000 		.4byte	0xd34
 2782 0d4b 09       		.uleb128 0x9
 2783 0d4c 04       		.byte	0x4
 2784 0d4d 510D0000 		.4byte	0xd51
 2785 0d51 10       		.uleb128 0x10
 2786 0d52 110D0000 		.4byte	0xd11
 2787 0d56 09       		.uleb128 0x9
 2788 0d57 04       		.byte	0x4
 2789 0d58 37080000 		.4byte	0x837
 2790 0d5c 09       		.uleb128 0x9
 2791 0d5d 04       		.byte	0x4
 2792 0d5e 620D0000 		.4byte	0xd62
 2793 0d62 10       		.uleb128 0x10
 2794 0d63 E90A0000 		.4byte	0xae9
 2795 0d67 1C       		.uleb128 0x1c
 2796 0d68 250C0000 		.4byte	.LASF272
 2797 0d6c 01       		.byte	0x1
 2798 0d6d 4C       		.byte	0x4c
 2799 0d6e 00000000 		.4byte	.LFB111
 2800 0d72 8C010000 		.4byte	.LFE111-.LFB111
 2801 0d76 01       		.uleb128 0x1
 2802 0d77 9C       		.byte	0x9c
 2803 0d78 F50D0000 		.4byte	0xdf5
 2804 0d7c 1D       		.uleb128 0x1d
 2805 0d7d BC070000 		.4byte	.LASF250
 2806 0d81 01       		.byte	0x1
 2807 0d82 4C       		.byte	0x4c
 2808 0d83 4A0C0000 		.4byte	0xc4a
 2809 0d87 02       		.uleb128 0x2
 2810 0d88 91       		.byte	0x91
 2811 0d89 64       		.sleb128 -28
 2812 0d8a 1D       		.uleb128 0x1d
 2813 0d8b 45030000 		.4byte	.LASF251
 2814 0d8f 01       		.byte	0x1
 2815 0d90 4C       		.byte	0x4c
 2816 0d91 CA000000 		.4byte	0xca
ARM GAS  /tmp/cc2xpVSZ.s 			page 51


 2817 0d95 02       		.uleb128 0x2
 2818 0d96 91       		.byte	0x91
 2819 0d97 60       		.sleb128 -32
 2820 0d98 1E       		.uleb128 0x1e
 2821 0d99 54000000 		.4byte	.LBB2
 2822 0d9d 1A000000 		.4byte	.LBE2-.LBB2
 2823 0da1 B30D0000 		.4byte	0xdb3
 2824 0da5 1F       		.uleb128 0x1f
 2825 0da6 747000   		.ascii	"tp\000"
 2826 0da9 01       		.byte	0x1
 2827 0daa 52       		.byte	0x52
 2828 0dab 7F020000 		.4byte	0x27f
 2829 0daf 02       		.uleb128 0x2
 2830 0db0 91       		.byte	0x91
 2831 0db1 74       		.sleb128 -12
 2832 0db2 00       		.byte	0
 2833 0db3 1E       		.uleb128 0x1e
 2834 0db4 A4000000 		.4byte	.LBB3
 2835 0db8 30000000 		.4byte	.LBE3-.LBB3
 2836 0dbc DD0D0000 		.4byte	0xddd
 2837 0dc0 20       		.uleb128 0x20
 2838 0dc1 5B0A0000 		.4byte	.LASF252
 2839 0dc5 01       		.byte	0x1
 2840 0dc6 5A       		.byte	0x5a
 2841 0dc7 28000000 		.4byte	0x28
 2842 0dcb 02       		.uleb128 0x2
 2843 0dcc 91       		.byte	0x91
 2844 0dcd 70       		.sleb128 -16
 2845 0dce 20       		.uleb128 0x20
 2846 0dcf FF090000 		.4byte	.LASF253
 2847 0dd3 01       		.byte	0x1
 2848 0dd4 5A       		.byte	0x5a
 2849 0dd5 28000000 		.4byte	0x28
 2850 0dd9 02       		.uleb128 0x2
 2851 0dda 91       		.byte	0x91
 2852 0ddb 6C       		.sleb128 -20
 2853 0ddc 00       		.byte	0
 2854 0ddd 21       		.uleb128 0x21
 2855 0dde 40010000 		.4byte	.LBB4
 2856 0de2 18000000 		.4byte	.LBE4-.LBB4
 2857 0de6 1F       		.uleb128 0x1f
 2858 0de7 747000   		.ascii	"tp\000"
 2859 0dea 01       		.byte	0x1
 2860 0deb 5A       		.byte	0x5a
 2861 0dec 7F020000 		.4byte	0x27f
 2862 0df0 02       		.uleb128 0x2
 2863 0df1 91       		.byte	0x91
 2864 0df2 68       		.sleb128 -24
 2865 0df3 00       		.byte	0
 2866 0df4 00       		.byte	0
 2867 0df5 22       		.uleb128 0x22
 2868 0df6 D0010000 		.4byte	.LASF254
 2869 0dfa 01       		.byte	0x1
 2870 0dfb 6F       		.byte	0x6f
 2871 0dfc 00000000 		.4byte	.LFB112
 2872 0e00 34010000 		.4byte	.LFE112-.LFB112
 2873 0e04 01       		.uleb128 0x1
ARM GAS  /tmp/cc2xpVSZ.s 			page 52


 2874 0e05 9C       		.byte	0x9c
 2875 0e06 4A0E0000 		.4byte	0xe4a
 2876 0e0a 1F       		.uleb128 0x1f
 2877 0e0b 737200   		.ascii	"sr\000"
 2878 0e0e 01       		.byte	0x1
 2879 0e0f 70       		.byte	0x70
 2880 0e10 CA000000 		.4byte	0xca
 2881 0e14 02       		.uleb128 0x2
 2882 0e15 91       		.byte	0x91
 2883 0e16 74       		.sleb128 -12
 2884 0e17 1E       		.uleb128 0x1e
 2885 0e18 70000000 		.4byte	.LBB5
 2886 0e1c 1A000000 		.4byte	.LBE5-.LBB5
 2887 0e20 320E0000 		.4byte	0xe32
 2888 0e24 1F       		.uleb128 0x1f
 2889 0e25 747000   		.ascii	"tp\000"
 2890 0e28 01       		.byte	0x1
 2891 0e29 7D       		.byte	0x7d
 2892 0e2a 7F020000 		.4byte	0x27f
 2893 0e2e 02       		.uleb128 0x2
 2894 0e2f 91       		.byte	0x91
 2895 0e30 70       		.sleb128 -16
 2896 0e31 00       		.byte	0
 2897 0e32 21       		.uleb128 0x21
 2898 0e33 FA000000 		.4byte	.LBB6
 2899 0e37 1A000000 		.4byte	.LBE6-.LBB6
 2900 0e3b 1F       		.uleb128 0x1f
 2901 0e3c 747000   		.ascii	"tp\000"
 2902 0e3f 01       		.byte	0x1
 2903 0e40 8B       		.byte	0x8b
 2904 0e41 7F020000 		.4byte	0x27f
 2905 0e45 02       		.uleb128 0x2
 2906 0e46 91       		.byte	0x91
 2907 0e47 6C       		.sleb128 -20
 2908 0e48 00       		.byte	0
 2909 0e49 00       		.byte	0
 2910 0e4a 23       		.uleb128 0x23
 2911 0e4b 1F0A0000 		.4byte	.LASF260
 2912 0e4f 01       		.byte	0x1
 2913 0e50 AB       		.byte	0xab
 2914 0e51 00000000 		.4byte	.LFB113
 2915 0e55 5C000000 		.4byte	.LFE113-.LFB113
 2916 0e59 01       		.uleb128 0x1
 2917 0e5a 9C       		.byte	0x9c
 2918 0e5b 22       		.uleb128 0x22
 2919 0e5c 32000000 		.4byte	.LASF255
 2920 0e60 01       		.byte	0x1
 2921 0e61 E0       		.byte	0xe0
 2922 0e62 00000000 		.4byte	.LFB114
 2923 0e66 E4000000 		.4byte	.LFE114-.LFB114
 2924 0e6a 01       		.uleb128 0x1
 2925 0e6b 9C       		.byte	0x9c
 2926 0e6c AF0E0000 		.4byte	0xeaf
 2927 0e70 1D       		.uleb128 0x1d
 2928 0e71 BC070000 		.4byte	.LASF250
 2929 0e75 01       		.byte	0x1
 2930 0e76 E0       		.byte	0xe0
ARM GAS  /tmp/cc2xpVSZ.s 			page 53


 2931 0e77 4A0C0000 		.4byte	0xc4a
 2932 0e7b 02       		.uleb128 0x2
 2933 0e7c 91       		.byte	0x91
 2934 0e7d 6C       		.sleb128 -20
 2935 0e7e 1E       		.uleb128 0x1e
 2936 0e7f 16000000 		.4byte	.LBB7
 2937 0e83 3A000000 		.4byte	.LBE7-.LBB7
 2938 0e87 980E0000 		.4byte	0xe98
 2939 0e8b 1F       		.uleb128 0x1f
 2940 0e8c 6200     		.ascii	"b\000"
 2941 0e8e 01       		.byte	0x1
 2942 0e8f E6       		.byte	0xe6
 2943 0e90 E0000000 		.4byte	0xe0
 2944 0e94 02       		.uleb128 0x2
 2945 0e95 91       		.byte	0x91
 2946 0e96 77       		.sleb128 -9
 2947 0e97 00       		.byte	0
 2948 0e98 21       		.uleb128 0x21
 2949 0e99 58000000 		.4byte	.LBB8
 2950 0e9d 3A000000 		.4byte	.LBE8-.LBB8
 2951 0ea1 1F       		.uleb128 0x1f
 2952 0ea2 6200     		.ascii	"b\000"
 2953 0ea4 01       		.byte	0x1
 2954 0ea5 F3       		.byte	0xf3
 2955 0ea6 E0000000 		.4byte	0xe0
 2956 0eaa 02       		.uleb128 0x2
 2957 0eab 91       		.byte	0x91
 2958 0eac 76       		.sleb128 -10
 2959 0ead 00       		.byte	0
 2960 0eae 00       		.byte	0
 2961 0eaf 24       		.uleb128 0x24
 2962 0eb0 04020000 		.4byte	.LASF256
 2963 0eb4 01       		.byte	0x1
 2964 0eb5 1F01     		.2byte	0x11f
 2965 0eb7 00000000 		.4byte	.LFB115
 2966 0ebb 64000000 		.4byte	.LFE115-.LFB115
 2967 0ebf 01       		.uleb128 0x1
 2968 0ec0 9C       		.byte	0x9c
 2969 0ec1 D50E0000 		.4byte	0xed5
 2970 0ec5 25       		.uleb128 0x25
 2971 0ec6 BC070000 		.4byte	.LASF250
 2972 0eca 01       		.byte	0x1
 2973 0ecb 1F01     		.2byte	0x11f
 2974 0ecd 4A0C0000 		.4byte	0xc4a
 2975 0ed1 02       		.uleb128 0x2
 2976 0ed2 91       		.byte	0x91
 2977 0ed3 74       		.sleb128 -12
 2978 0ed4 00       		.byte	0
 2979 0ed5 26       		.uleb128 0x26
 2980 0ed6 0A070000 		.4byte	.LASF257
 2981 0eda 01       		.byte	0x1
 2982 0edb 3F01     		.2byte	0x13f
 2983 0edd 00000000 		.4byte	.LFB116
 2984 0ee1 02010000 		.4byte	.LFE116-.LFB116
 2985 0ee5 01       		.uleb128 0x1
 2986 0ee6 9C       		.byte	0x9c
 2987 0ee7 280F0000 		.4byte	0xf28
ARM GAS  /tmp/cc2xpVSZ.s 			page 54


 2988 0eeb 25       		.uleb128 0x25
 2989 0eec BC070000 		.4byte	.LASF250
 2990 0ef0 01       		.byte	0x1
 2991 0ef1 3F01     		.2byte	0x13f
 2992 0ef3 4A0C0000 		.4byte	0xc4a
 2993 0ef7 02       		.uleb128 0x2
 2994 0ef8 91       		.byte	0x91
 2995 0ef9 6C       		.sleb128 -20
 2996 0efa 27       		.uleb128 0x27
 2997 0efb 490B0000 		.4byte	.LASF258
 2998 0eff 01       		.byte	0x1
 2999 0f00 4001     		.2byte	0x140
 3000 0f02 CA000000 		.4byte	0xca
 3001 0f06 02       		.uleb128 0x2
 3002 0f07 91       		.byte	0x91
 3003 0f08 7C       		.sleb128 -4
 3004 0f09 28       		.uleb128 0x28
 3005 0f0a 63723200 		.ascii	"cr2\000"
 3006 0f0e 01       		.byte	0x1
 3007 0f0f 4101     		.2byte	0x141
 3008 0f11 CA000000 		.4byte	0xca
 3009 0f15 02       		.uleb128 0x2
 3010 0f16 91       		.byte	0x91
 3011 0f17 74       		.sleb128 -12
 3012 0f18 27       		.uleb128 0x27
 3013 0f19 FE0A0000 		.4byte	.LASF231
 3014 0f1d 01       		.byte	0x1
 3015 0f1e 4201     		.2byte	0x142
 3016 0f20 4B0D0000 		.4byte	0xd4b
 3017 0f24 02       		.uleb128 0x2
 3018 0f25 91       		.byte	0x91
 3019 0f26 78       		.sleb128 -8
 3020 0f27 00       		.byte	0
 3021 0f28 26       		.uleb128 0x26
 3022 0f29 EA080000 		.4byte	.LASF259
 3023 0f2d 01       		.byte	0x1
 3024 0f2e 7601     		.2byte	0x176
 3025 0f30 00000000 		.4byte	.LFB117
 3026 0f34 5A000000 		.4byte	.LFE117-.LFB117
 3027 0f38 01       		.uleb128 0x1
 3028 0f39 9C       		.byte	0x9c
 3029 0f3a 4E0F0000 		.4byte	0xf4e
 3030 0f3e 25       		.uleb128 0x25
 3031 0f3f BC070000 		.4byte	.LASF250
 3032 0f43 01       		.byte	0x1
 3033 0f44 7601     		.2byte	0x176
 3034 0f46 4A0C0000 		.4byte	0xc4a
 3035 0f4a 02       		.uleb128 0x2
 3036 0f4b 91       		.byte	0x91
 3037 0f4c 7C       		.sleb128 -4
 3038 0f4d 00       		.byte	0
 3039 0f4e 29       		.uleb128 0x29
 3040 0f4f 44020000 		.4byte	.LASF261
 3041 0f53 01       		.byte	0x1
 3042 0f54 8401     		.2byte	0x184
 3043 0f56 00000000 		.4byte	.LFB118
 3044 0f5a 14000000 		.4byte	.LFE118-.LFB118
ARM GAS  /tmp/cc2xpVSZ.s 			page 55


 3045 0f5e 01       		.uleb128 0x1
 3046 0f5f 9C       		.byte	0x9c
 3047 0f60 29       		.uleb128 0x29
 3048 0f61 F30C0000 		.4byte	.LASF262
 3049 0f65 01       		.byte	0x1
 3050 0f66 8F01     		.2byte	0x18f
 3051 0f68 00000000 		.4byte	.LFB119
 3052 0f6c 14000000 		.4byte	.LFE119-.LFB119
 3053 0f70 01       		.uleb128 0x1
 3054 0f71 9C       		.byte	0x9c
 3055 0f72 29       		.uleb128 0x29
 3056 0f73 6A0A0000 		.4byte	.LASF263
 3057 0f77 01       		.byte	0x1
 3058 0f78 9A01     		.2byte	0x19a
 3059 0f7a 00000000 		.4byte	.LFB120
 3060 0f7e 14000000 		.4byte	.LFE120-.LFB120
 3061 0f82 01       		.uleb128 0x1
 3062 0f83 9C       		.byte	0x9c
 3063 0f84 29       		.uleb128 0x29
 3064 0f85 F9000000 		.4byte	.LASF264
 3065 0f89 01       		.byte	0x1
 3066 0f8a A501     		.2byte	0x1a5
 3067 0f8c 00000000 		.4byte	.LFB121
 3068 0f90 14000000 		.4byte	.LFE121-.LFB121
 3069 0f94 01       		.uleb128 0x1
 3070 0f95 9C       		.byte	0x9c
 3071 0f96 2A       		.uleb128 0x2a
 3072 0f97 AD0B0000 		.4byte	.LASF265
 3073 0f9b 0E       		.byte	0xe
 3074 0f9c 9806     		.2byte	0x698
 3075 0f9e 26070000 		.4byte	0x726
 3076 0fa2 13       		.uleb128 0x13
 3077 0fa3 E90A0000 		.4byte	0xae9
 3078 0fa7 B20F0000 		.4byte	0xfb2
 3079 0fab 14       		.uleb128 0x14
 3080 0fac 3A040000 		.4byte	0x43a
 3081 0fb0 0F       		.byte	0xf
 3082 0fb1 00       		.byte	0
 3083 0fb2 2A       		.uleb128 0x2a
 3084 0fb3 8D060000 		.4byte	.LASF266
 3085 0fb7 0B       		.byte	0xb
 3086 0fb8 BB01     		.2byte	0x1bb
 3087 0fba BE0F0000 		.4byte	0xfbe
 3088 0fbe 10       		.uleb128 0x10
 3089 0fbf A20F0000 		.4byte	0xfa2
 3090 0fc3 2B       		.uleb128 0x2b
 3091 0fc4 A3080000 		.4byte	.LASF267
 3092 0fc8 01       		.byte	0x1
 3093 0fc9 31       		.byte	0x31
 3094 0fca 870B0000 		.4byte	0xb87
 3095 0fce 05       		.uleb128 0x5
 3096 0fcf 03       		.byte	0x3
 3097 0fd0 00000000 		.4byte	ADCD1
 3098 0fd4 2B       		.uleb128 0x2b
 3099 0fd5 A9080000 		.4byte	.LASF268
 3100 0fd9 01       		.byte	0x1
 3101 0fda 36       		.byte	0x36
ARM GAS  /tmp/cc2xpVSZ.s 			page 56


 3102 0fdb 870B0000 		.4byte	0xb87
 3103 0fdf 05       		.uleb128 0x5
 3104 0fe0 03       		.byte	0x3
 3105 0fe1 00000000 		.4byte	ADCD2
 3106 0fe5 00       		.byte	0
 3107              		.section	.debug_abbrev,"",%progbits
 3108              	.Ldebug_abbrev0:
 3109 0000 01       		.uleb128 0x1
 3110 0001 11       		.uleb128 0x11
 3111 0002 01       		.byte	0x1
 3112 0003 25       		.uleb128 0x25
 3113 0004 0E       		.uleb128 0xe
 3114 0005 13       		.uleb128 0x13
 3115 0006 0B       		.uleb128 0xb
 3116 0007 03       		.uleb128 0x3
 3117 0008 0E       		.uleb128 0xe
 3118 0009 55       		.uleb128 0x55
 3119 000a 17       		.uleb128 0x17
 3120 000b 11       		.uleb128 0x11
 3121 000c 01       		.uleb128 0x1
 3122 000d 10       		.uleb128 0x10
 3123 000e 17       		.uleb128 0x17
 3124 000f 00       		.byte	0
 3125 0010 00       		.byte	0
 3126 0011 02       		.uleb128 0x2
 3127 0012 24       		.uleb128 0x24
 3128 0013 00       		.byte	0
 3129 0014 0B       		.uleb128 0xb
 3130 0015 0B       		.uleb128 0xb
 3131 0016 3E       		.uleb128 0x3e
 3132 0017 0B       		.uleb128 0xb
 3133 0018 03       		.uleb128 0x3
 3134 0019 08       		.uleb128 0x8
 3135 001a 00       		.byte	0
 3136 001b 00       		.byte	0
 3137 001c 03       		.uleb128 0x3
 3138 001d 16       		.uleb128 0x16
 3139 001e 00       		.byte	0
 3140 001f 03       		.uleb128 0x3
 3141 0020 0E       		.uleb128 0xe
 3142 0021 3A       		.uleb128 0x3a
 3143 0022 0B       		.uleb128 0xb
 3144 0023 3B       		.uleb128 0x3b
 3145 0024 0B       		.uleb128 0xb
 3146 0025 49       		.uleb128 0x49
 3147 0026 13       		.uleb128 0x13
 3148 0027 00       		.byte	0
 3149 0028 00       		.byte	0
 3150 0029 04       		.uleb128 0x4
 3151 002a 24       		.uleb128 0x24
 3152 002b 00       		.byte	0
 3153 002c 0B       		.uleb128 0xb
 3154 002d 0B       		.uleb128 0xb
 3155 002e 3E       		.uleb128 0x3e
 3156 002f 0B       		.uleb128 0xb
 3157 0030 03       		.uleb128 0x3
 3158 0031 0E       		.uleb128 0xe
ARM GAS  /tmp/cc2xpVSZ.s 			page 57


 3159 0032 00       		.byte	0
 3160 0033 00       		.byte	0
 3161 0034 05       		.uleb128 0x5
 3162 0035 13       		.uleb128 0x13
 3163 0036 01       		.byte	0x1
 3164 0037 03       		.uleb128 0x3
 3165 0038 0E       		.uleb128 0xe
 3166 0039 0B       		.uleb128 0xb
 3167 003a 0B       		.uleb128 0xb
 3168 003b 3A       		.uleb128 0x3a
 3169 003c 0B       		.uleb128 0xb
 3170 003d 3B       		.uleb128 0x3b
 3171 003e 0B       		.uleb128 0xb
 3172 003f 01       		.uleb128 0x1
 3173 0040 13       		.uleb128 0x13
 3174 0041 00       		.byte	0
 3175 0042 00       		.byte	0
 3176 0043 06       		.uleb128 0x6
 3177 0044 0D       		.uleb128 0xd
 3178 0045 00       		.byte	0
 3179 0046 03       		.uleb128 0x3
 3180 0047 0E       		.uleb128 0xe
 3181 0048 3A       		.uleb128 0x3a
 3182 0049 0B       		.uleb128 0xb
 3183 004a 3B       		.uleb128 0x3b
 3184 004b 0B       		.uleb128 0xb
 3185 004c 49       		.uleb128 0x49
 3186 004d 13       		.uleb128 0x13
 3187 004e 38       		.uleb128 0x38
 3188 004f 0B       		.uleb128 0xb
 3189 0050 00       		.byte	0
 3190 0051 00       		.byte	0
 3191 0052 07       		.uleb128 0x7
 3192 0053 0D       		.uleb128 0xd
 3193 0054 00       		.byte	0
 3194 0055 03       		.uleb128 0x3
 3195 0056 08       		.uleb128 0x8
 3196 0057 3A       		.uleb128 0x3a
 3197 0058 0B       		.uleb128 0xb
 3198 0059 3B       		.uleb128 0x3b
 3199 005a 0B       		.uleb128 0xb
 3200 005b 49       		.uleb128 0x49
 3201 005c 13       		.uleb128 0x13
 3202 005d 38       		.uleb128 0x38
 3203 005e 0B       		.uleb128 0xb
 3204 005f 00       		.byte	0
 3205 0060 00       		.byte	0
 3206 0061 08       		.uleb128 0x8
 3207 0062 13       		.uleb128 0x13
 3208 0063 01       		.byte	0x1
 3209 0064 0B       		.uleb128 0xb
 3210 0065 0B       		.uleb128 0xb
 3211 0066 3A       		.uleb128 0x3a
 3212 0067 0B       		.uleb128 0xb
 3213 0068 3B       		.uleb128 0x3b
 3214 0069 0B       		.uleb128 0xb
 3215 006a 01       		.uleb128 0x1
ARM GAS  /tmp/cc2xpVSZ.s 			page 58


 3216 006b 13       		.uleb128 0x13
 3217 006c 00       		.byte	0
 3218 006d 00       		.byte	0
 3219 006e 09       		.uleb128 0x9
 3220 006f 0F       		.uleb128 0xf
 3221 0070 00       		.byte	0
 3222 0071 0B       		.uleb128 0xb
 3223 0072 0B       		.uleb128 0xb
 3224 0073 49       		.uleb128 0x49
 3225 0074 13       		.uleb128 0x13
 3226 0075 00       		.byte	0
 3227 0076 00       		.byte	0
 3228 0077 0A       		.uleb128 0xa
 3229 0078 0F       		.uleb128 0xf
 3230 0079 00       		.byte	0
 3231 007a 0B       		.uleb128 0xb
 3232 007b 0B       		.uleb128 0xb
 3233 007c 00       		.byte	0
 3234 007d 00       		.byte	0
 3235 007e 0B       		.uleb128 0xb
 3236 007f 13       		.uleb128 0x13
 3237 0080 01       		.byte	0x1
 3238 0081 03       		.uleb128 0x3
 3239 0082 0E       		.uleb128 0xe
 3240 0083 0B       		.uleb128 0xb
 3241 0084 0B       		.uleb128 0xb
 3242 0085 3A       		.uleb128 0x3a
 3243 0086 0B       		.uleb128 0xb
 3244 0087 3B       		.uleb128 0x3b
 3245 0088 05       		.uleb128 0x5
 3246 0089 01       		.uleb128 0x1
 3247 008a 13       		.uleb128 0x13
 3248 008b 00       		.byte	0
 3249 008c 00       		.byte	0
 3250 008d 0C       		.uleb128 0xc
 3251 008e 0D       		.uleb128 0xd
 3252 008f 00       		.byte	0
 3253 0090 03       		.uleb128 0x3
 3254 0091 08       		.uleb128 0x8
 3255 0092 3A       		.uleb128 0x3a
 3256 0093 0B       		.uleb128 0xb
 3257 0094 3B       		.uleb128 0x3b
 3258 0095 05       		.uleb128 0x5
 3259 0096 49       		.uleb128 0x49
 3260 0097 13       		.uleb128 0x13
 3261 0098 38       		.uleb128 0x38
 3262 0099 0B       		.uleb128 0xb
 3263 009a 00       		.byte	0
 3264 009b 00       		.byte	0
 3265 009c 0D       		.uleb128 0xd
 3266 009d 35       		.uleb128 0x35
 3267 009e 00       		.byte	0
 3268 009f 49       		.uleb128 0x49
 3269 00a0 13       		.uleb128 0x13
 3270 00a1 00       		.byte	0
 3271 00a2 00       		.byte	0
 3272 00a3 0E       		.uleb128 0xe
ARM GAS  /tmp/cc2xpVSZ.s 			page 59


 3273 00a4 17       		.uleb128 0x17
 3274 00a5 01       		.byte	0x1
 3275 00a6 0B       		.uleb128 0xb
 3276 00a7 0B       		.uleb128 0xb
 3277 00a8 3A       		.uleb128 0x3a
 3278 00a9 0B       		.uleb128 0xb
 3279 00aa 3B       		.uleb128 0x3b
 3280 00ab 0B       		.uleb128 0xb
 3281 00ac 01       		.uleb128 0x1
 3282 00ad 13       		.uleb128 0x13
 3283 00ae 00       		.byte	0
 3284 00af 00       		.byte	0
 3285 00b0 0F       		.uleb128 0xf
 3286 00b1 0D       		.uleb128 0xd
 3287 00b2 00       		.byte	0
 3288 00b3 03       		.uleb128 0x3
 3289 00b4 0E       		.uleb128 0xe
 3290 00b5 3A       		.uleb128 0x3a
 3291 00b6 0B       		.uleb128 0xb
 3292 00b7 3B       		.uleb128 0x3b
 3293 00b8 0B       		.uleb128 0xb
 3294 00b9 49       		.uleb128 0x49
 3295 00ba 13       		.uleb128 0x13
 3296 00bb 00       		.byte	0
 3297 00bc 00       		.byte	0
 3298 00bd 10       		.uleb128 0x10
 3299 00be 26       		.uleb128 0x26
 3300 00bf 00       		.byte	0
 3301 00c0 49       		.uleb128 0x49
 3302 00c1 13       		.uleb128 0x13
 3303 00c2 00       		.byte	0
 3304 00c3 00       		.byte	0
 3305 00c4 11       		.uleb128 0x11
 3306 00c5 04       		.uleb128 0x4
 3307 00c6 01       		.byte	0x1
 3308 00c7 03       		.uleb128 0x3
 3309 00c8 0E       		.uleb128 0xe
 3310 00c9 0B       		.uleb128 0xb
 3311 00ca 0B       		.uleb128 0xb
 3312 00cb 3A       		.uleb128 0x3a
 3313 00cc 0B       		.uleb128 0xb
 3314 00cd 3B       		.uleb128 0x3b
 3315 00ce 0B       		.uleb128 0xb
 3316 00cf 01       		.uleb128 0x1
 3317 00d0 13       		.uleb128 0x13
 3318 00d1 00       		.byte	0
 3319 00d2 00       		.byte	0
 3320 00d3 12       		.uleb128 0x12
 3321 00d4 28       		.uleb128 0x28
 3322 00d5 00       		.byte	0
 3323 00d6 03       		.uleb128 0x3
 3324 00d7 0E       		.uleb128 0xe
 3325 00d8 1C       		.uleb128 0x1c
 3326 00d9 0D       		.uleb128 0xd
 3327 00da 00       		.byte	0
 3328 00db 00       		.byte	0
 3329 00dc 13       		.uleb128 0x13
ARM GAS  /tmp/cc2xpVSZ.s 			page 60


 3330 00dd 01       		.uleb128 0x1
 3331 00de 01       		.byte	0x1
 3332 00df 49       		.uleb128 0x49
 3333 00e0 13       		.uleb128 0x13
 3334 00e1 01       		.uleb128 0x1
 3335 00e2 13       		.uleb128 0x13
 3336 00e3 00       		.byte	0
 3337 00e4 00       		.byte	0
 3338 00e5 14       		.uleb128 0x14
 3339 00e6 21       		.uleb128 0x21
 3340 00e7 00       		.byte	0
 3341 00e8 49       		.uleb128 0x49
 3342 00e9 13       		.uleb128 0x13
 3343 00ea 2F       		.uleb128 0x2f
 3344 00eb 0B       		.uleb128 0xb
 3345 00ec 00       		.byte	0
 3346 00ed 00       		.byte	0
 3347 00ee 15       		.uleb128 0x15
 3348 00ef 13       		.uleb128 0x13
 3349 00f0 01       		.byte	0x1
 3350 00f1 0B       		.uleb128 0xb
 3351 00f2 0B       		.uleb128 0xb
 3352 00f3 3A       		.uleb128 0x3a
 3353 00f4 0B       		.uleb128 0xb
 3354 00f5 3B       		.uleb128 0x3b
 3355 00f6 05       		.uleb128 0x5
 3356 00f7 01       		.uleb128 0x1
 3357 00f8 13       		.uleb128 0x13
 3358 00f9 00       		.byte	0
 3359 00fa 00       		.byte	0
 3360 00fb 16       		.uleb128 0x16
 3361 00fc 0D       		.uleb128 0xd
 3362 00fd 00       		.byte	0
 3363 00fe 03       		.uleb128 0x3
 3364 00ff 0E       		.uleb128 0xe
 3365 0100 3A       		.uleb128 0x3a
 3366 0101 0B       		.uleb128 0xb
 3367 0102 3B       		.uleb128 0x3b
 3368 0103 05       		.uleb128 0x5
 3369 0104 49       		.uleb128 0x49
 3370 0105 13       		.uleb128 0x13
 3371 0106 38       		.uleb128 0x38
 3372 0107 0B       		.uleb128 0xb
 3373 0108 00       		.byte	0
 3374 0109 00       		.byte	0
 3375 010a 17       		.uleb128 0x17
 3376 010b 16       		.uleb128 0x16
 3377 010c 00       		.byte	0
 3378 010d 03       		.uleb128 0x3
 3379 010e 0E       		.uleb128 0xe
 3380 010f 3A       		.uleb128 0x3a
 3381 0110 0B       		.uleb128 0xb
 3382 0111 3B       		.uleb128 0x3b
 3383 0112 05       		.uleb128 0x5
 3384 0113 49       		.uleb128 0x49
 3385 0114 13       		.uleb128 0x13
 3386 0115 00       		.byte	0
ARM GAS  /tmp/cc2xpVSZ.s 			page 61


 3387 0116 00       		.byte	0
 3388 0117 18       		.uleb128 0x18
 3389 0118 15       		.uleb128 0x15
 3390 0119 01       		.byte	0x1
 3391 011a 27       		.uleb128 0x27
 3392 011b 19       		.uleb128 0x19
 3393 011c 01       		.uleb128 0x1
 3394 011d 13       		.uleb128 0x13
 3395 011e 00       		.byte	0
 3396 011f 00       		.byte	0
 3397 0120 19       		.uleb128 0x19
 3398 0121 05       		.uleb128 0x5
 3399 0122 00       		.byte	0
 3400 0123 49       		.uleb128 0x49
 3401 0124 13       		.uleb128 0x13
 3402 0125 00       		.byte	0
 3403 0126 00       		.byte	0
 3404 0127 1A       		.uleb128 0x1a
 3405 0128 04       		.uleb128 0x4
 3406 0129 01       		.byte	0x1
 3407 012a 0B       		.uleb128 0xb
 3408 012b 0B       		.uleb128 0xb
 3409 012c 3A       		.uleb128 0x3a
 3410 012d 0B       		.uleb128 0xb
 3411 012e 3B       		.uleb128 0x3b
 3412 012f 0B       		.uleb128 0xb
 3413 0130 01       		.uleb128 0x1
 3414 0131 13       		.uleb128 0x13
 3415 0132 00       		.byte	0
 3416 0133 00       		.byte	0
 3417 0134 1B       		.uleb128 0x1b
 3418 0135 04       		.uleb128 0x4
 3419 0136 01       		.byte	0x1
 3420 0137 0B       		.uleb128 0xb
 3421 0138 0B       		.uleb128 0xb
 3422 0139 3A       		.uleb128 0x3a
 3423 013a 0B       		.uleb128 0xb
 3424 013b 3B       		.uleb128 0x3b
 3425 013c 05       		.uleb128 0x5
 3426 013d 01       		.uleb128 0x1
 3427 013e 13       		.uleb128 0x13
 3428 013f 00       		.byte	0
 3429 0140 00       		.byte	0
 3430 0141 1C       		.uleb128 0x1c
 3431 0142 2E       		.uleb128 0x2e
 3432 0143 01       		.byte	0x1
 3433 0144 03       		.uleb128 0x3
 3434 0145 0E       		.uleb128 0xe
 3435 0146 3A       		.uleb128 0x3a
 3436 0147 0B       		.uleb128 0xb
 3437 0148 3B       		.uleb128 0x3b
 3438 0149 0B       		.uleb128 0xb
 3439 014a 27       		.uleb128 0x27
 3440 014b 19       		.uleb128 0x19
 3441 014c 11       		.uleb128 0x11
 3442 014d 01       		.uleb128 0x1
 3443 014e 12       		.uleb128 0x12
ARM GAS  /tmp/cc2xpVSZ.s 			page 62


 3444 014f 06       		.uleb128 0x6
 3445 0150 40       		.uleb128 0x40
 3446 0151 18       		.uleb128 0x18
 3447 0152 9642     		.uleb128 0x2116
 3448 0154 19       		.uleb128 0x19
 3449 0155 01       		.uleb128 0x1
 3450 0156 13       		.uleb128 0x13
 3451 0157 00       		.byte	0
 3452 0158 00       		.byte	0
 3453 0159 1D       		.uleb128 0x1d
 3454 015a 05       		.uleb128 0x5
 3455 015b 00       		.byte	0
 3456 015c 03       		.uleb128 0x3
 3457 015d 0E       		.uleb128 0xe
 3458 015e 3A       		.uleb128 0x3a
 3459 015f 0B       		.uleb128 0xb
 3460 0160 3B       		.uleb128 0x3b
 3461 0161 0B       		.uleb128 0xb
 3462 0162 49       		.uleb128 0x49
 3463 0163 13       		.uleb128 0x13
 3464 0164 02       		.uleb128 0x2
 3465 0165 18       		.uleb128 0x18
 3466 0166 00       		.byte	0
 3467 0167 00       		.byte	0
 3468 0168 1E       		.uleb128 0x1e
 3469 0169 0B       		.uleb128 0xb
 3470 016a 01       		.byte	0x1
 3471 016b 11       		.uleb128 0x11
 3472 016c 01       		.uleb128 0x1
 3473 016d 12       		.uleb128 0x12
 3474 016e 06       		.uleb128 0x6
 3475 016f 01       		.uleb128 0x1
 3476 0170 13       		.uleb128 0x13
 3477 0171 00       		.byte	0
 3478 0172 00       		.byte	0
 3479 0173 1F       		.uleb128 0x1f
 3480 0174 34       		.uleb128 0x34
 3481 0175 00       		.byte	0
 3482 0176 03       		.uleb128 0x3
 3483 0177 08       		.uleb128 0x8
 3484 0178 3A       		.uleb128 0x3a
 3485 0179 0B       		.uleb128 0xb
 3486 017a 3B       		.uleb128 0x3b
 3487 017b 0B       		.uleb128 0xb
 3488 017c 49       		.uleb128 0x49
 3489 017d 13       		.uleb128 0x13
 3490 017e 02       		.uleb128 0x2
 3491 017f 18       		.uleb128 0x18
 3492 0180 00       		.byte	0
 3493 0181 00       		.byte	0
 3494 0182 20       		.uleb128 0x20
 3495 0183 34       		.uleb128 0x34
 3496 0184 00       		.byte	0
 3497 0185 03       		.uleb128 0x3
 3498 0186 0E       		.uleb128 0xe
 3499 0187 3A       		.uleb128 0x3a
 3500 0188 0B       		.uleb128 0xb
ARM GAS  /tmp/cc2xpVSZ.s 			page 63


 3501 0189 3B       		.uleb128 0x3b
 3502 018a 0B       		.uleb128 0xb
 3503 018b 49       		.uleb128 0x49
 3504 018c 13       		.uleb128 0x13
 3505 018d 02       		.uleb128 0x2
 3506 018e 18       		.uleb128 0x18
 3507 018f 00       		.byte	0
 3508 0190 00       		.byte	0
 3509 0191 21       		.uleb128 0x21
 3510 0192 0B       		.uleb128 0xb
 3511 0193 01       		.byte	0x1
 3512 0194 11       		.uleb128 0x11
 3513 0195 01       		.uleb128 0x1
 3514 0196 12       		.uleb128 0x12
 3515 0197 06       		.uleb128 0x6
 3516 0198 00       		.byte	0
 3517 0199 00       		.byte	0
 3518 019a 22       		.uleb128 0x22
 3519 019b 2E       		.uleb128 0x2e
 3520 019c 01       		.byte	0x1
 3521 019d 3F       		.uleb128 0x3f
 3522 019e 19       		.uleb128 0x19
 3523 019f 03       		.uleb128 0x3
 3524 01a0 0E       		.uleb128 0xe
 3525 01a1 3A       		.uleb128 0x3a
 3526 01a2 0B       		.uleb128 0xb
 3527 01a3 3B       		.uleb128 0x3b
 3528 01a4 0B       		.uleb128 0xb
 3529 01a5 27       		.uleb128 0x27
 3530 01a6 19       		.uleb128 0x19
 3531 01a7 11       		.uleb128 0x11
 3532 01a8 01       		.uleb128 0x1
 3533 01a9 12       		.uleb128 0x12
 3534 01aa 06       		.uleb128 0x6
 3535 01ab 40       		.uleb128 0x40
 3536 01ac 18       		.uleb128 0x18
 3537 01ad 9642     		.uleb128 0x2116
 3538 01af 19       		.uleb128 0x19
 3539 01b0 01       		.uleb128 0x1
 3540 01b1 13       		.uleb128 0x13
 3541 01b2 00       		.byte	0
 3542 01b3 00       		.byte	0
 3543 01b4 23       		.uleb128 0x23
 3544 01b5 2E       		.uleb128 0x2e
 3545 01b6 00       		.byte	0
 3546 01b7 3F       		.uleb128 0x3f
 3547 01b8 19       		.uleb128 0x19
 3548 01b9 03       		.uleb128 0x3
 3549 01ba 0E       		.uleb128 0xe
 3550 01bb 3A       		.uleb128 0x3a
 3551 01bc 0B       		.uleb128 0xb
 3552 01bd 3B       		.uleb128 0x3b
 3553 01be 0B       		.uleb128 0xb
 3554 01bf 27       		.uleb128 0x27
 3555 01c0 19       		.uleb128 0x19
 3556 01c1 11       		.uleb128 0x11
 3557 01c2 01       		.uleb128 0x1
ARM GAS  /tmp/cc2xpVSZ.s 			page 64


 3558 01c3 12       		.uleb128 0x12
 3559 01c4 06       		.uleb128 0x6
 3560 01c5 40       		.uleb128 0x40
 3561 01c6 18       		.uleb128 0x18
 3562 01c7 9642     		.uleb128 0x2116
 3563 01c9 19       		.uleb128 0x19
 3564 01ca 00       		.byte	0
 3565 01cb 00       		.byte	0
 3566 01cc 24       		.uleb128 0x24
 3567 01cd 2E       		.uleb128 0x2e
 3568 01ce 01       		.byte	0x1
 3569 01cf 3F       		.uleb128 0x3f
 3570 01d0 19       		.uleb128 0x19
 3571 01d1 03       		.uleb128 0x3
 3572 01d2 0E       		.uleb128 0xe
 3573 01d3 3A       		.uleb128 0x3a
 3574 01d4 0B       		.uleb128 0xb
 3575 01d5 3B       		.uleb128 0x3b
 3576 01d6 05       		.uleb128 0x5
 3577 01d7 27       		.uleb128 0x27
 3578 01d8 19       		.uleb128 0x19
 3579 01d9 11       		.uleb128 0x11
 3580 01da 01       		.uleb128 0x1
 3581 01db 12       		.uleb128 0x12
 3582 01dc 06       		.uleb128 0x6
 3583 01dd 40       		.uleb128 0x40
 3584 01de 18       		.uleb128 0x18
 3585 01df 9642     		.uleb128 0x2116
 3586 01e1 19       		.uleb128 0x19
 3587 01e2 01       		.uleb128 0x1
 3588 01e3 13       		.uleb128 0x13
 3589 01e4 00       		.byte	0
 3590 01e5 00       		.byte	0
 3591 01e6 25       		.uleb128 0x25
 3592 01e7 05       		.uleb128 0x5
 3593 01e8 00       		.byte	0
 3594 01e9 03       		.uleb128 0x3
 3595 01ea 0E       		.uleb128 0xe
 3596 01eb 3A       		.uleb128 0x3a
 3597 01ec 0B       		.uleb128 0xb
 3598 01ed 3B       		.uleb128 0x3b
 3599 01ee 05       		.uleb128 0x5
 3600 01ef 49       		.uleb128 0x49
 3601 01f0 13       		.uleb128 0x13
 3602 01f1 02       		.uleb128 0x2
 3603 01f2 18       		.uleb128 0x18
 3604 01f3 00       		.byte	0
 3605 01f4 00       		.byte	0
 3606 01f5 26       		.uleb128 0x26
 3607 01f6 2E       		.uleb128 0x2e
 3608 01f7 01       		.byte	0x1
 3609 01f8 3F       		.uleb128 0x3f
 3610 01f9 19       		.uleb128 0x19
 3611 01fa 03       		.uleb128 0x3
 3612 01fb 0E       		.uleb128 0xe
 3613 01fc 3A       		.uleb128 0x3a
 3614 01fd 0B       		.uleb128 0xb
ARM GAS  /tmp/cc2xpVSZ.s 			page 65


 3615 01fe 3B       		.uleb128 0x3b
 3616 01ff 05       		.uleb128 0x5
 3617 0200 27       		.uleb128 0x27
 3618 0201 19       		.uleb128 0x19
 3619 0202 11       		.uleb128 0x11
 3620 0203 01       		.uleb128 0x1
 3621 0204 12       		.uleb128 0x12
 3622 0205 06       		.uleb128 0x6
 3623 0206 40       		.uleb128 0x40
 3624 0207 18       		.uleb128 0x18
 3625 0208 9742     		.uleb128 0x2117
 3626 020a 19       		.uleb128 0x19
 3627 020b 01       		.uleb128 0x1
 3628 020c 13       		.uleb128 0x13
 3629 020d 00       		.byte	0
 3630 020e 00       		.byte	0
 3631 020f 27       		.uleb128 0x27
 3632 0210 34       		.uleb128 0x34
 3633 0211 00       		.byte	0
 3634 0212 03       		.uleb128 0x3
 3635 0213 0E       		.uleb128 0xe
 3636 0214 3A       		.uleb128 0x3a
 3637 0215 0B       		.uleb128 0xb
 3638 0216 3B       		.uleb128 0x3b
 3639 0217 05       		.uleb128 0x5
 3640 0218 49       		.uleb128 0x49
 3641 0219 13       		.uleb128 0x13
 3642 021a 02       		.uleb128 0x2
 3643 021b 18       		.uleb128 0x18
 3644 021c 00       		.byte	0
 3645 021d 00       		.byte	0
 3646 021e 28       		.uleb128 0x28
 3647 021f 34       		.uleb128 0x34
 3648 0220 00       		.byte	0
 3649 0221 03       		.uleb128 0x3
 3650 0222 08       		.uleb128 0x8
 3651 0223 3A       		.uleb128 0x3a
 3652 0224 0B       		.uleb128 0xb
 3653 0225 3B       		.uleb128 0x3b
 3654 0226 05       		.uleb128 0x5
 3655 0227 49       		.uleb128 0x49
 3656 0228 13       		.uleb128 0x13
 3657 0229 02       		.uleb128 0x2
 3658 022a 18       		.uleb128 0x18
 3659 022b 00       		.byte	0
 3660 022c 00       		.byte	0
 3661 022d 29       		.uleb128 0x29
 3662 022e 2E       		.uleb128 0x2e
 3663 022f 00       		.byte	0
 3664 0230 3F       		.uleb128 0x3f
 3665 0231 19       		.uleb128 0x19
 3666 0232 03       		.uleb128 0x3
 3667 0233 0E       		.uleb128 0xe
 3668 0234 3A       		.uleb128 0x3a
 3669 0235 0B       		.uleb128 0xb
 3670 0236 3B       		.uleb128 0x3b
 3671 0237 05       		.uleb128 0x5
ARM GAS  /tmp/cc2xpVSZ.s 			page 66


 3672 0238 27       		.uleb128 0x27
 3673 0239 19       		.uleb128 0x19
 3674 023a 11       		.uleb128 0x11
 3675 023b 01       		.uleb128 0x1
 3676 023c 12       		.uleb128 0x12
 3677 023d 06       		.uleb128 0x6
 3678 023e 40       		.uleb128 0x40
 3679 023f 18       		.uleb128 0x18
 3680 0240 9742     		.uleb128 0x2117
 3681 0242 19       		.uleb128 0x19
 3682 0243 00       		.byte	0
 3683 0244 00       		.byte	0
 3684 0245 2A       		.uleb128 0x2a
 3685 0246 34       		.uleb128 0x34
 3686 0247 00       		.byte	0
 3687 0248 03       		.uleb128 0x3
 3688 0249 0E       		.uleb128 0xe
 3689 024a 3A       		.uleb128 0x3a
 3690 024b 0B       		.uleb128 0xb
 3691 024c 3B       		.uleb128 0x3b
 3692 024d 05       		.uleb128 0x5
 3693 024e 49       		.uleb128 0x49
 3694 024f 13       		.uleb128 0x13
 3695 0250 3F       		.uleb128 0x3f
 3696 0251 19       		.uleb128 0x19
 3697 0252 3C       		.uleb128 0x3c
 3698 0253 19       		.uleb128 0x19
 3699 0254 00       		.byte	0
 3700 0255 00       		.byte	0
 3701 0256 2B       		.uleb128 0x2b
 3702 0257 34       		.uleb128 0x34
 3703 0258 00       		.byte	0
 3704 0259 03       		.uleb128 0x3
 3705 025a 0E       		.uleb128 0xe
 3706 025b 3A       		.uleb128 0x3a
 3707 025c 0B       		.uleb128 0xb
 3708 025d 3B       		.uleb128 0x3b
 3709 025e 0B       		.uleb128 0xb
 3710 025f 49       		.uleb128 0x49
 3711 0260 13       		.uleb128 0x13
 3712 0261 3F       		.uleb128 0x3f
 3713 0262 19       		.uleb128 0x19
 3714 0263 02       		.uleb128 0x2
 3715 0264 18       		.uleb128 0x18
 3716 0265 00       		.byte	0
 3717 0266 00       		.byte	0
 3718 0267 00       		.byte	0
 3719              		.section	.debug_aranges,"",%progbits
 3720 0000 6C000000 		.4byte	0x6c
 3721 0004 0200     		.2byte	0x2
 3722 0006 00000000 		.4byte	.Ldebug_info0
 3723 000a 04       		.byte	0x4
 3724 000b 00       		.byte	0
 3725 000c 0000     		.2byte	0
 3726 000e 0000     		.2byte	0
 3727 0010 00000000 		.4byte	.LFB111
 3728 0014 8C010000 		.4byte	.LFE111-.LFB111
ARM GAS  /tmp/cc2xpVSZ.s 			page 67


 3729 0018 00000000 		.4byte	.LFB112
 3730 001c 34010000 		.4byte	.LFE112-.LFB112
 3731 0020 00000000 		.4byte	.LFB113
 3732 0024 5C000000 		.4byte	.LFE113-.LFB113
 3733 0028 00000000 		.4byte	.LFB114
 3734 002c E4000000 		.4byte	.LFE114-.LFB114
 3735 0030 00000000 		.4byte	.LFB115
 3736 0034 64000000 		.4byte	.LFE115-.LFB115
 3737 0038 00000000 		.4byte	.LFB116
 3738 003c 02010000 		.4byte	.LFE116-.LFB116
 3739 0040 00000000 		.4byte	.LFB117
 3740 0044 5A000000 		.4byte	.LFE117-.LFB117
 3741 0048 00000000 		.4byte	.LFB118
 3742 004c 14000000 		.4byte	.LFE118-.LFB118
 3743 0050 00000000 		.4byte	.LFB119
 3744 0054 14000000 		.4byte	.LFE119-.LFB119
 3745 0058 00000000 		.4byte	.LFB120
 3746 005c 14000000 		.4byte	.LFE120-.LFB120
 3747 0060 00000000 		.4byte	.LFB121
 3748 0064 14000000 		.4byte	.LFE121-.LFB121
 3749 0068 00000000 		.4byte	0
 3750 006c 00000000 		.4byte	0
 3751              		.section	.debug_ranges,"",%progbits
 3752              	.Ldebug_ranges0:
 3753 0000 00000000 		.4byte	.LFB111
 3754 0004 8C010000 		.4byte	.LFE111
 3755 0008 00000000 		.4byte	.LFB112
 3756 000c 34010000 		.4byte	.LFE112
 3757 0010 00000000 		.4byte	.LFB113
 3758 0014 5C000000 		.4byte	.LFE113
 3759 0018 00000000 		.4byte	.LFB114
 3760 001c E4000000 		.4byte	.LFE114
 3761 0020 00000000 		.4byte	.LFB115
 3762 0024 64000000 		.4byte	.LFE115
 3763 0028 00000000 		.4byte	.LFB116
 3764 002c 02010000 		.4byte	.LFE116
 3765 0030 00000000 		.4byte	.LFB117
 3766 0034 5A000000 		.4byte	.LFE117
 3767 0038 00000000 		.4byte	.LFB118
 3768 003c 14000000 		.4byte	.LFE118
 3769 0040 00000000 		.4byte	.LFB119
 3770 0044 14000000 		.4byte	.LFE119
 3771 0048 00000000 		.4byte	.LFB120
 3772 004c 14000000 		.4byte	.LFE120
 3773 0050 00000000 		.4byte	.LFB121
 3774 0054 14000000 		.4byte	.LFE121
 3775 0058 00000000 		.4byte	0
 3776 005c 00000000 		.4byte	0
 3777              		.section	.debug_line,"",%progbits
 3778              	.Ldebug_line0:
 3779 0000 8E040000 		.section	.debug_str,"MS",%progbits,1
 3779      0200AC02 
 3779      00000201 
 3779      FB0E0D00 
 3779      01010101 
 3780              	.LASF175:
 3781 0000 4D314152 		.ascii	"M1AR\000"
ARM GAS  /tmp/cc2xpVSZ.s 			page 68


 3781      00
 3782              	.LASF2:
 3783 0005 73697A65 		.ascii	"size_t\000"
 3783      5F7400
 3784              	.LASF119:
 3785 000c 54494D38 		.ascii	"TIM8_UP_TIM13_IRQn\000"
 3785      5F55505F 
 3785      54494D31 
 3785      335F4952 
 3785      516E00
 3786              	.LASF244:
 3787 001f 73717231 		.ascii	"sqr1\000"
 3787      00
 3788              	.LASF245:
 3789 0024 73717232 		.ascii	"sqr2\000"
 3789      00
 3790              	.LASF57:
 3791 0029 73697A65 		.ascii	"sizetype\000"
 3791      74797065 
 3791      00
 3792              	.LASF255:
 3793 0032 6164635F 		.ascii	"adc_lld_start\000"
 3793      6C6C645F 
 3793      73746172 
 3793      7400
 3794              	.LASF29:
 3795 0040 73797374 		.ascii	"systime_t\000"
 3795      696D655F 
 3795      7400
 3796              	.LASF203:
 3797 004a 504C4C49 		.ascii	"PLLI2SCFGR\000"
 3797      32534346 
 3797      475200
 3798              	.LASF34:
 3799 0055 705F6374 		.ascii	"p_ctx\000"
 3799      7800
 3800              	.LASF26:
 3801 005b 74707269 		.ascii	"tprio_t\000"
 3801      6F5F7400 
 3802              	.LASF236:
 3803 0063 61646363 		.ascii	"adccallback_t\000"
 3803      616C6C62 
 3803      61636B5F 
 3803      7400
 3804              	.LASF163:
 3805 0071 53515231 		.ascii	"SQR1\000"
 3805      00
 3806              	.LASF164:
 3807 0076 53515232 		.ascii	"SQR2\000"
 3807      00
 3808              	.LASF165:
 3809 007b 53515233 		.ascii	"SQR3\000"
 3809      00
 3810              	.LASF45:
 3811 0080 705F6D73 		.ascii	"p_msgqueue\000"
 3811      67717565 
 3811      756500
ARM GAS  /tmp/cc2xpVSZ.s 			page 69


 3812              	.LASF17:
 3813 008b 696E7433 		.ascii	"int32_t\000"
 3813      325F7400 
 3814              	.LASF220:
 3815 0093 61646373 		.ascii	"adcstate_t\000"
 3815      74617465 
 3815      5F7400
 3816              	.LASF223:
 3817 009e 4144435F 		.ascii	"ADC_ERR_DMAFAILURE\000"
 3817      4552525F 
 3817      444D4146 
 3817      41494C55 
 3817      524500
 3818              	.LASF132:
 3819 00b1 444D4132 		.ascii	"DMA2_Stream1_IRQn\000"
 3819      5F537472 
 3819      65616D31 
 3819      5F495251 
 3819      6E00
 3820              	.LASF126:
 3821 00c3 53504933 		.ascii	"SPI3_IRQn\000"
 3821      5F495251 
 3821      6E00
 3822              	.LASF79:
 3823 00cd 464C4153 		.ascii	"FLASH_IRQn\000"
 3823      485F4952 
 3823      516E00
 3824              	.LASF153:
 3825 00d8 44434D49 		.ascii	"DCMI_IRQn\000"
 3825      5F495251 
 3825      6E00
 3826              	.LASF228:
 3827 00e2 636F6E66 		.ascii	"config\000"
 3827      696700
 3828              	.LASF227:
 3829 00e9 73746174 		.ascii	"state\000"
 3829      6500
 3830              	.LASF103:
 3831 00ef 54494D32 		.ascii	"TIM2_IRQn\000"
 3831      5F495251 
 3831      6E00
 3832              	.LASF264:
 3833 00f9 61646353 		.ascii	"adcSTM32DisableVBATE\000"
 3833      544D3332 
 3833      44697361 
 3833      626C6556 
 3833      42415445 
 3834              	.LASF241:
 3835 010e 6572726F 		.ascii	"error_cb\000"
 3835      725F6362 
 3835      00
 3836              	.LASF139:
 3837 0117 43414E32 		.ascii	"CAN2_RX0_IRQn\000"
 3837      5F525830 
 3837      5F495251 
 3837      6E00
 3838              	.LASF146:
ARM GAS  /tmp/cc2xpVSZ.s 			page 70


 3839 0125 55534152 		.ascii	"USART6_IRQn\000"
 3839      54365F49 
 3839      52516E00 
 3840              	.LASF60:
 3841 0131 6D5F6F77 		.ascii	"m_owner\000"
 3841      6E657200 
 3842              	.LASF170:
 3843 0139 4A445234 		.ascii	"JDR4\000"
 3843      00
 3844              	.LASF240:
 3845 013e 656E645F 		.ascii	"end_cb\000"
 3845      636200
 3846              	.LASF63:
 3847 0145 65786974 		.ascii	"exitcode\000"
 3847      636F6465 
 3847      00
 3848              	.LASF3:
 3849 014e 5F5F7569 		.ascii	"__uint8_t\000"
 3849      6E74385F 
 3849      7400
 3850              	.LASF151:
 3851 0158 4F54475F 		.ascii	"OTG_HS_WKUP_IRQn\000"
 3851      48535F57 
 3851      4B55505F 
 3851      4952516E 
 3851      00
 3852              	.LASF65:
 3853 0169 65776D61 		.ascii	"ewmask\000"
 3853      736B00
 3854              	.LASF118:
 3855 0170 54494D38 		.ascii	"TIM8_BRK_TIM12_IRQn\000"
 3855      5F42524B 
 3855      5F54494D 
 3855      31325F49 
 3855      52516E00 
 3856              	.LASF194:
 3857 0184 41484232 		.ascii	"AHB2LPENR\000"
 3857      4C50454E 
 3857      5200
 3858              	.LASF35:
 3859 018e 705F6E65 		.ascii	"p_newer\000"
 3859      77657200 
 3860              	.LASF9:
 3861 0196 6C6F6E67 		.ascii	"long int\000"
 3861      20696E74 
 3861      00
 3862              	.LASF31:
 3863 019f 705F6E65 		.ascii	"p_next\000"
 3863      787400
 3864              	.LASF32:
 3865 01a6 705F7072 		.ascii	"p_prev\000"
 3865      657600
 3866              	.LASF235:
 3867 01ad 646D616D 		.ascii	"dmamode\000"
 3867      6F646500 
 3868              	.LASF143:
 3869 01b5 444D4132 		.ascii	"DMA2_Stream5_IRQn\000"
ARM GAS  /tmp/cc2xpVSZ.s 			page 71


 3869      5F537472 
 3869      65616D35 
 3869      5F495251 
 3869      6E00
 3870              	.LASF23:
 3871 01c7 74737461 		.ascii	"tstate_t\000"
 3871      74655F74 
 3871      00
 3872              	.LASF254:
 3873 01d0 56656374 		.ascii	"Vector88\000"
 3873      6F723838 
 3873      00
 3874              	.LASF48:
 3875 01d9 705F6D74 		.ascii	"p_mtxlist\000"
 3875      786C6973 
 3875      7400
 3876              	.LASF101:
 3877 01e3 54494D31 		.ascii	"TIM1_TRG_COM_TIM11_IRQn\000"
 3877      5F545247 
 3877      5F434F4D 
 3877      5F54494D 
 3877      31315F49 
 3878              	.LASF53:
 3879 01fb 72656761 		.ascii	"regarm_t\000"
 3879      726D5F74 
 3879      00
 3880              	.LASF256:
 3881 0204 6164635F 		.ascii	"adc_lld_stop\000"
 3881      6C6C645F 
 3881      73746F70 
 3881      00
 3882              	.LASF191:
 3883 0211 41504232 		.ascii	"APB2ENR\000"
 3883      454E5200 
 3884              	.LASF193:
 3885 0219 41484231 		.ascii	"AHB1LPENR\000"
 3885      4C50454E 
 3885      5200
 3886              	.LASF74:
 3887 0223 53797354 		.ascii	"SysTick_IRQn\000"
 3887      69636B5F 
 3887      4952516E 
 3887      00
 3888              	.LASF114:
 3889 0230 55534152 		.ascii	"USART3_IRQn\000"
 3889      54335F49 
 3889      52516E00 
 3890              	.LASF205:
 3891 023c 44434B43 		.ascii	"DCKCFGR\000"
 3891      46475200 
 3892              	.LASF261:
 3893 0244 61646353 		.ascii	"adcSTM32EnableTSVREFE\000"
 3893      544D3332 
 3893      456E6162 
 3893      6C655453 
 3893      56524546 
 3894              	.LASF1:
ARM GAS  /tmp/cc2xpVSZ.s 			page 72


 3895 025a 7369676E 		.ascii	"signed char\000"
 3895      65642063 
 3895      68617200 
 3896              	.LASF42:
 3897 0266 705F7072 		.ascii	"p_preempt\000"
 3897      65656D70 
 3897      7400
 3898              	.LASF15:
 3899 0270 75696E74 		.ascii	"uint8_t\000"
 3899      385F7400 
 3900              	.LASF28:
 3901 0278 6576656E 		.ascii	"eventmask_t\000"
 3901      746D6173 
 3901      6B5F7400 
 3902              	.LASF56:
 3903 0284 636F6E74 		.ascii	"context\000"
 3903      65787400 
 3904              	.LASF88:
 3905 028c 444D4131 		.ascii	"DMA1_Stream2_IRQn\000"
 3905      5F537472 
 3905      65616D32 
 3905      5F495251 
 3905      6E00
 3906              	.LASF182:
 3907 029e 52455345 		.ascii	"RESERVED0\000"
 3907      52564544 
 3907      3000
 3908              	.LASF185:
 3909 02a8 52455345 		.ascii	"RESERVED1\000"
 3909      52564544 
 3909      3100
 3910              	.LASF4:
 3911 02b2 756E7369 		.ascii	"unsigned char\000"
 3911      676E6564 
 3911      20636861 
 3911      7200
 3912              	.LASF135:
 3913 02c0 444D4132 		.ascii	"DMA2_Stream4_IRQn\000"
 3913      5F537472 
 3913      65616D34 
 3913      5F495251 
 3913      6E00
 3914              	.LASF196:
 3915 02d2 52455345 		.ascii	"RESERVED4\000"
 3915      52564544 
 3915      3400
 3916              	.LASF199:
 3917 02dc 52455345 		.ascii	"RESERVED5\000"
 3917      52564544 
 3917      3500
 3918              	.LASF201:
 3919 02e6 52455345 		.ascii	"RESERVED6\000"
 3919      52564544 
 3919      3600
 3920              	.LASF225:
 3921 02f0 61646365 		.ascii	"adcerror_t\000"
 3921      72726F72 
ARM GAS  /tmp/cc2xpVSZ.s 			page 73


 3921      5F7400
 3922              	.LASF107:
 3923 02fb 49324331 		.ascii	"I2C1_ER_IRQn\000"
 3923      5F45525F 
 3923      4952516E 
 3923      00
 3924              	.LASF214:
 3925 0308 4144435F 		.ascii	"ADC_UNINIT\000"
 3925      554E494E 
 3925      495400
 3926              	.LASF141:
 3927 0313 43414E32 		.ascii	"CAN2_SCE_IRQn\000"
 3927      5F534345 
 3927      5F495251 
 3927      6E00
 3928              	.LASF216:
 3929 0321 4144435F 		.ascii	"ADC_READY\000"
 3929      52454144 
 3929      5900
 3930              	.LASF21:
 3931 032b 5F426F6F 		.ascii	"_Bool\000"
 3931      6C00
 3932              	.LASF189:
 3933 0331 52455345 		.ascii	"RESERVED2\000"
 3933      52564544 
 3933      3200
 3934              	.LASF192:
 3935 033b 52455345 		.ascii	"RESERVED3\000"
 3935      52564544 
 3935      3300
 3936              	.LASF251:
 3937 0345 666C6167 		.ascii	"flags\000"
 3937      7300
 3938              	.LASF125:
 3939 034b 54494D35 		.ascii	"TIM5_IRQn\000"
 3939      5F495251 
 3939      6E00
 3940              	.LASF221:
 3941 0355 61646373 		.ascii	"adcsample_t\000"
 3941      616D706C 
 3941      655F7400 
 3942              	.LASF70:
 3943 0361 55736167 		.ascii	"UsageFault_IRQn\000"
 3943      65466175 
 3943      6C745F49 
 3943      52516E00 
 3944              	.LASF66:
 3945 0371 63686172 		.ascii	"char\000"
 3945      00
 3946              	.LASF209:
 3947 0376 69736869 		.ascii	"ishift\000"
 3947      667400
 3948              	.LASF179:
 3949 037d 41484231 		.ascii	"AHB1RSTR\000"
 3949      52535452 
 3949      00
 3950              	.LASF33:
ARM GAS  /tmp/cc2xpVSZ.s 			page 74


 3951 0386 705F7072 		.ascii	"p_prio\000"
 3951      696F00
 3952              	.LASF6:
 3953 038d 5F5F7569 		.ascii	"__uint16_t\000"
 3953      6E743136 
 3953      5F7400
 3954              	.LASF187:
 3955 0398 41484232 		.ascii	"AHB2ENR\000"
 3955      454E5200 
 3956              	.LASF64:
 3957 03a0 77746F62 		.ascii	"wtobjp\000"
 3957      6A7000
 3958              	.LASF95:
 3959 03a7 43414E31 		.ascii	"CAN1_RX0_IRQn\000"
 3959      5F525830 
 3959      5F495251 
 3959      6E00
 3960              	.LASF219:
 3961 03b5 4144435F 		.ascii	"ADC_ERROR\000"
 3961      4552524F 
 3961      5200
 3962              	.LASF269:
 3963 03bf 474E5520 		.ascii	"GNU C 4.9.3 20150303 (release) [ARM/embedded-4_9-br"
 3963      4320342E 
 3963      392E3320 
 3963      32303135 
 3963      30333033 
 3964 03f2 616E6368 		.ascii	"anch revision 221220] -mcpu=cortex-m4 -mfloat-abi=h"
 3964      20726576 
 3964      6973696F 
 3964      6E203232 
 3964      31323230 
 3965 0425 61726420 		.ascii	"ard -mfpu=fpv4-sp-d16 -mno-thumb-interwork -mthumb "
 3965      2D6D6670 
 3965      753D6670 
 3965      76342D73 
 3965      702D6431 
 3966 0458 2D676764 		.ascii	"-ggdb -fomit-frame-pointer -falign-functions=16 -ff"
 3966      62202D66 
 3966      6F6D6974 
 3966      2D667261 
 3966      6D652D70 
 3967 048b 756E6374 		.ascii	"unction-sections -fdata-sections -fno-common -fsing"
 3967      696F6E2D 
 3967      73656374 
 3967      696F6E73 
 3967      202D6664 
 3968 04be 6C652D70 		.ascii	"le-precision-constant\000"
 3968      72656369 
 3968      73696F6E 
 3968      2D636F6E 
 3968      7374616E 
 3969              	.LASF54:
 3970 04d4 73746B61 		.ascii	"stkalign_t\000"
 3970      6C69676E 
 3970      5F7400
 3971              	.LASF246:
ARM GAS  /tmp/cc2xpVSZ.s 			page 75


 3972 04df 73717233 		.ascii	"sqr3\000"
 3972      00
 3973              	.LASF238:
 3974 04e4 63697263 		.ascii	"circular\000"
 3974      756C6172 
 3974      00
 3975              	.LASF105:
 3976 04ed 54494D34 		.ascii	"TIM4_IRQn\000"
 3976      5F495251 
 3976      6E00
 3977              	.LASF113:
 3978 04f7 55534152 		.ascii	"USART2_IRQn\000"
 3978      54325F49 
 3978      52516E00 
 3979              	.LASF207:
 3980 0503 73747265 		.ascii	"stream\000"
 3980      616D00
 3981              	.LASF200:
 3982 050a 42444352 		.ascii	"BDCR\000"
 3982      00
 3983              	.LASF229:
 3984 050f 73616D70 		.ascii	"samples\000"
 3984      6C657300 
 3985              	.LASF106:
 3986 0517 49324331 		.ascii	"I2C1_EV_IRQn\000"
 3986      5F45565F 
 3986      4952516E 
 3986      00
 3987              	.LASF171:
 3988 0524 4144435F 		.ascii	"ADC_TypeDef\000"
 3988      54797065 
 3988      44656600 
 3989              	.LASF270:
 3990 0530 2F686F6D 		.ascii	"/home/makkmarci/workspace/ChibiOS_2.6.8/os/hal/plat"
 3990      652F6D61 
 3990      6B6B6D61 
 3990      7263692F 
 3990      776F726B 
 3991 0563 666F726D 		.ascii	"forms/STM32F4xx/adc_lld.c\000"
 3991      732F5354 
 3991      4D333246 
 3991      3478782F 
 3991      6164635F 
 3992              	.LASF55:
 3993 057d 696E7463 		.ascii	"intctx\000"
 3993      747800
 3994              	.LASF47:
 3995 0584 705F6570 		.ascii	"p_epending\000"
 3995      656E6469 
 3995      6E6700
 3996              	.LASF178:
 3997 058f 43464752 		.ascii	"CFGR\000"
 3997      00
 3998              	.LASF102:
 3999 0594 54494D31 		.ascii	"TIM1_CC_IRQn\000"
 3999      5F43435F 
 3999      4952516E 
ARM GAS  /tmp/cc2xpVSZ.s 			page 76


 3999      00
 4000              	.LASF155:
 4001 05a1 48415348 		.ascii	"HASH_RNG_IRQn\000"
 4001      5F524E47 
 4001      5F495251 
 4001      6E00
 4002              	.LASF82:
 4003 05af 45585449 		.ascii	"EXTI1_IRQn\000"
 4003      315F4952 
 4003      516E00
 4004              	.LASF94:
 4005 05ba 43414E31 		.ascii	"CAN1_TX_IRQn\000"
 4005      5F54585F 
 4005      4952516E 
 4005      00
 4006              	.LASF91:
 4007 05c7 444D4131 		.ascii	"DMA1_Stream5_IRQn\000"
 4007      5F537472 
 4007      65616D35 
 4007      5F495251 
 4007      6E00
 4008              	.LASF120:
 4009 05d9 54494D38 		.ascii	"TIM8_TRG_COM_TIM14_IRQn\000"
 4009      5F545247 
 4009      5F434F4D 
 4009      5F54494D 
 4009      31345F49 
 4010              	.LASF145:
 4011 05f1 444D4132 		.ascii	"DMA2_Stream7_IRQn\000"
 4011      5F537472 
 4011      65616D37 
 4011      5F495251 
 4011      6E00
 4012              	.LASF142:
 4013 0603 4F54475F 		.ascii	"OTG_FS_IRQn\000"
 4013      46535F49 
 4013      52516E00 
 4014              	.LASF67:
 4015 060f 4E6F6E4D 		.ascii	"NonMaskableInt_IRQn\000"
 4015      61736B61 
 4015      626C6549 
 4015      6E745F49 
 4015      52516E00 
 4016              	.LASF13:
 4017 0623 5F5F7569 		.ascii	"__uint64_t\000"
 4017      6E743634 
 4017      5F7400
 4018              	.LASF75:
 4019 062e 57574447 		.ascii	"WWDG_IRQn\000"
 4019      5F495251 
 4019      6E00
 4020              	.LASF11:
 4021 0638 6C6F6E67 		.ascii	"long unsigned int\000"
 4021      20756E73 
 4021      69676E65 
 4021      6420696E 
 4021      7400
ARM GAS  /tmp/cc2xpVSZ.s 			page 77


 4022              	.LASF190:
 4023 064a 41504231 		.ascii	"APB1ENR\000"
 4023      454E5200 
 4024              	.LASF234:
 4025 0652 646D6173 		.ascii	"dmastp\000"
 4025      747000
 4026              	.LASF68:
 4027 0659 4D656D6F 		.ascii	"MemoryManagement_IRQn\000"
 4027      72794D61 
 4027      6E616765 
 4027      6D656E74 
 4027      5F495251 
 4028              	.LASF77:
 4029 066f 54414D50 		.ascii	"TAMP_STAMP_IRQn\000"
 4029      5F535441 
 4029      4D505F49 
 4029      52516E00 
 4030              	.LASF97:
 4031 067f 43414E31 		.ascii	"CAN1_SCE_IRQn\000"
 4031      5F534345 
 4031      5F495251 
 4031      6E00
 4032              	.LASF266:
 4033 068d 5F73746D 		.ascii	"_stm32_dma_streams\000"
 4033      33325F64 
 4033      6D615F73 
 4033      74726561 
 4033      6D7300
 4034              	.LASF131:
 4035 06a0 444D4132 		.ascii	"DMA2_Stream0_IRQn\000"
 4035      5F537472 
 4035      65616D30 
 4035      5F495251 
 4035      6E00
 4036              	.LASF157:
 4037 06b2 534D5052 		.ascii	"SMPR1\000"
 4037      3100
 4038              	.LASF158:
 4039 06b8 534D5052 		.ascii	"SMPR2\000"
 4039      3200
 4040              	.LASF212:
 4041 06be 73746D33 		.ascii	"stm32_dma_stream_t\000"
 4041      325F646D 
 4041      615F7374 
 4041      7265616D 
 4041      5F7400
 4042              	.LASF109:
 4043 06d1 49324332 		.ascii	"I2C2_ER_IRQn\000"
 4043      5F45525F 
 4043      4952516E 
 4043      00
 4044              	.LASF247:
 4045 06de 41444343 		.ascii	"ADCConversionGroup\000"
 4045      6F6E7665 
 4045      7273696F 
 4045      6E47726F 
 4045      757000
ARM GAS  /tmp/cc2xpVSZ.s 			page 78


 4046              	.LASF218:
 4047 06f1 4144435F 		.ascii	"ADC_COMPLETE\000"
 4047      434F4D50 
 4047      4C455445 
 4047      00
 4048              	.LASF242:
 4049 06fe 736D7072 		.ascii	"smpr1\000"
 4049      3100
 4050              	.LASF243:
 4051 0704 736D7072 		.ascii	"smpr2\000"
 4051      3200
 4052              	.LASF257:
 4053 070a 6164635F 		.ascii	"adc_lld_start_conversion\000"
 4053      6C6C645F 
 4053      73746172 
 4053      745F636F 
 4053      6E766572 
 4054              	.LASF69:
 4055 0723 42757346 		.ascii	"BusFault_IRQn\000"
 4055      61756C74 
 4055      5F495251 
 4055      6E00
 4056              	.LASF177:
 4057 0731 504C4C43 		.ascii	"PLLCFGR\000"
 4057      46475200 
 4058              	.LASF128:
 4059 0739 55415254 		.ascii	"UART5_IRQn\000"
 4059      355F4952 
 4059      516E00
 4060              	.LASF99:
 4061 0744 54494D31 		.ascii	"TIM1_BRK_TIM9_IRQn\000"
 4061      5F42524B 
 4061      5F54494D 
 4061      395F4952 
 4061      516E00
 4062              	.LASF10:
 4063 0757 5F5F7569 		.ascii	"__uint32_t\000"
 4063      6E743332 
 4063      5F7400
 4064              	.LASF58:
 4065 0762 4D757465 		.ascii	"Mutex\000"
 4065      7800
 4066              	.LASF130:
 4067 0768 54494D37 		.ascii	"TIM7_IRQn\000"
 4067      5F495251 
 4067      6E00
 4068              	.LASF12:
 4069 0772 6C6F6E67 		.ascii	"long long int\000"
 4069      206C6F6E 
 4069      6720696E 
 4069      7400
 4070              	.LASF137:
 4071 0780 4554485F 		.ascii	"ETH_WKUP_IRQn\000"
 4071      574B5550 
 4071      5F495251 
 4071      6E00
 4072              	.LASF111:
ARM GAS  /tmp/cc2xpVSZ.s 			page 79


 4073 078e 53504932 		.ascii	"SPI2_IRQn\000"
 4073      5F495251 
 4073      6E00
 4074              	.LASF152:
 4075 0798 4F54475F 		.ascii	"OTG_HS_IRQn\000"
 4075      48535F49 
 4075      52516E00 
 4076              	.LASF59:
 4077 07a4 6D5F7175 		.ascii	"m_queue\000"
 4077      65756500 
 4078              	.LASF202:
 4079 07ac 53534347 		.ascii	"SSCGR\000"
 4079      5200
 4080              	.LASF110:
 4081 07b2 53504931 		.ascii	"SPI1_IRQn\000"
 4081      5F495251 
 4081      6E00
 4082              	.LASF250:
 4083 07bc 61646370 		.ascii	"adcp\000"
 4083      00
 4084              	.LASF237:
 4085 07c1 61646365 		.ascii	"adcerrorcallback_t\000"
 4085      72726F72 
 4085      63616C6C 
 4085      6261636B 
 4085      5F7400
 4086              	.LASF71:
 4087 07d4 53564361 		.ascii	"SVCall_IRQn\000"
 4087      6C6C5F49 
 4087      52516E00 
 4088              	.LASF184:
 4089 07e0 41504232 		.ascii	"APB2RSTR\000"
 4089      52535452 
 4089      00
 4090              	.LASF230:
 4091 07e9 64657074 		.ascii	"depth\000"
 4091      6800
 4092              	.LASF233:
 4093 07ef 6D757465 		.ascii	"mutex\000"
 4093      7800
 4094              	.LASF156:
 4095 07f5 4650555F 		.ascii	"FPU_IRQn\000"
 4095      4952516E 
 4095      00
 4096              	.LASF127:
 4097 07fe 55415254 		.ascii	"UART4_IRQn\000"
 4097      345F4952 
 4097      516E00
 4098              	.LASF198:
 4099 0809 41504232 		.ascii	"APB2LPENR\000"
 4099      4C50454E 
 4099      5200
 4100              	.LASF44:
 4101 0813 705F7761 		.ascii	"p_waiting\000"
 4101      6974696E 
 4101      6700
 4102              	.LASF117:
ARM GAS  /tmp/cc2xpVSZ.s 			page 80


 4103 081d 4F54475F 		.ascii	"OTG_FS_WKUP_IRQn\000"
 4103      46535F57 
 4103      4B55505F 
 4103      4952516E 
 4103      00
 4104              	.LASF40:
 4105 082e 705F666C 		.ascii	"p_flags\000"
 4105      61677300 
 4106              	.LASF210:
 4107 0836 73656C66 		.ascii	"selfindex\000"
 4107      696E6465 
 4107      7800
 4108              	.LASF0:
 4109 0840 756E7369 		.ascii	"unsigned int\000"
 4109      676E6564 
 4109      20696E74 
 4109      00
 4110              	.LASF129:
 4111 084d 54494D36 		.ascii	"TIM6_DAC_IRQn\000"
 4111      5F444143 
 4111      5F495251 
 4111      6E00
 4112              	.LASF222:
 4113 085b 6164635F 		.ascii	"adc_channels_num_t\000"
 4113      6368616E 
 4113      6E656C73 
 4113      5F6E756D 
 4113      5F7400
 4114              	.LASF50:
 4115 086e 705F6D70 		.ascii	"p_mpool\000"
 4115      6F6F6C00 
 4116              	.LASF108:
 4117 0876 49324332 		.ascii	"I2C2_EV_IRQn\000"
 4117      5F45565F 
 4117      4952516E 
 4117      00
 4118              	.LASF41:
 4119 0883 705F7265 		.ascii	"p_refs\000"
 4119      667300
 4120              	.LASF239:
 4121 088a 6E756D5F 		.ascii	"num_channels\000"
 4121      6368616E 
 4121      6E656C73 
 4121      00
 4122              	.LASF52:
 4123 0897 54687265 		.ascii	"ThreadsList\000"
 4123      6164734C 
 4123      69737400 
 4124              	.LASF267:
 4125 08a3 41444344 		.ascii	"ADCD1\000"
 4125      3100
 4126              	.LASF268:
 4127 08a9 41444344 		.ascii	"ADCD2\000"
 4127      3200
 4128              	.LASF197:
 4129 08af 41504231 		.ascii	"APB1LPENR\000"
 4129      4C50454E 
ARM GAS  /tmp/cc2xpVSZ.s 			page 81


 4129      5200
 4130              	.LASF87:
 4131 08b9 444D4131 		.ascii	"DMA1_Stream1_IRQn\000"
 4131      5F537472 
 4131      65616D31 
 4131      5F495251 
 4131      6E00
 4132              	.LASF134:
 4133 08cb 444D4132 		.ascii	"DMA2_Stream3_IRQn\000"
 4133      5F537472 
 4133      65616D33 
 4133      5F495251 
 4133      6E00
 4134              	.LASF138:
 4135 08dd 43414E32 		.ascii	"CAN2_TX_IRQn\000"
 4135      5F54585F 
 4135      4952516E 
 4135      00
 4136              	.LASF259:
 4137 08ea 6164635F 		.ascii	"adc_lld_stop_conversion\000"
 4137      6C6C645F 
 4137      73746F70 
 4137      5F636F6E 
 4137      76657273 
 4138              	.LASF176:
 4139 0902 444D415F 		.ascii	"DMA_Stream_TypeDef\000"
 4139      53747265 
 4139      616D5F54 
 4139      79706544 
 4139      656600
 4140              	.LASF43:
 4141 0915 705F7469 		.ascii	"p_time\000"
 4141      6D6500
 4142              	.LASF271:
 4143 091c 4952516E 		.ascii	"IRQn\000"
 4143      00
 4144              	.LASF92:
 4145 0921 444D4131 		.ascii	"DMA1_Stream6_IRQn\000"
 4145      5F537472 
 4145      65616D36 
 4145      5F495251 
 4145      6E00
 4146              	.LASF181:
 4147 0933 41484233 		.ascii	"AHB3RSTR\000"
 4147      52535452 
 4147      00
 4148              	.LASF49:
 4149 093c 705F7265 		.ascii	"p_realprio\000"
 4149      616C7072 
 4149      696F00
 4150              	.LASF217:
 4151 0947 4144435F 		.ascii	"ADC_ACTIVE\000"
 4151      41435449 
 4151      564500
 4152              	.LASF86:
 4153 0952 444D4131 		.ascii	"DMA1_Stream0_IRQn\000"
 4153      5F537472 
ARM GAS  /tmp/cc2xpVSZ.s 			page 82


 4153      65616D30 
 4153      5F495251 
 4153      6E00
 4154              	.LASF183:
 4155 0964 41504231 		.ascii	"APB1RSTR\000"
 4155      52535452 
 4155      00
 4156              	.LASF213:
 4157 096d 73746D33 		.ascii	"stm32_dmaisr_t\000"
 4157      325F646D 
 4157      61697372 
 4157      5F7400
 4158              	.LASF116:
 4159 097c 5254435F 		.ascii	"RTC_Alarm_IRQn\000"
 4159      416C6172 
 4159      6D5F4952 
 4159      516E00
 4160              	.LASF148:
 4161 098b 49324333 		.ascii	"I2C3_ER_IRQn\000"
 4161      5F45525F 
 4161      4952516E 
 4161      00
 4162              	.LASF154:
 4163 0998 43525950 		.ascii	"CRYP_IRQn\000"
 4163      5F495251 
 4163      6E00
 4164              	.LASF115:
 4165 09a2 45585449 		.ascii	"EXTI15_10_IRQn\000"
 4165      31355F31 
 4165      305F4952 
 4165      516E00
 4166              	.LASF14:
 4167 09b1 6C6F6E67 		.ascii	"long long unsigned int\000"
 4167      206C6F6E 
 4167      6720756E 
 4167      7369676E 
 4167      65642069 
 4168              	.LASF36:
 4169 09c8 705F6F6C 		.ascii	"p_older\000"
 4169      64657200 
 4170              	.LASF16:
 4171 09d0 75696E74 		.ascii	"uint16_t\000"
 4171      31365F74 
 4171      00
 4172              	.LASF27:
 4173 09d9 6D73675F 		.ascii	"msg_t\000"
 4173      7400
 4174              	.LASF104:
 4175 09df 54494D33 		.ascii	"TIM3_IRQn\000"
 4175      5F495251 
 4175      6E00
 4176              	.LASF112:
 4177 09e9 55534152 		.ascii	"USART1_IRQn\000"
 4177      54315F49 
 4177      52516E00 
 4178              	.LASF25:
 4179 09f5 74736C69 		.ascii	"tslices_t\000"
ARM GAS  /tmp/cc2xpVSZ.s 			page 83


 4179      6365735F 
 4179      7400
 4180              	.LASF253:
 4181 09ff 68616C66 		.ascii	"half_index\000"
 4181      5F696E64 
 4181      657800
 4182              	.LASF83:
 4183 0a0a 45585449 		.ascii	"EXTI2_IRQn\000"
 4183      325F4952 
 4183      516E00
 4184              	.LASF226:
 4185 0a15 41444344 		.ascii	"ADCDriver\000"
 4185      72697665 
 4185      7200
 4186              	.LASF260:
 4187 0a1f 6164635F 		.ascii	"adc_lld_init\000"
 4187      6C6C645F 
 4187      696E6974 
 4187      00
 4188              	.LASF140:
 4189 0a2c 43414E32 		.ascii	"CAN2_RX1_IRQn\000"
 4189      5F525831 
 4189      5F495251 
 4189      6E00
 4190              	.LASF211:
 4191 0a3a 76656374 		.ascii	"vector\000"
 4191      6F7200
 4192              	.LASF93:
 4193 0a41 4144435F 		.ascii	"ADC_IRQn\000"
 4193      4952516E 
 4193      00
 4194              	.LASF224:
 4195 0a4a 4144435F 		.ascii	"ADC_ERR_OVERFLOW\000"
 4195      4552525F 
 4195      4F564552 
 4195      464C4F57 
 4195      00
 4196              	.LASF252:
 4197 0a5b 68616C66 		.ascii	"half\000"
 4197      00
 4198              	.LASF195:
 4199 0a60 41484233 		.ascii	"AHB3LPENR\000"
 4199      4C50454E 
 4199      5200
 4200              	.LASF263:
 4201 0a6a 61646353 		.ascii	"adcSTM32EnableVBATE\000"
 4201      544D3332 
 4201      456E6162 
 4201      6C655642 
 4201      41544500 
 4202              	.LASF76:
 4203 0a7e 5056445F 		.ascii	"PVD_IRQn\000"
 4203      4952516E 
 4203      00
 4204              	.LASF123:
 4205 0a87 46534D43 		.ascii	"FSMC_IRQn\000"
 4205      5F495251 
ARM GAS  /tmp/cc2xpVSZ.s 			page 84


 4205      6E00
 4206              	.LASF81:
 4207 0a91 45585449 		.ascii	"EXTI0_IRQn\000"
 4207      305F4952 
 4207      516E00
 4208              	.LASF22:
 4209 0a9c 746D6F64 		.ascii	"tmode_t\000"
 4209      655F7400 
 4210              	.LASF90:
 4211 0aa4 444D4131 		.ascii	"DMA1_Stream4_IRQn\000"
 4211      5F537472 
 4211      65616D34 
 4211      5F495251 
 4211      6E00
 4212              	.LASF248:
 4213 0ab6 64756D6D 		.ascii	"dummy\000"
 4213      7900
 4214              	.LASF215:
 4215 0abc 4144435F 		.ascii	"ADC_STOP\000"
 4215      53544F50 
 4215      00
 4216              	.LASF144:
 4217 0ac5 444D4132 		.ascii	"DMA2_Stream6_IRQn\000"
 4217      5F537472 
 4217      65616D36 
 4217      5F495251 
 4217      6E00
 4218              	.LASF186:
 4219 0ad7 41484231 		.ascii	"AHB1ENR\000"
 4219      454E5200 
 4220              	.LASF72:
 4221 0adf 44656275 		.ascii	"DebugMonitor_IRQn\000"
 4221      674D6F6E 
 4221      69746F72 
 4221      5F495251 
 4221      6E00
 4222              	.LASF147:
 4223 0af1 49324333 		.ascii	"I2C3_EV_IRQn\000"
 4223      5F45565F 
 4223      4952516E 
 4223      00
 4224              	.LASF231:
 4225 0afe 67727070 		.ascii	"grpp\000"
 4225      00
 4226              	.LASF180:
 4227 0b03 41484232 		.ascii	"AHB2RSTR\000"
 4227      52535452 
 4227      00
 4228              	.LASF232:
 4229 0b0c 74687265 		.ascii	"thread\000"
 4229      616400
 4230              	.LASF174:
 4231 0b13 4D304152 		.ascii	"M0AR\000"
 4231      00
 4232              	.LASF136:
 4233 0b18 4554485F 		.ascii	"ETH_IRQn\000"
 4233      4952516E 
ARM GAS  /tmp/cc2xpVSZ.s 			page 85


 4233      00
 4234              	.LASF206:
 4235 0b21 5243435F 		.ascii	"RCC_TypeDef\000"
 4235      54797065 
 4235      44656600 
 4236              	.LASF5:
 4237 0b2d 73686F72 		.ascii	"short int\000"
 4237      7420696E 
 4237      7400
 4238              	.LASF19:
 4239 0b37 75696E74 		.ascii	"uint64_t\000"
 4239      36345F74 
 4239      00
 4240              	.LASF80:
 4241 0b40 5243435F 		.ascii	"RCC_IRQn\000"
 4241      4952516E 
 4241      00
 4242              	.LASF258:
 4243 0b49 6D6F6465 		.ascii	"mode\000"
 4243      00
 4244              	.LASF159:
 4245 0b4e 4A4F4652 		.ascii	"JOFR1\000"
 4245      3100
 4246              	.LASF160:
 4247 0b54 4A4F4652 		.ascii	"JOFR2\000"
 4247      3200
 4248              	.LASF161:
 4249 0b5a 4A4F4652 		.ascii	"JOFR3\000"
 4249      3300
 4250              	.LASF162:
 4251 0b60 4A4F4652 		.ascii	"JOFR4\000"
 4251      3400
 4252              	.LASF89:
 4253 0b66 444D4131 		.ascii	"DMA1_Stream3_IRQn\000"
 4253      5F537472 
 4253      65616D33 
 4253      5F495251 
 4253      6E00
 4254              	.LASF20:
 4255 0b78 626F6F6C 		.ascii	"bool_t\000"
 4255      5F7400
 4256              	.LASF167:
 4257 0b7f 4A445231 		.ascii	"JDR1\000"
 4257      00
 4258              	.LASF168:
 4259 0b84 4A445232 		.ascii	"JDR2\000"
 4259      00
 4260              	.LASF169:
 4261 0b89 4A445233 		.ascii	"JDR3\000"
 4261      00
 4262              	.LASF30:
 4263 0b8e 54687265 		.ascii	"Thread\000"
 4263      616400
 4264              	.LASF166:
 4265 0b95 4A535152 		.ascii	"JSQR\000"
 4265      00
 4266              	.LASF100:
ARM GAS  /tmp/cc2xpVSZ.s 			page 86


 4267 0b9a 54494D31 		.ascii	"TIM1_UP_TIM10_IRQn\000"
 4267      5F55505F 
 4267      54494D31 
 4267      305F4952 
 4267      516E00
 4268              	.LASF265:
 4269 0bad 49544D5F 		.ascii	"ITM_RxBuffer\000"
 4269      52784275 
 4269      66666572 
 4269      00
 4270              	.LASF24:
 4271 0bba 74726566 		.ascii	"trefs_t\000"
 4271      735F7400 
 4272              	.LASF149:
 4273 0bc2 4F54475F 		.ascii	"OTG_HS_EP1_OUT_IRQn\000"
 4273      48535F45 
 4273      50315F4F 
 4273      55545F49 
 4273      52516E00 
 4274              	.LASF78:
 4275 0bd6 5254435F 		.ascii	"RTC_WKUP_IRQn\000"
 4275      574B5550 
 4275      5F495251 
 4275      6E00
 4276              	.LASF173:
 4277 0be4 4E445452 		.ascii	"NDTR\000"
 4277      00
 4278              	.LASF18:
 4279 0be9 75696E74 		.ascii	"uint32_t\000"
 4279      33325F74 
 4279      00
 4280              	.LASF96:
 4281 0bf2 43414E31 		.ascii	"CAN1_RX1_IRQn\000"
 4281      5F525831 
 4281      5F495251 
 4281      6E00
 4282              	.LASF51:
 4283 0c00 54687265 		.ascii	"ThreadsQueue\000"
 4283      61647351 
 4283      75657565 
 4283      00
 4284              	.LASF98:
 4285 0c0d 45585449 		.ascii	"EXTI9_5_IRQn\000"
 4285      395F355F 
 4285      4952516E 
 4285      00
 4286              	.LASF204:
 4287 0c1a 504C4C53 		.ascii	"PLLSAICFGR\000"
 4287      41494346 
 4287      475200
 4288              	.LASF272:
 4289 0c25 6164635F 		.ascii	"adc_lld_serve_rx_interrupt\000"
 4289      6C6C645F 
 4289      73657276 
 4289      655F7278 
 4289      5F696E74 
 4290              	.LASF62:
ARM GAS  /tmp/cc2xpVSZ.s 			page 87


 4291 0c40 7264796D 		.ascii	"rdymsg\000"
 4291      736700
 4292              	.LASF85:
 4293 0c47 45585449 		.ascii	"EXTI4_IRQn\000"
 4293      345F4952 
 4293      516E00
 4294              	.LASF7:
 4295 0c52 73686F72 		.ascii	"short unsigned int\000"
 4295      7420756E 
 4295      7369676E 
 4295      65642069 
 4295      6E7400
 4296              	.LASF121:
 4297 0c65 54494D38 		.ascii	"TIM8_CC_IRQn\000"
 4297      5F43435F 
 4297      4952516E 
 4297      00
 4298              	.LASF124:
 4299 0c72 5344494F 		.ascii	"SDIO_IRQn\000"
 4299      5F495251 
 4299      6E00
 4300              	.LASF84:
 4301 0c7c 45585449 		.ascii	"EXTI3_IRQn\000"
 4301      335F4952 
 4301      516E00
 4302              	.LASF73:
 4303 0c87 50656E64 		.ascii	"PendSV_IRQn\000"
 4303      53565F49 
 4303      52516E00 
 4304              	.LASF150:
 4305 0c93 4F54475F 		.ascii	"OTG_HS_EP1_IN_IRQn\000"
 4305      48535F45 
 4305      50315F49 
 4305      4E5F4952 
 4305      516E00
 4306              	.LASF38:
 4307 0ca6 705F7374 		.ascii	"p_stklimit\000"
 4307      6B6C696D 
 4307      697400
 4308              	.LASF122:
 4309 0cb1 444D4131 		.ascii	"DMA1_Stream7_IRQn\000"
 4309      5F537472 
 4309      65616D37 
 4309      5F495251 
 4309      6E00
 4310              	.LASF8:
 4311 0cc3 5F5F696E 		.ascii	"__int32_t\000"
 4311      7433325F 
 4311      7400
 4312              	.LASF172:
 4313 0ccd 4144435F 		.ascii	"ADC_Common_TypeDef\000"
 4313      436F6D6D 
 4313      6F6E5F54 
 4313      79706544 
 4313      656600
 4314              	.LASF208:
 4315 0ce0 69666372 		.ascii	"ifcr\000"
ARM GAS  /tmp/cc2xpVSZ.s 			page 88


 4315      00
 4316              	.LASF37:
 4317 0ce5 705F6E61 		.ascii	"p_name\000"
 4317      6D6500
 4318              	.LASF61:
 4319 0cec 6D5F6E65 		.ascii	"m_next\000"
 4319      787400
 4320              	.LASF262:
 4321 0cf3 61646353 		.ascii	"adcSTM32DisableTSVREFE\000"
 4321      544D3332 
 4321      44697361 
 4321      626C6554 
 4321      53565245 
 4322              	.LASF188:
 4323 0d0a 41484233 		.ascii	"AHB3ENR\000"
 4323      454E5200 
 4324              	.LASF133:
 4325 0d12 444D4132 		.ascii	"DMA2_Stream2_IRQn\000"
 4325      5F537472 
 4325      65616D32 
 4325      5F495251 
 4325      6E00
 4326              	.LASF46:
 4327 0d24 705F6D73 		.ascii	"p_msg\000"
 4327      6700
 4328              	.LASF249:
 4329 0d2a 41444343 		.ascii	"ADCConfig\000"
 4329      6F6E6669 
 4329      6700
 4330              	.LASF39:
 4331 0d34 705F7374 		.ascii	"p_state\000"
 4331      61746500 
 4332              		.ident	"GCC: (GNU Tools for ARM Embedded Processors) 4.9.3 20150303 (release) [ARM/embedded-4_9-br
ARM GAS  /tmp/cc2xpVSZ.s 			page 89


DEFINED SYMBOLS
                            *ABS*:00000000 adc_lld.c
     /tmp/cc2xpVSZ.s:25     .bss.ADCD1:00000000 ADCD1
     /tmp/cc2xpVSZ.s:22     .bss.ADCD1:00000000 $d
     /tmp/cc2xpVSZ.s:32     .bss.ADCD2:00000000 ADCD2
     /tmp/cc2xpVSZ.s:29     .bss.ADCD2:00000000 $d
     /tmp/cc2xpVSZ.s:35     .text.adc_lld_serve_rx_interrupt:00000000 $t
     /tmp/cc2xpVSZ.s:40     .text.adc_lld_serve_rx_interrupt:00000000 adc_lld_serve_rx_interrupt
     /tmp/cc2xpVSZ.s:959    .text.adc_lld_stop_conversion:00000000 adc_lld_stop_conversion
     /tmp/cc2xpVSZ.s:292    .text.Vector88:00000000 $t
     /tmp/cc2xpVSZ.s:298    .text.Vector88:00000000 Vector88
     /tmp/cc2xpVSZ.s:489    .text.Vector88:00000124 $d
     /tmp/cc2xpVSZ.s:497    .text.adc_lld_init:00000000 $t
     /tmp/cc2xpVSZ.s:503    .text.adc_lld_init:00000000 adc_lld_init
     /tmp/cc2xpVSZ.s:552    .text.adc_lld_init:0000003c $d
     /tmp/cc2xpVSZ.s:564    .rodata:00000000 $d
     /tmp/cc2xpVSZ.s:571    .text.adc_lld_start:00000000 $t
     /tmp/cc2xpVSZ.s:577    .text.adc_lld_start:00000000 adc_lld_start
     /tmp/cc2xpVSZ.s:701    .text.adc_lld_start:000000c0 $d
     /tmp/cc2xpVSZ.s:714    .text.adc_lld_stop:00000000 $t
     /tmp/cc2xpVSZ.s:720    .text.adc_lld_stop:00000000 adc_lld_stop
     /tmp/cc2xpVSZ.s:784    .text.adc_lld_stop:00000058 $d
     /tmp/cc2xpVSZ.s:791    .text.adc_lld_start_conversion:00000000 $t
     /tmp/cc2xpVSZ.s:797    .text.adc_lld_start_conversion:00000000 adc_lld_start_conversion
     /tmp/cc2xpVSZ.s:953    .text.adc_lld_stop_conversion:00000000 $t
     /tmp/cc2xpVSZ.s:1024   .text.adcSTM32EnableTSVREFE:00000000 $t
     /tmp/cc2xpVSZ.s:1030   .text.adcSTM32EnableTSVREFE:00000000 adcSTM32EnableTSVREFE
     /tmp/cc2xpVSZ.s:1048   .text.adcSTM32EnableTSVREFE:00000010 $d
     /tmp/cc2xpVSZ.s:1053   .text.adcSTM32DisableTSVREFE:00000000 $t
     /tmp/cc2xpVSZ.s:1059   .text.adcSTM32DisableTSVREFE:00000000 adcSTM32DisableTSVREFE
     /tmp/cc2xpVSZ.s:1077   .text.adcSTM32DisableTSVREFE:00000010 $d
     /tmp/cc2xpVSZ.s:1082   .text.adcSTM32EnableVBATE:00000000 $t
     /tmp/cc2xpVSZ.s:1088   .text.adcSTM32EnableVBATE:00000000 adcSTM32EnableVBATE
     /tmp/cc2xpVSZ.s:1106   .text.adcSTM32EnableVBATE:00000010 $d
     /tmp/cc2xpVSZ.s:1111   .text.adcSTM32DisableVBATE:00000000 $t
     /tmp/cc2xpVSZ.s:1117   .text.adcSTM32DisableVBATE:00000000 adcSTM32DisableVBATE
     /tmp/cc2xpVSZ.s:1135   .text.adcSTM32DisableVBATE:00000010 $d
                     .debug_frame:00000010 $d
     /tmp/cc2xpVSZ.s:496    .text.Vector88:00000134 $t
     /tmp/cc2xpVSZ.s:563    .text.adc_lld_init:0000005c $t
     /tmp/cc2xpVSZ.s:713    .text.adc_lld_start:000000e4 $t
     /tmp/cc2xpVSZ.s:790    .text.adc_lld_stop:00000064 $t
     /tmp/cc2xpVSZ.s:1052   .text.adcSTM32EnableTSVREFE:00000014 $t
     /tmp/cc2xpVSZ.s:1081   .text.adcSTM32DisableTSVREFE:00000014 $t
     /tmp/cc2xpVSZ.s:1110   .text.adcSTM32EnableVBATE:00000014 $t
     /tmp/cc2xpVSZ.s:1139   .text.adcSTM32DisableVBATE:00000014 $t

UNDEFINED SYMBOLS
_port_lock
chSchReadyI
_port_unlock
_port_irq_epilogue
adcObjectInit
nvicEnableVector
_stm32_dma_streams
dmaStreamAllocate
chDbgPanic
ARM GAS  /tmp/cc2xpVSZ.s 			page 90


dmaStreamRelease
