ARM GAS  /tmp/ccBwdpEj.s 			page 1


   1              		.syntax unified
   2              		.cpu cortex-m4
   3              		.eabi_attribute 27, 3
   4              		.eabi_attribute 28, 1
   5              		.fpu fpv4-sp-d16
   6              		.eabi_attribute 20, 1
   7              		.eabi_attribute 21, 1
   8              		.eabi_attribute 23, 3
   9              		.eabi_attribute 24, 1
  10              		.eabi_attribute 25, 1
  11              		.eabi_attribute 26, 1
  12              		.eabi_attribute 30, 2
  13              		.eabi_attribute 34, 1
  14              		.eabi_attribute 18, 4
  15              		.thumb
  16              		.file	"button.c"
  17              		.text
  18              	.Ltext0:
  19              		.cfi_sections	.debug_frame
  20              		.section	.text.MouseDown,"ax",%progbits
  21              		.align	2
  22              		.p2align 4,,15
  23              		.thumb
  24              		.thumb_func
  25              		.type	MouseDown, %function
  26              	MouseDown:
  27              	.LFB112:
  28              		.file 1 "/home/makkmarci/devel/ugfx/src/gwin/button.c"
  29              		.loc 1 55 0
  30              		.cfi_startproc
  31              		@ args = 0, pretend = 0, frame = 0
  32              		@ frame_needed = 0, uses_anonymous_args = 0
  33              		@ link register save eliminated.
  34              	.LVL0:
  35              		.loc 1 57 0
  36 0000 8269     		ldr	r2, [r0, #24]
  37              	.LVL1:
  38 0002 42F00102 		orr	r2, r2, #1
  39 0006 8261     		str	r2, [r0, #24]
  40              		.loc 1 58 0
  41 0008 FFF7FEBF 		b	_gwidgetUpdate
  42              	.LVL2:
  43              		.cfi_endproc
  44              	.LFE112:
  45              		.size	MouseDown, .-MouseDown
  46 000c AFF30080 		.section	.text.MouseUp,"ax",%progbits
  47              		.align	2
  48              		.p2align 4,,15
  49              		.thumb
  50              		.thumb_func
  51              		.type	MouseUp, %function
  52              	MouseUp:
  53              	.LFB113:
  54              		.loc 1 62 0
  55              		.cfi_startproc
  56              		@ args = 0, pretend = 0, frame = 0
  57              		@ frame_needed = 0, uses_anonymous_args = 0
ARM GAS  /tmp/ccBwdpEj.s 			page 2


  58              	.LVL3:
  59              		.loc 1 64 0
  60 0000 8369     		ldr	r3, [r0, #24]
  61 0002 23F00103 		bic	r3, r3, #1
  62              		.loc 1 62 0
  63 0006 70B5     		push	{r4, r5, r6, lr}
  64              		.cfi_def_cfa_offset 16
  65              		.cfi_offset 4, -16
  66              		.cfi_offset 5, -12
  67              		.cfi_offset 6, -8
  68              		.cfi_offset 14, -4
  69              		.loc 1 64 0
  70 0008 8361     		str	r3, [r0, #24]
  71              		.loc 1 62 0
  72 000a 0546     		mov	r5, r0
  73              		.loc 1 65 0
  74 000c FFF7FEFF 		bl	_gwidgetUpdate
  75              	.LVL4:
  76              	.LBB10:
  77              	.LBB11:
  78              		.loc 1 41 0
  79 0010 0024     		movs	r4, #0
  80              		.loc 1 45 0
  81 0012 4FF40076 		mov	r6, #512
  82              	.LVL5:
  83              	.L3:
  84              		.loc 1 42 0
  85 0016 2146     		mov	r1, r4
  86 0018 0848     		ldr	r0, .L11
  87 001a FFF7FEFF 		bl	geventGetSourceListener
  88              	.LVL6:
  89 001e 0446     		mov	r4, r0
  90 0020 50B1     		cbz	r0, .L10
  91              		.loc 1 43 0
  92 0022 FFF7FEFF 		bl	geventGetEventBuffer
  93              	.LVL7:
  94 0026 0346     		mov	r3, r0
  95              		.loc 1 47 0
  96 0028 2046     		mov	r0, r4
  97              	.LVL8:
  98              		.loc 1 43 0
  99 002a 002B     		cmp	r3, #0
 100 002c F3D0     		beq	.L3
 101              		.loc 1 45 0
 102 002e 1E80     		strh	r6, [r3]	@ movhi
 103              		.loc 1 46 0
 104 0030 5D60     		str	r5, [r3, #4]
 105              		.loc 1 47 0
 106 0032 FFF7FEFF 		bl	geventSendEvent
 107              	.LVL9:
 108 0036 EEE7     		b	.L3
 109              	.LVL10:
 110              	.L10:
 111              	.LBE11:
 112              	.LBE10:
 113              		.loc 1 74 0
 114 0038 70BD     		pop	{r4, r5, r6, pc}
ARM GAS  /tmp/ccBwdpEj.s 			page 3


 115              	.LVL11:
 116              	.L12:
 117 003a 00BF     		.align	2
 118              	.L11:
 119 003c 00000000 		.word	_gwidgetCreate
 120              		.cfi_endproc
 121              	.LFE113:
 122              		.size	MouseUp, .-MouseUp
 123              		.section	.text.gwinButtonDraw_Normal,"ax",%progbits
 124              		.align	2
 125              		.p2align 4,,15
 126              		.global	gwinButtonDraw_Normal
 127              		.thumb
 128              		.thumb_func
 129              		.type	gwinButtonDraw_Normal, %function
 130              	gwinButtonDraw_Normal:
 131              	.LFB117:
 132              		.loc 1 182 0
 133              		.cfi_startproc
 134              		@ args = 0, pretend = 0, frame = 16
 135              		@ frame_needed = 0, uses_anonymous_args = 0
 136              	.LVL12:
 137 0000 2DE9F04F 		push	{r4, r5, r6, r7, r8, r9, r10, fp, lr}
 138              		.cfi_def_cfa_offset 36
 139              		.cfi_offset 4, -36
 140              		.cfi_offset 5, -32
 141              		.cfi_offset 6, -28
 142              		.cfi_offset 7, -24
 143              		.cfi_offset 8, -20
 144              		.cfi_offset 9, -16
 145              		.cfi_offset 10, -12
 146              		.cfi_offset 11, -8
 147              		.cfi_offset 14, -4
 148              		.loc 1 190 0
 149 0004 464A     		ldr	r2, .L22
 150 0006 4368     		ldr	r3, [r0, #4]
 151 0008 9342     		cmp	r3, r2
 152              		.loc 1 182 0
 153 000a 8BB0     		sub	sp, sp, #44
 154              		.cfi_def_cfa_offset 80
 155              		.loc 1 182 0
 156 000c 0446     		mov	r4, r0
 157              		.loc 1 190 0
 158 000e 02D0     		beq	.L20
 159              		.loc 1 203 0
 160 0010 0BB0     		add	sp, sp, #44
 161              		@ sp needed
 162 0012 BDE8F08F 		pop	{r4, r5, r6, r7, r8, r9, r10, fp, pc}
 163              	.L20:
 164              	.LVL13:
 165              		.loc 1 182 0
 166 0016 8369     		ldr	r3, [r0, #24]
 167 0018 C26A     		ldr	r2, [r0, #44]
 168              	.LVL14:
 169              	.LBB16:
 170              	.LBB17:
 171              	.LBB18:
ARM GAS  /tmp/ccBwdpEj.s 			page 4


 172              	.LBB19:
 173              		.loc 1 164 0
 174 001a 1905     		lsls	r1, r3, #20
 175              	.LVL15:
 176 001c 7DD5     		bpl	.L21
 177              		.loc 1 165 0
 178 001e DB07     		lsls	r3, r3, #31
 179 0020 4CBF     		ite	mi
 180 0022 1232     		addmi	r2, r2, #18
 181              		.loc 1 166 0
 182 0024 0232     		addpl	r2, r2, #2
 183 0026 0992     		str	r2, [sp, #36]
 184              	.L16:
 185              	.LBE19:
 186              	.LBE18:
 187              		.loc 1 194 0
 188 0028 099D     		ldr	r5, [sp, #36]
 189 002a 3222     		movs	r2, #50
 190 002c A988     		ldrh	r1, [r5, #4]
 191 002e 4FF6FF70 		movw	r0, #65535
 192              	.LVL16:
 193 0032 FFF7FEFF 		bl	gdispBlendColor
 194              	.LVL17:
 195              		.loc 1 195 0
 196 0036 1922     		movs	r2, #25
 197              		.loc 1 194 0
 198 0038 0790     		str	r0, [sp, #28]
 199              	.LVL18:
 200              		.loc 1 195 0
 201 003a A988     		ldrh	r1, [r5, #4]
 202 003c 0020     		movs	r0, #0
 203 003e FFF7FEFF 		bl	gdispBlendColor
 204              	.LVL19:
 205              		.loc 1 196 0
 206 0042 638A     		ldrh	r3, [r4, #18]
 207              		.loc 1 195 0
 208 0044 0890     		str	r0, [sp, #32]
 209              	.LVL20:
 210              		.loc 1 196 0
 211 0046 1AB2     		sxth	r2, r3
 212 0048 4FF47F0B 		mov	fp, #16711680
 213              		.loc 1 197 0
 214 004c 002A     		cmp	r2, #0
 215              		.loc 1 196 0
 216 004e 9BFBF2FB 		sdiv	fp, fp, r2
 217              	.LVL21:
 218              		.loc 1 197 0
 219 0052 27DD     		ble	.L18
 220 0054 0025     		movs	r5, #0
 221 0056 2E46     		mov	r6, r5
 222              	.LVL22:
 223              	.L19:
 224              		.loc 1 198 0
 225 0058 A789     		ldrh	r7, [r4, #12]
 226 005a 238A     		ldrh	r3, [r4, #16]
 227 005c B4F80EC0 		ldrh	ip, [r4, #14]
 228 0060 0799     		ldr	r1, [sp, #28]
ARM GAS  /tmp/ccBwdpEj.s 			page 5


 229 0062 0898     		ldr	r0, [sp, #32]
 230 0064 D4F80880 		ldr	r8, [r4, #8]
 231 0068 B6B2     		uxth	r6, r6
 232              	.LVL23:
 233 006a 3B44     		add	r3, r3, r7
 234 006c B444     		add	ip, ip, r6
 235 006e 023B     		subs	r3, r3, #2
 236 0070 C5F30742 		ubfx	r2, r5, #16, #8
 237 0074 1FFA8CFA 		uxth	r10, ip
 238 0078 1FFA83F9 		uxth	r9, r3
 239 007c FFF7FEFF 		bl	gdispBlendColor
 240              	.LVL24:
 241 0080 0FFA8AF2 		sxth	r2, r10
 242 0084 0FFA89F3 		sxth	r3, r9
 243 0088 0092     		str	r2, [sp]
 244 008a 0190     		str	r0, [sp, #4]
 245 008c 39B2     		sxth	r1, r7
 246 008e 4046     		mov	r0, r8
 247 0090 FFF7FEFF 		bl	gdispGDrawLine
 248              	.LVL25:
 249 0094 0136     		adds	r6, r6, #1
 250              		.loc 1 197 0
 251 0096 638A     		ldrh	r3, [r4, #18]
 252 0098 B6B2     		uxth	r6, r6
 253              	.LVL26:
 254 009a 32B2     		sxth	r2, r6
 255 009c 19B2     		sxth	r1, r3
 256 009e 9142     		cmp	r1, r2
 257 00a0 5D44     		add	r5, r5, fp
 258              	.LVL27:
 259 00a2 D9DC     		bgt	.L19
 260              	.LVL28:
 261              	.L18:
 262              		.loc 1 200 0
 263 00a4 216A     		ldr	r1, [r4, #32]
 264 00a6 E269     		ldr	r2, [r4, #28]
 265 00a8 099E     		ldr	r6, [sp, #36]
 266 00aa 013B     		subs	r3, r3, #1
 267 00ac 18B2     		sxth	r0, r3
 268 00ae 238A     		ldrh	r3, [r4, #16]
 269 00b0 8DE80700 		stmia	sp, {r0, r1, r2}
 270 00b4 3588     		ldrh	r5, [r6]
 271 00b6 A068     		ldr	r0, [r4, #8]
 272 00b8 B4F90C10 		ldrsh	r1, [r4, #12]
 273 00bc B4F90E20 		ldrsh	r2, [r4, #14]
 274 00c0 0395     		str	r5, [sp, #12]
 275 00c2 013B     		subs	r3, r3, #1
 276 00c4 0125     		movs	r5, #1
 277 00c6 0495     		str	r5, [sp, #16]
 278 00c8 1BB2     		sxth	r3, r3
 279 00ca FFF7FEFF 		bl	gdispGDrawStringBox
 280              	.LVL29:
 281              		.loc 1 201 0
 282 00ce E289     		ldrh	r2, [r4, #14]
 283 00d0 638A     		ldrh	r3, [r4, #18]
 284 00d2 A589     		ldrh	r5, [r4, #12]
 285 00d4 218A     		ldrh	r1, [r4, #16]
ARM GAS  /tmp/ccBwdpEj.s 			page 6


 286 00d6 A068     		ldr	r0, [r4, #8]
 287 00d8 1344     		add	r3, r3, r2
 288 00da 013B     		subs	r3, r3, #1
 289 00dc 2944     		add	r1, r1, r5
 290 00de 1BB2     		sxth	r3, r3
 291 00e0 0093     		str	r3, [sp]
 292 00e2 0139     		subs	r1, r1, #1
 293 00e4 7388     		ldrh	r3, [r6, #2]
 294 00e6 0193     		str	r3, [sp, #4]
 295 00e8 09B2     		sxth	r1, r1
 296 00ea 0B46     		mov	r3, r1
 297 00ec 12B2     		sxth	r2, r2
 298 00ee FFF7FEFF 		bl	gdispGDrawLine
 299              	.LVL30:
 300              		.loc 1 202 0
 301 00f2 E589     		ldrh	r5, [r4, #14]
 302 00f4 628A     		ldrh	r2, [r4, #18]
 303 00f6 A189     		ldrh	r1, [r4, #12]
 304 00f8 238A     		ldrh	r3, [r4, #16]
 305 00fa A068     		ldr	r0, [r4, #8]
 306 00fc 2A44     		add	r2, r2, r5
 307 00fe 013A     		subs	r2, r2, #1
 308 0100 12B2     		sxth	r2, r2
 309 0102 0092     		str	r2, [sp]
 310 0104 0B44     		add	r3, r3, r1
 311 0106 7488     		ldrh	r4, [r6, #2]
 312              	.LVL31:
 313 0108 0194     		str	r4, [sp, #4]
 314 010a 023B     		subs	r3, r3, #2
 315 010c 1BB2     		sxth	r3, r3
 316 010e 09B2     		sxth	r1, r1
 317 0110 FFF7FEFF 		bl	gdispGDrawLine
 318              	.LVL32:
 319              	.LBE17:
 320              	.LBE16:
 321              		.loc 1 203 0
 322 0114 0BB0     		add	sp, sp, #44
 323              		@ sp needed
 324 0116 BDE8F08F 		pop	{r4, r5, r6, r7, r8, r9, r10, fp, pc}
 325              	.LVL33:
 326              	.L21:
 327              	.LBB23:
 328              	.LBB22:
 329              	.LBB21:
 330              	.LBB20:
 331              		.loc 1 164 0
 332 011a 0A32     		adds	r2, r2, #10
 333 011c 0992     		str	r2, [sp, #36]
 334 011e 83E7     		b	.L16
 335              	.L23:
 336              		.align	2
 337              	.L22:
 338 0120 00000000 		.word	.LANCHOR0
 339              	.LBE20:
 340              	.LBE21:
 341              	.LBE22:
 342              	.LBE23:
ARM GAS  /tmp/ccBwdpEj.s 			page 7


 343              		.cfi_endproc
 344              	.LFE117:
 345              		.size	gwinButtonDraw_Normal, .-gwinButtonDraw_Normal
 346 0124 AFF30080 		.section	.text.gwinGButtonCreate,"ax",%progbits
 346      AFF30080 
 346      AFF30080 
 347              		.align	2
 348              		.p2align 4,,15
 349              		.global	gwinGButtonCreate
 350              		.thumb
 351              		.thumb_func
 352              		.type	gwinGButtonCreate, %function
 353              	gwinGButtonCreate:
 354              	.LFB114:
 355              		.loc 1 141 0
 356              		.cfi_startproc
 357              		@ args = 0, pretend = 0, frame = 0
 358              		@ frame_needed = 0, uses_anonymous_args = 0
 359              	.LVL34:
 360 0000 38B5     		push	{r3, r4, r5, lr}
 361              		.cfi_def_cfa_offset 16
 362              		.cfi_offset 3, -16
 363              		.cfi_offset 4, -12
 364              		.cfi_offset 5, -8
 365              		.cfi_offset 14, -4
 366              		.loc 1 142 0
 367 0002 054B     		ldr	r3, .L29
 368              		.loc 1 141 0
 369 0004 1546     		mov	r5, r2
 370              		.loc 1 142 0
 371 0006 FFF7FEFF 		bl	_gwidgetCreate
 372              	.LVL35:
 373 000a 0446     		mov	r4, r0
 374 000c 10B1     		cbz	r0, .L25
 375              		.loc 1 148 0
 376 000e 297A     		ldrb	r1, [r5, #8]	@ zero_extendqisi2
 377 0010 FFF7FEFF 		bl	gwinSetVisible
 378              	.LVL36:
 379              	.L25:
 380              		.loc 1 150 0
 381 0014 2046     		mov	r0, r4
 382 0016 38BD     		pop	{r3, r4, r5, pc}
 383              	.LVL37:
 384              	.L30:
 385              		.align	2
 386              	.L29:
 387 0018 00000000 		.word	.LANCHOR0
 388              		.cfi_endproc
 389              	.LFE114:
 390              		.size	gwinGButtonCreate, .-gwinGButtonCreate
 391 001c AFF30080 		.section	.text.gwinButtonIsPressed,"ax",%progbits
 392              		.align	2
 393              		.p2align 4,,15
 394              		.global	gwinButtonIsPressed
 395              		.thumb
 396              		.thumb_func
 397              		.type	gwinButtonIsPressed, %function
ARM GAS  /tmp/ccBwdpEj.s 			page 8


 398              	gwinButtonIsPressed:
 399              	.LFB115:
 400              		.loc 1 152 0
 401              		.cfi_startproc
 402              		@ args = 0, pretend = 0, frame = 0
 403              		@ frame_needed = 0, uses_anonymous_args = 0
 404              		@ link register save eliminated.
 405              	.LVL38:
 406              		.loc 1 153 0
 407 0000 4368     		ldr	r3, [r0, #4]
 408 0002 044A     		ldr	r2, .L34
 409 0004 9342     		cmp	r3, r2
 410              		.loc 1 156 0
 411 0006 06BF     		itte	eq
 412 0008 8069     		ldreq	r0, [r0, #24]
 413              	.LVL39:
 414 000a 00F00100 		andeq	r0, r0, #1
 415              		.loc 1 154 0
 416 000e 0020     		movne	r0, #0
 417              		.loc 1 157 0
 418 0010 7047     		bx	lr
 419              	.L35:
 420 0012 00BF     		.align	2
 421              	.L34:
 422 0014 00000000 		.word	.LANCHOR0
 423              		.cfi_endproc
 424              	.LFE115:
 425              		.size	gwinButtonIsPressed, .-gwinButtonIsPressed
 426 0018 AFF30080 		.section	.text.gwinButtonDraw_Image,"ax",%progbits
 426      AFF30080 
 427              		.align	2
 428              		.p2align 4,,15
 429              		.global	gwinButtonDraw_Image
 430              		.thumb
 431              		.thumb_func
 432              		.type	gwinButtonDraw_Image, %function
 433              	gwinButtonDraw_Image:
 434              	.LFB118:
 435              		.loc 1 332 0
 436              		.cfi_startproc
 437              		@ args = 0, pretend = 0, frame = 0
 438              		@ frame_needed = 0, uses_anonymous_args = 0
 439              	.LVL40:
 440 0000 F0B5     		push	{r4, r5, r6, r7, lr}
 441              		.cfi_def_cfa_offset 20
 442              		.cfi_offset 4, -20
 443              		.cfi_offset 5, -16
 444              		.cfi_offset 6, -12
 445              		.cfi_offset 7, -8
 446              		.cfi_offset 14, -4
 447              		.loc 1 336 0
 448 0002 234A     		ldr	r2, .L43
 449 0004 4368     		ldr	r3, [r0, #4]
 450 0006 9342     		cmp	r3, r2
 451              		.loc 1 332 0
 452 0008 87B0     		sub	sp, sp, #28
 453              		.cfi_def_cfa_offset 48
ARM GAS  /tmp/ccBwdpEj.s 			page 9


 454              		.loc 1 332 0
 455 000a 0446     		mov	r4, r0
 456              		.loc 1 336 0
 457 000c 01D0     		beq	.L41
 458              		.loc 1 349 0
 459 000e 07B0     		add	sp, sp, #28
 460              		@ sp needed
 461 0010 F0BD     		pop	{r4, r5, r6, r7, pc}
 462              	.L41:
 463              		.loc 1 332 0
 464 0012 8369     		ldr	r3, [r0, #24]
 465 0014 C76A     		ldr	r7, [r0, #44]
 466              	.LVL41:
 467              	.LBB24:
 468              	.LBB25:
 469              		.loc 1 164 0
 470 0016 1A05     		lsls	r2, r3, #20
 471 0018 32D5     		bpl	.L42
 472              		.loc 1 165 0
 473 001a 13F00106 		ands	r6, r3, #1
 474 001e 34D0     		beq	.L40
 475              	.LBE25:
 476              	.LBE24:
 477              		.loc 1 342 0
 478 0020 468A     		ldrh	r6, [r0, #18]
 479              	.LBB29:
 480              	.LBB26:
 481              		.loc 1 165 0
 482 0022 1237     		adds	r7, r7, #18
 483              	.LVL42:
 484              	.LBE26:
 485              	.LBE29:
 486 0024 3546     		mov	r5, r6
 487              	.LVL43:
 488              	.L39:
 489              		.loc 1 347 0
 490 0026 B4F910E0 		ldrsh	lr, [r4, #16]
 491 002a B4F90C20 		ldrsh	r2, [r4, #12]
 492 002e B4F90E30 		ldrsh	r3, [r4, #14]
 493 0032 A068     		ldr	r0, [r4, #8]
 494              	.LVL44:
 495 0034 CDF800E0 		str	lr, [sp]
 496 0038 36B2     		sxth	r6, r6
 497              	.LVL45:
 498 003a 0FFA85FE 		sxth	lr, r5
 499 003e 0025     		movs	r5, #0
 500 0040 CDF804E0 		str	lr, [sp, #4]
 501 0044 0396     		str	r6, [sp, #12]
 502 0046 0295     		str	r5, [sp, #8]
 503 0048 FFF7FEFF 		bl	gdispGImageDraw
 504              	.LVL46:
 505              		.loc 1 348 0
 506 004c 668A     		ldrh	r6, [r4, #18]
 507 004e 236A     		ldr	r3, [r4, #32]
 508 0050 258A     		ldrh	r5, [r4, #16]
 509 0052 E069     		ldr	r0, [r4, #28]
 510 0054 A189     		ldrh	r1, [r4, #12]
ARM GAS  /tmp/ccBwdpEj.s 			page 10


 511 0056 E289     		ldrh	r2, [r4, #14]
 512 0058 0193     		str	r3, [sp, #4]
 513 005a B31E     		subs	r3, r6, #2
 514 005c 1BB2     		sxth	r3, r3
 515 005e 0093     		str	r3, [sp]
 516 0060 0290     		str	r0, [sp, #8]
 517 0062 3B88     		ldrh	r3, [r7]
 518 0064 A068     		ldr	r0, [r4, #8]
 519 0066 0393     		str	r3, [sp, #12]
 520 0068 0124     		movs	r4, #1
 521              	.LVL47:
 522 006a AB1E     		subs	r3, r5, #2
 523 006c 0131     		adds	r1, r1, #1
 524 006e 0132     		adds	r2, r2, #1
 525 0070 09B2     		sxth	r1, r1
 526 0072 12B2     		sxth	r2, r2
 527 0074 1BB2     		sxth	r3, r3
 528 0076 0494     		str	r4, [sp, #16]
 529 0078 FFF7FEFF 		bl	gdispGDrawStringBox
 530              	.LVL48:
 531              		.loc 1 349 0
 532 007c 07B0     		add	sp, sp, #28
 533              		@ sp needed
 534 007e F0BD     		pop	{r4, r5, r6, r7, pc}
 535              	.LVL49:
 536              	.L42:
 537              		.loc 1 340 0
 538 0080 458A     		ldrh	r5, [r0, #18]
 539 0082 6E00     		lsls	r6, r5, #1
 540              	.LBB30:
 541              	.LBB27:
 542              		.loc 1 164 0
 543 0084 0A37     		adds	r7, r7, #10
 544              	.LBE27:
 545              	.LBE30:
 546              		.loc 1 340 0
 547 0086 B6B2     		uxth	r6, r6
 548              	.LVL50:
 549 0088 CDE7     		b	.L39
 550              	.LVL51:
 551              	.L40:
 552 008a 458A     		ldrh	r5, [r0, #18]
 553              	.LBB31:
 554              	.LBB28:
 555              		.loc 1 166 0
 556 008c 0237     		adds	r7, r7, #2
 557 008e CAE7     		b	.L39
 558              	.L44:
 559              		.align	2
 560              	.L43:
 561 0090 00000000 		.word	.LANCHOR0
 562              	.LBE28:
 563              	.LBE31:
 564              		.cfi_endproc
 565              	.LFE118:
 566              		.size	gwinButtonDraw_Image, .-gwinButtonDraw_Image
 567 0094 AFF30080 		.section	.rodata.buttonVMT,"a",%progbits
ARM GAS  /tmp/ccBwdpEj.s 			page 11


 567      AFF30080 
 567      AFF30080 
 568              		.align	2
 569              		.set	.LANCHOR0,. + 0
 570              		.type	buttonVMT, %object
 571              		.size	buttonVMT, 36
 572              	buttonVMT:
 573 0000 00000000 		.word	.LC0
 574 0004 30000000 		.word	48
 575 0008 00000000 		.word	_gwidgetDestroy
 576 000c 00000000 		.word	_gwidgetRedraw
 577 0010 00000000 		.word	0
 578 0014 00000000 		.word	gwinButtonDraw_Normal
 579 0018 00000000 		.word	MouseDown
 580 001c 00000000 		.word	MouseUp
 581 0020 00000000 		.word	0
 582              		.section	.rodata.str1.4,"aMS",%progbits,1
 583              		.align	2
 584              	.LC0:
 585 0000 42757474 		.ascii	"Button\000"
 585      6F6E00
 586 0007 00       		.text
 587              	.Letext0:
 588              		.file 2 "/opt/ARM/lib/gcc/arm-none-eabi/4.8.4/include/stddef.h"
 589              		.file 3 "/opt/ARM/arm-none-eabi/include/machine/_default_types.h"
 590              		.file 4 "/opt/ARM/arm-none-eabi/include/stdint.h"
 591              		.file 5 "../../os/ports/GCC/ARMCMx/chtypes.h"
 592              		.file 6 "../../os/kernel/include/chlists.h"
 593              		.file 7 "../../os/kernel/include/chthreads.h"
 594              		.file 8 "../../os/ports/GCC/ARMCMx/chcore_v7m.h"
 595              		.file 9 "../../os/kernel/include/chsem.h"
 596              		.file 10 "../../os/kernel/include/chmtx.h"
 597              		.file 11 "/home/makkmarci/devel/ugfx/src/gos/chibios.h"
 598              		.file 12 "/home/makkmarci/devel/ugfx/src/gmisc/sys_defs.h"
 599              		.file 13 "/home/makkmarci/devel/ugfx/src/gqueue/sys_defs.h"
 600              		.file 14 "/home/makkmarci/devel/ugfx/src/gevent/sys_defs.h"
 601              		.file 15 "/home/makkmarci/devel/ugfx/src/gdisp/sys_defs.h"
 602              		.file 16 "/home/makkmarci/devel/ugfx/src/gdisp/colors.h"
 603              		.file 17 "/home/makkmarci/devel/ugfx/src/gdisp/image.h"
 604              		.file 18 "/home/makkmarci/devel/ugfx/src/gwin/sys_defs.h"
 605              		.file 19 "/home/makkmarci/devel/ugfx/src/gwin/class_gwin.h"
 606              		.file 20 "/home/makkmarci/devel/ugfx/src/gwin/gwidget.h"
 607              		.file 21 "/home/makkmarci/devel/ugfx/src/gwin/button.h"
 608              		.file 22 "/home/makkmarci/devel/ugfx/src/gfile/sys_defs.h"
 609              		.file 23 "../../os/ports/common/ARMCMx/CMSIS/include/core_cm4.h"