ARM GAS  /tmp/ccPwKG9W.s 			page 1


   1              		.syntax unified
   2              		.cpu cortex-m4
   3              		.eabi_attribute 27, 3
   4              		.eabi_attribute 28, 1
   5              		.fpu fpv4-sp-d16
   6              		.eabi_attribute 20, 1
   7              		.eabi_attribute 21, 1
   8              		.eabi_attribute 23, 3
   9              		.eabi_attribute 24, 1
  10              		.eabi_attribute 25, 1
  11              		.eabi_attribute 26, 1
  12              		.eabi_attribute 30, 2
  13              		.eabi_attribute 34, 1
  14              		.eabi_attribute 18, 4
  15              		.thumb
  16              		.file	"chcore_v7m.c"
  17              		.text
  18              	.Ltext0:
  19              		.cfi_sections	.debug_frame
  20              		.section	.text._port_switch_from_isr,"ax",%progbits
  21              		.align	2
  22              		.p2align 4,,15
  23              		.global	_port_switch_from_isr
  24              		.thumb
  25              		.thumb_func
  26              		.type	_port_switch_from_isr, %function
  27              	_port_switch_from_isr:
  28              	.LFB6:
  29              		.file 1 "../../os/ports/GCC/ARMCMx/chcore_v7m.c"
  30              		.loc 1 197 0
  31              		.cfi_startproc
  32              		@ Naked Function: prologue and epilogue provided by programmer.
  33              		@ args = 0, pretend = 0, frame = 0
  34              		@ frame_needed = 0, uses_anonymous_args = 0
  35              		.loc 1 200 0
  36 0000 FFF7FEFF 		bl	chSchDoReschedule
  37              	.LVL0:
  38              		.loc 1 202 0
  39              	@ 202 "../../os/ports/GCC/ARMCMx/chcore_v7m.c" 1
  40              		_port_exit_from_isr:
  41              	@ 0 "" 2
  42              		.loc 1 204 0
  43              	@ 204 "../../os/ports/GCC/ARMCMx/chcore_v7m.c" 1
  44 0004 00DF     		svc     #0
  45              	@ 0 "" 2
  46              		.loc 1 211 0
  47              		.thumb
  48              		.cfi_endproc
  49              	.LFE6:
  50              		.size	_port_switch_from_isr, .-_port_switch_from_isr
  51 0006 00BFAFF3 		.section	.text.SVCallVector,"ax",%progbits
  51      0080AFF3 
  51      0080
  52              		.align	2
  53              		.p2align 4,,15
  54              		.global	SVCallVector
  55              		.thumb
ARM GAS  /tmp/ccPwKG9W.s 			page 2


  56              		.thumb_func
  57              		.type	SVCallVector, %function
  58              	SVCallVector:
  59              	.LFB1:
  60              		.loc 1 65 0
  61              		.cfi_startproc
  62              		@ args = 0, pretend = 0, frame = 0
  63              		@ frame_needed = 0, uses_anonymous_args = 0
  64              		.loc 1 70 0
  65 0000 074B     		ldr	r3, .L3
  66 0002 5A68     		ldr	r2, [r3, #4]
  67 0004 22F00102 		bic	r2, r2, #1
  68              		.loc 1 65 0
  69 0008 00B5     		push	{lr}
  70              		.cfi_def_cfa_offset 4
  71              		.cfi_offset 14, -4
  72              		.loc 1 70 0
  73 000a 5A60     		str	r2, [r3, #4]
  74              		.loc 1 74 0
  75              	@ 74 "../../os/ports/GCC/ARMCMx/chcore_v7m.c" 1
  76 000c EFF30983 		mrs     r3, PSP
  77              	@ 0 "" 2
  78              	.LVL1:
  79              		.loc 1 78 0
  80              		.thumb
  81 0010 6833     		adds	r3, r3, #104
  82              	.LVL2:
  83              		.loc 1 81 0
  84              	@ 81 "../../os/ports/GCC/ARMCMx/chcore_v7m.c" 1
  85 0012 83F30988 		msr     PSP, r3
  86              	@ 0 "" 2
  87              		.loc 1 82 0
  88              	@ 82 "../../os/ports/GCC/ARMCMx/chcore_v7m.c" 1
  89 0016 FFF7FEFF 		bl      _port_unlock
  90              	@ 0 "" 2
  91              	.LVL3:
  92              		.thumb
  93 001a 5DF804FB 		ldr	pc, [sp], #4
  94              	.L4:
  95 001e 00BF     		.align	2
  96              	.L3:
  97 0020 30EF00E0 		.word	-536809680
  98              		.cfi_endproc
  99              	.LFE1:
 100              		.size	SVCallVector, .-SVCallVector
 101 0024 AFF30080 		.section	.text._port_init,"ax",%progbits
 101      AFF30080 
 101      AFF30080 
 102              		.align	2
 103              		.p2align 4,,15
 104              		.global	_port_init
 105              		.thumb
 106              		.thumb_func
 107              		.type	_port_init, %function
 108              	_port_init:
 109              	.LFB2:
 110              		.loc 1 120 0
ARM GAS  /tmp/ccPwKG9W.s 			page 3


 111              		.cfi_startproc
 112              		@ args = 0, pretend = 0, frame = 0
 113              		@ frame_needed = 0, uses_anonymous_args = 0
 114 0000 08B5     		push	{r3, lr}
 115              		.cfi_def_cfa_offset 8
 116              		.cfi_offset 3, -8
 117              		.cfi_offset 14, -4
 118              		.loc 1 123 0
 119 0002 094B     		ldr	r3, .L6
 120              		.loc 1 124 0
 121 0004 094A     		ldr	r2, .L6+4
 122              		.loc 1 123 0
 123 0006 0021     		movs	r1, #0
 124 0008 9960     		str	r1, [r3, #8]
 125              		.loc 1 127 0
 126 000a 0720     		movs	r0, #7
 127              		.loc 1 124 0
 128 000c DA60     		str	r2, [r3, #12]
 129              		.loc 1 127 0
 130 000e 1021     		movs	r1, #16
 131 0010 FFF7FEFF 		bl	nvicSetSystemHandlerPriority
 132              	.LVL4:
 133              		.loc 1 129 0
 134 0014 0A20     		movs	r0, #10
 135 0016 2021     		movs	r1, #32
 136 0018 FFF7FEFF 		bl	nvicSetSystemHandlerPriority
 137              	.LVL5:
 138              		.loc 1 131 0
 139 001c 0B20     		movs	r0, #11
 140 001e 8021     		movs	r1, #128
 141              		.loc 1 133 0
 142 0020 BDE80840 		pop	{r3, lr}
 143              		.loc 1 131 0
 144 0024 FFF7FEBF 		b	nvicSetSystemHandlerPriority
 145              	.LVL6:
 146              	.L7:
 147              		.align	2
 148              	.L6:
 149 0028 00ED00E0 		.word	-536810240
 150 002c 0003FA05 		.word	100270848
 151              		.cfi_endproc
 152              	.LFE2:
 153              		.size	_port_init, .-_port_init
 154              		.section	.text._port_lock,"ax",%progbits
 155              		.align	2
 156              		.p2align 4,,15
 157              		.global	_port_lock
 158              		.thumb
 159              		.thumb_func
 160              		.type	_port_lock, %function
 161              	_port_lock:
 162              	.LFB3:
 163              		.loc 1 136 0
 164              		.cfi_startproc
 165              		@ args = 0, pretend = 0, frame = 0
 166              		@ frame_needed = 0, uses_anonymous_args = 0
 167              		@ link register save eliminated.
ARM GAS  /tmp/ccPwKG9W.s 			page 4


 168              		.loc 1 137 0
 169 0000 2023     		movs	r3, #32
 170              		.loc 1 138 0
 171              	@ 138 "../../os/ports/GCC/ARMCMx/chcore_v7m.c" 1
 172 0002 83F31188 		msr     BASEPRI, r3
 173              	@ 0 "" 2
 174              		.thumb
 175 0006 7047     		bx	lr
 176              		.cfi_endproc
 177              	.LFE3:
 178              		.size	_port_lock, .-_port_lock
 179 0008 AFF30080 		.section	.text._port_unlock,"ax",%progbits
 179      AFF30080 
 180              		.align	2
 181              		.p2align 4,,15
 182              		.global	_port_unlock
 183              		.thumb
 184              		.thumb_func
 185              		.type	_port_unlock, %function
 186              	_port_unlock:
 187              	.LFB4:
 188              		.loc 1 141 0
 189              		.cfi_startproc
 190              		@ args = 0, pretend = 0, frame = 0
 191              		@ frame_needed = 0, uses_anonymous_args = 0
 192              		@ link register save eliminated.
 193              		.loc 1 142 0
 194 0000 0023     		movs	r3, #0
 195              		.loc 1 143 0
 196              	@ 143 "../../os/ports/GCC/ARMCMx/chcore_v7m.c" 1
 197 0002 83F31188 		msr     BASEPRI, r3
 198              	@ 0 "" 2
 199              		.thumb
 200 0006 7047     		bx	lr
 201              		.cfi_endproc
 202              	.LFE4:
 203              		.size	_port_unlock, .-_port_unlock
 204 0008 AFF30080 		.section	.text._port_irq_epilogue,"ax",%progbits
 204      AFF30080 
 205              		.align	2
 206              		.p2align 4,,15
 207              		.global	_port_irq_epilogue
 208              		.thumb
 209              		.thumb_func
 210              		.type	_port_irq_epilogue, %function
 211              	_port_irq_epilogue:
 212              	.LFB5:
 213              		.loc 1 150 0
 214              		.cfi_startproc
 215              		@ args = 0, pretend = 0, frame = 0
 216              		@ frame_needed = 0, uses_anonymous_args = 0
 217 0000 00B5     		push	{lr}
 218              		.cfi_def_cfa_offset 4
 219              		.cfi_offset 14, -4
 220              		.loc 1 152 0
 221              	@ 152 "../../os/ports/GCC/ARMCMx/chcore_v7m.c" 1
 222 0002 FFF7FEFF 		bl      _port_lock
ARM GAS  /tmp/ccPwKG9W.s 			page 5


 223              	@ 0 "" 2
 224              		.loc 1 153 0
 225              		.thumb
 226 0006 184B     		ldr	r3, .L18
 227 0008 5B68     		ldr	r3, [r3, #4]
 228 000a 1B05     		lsls	r3, r3, #20
 229 000c 1DD5     		bpl	.L11
 230              	.LBB2:
 231              		.loc 1 159 0
 232              	@ 159 "../../os/ports/GCC/ARMCMx/chcore_v7m.c" 1
 233 000e F1EE10FA 		vmrs    APSR_nzcv, FPSCR
 234              	@ 0 "" 2
 235              		.loc 1 163 0
 236              	@ 163 "../../os/ports/GCC/ARMCMx/chcore_v7m.c" 1
 237 0012 EFF30983 		mrs     r3, PSP
 238              	@ 0 "" 2
 239              	.LVL7:
 240              		.loc 1 168 0
 241              		.thumb
 242 0016 4FF08072 		mov	r2, #16777216
 243 001a 43F84C2C 		str	r2, [r3, #-76]
 244              		.loc 1 167 0
 245 001e A3F16802 		sub	r2, r3, #104
 246              	.LVL8:
 247              		.loc 1 169 0
 248              	@ 169 "../../os/ports/GCC/ARMCMx/chcore_v7m.c" 1
 249 0022 82F30988 		msr     PSP, r2
 250              	@ 0 "" 2
 251              		.loc 1 173 0
 252              		.thumb
 253 0026 1149     		ldr	r1, .L18+4
 254 0028 8A69     		ldr	r2, [r1, #24]
 255              	.LVL9:
 256 002a 0968     		ldr	r1, [r1]
 257 002c 92F82300 		ldrb	r0, [r2, #35]	@ zero_extendqisi2
 258 0030 8968     		ldr	r1, [r1, #8]
 259 0032 9268     		ldr	r2, [r2, #8]
 260 0034 68B1     		cbz	r0, .L12
 261              		.loc 1 173 0 is_stmt 0 discriminator 1
 262 0036 9142     		cmp	r1, r2
 263 0038 94BF     		ite	ls
 264 003a 0022     		movls	r2, #0
 265 003c 0122     		movhi	r2, #1
 266 003e 72B1     		cbz	r2, .L14
 267              	.L17:
 268              		.loc 1 175 0 is_stmt 1
 269 0040 0B4A     		ldr	r2, .L18+8
 270 0042 43F8502C 		str	r2, [r3, #-80]
 271 0046 5DF804FB 		ldr	pc, [sp], #4
 272              	.LVL10:
 273              	.L11:
 274              	.LBE2:
 275              		.loc 1 187 0
 276              	@ 187 "../../os/ports/GCC/ARMCMx/chcore_v7m.c" 1
 277 004a FFF7FEFF 		bl      _port_unlock
 278              	@ 0 "" 2
 279              		.thumb
ARM GAS  /tmp/ccPwKG9W.s 			page 6


 280 004e 5DF804FB 		ldr	pc, [sp], #4
 281              	.LVL11:
 282              	.L12:
 283              	.LBB3:
 284              		.loc 1 173 0 discriminator 2
 285 0052 9142     		cmp	r1, r2
 286 0054 34BF     		ite	cc
 287 0056 0022     		movcc	r2, #0
 288 0058 0122     		movcs	r2, #1
 289 005a 002A     		cmp	r2, #0
 290 005c F0D1     		bne	.L17
 291              	.L14:
 292              		.loc 1 180 0
 293 005e 054A     		ldr	r2, .L18+12
 294 0060 43F8502C 		str	r2, [r3, #-80]
 295 0064 5DF804FB 		ldr	pc, [sp], #4
 296              	.L19:
 297              		.align	2
 298              	.L18:
 299 0068 00ED00E0 		.word	-536810240
 300 006c 00000000 		.word	rlist
 301 0070 00000000 		.word	_port_switch_from_isr
 302 0074 04000000 		.word	_port_exit_from_isr
 303              	.LBE3:
 304              		.cfi_endproc
 305              	.LFE5:
 306              		.size	_port_irq_epilogue, .-_port_irq_epilogue
 307 0078 AFF30080 		.section	.text.SysTickVector,"ax",%progbits
 307      AFF30080 
 308              		.align	2
 309              		.p2align 4,,15
 310              		.global	SysTickVector
 311              		.thumb
 312              		.thumb_func
 313              		.type	SysTickVector, %function
 314              	SysTickVector:
 315              	.LFB0:
 316              		.loc 1 47 0
 317              		.cfi_startproc
 318              		@ args = 0, pretend = 0, frame = 0
 319              		@ frame_needed = 0, uses_anonymous_args = 0
 320 0000 08B5     		push	{r3, lr}
 321              		.cfi_def_cfa_offset 8
 322              		.cfi_offset 3, -8
 323              		.cfi_offset 14, -4
 324              		.loc 1 51 0
 325              	@ 51 "../../os/ports/GCC/ARMCMx/chcore_v7m.c" 1
 326 0002 FFF7FEFF 		bl      _port_lock
 327              	@ 0 "" 2
 328              		.loc 1 52 0
 329              		.thumb
 330 0006 FFF7FEFF 		bl	chSysTimerHandlerI
 331              	.LVL12:
 332              		.loc 1 53 0
 333              	@ 53 "../../os/ports/GCC/ARMCMx/chcore_v7m.c" 1
 334 000a FFF7FEFF 		bl      _port_unlock
 335              	@ 0 "" 2
ARM GAS  /tmp/ccPwKG9W.s 			page 7


 336              		.loc 1 56 0
 337              		.thumb
 338 000e BDE80840 		pop	{r3, lr}
 339              		.loc 1 55 0
 340 0012 FFF7FEBF 		b	_port_irq_epilogue
 341              	.LVL13:
 342              		.cfi_endproc
 343              	.LFE0:
 344              		.size	SysTickVector, .-SysTickVector
 345 0016 00BFAFF3 		.section	.text._port_switch,"ax",%progbits
 345      0080AFF3 
 345      0080
 346              		.align	2
 347              		.p2align 4,,15
 348              		.global	_port_switch
 349              		.thumb
 350              		.thumb_func
 351              		.type	_port_switch, %function
 352              	_port_switch:
 353              	.LFB7:
 354              		.loc 1 226 0
 355              		.cfi_startproc
 356              		@ Naked Function: prologue and epilogue provided by programmer.
 357              		@ args = 0, pretend = 0, frame = 0
 358              		@ frame_needed = 0, uses_anonymous_args = 0
 359              	.LVL14:
 360              		.loc 1 228 0
 361              	@ 228 "../../os/ports/GCC/ARMCMx/chcore_v7m.c" 1
 362 0000 2DE9F04F 		push    {r4, r5, r6, r7, r8, r9, r10, r11, lr}
 363              	@ 0 "" 2
 364              		.loc 1 231 0
 365              	@ 231 "../../os/ports/GCC/ARMCMx/chcore_v7m.c" 1
 366 0004 2DED108A 		vpush   {s16-s31}
 367              	@ 0 "" 2
 368              		.loc 1 234 0
 369              	@ 234 "../../os/ports/GCC/ARMCMx/chcore_v7m.c" 1
 370 0008 C1F80CD0 		str     sp, [r1, #12]                          
 371 000c D0F80CD0 		ldr     sp, [r0, #12]
 372              	@ 0 "" 2
 373              		.loc 1 238 0
 374              	@ 238 "../../os/ports/GCC/ARMCMx/chcore_v7m.c" 1
 375 0010 BDEC108A 		vpop    {s16-s31}
 376              	@ 0 "" 2
 377              		.loc 1 240 0
 378              	@ 240 "../../os/ports/GCC/ARMCMx/chcore_v7m.c" 1
 379 0014 BDE8F08F 		pop     {r4, r5, r6, r7, r8, r9, r10, r11, pc}
 380              	@ 0 "" 2
 381              		.loc 1 242 0
 382              		.thumb
 383              		.cfi_endproc
 384              	.LFE7:
 385              		.size	_port_switch, .-_port_switch
 386 0018 AFF30080 		.section	.text._port_thread_start,"ax",%progbits
 386      AFF30080 
 387              		.align	2
 388              		.p2align 4,,15
 389              		.global	_port_thread_start
ARM GAS  /tmp/ccPwKG9W.s 			page 8


 390              		.thumb
 391              		.thumb_func
 392              		.type	_port_thread_start, %function
 393              	_port_thread_start:
 394              	.LFB8:
 395              		.loc 1 249 0
 396              		.cfi_startproc
 397              		@ args = 0, pretend = 0, frame = 0
 398              		@ frame_needed = 0, uses_anonymous_args = 0
 399 0000 00B5     		push	{lr}
 400              		.cfi_def_cfa_offset 4
 401              		.cfi_offset 14, -4
 402              		.loc 1 251 0
 403              	@ 251 "../../os/ports/GCC/ARMCMx/chcore_v7m.c" 1
 404 0002 FFF7FEFF 		bl      _port_unlock
 405              	@ 0 "" 2
 406              		.loc 1 252 0
 407              	@ 252 "../../os/ports/GCC/ARMCMx/chcore_v7m.c" 1
 408 0006 2846     		mov     r0, r5                                 
 409 0008 A047     		blx     r4                                     
 410 000a FFF7FEFF 		bl      chThdExit
 411              	@ 0 "" 2
 412              		.thumb
 413 000e 5DF804FB 		ldr	pc, [sp], #4
 414              		.cfi_endproc
 415              	.LFE8:
 416              		.size	_port_thread_start, .-_port_thread_start
 417 0012 00BFAFF3 		.text
 417      0080AFF3 
 417      0080AFF3 
 417      0080
 418              	.Letext0:
 419              		.file 2 "/opt/ARM/arm-none-eabi/include/machine/_default_types.h"
 420              		.file 3 "/opt/ARM/arm-none-eabi/include/stdint.h"
 421              		.file 4 "../../os/ports/GCC/ARMCMx/chtypes.h"
 422              		.file 5 "../../os/kernel/include/chlists.h"
 423              		.file 6 "../../os/kernel/include/chthreads.h"
 424              		.file 7 "../../os/ports/GCC/ARMCMx/chcore_v7m.h"
 425              		.file 8 "../../os/ports/common/ARMCMx/nvic.h"
 426              		.file 9 "../../os/kernel/include/chschd.h"
 427              		.file 10 "../../os/kernel/include/chmtx.h"
 428              		.file 11 "../../os/kernel/include/chsys.h"