ARM GAS  /tmp/cchwWcOn.s 			page 1


   1              		.syntax unified
   2              		.cpu cortex-m4
   3              		.eabi_attribute 27, 3
   4              		.eabi_attribute 28, 1
   5              		.fpu fpv4-sp-d16
   6              		.eabi_attribute 20, 1
   7              		.eabi_attribute 21, 1
   8              		.eabi_attribute 23, 3
   9              		.eabi_attribute 24, 1
  10              		.eabi_attribute 25, 1
  11              		.eabi_attribute 26, 1
  12              		.eabi_attribute 30, 2
  13              		.eabi_attribute 34, 1
  14              		.eabi_attribute 18, 4
  15              		.thumb
  16              		.file	"chdebug.c"
  17              		.text
  18              	.Ltext0:
  19              		.cfi_sections	.debug_frame
  20              		.section	.text._trace_init,"ax",%progbits
  21              		.align	2
  22              		.p2align 4,,15
  23              		.global	_trace_init
  24              		.thumb
  25              		.thumb_func
  26              		.type	_trace_init, %function
  27              	_trace_init:
  28              	.LFB0:
  29              		.file 1 "../../os/kernel/src/chdebug.c"
  30              		.loc 1 229 0
  31              		.cfi_startproc
  32              		@ args = 0, pretend = 0, frame = 0
  33              		@ frame_needed = 0, uses_anonymous_args = 0
  34              		@ link register save eliminated.
  35              		.loc 1 231 0
  36 0000 034A     		ldr	r2, .L2
  37 0002 1346     		mov	r3, r2
  38 0004 4021     		movs	r1, #64
  39 0006 43F8081B 		str	r1, [r3], #8
  40              		.loc 1 232 0
  41 000a 5360     		str	r3, [r2, #4]
  42 000c 7047     		bx	lr
  43              	.L3:
  44 000e 00BF     		.align	2
  45              	.L2:
  46 0010 00000000 		.word	.LANCHOR0
  47              		.cfi_endproc
  48              	.LFE0:
  49              		.size	_trace_init, .-_trace_init
  50 0014 AFF30080 		.section	.text.dbg_trace,"ax",%progbits
  50      AFF30080 
  50      AFF30080 
  51              		.align	2
  52              		.p2align 4,,15
  53              		.global	dbg_trace
  54              		.thumb
  55              		.thumb_func
ARM GAS  /tmp/cchwWcOn.s 			page 2


  56              		.type	dbg_trace, %function
  57              	dbg_trace:
  58              	.LFB1:
  59              		.loc 1 242 0
  60              		.cfi_startproc
  61              		@ args = 0, pretend = 0, frame = 0
  62              		@ frame_needed = 0, uses_anonymous_args = 0
  63              		@ link register save eliminated.
  64              	.LVL0:
  65              		.loc 1 244 0
  66 0000 0C4A     		ldr	r2, .L8
  67              		.loc 1 245 0
  68 0002 0D49     		ldr	r1, .L8+4
  69              		.loc 1 244 0
  70 0004 5368     		ldr	r3, [r2, #4]
  71              		.loc 1 245 0
  72 0006 8969     		ldr	r1, [r1, #24]
  73              		.loc 1 242 0
  74 0008 10B4     		push	{r4}
  75              		.cfi_def_cfa_offset 4
  76              		.cfi_offset 4, -4
  77              		.loc 1 244 0
  78 000a 0C4C     		ldr	r4, .L8+8
  79 000c E468     		ldr	r4, [r4, #12]
  80 000e 1C60     		str	r4, [r3]
  81              		.loc 1 245 0
  82 0010 5960     		str	r1, [r3, #4]
  83              		.loc 1 246 0
  84 0012 816A     		ldr	r1, [r0, #40]
  85 0014 9960     		str	r1, [r3, #8]
  86              		.loc 1 247 0
  87 0016 90F82010 		ldrb	r1, [r0, #32]	@ zero_extendqisi2
  88 001a 1973     		strb	r1, [r3, #12]
  89              		.loc 1 248 0
  90 001c 1033     		adds	r3, r3, #16
  91 001e 02F58161 		add	r1, r2, #1032
  92 0022 8B42     		cmp	r3, r1
  93              		.loc 1 250 0
  94 0024 28BF     		it	cs
  95 0026 02F10803 		addcs	r3, r2, #8
  96 002a 5360     		str	r3, [r2, #4]
  97              		.loc 1 251 0
  98 002c 5DF8044B 		ldr	r4, [sp], #4
  99 0030 7047     		bx	lr
 100              	.L9:
 101 0032 00BF     		.align	2
 102              	.L8:
 103 0034 00000000 		.word	.LANCHOR0
 104 0038 00000000 		.word	rlist
 105 003c 00000000 		.word	vtlist
 106              		.cfi_endproc
 107              	.LFE1:
 108              		.size	dbg_trace, .-dbg_trace
 109              		.section	.text.chDbgPanic,"ax",%progbits
 110              		.align	2
 111              		.p2align 4,,15
 112              		.global	chDbgPanic
ARM GAS  /tmp/cchwWcOn.s 			page 3


 113              		.thumb
 114              		.thumb_func
 115              		.type	chDbgPanic, %function
 116              	chDbgPanic:
 117              	.LFB2:
 118              		.loc 1 271 0
 119              		.cfi_startproc
 120              		@ args = 0, pretend = 0, frame = 0
 121              		@ frame_needed = 0, uses_anonymous_args = 0
 122              		@ link register save eliminated.
 123              	.LVL1:
 124              		.loc 1 273 0
 125 0000 014B     		ldr	r3, .L11
 126 0002 1860     		str	r0, [r3]
 127              		.loc 1 274 0
 128 0004 FFF7FEBF 		b	port_halt
 129              	.LVL2:
 130              	.L12:
 131              		.align	2
 132              	.L11:
 133 0008 00000000 		.word	.LANCHOR1
 134              		.cfi_endproc
 135              	.LFE2:
 136              		.size	chDbgPanic, .-chDbgPanic
 137              		.global	dbg_panic_msg
 138              		.global	dbg_trace_buffer
 139 000c AFF30080 		.section	.bss.dbg_trace_buffer,"aw",%nobits
 140              		.align	2
 141              		.set	.LANCHOR0,. + 0
 142              		.type	dbg_trace_buffer, %object
 143              		.size	dbg_trace_buffer, 1032
 144              	dbg_trace_buffer:
 145 0000 00000000 		.space	1032
 145      00000000 
 145      00000000 
 145      00000000 
 145      00000000 
 146              		.section	.bss.dbg_panic_msg,"aw",%nobits
 147              		.align	2
 148              		.set	.LANCHOR1,. + 0
 149              		.type	dbg_panic_msg, %object
 150              		.size	dbg_panic_msg, 4
 151              	dbg_panic_msg:
 152 0000 00000000 		.space	4
 153              		.text
 154              	.Letext0:
 155              		.file 2 "/opt/ARM/arm-none-eabi/include/machine/_default_types.h"
 156              		.file 3 "/opt/ARM/arm-none-eabi/include/stdint.h"
 157              		.file 4 "../../os/ports/GCC/ARMCMx/chtypes.h"
 158              		.file 5 "../../os/kernel/include/chlists.h"
 159              		.file 6 "../../os/kernel/include/chthreads.h"
 160              		.file 7 "../../os/ports/GCC/ARMCMx/chcore_v7m.h"
 161              		.file 8 "../../os/kernel/include/chvt.h"
 162              		.file 9 "../../os/kernel/include/chschd.h"
 163              		.file 10 "../../os/kernel/include/chmtx.h"
 164              		.file 11 "../../os/kernel/include/chdebug.h"