ARM GAS  /tmp/cchwWcOn.s 			page 1


   1              		.syntax unified
   2              		.cpu cortex-m4
   3              		.eabi_attribute 27, 3
   4              		.eabi_attribute 28, 1
   5              		.fpu fpv4-sp-d16
   6              		.eabi_attribute 20, 1
   7              		.eabi_attribute 21, 1
   8              		.eabi_attribute 23, 3
   9              		.eabi_attribute 24, 1
  10              		.eabi_attribute 25, 1
  11              		.eabi_attribute 26, 1
  12              		.eabi_attribute 30, 2
  13              		.eabi_attribute 34, 1
  14              		.eabi_attribute 18, 4
  15              		.thumb
  16              		.file	"chdebug.c"
  17              		.text
  18              	.Ltext0:
  19              		.cfi_sections	.debug_frame
  20              		.section	.text._trace_init,"ax",%progbits
  21              		.align	2
  22              		.p2align 4,,15
  23              		.global	_trace_init
  24              		.thumb
  25              		.thumb_func
  26              		.type	_trace_init, %function
  27              	_trace_init:
  28              	.LFB0:
  29              		.file 1 "../../os/kernel/src/chdebug.c"
  30              		.loc 1 229 0
  31              		.cfi_startproc
  32              		@ args = 0, pretend = 0, frame = 0
  33              		@ frame_needed = 0, uses_anonymous_args = 0
  34              		@ link register save eliminated.
  35              		.loc 1 231 0
  36 0000 034A     		ldr	r2, .L2
  37 0002 1346     		mov	r3, r2
  38 0004 4021     		movs	r1, #64
  39 0006 43F8081B 		str	r1, [r3], #8
  40              		.loc 1 232 0
  41 000a 5360     		str	r3, [r2, #4]
  42 000c 7047     		bx	lr
  43              	.L3:
  44 000e 00BF     		.align	2
  45              	.L2:
  46 0010 00000000 		.word	.LANCHOR0
  47              		.cfi_endproc
  48              	.LFE0:
  49              		.size	_trace_init, .-_trace_init
  50 0014 AFF30080 		.section	.text.dbg_trace,"ax",%progbits
  50      AFF30080 
  50      AFF30080 
  51              		.align	2
  52              		.p2align 4,,15
  53              		.global	dbg_trace
  54              		.thumb
  55              		.thumb_func
ARM GAS  /tmp/cchwWcOn.s 			page 2


  56              		.type	dbg_trace, %function
  57              	dbg_trace:
  58              	.LFB1:
  59              		.loc 1 242 0
  60              		.cfi_startproc
  61              		@ args = 0, pretend = 0, frame = 0
  62              		@ frame_needed = 0, uses_anonymous_args = 0
  63              		@ link register save eliminated.
  64              	.LVL0:
  65              		.loc 1 244 0
  66 0000 0C4A     		ldr	r2, .L8
  67              		.loc 1 245 0
  68 0002 0D49     		ldr	r1, .L8+4
  69              		.loc 1 244 0
  70 0004 5368     		ldr	r3, [r2, #4]
  71              		.loc 1 245 0
  72 0006 8969     		ldr	r1, [r1, #24]
  73              		.loc 1 242 0
  74 0008 10B4     		push	{r4}
  75              		.cfi_def_cfa_offset 4
  76              		.cfi_offset 4, -4
  77              		.loc 1 244 0
  78 000a 0C4C     		ldr	r4, .L8+8
  79 000c E468     		ldr	r4, [r4, #12]
  80 000e 1C60     		str	r4, [r3]
  81              		.loc 1 245 0
  82 0010 5960     		str	r1, [r3, #4]
  83              		.loc 1 246 0
  84 0012 816A     		ldr	r1, [r0, #40]
  85 0014 9960     		str	r1, [r3, #8]
  86              		.loc 1 247 0
  87 0016 90F82010 		ldrb	r1, [r0, #32]	@ zero_extendqisi2
  88 001a 1973     		strb	r1, [r3, #12]
  89              		.loc 1 248 0
  90 001c 1033     		adds	r3, r3, #16
  91 001e 02F58161 		add	r1, r2, #1032
  92 0022 8B42     		cmp	r3, r1
  93              		.loc 1 250 0
  94 0024 28BF     		it	cs
  95 0026 02F10803 		addcs	r3, r2, #8
  96 002a 5360     		str	r3, [r2, #4]
  97              		.loc 1 251 0
  98 002c 5DF8044B 		ldr	r4, [sp], #4
  99 0030 7047     		bx	lr
 100              	.L9:
 101 0032 00BF     		.align	2
 102              	.L8:
 103 0034 00000000 		.word	.LANCHOR0
 104 0038 00000000 		.word	rlist
 105 003c 00000000 		.word	vtlist
 106              		.cfi_endproc
 107              	.LFE1:
 108              		.size	dbg_trace, .-dbg_trace
 109              		.section	.text.chDbgPanic,"ax",%progbits
 110              		.align	2
 111              		.p2align 4,,15
 112              		.global	chDbgPanic
ARM GAS  /tmp/cchwWcOn.s 			page 3


 113              		.thumb
 114              		.thumb_func
 115              		.type	chDbgPanic, %function
 116              	chDbgPanic:
 117              	.LFB2:
 118              		.loc 1 271 0
 119              		.cfi_startproc
 120              		@ args = 0, pretend = 0, frame = 0
 121              		@ frame_needed = 0, uses_anonymous_args = 0
 122              		@ link register save eliminated.
 123              	.LVL1:
 124              		.loc 1 273 0
 125 0000 014B     		ldr	r3, .L11
 126 0002 1860     		str	r0, [r3]
 127              		.loc 1 274 0
 128 0004 FFF7FEBF 		b	port_halt
 129              	.LVL2:
 130              	.L12:
 131              		.align	2
 132              	.L11:
 133 0008 00000000 		.word	.LANCHOR1
 134              		.cfi_endproc
 135              	.LFE2:
 136              		.size	chDbgPanic, .-chDbgPanic
 137              		.global	dbg_panic_msg
 138              		.global	dbg_trace_buffer
 139 000c AFF30080 		.section	.bss.dbg_trace_buffer,"aw",%nobits
 140              		.align	2
 141              		.set	.LANCHOR0,. + 0
 142              		.type	dbg_trace_buffer, %object
 143              		.size	dbg_trace_buffer, 1032
 144              	dbg_trace_buffer:
 145 0000 00000000 		.space	1032
 145      00000000 
 145      00000000 
 145      00000000 
 145      00000000 
 146              		.section	.bss.dbg_panic_msg,"aw",%nobits
 147              		.align	2
 148              		.set	.LANCHOR1,. + 0
 149              		.type	dbg_panic_msg, %object
 150              		.size	dbg_panic_msg, 4
 151              	dbg_panic_msg:
 152 0000 00000000 		.space	4
 153              		.text
 154              	.Letext0:
 155              		.file 2 "/opt/ARM/arm-none-eabi/include/machine/_default_types.h"
 156              		.file 3 "/opt/ARM/arm-none-eabi/include/stdint.h"
 157              		.file 4 "../../os/ports/GCC/ARMCMx/chtypes.h"
 158              		.file 5 "../../os/kernel/include/chlists.h"
 159              		.file 6 "../../os/kernel/include/chthreads.h"
 160              		.file 7 "../../os/ports/GCC/ARMCMx/chcore_v7m.h"
 161              		.file 8 "../../os/kernel/include/chvt.h"
 162              		.file 9 "../../os/kernel/include/chschd.h"
 163              		.file 10 "../../os/kernel/include/chmtx.h"
 164              		.file 11 "../../os/kernel/include/chdebug.h"
 165              		.section	.debug_info,"",%progbits
ARM GAS  /tmp/cchwWcOn.s 			page 4


 166              	.Ldebug_info0:
 167 0000 F9060000 		.4byte	0x6f9
 168 0004 0400     		.2byte	0x4
 169 0006 00000000 		.4byte	.Ldebug_abbrev0
 170 000a 04       		.byte	0x4
 171 000b 01       		.uleb128 0x1
 172 000c 1B030000 		.4byte	.LASF94
 173 0010 01       		.byte	0x1
 174 0011 FD020000 		.4byte	.LASF95
 175 0015 5B000000 		.4byte	.LASF96
 176 0019 00000000 		.4byte	.Ldebug_ranges0+0
 177 001d 00000000 		.4byte	0
 178 0021 00000000 		.4byte	.Ldebug_line0
 179 0025 02       		.uleb128 0x2
 180 0026 04       		.byte	0x4
 181 0027 05       		.byte	0x5
 182 0028 696E7400 		.ascii	"int\000"
 183 002c 03       		.uleb128 0x3
 184 002d 04       		.byte	0x4
 185 002e 07       		.byte	0x7
 186 002f 40010000 		.4byte	.LASF0
 187 0033 03       		.uleb128 0x3
 188 0034 01       		.byte	0x1
 189 0035 06       		.byte	0x6
 190 0036 C0000000 		.4byte	.LASF1
 191 003a 04       		.uleb128 0x4
 192 003b 21000000 		.4byte	.LASF5
 193 003f 02       		.byte	0x2
 194 0040 1C       		.byte	0x1c
 195 0041 45000000 		.4byte	0x45
 196 0045 03       		.uleb128 0x3
 197 0046 01       		.byte	0x1
 198 0047 08       		.byte	0x8
 199 0048 9E020000 		.4byte	.LASF2
 200 004c 03       		.uleb128 0x3
 201 004d 02       		.byte	0x2
 202 004e 05       		.byte	0x5
 203 004f C4020000 		.4byte	.LASF3
 204 0053 03       		.uleb128 0x3
 205 0054 02       		.byte	0x2
 206 0055 07       		.byte	0x7
 207 0056 8F010000 		.4byte	.LASF4
 208 005a 04       		.uleb128 0x4
 209 005b 78040000 		.4byte	.LASF6
 210 005f 02       		.byte	0x2
 211 0060 37       		.byte	0x37
 212 0061 65000000 		.4byte	0x65
 213 0065 03       		.uleb128 0x3
 214 0066 04       		.byte	0x4
 215 0067 05       		.byte	0x5
 216 0068 E6000000 		.4byte	.LASF7
 217 006c 04       		.uleb128 0x4
 218 006d 11010000 		.4byte	.LASF8
 219 0071 02       		.byte	0x2
 220 0072 38       		.byte	0x38
 221 0073 77000000 		.4byte	0x77
 222 0077 03       		.uleb128 0x3
ARM GAS  /tmp/cchwWcOn.s 			page 5


 223 0078 04       		.byte	0x4
 224 0079 07       		.byte	0x7
 225 007a 5F010000 		.4byte	.LASF9
 226 007e 03       		.uleb128 0x3
 227 007f 08       		.byte	0x8
 228 0080 05       		.byte	0x5
 229 0081 B2000000 		.4byte	.LASF10
 230 0085 04       		.uleb128 0x4
 231 0086 53020000 		.4byte	.LASF11
 232 008a 02       		.byte	0x2
 233 008b 4E       		.byte	0x4e
 234 008c 90000000 		.4byte	0x90
 235 0090 03       		.uleb128 0x3
 236 0091 08       		.byte	0x8
 237 0092 07       		.byte	0x7
 238 0093 32000000 		.4byte	.LASF12
 239 0097 04       		.uleb128 0x4
 240 0098 C2040000 		.4byte	.LASF13
 241 009c 03       		.byte	0x3
 242 009d 2A       		.byte	0x2a
 243 009e 3A000000 		.4byte	0x3a
 244 00a2 04       		.uleb128 0x4
 245 00a3 96020000 		.4byte	.LASF14
 246 00a7 03       		.byte	0x3
 247 00a8 41       		.byte	0x41
 248 00a9 5A000000 		.4byte	0x5a
 249 00ad 04       		.uleb128 0x4
 250 00ae 46040000 		.4byte	.LASF15
 251 00b2 03       		.byte	0x3
 252 00b3 42       		.byte	0x42
 253 00b4 6C000000 		.4byte	0x6c
 254 00b8 04       		.uleb128 0x4
 255 00b9 18000000 		.4byte	.LASF16
 256 00bd 03       		.byte	0x3
 257 00be 4E       		.byte	0x4e
 258 00bf 85000000 		.4byte	0x85
 259 00c3 03       		.uleb128 0x3
 260 00c4 01       		.byte	0x1
 261 00c5 02       		.byte	0x2
 262 00c6 90020000 		.4byte	.LASF17
 263 00ca 04       		.uleb128 0x4
 264 00cb BC010000 		.4byte	.LASF18
 265 00cf 04       		.byte	0x4
 266 00d0 2C       		.byte	0x2c
 267 00d1 97000000 		.4byte	0x97
 268 00d5 04       		.uleb128 0x4
 269 00d6 EF000000 		.4byte	.LASF19
 270 00da 04       		.byte	0x4
 271 00db 2D       		.byte	0x2d
 272 00dc 97000000 		.4byte	0x97
 273 00e0 04       		.uleb128 0x4
 274 00e1 6F020000 		.4byte	.LASF20
 275 00e5 04       		.byte	0x4
 276 00e6 2E       		.byte	0x2e
 277 00e7 97000000 		.4byte	0x97
 278 00eb 04       		.uleb128 0x4
 279 00ec DC000000 		.4byte	.LASF21
ARM GAS  /tmp/cchwWcOn.s 			page 6


 280 00f0 04       		.byte	0x4
 281 00f1 2F       		.byte	0x2f
 282 00f2 97000000 		.4byte	0x97
 283 00f6 04       		.uleb128 0x4
 284 00f7 88020000 		.4byte	.LASF22
 285 00fb 04       		.byte	0x4
 286 00fc 30       		.byte	0x30
 287 00fd AD000000 		.4byte	0xad
 288 0101 04       		.uleb128 0x4
 289 0102 AE010000 		.4byte	.LASF23
 290 0106 04       		.byte	0x4
 291 0107 31       		.byte	0x31
 292 0108 A2000000 		.4byte	0xa2
 293 010c 04       		.uleb128 0x4
 294 010d D0010000 		.4byte	.LASF24
 295 0111 04       		.byte	0x4
 296 0112 33       		.byte	0x33
 297 0113 AD000000 		.4byte	0xad
 298 0117 04       		.uleb128 0x4
 299 0118 63040000 		.4byte	.LASF25
 300 011c 04       		.byte	0x4
 301 011d 35       		.byte	0x35
 302 011e AD000000 		.4byte	0xad
 303 0122 04       		.uleb128 0x4
 304 0123 34040000 		.4byte	.LASF26
 305 0127 05       		.byte	0x5
 306 0128 2A       		.byte	0x2a
 307 0129 2D010000 		.4byte	0x12d
 308 012d 05       		.uleb128 0x5
 309 012e 34040000 		.4byte	.LASF26
 310 0132 4C       		.byte	0x4c
 311 0133 06       		.byte	0x6
 312 0134 5E       		.byte	0x5e
 313 0135 36020000 		.4byte	0x236
 314 0139 06       		.uleb128 0x6
 315 013a EE020000 		.4byte	.LASF27
 316 013e 06       		.byte	0x6
 317 013f 5F       		.byte	0x5f
 318 0140 57020000 		.4byte	0x257
 319 0144 00       		.byte	0
 320 0145 06       		.uleb128 0x6
 321 0146 81020000 		.4byte	.LASF28
 322 014a 06       		.byte	0x6
 323 014b 61       		.byte	0x61
 324 014c 57020000 		.4byte	0x257
 325 0150 04       		.byte	0x4
 326 0151 06       		.uleb128 0x6
 327 0152 A5000000 		.4byte	.LASF29
 328 0156 06       		.byte	0x6
 329 0157 63       		.byte	0x63
 330 0158 F6000000 		.4byte	0xf6
 331 015c 08       		.byte	0x8
 332 015d 06       		.uleb128 0x6
 333 015e FC040000 		.4byte	.LASF30
 334 0162 06       		.byte	0x6
 335 0163 64       		.byte	0x64
 336 0164 EC030000 		.4byte	0x3ec
ARM GAS  /tmp/cchwWcOn.s 			page 7


 337 0168 0C       		.byte	0xc
 338 0169 06       		.uleb128 0x6
 339 016a F8000000 		.4byte	.LASF31
 340 016e 06       		.byte	0x6
 341 016f 66       		.byte	0x66
 342 0170 57020000 		.4byte	0x257
 343 0174 10       		.byte	0x10
 344 0175 06       		.uleb128 0x6
 345 0176 26020000 		.4byte	.LASF32
 346 017a 06       		.byte	0x6
 347 017b 67       		.byte	0x67
 348 017c 57020000 		.4byte	0x257
 349 0180 14       		.byte	0x14
 350 0181 06       		.uleb128 0x6
 351 0182 D1040000 		.4byte	.LASF33
 352 0186 06       		.byte	0x6
 353 0187 6E       		.byte	0x6e
 354 0188 A6050000 		.4byte	0x5a6
 355 018c 18       		.byte	0x18
 356 018d 06       		.uleb128 0x6
 357 018e 35010000 		.4byte	.LASF34
 358 0192 06       		.byte	0x6
 359 0193 74       		.byte	0x74
 360 0194 B8050000 		.4byte	0x5b8
 361 0198 1C       		.byte	0x1c
 362 0199 06       		.uleb128 0x6
 363 019a CE020000 		.4byte	.LASF35
 364 019e 06       		.byte	0x6
 365 019f 79       		.byte	0x79
 366 01a0 D5000000 		.4byte	0xd5
 367 01a4 20       		.byte	0x20
 368 01a5 06       		.uleb128 0x6
 369 01a6 F5020000 		.4byte	.LASF36
 370 01aa 06       		.byte	0x6
 371 01ab 7D       		.byte	0x7d
 372 01ac CA000000 		.4byte	0xca
 373 01b0 21       		.byte	0x21
 374 01b1 06       		.uleb128 0x6
 375 01b2 A2040000 		.4byte	.LASF37
 376 01b6 06       		.byte	0x6
 377 01b7 82       		.byte	0x82
 378 01b8 E0000000 		.4byte	0xe0
 379 01bc 22       		.byte	0x22
 380 01bd 06       		.uleb128 0x6
 381 01be D6020000 		.4byte	.LASF38
 382 01c2 06       		.byte	0x6
 383 01c3 88       		.byte	0x88
 384 01c4 EB000000 		.4byte	0xeb
 385 01c8 23       		.byte	0x23
 386 01c9 06       		.uleb128 0x6
 387 01ca 82040000 		.4byte	.LASF39
 388 01ce 06       		.byte	0x6
 389 01cf 8F       		.byte	0x8f
 390 01d0 C3040000 		.4byte	0x4c3
 391 01d4 24       		.byte	0x24
 392 01d5 07       		.uleb128 0x7
 393 01d6 705F7500 		.ascii	"p_u\000"
ARM GAS  /tmp/cchwWcOn.s 			page 8


 394 01da 06       		.byte	0x6
 395 01db B4       		.byte	0xb4
 396 01dc 71050000 		.4byte	0x571
 397 01e0 28       		.byte	0x28
 398 01e1 06       		.uleb128 0x6
 399 01e2 02050000 		.4byte	.LASF40
 400 01e6 06       		.byte	0x6
 401 01e7 B9       		.byte	0xb9
 402 01e8 7D020000 		.4byte	0x27d
 403 01ec 2C       		.byte	0x2c
 404 01ed 06       		.uleb128 0x6
 405 01ee 90040000 		.4byte	.LASF41
 406 01f2 06       		.byte	0x6
 407 01f3 BF       		.byte	0xbf
 408 01f4 5D020000 		.4byte	0x25d
 409 01f8 30       		.byte	0x30
 410 01f9 06       		.uleb128 0x6
 411 01fa 00000000 		.4byte	.LASF42
 412 01fe 06       		.byte	0x6
 413 01ff C3       		.byte	0xc3
 414 0200 01010000 		.4byte	0x101
 415 0204 38       		.byte	0x38
 416 0205 06       		.uleb128 0x6
 417 0206 3B040000 		.4byte	.LASF43
 418 020a 06       		.byte	0x6
 419 020b C9       		.byte	0xc9
 420 020c 0C010000 		.4byte	0x10c
 421 0210 3C       		.byte	0x3c
 422 0211 06       		.uleb128 0x6
 423 0212 BA020000 		.4byte	.LASF44
 424 0216 06       		.byte	0x6
 425 0217 D0       		.byte	0xd0
 426 0218 BE050000 		.4byte	0x5be
 427 021c 40       		.byte	0x40
 428 021d 06       		.uleb128 0x6
 429 021e 6D040000 		.4byte	.LASF45
 430 0222 06       		.byte	0x6
 431 0223 D4       		.byte	0xd4
 432 0224 F6000000 		.4byte	0xf6
 433 0228 44       		.byte	0x44
 434 0229 06       		.uleb128 0x6
 435 022a CC000000 		.4byte	.LASF46
 436 022e 06       		.byte	0x6
 437 022f DA       		.byte	0xda
 438 0230 93020000 		.4byte	0x293
 439 0234 48       		.byte	0x48
 440 0235 00       		.byte	0
 441 0236 08       		.uleb128 0x8
 442 0237 08       		.byte	0x8
 443 0238 05       		.byte	0x5
 444 0239 61       		.byte	0x61
 445 023a 57020000 		.4byte	0x257
 446 023e 06       		.uleb128 0x6
 447 023f EE020000 		.4byte	.LASF27
 448 0243 05       		.byte	0x5
 449 0244 62       		.byte	0x62
 450 0245 57020000 		.4byte	0x257
ARM GAS  /tmp/cchwWcOn.s 			page 9


 451 0249 00       		.byte	0
 452 024a 06       		.uleb128 0x6
 453 024b 81020000 		.4byte	.LASF28
 454 024f 05       		.byte	0x5
 455 0250 64       		.byte	0x64
 456 0251 57020000 		.4byte	0x257
 457 0255 04       		.byte	0x4
 458 0256 00       		.byte	0
 459 0257 09       		.uleb128 0x9
 460 0258 04       		.byte	0x4
 461 0259 22010000 		.4byte	0x122
 462 025d 04       		.uleb128 0x4
 463 025e 34020000 		.4byte	.LASF47
 464 0262 05       		.byte	0x5
 465 0263 66       		.byte	0x66
 466 0264 36020000 		.4byte	0x236
 467 0268 08       		.uleb128 0x8
 468 0269 04       		.byte	0x4
 469 026a 05       		.byte	0x5
 470 026b 6B       		.byte	0x6b
 471 026c 7D020000 		.4byte	0x27d
 472 0270 06       		.uleb128 0x6
 473 0271 EE020000 		.4byte	.LASF27
 474 0275 05       		.byte	0x5
 475 0276 6D       		.byte	0x6d
 476 0277 57020000 		.4byte	0x257
 477 027b 00       		.byte	0
 478 027c 00       		.byte	0
 479 027d 04       		.uleb128 0x4
 480 027e C4010000 		.4byte	.LASF48
 481 0282 05       		.byte	0x5
 482 0283 70       		.byte	0x70
 483 0284 68020000 		.4byte	0x268
 484 0288 04       		.uleb128 0x4
 485 0289 1C010000 		.4byte	.LASF49
 486 028d 07       		.byte	0x7
 487 028e E5       		.byte	0xe5
 488 028f 93020000 		.4byte	0x293
 489 0293 0A       		.uleb128 0xa
 490 0294 04       		.byte	0x4
 491 0295 04       		.uleb128 0x4
 492 0296 E2010000 		.4byte	.LASF50
 493 029a 07       		.byte	0x7
 494 029b EB       		.byte	0xeb
 495 029c B8000000 		.4byte	0xb8
 496 02a0 0B       		.uleb128 0xb
 497 02a1 89040000 		.4byte	.LASF51
 498 02a5 64       		.byte	0x64
 499 02a6 07       		.byte	0x7
 500 02a7 0C01     		.2byte	0x10c
 501 02a9 EC030000 		.4byte	0x3ec
 502 02ad 0C       		.uleb128 0xc
 503 02ae 73313600 		.ascii	"s16\000"
 504 02b2 07       		.byte	0x7
 505 02b3 0E01     		.2byte	0x10e
 506 02b5 88020000 		.4byte	0x288
 507 02b9 00       		.byte	0
ARM GAS  /tmp/cchwWcOn.s 			page 10


 508 02ba 0C       		.uleb128 0xc
 509 02bb 73313700 		.ascii	"s17\000"
 510 02bf 07       		.byte	0x7
 511 02c0 0F01     		.2byte	0x10f
 512 02c2 88020000 		.4byte	0x288
 513 02c6 04       		.byte	0x4
 514 02c7 0C       		.uleb128 0xc
 515 02c8 73313800 		.ascii	"s18\000"
 516 02cc 07       		.byte	0x7
 517 02cd 1001     		.2byte	0x110
 518 02cf 88020000 		.4byte	0x288
 519 02d3 08       		.byte	0x8
 520 02d4 0C       		.uleb128 0xc
 521 02d5 73313900 		.ascii	"s19\000"
 522 02d9 07       		.byte	0x7
 523 02da 1101     		.2byte	0x111
 524 02dc 88020000 		.4byte	0x288
 525 02e0 0C       		.byte	0xc
 526 02e1 0C       		.uleb128 0xc
 527 02e2 73323000 		.ascii	"s20\000"
 528 02e6 07       		.byte	0x7
 529 02e7 1201     		.2byte	0x112
 530 02e9 88020000 		.4byte	0x288
 531 02ed 10       		.byte	0x10
 532 02ee 0C       		.uleb128 0xc
 533 02ef 73323100 		.ascii	"s21\000"
 534 02f3 07       		.byte	0x7
 535 02f4 1301     		.2byte	0x113
 536 02f6 88020000 		.4byte	0x288
 537 02fa 14       		.byte	0x14
 538 02fb 0C       		.uleb128 0xc
 539 02fc 73323200 		.ascii	"s22\000"
 540 0300 07       		.byte	0x7
 541 0301 1401     		.2byte	0x114
 542 0303 88020000 		.4byte	0x288
 543 0307 18       		.byte	0x18
 544 0308 0C       		.uleb128 0xc
 545 0309 73323300 		.ascii	"s23\000"
 546 030d 07       		.byte	0x7
 547 030e 1501     		.2byte	0x115
 548 0310 88020000 		.4byte	0x288
 549 0314 1C       		.byte	0x1c
 550 0315 0C       		.uleb128 0xc
 551 0316 73323400 		.ascii	"s24\000"
 552 031a 07       		.byte	0x7
 553 031b 1601     		.2byte	0x116
 554 031d 88020000 		.4byte	0x288
 555 0321 20       		.byte	0x20
 556 0322 0C       		.uleb128 0xc
 557 0323 73323500 		.ascii	"s25\000"
 558 0327 07       		.byte	0x7
 559 0328 1701     		.2byte	0x117
 560 032a 88020000 		.4byte	0x288
 561 032e 24       		.byte	0x24
 562 032f 0C       		.uleb128 0xc
 563 0330 73323600 		.ascii	"s26\000"
 564 0334 07       		.byte	0x7
ARM GAS  /tmp/cchwWcOn.s 			page 11


 565 0335 1801     		.2byte	0x118
 566 0337 88020000 		.4byte	0x288
 567 033b 28       		.byte	0x28
 568 033c 0C       		.uleb128 0xc
 569 033d 73323700 		.ascii	"s27\000"
 570 0341 07       		.byte	0x7
 571 0342 1901     		.2byte	0x119
 572 0344 88020000 		.4byte	0x288
 573 0348 2C       		.byte	0x2c
 574 0349 0C       		.uleb128 0xc
 575 034a 73323800 		.ascii	"s28\000"
 576 034e 07       		.byte	0x7
 577 034f 1A01     		.2byte	0x11a
 578 0351 88020000 		.4byte	0x288
 579 0355 30       		.byte	0x30
 580 0356 0C       		.uleb128 0xc
 581 0357 73323900 		.ascii	"s29\000"
 582 035b 07       		.byte	0x7
 583 035c 1B01     		.2byte	0x11b
 584 035e 88020000 		.4byte	0x288
 585 0362 34       		.byte	0x34
 586 0363 0C       		.uleb128 0xc
 587 0364 73333000 		.ascii	"s30\000"
 588 0368 07       		.byte	0x7
 589 0369 1C01     		.2byte	0x11c
 590 036b 88020000 		.4byte	0x288
 591 036f 38       		.byte	0x38
 592 0370 0C       		.uleb128 0xc
 593 0371 73333100 		.ascii	"s31\000"
 594 0375 07       		.byte	0x7
 595 0376 1D01     		.2byte	0x11d
 596 0378 88020000 		.4byte	0x288
 597 037c 3C       		.byte	0x3c
 598 037d 0C       		.uleb128 0xc
 599 037e 723400   		.ascii	"r4\000"
 600 0381 07       		.byte	0x7
 601 0382 1F01     		.2byte	0x11f
 602 0384 88020000 		.4byte	0x288
 603 0388 40       		.byte	0x40
 604 0389 0C       		.uleb128 0xc
 605 038a 723500   		.ascii	"r5\000"
 606 038d 07       		.byte	0x7
 607 038e 2001     		.2byte	0x120
 608 0390 88020000 		.4byte	0x288
 609 0394 44       		.byte	0x44
 610 0395 0C       		.uleb128 0xc
 611 0396 723600   		.ascii	"r6\000"
 612 0399 07       		.byte	0x7
 613 039a 2101     		.2byte	0x121
 614 039c 88020000 		.4byte	0x288
 615 03a0 48       		.byte	0x48
 616 03a1 0C       		.uleb128 0xc
 617 03a2 723700   		.ascii	"r7\000"
 618 03a5 07       		.byte	0x7
 619 03a6 2201     		.2byte	0x122
 620 03a8 88020000 		.4byte	0x288
 621 03ac 4C       		.byte	0x4c
ARM GAS  /tmp/cchwWcOn.s 			page 12


 622 03ad 0C       		.uleb128 0xc
 623 03ae 723800   		.ascii	"r8\000"
 624 03b1 07       		.byte	0x7
 625 03b2 2301     		.2byte	0x123
 626 03b4 88020000 		.4byte	0x288
 627 03b8 50       		.byte	0x50
 628 03b9 0C       		.uleb128 0xc
 629 03ba 723900   		.ascii	"r9\000"
 630 03bd 07       		.byte	0x7
 631 03be 2401     		.2byte	0x124
 632 03c0 88020000 		.4byte	0x288
 633 03c4 54       		.byte	0x54
 634 03c5 0C       		.uleb128 0xc
 635 03c6 72313000 		.ascii	"r10\000"
 636 03ca 07       		.byte	0x7
 637 03cb 2501     		.2byte	0x125
 638 03cd 88020000 		.4byte	0x288
 639 03d1 58       		.byte	0x58
 640 03d2 0C       		.uleb128 0xc
 641 03d3 72313100 		.ascii	"r11\000"
 642 03d7 07       		.byte	0x7
 643 03d8 2601     		.2byte	0x126
 644 03da 88020000 		.4byte	0x288
 645 03de 5C       		.byte	0x5c
 646 03df 0C       		.uleb128 0xc
 647 03e0 6C7200   		.ascii	"lr\000"
 648 03e3 07       		.byte	0x7
 649 03e4 2701     		.2byte	0x127
 650 03e6 88020000 		.4byte	0x288
 651 03ea 60       		.byte	0x60
 652 03eb 00       		.byte	0
 653 03ec 0B       		.uleb128 0xb
 654 03ed 87010000 		.4byte	.LASF52
 655 03f1 04       		.byte	0x4
 656 03f2 07       		.byte	0x7
 657 03f3 3101     		.2byte	0x131
 658 03f5 07040000 		.4byte	0x407
 659 03f9 0C       		.uleb128 0xc
 660 03fa 72313300 		.ascii	"r13\000"
 661 03fe 07       		.byte	0x7
 662 03ff 3201     		.2byte	0x132
 663 0401 07040000 		.4byte	0x407
 664 0405 00       		.byte	0
 665 0406 00       		.byte	0
 666 0407 09       		.uleb128 0x9
 667 0408 04       		.byte	0x4
 668 0409 A0020000 		.4byte	0x2a0
 669 040d 03       		.uleb128 0x3
 670 040e 04       		.byte	0x4
 671 040f 07       		.byte	0x7
 672 0410 FC010000 		.4byte	.LASF53
 673 0414 04       		.uleb128 0x4
 674 0415 71010000 		.4byte	.LASF54
 675 0419 08       		.byte	0x8
 676 041a 58       		.byte	0x58
 677 041b 1F040000 		.4byte	0x41f
 678 041f 09       		.uleb128 0x9
ARM GAS  /tmp/cchwWcOn.s 			page 13


 679 0420 04       		.byte	0x4
 680 0421 25040000 		.4byte	0x425
 681 0425 0D       		.uleb128 0xd
 682 0426 30040000 		.4byte	0x430
 683 042a 0E       		.uleb128 0xe
 684 042b 93020000 		.4byte	0x293
 685 042f 00       		.byte	0
 686 0430 04       		.uleb128 0x4
 687 0431 7A010000 		.4byte	.LASF55
 688 0435 08       		.byte	0x8
 689 0436 5D       		.byte	0x5d
 690 0437 3B040000 		.4byte	0x43b
 691 043b 05       		.uleb128 0x5
 692 043c 7A010000 		.4byte	.LASF55
 693 0440 14       		.byte	0x14
 694 0441 08       		.byte	0x8
 695 0442 64       		.byte	0x64
 696 0443 84040000 		.4byte	0x484
 697 0447 06       		.uleb128 0x6
 698 0448 4D010000 		.4byte	.LASF56
 699 044c 08       		.byte	0x8
 700 044d 65       		.byte	0x65
 701 044e 84040000 		.4byte	0x484
 702 0452 00       		.byte	0
 703 0453 06       		.uleb128 0x6
 704 0454 25010000 		.4byte	.LASF57
 705 0458 08       		.byte	0x8
 706 0459 67       		.byte	0x67
 707 045a 84040000 		.4byte	0x484
 708 045e 04       		.byte	0x4
 709 045f 06       		.uleb128 0x6
 710 0460 ED010000 		.4byte	.LASF58
 711 0464 08       		.byte	0x8
 712 0465 69       		.byte	0x69
 713 0466 17010000 		.4byte	0x117
 714 046a 08       		.byte	0x8
 715 046b 06       		.uleb128 0x6
 716 046c 0F020000 		.4byte	.LASF59
 717 0470 08       		.byte	0x8
 718 0471 6A       		.byte	0x6a
 719 0472 14040000 		.4byte	0x414
 720 0476 0C       		.byte	0xc
 721 0477 06       		.uleb128 0x6
 722 0478 9B040000 		.4byte	.LASF60
 723 047c 08       		.byte	0x8
 724 047d 6C       		.byte	0x6c
 725 047e 93020000 		.4byte	0x293
 726 0482 10       		.byte	0x10
 727 0483 00       		.byte	0
 728 0484 09       		.uleb128 0x9
 729 0485 04       		.byte	0x4
 730 0486 30040000 		.4byte	0x430
 731 048a 08       		.uleb128 0x8
 732 048b 10       		.byte	0x10
 733 048c 08       		.byte	0x8
 734 048d 76       		.byte	0x76
 735 048e C3040000 		.4byte	0x4c3
ARM GAS  /tmp/cchwWcOn.s 			page 14


 736 0492 06       		.uleb128 0x6
 737 0493 4D010000 		.4byte	.LASF56
 738 0497 08       		.byte	0x8
 739 0498 77       		.byte	0x77
 740 0499 84040000 		.4byte	0x484
 741 049d 00       		.byte	0
 742 049e 06       		.uleb128 0x6
 743 049f 25010000 		.4byte	.LASF57
 744 04a3 08       		.byte	0x8
 745 04a4 79       		.byte	0x79
 746 04a5 84040000 		.4byte	0x484
 747 04a9 04       		.byte	0x4
 748 04aa 06       		.uleb128 0x6
 749 04ab ED010000 		.4byte	.LASF58
 750 04af 08       		.byte	0x8
 751 04b0 7B       		.byte	0x7b
 752 04b1 17010000 		.4byte	0x117
 753 04b5 08       		.byte	0x8
 754 04b6 06       		.uleb128 0x6
 755 04b7 D8040000 		.4byte	.LASF61
 756 04bb 08       		.byte	0x8
 757 04bc 7C       		.byte	0x7c
 758 04bd C3040000 		.4byte	0x4c3
 759 04c1 0C       		.byte	0xc
 760 04c2 00       		.byte	0
 761 04c3 0F       		.uleb128 0xf
 762 04c4 17010000 		.4byte	0x117
 763 04c8 04       		.uleb128 0x4
 764 04c9 E3040000 		.4byte	.LASF62
 765 04cd 08       		.byte	0x8
 766 04ce 7D       		.byte	0x7d
 767 04cf 8A040000 		.4byte	0x48a
 768 04d3 08       		.uleb128 0x8
 769 04d4 1C       		.byte	0x1c
 770 04d5 09       		.byte	0x9
 771 04d6 5E       		.byte	0x5e
 772 04d7 24050000 		.4byte	0x524
 773 04db 06       		.uleb128 0x6
 774 04dc 4F040000 		.4byte	.LASF63
 775 04e0 09       		.byte	0x9
 776 04e1 5F       		.byte	0x5f
 777 04e2 5D020000 		.4byte	0x25d
 778 04e6 00       		.byte	0
 779 04e7 06       		.uleb128 0x6
 780 04e8 E0020000 		.4byte	.LASF64
 781 04ec 09       		.byte	0x9
 782 04ed 60       		.byte	0x60
 783 04ee F6000000 		.4byte	0xf6
 784 04f2 08       		.byte	0x8
 785 04f3 06       		.uleb128 0x6
 786 04f4 2E020000 		.4byte	.LASF65
 787 04f8 09       		.byte	0x9
 788 04f9 62       		.byte	0x62
 789 04fa EC030000 		.4byte	0x3ec
 790 04fe 0C       		.byte	0xc
 791 04ff 06       		.uleb128 0x6
 792 0500 B4010000 		.4byte	.LASF66
ARM GAS  /tmp/cchwWcOn.s 			page 15


 793 0504 09       		.byte	0x9
 794 0505 65       		.byte	0x65
 795 0506 57020000 		.4byte	0x257
 796 050a 10       		.byte	0x10
 797 050b 06       		.uleb128 0x6
 798 050c 4B020000 		.4byte	.LASF67
 799 0510 09       		.byte	0x9
 800 0511 66       		.byte	0x66
 801 0512 57020000 		.4byte	0x257
 802 0516 14       		.byte	0x14
 803 0517 06       		.uleb128 0x6
 804 0518 41020000 		.4byte	.LASF68
 805 051c 09       		.byte	0x9
 806 051d 69       		.byte	0x69
 807 051e 57020000 		.4byte	0x257
 808 0522 18       		.byte	0x18
 809 0523 00       		.byte	0
 810 0524 04       		.uleb128 0x4
 811 0525 A9040000 		.4byte	.LASF69
 812 0529 09       		.byte	0x9
 813 052a 6B       		.byte	0x6b
 814 052b D3040000 		.4byte	0x4d3
 815 052f 05       		.uleb128 0x5
 816 0530 DC010000 		.4byte	.LASF70
 817 0534 10       		.byte	0x10
 818 0535 0A       		.byte	0xa
 819 0536 2C       		.byte	0x2c
 820 0537 60050000 		.4byte	0x560
 821 053b 06       		.uleb128 0x6
 822 053c D4000000 		.4byte	.LASF71
 823 0540 0A       		.byte	0xa
 824 0541 2D       		.byte	0x2d
 825 0542 5D020000 		.4byte	0x25d
 826 0546 00       		.byte	0
 827 0547 06       		.uleb128 0x6
 828 0548 EA040000 		.4byte	.LASF72
 829 054c 0A       		.byte	0xa
 830 054d 2F       		.byte	0x2f
 831 054e 57020000 		.4byte	0x257
 832 0552 08       		.byte	0x8
 833 0553 06       		.uleb128 0x6
 834 0554 5C040000 		.4byte	.LASF73
 835 0558 0A       		.byte	0xa
 836 0559 31       		.byte	0x31
 837 055a 60050000 		.4byte	0x560
 838 055e 0C       		.byte	0xc
 839 055f 00       		.byte	0
 840 0560 09       		.uleb128 0x9
 841 0561 04       		.byte	0x4
 842 0562 2F050000 		.4byte	0x52f
 843 0566 04       		.uleb128 0x4
 844 0567 DC010000 		.4byte	.LASF70
 845 056b 0A       		.byte	0xa
 846 056c 33       		.byte	0x33
 847 056d 2F050000 		.4byte	0x52f
 848 0571 10       		.uleb128 0x10
 849 0572 04       		.byte	0x4
ARM GAS  /tmp/cchwWcOn.s 			page 16


 850 0573 06       		.byte	0x6
 851 0574 96       		.byte	0x96
 852 0575 A6050000 		.4byte	0x5a6
 853 0579 11       		.uleb128 0x11
 854 057a 11000000 		.4byte	.LASF74
 855 057e 06       		.byte	0x6
 856 057f 9D       		.byte	0x9d
 857 0580 01010000 		.4byte	0x101
 858 0584 11       		.uleb128 0x11
 859 0585 00010000 		.4byte	.LASF75
 860 0589 06       		.byte	0x6
 861 058a A4       		.byte	0xa4
 862 058b 01010000 		.4byte	0x101
 863 058f 11       		.uleb128 0x11
 864 0590 CA040000 		.4byte	.LASF76
 865 0594 06       		.byte	0x6
 866 0595 AB       		.byte	0xab
 867 0596 93020000 		.4byte	0x293
 868 059a 11       		.uleb128 0x11
 869 059b E7020000 		.4byte	.LASF77
 870 059f 06       		.byte	0x6
 871 05a0 B2       		.byte	0xb2
 872 05a1 0C010000 		.4byte	0x10c
 873 05a5 00       		.byte	0
 874 05a6 09       		.uleb128 0x9
 875 05a7 04       		.byte	0x4
 876 05a8 AC050000 		.4byte	0x5ac
 877 05ac 12       		.uleb128 0x12
 878 05ad B1050000 		.4byte	0x5b1
 879 05b1 03       		.uleb128 0x3
 880 05b2 01       		.byte	0x1
 881 05b3 08       		.byte	0x8
 882 05b4 57040000 		.4byte	.LASF78
 883 05b8 09       		.uleb128 0x9
 884 05b9 04       		.byte	0x4
 885 05ba 95020000 		.4byte	0x295
 886 05be 09       		.uleb128 0x9
 887 05bf 04       		.byte	0x4
 888 05c0 66050000 		.4byte	0x566
 889 05c4 08       		.uleb128 0x8
 890 05c5 10       		.byte	0x10
 891 05c6 0B       		.byte	0xb
 892 05c7 71       		.byte	0x71
 893 05c8 FD050000 		.4byte	0x5fd
 894 05cc 06       		.uleb128 0x6
 895 05cd 2D010000 		.4byte	.LASF79
 896 05d1 0B       		.byte	0xb
 897 05d2 72       		.byte	0x72
 898 05d3 17010000 		.4byte	0x117
 899 05d7 00       		.byte	0
 900 05d8 06       		.uleb128 0x6
 901 05d9 AC000000 		.4byte	.LASF80
 902 05dd 0B       		.byte	0xb
 903 05de 73       		.byte	0x73
 904 05df 57020000 		.4byte	0x257
 905 05e3 04       		.byte	0x4
 906 05e4 06       		.uleb128 0x6
ARM GAS  /tmp/cchwWcOn.s 			page 17


 907 05e5 F2040000 		.4byte	.LASF81
 908 05e9 0B       		.byte	0xb
 909 05ea 74       		.byte	0x74
 910 05eb 93020000 		.4byte	0x293
 911 05ef 08       		.byte	0x8
 912 05f0 06       		.uleb128 0x6
 913 05f1 B3040000 		.4byte	.LASF82
 914 05f5 0B       		.byte	0xb
 915 05f6 75       		.byte	0x75
 916 05f7 97000000 		.4byte	0x97
 917 05fb 0C       		.byte	0xc
 918 05fc 00       		.byte	0
 919 05fd 04       		.uleb128 0x4
 920 05fe 17020000 		.4byte	.LASF83
 921 0602 0B       		.byte	0xb
 922 0603 76       		.byte	0x76
 923 0604 C4050000 		.4byte	0x5c4
 924 0608 13       		.uleb128 0x13
 925 0609 0804     		.2byte	0x408
 926 060b 0B       		.byte	0xb
 927 060c 7B       		.byte	0x7b
 928 060d 36060000 		.4byte	0x636
 929 0611 06       		.uleb128 0x6
 930 0612 09010000 		.4byte	.LASF84
 931 0616 0B       		.byte	0xb
 932 0617 7C       		.byte	0x7c
 933 0618 2C000000 		.4byte	0x2c
 934 061c 00       		.byte	0
 935 061d 06       		.uleb128 0x6
 936 061e F5010000 		.4byte	.LASF85
 937 0622 0B       		.byte	0xb
 938 0623 7D       		.byte	0x7d
 939 0624 36060000 		.4byte	0x636
 940 0628 04       		.byte	0x4
 941 0629 06       		.uleb128 0x6
 942 062a 77020000 		.4byte	.LASF86
 943 062e 0B       		.byte	0xb
 944 062f 7F       		.byte	0x7f
 945 0630 3C060000 		.4byte	0x63c
 946 0634 08       		.byte	0x8
 947 0635 00       		.byte	0
 948 0636 09       		.uleb128 0x9
 949 0637 04       		.byte	0x4
 950 0638 FD050000 		.4byte	0x5fd
 951 063c 14       		.uleb128 0x14
 952 063d FD050000 		.4byte	0x5fd
 953 0641 4C060000 		.4byte	0x64c
 954 0645 15       		.uleb128 0x15
 955 0646 0D040000 		.4byte	0x40d
 956 064a 3F       		.byte	0x3f
 957 064b 00       		.byte	0
 958 064c 04       		.uleb128 0x4
 959 064d 49000000 		.4byte	.LASF87
 960 0651 0B       		.byte	0xb
 961 0652 80       		.byte	0x80
 962 0653 08060000 		.4byte	0x608
 963 0657 16       		.uleb128 0x16
ARM GAS  /tmp/cchwWcOn.s 			page 18


 964 0658 A2010000 		.4byte	.LASF97
 965 065c 01       		.byte	0x1
 966 065d E5       		.byte	0xe5
 967 065e 00000000 		.4byte	.LFB0
 968 0662 14000000 		.4byte	.LFE0-.LFB0
 969 0666 01       		.uleb128 0x1
 970 0667 9C       		.byte	0x9c
 971 0668 17       		.uleb128 0x17
 972 0669 55010000 		.4byte	.LASF88
 973 066d 01       		.byte	0x1
 974 066e F2       		.byte	0xf2
 975 066f 00000000 		.4byte	.LFB1
 976 0673 40000000 		.4byte	.LFE1-.LFB1
 977 0677 01       		.uleb128 0x1
 978 0678 9C       		.byte	0x9c
 979 0679 8B060000 		.4byte	0x68b
 980 067d 18       		.uleb128 0x18
 981 067e 6F747000 		.ascii	"otp\000"
 982 0682 01       		.byte	0x1
 983 0683 F2       		.byte	0xf2
 984 0684 57020000 		.4byte	0x257
 985 0688 01       		.uleb128 0x1
 986 0689 50       		.byte	0x50
 987 068a 00       		.byte	0
 988 068b 19       		.uleb128 0x19
 989 068c 06000000 		.4byte	.LASF89
 990 0690 01       		.byte	0x1
 991 0691 0F01     		.2byte	0x10f
 992 0693 00000000 		.4byte	.LFB2
 993 0697 0C000000 		.4byte	.LFE2-.LFB2
 994 069b 01       		.uleb128 0x1
 995 069c 9C       		.byte	0x9c
 996 069d BB060000 		.4byte	0x6bb
 997 06a1 1A       		.uleb128 0x1a
 998 06a2 6D736700 		.ascii	"msg\000"
 999 06a6 01       		.byte	0x1
 1000 06a7 0F01     		.2byte	0x10f
 1001 06a9 A6050000 		.4byte	0x5a6
 1002 06ad 00000000 		.4byte	.LLST0
 1003 06b1 1B       		.uleb128 0x1b
 1004 06b2 08000000 		.4byte	.LVL2
 1005 06b6 F4060000 		.4byte	0x6f4
 1006 06ba 00       		.byte	0
 1007 06bb 1C       		.uleb128 0x1c
 1008 06bc 2B000000 		.4byte	.LASF90
 1009 06c0 08       		.byte	0x8
 1010 06c1 F5       		.byte	0xf5
 1011 06c2 C8040000 		.4byte	0x4c8
 1012 06c6 1C       		.uleb128 0x1c
 1013 06c7 BC040000 		.4byte	.LASF91
 1014 06cb 09       		.byte	0x9
 1015 06cc 6F       		.byte	0x6f
 1016 06cd 24050000 		.4byte	0x524
 1017 06d1 1D       		.uleb128 0x1d
 1018 06d2 5E020000 		.4byte	.LASF92
 1019 06d6 01       		.byte	0x1
 1020 06d7 DF       		.byte	0xdf
ARM GAS  /tmp/cchwWcOn.s 			page 19


 1021 06d8 4C060000 		.4byte	0x64c
 1022 06dc 05       		.uleb128 0x5
 1023 06dd 03       		.byte	0x3
 1024 06de 00000000 		.4byte	dbg_trace_buffer
 1025 06e2 1E       		.uleb128 0x1e
 1026 06e3 AC020000 		.4byte	.LASF93
 1027 06e7 01       		.byte	0x1
 1028 06e8 0801     		.2byte	0x108
 1029 06ea A6050000 		.4byte	0x5a6
 1030 06ee 05       		.uleb128 0x5
 1031 06ef 03       		.byte	0x3
 1032 06f0 00000000 		.4byte	dbg_panic_msg
 1033 06f4 1F       		.uleb128 0x1f
 1034 06f5 05020000 		.4byte	.LASF98
 1035 06f9 07       		.byte	0x7
 1036 06fa 0102     		.2byte	0x201
 1037 06fc 00       		.byte	0
 1038              		.section	.debug_abbrev,"",%progbits
 1039              	.Ldebug_abbrev0:
 1040 0000 01       		.uleb128 0x1
 1041 0001 11       		.uleb128 0x11
 1042 0002 01       		.byte	0x1
 1043 0003 25       		.uleb128 0x25
 1044 0004 0E       		.uleb128 0xe
 1045 0005 13       		.uleb128 0x13
 1046 0006 0B       		.uleb128 0xb
 1047 0007 03       		.uleb128 0x3
 1048 0008 0E       		.uleb128 0xe
 1049 0009 1B       		.uleb128 0x1b
 1050 000a 0E       		.uleb128 0xe
 1051 000b 55       		.uleb128 0x55
 1052 000c 17       		.uleb128 0x17
 1053 000d 11       		.uleb128 0x11
 1054 000e 01       		.uleb128 0x1
 1055 000f 10       		.uleb128 0x10
 1056 0010 17       		.uleb128 0x17
 1057 0011 00       		.byte	0
 1058 0012 00       		.byte	0
 1059 0013 02       		.uleb128 0x2
 1060 0014 24       		.uleb128 0x24
 1061 0015 00       		.byte	0
 1062 0016 0B       		.uleb128 0xb
 1063 0017 0B       		.uleb128 0xb
 1064 0018 3E       		.uleb128 0x3e
 1065 0019 0B       		.uleb128 0xb
 1066 001a 03       		.uleb128 0x3
 1067 001b 08       		.uleb128 0x8
 1068 001c 00       		.byte	0
 1069 001d 00       		.byte	0
 1070 001e 03       		.uleb128 0x3
 1071 001f 24       		.uleb128 0x24
 1072 0020 00       		.byte	0
 1073 0021 0B       		.uleb128 0xb
 1074 0022 0B       		.uleb128 0xb
 1075 0023 3E       		.uleb128 0x3e
 1076 0024 0B       		.uleb128 0xb
 1077 0025 03       		.uleb128 0x3
ARM GAS  /tmp/cchwWcOn.s 			page 20


 1078 0026 0E       		.uleb128 0xe
 1079 0027 00       		.byte	0
 1080 0028 00       		.byte	0
 1081 0029 04       		.uleb128 0x4
 1082 002a 16       		.uleb128 0x16
 1083 002b 00       		.byte	0
 1084 002c 03       		.uleb128 0x3
 1085 002d 0E       		.uleb128 0xe
 1086 002e 3A       		.uleb128 0x3a
 1087 002f 0B       		.uleb128 0xb
 1088 0030 3B       		.uleb128 0x3b
 1089 0031 0B       		.uleb128 0xb
 1090 0032 49       		.uleb128 0x49
 1091 0033 13       		.uleb128 0x13
 1092 0034 00       		.byte	0
 1093 0035 00       		.byte	0
 1094 0036 05       		.uleb128 0x5
 1095 0037 13       		.uleb128 0x13
 1096 0038 01       		.byte	0x1
 1097 0039 03       		.uleb128 0x3
 1098 003a 0E       		.uleb128 0xe
 1099 003b 0B       		.uleb128 0xb
 1100 003c 0B       		.uleb128 0xb
 1101 003d 3A       		.uleb128 0x3a
 1102 003e 0B       		.uleb128 0xb
 1103 003f 3B       		.uleb128 0x3b
 1104 0040 0B       		.uleb128 0xb
 1105 0041 01       		.uleb128 0x1
 1106 0042 13       		.uleb128 0x13
 1107 0043 00       		.byte	0
 1108 0044 00       		.byte	0
 1109 0045 06       		.uleb128 0x6
 1110 0046 0D       		.uleb128 0xd
 1111 0047 00       		.byte	0
 1112 0048 03       		.uleb128 0x3
 1113 0049 0E       		.uleb128 0xe
 1114 004a 3A       		.uleb128 0x3a
 1115 004b 0B       		.uleb128 0xb
 1116 004c 3B       		.uleb128 0x3b
 1117 004d 0B       		.uleb128 0xb
 1118 004e 49       		.uleb128 0x49
 1119 004f 13       		.uleb128 0x13
 1120 0050 38       		.uleb128 0x38
 1121 0051 0B       		.uleb128 0xb
 1122 0052 00       		.byte	0
 1123 0053 00       		.byte	0
 1124 0054 07       		.uleb128 0x7
 1125 0055 0D       		.uleb128 0xd
 1126 0056 00       		.byte	0
 1127 0057 03       		.uleb128 0x3
 1128 0058 08       		.uleb128 0x8
 1129 0059 3A       		.uleb128 0x3a
 1130 005a 0B       		.uleb128 0xb
 1131 005b 3B       		.uleb128 0x3b
 1132 005c 0B       		.uleb128 0xb
 1133 005d 49       		.uleb128 0x49
 1134 005e 13       		.uleb128 0x13
ARM GAS  /tmp/cchwWcOn.s 			page 21


 1135 005f 38       		.uleb128 0x38
 1136 0060 0B       		.uleb128 0xb
 1137 0061 00       		.byte	0
 1138 0062 00       		.byte	0
 1139 0063 08       		.uleb128 0x8
 1140 0064 13       		.uleb128 0x13
 1141 0065 01       		.byte	0x1
 1142 0066 0B       		.uleb128 0xb
 1143 0067 0B       		.uleb128 0xb
 1144 0068 3A       		.uleb128 0x3a
 1145 0069 0B       		.uleb128 0xb
 1146 006a 3B       		.uleb128 0x3b
 1147 006b 0B       		.uleb128 0xb
 1148 006c 01       		.uleb128 0x1
 1149 006d 13       		.uleb128 0x13
 1150 006e 00       		.byte	0
 1151 006f 00       		.byte	0
 1152 0070 09       		.uleb128 0x9
 1153 0071 0F       		.uleb128 0xf
 1154 0072 00       		.byte	0
 1155 0073 0B       		.uleb128 0xb
 1156 0074 0B       		.uleb128 0xb
 1157 0075 49       		.uleb128 0x49
 1158 0076 13       		.uleb128 0x13
 1159 0077 00       		.byte	0
 1160 0078 00       		.byte	0
 1161 0079 0A       		.uleb128 0xa
 1162 007a 0F       		.uleb128 0xf
 1163 007b 00       		.byte	0
 1164 007c 0B       		.uleb128 0xb
 1165 007d 0B       		.uleb128 0xb
 1166 007e 00       		.byte	0
 1167 007f 00       		.byte	0
 1168 0080 0B       		.uleb128 0xb
 1169 0081 13       		.uleb128 0x13
 1170 0082 01       		.byte	0x1
 1171 0083 03       		.uleb128 0x3
 1172 0084 0E       		.uleb128 0xe
 1173 0085 0B       		.uleb128 0xb
 1174 0086 0B       		.uleb128 0xb
 1175 0087 3A       		.uleb128 0x3a
 1176 0088 0B       		.uleb128 0xb
 1177 0089 3B       		.uleb128 0x3b
 1178 008a 05       		.uleb128 0x5
 1179 008b 01       		.uleb128 0x1
 1180 008c 13       		.uleb128 0x13
 1181 008d 00       		.byte	0
 1182 008e 00       		.byte	0
 1183 008f 0C       		.uleb128 0xc
 1184 0090 0D       		.uleb128 0xd
 1185 0091 00       		.byte	0
 1186 0092 03       		.uleb128 0x3
 1187 0093 08       		.uleb128 0x8
 1188 0094 3A       		.uleb128 0x3a
 1189 0095 0B       		.uleb128 0xb
 1190 0096 3B       		.uleb128 0x3b
 1191 0097 05       		.uleb128 0x5
ARM GAS  /tmp/cchwWcOn.s 			page 22


 1192 0098 49       		.uleb128 0x49
 1193 0099 13       		.uleb128 0x13
 1194 009a 38       		.uleb128 0x38
 1195 009b 0B       		.uleb128 0xb
 1196 009c 00       		.byte	0
 1197 009d 00       		.byte	0
 1198 009e 0D       		.uleb128 0xd
 1199 009f 15       		.uleb128 0x15
 1200 00a0 01       		.byte	0x1
 1201 00a1 27       		.uleb128 0x27
 1202 00a2 19       		.uleb128 0x19
 1203 00a3 01       		.uleb128 0x1
 1204 00a4 13       		.uleb128 0x13
 1205 00a5 00       		.byte	0
 1206 00a6 00       		.byte	0
 1207 00a7 0E       		.uleb128 0xe
 1208 00a8 05       		.uleb128 0x5
 1209 00a9 00       		.byte	0
 1210 00aa 49       		.uleb128 0x49
 1211 00ab 13       		.uleb128 0x13
 1212 00ac 00       		.byte	0
 1213 00ad 00       		.byte	0
 1214 00ae 0F       		.uleb128 0xf
 1215 00af 35       		.uleb128 0x35
 1216 00b0 00       		.byte	0
 1217 00b1 49       		.uleb128 0x49
 1218 00b2 13       		.uleb128 0x13
 1219 00b3 00       		.byte	0
 1220 00b4 00       		.byte	0
 1221 00b5 10       		.uleb128 0x10
 1222 00b6 17       		.uleb128 0x17
 1223 00b7 01       		.byte	0x1
 1224 00b8 0B       		.uleb128 0xb
 1225 00b9 0B       		.uleb128 0xb
 1226 00ba 3A       		.uleb128 0x3a
 1227 00bb 0B       		.uleb128 0xb
 1228 00bc 3B       		.uleb128 0x3b
 1229 00bd 0B       		.uleb128 0xb
 1230 00be 01       		.uleb128 0x1
 1231 00bf 13       		.uleb128 0x13
 1232 00c0 00       		.byte	0
 1233 00c1 00       		.byte	0
 1234 00c2 11       		.uleb128 0x11
 1235 00c3 0D       		.uleb128 0xd
 1236 00c4 00       		.byte	0
 1237 00c5 03       		.uleb128 0x3
 1238 00c6 0E       		.uleb128 0xe
 1239 00c7 3A       		.uleb128 0x3a
 1240 00c8 0B       		.uleb128 0xb
 1241 00c9 3B       		.uleb128 0x3b
 1242 00ca 0B       		.uleb128 0xb
 1243 00cb 49       		.uleb128 0x49
 1244 00cc 13       		.uleb128 0x13
 1245 00cd 00       		.byte	0
 1246 00ce 00       		.byte	0
 1247 00cf 12       		.uleb128 0x12
 1248 00d0 26       		.uleb128 0x26
ARM GAS  /tmp/cchwWcOn.s 			page 23


 1249 00d1 00       		.byte	0
 1250 00d2 49       		.uleb128 0x49
 1251 00d3 13       		.uleb128 0x13
 1252 00d4 00       		.byte	0
 1253 00d5 00       		.byte	0
 1254 00d6 13       		.uleb128 0x13
 1255 00d7 13       		.uleb128 0x13
 1256 00d8 01       		.byte	0x1
 1257 00d9 0B       		.uleb128 0xb
 1258 00da 05       		.uleb128 0x5
 1259 00db 3A       		.uleb128 0x3a
 1260 00dc 0B       		.uleb128 0xb
 1261 00dd 3B       		.uleb128 0x3b
 1262 00de 0B       		.uleb128 0xb
 1263 00df 01       		.uleb128 0x1
 1264 00e0 13       		.uleb128 0x13
 1265 00e1 00       		.byte	0
 1266 00e2 00       		.byte	0
 1267 00e3 14       		.uleb128 0x14
 1268 00e4 01       		.uleb128 0x1
 1269 00e5 01       		.byte	0x1
 1270 00e6 49       		.uleb128 0x49
 1271 00e7 13       		.uleb128 0x13
 1272 00e8 01       		.uleb128 0x1
 1273 00e9 13       		.uleb128 0x13
 1274 00ea 00       		.byte	0
 1275 00eb 00       		.byte	0
 1276 00ec 15       		.uleb128 0x15
 1277 00ed 21       		.uleb128 0x21
 1278 00ee 00       		.byte	0
 1279 00ef 49       		.uleb128 0x49
 1280 00f0 13       		.uleb128 0x13
 1281 00f1 2F       		.uleb128 0x2f
 1282 00f2 0B       		.uleb128 0xb
 1283 00f3 00       		.byte	0
 1284 00f4 00       		.byte	0
 1285 00f5 16       		.uleb128 0x16
 1286 00f6 2E       		.uleb128 0x2e
 1287 00f7 00       		.byte	0
 1288 00f8 3F       		.uleb128 0x3f
 1289 00f9 19       		.uleb128 0x19
 1290 00fa 03       		.uleb128 0x3
 1291 00fb 0E       		.uleb128 0xe
 1292 00fc 3A       		.uleb128 0x3a
 1293 00fd 0B       		.uleb128 0xb
 1294 00fe 3B       		.uleb128 0x3b
 1295 00ff 0B       		.uleb128 0xb
 1296 0100 27       		.uleb128 0x27
 1297 0101 19       		.uleb128 0x19
 1298 0102 11       		.uleb128 0x11
 1299 0103 01       		.uleb128 0x1
 1300 0104 12       		.uleb128 0x12
 1301 0105 06       		.uleb128 0x6
 1302 0106 40       		.uleb128 0x40
 1303 0107 18       		.uleb128 0x18
 1304 0108 9742     		.uleb128 0x2117
 1305 010a 19       		.uleb128 0x19
ARM GAS  /tmp/cchwWcOn.s 			page 24


 1306 010b 00       		.byte	0
 1307 010c 00       		.byte	0
 1308 010d 17       		.uleb128 0x17
 1309 010e 2E       		.uleb128 0x2e
 1310 010f 01       		.byte	0x1
 1311 0110 3F       		.uleb128 0x3f
 1312 0111 19       		.uleb128 0x19
 1313 0112 03       		.uleb128 0x3
 1314 0113 0E       		.uleb128 0xe
 1315 0114 3A       		.uleb128 0x3a
 1316 0115 0B       		.uleb128 0xb
 1317 0116 3B       		.uleb128 0x3b
 1318 0117 0B       		.uleb128 0xb
 1319 0118 27       		.uleb128 0x27
 1320 0119 19       		.uleb128 0x19
 1321 011a 11       		.uleb128 0x11
 1322 011b 01       		.uleb128 0x1
 1323 011c 12       		.uleb128 0x12
 1324 011d 06       		.uleb128 0x6
 1325 011e 40       		.uleb128 0x40
 1326 011f 18       		.uleb128 0x18
 1327 0120 9742     		.uleb128 0x2117
 1328 0122 19       		.uleb128 0x19
 1329 0123 01       		.uleb128 0x1
 1330 0124 13       		.uleb128 0x13
 1331 0125 00       		.byte	0
 1332 0126 00       		.byte	0
 1333 0127 18       		.uleb128 0x18
 1334 0128 05       		.uleb128 0x5
 1335 0129 00       		.byte	0
 1336 012a 03       		.uleb128 0x3
 1337 012b 08       		.uleb128 0x8
 1338 012c 3A       		.uleb128 0x3a
 1339 012d 0B       		.uleb128 0xb
 1340 012e 3B       		.uleb128 0x3b
 1341 012f 0B       		.uleb128 0xb
 1342 0130 49       		.uleb128 0x49
 1343 0131 13       		.uleb128 0x13
 1344 0132 02       		.uleb128 0x2
 1345 0133 18       		.uleb128 0x18
 1346 0134 00       		.byte	0
 1347 0135 00       		.byte	0
 1348 0136 19       		.uleb128 0x19
 1349 0137 2E       		.uleb128 0x2e
 1350 0138 01       		.byte	0x1
 1351 0139 3F       		.uleb128 0x3f
 1352 013a 19       		.uleb128 0x19
 1353 013b 03       		.uleb128 0x3
 1354 013c 0E       		.uleb128 0xe
 1355 013d 3A       		.uleb128 0x3a
 1356 013e 0B       		.uleb128 0xb
 1357 013f 3B       		.uleb128 0x3b
 1358 0140 05       		.uleb128 0x5
 1359 0141 27       		.uleb128 0x27
 1360 0142 19       		.uleb128 0x19
 1361 0143 11       		.uleb128 0x11
 1362 0144 01       		.uleb128 0x1
ARM GAS  /tmp/cchwWcOn.s 			page 25


 1363 0145 12       		.uleb128 0x12
 1364 0146 06       		.uleb128 0x6
 1365 0147 40       		.uleb128 0x40
 1366 0148 18       		.uleb128 0x18
 1367 0149 9742     		.uleb128 0x2117
 1368 014b 19       		.uleb128 0x19
 1369 014c 01       		.uleb128 0x1
 1370 014d 13       		.uleb128 0x13
 1371 014e 00       		.byte	0
 1372 014f 00       		.byte	0
 1373 0150 1A       		.uleb128 0x1a
 1374 0151 05       		.uleb128 0x5
 1375 0152 00       		.byte	0
 1376 0153 03       		.uleb128 0x3
 1377 0154 08       		.uleb128 0x8
 1378 0155 3A       		.uleb128 0x3a
 1379 0156 0B       		.uleb128 0xb
 1380 0157 3B       		.uleb128 0x3b
 1381 0158 05       		.uleb128 0x5
 1382 0159 49       		.uleb128 0x49
 1383 015a 13       		.uleb128 0x13
 1384 015b 02       		.uleb128 0x2
 1385 015c 17       		.uleb128 0x17
 1386 015d 00       		.byte	0
 1387 015e 00       		.byte	0
 1388 015f 1B       		.uleb128 0x1b
 1389 0160 898201   		.uleb128 0x4109
 1390 0163 00       		.byte	0
 1391 0164 11       		.uleb128 0x11
 1392 0165 01       		.uleb128 0x1
 1393 0166 9542     		.uleb128 0x2115
 1394 0168 19       		.uleb128 0x19
 1395 0169 31       		.uleb128 0x31
 1396 016a 13       		.uleb128 0x13
 1397 016b 00       		.byte	0
 1398 016c 00       		.byte	0
 1399 016d 1C       		.uleb128 0x1c
 1400 016e 34       		.uleb128 0x34
 1401 016f 00       		.byte	0
 1402 0170 03       		.uleb128 0x3
 1403 0171 0E       		.uleb128 0xe
 1404 0172 3A       		.uleb128 0x3a
 1405 0173 0B       		.uleb128 0xb
 1406 0174 3B       		.uleb128 0x3b
 1407 0175 0B       		.uleb128 0xb
 1408 0176 49       		.uleb128 0x49
 1409 0177 13       		.uleb128 0x13
 1410 0178 3F       		.uleb128 0x3f
 1411 0179 19       		.uleb128 0x19
 1412 017a 3C       		.uleb128 0x3c
 1413 017b 19       		.uleb128 0x19
 1414 017c 00       		.byte	0
 1415 017d 00       		.byte	0
 1416 017e 1D       		.uleb128 0x1d
 1417 017f 34       		.uleb128 0x34
 1418 0180 00       		.byte	0
 1419 0181 03       		.uleb128 0x3
ARM GAS  /tmp/cchwWcOn.s 			page 26


 1420 0182 0E       		.uleb128 0xe
 1421 0183 3A       		.uleb128 0x3a
 1422 0184 0B       		.uleb128 0xb
 1423 0185 3B       		.uleb128 0x3b
 1424 0186 0B       		.uleb128 0xb
 1425 0187 49       		.uleb128 0x49
 1426 0188 13       		.uleb128 0x13
 1427 0189 3F       		.uleb128 0x3f
 1428 018a 19       		.uleb128 0x19
 1429 018b 02       		.uleb128 0x2
 1430 018c 18       		.uleb128 0x18
 1431 018d 00       		.byte	0
 1432 018e 00       		.byte	0
 1433 018f 1E       		.uleb128 0x1e
 1434 0190 34       		.uleb128 0x34
 1435 0191 00       		.byte	0
 1436 0192 03       		.uleb128 0x3
 1437 0193 0E       		.uleb128 0xe
 1438 0194 3A       		.uleb128 0x3a
 1439 0195 0B       		.uleb128 0xb
 1440 0196 3B       		.uleb128 0x3b
 1441 0197 05       		.uleb128 0x5
 1442 0198 49       		.uleb128 0x49
 1443 0199 13       		.uleb128 0x13
 1444 019a 3F       		.uleb128 0x3f
 1445 019b 19       		.uleb128 0x19
 1446 019c 02       		.uleb128 0x2
 1447 019d 18       		.uleb128 0x18
 1448 019e 00       		.byte	0
 1449 019f 00       		.byte	0
 1450 01a0 1F       		.uleb128 0x1f
 1451 01a1 2E       		.uleb128 0x2e
 1452 01a2 00       		.byte	0
 1453 01a3 3F       		.uleb128 0x3f
 1454 01a4 19       		.uleb128 0x19
 1455 01a5 03       		.uleb128 0x3
 1456 01a6 0E       		.uleb128 0xe
 1457 01a7 3A       		.uleb128 0x3a
 1458 01a8 0B       		.uleb128 0xb
 1459 01a9 3B       		.uleb128 0x3b
 1460 01aa 05       		.uleb128 0x5
 1461 01ab 27       		.uleb128 0x27
 1462 01ac 19       		.uleb128 0x19
 1463 01ad 3C       		.uleb128 0x3c
 1464 01ae 19       		.uleb128 0x19
 1465 01af 00       		.byte	0
 1466 01b0 00       		.byte	0
 1467 01b1 00       		.byte	0
 1468              		.section	.debug_loc,"",%progbits
 1469              	.Ldebug_loc0:
 1470              	.LLST0:
 1471 0000 00000000 		.4byte	.LVL1
 1472 0004 07000000 		.4byte	.LVL2-1
 1473 0008 0100     		.2byte	0x1
 1474 000a 50       		.byte	0x50
 1475 000b 07000000 		.4byte	.LVL2-1
 1476 000f 0C000000 		.4byte	.LFE2
ARM GAS  /tmp/cchwWcOn.s 			page 27


 1477 0013 0400     		.2byte	0x4
 1478 0015 F3       		.byte	0xf3
 1479 0016 01       		.uleb128 0x1
 1480 0017 50       		.byte	0x50
 1481 0018 9F       		.byte	0x9f
 1482 0019 00000000 		.4byte	0
 1483 001d 00000000 		.4byte	0
 1484              		.section	.debug_aranges,"",%progbits
 1485 0000 2C000000 		.4byte	0x2c
 1486 0004 0200     		.2byte	0x2
 1487 0006 00000000 		.4byte	.Ldebug_info0
 1488 000a 04       		.byte	0x4
 1489 000b 00       		.byte	0
 1490 000c 0000     		.2byte	0
 1491 000e 0000     		.2byte	0
 1492 0010 00000000 		.4byte	.LFB0
 1493 0014 14000000 		.4byte	.LFE0-.LFB0
 1494 0018 00000000 		.4byte	.LFB1
 1495 001c 40000000 		.4byte	.LFE1-.LFB1
 1496 0020 00000000 		.4byte	.LFB2
 1497 0024 0C000000 		.4byte	.LFE2-.LFB2
 1498 0028 00000000 		.4byte	0
 1499 002c 00000000 		.4byte	0
 1500              		.section	.debug_ranges,"",%progbits
 1501              	.Ldebug_ranges0:
 1502 0000 00000000 		.4byte	.LFB0
 1503 0004 14000000 		.4byte	.LFE0
 1504 0008 00000000 		.4byte	.LFB1
 1505 000c 40000000 		.4byte	.LFE1
 1506 0010 00000000 		.4byte	.LFB2
 1507 0014 0C000000 		.4byte	.LFE2
 1508 0018 00000000 		.4byte	0
 1509 001c 00000000 		.4byte	0
 1510              		.section	.debug_line,"",%progbits
 1511              	.Ldebug_line0:
 1512 0000 79010000 		.section	.debug_str,"MS",%progbits,1
 1512      02003301 
 1512      00000201 
 1512      FB0E0D00 
 1512      01010101 
 1513              	.LASF42:
 1514 0000 705F6D73 		.ascii	"p_msg\000"
 1514      6700
 1515              	.LASF89:
 1516 0006 63684462 		.ascii	"chDbgPanic\000"
 1516      6750616E 
 1516      696300
 1517              	.LASF74:
 1518 0011 7264796D 		.ascii	"rdymsg\000"
 1518      736700
 1519              	.LASF16:
 1520 0018 75696E74 		.ascii	"uint64_t\000"
 1520      36345F74 
 1520      00
 1521              	.LASF5:
 1522 0021 5F5F7569 		.ascii	"__uint8_t\000"
 1522      6E74385F 
ARM GAS  /tmp/cchwWcOn.s 			page 28


 1522      7400
 1523              	.LASF90:
 1524 002b 76746C69 		.ascii	"vtlist\000"
 1524      737400
 1525              	.LASF12:
 1526 0032 6C6F6E67 		.ascii	"long long unsigned int\000"
 1526      206C6F6E 
 1526      6720756E 
 1526      7369676E 
 1526      65642069 
 1527              	.LASF87:
 1528 0049 63685F74 		.ascii	"ch_trace_buffer_t\000"
 1528      72616365 
 1528      5F627566 
 1528      6665725F 
 1528      7400
 1529              	.LASF96:
 1530 005b 2F686F6D 		.ascii	"/home/makkmarci/devel/ChibiOS_2.6.5/projects/STM32F"
 1530      652F6D61 
 1530      6B6B6D61 
 1530      7263692F 
 1530      64657665 
 1531 008e 345F4368 		.ascii	"4_ChibiOS_uGFX_gwin_2/\000"
 1531      6962694F 
 1531      535F7547 
 1531      46585F67 
 1531      77696E5F 
 1532              	.LASF29:
 1533 00a5 705F7072 		.ascii	"p_prio\000"
 1533      696F00
 1534              	.LASF80:
 1535 00ac 73655F74 		.ascii	"se_tp\000"
 1535      7000
 1536              	.LASF10:
 1537 00b2 6C6F6E67 		.ascii	"long long int\000"
 1537      206C6F6E 
 1537      6720696E 
 1537      7400
 1538              	.LASF1:
 1539 00c0 7369676E 		.ascii	"signed char\000"
 1539      65642063 
 1539      68617200 
 1540              	.LASF46:
 1541 00cc 705F6D70 		.ascii	"p_mpool\000"
 1541      6F6F6C00 
 1542              	.LASF71:
 1543 00d4 6D5F7175 		.ascii	"m_queue\000"
 1543      65756500 
 1544              	.LASF21:
 1545 00dc 74736C69 		.ascii	"tslices_t\000"
 1545      6365735F 
 1545      7400
 1546              	.LASF7:
 1547 00e6 6C6F6E67 		.ascii	"long int\000"
 1547      20696E74 
 1547      00
 1548              	.LASF19:
ARM GAS  /tmp/cchwWcOn.s 			page 29


 1549 00ef 74737461 		.ascii	"tstate_t\000"
 1549      74655F74 
 1549      00
 1550              	.LASF31:
 1551 00f8 705F6E65 		.ascii	"p_newer\000"
 1551      77657200 
 1552              	.LASF75:
 1553 0100 65786974 		.ascii	"exitcode\000"
 1553      636F6465 
 1553      00
 1554              	.LASF84:
 1555 0109 74625F73 		.ascii	"tb_size\000"
 1555      697A6500 
 1556              	.LASF8:
 1557 0111 5F5F7569 		.ascii	"__uint32_t\000"
 1557      6E743332 
 1557      5F7400
 1558              	.LASF49:
 1559 011c 72656761 		.ascii	"regarm_t\000"
 1559      726D5F74 
 1559      00
 1560              	.LASF57:
 1561 0125 76745F70 		.ascii	"vt_prev\000"
 1561      72657600 
 1562              	.LASF79:
 1563 012d 73655F74 		.ascii	"se_time\000"
 1563      696D6500 
 1564              	.LASF34:
 1565 0135 705F7374 		.ascii	"p_stklimit\000"
 1565      6B6C696D 
 1565      697400
 1566              	.LASF0:
 1567 0140 756E7369 		.ascii	"unsigned int\000"
 1567      676E6564 
 1567      20696E74 
 1567      00
 1568              	.LASF56:
 1569 014d 76745F6E 		.ascii	"vt_next\000"
 1569      65787400 
 1570              	.LASF88:
 1571 0155 6462675F 		.ascii	"dbg_trace\000"
 1571      74726163 
 1571      6500
 1572              	.LASF9:
 1573 015f 6C6F6E67 		.ascii	"long unsigned int\000"
 1573      20756E73 
 1573      69676E65 
 1573      6420696E 
 1573      7400
 1574              	.LASF54:
 1575 0171 76746675 		.ascii	"vtfunc_t\000"
 1575      6E635F74 
 1575      00
 1576              	.LASF55:
 1577 017a 56697274 		.ascii	"VirtualTimer\000"
 1577      75616C54 
 1577      696D6572 
ARM GAS  /tmp/cchwWcOn.s 			page 30


 1577      00
 1578              	.LASF52:
 1579 0187 636F6E74 		.ascii	"context\000"
 1579      65787400 
 1580              	.LASF4:
 1581 018f 73686F72 		.ascii	"short unsigned int\000"
 1581      7420756E 
 1581      7369676E 
 1581      65642069 
 1581      6E7400
 1582              	.LASF97:
 1583 01a2 5F747261 		.ascii	"_trace_init\000"
 1583      63655F69 
 1583      6E697400 
 1584              	.LASF23:
 1585 01ae 6D73675F 		.ascii	"msg_t\000"
 1585      7400
 1586              	.LASF66:
 1587 01b4 725F6E65 		.ascii	"r_newer\000"
 1587      77657200 
 1588              	.LASF18:
 1589 01bc 746D6F64 		.ascii	"tmode_t\000"
 1589      655F7400 
 1590              	.LASF48:
 1591 01c4 54687265 		.ascii	"ThreadsList\000"
 1591      6164734C 
 1591      69737400 
 1592              	.LASF24:
 1593 01d0 6576656E 		.ascii	"eventmask_t\000"
 1593      746D6173 
 1593      6B5F7400 
 1594              	.LASF70:
 1595 01dc 4D757465 		.ascii	"Mutex\000"
 1595      7800
 1596              	.LASF50:
 1597 01e2 73746B61 		.ascii	"stkalign_t\000"
 1597      6C69676E 
 1597      5F7400
 1598              	.LASF58:
 1599 01ed 76745F74 		.ascii	"vt_time\000"
 1599      696D6500 
 1600              	.LASF85:
 1601 01f5 74625F70 		.ascii	"tb_ptr\000"
 1601      747200
 1602              	.LASF53:
 1603 01fc 73697A65 		.ascii	"sizetype\000"
 1603      74797065 
 1603      00
 1604              	.LASF98:
 1605 0205 706F7274 		.ascii	"port_halt\000"
 1605      5F68616C 
 1605      7400
 1606              	.LASF59:
 1607 020f 76745F66 		.ascii	"vt_func\000"
 1607      756E6300 
 1608              	.LASF83:
 1609 0217 63685F73 		.ascii	"ch_swc_event_t\000"
ARM GAS  /tmp/cchwWcOn.s 			page 31


 1609      77635F65 
 1609      76656E74 
 1609      5F7400
 1610              	.LASF32:
 1611 0226 705F6F6C 		.ascii	"p_older\000"
 1611      64657200 
 1612              	.LASF65:
 1613 022e 725F6374 		.ascii	"r_ctx\000"
 1613      7800
 1614              	.LASF47:
 1615 0234 54687265 		.ascii	"ThreadsQueue\000"
 1615      61647351 
 1615      75657565 
 1615      00
 1616              	.LASF68:
 1617 0241 725F6375 		.ascii	"r_current\000"
 1617      7272656E 
 1617      7400
 1618              	.LASF67:
 1619 024b 725F6F6C 		.ascii	"r_older\000"
 1619      64657200 
 1620              	.LASF11:
 1621 0253 5F5F7569 		.ascii	"__uint64_t\000"
 1621      6E743634 
 1621      5F7400
 1622              	.LASF92:
 1623 025e 6462675F 		.ascii	"dbg_trace_buffer\000"
 1623      74726163 
 1623      655F6275 
 1623      66666572 
 1623      00
 1624              	.LASF20:
 1625 026f 74726566 		.ascii	"trefs_t\000"
 1625      735F7400 
 1626              	.LASF86:
 1627 0277 74625F62 		.ascii	"tb_buffer\000"
 1627      75666665 
 1627      7200
 1628              	.LASF28:
 1629 0281 705F7072 		.ascii	"p_prev\000"
 1629      657600
 1630              	.LASF22:
 1631 0288 74707269 		.ascii	"tprio_t\000"
 1631      6F5F7400 
 1632              	.LASF17:
 1633 0290 5F426F6F 		.ascii	"_Bool\000"
 1633      6C00
 1634              	.LASF14:
 1635 0296 696E7433 		.ascii	"int32_t\000"
 1635      325F7400 
 1636              	.LASF2:
 1637 029e 756E7369 		.ascii	"unsigned char\000"
 1637      676E6564 
 1637      20636861 
 1637      7200
 1638              	.LASF93:
 1639 02ac 6462675F 		.ascii	"dbg_panic_msg\000"
ARM GAS  /tmp/cchwWcOn.s 			page 32


 1639      70616E69 
 1639      635F6D73 
 1639      6700
 1640              	.LASF44:
 1641 02ba 705F6D74 		.ascii	"p_mtxlist\000"
 1641      786C6973 
 1641      7400
 1642              	.LASF3:
 1643 02c4 73686F72 		.ascii	"short int\000"
 1643      7420696E 
 1643      7400
 1644              	.LASF35:
 1645 02ce 705F7374 		.ascii	"p_state\000"
 1645      61746500 
 1646              	.LASF38:
 1647 02d6 705F7072 		.ascii	"p_preempt\000"
 1647      65656D70 
 1647      7400
 1648              	.LASF64:
 1649 02e0 725F7072 		.ascii	"r_prio\000"
 1649      696F00
 1650              	.LASF77:
 1651 02e7 65776D61 		.ascii	"ewmask\000"
 1651      736B00
 1652              	.LASF27:
 1653 02ee 705F6E65 		.ascii	"p_next\000"
 1653      787400
 1654              	.LASF36:
 1655 02f5 705F666C 		.ascii	"p_flags\000"
 1655      61677300 
 1656              	.LASF95:
 1657 02fd 2E2E2F2E 		.ascii	"../../os/kernel/src/chdebug.c\000"
 1657      2E2F6F73 
 1657      2F6B6572 
 1657      6E656C2F 
 1657      7372632F 
 1658              	.LASF94:
 1659 031b 474E5520 		.ascii	"GNU C 4.8.4 20140526 (release) [ARM/embedded-4_8-br"
 1659      4320342E 
 1659      382E3420 
 1659      32303134 
 1659      30353236 
 1660 034e 616E6368 		.ascii	"anch revision 211358] -mcpu=cortex-m4 -mfloat-abi=h"
 1660      20726576 
 1660      6973696F 
 1660      6E203231 
 1660      31333538 
 1661 0381 61726420 		.ascii	"ard -mfpu=fpv4-sp-d16 -mno-thumb-interwork -mthumb "
 1661      2D6D6670 
 1661      753D6670 
 1661      76342D73 
 1661      702D6431 
 1662 03b4 2D676764 		.ascii	"-ggdb -O2 -fomit-frame-pointer -falign-functions=16"
 1662      62202D4F 
 1662      32202D66 
 1662      6F6D6974 
 1662      2D667261 
ARM GAS  /tmp/cchwWcOn.s 			page 33


 1663 03e7 202D6666 		.ascii	" -ffunction-sections -fdata-sections -fno-common -f"
 1663      756E6374 
 1663      696F6E2D 
 1663      73656374 
 1663      696F6E73 
 1664 041a 73696E67 		.ascii	"single-precision-constant\000"
 1664      6C652D70 
 1664      72656369 
 1664      73696F6E 
 1664      2D636F6E 
 1665              	.LASF26:
 1666 0434 54687265 		.ascii	"Thread\000"
 1666      616400
 1667              	.LASF43:
 1668 043b 705F6570 		.ascii	"p_epending\000"
 1668      656E6469 
 1668      6E6700
 1669              	.LASF15:
 1670 0446 75696E74 		.ascii	"uint32_t\000"
 1670      33325F74 
 1670      00
 1671              	.LASF63:
 1672 044f 725F7175 		.ascii	"r_queue\000"
 1672      65756500 
 1673              	.LASF78:
 1674 0457 63686172 		.ascii	"char\000"
 1674      00
 1675              	.LASF73:
 1676 045c 6D5F6E65 		.ascii	"m_next\000"
 1676      787400
 1677              	.LASF25:
 1678 0463 73797374 		.ascii	"systime_t\000"
 1678      696D655F 
 1678      7400
 1679              	.LASF45:
 1680 046d 705F7265 		.ascii	"p_realprio\000"
 1680      616C7072 
 1680      696F00
 1681              	.LASF6:
 1682 0478 5F5F696E 		.ascii	"__int32_t\000"
 1682      7433325F 
 1682      7400
 1683              	.LASF39:
 1684 0482 705F7469 		.ascii	"p_time\000"
 1684      6D6500
 1685              	.LASF51:
 1686 0489 696E7463 		.ascii	"intctx\000"
 1686      747800
 1687              	.LASF41:
 1688 0490 705F6D73 		.ascii	"p_msgqueue\000"
 1688      67717565 
 1688      756500
 1689              	.LASF60:
 1690 049b 76745F70 		.ascii	"vt_par\000"
 1690      617200
 1691              	.LASF37:
 1692 04a2 705F7265 		.ascii	"p_refs\000"
ARM GAS  /tmp/cchwWcOn.s 			page 34


 1692      667300
 1693              	.LASF69:
 1694 04a9 52656164 		.ascii	"ReadyList\000"
 1694      794C6973 
 1694      7400
 1695              	.LASF82:
 1696 04b3 73655F73 		.ascii	"se_state\000"
 1696      74617465 
 1696      00
 1697              	.LASF91:
 1698 04bc 726C6973 		.ascii	"rlist\000"
 1698      7400
 1699              	.LASF13:
 1700 04c2 75696E74 		.ascii	"uint8_t\000"
 1700      385F7400 
 1701              	.LASF76:
 1702 04ca 77746F62 		.ascii	"wtobjp\000"
 1702      6A7000
 1703              	.LASF33:
 1704 04d1 705F6E61 		.ascii	"p_name\000"
 1704      6D6500
 1705              	.LASF61:
 1706 04d8 76745F73 		.ascii	"vt_systime\000"
 1706      79737469 
 1706      6D6500
 1707              	.LASF62:
 1708 04e3 56544C69 		.ascii	"VTList\000"
 1708      737400
 1709              	.LASF72:
 1710 04ea 6D5F6F77 		.ascii	"m_owner\000"
 1710      6E657200 
 1711              	.LASF81:
 1712 04f2 73655F77 		.ascii	"se_wtobjp\000"
 1712      746F626A 
 1712      7000
 1713              	.LASF30:
 1714 04fc 705F6374 		.ascii	"p_ctx\000"
 1714      7800
 1715              	.LASF40:
 1716 0502 705F7761 		.ascii	"p_waiting\000"
 1716      6974696E 
 1716      6700
 1717              		.ident	"GCC: (GNU Tools for ARM Embedded Processors) 4.8.4 20140526 (release) [ARM/embedded-4_8-br
ARM GAS  /tmp/cchwWcOn.s 			page 35


DEFINED SYMBOLS
                            *ABS*:00000000 chdebug.c
     /tmp/cchwWcOn.s:21     .text._trace_init:00000000 $t
     /tmp/cchwWcOn.s:27     .text._trace_init:00000000 _trace_init
     /tmp/cchwWcOn.s:46     .text._trace_init:00000010 $d
     /tmp/cchwWcOn.s:51     .text.dbg_trace:00000000 $t
     /tmp/cchwWcOn.s:57     .text.dbg_trace:00000000 dbg_trace
     /tmp/cchwWcOn.s:103    .text.dbg_trace:00000034 $d
     /tmp/cchwWcOn.s:110    .text.chDbgPanic:00000000 $t
     /tmp/cchwWcOn.s:116    .text.chDbgPanic:00000000 chDbgPanic
     /tmp/cchwWcOn.s:133    .text.chDbgPanic:00000008 $d
     /tmp/cchwWcOn.s:151    .bss.dbg_panic_msg:00000000 dbg_panic_msg
     /tmp/cchwWcOn.s:144    .bss.dbg_trace_buffer:00000000 dbg_trace_buffer
     /tmp/cchwWcOn.s:140    .bss.dbg_trace_buffer:00000000 $d
     /tmp/cchwWcOn.s:147    .bss.dbg_panic_msg:00000000 $d
                     .debug_frame:00000010 $d
     /tmp/cchwWcOn.s:50     .text._trace_init:00000014 $t
     /tmp/cchwWcOn.s:139    .text.chDbgPanic:0000000c $t

UNDEFINED SYMBOLS
rlist
vtlist
port_halt
