ARM GAS  /tmp/ccik12TF.s 			page 1


   1              		.syntax unified
   2              		.cpu cortex-m4
   3              		.eabi_attribute 27, 3
   4              		.eabi_attribute 28, 1
   5              		.fpu fpv4-sp-d16
   6              		.eabi_attribute 20, 1
   7              		.eabi_attribute 21, 1
   8              		.eabi_attribute 23, 3
   9              		.eabi_attribute 24, 1
  10              		.eabi_attribute 25, 1
  11              		.eabi_attribute 26, 1
  12              		.eabi_attribute 30, 2
  13              		.eabi_attribute 34, 1
  14              		.eabi_attribute 18, 4
  15              		.thumb
  16              		.file	"chdebug.c"
  17              		.text
  18              	.Ltext0:
  19              		.cfi_sections	.debug_frame
  20              		.section	.text.dbg_check_disable,"ax",%progbits
  21              		.align	2
  22              		.p2align 4,,15
  23              		.global	dbg_check_disable
  24              		.thumb
  25              		.thumb_func
  26              		.type	dbg_check_disable, %function
  27              	dbg_check_disable:
  28              	.LFB7:
  29              		.file 1 "../../os/kernel/src/chdebug.c"
  30              		.loc 1 81 0
  31              		.cfi_startproc
  32              		@ args = 0, pretend = 0, frame = 0
  33              		@ frame_needed = 0, uses_anonymous_args = 0
  34              		@ link register save eliminated.
  35              		.loc 1 83 0
  36 0000 054B     		ldr	r3, .L5
  37 0002 1B68     		ldr	r3, [r3]
  38 0004 13B9     		cbnz	r3, .L2
  39              		.loc 1 83 0 is_stmt 0 discriminator 1
  40 0006 054B     		ldr	r3, .L5+4
  41 0008 1B68     		ldr	r3, [r3]
  42 000a 23B1     		cbz	r3, .L1
  43              	.L2:
  44              	.LVL0:
  45              	.LBB28:
  46              	.LBB29:
  47              		.loc 1 273 0 is_stmt 1
  48 000c 044B     		ldr	r3, .L5+8
  49 000e 054A     		ldr	r2, .L5+12
  50 0010 1A60     		str	r2, [r3]
  51              		.loc 1 274 0
  52 0012 FFF7FEBF 		b	port_halt
  53              	.LVL1:
  54              	.L1:
  55 0016 7047     		bx	lr
  56              	.L6:
  57              		.align	2
ARM GAS  /tmp/ccik12TF.s 			page 2


  58              	.L5:
  59 0018 00000000 		.word	.LANCHOR0
  60 001c 00000000 		.word	.LANCHOR1
  61 0020 00000000 		.word	.LANCHOR2
  62 0024 00000000 		.word	.LC0
  63              	.LBE29:
  64              	.LBE28:
  65              		.cfi_endproc
  66              	.LFE7:
  67              		.size	dbg_check_disable, .-dbg_check_disable
  68 0028 AFF30080 		.section	.text.dbg_check_suspend,"ax",%progbits
  68      AFF30080 
  69              		.align	2
  70              		.p2align 4,,15
  71              		.global	dbg_check_suspend
  72              		.thumb
  73              		.thumb_func
  74              		.type	dbg_check_suspend, %function
  75              	dbg_check_suspend:
  76              	.LFB8:
  77              		.loc 1 92 0
  78              		.cfi_startproc
  79              		@ args = 0, pretend = 0, frame = 0
  80              		@ frame_needed = 0, uses_anonymous_args = 0
  81              		@ link register save eliminated.
  82              		.loc 1 94 0
  83 0000 054B     		ldr	r3, .L10
  84 0002 1B68     		ldr	r3, [r3]
  85 0004 13B9     		cbnz	r3, .L8
  86              		.loc 1 94 0 is_stmt 0 discriminator 1
  87 0006 054B     		ldr	r3, .L10+4
  88 0008 1B68     		ldr	r3, [r3]
  89 000a 23B1     		cbz	r3, .L7
  90              	.L8:
  91              	.LVL2:
  92              	.LBB30:
  93              	.LBB31:
  94              		.loc 1 273 0 is_stmt 1
  95 000c 044B     		ldr	r3, .L10+8
  96 000e 054A     		ldr	r2, .L10+12
  97 0010 1A60     		str	r2, [r3]
  98              		.loc 1 274 0
  99 0012 FFF7FEBF 		b	port_halt
 100              	.LVL3:
 101              	.L7:
 102 0016 7047     		bx	lr
 103              	.L11:
 104              		.align	2
 105              	.L10:
 106 0018 00000000 		.word	.LANCHOR0
 107 001c 00000000 		.word	.LANCHOR1
 108 0020 00000000 		.word	.LANCHOR2
 109 0024 08000000 		.word	.LC1
 110              	.LBE31:
 111              	.LBE30:
 112              		.cfi_endproc
 113              	.LFE8:
ARM GAS  /tmp/ccik12TF.s 			page 3


 114              		.size	dbg_check_suspend, .-dbg_check_suspend
 115 0028 AFF30080 		.section	.text.dbg_check_enable,"ax",%progbits
 115      AFF30080 
 116              		.align	2
 117              		.p2align 4,,15
 118              		.global	dbg_check_enable
 119              		.thumb
 120              		.thumb_func
 121              		.type	dbg_check_enable, %function
 122              	dbg_check_enable:
 123              	.LFB9:
 124              		.loc 1 103 0
 125              		.cfi_startproc
 126              		@ args = 0, pretend = 0, frame = 0
 127              		@ frame_needed = 0, uses_anonymous_args = 0
 128              		@ link register save eliminated.
 129              		.loc 1 105 0
 130 0000 054B     		ldr	r3, .L15
 131 0002 1B68     		ldr	r3, [r3]
 132 0004 13B9     		cbnz	r3, .L13
 133              		.loc 1 105 0 is_stmt 0 discriminator 1
 134 0006 054B     		ldr	r3, .L15+4
 135 0008 1B68     		ldr	r3, [r3]
 136 000a 23B1     		cbz	r3, .L12
 137              	.L13:
 138              	.LVL4:
 139              	.LBB32:
 140              	.LBB33:
 141              		.loc 1 273 0 is_stmt 1
 142 000c 044B     		ldr	r3, .L15+8
 143 000e 054A     		ldr	r2, .L15+12
 144 0010 1A60     		str	r2, [r3]
 145              		.loc 1 274 0
 146 0012 FFF7FEBF 		b	port_halt
 147              	.LVL5:
 148              	.L12:
 149 0016 7047     		bx	lr
 150              	.L16:
 151              		.align	2
 152              	.L15:
 153 0018 00000000 		.word	.LANCHOR0
 154 001c 00000000 		.word	.LANCHOR1
 155 0020 00000000 		.word	.LANCHOR2
 156 0024 10000000 		.word	.LC2
 157              	.LBE33:
 158              	.LBE32:
 159              		.cfi_endproc
 160              	.LFE9:
 161              		.size	dbg_check_enable, .-dbg_check_enable
 162 0028 AFF30080 		.section	.text.dbg_check_lock,"ax",%progbits
 162      AFF30080 
 163              		.align	2
 164              		.p2align 4,,15
 165              		.global	dbg_check_lock
 166              		.thumb
 167              		.thumb_func
 168              		.type	dbg_check_lock, %function
ARM GAS  /tmp/ccik12TF.s 			page 4


 169              	dbg_check_lock:
 170              	.LFB10:
 171              		.loc 1 114 0
 172              		.cfi_startproc
 173              		@ args = 0, pretend = 0, frame = 0
 174              		@ frame_needed = 0, uses_anonymous_args = 0
 175              		.loc 1 116 0
 176 0000 074B     		ldr	r3, .L25
 177 0002 1B68     		ldr	r3, [r3]
 178              		.loc 1 114 0
 179 0004 10B5     		push	{r4, lr}
 180              		.cfi_def_cfa_offset 8
 181              		.cfi_offset 4, -8
 182              		.cfi_offset 14, -4
 183 0006 074C     		ldr	r4, .L25+4
 184              		.loc 1 116 0
 185 0008 0BB9     		cbnz	r3, .L18
 186              		.loc 1 116 0 is_stmt 0 discriminator 1
 187 000a 2368     		ldr	r3, [r4]
 188 000c 23B1     		cbz	r3, .L19
 189              	.L18:
 190              	.LVL6:
 191              	.LBB34:
 192              	.LBB35:
 193              		.loc 1 273 0 is_stmt 1
 194 000e 064B     		ldr	r3, .L25+8
 195 0010 064A     		ldr	r2, .L25+12
 196 0012 1A60     		str	r2, [r3]
 197              		.loc 1 274 0
 198 0014 FFF7FEFF 		bl	port_halt
 199              	.LVL7:
 200              	.L19:
 201              	.LBE35:
 202              	.LBE34:
 203              		.loc 1 118 0
 204 0018 0123     		movs	r3, #1
 205 001a 2360     		str	r3, [r4]
 206 001c 10BD     		pop	{r4, pc}
 207              	.L26:
 208 001e 00BF     		.align	2
 209              	.L25:
 210 0020 00000000 		.word	.LANCHOR0
 211 0024 00000000 		.word	.LANCHOR1
 212 0028 00000000 		.word	.LANCHOR2
 213 002c 18000000 		.word	.LC3
 214              		.cfi_endproc
 215              	.LFE10:
 216              		.size	dbg_check_lock, .-dbg_check_lock
 217              		.section	.text.dbg_check_unlock,"ax",%progbits
 218              		.align	2
 219              		.p2align 4,,15
 220              		.global	dbg_check_unlock
 221              		.thumb
 222              		.thumb_func
 223              		.type	dbg_check_unlock, %function
 224              	dbg_check_unlock:
 225              	.LFB11:
ARM GAS  /tmp/ccik12TF.s 			page 5


 226              		.loc 1 126 0
 227              		.cfi_startproc
 228              		@ args = 0, pretend = 0, frame = 0
 229              		@ frame_needed = 0, uses_anonymous_args = 0
 230              		.loc 1 128 0
 231 0000 094B     		ldr	r3, .L32
 232 0002 1B68     		ldr	r3, [r3]
 233              		.loc 1 126 0
 234 0004 10B5     		push	{r4, lr}
 235              		.cfi_def_cfa_offset 8
 236              		.cfi_offset 4, -8
 237              		.cfi_offset 14, -4
 238 0006 094C     		ldr	r4, .L32+4
 239              		.loc 1 128 0
 240 0008 2BB9     		cbnz	r3, .L28
 241              		.loc 1 128 0 is_stmt 0 discriminator 1
 242 000a 2368     		ldr	r3, [r4]
 243 000c 002B     		cmp	r3, #0
 244 000e 02DD     		ble	.L28
 245              		.loc 1 130 0 is_stmt 1
 246 0010 0023     		movs	r3, #0
 247 0012 2360     		str	r3, [r4]
 248 0014 10BD     		pop	{r4, pc}
 249              	.L28:
 250              	.LVL8:
 251              	.LBB36:
 252              	.LBB37:
 253              		.loc 1 273 0
 254 0016 064B     		ldr	r3, .L32+8
 255 0018 064A     		ldr	r2, .L32+12
 256 001a 1A60     		str	r2, [r3]
 257              		.loc 1 274 0
 258 001c FFF7FEFF 		bl	port_halt
 259              	.LVL9:
 260              	.LBE37:
 261              	.LBE36:
 262              		.loc 1 130 0
 263 0020 0023     		movs	r3, #0
 264 0022 2360     		str	r3, [r4]
 265 0024 10BD     		pop	{r4, pc}
 266              	.L33:
 267 0026 00BF     		.align	2
 268              	.L32:
 269 0028 00000000 		.word	.LANCHOR0
 270 002c 00000000 		.word	.LANCHOR1
 271 0030 00000000 		.word	.LANCHOR2
 272 0034 20000000 		.word	.LC4
 273              		.cfi_endproc
 274              	.LFE11:
 275              		.size	dbg_check_unlock, .-dbg_check_unlock
 276 0038 AFF30080 		.section	.text.dbg_check_lock_from_isr,"ax",%progbits
 276      AFF30080 
 277              		.align	2
 278              		.p2align 4,,15
 279              		.global	dbg_check_lock_from_isr
 280              		.thumb
 281              		.thumb_func
ARM GAS  /tmp/ccik12TF.s 			page 6


 282              		.type	dbg_check_lock_from_isr, %function
 283              	dbg_check_lock_from_isr:
 284              	.LFB12:
 285              		.loc 1 138 0
 286              		.cfi_startproc
 287              		@ args = 0, pretend = 0, frame = 0
 288              		@ frame_needed = 0, uses_anonymous_args = 0
 289              		.loc 1 140 0
 290 0000 074B     		ldr	r3, .L42
 291 0002 1B68     		ldr	r3, [r3]
 292 0004 002B     		cmp	r3, #0
 293              		.loc 1 138 0
 294 0006 10B5     		push	{r4, lr}
 295              		.cfi_def_cfa_offset 8
 296              		.cfi_offset 4, -8
 297              		.cfi_offset 14, -4
 298 0008 064C     		ldr	r4, .L42+4
 299              		.loc 1 140 0
 300 000a 01DD     		ble	.L35
 301              		.loc 1 140 0 is_stmt 0 discriminator 1
 302 000c 2368     		ldr	r3, [r4]
 303 000e 23B1     		cbz	r3, .L36
 304              	.L35:
 305              	.LVL10:
 306              	.LBB38:
 307              	.LBB39:
 308              		.loc 1 273 0 is_stmt 1
 309 0010 054B     		ldr	r3, .L42+8
 310 0012 064A     		ldr	r2, .L42+12
 311 0014 1A60     		str	r2, [r3]
 312              		.loc 1 274 0
 313 0016 FFF7FEFF 		bl	port_halt
 314              	.LVL11:
 315              	.L36:
 316              	.LBE39:
 317              	.LBE38:
 318              		.loc 1 142 0
 319 001a 0123     		movs	r3, #1
 320 001c 2360     		str	r3, [r4]
 321 001e 10BD     		pop	{r4, pc}
 322              	.L43:
 323              		.align	2
 324              	.L42:
 325 0020 00000000 		.word	.LANCHOR0
 326 0024 00000000 		.word	.LANCHOR1
 327 0028 00000000 		.word	.LANCHOR2
 328 002c 28000000 		.word	.LC5
 329              		.cfi_endproc
 330              	.LFE12:
 331              		.size	dbg_check_lock_from_isr, .-dbg_check_lock_from_isr
 332              		.section	.text.dbg_check_unlock_from_isr,"ax",%progbits
 333              		.align	2
 334              		.p2align 4,,15
 335              		.global	dbg_check_unlock_from_isr
 336              		.thumb
 337              		.thumb_func
 338              		.type	dbg_check_unlock_from_isr, %function
ARM GAS  /tmp/ccik12TF.s 			page 7


 339              	dbg_check_unlock_from_isr:
 340              	.LFB13:
 341              		.loc 1 150 0
 342              		.cfi_startproc
 343              		@ args = 0, pretend = 0, frame = 0
 344              		@ frame_needed = 0, uses_anonymous_args = 0
 345              		.loc 1 152 0
 346 0000 094B     		ldr	r3, .L49
 347 0002 1B68     		ldr	r3, [r3]
 348 0004 002B     		cmp	r3, #0
 349              		.loc 1 150 0
 350 0006 10B5     		push	{r4, lr}
 351              		.cfi_def_cfa_offset 8
 352              		.cfi_offset 4, -8
 353              		.cfi_offset 14, -4
 354 0008 084C     		ldr	r4, .L49+4
 355              		.loc 1 152 0
 356 000a 05DD     		ble	.L45
 357              		.loc 1 152 0 is_stmt 0 discriminator 1
 358 000c 2368     		ldr	r3, [r4]
 359 000e 002B     		cmp	r3, #0
 360 0010 02DD     		ble	.L45
 361              		.loc 1 154 0 is_stmt 1
 362 0012 0023     		movs	r3, #0
 363 0014 2360     		str	r3, [r4]
 364 0016 10BD     		pop	{r4, pc}
 365              	.L45:
 366              	.LVL12:
 367              	.LBB40:
 368              	.LBB41:
 369              		.loc 1 273 0
 370 0018 054B     		ldr	r3, .L49+8
 371 001a 064A     		ldr	r2, .L49+12
 372 001c 1A60     		str	r2, [r3]
 373              		.loc 1 274 0
 374 001e FFF7FEFF 		bl	port_halt
 375              	.LVL13:
 376              	.LBE41:
 377              	.LBE40:
 378              		.loc 1 154 0
 379 0022 0023     		movs	r3, #0
 380 0024 2360     		str	r3, [r4]
 381 0026 10BD     		pop	{r4, pc}
 382              	.L50:
 383              		.align	2
 384              	.L49:
 385 0028 00000000 		.word	.LANCHOR0
 386 002c 00000000 		.word	.LANCHOR1
 387 0030 00000000 		.word	.LANCHOR2
 388 0034 30000000 		.word	.LC6
 389              		.cfi_endproc
 390              	.LFE13:
 391              		.size	dbg_check_unlock_from_isr, .-dbg_check_unlock_from_isr
 392 0038 AFF30080 		.section	.text.dbg_check_enter_isr,"ax",%progbits
 392      AFF30080 
 393              		.align	2
 394              		.p2align 4,,15
ARM GAS  /tmp/ccik12TF.s 			page 8


 395              		.global	dbg_check_enter_isr
 396              		.thumb
 397              		.thumb_func
 398              		.type	dbg_check_enter_isr, %function
 399              	dbg_check_enter_isr:
 400              	.LFB14:
 401              		.loc 1 162 0
 402              		.cfi_startproc
 403              		@ args = 0, pretend = 0, frame = 0
 404              		@ frame_needed = 0, uses_anonymous_args = 0
 405 0000 10B5     		push	{r4, lr}
 406              		.cfi_def_cfa_offset 8
 407              		.cfi_offset 4, -8
 408              		.cfi_offset 14, -4
 409              	.LBB42:
 410              		.loc 1 164 0
 411 0002 2023     		movs	r3, #32
 412              	@ 164 "../../os/kernel/src/chdebug.c" 1
 413 0004 83F31188 		msr     BASEPRI, r3
 414              	@ 0 "" 2
 415              		.thumb
 416              	.LBE42:
 417              		.loc 1 165 0
 418 0008 094C     		ldr	r4, .L55
 419 000a 2368     		ldr	r3, [r4]
 420 000c 002B     		cmp	r3, #0
 421 000e 02DB     		blt	.L52
 422              		.loc 1 165 0 is_stmt 0 discriminator 1
 423 0010 084A     		ldr	r2, .L55+4
 424 0012 1268     		ldr	r2, [r2]
 425 0014 2AB1     		cbz	r2, .L53
 426              	.L52:
 427              	.LVL14:
 428              	.LBB43:
 429              	.LBB44:
 430              		.loc 1 273 0 is_stmt 1
 431 0016 084B     		ldr	r3, .L55+8
 432 0018 084A     		ldr	r2, .L55+12
 433 001a 1A60     		str	r2, [r3]
 434              		.loc 1 274 0
 435 001c FFF7FEFF 		bl	port_halt
 436              	.LVL15:
 437 0020 2368     		ldr	r3, [r4]
 438              	.LVL16:
 439              	.L53:
 440              	.LBE44:
 441              	.LBE43:
 442              		.loc 1 167 0
 443 0022 0133     		adds	r3, r3, #1
 444 0024 2360     		str	r3, [r4]
 445              	.LBB45:
 446              		.loc 1 168 0
 447 0026 0023     		movs	r3, #0
 448              	@ 168 "../../os/kernel/src/chdebug.c" 1
 449 0028 83F31188 		msr     BASEPRI, r3
 450              	@ 0 "" 2
 451              		.thumb
ARM GAS  /tmp/ccik12TF.s 			page 9


 452 002c 10BD     		pop	{r4, pc}
 453              	.L56:
 454 002e 00BF     		.align	2
 455              	.L55:
 456 0030 00000000 		.word	.LANCHOR0
 457 0034 00000000 		.word	.LANCHOR1
 458 0038 00000000 		.word	.LANCHOR2
 459 003c 38000000 		.word	.LC7
 460              	.LBE45:
 461              		.cfi_endproc
 462              	.LFE14:
 463              		.size	dbg_check_enter_isr, .-dbg_check_enter_isr
 464              		.section	.text.dbg_check_leave_isr,"ax",%progbits
 465              		.align	2
 466              		.p2align 4,,15
 467              		.global	dbg_check_leave_isr
 468              		.thumb
 469              		.thumb_func
 470              		.type	dbg_check_leave_isr, %function
 471              	dbg_check_leave_isr:
 472              	.LFB15:
 473              		.loc 1 176 0
 474              		.cfi_startproc
 475              		@ args = 0, pretend = 0, frame = 0
 476              		@ frame_needed = 0, uses_anonymous_args = 0
 477 0000 10B5     		push	{r4, lr}
 478              		.cfi_def_cfa_offset 8
 479              		.cfi_offset 4, -8
 480              		.cfi_offset 14, -4
 481              	.LBB46:
 482              		.loc 1 178 0
 483 0002 2023     		movs	r3, #32
 484              	@ 178 "../../os/kernel/src/chdebug.c" 1
 485 0004 83F31188 		msr     BASEPRI, r3
 486              	@ 0 "" 2
 487              		.thumb
 488              	.LBE46:
 489              		.loc 1 179 0
 490 0008 094C     		ldr	r4, .L61
 491 000a 2368     		ldr	r3, [r4]
 492 000c 002B     		cmp	r3, #0
 493 000e 02DD     		ble	.L58
 494              		.loc 1 179 0 is_stmt 0 discriminator 1
 495 0010 084A     		ldr	r2, .L61+4
 496 0012 1268     		ldr	r2, [r2]
 497 0014 2AB1     		cbz	r2, .L59
 498              	.L58:
 499              	.LVL17:
 500              	.LBB47:
 501              	.LBB48:
 502              		.loc 1 273 0 is_stmt 1
 503 0016 084B     		ldr	r3, .L61+8
 504 0018 084A     		ldr	r2, .L61+12
 505 001a 1A60     		str	r2, [r3]
 506              		.loc 1 274 0
 507 001c FFF7FEFF 		bl	port_halt
 508              	.LVL18:
ARM GAS  /tmp/ccik12TF.s 			page 10


 509 0020 2368     		ldr	r3, [r4]
 510              	.LVL19:
 511              	.L59:
 512              	.LBE48:
 513              	.LBE47:
 514              		.loc 1 181 0
 515 0022 013B     		subs	r3, r3, #1
 516 0024 2360     		str	r3, [r4]
 517              	.LBB49:
 518              		.loc 1 182 0
 519 0026 0023     		movs	r3, #0
 520              	@ 182 "../../os/kernel/src/chdebug.c" 1
 521 0028 83F31188 		msr     BASEPRI, r3
 522              	@ 0 "" 2
 523              		.thumb
 524 002c 10BD     		pop	{r4, pc}
 525              	.L62:
 526 002e 00BF     		.align	2
 527              	.L61:
 528 0030 00000000 		.word	.LANCHOR0
 529 0034 00000000 		.word	.LANCHOR1
 530 0038 00000000 		.word	.LANCHOR2
 531 003c 40000000 		.word	.LC8
 532              	.LBE49:
 533              		.cfi_endproc
 534              	.LFE15:
 535              		.size	dbg_check_leave_isr, .-dbg_check_leave_isr
 536              		.section	.text.chDbgCheckClassI,"ax",%progbits
 537              		.align	2
 538              		.p2align 4,,15
 539              		.global	chDbgCheckClassI
 540              		.thumb
 541              		.thumb_func
 542              		.type	chDbgCheckClassI, %function
 543              	chDbgCheckClassI:
 544              	.LFB16:
 545              		.loc 1 193 0
 546              		.cfi_startproc
 547              		@ args = 0, pretend = 0, frame = 0
 548              		@ frame_needed = 0, uses_anonymous_args = 0
 549              		@ link register save eliminated.
 550              		.loc 1 195 0
 551 0000 064B     		ldr	r3, .L66
 552 0002 1B68     		ldr	r3, [r3]
 553 0004 002B     		cmp	r3, #0
 554 0006 04DB     		blt	.L64
 555              		.loc 1 195 0 is_stmt 0 discriminator 1
 556 0008 054B     		ldr	r3, .L66+4
 557 000a 1B68     		ldr	r3, [r3]
 558 000c 002B     		cmp	r3, #0
 559 000e 00DD     		ble	.L64
 560 0010 7047     		bx	lr
 561              	.L64:
 562              	.LVL20:
 563              	.LBB50:
 564              	.LBB51:
 565              		.loc 1 273 0 is_stmt 1
ARM GAS  /tmp/ccik12TF.s 			page 11


 566 0012 044B     		ldr	r3, .L66+8
 567 0014 044A     		ldr	r2, .L66+12
 568 0016 1A60     		str	r2, [r3]
 569              		.loc 1 274 0
 570 0018 FFF7FEBF 		b	port_halt
 571              	.LVL21:
 572              	.L67:
 573              		.align	2
 574              	.L66:
 575 001c 00000000 		.word	.LANCHOR0
 576 0020 00000000 		.word	.LANCHOR1
 577 0024 00000000 		.word	.LANCHOR2
 578 0028 48000000 		.word	.LC9
 579              	.LBE51:
 580              	.LBE50:
 581              		.cfi_endproc
 582              	.LFE16:
 583              		.size	chDbgCheckClassI, .-chDbgCheckClassI
 584 002c AFF30080 		.section	.text.chDbgCheckClassS,"ax",%progbits
 585              		.align	2
 586              		.p2align 4,,15
 587              		.global	chDbgCheckClassS
 588              		.thumb
 589              		.thumb_func
 590              		.type	chDbgCheckClassS, %function
 591              	chDbgCheckClassS:
 592              	.LFB17:
 593              		.loc 1 207 0
 594              		.cfi_startproc
 595              		@ args = 0, pretend = 0, frame = 0
 596              		@ frame_needed = 0, uses_anonymous_args = 0
 597              		@ link register save eliminated.
 598              		.loc 1 209 0
 599 0000 064B     		ldr	r3, .L71
 600 0002 1B68     		ldr	r3, [r3]
 601 0004 23B9     		cbnz	r3, .L69
 602              		.loc 1 209 0 is_stmt 0 discriminator 1
 603 0006 064B     		ldr	r3, .L71+4
 604 0008 1B68     		ldr	r3, [r3]
 605 000a 002B     		cmp	r3, #0
 606 000c 00DD     		ble	.L69
 607 000e 7047     		bx	lr
 608              	.L69:
 609              	.LVL22:
 610              	.LBB52:
 611              	.LBB53:
 612              		.loc 1 273 0 is_stmt 1
 613 0010 044B     		ldr	r3, .L71+8
 614 0012 054A     		ldr	r2, .L71+12
 615 0014 1A60     		str	r2, [r3]
 616              		.loc 1 274 0
 617 0016 FFF7FEBF 		b	port_halt
 618              	.LVL23:
 619              	.L72:
 620 001a 00BF     		.align	2
 621              	.L71:
 622 001c 00000000 		.word	.LANCHOR0
ARM GAS  /tmp/ccik12TF.s 			page 12


 623 0020 00000000 		.word	.LANCHOR1
 624 0024 00000000 		.word	.LANCHOR2
 625 0028 50000000 		.word	.LC10
 626              	.LBE53:
 627              	.LBE52:
 628              		.cfi_endproc
 629              	.LFE17:
 630              		.size	chDbgCheckClassS, .-chDbgCheckClassS
 631 002c AFF30080 		.section	.text._trace_init,"ax",%progbits
 632              		.align	2
 633              		.p2align 4,,15
 634              		.global	_trace_init
 635              		.thumb
 636              		.thumb_func
 637              		.type	_trace_init, %function
 638              	_trace_init:
 639              	.LFB18:
 640              		.loc 1 229 0
 641              		.cfi_startproc
 642              		@ args = 0, pretend = 0, frame = 0
 643              		@ frame_needed = 0, uses_anonymous_args = 0
 644              		@ link register save eliminated.
 645              		.loc 1 231 0
 646 0000 034A     		ldr	r2, .L74
 647 0002 1346     		mov	r3, r2
 648 0004 4021     		movs	r1, #64
 649 0006 43F8081B 		str	r1, [r3], #8
 650              		.loc 1 232 0
 651 000a 5360     		str	r3, [r2, #4]
 652 000c 7047     		bx	lr
 653              	.L75:
 654 000e 00BF     		.align	2
 655              	.L74:
 656 0010 00000000 		.word	.LANCHOR3
 657              		.cfi_endproc
 658              	.LFE18:
 659              		.size	_trace_init, .-_trace_init
 660 0014 AFF30080 		.section	.text.dbg_trace,"ax",%progbits
 660      AFF30080 
 660      AFF30080 
 661              		.align	2
 662              		.p2align 4,,15
 663              		.global	dbg_trace
 664              		.thumb
 665              		.thumb_func
 666              		.type	dbg_trace, %function
 667              	dbg_trace:
 668              	.LFB19:
 669              		.loc 1 242 0
 670              		.cfi_startproc
 671              		@ args = 0, pretend = 0, frame = 0
 672              		@ frame_needed = 0, uses_anonymous_args = 0
 673              		@ link register save eliminated.
 674              	.LVL24:
 675              		.loc 1 244 0
 676 0000 0C4A     		ldr	r2, .L80
 677              		.loc 1 245 0
ARM GAS  /tmp/ccik12TF.s 			page 13


 678 0002 0D49     		ldr	r1, .L80+4
 679              		.loc 1 244 0
 680 0004 5368     		ldr	r3, [r2, #4]
 681              		.loc 1 245 0
 682 0006 8969     		ldr	r1, [r1, #24]
 683              		.loc 1 242 0
 684 0008 10B4     		push	{r4}
 685              		.cfi_def_cfa_offset 4
 686              		.cfi_offset 4, -4
 687              		.loc 1 244 0
 688 000a 0C4C     		ldr	r4, .L80+8
 689 000c E468     		ldr	r4, [r4, #12]
 690 000e 1C60     		str	r4, [r3]
 691              		.loc 1 245 0
 692 0010 5960     		str	r1, [r3, #4]
 693              		.loc 1 246 0
 694 0012 816A     		ldr	r1, [r0, #40]
 695 0014 9960     		str	r1, [r3, #8]
 696              		.loc 1 247 0
 697 0016 90F82010 		ldrb	r1, [r0, #32]	@ zero_extendqisi2
 698 001a 1973     		strb	r1, [r3, #12]
 699              		.loc 1 248 0
 700 001c 1033     		adds	r3, r3, #16
 701 001e 02F58161 		add	r1, r2, #1032
 702 0022 8B42     		cmp	r3, r1
 703              		.loc 1 250 0
 704 0024 28BF     		it	cs
 705 0026 02F10803 		addcs	r3, r2, #8
 706 002a 5360     		str	r3, [r2, #4]
 707              		.loc 1 251 0
 708 002c 5DF8044B 		ldr	r4, [sp], #4
 709 0030 7047     		bx	lr
 710              	.L81:
 711 0032 00BF     		.align	2
 712              	.L80:
 713 0034 00000000 		.word	.LANCHOR3
 714 0038 00000000 		.word	rlist
 715 003c 00000000 		.word	vtlist
 716              		.cfi_endproc
 717              	.LFE19:
 718              		.size	dbg_trace, .-dbg_trace
 719              		.section	.text.chDbgPanic,"ax",%progbits
 720              		.align	2
 721              		.p2align 4,,15
 722              		.global	chDbgPanic
 723              		.thumb
 724              		.thumb_func
 725              		.type	chDbgPanic, %function
 726              	chDbgPanic:
 727              	.LFB20:
 728              		.loc 1 271 0
 729              		.cfi_startproc
 730              		@ args = 0, pretend = 0, frame = 0
 731              		@ frame_needed = 0, uses_anonymous_args = 0
 732              		@ link register save eliminated.
 733              	.LVL25:
 734              		.loc 1 273 0
ARM GAS  /tmp/ccik12TF.s 			page 14


 735 0000 014B     		ldr	r3, .L83
 736 0002 1860     		str	r0, [r3]
 737              		.loc 1 274 0
 738 0004 FFF7FEBF 		b	port_halt
 739              	.LVL26:
 740              	.L84:
 741              		.align	2
 742              	.L83:
 743 0008 00000000 		.word	.LANCHOR2
 744              		.cfi_endproc
 745              	.LFE20:
 746              		.size	chDbgPanic, .-chDbgPanic
 747              		.global	dbg_panic_msg
 748              		.global	dbg_trace_buffer
 749              		.global	dbg_lock_cnt
 750              		.global	dbg_isr_cnt
 751 000c AFF30080 		.section	.bss.dbg_isr_cnt,"aw",%nobits
 752              		.align	2
 753              		.set	.LANCHOR0,. + 0
 754              		.type	dbg_isr_cnt, %object
 755              		.size	dbg_isr_cnt, 4
 756              	dbg_isr_cnt:
 757 0000 00000000 		.space	4
 758              		.section	.bss.dbg_trace_buffer,"aw",%nobits
 759              		.align	2
 760              		.set	.LANCHOR3,. + 0
 761              		.type	dbg_trace_buffer, %object
 762              		.size	dbg_trace_buffer, 1032
 763              	dbg_trace_buffer:
 764 0000 00000000 		.space	1032
 764      00000000 
 764      00000000 
 764      00000000 
 764      00000000 
 765              		.section	.rodata.str1.4,"aMS",%progbits,1
 766              		.align	2
 767              	.LC0:
 768 0000 53562331 		.ascii	"SV#1\000"
 768      00
 769 0005 000000   		.space	3
 770              	.LC1:
 771 0008 53562332 		.ascii	"SV#2\000"
 771      00
 772 000d 000000   		.space	3
 773              	.LC2:
 774 0010 53562333 		.ascii	"SV#3\000"
 774      00
 775 0015 000000   		.space	3
 776              	.LC3:
 777 0018 53562334 		.ascii	"SV#4\000"
 777      00
 778 001d 000000   		.space	3
 779              	.LC4:
 780 0020 53562335 		.ascii	"SV#5\000"
 780      00
 781 0025 000000   		.space	3
 782              	.LC5:
ARM GAS  /tmp/ccik12TF.s 			page 15


 783 0028 53562336 		.ascii	"SV#6\000"
 783      00
 784 002d 000000   		.space	3
 785              	.LC6:
 786 0030 53562337 		.ascii	"SV#7\000"
 786      00
 787 0035 000000   		.space	3
 788              	.LC7:
 789 0038 53562338 		.ascii	"SV#8\000"
 789      00
 790 003d 000000   		.space	3
 791              	.LC8:
 792 0040 53562339 		.ascii	"SV#9\000"
 792      00
 793 0045 000000   		.space	3
 794              	.LC9:
 795 0048 53562331 		.ascii	"SV#10\000"
 795      3000
 796 004e 0000     		.space	2
 797              	.LC10:
 798 0050 53562331 		.ascii	"SV#11\000"
 798      3100
 799 0056 0000     		.section	.bss.dbg_lock_cnt,"aw",%nobits
 800              		.align	2
 801              		.set	.LANCHOR1,. + 0
 802              		.type	dbg_lock_cnt, %object
 803              		.size	dbg_lock_cnt, 4
 804              	dbg_lock_cnt:
 805 0000 00000000 		.space	4
 806              		.section	.bss.dbg_panic_msg,"aw",%nobits
 807              		.align	2
 808              		.set	.LANCHOR2,. + 0
 809              		.type	dbg_panic_msg, %object
 810              		.size	dbg_panic_msg, 4
 811              	dbg_panic_msg:
 812 0000 00000000 		.space	4
 813              		.text
 814              	.Letext0:
 815              		.file 2 "/opt/ARM/arm-none-eabi/include/machine/_default_types.h"
 816              		.file 3 "/opt/ARM/arm-none-eabi/include/stdint.h"
 817              		.file 4 "../../os/ports/GCC/ARMCMx/chtypes.h"
 818              		.file 5 "../../os/kernel/include/chlists.h"
 819              		.file 6 "../../os/kernel/include/chthreads.h"
 820              		.file 7 "../../os/ports/GCC/ARMCMx/chcore_v7m.h"
 821              		.file 8 "../../os/kernel/include/chvt.h"
 822              		.file 9 "../../os/kernel/include/chschd.h"
 823              		.file 10 "../../os/kernel/include/chmtx.h"
 824              		.file 11 "../../os/kernel/include/chdebug.h"
 825              		.section	.debug_info,"",%progbits
 826              	.Ldebug_info0:
 827 0000 160A0000 		.4byte	0xa16
 828 0004 0400     		.2byte	0x4
 829 0006 00000000 		.4byte	.Ldebug_abbrev0
 830 000a 04       		.byte	0x4
 831 000b 01       		.uleb128 0x1
 832 000c 65030000 		.4byte	.LASF107
 833 0010 01       		.byte	0x1
ARM GAS  /tmp/ccik12TF.s 			page 16


 834 0011 47030000 		.4byte	.LASF108
 835 0015 E0040000 		.4byte	.LASF109
 836 0019 00000000 		.4byte	.Ldebug_ranges0+0
 837 001d 00000000 		.4byte	0
 838 0021 00000000 		.4byte	.Ldebug_line0
 839 0025 02       		.uleb128 0x2
 840 0026 04       		.byte	0x4
 841 0027 05       		.byte	0x5
 842 0028 696E7400 		.ascii	"int\000"
 843 002c 03       		.uleb128 0x3
 844 002d 04       		.byte	0x4
 845 002e 07       		.byte	0x7
 846 002f 2A010000 		.4byte	.LASF0
 847 0033 03       		.uleb128 0x3
 848 0034 01       		.byte	0x1
 849 0035 06       		.byte	0x6
 850 0036 8A000000 		.4byte	.LASF1
 851 003a 04       		.uleb128 0x4
 852 003b 21000000 		.4byte	.LASF5
 853 003f 02       		.byte	0x2
 854 0040 1C       		.byte	0x1c
 855 0041 45000000 		.4byte	0x45
 856 0045 03       		.uleb128 0x3
 857 0046 01       		.byte	0x1
 858 0047 08       		.byte	0x8
 859 0048 E8020000 		.4byte	.LASF2
 860 004c 03       		.uleb128 0x3
 861 004d 02       		.byte	0x2
 862 004e 05       		.byte	0x5
 863 004f 0E030000 		.4byte	.LASF3
 864 0053 03       		.uleb128 0x3
 865 0054 02       		.byte	0x2
 866 0055 07       		.byte	0x7
 867 0056 8B010000 		.4byte	.LASF4
 868 005a 04       		.uleb128 0x4
 869 005b C2040000 		.4byte	.LASF6
 870 005f 02       		.byte	0x2
 871 0060 37       		.byte	0x37
 872 0061 65000000 		.4byte	0x65
 873 0065 03       		.uleb128 0x3
 874 0066 04       		.byte	0x4
 875 0067 05       		.byte	0x5
 876 0068 CA000000 		.4byte	.LASF7
 877 006c 04       		.uleb128 0x4
 878 006d F5000000 		.4byte	.LASF8
 879 0071 02       		.byte	0x2
 880 0072 38       		.byte	0x38
 881 0073 77000000 		.4byte	0x77
 882 0077 03       		.uleb128 0x3
 883 0078 04       		.byte	0x4
 884 0079 07       		.byte	0x7
 885 007a 49010000 		.4byte	.LASF9
 886 007e 03       		.uleb128 0x3
 887 007f 08       		.byte	0x8
 888 0080 05       		.byte	0x5
 889 0081 7C000000 		.4byte	.LASF10
 890 0085 04       		.uleb128 0x4
ARM GAS  /tmp/ccik12TF.s 			page 17


 891 0086 9D020000 		.4byte	.LASF11
 892 008a 02       		.byte	0x2
 893 008b 4E       		.byte	0x4e
 894 008c 90000000 		.4byte	0x90
 895 0090 03       		.uleb128 0x3
 896 0091 08       		.byte	0x8
 897 0092 07       		.byte	0x7
 898 0093 32000000 		.4byte	.LASF12
 899 0097 04       		.uleb128 0x4
 900 0098 81050000 		.4byte	.LASF13
 901 009c 03       		.byte	0x3
 902 009d 2A       		.byte	0x2a
 903 009e 3A000000 		.4byte	0x3a
 904 00a2 04       		.uleb128 0x4
 905 00a3 E0020000 		.4byte	.LASF14
 906 00a7 03       		.byte	0x3
 907 00a8 41       		.byte	0x41
 908 00a9 5A000000 		.4byte	0x5a
 909 00ad 04       		.uleb128 0x4
 910 00ae 90040000 		.4byte	.LASF15
 911 00b2 03       		.byte	0x3
 912 00b3 42       		.byte	0x42
 913 00b4 6C000000 		.4byte	0x6c
 914 00b8 04       		.uleb128 0x4
 915 00b9 18000000 		.4byte	.LASF16
 916 00bd 03       		.byte	0x3
 917 00be 4E       		.byte	0x4e
 918 00bf 85000000 		.4byte	0x85
 919 00c3 03       		.uleb128 0x3
 920 00c4 01       		.byte	0x1
 921 00c5 02       		.byte	0x2
 922 00c6 DA020000 		.4byte	.LASF17
 923 00ca 04       		.uleb128 0x4
 924 00cb C9010000 		.4byte	.LASF18
 925 00cf 04       		.byte	0x4
 926 00d0 2C       		.byte	0x2c
 927 00d1 97000000 		.4byte	0x97
 928 00d5 04       		.uleb128 0x4
 929 00d6 D3000000 		.4byte	.LASF19
 930 00da 04       		.byte	0x4
 931 00db 2D       		.byte	0x2d
 932 00dc 97000000 		.4byte	0x97
 933 00e0 04       		.uleb128 0x4
 934 00e1 B9020000 		.4byte	.LASF20
 935 00e5 04       		.byte	0x4
 936 00e6 2E       		.byte	0x2e
 937 00e7 97000000 		.4byte	0x97
 938 00eb 04       		.uleb128 0x4
 939 00ec C0000000 		.4byte	.LASF21
 940 00f0 04       		.byte	0x4
 941 00f1 2F       		.byte	0x2f
 942 00f2 97000000 		.4byte	0x97
 943 00f6 04       		.uleb128 0x4
 944 00f7 D2020000 		.4byte	.LASF22
 945 00fb 04       		.byte	0x4
 946 00fc 30       		.byte	0x30
 947 00fd AD000000 		.4byte	0xad
ARM GAS  /tmp/ccik12TF.s 			page 18


 948 0101 04       		.uleb128 0x4
 949 0102 AA010000 		.4byte	.LASF23
 950 0106 04       		.byte	0x4
 951 0107 31       		.byte	0x31
 952 0108 A2000000 		.4byte	0xa2
 953 010c 04       		.uleb128 0x4
 954 010d FA010000 		.4byte	.LASF24
 955 0111 04       		.byte	0x4
 956 0112 33       		.byte	0x33
 957 0113 AD000000 		.4byte	0xad
 958 0117 04       		.uleb128 0x4
 959 0118 AD040000 		.4byte	.LASF25
 960 011c 04       		.byte	0x4
 961 011d 35       		.byte	0x35
 962 011e AD000000 		.4byte	0xad
 963 0122 04       		.uleb128 0x4
 964 0123 19010000 		.4byte	.LASF26
 965 0127 04       		.byte	0x4
 966 0128 36       		.byte	0x36
 967 0129 A2000000 		.4byte	0xa2
 968 012d 04       		.uleb128 0x4
 969 012e 7E040000 		.4byte	.LASF27
 970 0132 05       		.byte	0x5
 971 0133 2A       		.byte	0x2a
 972 0134 38010000 		.4byte	0x138
 973 0138 05       		.uleb128 0x5
 974 0139 7E040000 		.4byte	.LASF27
 975 013d 4C       		.byte	0x4c
 976 013e 06       		.byte	0x6
 977 013f 5E       		.byte	0x5e
 978 0140 41020000 		.4byte	0x241
 979 0144 06       		.uleb128 0x6
 980 0145 38030000 		.4byte	.LASF28
 981 0149 06       		.byte	0x6
 982 014a 5F       		.byte	0x5f
 983 014b 62020000 		.4byte	0x262
 984 014f 00       		.byte	0
 985 0150 06       		.uleb128 0x6
 986 0151 CB020000 		.4byte	.LASF29
 987 0155 06       		.byte	0x6
 988 0156 61       		.byte	0x61
 989 0157 62020000 		.4byte	0x262
 990 015b 04       		.byte	0x4
 991 015c 06       		.uleb128 0x6
 992 015d 5B000000 		.4byte	.LASF30
 993 0161 06       		.byte	0x6
 994 0162 63       		.byte	0x63
 995 0163 F6000000 		.4byte	0xf6
 996 0167 08       		.byte	0x8
 997 0168 06       		.uleb128 0x6
 998 0169 E5050000 		.4byte	.LASF31
 999 016d 06       		.byte	0x6
 1000 016e 64       		.byte	0x64
 1001 016f F7030000 		.4byte	0x3f7
 1002 0173 0C       		.byte	0xc
 1003 0174 06       		.uleb128 0x6
 1004 0175 DC000000 		.4byte	.LASF32
ARM GAS  /tmp/ccik12TF.s 			page 19


 1005 0179 06       		.byte	0x6
 1006 017a 66       		.byte	0x66
 1007 017b 62020000 		.4byte	0x262
 1008 017f 10       		.byte	0x10
 1009 0180 06       		.uleb128 0x6
 1010 0181 5F020000 		.4byte	.LASF33
 1011 0185 06       		.byte	0x6
 1012 0186 67       		.byte	0x67
 1013 0187 62020000 		.4byte	0x262
 1014 018b 14       		.byte	0x14
 1015 018c 06       		.uleb128 0x6
 1016 018d A8050000 		.4byte	.LASF34
 1017 0191 06       		.byte	0x6
 1018 0192 6E       		.byte	0x6e
 1019 0193 B1050000 		.4byte	0x5b1
 1020 0197 18       		.byte	0x18
 1021 0198 06       		.uleb128 0x6
 1022 0199 1F010000 		.4byte	.LASF35
 1023 019d 06       		.byte	0x6
 1024 019e 74       		.byte	0x74
 1025 019f C3050000 		.4byte	0x5c3
 1026 01a3 1C       		.byte	0x1c
 1027 01a4 06       		.uleb128 0x6
 1028 01a5 18030000 		.4byte	.LASF36
 1029 01a9 06       		.byte	0x6
 1030 01aa 79       		.byte	0x79
 1031 01ab D5000000 		.4byte	0xd5
 1032 01af 20       		.byte	0x20
 1033 01b0 06       		.uleb128 0x6
 1034 01b1 3F030000 		.4byte	.LASF37
 1035 01b5 06       		.byte	0x6
 1036 01b6 7D       		.byte	0x7d
 1037 01b7 CA000000 		.4byte	0xca
 1038 01bb 21       		.byte	0x21
 1039 01bc 06       		.uleb128 0x6
 1040 01bd 4D050000 		.4byte	.LASF38
 1041 01c1 06       		.byte	0x6
 1042 01c2 82       		.byte	0x82
 1043 01c3 E0000000 		.4byte	0xe0
 1044 01c7 22       		.byte	0x22
 1045 01c8 06       		.uleb128 0x6
 1046 01c9 20030000 		.4byte	.LASF39
 1047 01cd 06       		.byte	0x6
 1048 01ce 88       		.byte	0x88
 1049 01cf EB000000 		.4byte	0xeb
 1050 01d3 23       		.byte	0x23
 1051 01d4 06       		.uleb128 0x6
 1052 01d5 D9040000 		.4byte	.LASF40
 1053 01d9 06       		.byte	0x6
 1054 01da 8F       		.byte	0x8f
 1055 01db CE040000 		.4byte	0x4ce
 1056 01df 24       		.byte	0x24
 1057 01e0 07       		.uleb128 0x7
 1058 01e1 705F7500 		.ascii	"p_u\000"
 1059 01e5 06       		.byte	0x6
 1060 01e6 B4       		.byte	0xb4
 1061 01e7 7C050000 		.4byte	0x57c
ARM GAS  /tmp/ccik12TF.s 			page 20


 1062 01eb 28       		.byte	0x28
 1063 01ec 06       		.uleb128 0x6
 1064 01ed EB050000 		.4byte	.LASF41
 1065 01f1 06       		.byte	0x6
 1066 01f2 B9       		.byte	0xb9
 1067 01f3 88020000 		.4byte	0x288
 1068 01f7 2C       		.byte	0x2c
 1069 01f8 06       		.uleb128 0x6
 1070 01f9 2A050000 		.4byte	.LASF42
 1071 01fd 06       		.byte	0x6
 1072 01fe BF       		.byte	0xbf
 1073 01ff 68020000 		.4byte	0x268
 1074 0203 30       		.byte	0x30
 1075 0204 06       		.uleb128 0x6
 1076 0205 00000000 		.4byte	.LASF43
 1077 0209 06       		.byte	0x6
 1078 020a C3       		.byte	0xc3
 1079 020b 01010000 		.4byte	0x101
 1080 020f 38       		.byte	0x38
 1081 0210 06       		.uleb128 0x6
 1082 0211 85040000 		.4byte	.LASF44
 1083 0215 06       		.byte	0x6
 1084 0216 C9       		.byte	0xc9
 1085 0217 0C010000 		.4byte	0x10c
 1086 021b 3C       		.byte	0x3c
 1087 021c 06       		.uleb128 0x6
 1088 021d 04030000 		.4byte	.LASF45
 1089 0221 06       		.byte	0x6
 1090 0222 D0       		.byte	0xd0
 1091 0223 C9050000 		.4byte	0x5c9
 1092 0227 40       		.byte	0x40
 1093 0228 06       		.uleb128 0x6
 1094 0229 B7040000 		.4byte	.LASF46
 1095 022d 06       		.byte	0x6
 1096 022e D4       		.byte	0xd4
 1097 022f F6000000 		.4byte	0xf6
 1098 0233 44       		.byte	0x44
 1099 0234 06       		.uleb128 0x6
 1100 0235 B0000000 		.4byte	.LASF47
 1101 0239 06       		.byte	0x6
 1102 023a DA       		.byte	0xda
 1103 023b 9E020000 		.4byte	0x29e
 1104 023f 48       		.byte	0x48
 1105 0240 00       		.byte	0
 1106 0241 08       		.uleb128 0x8
 1107 0242 08       		.byte	0x8
 1108 0243 05       		.byte	0x5
 1109 0244 61       		.byte	0x61
 1110 0245 62020000 		.4byte	0x262
 1111 0249 06       		.uleb128 0x6
 1112 024a 38030000 		.4byte	.LASF28
 1113 024e 05       		.byte	0x5
 1114 024f 62       		.byte	0x62
 1115 0250 62020000 		.4byte	0x262
 1116 0254 00       		.byte	0
 1117 0255 06       		.uleb128 0x6
 1118 0256 CB020000 		.4byte	.LASF29
ARM GAS  /tmp/ccik12TF.s 			page 21


 1119 025a 05       		.byte	0x5
 1120 025b 64       		.byte	0x64
 1121 025c 62020000 		.4byte	0x262
 1122 0260 04       		.byte	0x4
 1123 0261 00       		.byte	0
 1124 0262 09       		.uleb128 0x9
 1125 0263 04       		.byte	0x4
 1126 0264 2D010000 		.4byte	0x12d
 1127 0268 04       		.uleb128 0x4
 1128 0269 6D020000 		.4byte	.LASF48
 1129 026d 05       		.byte	0x5
 1130 026e 66       		.byte	0x66
 1131 026f 41020000 		.4byte	0x241
 1132 0273 08       		.uleb128 0x8
 1133 0274 04       		.byte	0x4
 1134 0275 05       		.byte	0x5
 1135 0276 6B       		.byte	0x6b
 1136 0277 88020000 		.4byte	0x288
 1137 027b 06       		.uleb128 0x6
 1138 027c 38030000 		.4byte	.LASF28
 1139 0280 05       		.byte	0x5
 1140 0281 6D       		.byte	0x6d
 1141 0282 62020000 		.4byte	0x262
 1142 0286 00       		.byte	0
 1143 0287 00       		.byte	0
 1144 0288 04       		.uleb128 0x4
 1145 0289 EE010000 		.4byte	.LASF49
 1146 028d 05       		.byte	0x5
 1147 028e 70       		.byte	0x70
 1148 028f 73020000 		.4byte	0x273
 1149 0293 04       		.uleb128 0x4
 1150 0294 00010000 		.4byte	.LASF50
 1151 0298 07       		.byte	0x7
 1152 0299 E5       		.byte	0xe5
 1153 029a 9E020000 		.4byte	0x29e
 1154 029e 0A       		.uleb128 0xa
 1155 029f 04       		.byte	0x4
 1156 02a0 04       		.uleb128 0x4
 1157 02a1 0C020000 		.4byte	.LASF51
 1158 02a5 07       		.byte	0x7
 1159 02a6 EB       		.byte	0xeb
 1160 02a7 B8000000 		.4byte	0xb8
 1161 02ab 0B       		.uleb128 0xb
 1162 02ac 23050000 		.4byte	.LASF52
 1163 02b0 64       		.byte	0x64
 1164 02b1 07       		.byte	0x7
 1165 02b2 0C01     		.2byte	0x10c
 1166 02b4 F7030000 		.4byte	0x3f7
 1167 02b8 0C       		.uleb128 0xc
 1168 02b9 73313600 		.ascii	"s16\000"
 1169 02bd 07       		.byte	0x7
 1170 02be 0E01     		.2byte	0x10e
 1171 02c0 93020000 		.4byte	0x293
 1172 02c4 00       		.byte	0
 1173 02c5 0C       		.uleb128 0xc
 1174 02c6 73313700 		.ascii	"s17\000"
 1175 02ca 07       		.byte	0x7
ARM GAS  /tmp/ccik12TF.s 			page 22


 1176 02cb 0F01     		.2byte	0x10f
 1177 02cd 93020000 		.4byte	0x293
 1178 02d1 04       		.byte	0x4
 1179 02d2 0C       		.uleb128 0xc
 1180 02d3 73313800 		.ascii	"s18\000"
 1181 02d7 07       		.byte	0x7
 1182 02d8 1001     		.2byte	0x110
 1183 02da 93020000 		.4byte	0x293
 1184 02de 08       		.byte	0x8
 1185 02df 0C       		.uleb128 0xc
 1186 02e0 73313900 		.ascii	"s19\000"
 1187 02e4 07       		.byte	0x7
 1188 02e5 1101     		.2byte	0x111
 1189 02e7 93020000 		.4byte	0x293
 1190 02eb 0C       		.byte	0xc
 1191 02ec 0C       		.uleb128 0xc
 1192 02ed 73323000 		.ascii	"s20\000"
 1193 02f1 07       		.byte	0x7
 1194 02f2 1201     		.2byte	0x112
 1195 02f4 93020000 		.4byte	0x293
 1196 02f8 10       		.byte	0x10
 1197 02f9 0C       		.uleb128 0xc
 1198 02fa 73323100 		.ascii	"s21\000"
 1199 02fe 07       		.byte	0x7
 1200 02ff 1301     		.2byte	0x113
 1201 0301 93020000 		.4byte	0x293
 1202 0305 14       		.byte	0x14
 1203 0306 0C       		.uleb128 0xc
 1204 0307 73323200 		.ascii	"s22\000"
 1205 030b 07       		.byte	0x7
 1206 030c 1401     		.2byte	0x114
 1207 030e 93020000 		.4byte	0x293
 1208 0312 18       		.byte	0x18
 1209 0313 0C       		.uleb128 0xc
 1210 0314 73323300 		.ascii	"s23\000"
 1211 0318 07       		.byte	0x7
 1212 0319 1501     		.2byte	0x115
 1213 031b 93020000 		.4byte	0x293
 1214 031f 1C       		.byte	0x1c
 1215 0320 0C       		.uleb128 0xc
 1216 0321 73323400 		.ascii	"s24\000"
 1217 0325 07       		.byte	0x7
 1218 0326 1601     		.2byte	0x116
 1219 0328 93020000 		.4byte	0x293
 1220 032c 20       		.byte	0x20
 1221 032d 0C       		.uleb128 0xc
 1222 032e 73323500 		.ascii	"s25\000"
 1223 0332 07       		.byte	0x7
 1224 0333 1701     		.2byte	0x117
 1225 0335 93020000 		.4byte	0x293
 1226 0339 24       		.byte	0x24
 1227 033a 0C       		.uleb128 0xc
 1228 033b 73323600 		.ascii	"s26\000"
 1229 033f 07       		.byte	0x7
 1230 0340 1801     		.2byte	0x118
 1231 0342 93020000 		.4byte	0x293
 1232 0346 28       		.byte	0x28
ARM GAS  /tmp/ccik12TF.s 			page 23


 1233 0347 0C       		.uleb128 0xc
 1234 0348 73323700 		.ascii	"s27\000"
 1235 034c 07       		.byte	0x7
 1236 034d 1901     		.2byte	0x119
 1237 034f 93020000 		.4byte	0x293
 1238 0353 2C       		.byte	0x2c
 1239 0354 0C       		.uleb128 0xc
 1240 0355 73323800 		.ascii	"s28\000"
 1241 0359 07       		.byte	0x7
 1242 035a 1A01     		.2byte	0x11a
 1243 035c 93020000 		.4byte	0x293
 1244 0360 30       		.byte	0x30
 1245 0361 0C       		.uleb128 0xc
 1246 0362 73323900 		.ascii	"s29\000"
 1247 0366 07       		.byte	0x7
 1248 0367 1B01     		.2byte	0x11b
 1249 0369 93020000 		.4byte	0x293
 1250 036d 34       		.byte	0x34
 1251 036e 0C       		.uleb128 0xc
 1252 036f 73333000 		.ascii	"s30\000"
 1253 0373 07       		.byte	0x7
 1254 0374 1C01     		.2byte	0x11c
 1255 0376 93020000 		.4byte	0x293
 1256 037a 38       		.byte	0x38
 1257 037b 0C       		.uleb128 0xc
 1258 037c 73333100 		.ascii	"s31\000"
 1259 0380 07       		.byte	0x7
 1260 0381 1D01     		.2byte	0x11d
 1261 0383 93020000 		.4byte	0x293
 1262 0387 3C       		.byte	0x3c
 1263 0388 0C       		.uleb128 0xc
 1264 0389 723400   		.ascii	"r4\000"
 1265 038c 07       		.byte	0x7
 1266 038d 1F01     		.2byte	0x11f
 1267 038f 93020000 		.4byte	0x293
 1268 0393 40       		.byte	0x40
 1269 0394 0C       		.uleb128 0xc
 1270 0395 723500   		.ascii	"r5\000"
 1271 0398 07       		.byte	0x7
 1272 0399 2001     		.2byte	0x120
 1273 039b 93020000 		.4byte	0x293
 1274 039f 44       		.byte	0x44
 1275 03a0 0C       		.uleb128 0xc
 1276 03a1 723600   		.ascii	"r6\000"
 1277 03a4 07       		.byte	0x7
 1278 03a5 2101     		.2byte	0x121
 1279 03a7 93020000 		.4byte	0x293
 1280 03ab 48       		.byte	0x48
 1281 03ac 0C       		.uleb128 0xc
 1282 03ad 723700   		.ascii	"r7\000"
 1283 03b0 07       		.byte	0x7
 1284 03b1 2201     		.2byte	0x122
 1285 03b3 93020000 		.4byte	0x293
 1286 03b7 4C       		.byte	0x4c
 1287 03b8 0C       		.uleb128 0xc
 1288 03b9 723800   		.ascii	"r8\000"
 1289 03bc 07       		.byte	0x7
ARM GAS  /tmp/ccik12TF.s 			page 24


 1290 03bd 2301     		.2byte	0x123
 1291 03bf 93020000 		.4byte	0x293
 1292 03c3 50       		.byte	0x50
 1293 03c4 0C       		.uleb128 0xc
 1294 03c5 723900   		.ascii	"r9\000"
 1295 03c8 07       		.byte	0x7
 1296 03c9 2401     		.2byte	0x124
 1297 03cb 93020000 		.4byte	0x293
 1298 03cf 54       		.byte	0x54
 1299 03d0 0C       		.uleb128 0xc
 1300 03d1 72313000 		.ascii	"r10\000"
 1301 03d5 07       		.byte	0x7
 1302 03d6 2501     		.2byte	0x125
 1303 03d8 93020000 		.4byte	0x293
 1304 03dc 58       		.byte	0x58
 1305 03dd 0C       		.uleb128 0xc
 1306 03de 72313100 		.ascii	"r11\000"
 1307 03e2 07       		.byte	0x7
 1308 03e3 2601     		.2byte	0x126
 1309 03e5 93020000 		.4byte	0x293
 1310 03e9 5C       		.byte	0x5c
 1311 03ea 0C       		.uleb128 0xc
 1312 03eb 6C7200   		.ascii	"lr\000"
 1313 03ee 07       		.byte	0x7
 1314 03ef 2701     		.2byte	0x127
 1315 03f1 93020000 		.4byte	0x293
 1316 03f5 60       		.byte	0x60
 1317 03f6 00       		.byte	0
 1318 03f7 0B       		.uleb128 0xb
 1319 03f8 83010000 		.4byte	.LASF53
 1320 03fc 04       		.byte	0x4
 1321 03fd 07       		.byte	0x7
 1322 03fe 3101     		.2byte	0x131
 1323 0400 12040000 		.4byte	0x412
 1324 0404 0C       		.uleb128 0xc
 1325 0405 72313300 		.ascii	"r13\000"
 1326 0409 07       		.byte	0x7
 1327 040a 3201     		.2byte	0x132
 1328 040c 12040000 		.4byte	0x412
 1329 0410 00       		.byte	0
 1330 0411 00       		.byte	0
 1331 0412 09       		.uleb128 0x9
 1332 0413 04       		.byte	0x4
 1333 0414 AB020000 		.4byte	0x2ab
 1334 0418 03       		.uleb128 0x3
 1335 0419 04       		.byte	0x4
 1336 041a 07       		.byte	0x7
 1337 041b 26020000 		.4byte	.LASF54
 1338 041f 04       		.uleb128 0x4
 1339 0420 5B010000 		.4byte	.LASF55
 1340 0424 08       		.byte	0x8
 1341 0425 58       		.byte	0x58
 1342 0426 2A040000 		.4byte	0x42a
 1343 042a 09       		.uleb128 0x9
 1344 042b 04       		.byte	0x4
 1345 042c 30040000 		.4byte	0x430
 1346 0430 0D       		.uleb128 0xd
ARM GAS  /tmp/ccik12TF.s 			page 25


 1347 0431 3B040000 		.4byte	0x43b
 1348 0435 0E       		.uleb128 0xe
 1349 0436 9E020000 		.4byte	0x29e
 1350 043a 00       		.byte	0
 1351 043b 04       		.uleb128 0x4
 1352 043c 76010000 		.4byte	.LASF56
 1353 0440 08       		.byte	0x8
 1354 0441 5D       		.byte	0x5d
 1355 0442 46040000 		.4byte	0x446
 1356 0446 05       		.uleb128 0x5
 1357 0447 76010000 		.4byte	.LASF56
 1358 044b 14       		.byte	0x14
 1359 044c 08       		.byte	0x8
 1360 044d 64       		.byte	0x64
 1361 044e 8F040000 		.4byte	0x48f
 1362 0452 06       		.uleb128 0x6
 1363 0453 37010000 		.4byte	.LASF57
 1364 0457 08       		.byte	0x8
 1365 0458 65       		.byte	0x65
 1366 0459 8F040000 		.4byte	0x48f
 1367 045d 00       		.byte	0
 1368 045e 06       		.uleb128 0x6
 1369 045f 09010000 		.4byte	.LASF58
 1370 0463 08       		.byte	0x8
 1371 0464 67       		.byte	0x67
 1372 0465 8F040000 		.4byte	0x48f
 1373 0469 04       		.byte	0x4
 1374 046a 06       		.uleb128 0x6
 1375 046b 17020000 		.4byte	.LASF59
 1376 046f 08       		.byte	0x8
 1377 0470 69       		.byte	0x69
 1378 0471 17010000 		.4byte	0x117
 1379 0475 08       		.byte	0x8
 1380 0476 06       		.uleb128 0x6
 1381 0477 39020000 		.4byte	.LASF60
 1382 047b 08       		.byte	0x8
 1383 047c 6A       		.byte	0x6a
 1384 047d 1F040000 		.4byte	0x41f
 1385 0481 0C       		.byte	0xc
 1386 0482 06       		.uleb128 0x6
 1387 0483 46050000 		.4byte	.LASF61
 1388 0487 08       		.byte	0x8
 1389 0488 6C       		.byte	0x6c
 1390 0489 9E020000 		.4byte	0x29e
 1391 048d 10       		.byte	0x10
 1392 048e 00       		.byte	0
 1393 048f 09       		.uleb128 0x9
 1394 0490 04       		.byte	0x4
 1395 0491 3B040000 		.4byte	0x43b
 1396 0495 08       		.uleb128 0x8
 1397 0496 10       		.byte	0x10
 1398 0497 08       		.byte	0x8
 1399 0498 76       		.byte	0x76
 1400 0499 CE040000 		.4byte	0x4ce
 1401 049d 06       		.uleb128 0x6
 1402 049e 37010000 		.4byte	.LASF57
 1403 04a2 08       		.byte	0x8
ARM GAS  /tmp/ccik12TF.s 			page 26


 1404 04a3 77       		.byte	0x77
 1405 04a4 8F040000 		.4byte	0x48f
 1406 04a8 00       		.byte	0
 1407 04a9 06       		.uleb128 0x6
 1408 04aa 09010000 		.4byte	.LASF58
 1409 04ae 08       		.byte	0x8
 1410 04af 79       		.byte	0x79
 1411 04b0 8F040000 		.4byte	0x48f
 1412 04b4 04       		.byte	0x4
 1413 04b5 06       		.uleb128 0x6
 1414 04b6 17020000 		.4byte	.LASF59
 1415 04ba 08       		.byte	0x8
 1416 04bb 7B       		.byte	0x7b
 1417 04bc 17010000 		.4byte	0x117
 1418 04c0 08       		.byte	0x8
 1419 04c1 06       		.uleb128 0x6
 1420 04c2 AF050000 		.4byte	.LASF62
 1421 04c6 08       		.byte	0x8
 1422 04c7 7C       		.byte	0x7c
 1423 04c8 CE040000 		.4byte	0x4ce
 1424 04cc 0C       		.byte	0xc
 1425 04cd 00       		.byte	0
 1426 04ce 0F       		.uleb128 0xf
 1427 04cf 17010000 		.4byte	0x117
 1428 04d3 04       		.uleb128 0x4
 1429 04d4 BA050000 		.4byte	.LASF63
 1430 04d8 08       		.byte	0x8
 1431 04d9 7D       		.byte	0x7d
 1432 04da 95040000 		.4byte	0x495
 1433 04de 08       		.uleb128 0x8
 1434 04df 1C       		.byte	0x1c
 1435 04e0 09       		.byte	0x9
 1436 04e1 5E       		.byte	0x5e
 1437 04e2 2F050000 		.4byte	0x52f
 1438 04e6 06       		.uleb128 0x6
 1439 04e7 99040000 		.4byte	.LASF64
 1440 04eb 09       		.byte	0x9
 1441 04ec 5F       		.byte	0x5f
 1442 04ed 68020000 		.4byte	0x268
 1443 04f1 00       		.byte	0
 1444 04f2 06       		.uleb128 0x6
 1445 04f3 2A030000 		.4byte	.LASF65
 1446 04f7 09       		.byte	0x9
 1447 04f8 60       		.byte	0x60
 1448 04f9 F6000000 		.4byte	0xf6
 1449 04fd 08       		.byte	0x8
 1450 04fe 06       		.uleb128 0x6
 1451 04ff 67020000 		.4byte	.LASF66
 1452 0503 09       		.byte	0x9
 1453 0504 62       		.byte	0x62
 1454 0505 F7030000 		.4byte	0x3f7
 1455 0509 0C       		.byte	0xc
 1456 050a 06       		.uleb128 0x6
 1457 050b B0010000 		.4byte	.LASF67
 1458 050f 09       		.byte	0x9
 1459 0510 65       		.byte	0x65
 1460 0511 62020000 		.4byte	0x262
ARM GAS  /tmp/ccik12TF.s 			page 27


 1461 0515 10       		.byte	0x10
 1462 0516 06       		.uleb128 0x6
 1463 0517 84020000 		.4byte	.LASF68
 1464 051b 09       		.byte	0x9
 1465 051c 66       		.byte	0x66
 1466 051d 62020000 		.4byte	0x262
 1467 0521 14       		.byte	0x14
 1468 0522 06       		.uleb128 0x6
 1469 0523 7A020000 		.4byte	.LASF69
 1470 0527 09       		.byte	0x9
 1471 0528 69       		.byte	0x69
 1472 0529 62020000 		.4byte	0x262
 1473 052d 18       		.byte	0x18
 1474 052e 00       		.byte	0
 1475 052f 04       		.uleb128 0x4
 1476 0530 54050000 		.4byte	.LASF70
 1477 0534 09       		.byte	0x9
 1478 0535 6B       		.byte	0x6b
 1479 0536 DE040000 		.4byte	0x4de
 1480 053a 05       		.uleb128 0x5
 1481 053b 06020000 		.4byte	.LASF71
 1482 053f 10       		.byte	0x10
 1483 0540 0A       		.byte	0xa
 1484 0541 2C       		.byte	0x2c
 1485 0542 6B050000 		.4byte	0x56b
 1486 0546 06       		.uleb128 0x6
 1487 0547 B8000000 		.4byte	.LASF72
 1488 054b 0A       		.byte	0xa
 1489 054c 2D       		.byte	0x2d
 1490 054d 68020000 		.4byte	0x268
 1491 0551 00       		.byte	0
 1492 0552 06       		.uleb128 0x6
 1493 0553 D3050000 		.4byte	.LASF73
 1494 0557 0A       		.byte	0xa
 1495 0558 2F       		.byte	0x2f
 1496 0559 62020000 		.4byte	0x262
 1497 055d 08       		.byte	0x8
 1498 055e 06       		.uleb128 0x6
 1499 055f A6040000 		.4byte	.LASF74
 1500 0563 0A       		.byte	0xa
 1501 0564 31       		.byte	0x31
 1502 0565 6B050000 		.4byte	0x56b
 1503 0569 0C       		.byte	0xc
 1504 056a 00       		.byte	0
 1505 056b 09       		.uleb128 0x9
 1506 056c 04       		.byte	0x4
 1507 056d 3A050000 		.4byte	0x53a
 1508 0571 04       		.uleb128 0x4
 1509 0572 06020000 		.4byte	.LASF71
 1510 0576 0A       		.byte	0xa
 1511 0577 33       		.byte	0x33
 1512 0578 3A050000 		.4byte	0x53a
 1513 057c 10       		.uleb128 0x10
 1514 057d 04       		.byte	0x4
 1515 057e 06       		.byte	0x6
 1516 057f 96       		.byte	0x96
 1517 0580 B1050000 		.4byte	0x5b1
ARM GAS  /tmp/ccik12TF.s 			page 28


 1518 0584 11       		.uleb128 0x11
 1519 0585 11000000 		.4byte	.LASF75
 1520 0589 06       		.byte	0x6
 1521 058a 9D       		.byte	0x9d
 1522 058b 01010000 		.4byte	0x101
 1523 058f 11       		.uleb128 0x11
 1524 0590 E4000000 		.4byte	.LASF76
 1525 0594 06       		.byte	0x6
 1526 0595 A4       		.byte	0xa4
 1527 0596 01010000 		.4byte	0x101
 1528 059a 11       		.uleb128 0x11
 1529 059b A1050000 		.4byte	.LASF77
 1530 059f 06       		.byte	0x6
 1531 05a0 AB       		.byte	0xab
 1532 05a1 9E020000 		.4byte	0x29e
 1533 05a5 11       		.uleb128 0x11
 1534 05a6 31030000 		.4byte	.LASF78
 1535 05aa 06       		.byte	0x6
 1536 05ab B2       		.byte	0xb2
 1537 05ac 0C010000 		.4byte	0x10c
 1538 05b0 00       		.byte	0
 1539 05b1 09       		.uleb128 0x9
 1540 05b2 04       		.byte	0x4
 1541 05b3 B7050000 		.4byte	0x5b7
 1542 05b7 12       		.uleb128 0x12
 1543 05b8 BC050000 		.4byte	0x5bc
 1544 05bc 03       		.uleb128 0x3
 1545 05bd 01       		.byte	0x1
 1546 05be 08       		.byte	0x8
 1547 05bf A1040000 		.4byte	.LASF79
 1548 05c3 09       		.uleb128 0x9
 1549 05c4 04       		.byte	0x4
 1550 05c5 A0020000 		.4byte	0x2a0
 1551 05c9 09       		.uleb128 0x9
 1552 05ca 04       		.byte	0x4
 1553 05cb 71050000 		.4byte	0x571
 1554 05cf 08       		.uleb128 0x8
 1555 05d0 10       		.byte	0x10
 1556 05d1 0B       		.byte	0xb
 1557 05d2 71       		.byte	0x71
 1558 05d3 08060000 		.4byte	0x608
 1559 05d7 06       		.uleb128 0x6
 1560 05d8 11010000 		.4byte	.LASF80
 1561 05dc 0B       		.byte	0xb
 1562 05dd 72       		.byte	0x72
 1563 05de 17010000 		.4byte	0x117
 1564 05e2 00       		.byte	0
 1565 05e3 06       		.uleb128 0x6
 1566 05e4 62000000 		.4byte	.LASF81
 1567 05e8 0B       		.byte	0xb
 1568 05e9 73       		.byte	0x73
 1569 05ea 62020000 		.4byte	0x262
 1570 05ee 04       		.byte	0x4
 1571 05ef 06       		.uleb128 0x6
 1572 05f0 DB050000 		.4byte	.LASF82
 1573 05f4 0B       		.byte	0xb
 1574 05f5 74       		.byte	0x74
ARM GAS  /tmp/ccik12TF.s 			page 29


 1575 05f6 9E020000 		.4byte	0x29e
 1576 05fa 08       		.byte	0x8
 1577 05fb 06       		.uleb128 0x6
 1578 05fc 5E050000 		.4byte	.LASF83
 1579 0600 0B       		.byte	0xb
 1580 0601 75       		.byte	0x75
 1581 0602 97000000 		.4byte	0x97
 1582 0606 0C       		.byte	0xc
 1583 0607 00       		.byte	0
 1584 0608 04       		.uleb128 0x4
 1585 0609 50020000 		.4byte	.LASF84
 1586 060d 0B       		.byte	0xb
 1587 060e 76       		.byte	0x76
 1588 060f CF050000 		.4byte	0x5cf
 1589 0613 13       		.uleb128 0x13
 1590 0614 0804     		.2byte	0x408
 1591 0616 0B       		.byte	0xb
 1592 0617 7B       		.byte	0x7b
 1593 0618 41060000 		.4byte	0x641
 1594 061c 06       		.uleb128 0x6
 1595 061d ED000000 		.4byte	.LASF85
 1596 0621 0B       		.byte	0xb
 1597 0622 7C       		.byte	0x7c
 1598 0623 2C000000 		.4byte	0x2c
 1599 0627 00       		.byte	0
 1600 0628 06       		.uleb128 0x6
 1601 0629 1F020000 		.4byte	.LASF86
 1602 062d 0B       		.byte	0xb
 1603 062e 7D       		.byte	0x7d
 1604 062f 41060000 		.4byte	0x641
 1605 0633 04       		.byte	0x4
 1606 0634 06       		.uleb128 0x6
 1607 0635 C1020000 		.4byte	.LASF87
 1608 0639 0B       		.byte	0xb
 1609 063a 7F       		.byte	0x7f
 1610 063b 47060000 		.4byte	0x647
 1611 063f 08       		.byte	0x8
 1612 0640 00       		.byte	0
 1613 0641 09       		.uleb128 0x9
 1614 0642 04       		.byte	0x4
 1615 0643 08060000 		.4byte	0x608
 1616 0647 14       		.uleb128 0x14
 1617 0648 08060000 		.4byte	0x608
 1618 064c 57060000 		.4byte	0x657
 1619 0650 15       		.uleb128 0x15
 1620 0651 18040000 		.4byte	0x418
 1621 0655 3F       		.byte	0x3f
 1622 0656 00       		.byte	0
 1623 0657 04       		.uleb128 0x4
 1624 0658 49000000 		.4byte	.LASF88
 1625 065c 0B       		.byte	0xb
 1626 065d 80       		.byte	0x80
 1627 065e 13060000 		.4byte	0x613
 1628 0662 16       		.uleb128 0x16
 1629 0663 06000000 		.4byte	.LASF110
 1630 0667 01       		.byte	0x1
 1631 0668 0F01     		.2byte	0x10f
ARM GAS  /tmp/ccik12TF.s 			page 30


 1632 066a 01       		.byte	0x1
 1633 066b 7C060000 		.4byte	0x67c
 1634 066f 17       		.uleb128 0x17
 1635 0670 6D736700 		.ascii	"msg\000"
 1636 0674 01       		.byte	0x1
 1637 0675 0F01     		.2byte	0x10f
 1638 0677 B1050000 		.4byte	0x5b1
 1639 067b 00       		.byte	0
 1640 067c 18       		.uleb128 0x18
 1641 067d C1050000 		.4byte	.LASF89
 1642 0681 01       		.byte	0x1
 1643 0682 51       		.byte	0x51
 1644 0683 00000000 		.4byte	.LFB7
 1645 0687 28000000 		.4byte	.LFE7-.LFB7
 1646 068b 01       		.uleb128 0x1
 1647 068c 9C       		.byte	0x9c
 1648 068d B4060000 		.4byte	0x6b4
 1649 0691 19       		.uleb128 0x19
 1650 0692 62060000 		.4byte	0x662
 1651 0696 0C000000 		.4byte	.LBB28
 1652 069a 1C000000 		.4byte	.LBE28-.LBB28
 1653 069e 01       		.byte	0x1
 1654 069f 54       		.byte	0x54
 1655 06a0 1A       		.uleb128 0x1a
 1656 06a1 6F060000 		.4byte	0x66f
 1657 06a5 00000000 		.4byte	.LLST0
 1658 06a9 1B       		.uleb128 0x1b
 1659 06aa 16000000 		.4byte	.LVL1
 1660 06ae 110A0000 		.4byte	0xa11
 1661 06b2 00       		.byte	0
 1662 06b3 00       		.byte	0
 1663 06b4 18       		.uleb128 0x18
 1664 06b5 64010000 		.4byte	.LASF90
 1665 06b9 01       		.byte	0x1
 1666 06ba 5C       		.byte	0x5c
 1667 06bb 00000000 		.4byte	.LFB8
 1668 06bf 28000000 		.4byte	.LFE8-.LFB8
 1669 06c3 01       		.uleb128 0x1
 1670 06c4 9C       		.byte	0x9c
 1671 06c5 EC060000 		.4byte	0x6ec
 1672 06c9 19       		.uleb128 0x19
 1673 06ca 62060000 		.4byte	0x662
 1674 06ce 0C000000 		.4byte	.LBB30
 1675 06d2 1C000000 		.4byte	.LBE30-.LBB30
 1676 06d6 01       		.byte	0x1
 1677 06d7 5F       		.byte	0x5f
 1678 06d8 1A       		.uleb128 0x1a
 1679 06d9 6F060000 		.4byte	0x66f
 1680 06dd 18000000 		.4byte	.LLST1
 1681 06e1 1B       		.uleb128 0x1b
 1682 06e2 16000000 		.4byte	.LVL3
 1683 06e6 110A0000 		.4byte	0xa11
 1684 06ea 00       		.byte	0
 1685 06eb 00       		.byte	0
 1686 06ec 18       		.uleb128 0x18
 1687 06ed 35050000 		.4byte	.LASF91
 1688 06f1 01       		.byte	0x1
ARM GAS  /tmp/ccik12TF.s 			page 31


 1689 06f2 67       		.byte	0x67
 1690 06f3 00000000 		.4byte	.LFB9
 1691 06f7 28000000 		.4byte	.LFE9-.LFB9
 1692 06fb 01       		.uleb128 0x1
 1693 06fc 9C       		.byte	0x9c
 1694 06fd 24070000 		.4byte	0x724
 1695 0701 19       		.uleb128 0x19
 1696 0702 62060000 		.4byte	0x662
 1697 0706 0C000000 		.4byte	.LBB32
 1698 070a 1C000000 		.4byte	.LBE32-.LBB32
 1699 070e 01       		.byte	0x1
 1700 070f 6A       		.byte	0x6a
 1701 0710 1A       		.uleb128 0x1a
 1702 0711 6F060000 		.4byte	0x66f
 1703 0715 30000000 		.4byte	.LLST2
 1704 0719 1B       		.uleb128 0x1b
 1705 071a 16000000 		.4byte	.LVL5
 1706 071e 110A0000 		.4byte	0xa11
 1707 0722 00       		.byte	0
 1708 0723 00       		.byte	0
 1709 0724 18       		.uleb128 0x18
 1710 0725 41020000 		.4byte	.LASF92
 1711 0729 01       		.byte	0x1
 1712 072a 72       		.byte	0x72
 1713 072b 00000000 		.4byte	.LFB10
 1714 072f 30000000 		.4byte	.LFE10-.LFB10
 1715 0733 01       		.uleb128 0x1
 1716 0734 9C       		.byte	0x9c
 1717 0735 5C070000 		.4byte	0x75c
 1718 0739 19       		.uleb128 0x19
 1719 073a 62060000 		.4byte	0x662
 1720 073e 0E000000 		.4byte	.LBB34
 1721 0742 0A000000 		.4byte	.LBE34-.LBB34
 1722 0746 01       		.byte	0x1
 1723 0747 75       		.byte	0x75
 1724 0748 1A       		.uleb128 0x1a
 1725 0749 6F060000 		.4byte	0x66f
 1726 074d 48000000 		.4byte	.LLST3
 1727 0751 1C       		.uleb128 0x1c
 1728 0752 18000000 		.4byte	.LVL7
 1729 0756 110A0000 		.4byte	0xa11
 1730 075a 00       		.byte	0
 1731 075b 00       		.byte	0
 1732 075c 18       		.uleb128 0x18
 1733 075d 8C020000 		.4byte	.LASF93
 1734 0761 01       		.byte	0x1
 1735 0762 7E       		.byte	0x7e
 1736 0763 00000000 		.4byte	.LFB11
 1737 0767 38000000 		.4byte	.LFE11-.LFB11
 1738 076b 01       		.uleb128 0x1
 1739 076c 9C       		.byte	0x9c
 1740 076d 97070000 		.4byte	0x797
 1741 0771 19       		.uleb128 0x19
 1742 0772 62060000 		.4byte	0x662
 1743 0776 16000000 		.4byte	.LBB36
 1744 077a 0A000000 		.4byte	.LBE36-.LBB36
 1745 077e 01       		.byte	0x1
ARM GAS  /tmp/ccik12TF.s 			page 32


 1746 077f 81       		.byte	0x81
 1747 0780 1D       		.uleb128 0x1d
 1748 0781 6F060000 		.4byte	0x66f
 1749 0785 06       		.uleb128 0x6
 1750 0786 03       		.byte	0x3
 1751 0787 20000000 		.4byte	.LC4
 1752 078b 9F       		.byte	0x9f
 1753 078c 1C       		.uleb128 0x1c
 1754 078d 20000000 		.4byte	.LVL9
 1755 0791 110A0000 		.4byte	0xa11
 1756 0795 00       		.byte	0
 1757 0796 00       		.byte	0
 1758 0797 18       		.uleb128 0x18
 1759 0798 89050000 		.4byte	.LASF94
 1760 079c 01       		.byte	0x1
 1761 079d 8A       		.byte	0x8a
 1762 079e 00000000 		.4byte	.LFB12
 1763 07a2 30000000 		.4byte	.LFE12-.LFB12
 1764 07a6 01       		.uleb128 0x1
 1765 07a7 9C       		.byte	0x9c
 1766 07a8 CF070000 		.4byte	0x7cf
 1767 07ac 19       		.uleb128 0x19
 1768 07ad 62060000 		.4byte	0x662
 1769 07b1 10000000 		.4byte	.LBB38
 1770 07b5 0A000000 		.4byte	.LBE38-.LBB38
 1771 07b9 01       		.byte	0x1
 1772 07ba 8D       		.byte	0x8d
 1773 07bb 1A       		.uleb128 0x1a
 1774 07bc 6F060000 		.4byte	0x66f
 1775 07c0 60000000 		.4byte	.LLST4
 1776 07c4 1C       		.uleb128 0x1c
 1777 07c5 1A000000 		.4byte	.LVL11
 1778 07c9 110A0000 		.4byte	0xa11
 1779 07cd 00       		.byte	0
 1780 07ce 00       		.byte	0
 1781 07cf 18       		.uleb128 0x18
 1782 07d0 96000000 		.4byte	.LASF95
 1783 07d4 01       		.byte	0x1
 1784 07d5 96       		.byte	0x96
 1785 07d6 00000000 		.4byte	.LFB13
 1786 07da 38000000 		.4byte	.LFE13-.LFB13
 1787 07de 01       		.uleb128 0x1
 1788 07df 9C       		.byte	0x9c
 1789 07e0 0A080000 		.4byte	0x80a
 1790 07e4 19       		.uleb128 0x19
 1791 07e5 62060000 		.4byte	0x662
 1792 07e9 18000000 		.4byte	.LBB40
 1793 07ed 0A000000 		.4byte	.LBE40-.LBB40
 1794 07f1 01       		.byte	0x1
 1795 07f2 99       		.byte	0x99
 1796 07f3 1D       		.uleb128 0x1d
 1797 07f4 6F060000 		.4byte	0x66f
 1798 07f8 06       		.uleb128 0x6
 1799 07f9 03       		.byte	0x3
 1800 07fa 30000000 		.4byte	.LC6
 1801 07fe 9F       		.byte	0x9f
 1802 07ff 1C       		.uleb128 0x1c
ARM GAS  /tmp/ccik12TF.s 			page 33


 1803 0800 22000000 		.4byte	.LVL13
 1804 0804 110A0000 		.4byte	0xa11
 1805 0808 00       		.byte	0
 1806 0809 00       		.byte	0
 1807 080a 18       		.uleb128 0x18
 1808 080b 67050000 		.4byte	.LASF96
 1809 080f 01       		.byte	0x1
 1810 0810 A2       		.byte	0xa2
 1811 0811 00000000 		.4byte	.LFB14
 1812 0815 40000000 		.4byte	.LFE14-.LFB14
 1813 0819 01       		.uleb128 0x1
 1814 081a 9C       		.byte	0x9c
 1815 081b 78080000 		.4byte	0x878
 1816 081f 1E       		.uleb128 0x1e
 1817 0820 02000000 		.4byte	.LBB42
 1818 0824 06000000 		.4byte	.LBE42-.LBB42
 1819 0828 3A080000 		.4byte	0x83a
 1820 082c 1F       		.uleb128 0x1f
 1821 082d 746D7000 		.ascii	"tmp\000"
 1822 0831 01       		.byte	0x1
 1823 0832 A4       		.byte	0xa4
 1824 0833 AD000000 		.4byte	0xad
 1825 0837 01       		.uleb128 0x1
 1826 0838 53       		.byte	0x53
 1827 0839 00       		.byte	0
 1828 083a 20       		.uleb128 0x20
 1829 083b 62060000 		.4byte	0x662
 1830 083f 16000000 		.4byte	.LBB43
 1831 0843 0C000000 		.4byte	.LBE43-.LBB43
 1832 0847 01       		.byte	0x1
 1833 0848 A6       		.byte	0xa6
 1834 0849 60080000 		.4byte	0x860
 1835 084d 1A       		.uleb128 0x1a
 1836 084e 6F060000 		.4byte	0x66f
 1837 0852 78000000 		.4byte	.LLST5
 1838 0856 1C       		.uleb128 0x1c
 1839 0857 20000000 		.4byte	.LVL15
 1840 085b 110A0000 		.4byte	0xa11
 1841 085f 00       		.byte	0
 1842 0860 21       		.uleb128 0x21
 1843 0861 26000000 		.4byte	.LBB45
 1844 0865 1A000000 		.4byte	.LBE45-.LBB45
 1845 0869 1F       		.uleb128 0x1f
 1846 086a 746D7000 		.ascii	"tmp\000"
 1847 086e 01       		.byte	0x1
 1848 086f A8       		.byte	0xa8
 1849 0870 AD000000 		.4byte	0xad
 1850 0874 01       		.uleb128 0x1
 1851 0875 53       		.byte	0x53
 1852 0876 00       		.byte	0
 1853 0877 00       		.byte	0
 1854 0878 18       		.uleb128 0x18
 1855 0879 68000000 		.4byte	.LASF97
 1856 087d 01       		.byte	0x1
 1857 087e B0       		.byte	0xb0
 1858 087f 00000000 		.4byte	.LFB15
 1859 0883 40000000 		.4byte	.LFE15-.LFB15
ARM GAS  /tmp/ccik12TF.s 			page 34


 1860 0887 01       		.uleb128 0x1
 1861 0888 9C       		.byte	0x9c
 1862 0889 E6080000 		.4byte	0x8e6
 1863 088d 1E       		.uleb128 0x1e
 1864 088e 02000000 		.4byte	.LBB46
 1865 0892 06000000 		.4byte	.LBE46-.LBB46
 1866 0896 A8080000 		.4byte	0x8a8
 1867 089a 1F       		.uleb128 0x1f
 1868 089b 746D7000 		.ascii	"tmp\000"
 1869 089f 01       		.byte	0x1
 1870 08a0 B2       		.byte	0xb2
 1871 08a1 AD000000 		.4byte	0xad
 1872 08a5 01       		.uleb128 0x1
 1873 08a6 53       		.byte	0x53
 1874 08a7 00       		.byte	0
 1875 08a8 20       		.uleb128 0x20
 1876 08a9 62060000 		.4byte	0x662
 1877 08ad 16000000 		.4byte	.LBB47
 1878 08b1 0C000000 		.4byte	.LBE47-.LBB47
 1879 08b5 01       		.byte	0x1
 1880 08b6 B4       		.byte	0xb4
 1881 08b7 CE080000 		.4byte	0x8ce
 1882 08bb 1A       		.uleb128 0x1a
 1883 08bc 6F060000 		.4byte	0x66f
 1884 08c0 90000000 		.4byte	.LLST6
 1885 08c4 1C       		.uleb128 0x1c
 1886 08c5 20000000 		.4byte	.LVL18
 1887 08c9 110A0000 		.4byte	0xa11
 1888 08cd 00       		.byte	0
 1889 08ce 21       		.uleb128 0x21
 1890 08cf 26000000 		.4byte	.LBB49
 1891 08d3 1A000000 		.4byte	.LBE49-.LBB49
 1892 08d7 1F       		.uleb128 0x1f
 1893 08d8 746D7000 		.ascii	"tmp\000"
 1894 08dc 01       		.byte	0x1
 1895 08dd B6       		.byte	0xb6
 1896 08de AD000000 		.4byte	0xad
 1897 08e2 01       		.uleb128 0x1
 1898 08e3 53       		.byte	0x53
 1899 08e4 00       		.byte	0
 1900 08e5 00       		.byte	0
 1901 08e6 18       		.uleb128 0x18
 1902 08e7 B8010000 		.4byte	.LASF98
 1903 08eb 01       		.byte	0x1
 1904 08ec C1       		.byte	0xc1
 1905 08ed 00000000 		.4byte	.LFB16
 1906 08f1 2C000000 		.4byte	.LFE16-.LFB16
 1907 08f5 01       		.uleb128 0x1
 1908 08f6 9C       		.byte	0x9c
 1909 08f7 21090000 		.4byte	0x921
 1910 08fb 19       		.uleb128 0x19
 1911 08fc 62060000 		.4byte	0x662
 1912 0900 12000000 		.4byte	.LBB50
 1913 0904 1A000000 		.4byte	.LBE50-.LBB50
 1914 0908 01       		.byte	0x1
 1915 0909 C4       		.byte	0xc4
 1916 090a 1D       		.uleb128 0x1d
ARM GAS  /tmp/ccik12TF.s 			page 35


 1917 090b 6F060000 		.4byte	0x66f
 1918 090f 06       		.uleb128 0x6
 1919 0910 03       		.byte	0x3
 1920 0911 48000000 		.4byte	.LC9
 1921 0915 9F       		.byte	0x9f
 1922 0916 1B       		.uleb128 0x1b
 1923 0917 1C000000 		.4byte	.LVL21
 1924 091b 110A0000 		.4byte	0xa11
 1925 091f 00       		.byte	0
 1926 0920 00       		.byte	0
 1927 0921 18       		.uleb128 0x18
 1928 0922 DD010000 		.4byte	.LASF99
 1929 0926 01       		.byte	0x1
 1930 0927 CF       		.byte	0xcf
 1931 0928 00000000 		.4byte	.LFB17
 1932 092c 2C000000 		.4byte	.LFE17-.LFB17
 1933 0930 01       		.uleb128 0x1
 1934 0931 9C       		.byte	0x9c
 1935 0932 5C090000 		.4byte	0x95c
 1936 0936 19       		.uleb128 0x19
 1937 0937 62060000 		.4byte	0x662
 1938 093b 10000000 		.4byte	.LBB52
 1939 093f 1C000000 		.4byte	.LBE52-.LBB52
 1940 0943 01       		.byte	0x1
 1941 0944 D2       		.byte	0xd2
 1942 0945 1D       		.uleb128 0x1d
 1943 0946 6F060000 		.4byte	0x66f
 1944 094a 06       		.uleb128 0x6
 1945 094b 03       		.byte	0x3
 1946 094c 50000000 		.4byte	.LC10
 1947 0950 9F       		.byte	0x9f
 1948 0951 1B       		.uleb128 0x1b
 1949 0952 1A000000 		.4byte	.LVL23
 1950 0956 110A0000 		.4byte	0xa11
 1951 095a 00       		.byte	0
 1952 095b 00       		.byte	0
 1953 095c 22       		.uleb128 0x22
 1954 095d 9E010000 		.4byte	.LASF111
 1955 0961 01       		.byte	0x1
 1956 0962 E5       		.byte	0xe5
 1957 0963 00000000 		.4byte	.LFB18
 1958 0967 14000000 		.4byte	.LFE18-.LFB18
 1959 096b 01       		.uleb128 0x1
 1960 096c 9C       		.byte	0x9c
 1961 096d 18       		.uleb128 0x18
 1962 096e 3F010000 		.4byte	.LASF100
 1963 0972 01       		.byte	0x1
 1964 0973 F2       		.byte	0xf2
 1965 0974 00000000 		.4byte	.LFB19
 1966 0978 40000000 		.4byte	.LFE19-.LFB19
 1967 097c 01       		.uleb128 0x1
 1968 097d 9C       		.byte	0x9c
 1969 097e 90090000 		.4byte	0x990
 1970 0982 23       		.uleb128 0x23
 1971 0983 6F747000 		.ascii	"otp\000"
 1972 0987 01       		.byte	0x1
 1973 0988 F2       		.byte	0xf2
ARM GAS  /tmp/ccik12TF.s 			page 36


 1974 0989 62020000 		.4byte	0x262
 1975 098d 01       		.uleb128 0x1
 1976 098e 50       		.byte	0x50
 1977 098f 00       		.byte	0
 1978 0990 24       		.uleb128 0x24
 1979 0991 62060000 		.4byte	0x662
 1980 0995 00000000 		.4byte	.LFB20
 1981 0999 0C000000 		.4byte	.LFE20-.LFB20
 1982 099d 01       		.uleb128 0x1
 1983 099e 9C       		.byte	0x9c
 1984 099f B6090000 		.4byte	0x9b6
 1985 09a3 1A       		.uleb128 0x1a
 1986 09a4 6F060000 		.4byte	0x66f
 1987 09a8 A8000000 		.4byte	.LLST7
 1988 09ac 1B       		.uleb128 0x1b
 1989 09ad 08000000 		.4byte	.LVL26
 1990 09b1 110A0000 		.4byte	0xa11
 1991 09b5 00       		.byte	0
 1992 09b6 25       		.uleb128 0x25
 1993 09b7 2B000000 		.4byte	.LASF101
 1994 09bb 08       		.byte	0x8
 1995 09bc F5       		.byte	0xf5
 1996 09bd D3040000 		.4byte	0x4d3
 1997 09c1 25       		.uleb128 0x25
 1998 09c2 7B050000 		.4byte	.LASF102
 1999 09c6 09       		.byte	0x9
 2000 09c7 6F       		.byte	0x6f
 2001 09c8 2F050000 		.4byte	0x52f
 2002 09cc 26       		.uleb128 0x26
 2003 09cd A8020000 		.4byte	.LASF103
 2004 09d1 01       		.byte	0x1
 2005 09d2 DF       		.byte	0xdf
 2006 09d3 57060000 		.4byte	0x657
 2007 09d7 05       		.uleb128 0x5
 2008 09d8 03       		.byte	0x3
 2009 09d9 00000000 		.4byte	dbg_trace_buffer
 2010 09dd 26       		.uleb128 0x26
 2011 09de D1010000 		.4byte	.LASF104
 2012 09e2 01       		.byte	0x1
 2013 09e3 45       		.byte	0x45
 2014 09e4 22010000 		.4byte	0x122
 2015 09e8 05       		.uleb128 0x5
 2016 09e9 03       		.byte	0x3
 2017 09ea 00000000 		.4byte	dbg_isr_cnt
 2018 09ee 26       		.uleb128 0x26
 2019 09ef CC040000 		.4byte	.LASF105
 2020 09f3 01       		.byte	0x1
 2021 09f4 4A       		.byte	0x4a
 2022 09f5 22010000 		.4byte	0x122
 2023 09f9 05       		.uleb128 0x5
 2024 09fa 03       		.byte	0x3
 2025 09fb 00000000 		.4byte	dbg_lock_cnt
 2026 09ff 27       		.uleb128 0x27
 2027 0a00 F6020000 		.4byte	.LASF106
 2028 0a04 01       		.byte	0x1
 2029 0a05 0801     		.2byte	0x108
 2030 0a07 B1050000 		.4byte	0x5b1
ARM GAS  /tmp/ccik12TF.s 			page 37


 2031 0a0b 05       		.uleb128 0x5
 2032 0a0c 03       		.byte	0x3
 2033 0a0d 00000000 		.4byte	dbg_panic_msg
 2034 0a11 28       		.uleb128 0x28
 2035 0a12 2F020000 		.4byte	.LASF112
 2036 0a16 07       		.byte	0x7
 2037 0a17 0102     		.2byte	0x201
 2038 0a19 00       		.byte	0
 2039              		.section	.debug_abbrev,"",%progbits
 2040              	.Ldebug_abbrev0:
 2041 0000 01       		.uleb128 0x1
 2042 0001 11       		.uleb128 0x11
 2043 0002 01       		.byte	0x1
 2044 0003 25       		.uleb128 0x25
 2045 0004 0E       		.uleb128 0xe
 2046 0005 13       		.uleb128 0x13
 2047 0006 0B       		.uleb128 0xb
 2048 0007 03       		.uleb128 0x3
 2049 0008 0E       		.uleb128 0xe
 2050 0009 1B       		.uleb128 0x1b
 2051 000a 0E       		.uleb128 0xe
 2052 000b 55       		.uleb128 0x55
 2053 000c 17       		.uleb128 0x17
 2054 000d 11       		.uleb128 0x11
 2055 000e 01       		.uleb128 0x1
 2056 000f 10       		.uleb128 0x10
 2057 0010 17       		.uleb128 0x17
 2058 0011 00       		.byte	0
 2059 0012 00       		.byte	0
 2060 0013 02       		.uleb128 0x2
 2061 0014 24       		.uleb128 0x24
 2062 0015 00       		.byte	0
 2063 0016 0B       		.uleb128 0xb
 2064 0017 0B       		.uleb128 0xb
 2065 0018 3E       		.uleb128 0x3e
 2066 0019 0B       		.uleb128 0xb
 2067 001a 03       		.uleb128 0x3
 2068 001b 08       		.uleb128 0x8
 2069 001c 00       		.byte	0
 2070 001d 00       		.byte	0
 2071 001e 03       		.uleb128 0x3
 2072 001f 24       		.uleb128 0x24
 2073 0020 00       		.byte	0
 2074 0021 0B       		.uleb128 0xb
 2075 0022 0B       		.uleb128 0xb
 2076 0023 3E       		.uleb128 0x3e
 2077 0024 0B       		.uleb128 0xb
 2078 0025 03       		.uleb128 0x3
 2079 0026 0E       		.uleb128 0xe
 2080 0027 00       		.byte	0
 2081 0028 00       		.byte	0
 2082 0029 04       		.uleb128 0x4
 2083 002a 16       		.uleb128 0x16
 2084 002b 00       		.byte	0
 2085 002c 03       		.uleb128 0x3
 2086 002d 0E       		.uleb128 0xe
 2087 002e 3A       		.uleb128 0x3a
ARM GAS  /tmp/ccik12TF.s 			page 38


 2088 002f 0B       		.uleb128 0xb
 2089 0030 3B       		.uleb128 0x3b
 2090 0031 0B       		.uleb128 0xb
 2091 0032 49       		.uleb128 0x49
 2092 0033 13       		.uleb128 0x13
 2093 0034 00       		.byte	0
 2094 0035 00       		.byte	0
 2095 0036 05       		.uleb128 0x5
 2096 0037 13       		.uleb128 0x13
 2097 0038 01       		.byte	0x1
 2098 0039 03       		.uleb128 0x3
 2099 003a 0E       		.uleb128 0xe
 2100 003b 0B       		.uleb128 0xb
 2101 003c 0B       		.uleb128 0xb
 2102 003d 3A       		.uleb128 0x3a
 2103 003e 0B       		.uleb128 0xb
 2104 003f 3B       		.uleb128 0x3b
 2105 0040 0B       		.uleb128 0xb
 2106 0041 01       		.uleb128 0x1
 2107 0042 13       		.uleb128 0x13
 2108 0043 00       		.byte	0
 2109 0044 00       		.byte	0
 2110 0045 06       		.uleb128 0x6
 2111 0046 0D       		.uleb128 0xd
 2112 0047 00       		.byte	0
 2113 0048 03       		.uleb128 0x3
 2114 0049 0E       		.uleb128 0xe
 2115 004a 3A       		.uleb128 0x3a
 2116 004b 0B       		.uleb128 0xb
 2117 004c 3B       		.uleb128 0x3b
 2118 004d 0B       		.uleb128 0xb
 2119 004e 49       		.uleb128 0x49
 2120 004f 13       		.uleb128 0x13
 2121 0050 38       		.uleb128 0x38
 2122 0051 0B       		.uleb128 0xb
 2123 0052 00       		.byte	0
 2124 0053 00       		.byte	0
 2125 0054 07       		.uleb128 0x7
 2126 0055 0D       		.uleb128 0xd
 2127 0056 00       		.byte	0
 2128 0057 03       		.uleb128 0x3
 2129 0058 08       		.uleb128 0x8
 2130 0059 3A       		.uleb128 0x3a
 2131 005a 0B       		.uleb128 0xb
 2132 005b 3B       		.uleb128 0x3b
 2133 005c 0B       		.uleb128 0xb
 2134 005d 49       		.uleb128 0x49
 2135 005e 13       		.uleb128 0x13
 2136 005f 38       		.uleb128 0x38
 2137 0060 0B       		.uleb128 0xb
 2138 0061 00       		.byte	0
 2139 0062 00       		.byte	0
 2140 0063 08       		.uleb128 0x8
 2141 0064 13       		.uleb128 0x13
 2142 0065 01       		.byte	0x1
 2143 0066 0B       		.uleb128 0xb
 2144 0067 0B       		.uleb128 0xb
ARM GAS  /tmp/ccik12TF.s 			page 39


 2145 0068 3A       		.uleb128 0x3a
 2146 0069 0B       		.uleb128 0xb
 2147 006a 3B       		.uleb128 0x3b
 2148 006b 0B       		.uleb128 0xb
 2149 006c 01       		.uleb128 0x1
 2150 006d 13       		.uleb128 0x13
 2151 006e 00       		.byte	0
 2152 006f 00       		.byte	0
 2153 0070 09       		.uleb128 0x9
 2154 0071 0F       		.uleb128 0xf
 2155 0072 00       		.byte	0
 2156 0073 0B       		.uleb128 0xb
 2157 0074 0B       		.uleb128 0xb
 2158 0075 49       		.uleb128 0x49
 2159 0076 13       		.uleb128 0x13
 2160 0077 00       		.byte	0
 2161 0078 00       		.byte	0
 2162 0079 0A       		.uleb128 0xa
 2163 007a 0F       		.uleb128 0xf
 2164 007b 00       		.byte	0
 2165 007c 0B       		.uleb128 0xb
 2166 007d 0B       		.uleb128 0xb
 2167 007e 00       		.byte	0
 2168 007f 00       		.byte	0
 2169 0080 0B       		.uleb128 0xb
 2170 0081 13       		.uleb128 0x13
 2171 0082 01       		.byte	0x1
 2172 0083 03       		.uleb128 0x3
 2173 0084 0E       		.uleb128 0xe
 2174 0085 0B       		.uleb128 0xb
 2175 0086 0B       		.uleb128 0xb
 2176 0087 3A       		.uleb128 0x3a
 2177 0088 0B       		.uleb128 0xb
 2178 0089 3B       		.uleb128 0x3b
 2179 008a 05       		.uleb128 0x5
 2180 008b 01       		.uleb128 0x1
 2181 008c 13       		.uleb128 0x13
 2182 008d 00       		.byte	0
 2183 008e 00       		.byte	0
 2184 008f 0C       		.uleb128 0xc
 2185 0090 0D       		.uleb128 0xd
 2186 0091 00       		.byte	0
 2187 0092 03       		.uleb128 0x3
 2188 0093 08       		.uleb128 0x8
 2189 0094 3A       		.uleb128 0x3a
 2190 0095 0B       		.uleb128 0xb
 2191 0096 3B       		.uleb128 0x3b
 2192 0097 05       		.uleb128 0x5
 2193 0098 49       		.uleb128 0x49
 2194 0099 13       		.uleb128 0x13
 2195 009a 38       		.uleb128 0x38
 2196 009b 0B       		.uleb128 0xb
 2197 009c 00       		.byte	0
 2198 009d 00       		.byte	0
 2199 009e 0D       		.uleb128 0xd
 2200 009f 15       		.uleb128 0x15
 2201 00a0 01       		.byte	0x1
ARM GAS  /tmp/ccik12TF.s 			page 40


 2202 00a1 27       		.uleb128 0x27
 2203 00a2 19       		.uleb128 0x19
 2204 00a3 01       		.uleb128 0x1
 2205 00a4 13       		.uleb128 0x13
 2206 00a5 00       		.byte	0
 2207 00a6 00       		.byte	0
 2208 00a7 0E       		.uleb128 0xe
 2209 00a8 05       		.uleb128 0x5
 2210 00a9 00       		.byte	0
 2211 00aa 49       		.uleb128 0x49
 2212 00ab 13       		.uleb128 0x13
 2213 00ac 00       		.byte	0
 2214 00ad 00       		.byte	0
 2215 00ae 0F       		.uleb128 0xf
 2216 00af 35       		.uleb128 0x35
 2217 00b0 00       		.byte	0
 2218 00b1 49       		.uleb128 0x49
 2219 00b2 13       		.uleb128 0x13
 2220 00b3 00       		.byte	0
 2221 00b4 00       		.byte	0
 2222 00b5 10       		.uleb128 0x10
 2223 00b6 17       		.uleb128 0x17
 2224 00b7 01       		.byte	0x1
 2225 00b8 0B       		.uleb128 0xb
 2226 00b9 0B       		.uleb128 0xb
 2227 00ba 3A       		.uleb128 0x3a
 2228 00bb 0B       		.uleb128 0xb
 2229 00bc 3B       		.uleb128 0x3b
 2230 00bd 0B       		.uleb128 0xb
 2231 00be 01       		.uleb128 0x1
 2232 00bf 13       		.uleb128 0x13
 2233 00c0 00       		.byte	0
 2234 00c1 00       		.byte	0
 2235 00c2 11       		.uleb128 0x11
 2236 00c3 0D       		.uleb128 0xd
 2237 00c4 00       		.byte	0
 2238 00c5 03       		.uleb128 0x3
 2239 00c6 0E       		.uleb128 0xe
 2240 00c7 3A       		.uleb128 0x3a
 2241 00c8 0B       		.uleb128 0xb
 2242 00c9 3B       		.uleb128 0x3b
 2243 00ca 0B       		.uleb128 0xb
 2244 00cb 49       		.uleb128 0x49
 2245 00cc 13       		.uleb128 0x13
 2246 00cd 00       		.byte	0
 2247 00ce 00       		.byte	0
 2248 00cf 12       		.uleb128 0x12
 2249 00d0 26       		.uleb128 0x26
 2250 00d1 00       		.byte	0
 2251 00d2 49       		.uleb128 0x49
 2252 00d3 13       		.uleb128 0x13
 2253 00d4 00       		.byte	0
 2254 00d5 00       		.byte	0
 2255 00d6 13       		.uleb128 0x13
 2256 00d7 13       		.uleb128 0x13
 2257 00d8 01       		.byte	0x1
 2258 00d9 0B       		.uleb128 0xb
ARM GAS  /tmp/ccik12TF.s 			page 41


 2259 00da 05       		.uleb128 0x5
 2260 00db 3A       		.uleb128 0x3a
 2261 00dc 0B       		.uleb128 0xb
 2262 00dd 3B       		.uleb128 0x3b
 2263 00de 0B       		.uleb128 0xb
 2264 00df 01       		.uleb128 0x1
 2265 00e0 13       		.uleb128 0x13
 2266 00e1 00       		.byte	0
 2267 00e2 00       		.byte	0
 2268 00e3 14       		.uleb128 0x14
 2269 00e4 01       		.uleb128 0x1
 2270 00e5 01       		.byte	0x1
 2271 00e6 49       		.uleb128 0x49
 2272 00e7 13       		.uleb128 0x13
 2273 00e8 01       		.uleb128 0x1
 2274 00e9 13       		.uleb128 0x13
 2275 00ea 00       		.byte	0
 2276 00eb 00       		.byte	0
 2277 00ec 15       		.uleb128 0x15
 2278 00ed 21       		.uleb128 0x21
 2279 00ee 00       		.byte	0
 2280 00ef 49       		.uleb128 0x49
 2281 00f0 13       		.uleb128 0x13
 2282 00f1 2F       		.uleb128 0x2f
 2283 00f2 0B       		.uleb128 0xb
 2284 00f3 00       		.byte	0
 2285 00f4 00       		.byte	0
 2286 00f5 16       		.uleb128 0x16
 2287 00f6 2E       		.uleb128 0x2e
 2288 00f7 01       		.byte	0x1
 2289 00f8 3F       		.uleb128 0x3f
 2290 00f9 19       		.uleb128 0x19
 2291 00fa 03       		.uleb128 0x3
 2292 00fb 0E       		.uleb128 0xe
 2293 00fc 3A       		.uleb128 0x3a
 2294 00fd 0B       		.uleb128 0xb
 2295 00fe 3B       		.uleb128 0x3b
 2296 00ff 05       		.uleb128 0x5
 2297 0100 27       		.uleb128 0x27
 2298 0101 19       		.uleb128 0x19
 2299 0102 20       		.uleb128 0x20
 2300 0103 0B       		.uleb128 0xb
 2301 0104 01       		.uleb128 0x1
 2302 0105 13       		.uleb128 0x13
 2303 0106 00       		.byte	0
 2304 0107 00       		.byte	0
 2305 0108 17       		.uleb128 0x17
 2306 0109 05       		.uleb128 0x5
 2307 010a 00       		.byte	0
 2308 010b 03       		.uleb128 0x3
 2309 010c 08       		.uleb128 0x8
 2310 010d 3A       		.uleb128 0x3a
 2311 010e 0B       		.uleb128 0xb
 2312 010f 3B       		.uleb128 0x3b
 2313 0110 05       		.uleb128 0x5
 2314 0111 49       		.uleb128 0x49
 2315 0112 13       		.uleb128 0x13
ARM GAS  /tmp/ccik12TF.s 			page 42


 2316 0113 00       		.byte	0
 2317 0114 00       		.byte	0
 2318 0115 18       		.uleb128 0x18
 2319 0116 2E       		.uleb128 0x2e
 2320 0117 01       		.byte	0x1
 2321 0118 3F       		.uleb128 0x3f
 2322 0119 19       		.uleb128 0x19
 2323 011a 03       		.uleb128 0x3
 2324 011b 0E       		.uleb128 0xe
 2325 011c 3A       		.uleb128 0x3a
 2326 011d 0B       		.uleb128 0xb
 2327 011e 3B       		.uleb128 0x3b
 2328 011f 0B       		.uleb128 0xb
 2329 0120 27       		.uleb128 0x27
 2330 0121 19       		.uleb128 0x19
 2331 0122 11       		.uleb128 0x11
 2332 0123 01       		.uleb128 0x1
 2333 0124 12       		.uleb128 0x12
 2334 0125 06       		.uleb128 0x6
 2335 0126 40       		.uleb128 0x40
 2336 0127 18       		.uleb128 0x18
 2337 0128 9742     		.uleb128 0x2117
 2338 012a 19       		.uleb128 0x19
 2339 012b 01       		.uleb128 0x1
 2340 012c 13       		.uleb128 0x13
 2341 012d 00       		.byte	0
 2342 012e 00       		.byte	0
 2343 012f 19       		.uleb128 0x19
 2344 0130 1D       		.uleb128 0x1d
 2345 0131 01       		.byte	0x1
 2346 0132 31       		.uleb128 0x31
 2347 0133 13       		.uleb128 0x13
 2348 0134 11       		.uleb128 0x11
 2349 0135 01       		.uleb128 0x1
 2350 0136 12       		.uleb128 0x12
 2351 0137 06       		.uleb128 0x6
 2352 0138 58       		.uleb128 0x58
 2353 0139 0B       		.uleb128 0xb
 2354 013a 59       		.uleb128 0x59
 2355 013b 0B       		.uleb128 0xb
 2356 013c 00       		.byte	0
 2357 013d 00       		.byte	0
 2358 013e 1A       		.uleb128 0x1a
 2359 013f 05       		.uleb128 0x5
 2360 0140 00       		.byte	0
 2361 0141 31       		.uleb128 0x31
 2362 0142 13       		.uleb128 0x13
 2363 0143 02       		.uleb128 0x2
 2364 0144 17       		.uleb128 0x17
 2365 0145 00       		.byte	0
 2366 0146 00       		.byte	0
 2367 0147 1B       		.uleb128 0x1b
 2368 0148 898201   		.uleb128 0x4109
 2369 014b 00       		.byte	0
 2370 014c 11       		.uleb128 0x11
 2371 014d 01       		.uleb128 0x1
 2372 014e 9542     		.uleb128 0x2115
ARM GAS  /tmp/ccik12TF.s 			page 43


 2373 0150 19       		.uleb128 0x19
 2374 0151 31       		.uleb128 0x31
 2375 0152 13       		.uleb128 0x13
 2376 0153 00       		.byte	0
 2377 0154 00       		.byte	0
 2378 0155 1C       		.uleb128 0x1c
 2379 0156 898201   		.uleb128 0x4109
 2380 0159 00       		.byte	0
 2381 015a 11       		.uleb128 0x11
 2382 015b 01       		.uleb128 0x1
 2383 015c 31       		.uleb128 0x31
 2384 015d 13       		.uleb128 0x13
 2385 015e 00       		.byte	0
 2386 015f 00       		.byte	0
 2387 0160 1D       		.uleb128 0x1d
 2388 0161 05       		.uleb128 0x5
 2389 0162 00       		.byte	0
 2390 0163 31       		.uleb128 0x31
 2391 0164 13       		.uleb128 0x13
 2392 0165 02       		.uleb128 0x2
 2393 0166 18       		.uleb128 0x18
 2394 0167 00       		.byte	0
 2395 0168 00       		.byte	0
 2396 0169 1E       		.uleb128 0x1e
 2397 016a 0B       		.uleb128 0xb
 2398 016b 01       		.byte	0x1
 2399 016c 11       		.uleb128 0x11
 2400 016d 01       		.uleb128 0x1
 2401 016e 12       		.uleb128 0x12
 2402 016f 06       		.uleb128 0x6
 2403 0170 01       		.uleb128 0x1
 2404 0171 13       		.uleb128 0x13
 2405 0172 00       		.byte	0
 2406 0173 00       		.byte	0
 2407 0174 1F       		.uleb128 0x1f
 2408 0175 34       		.uleb128 0x34
 2409 0176 00       		.byte	0
 2410 0177 03       		.uleb128 0x3
 2411 0178 08       		.uleb128 0x8
 2412 0179 3A       		.uleb128 0x3a
 2413 017a 0B       		.uleb128 0xb
 2414 017b 3B       		.uleb128 0x3b
 2415 017c 0B       		.uleb128 0xb
 2416 017d 49       		.uleb128 0x49
 2417 017e 13       		.uleb128 0x13
 2418 017f 02       		.uleb128 0x2
 2419 0180 18       		.uleb128 0x18
 2420 0181 00       		.byte	0
 2421 0182 00       		.byte	0
 2422 0183 20       		.uleb128 0x20
 2423 0184 1D       		.uleb128 0x1d
 2424 0185 01       		.byte	0x1
 2425 0186 31       		.uleb128 0x31
 2426 0187 13       		.uleb128 0x13
 2427 0188 11       		.uleb128 0x11
 2428 0189 01       		.uleb128 0x1
 2429 018a 12       		.uleb128 0x12
ARM GAS  /tmp/ccik12TF.s 			page 44


 2430 018b 06       		.uleb128 0x6
 2431 018c 58       		.uleb128 0x58
 2432 018d 0B       		.uleb128 0xb
 2433 018e 59       		.uleb128 0x59
 2434 018f 0B       		.uleb128 0xb
 2435 0190 01       		.uleb128 0x1
 2436 0191 13       		.uleb128 0x13
 2437 0192 00       		.byte	0
 2438 0193 00       		.byte	0
 2439 0194 21       		.uleb128 0x21
 2440 0195 0B       		.uleb128 0xb
 2441 0196 01       		.byte	0x1
 2442 0197 11       		.uleb128 0x11
 2443 0198 01       		.uleb128 0x1
 2444 0199 12       		.uleb128 0x12
 2445 019a 06       		.uleb128 0x6
 2446 019b 00       		.byte	0
 2447 019c 00       		.byte	0
 2448 019d 22       		.uleb128 0x22
 2449 019e 2E       		.uleb128 0x2e
 2450 019f 00       		.byte	0
 2451 01a0 3F       		.uleb128 0x3f
 2452 01a1 19       		.uleb128 0x19
 2453 01a2 03       		.uleb128 0x3
 2454 01a3 0E       		.uleb128 0xe
 2455 01a4 3A       		.uleb128 0x3a
 2456 01a5 0B       		.uleb128 0xb
 2457 01a6 3B       		.uleb128 0x3b
 2458 01a7 0B       		.uleb128 0xb
 2459 01a8 27       		.uleb128 0x27
 2460 01a9 19       		.uleb128 0x19
 2461 01aa 11       		.uleb128 0x11
 2462 01ab 01       		.uleb128 0x1
 2463 01ac 12       		.uleb128 0x12
 2464 01ad 06       		.uleb128 0x6
 2465 01ae 40       		.uleb128 0x40
 2466 01af 18       		.uleb128 0x18
 2467 01b0 9742     		.uleb128 0x2117
 2468 01b2 19       		.uleb128 0x19
 2469 01b3 00       		.byte	0
 2470 01b4 00       		.byte	0
 2471 01b5 23       		.uleb128 0x23
 2472 01b6 05       		.uleb128 0x5
 2473 01b7 00       		.byte	0
 2474 01b8 03       		.uleb128 0x3
 2475 01b9 08       		.uleb128 0x8
 2476 01ba 3A       		.uleb128 0x3a
 2477 01bb 0B       		.uleb128 0xb
 2478 01bc 3B       		.uleb128 0x3b
 2479 01bd 0B       		.uleb128 0xb
 2480 01be 49       		.uleb128 0x49
 2481 01bf 13       		.uleb128 0x13
 2482 01c0 02       		.uleb128 0x2
 2483 01c1 18       		.uleb128 0x18
 2484 01c2 00       		.byte	0
 2485 01c3 00       		.byte	0
 2486 01c4 24       		.uleb128 0x24
ARM GAS  /tmp/ccik12TF.s 			page 45


 2487 01c5 2E       		.uleb128 0x2e
 2488 01c6 01       		.byte	0x1
 2489 01c7 31       		.uleb128 0x31
 2490 01c8 13       		.uleb128 0x13
 2491 01c9 11       		.uleb128 0x11
 2492 01ca 01       		.uleb128 0x1
 2493 01cb 12       		.uleb128 0x12
 2494 01cc 06       		.uleb128 0x6
 2495 01cd 40       		.uleb128 0x40
 2496 01ce 18       		.uleb128 0x18
 2497 01cf 9742     		.uleb128 0x2117
 2498 01d1 19       		.uleb128 0x19
 2499 01d2 01       		.uleb128 0x1
 2500 01d3 13       		.uleb128 0x13
 2501 01d4 00       		.byte	0
 2502 01d5 00       		.byte	0
 2503 01d6 25       		.uleb128 0x25
 2504 01d7 34       		.uleb128 0x34
 2505 01d8 00       		.byte	0
 2506 01d9 03       		.uleb128 0x3
 2507 01da 0E       		.uleb128 0xe
 2508 01db 3A       		.uleb128 0x3a
 2509 01dc 0B       		.uleb128 0xb
 2510 01dd 3B       		.uleb128 0x3b
 2511 01de 0B       		.uleb128 0xb
 2512 01df 49       		.uleb128 0x49
 2513 01e0 13       		.uleb128 0x13
 2514 01e1 3F       		.uleb128 0x3f
 2515 01e2 19       		.uleb128 0x19
 2516 01e3 3C       		.uleb128 0x3c
 2517 01e4 19       		.uleb128 0x19
 2518 01e5 00       		.byte	0
 2519 01e6 00       		.byte	0
 2520 01e7 26       		.uleb128 0x26
 2521 01e8 34       		.uleb128 0x34
 2522 01e9 00       		.byte	0
 2523 01ea 03       		.uleb128 0x3
 2524 01eb 0E       		.uleb128 0xe
 2525 01ec 3A       		.uleb128 0x3a
 2526 01ed 0B       		.uleb128 0xb
 2527 01ee 3B       		.uleb128 0x3b
 2528 01ef 0B       		.uleb128 0xb
 2529 01f0 49       		.uleb128 0x49
 2530 01f1 13       		.uleb128 0x13
 2531 01f2 3F       		.uleb128 0x3f
 2532 01f3 19       		.uleb128 0x19
 2533 01f4 02       		.uleb128 0x2
 2534 01f5 18       		.uleb128 0x18
 2535 01f6 00       		.byte	0
 2536 01f7 00       		.byte	0
 2537 01f8 27       		.uleb128 0x27
 2538 01f9 34       		.uleb128 0x34
 2539 01fa 00       		.byte	0
 2540 01fb 03       		.uleb128 0x3
 2541 01fc 0E       		.uleb128 0xe
 2542 01fd 3A       		.uleb128 0x3a
 2543 01fe 0B       		.uleb128 0xb
ARM GAS  /tmp/ccik12TF.s 			page 46


 2544 01ff 3B       		.uleb128 0x3b
 2545 0200 05       		.uleb128 0x5
 2546 0201 49       		.uleb128 0x49
 2547 0202 13       		.uleb128 0x13
 2548 0203 3F       		.uleb128 0x3f
 2549 0204 19       		.uleb128 0x19
 2550 0205 02       		.uleb128 0x2
 2551 0206 18       		.uleb128 0x18
 2552 0207 00       		.byte	0
 2553 0208 00       		.byte	0
 2554 0209 28       		.uleb128 0x28
 2555 020a 2E       		.uleb128 0x2e
 2556 020b 00       		.byte	0
 2557 020c 3F       		.uleb128 0x3f
 2558 020d 19       		.uleb128 0x19
 2559 020e 03       		.uleb128 0x3
 2560 020f 0E       		.uleb128 0xe
 2561 0210 3A       		.uleb128 0x3a
 2562 0211 0B       		.uleb128 0xb
 2563 0212 3B       		.uleb128 0x3b
 2564 0213 05       		.uleb128 0x5
 2565 0214 27       		.uleb128 0x27
 2566 0215 19       		.uleb128 0x19
 2567 0216 3C       		.uleb128 0x3c
 2568 0217 19       		.uleb128 0x19
 2569 0218 00       		.byte	0
 2570 0219 00       		.byte	0
 2571 021a 00       		.byte	0
 2572              		.section	.debug_loc,"",%progbits
 2573              	.Ldebug_loc0:
 2574              	.LLST0:
 2575 0000 0C000000 		.4byte	.LVL0
 2576 0004 16000000 		.4byte	.LVL1
 2577 0008 0600     		.2byte	0x6
 2578 000a 03       		.byte	0x3
 2579 000b 00000000 		.4byte	.LC0
 2580 000f 9F       		.byte	0x9f
 2581 0010 00000000 		.4byte	0
 2582 0014 00000000 		.4byte	0
 2583              	.LLST1:
 2584 0018 0C000000 		.4byte	.LVL2
 2585 001c 16000000 		.4byte	.LVL3
 2586 0020 0600     		.2byte	0x6
 2587 0022 03       		.byte	0x3
 2588 0023 08000000 		.4byte	.LC1
 2589 0027 9F       		.byte	0x9f
 2590 0028 00000000 		.4byte	0
 2591 002c 00000000 		.4byte	0
 2592              	.LLST2:
 2593 0030 0C000000 		.4byte	.LVL4
 2594 0034 16000000 		.4byte	.LVL5
 2595 0038 0600     		.2byte	0x6
 2596 003a 03       		.byte	0x3
 2597 003b 10000000 		.4byte	.LC2
 2598 003f 9F       		.byte	0x9f
 2599 0040 00000000 		.4byte	0
 2600 0044 00000000 		.4byte	0
ARM GAS  /tmp/ccik12TF.s 			page 47


 2601              	.LLST3:
 2602 0048 0E000000 		.4byte	.LVL6
 2603 004c 18000000 		.4byte	.LVL7
 2604 0050 0600     		.2byte	0x6
 2605 0052 03       		.byte	0x3
 2606 0053 18000000 		.4byte	.LC3
 2607 0057 9F       		.byte	0x9f
 2608 0058 00000000 		.4byte	0
 2609 005c 00000000 		.4byte	0
 2610              	.LLST4:
 2611 0060 10000000 		.4byte	.LVL10
 2612 0064 1A000000 		.4byte	.LVL11
 2613 0068 0600     		.2byte	0x6
 2614 006a 03       		.byte	0x3
 2615 006b 28000000 		.4byte	.LC5
 2616 006f 9F       		.byte	0x9f
 2617 0070 00000000 		.4byte	0
 2618 0074 00000000 		.4byte	0
 2619              	.LLST5:
 2620 0078 16000000 		.4byte	.LVL14
 2621 007c 22000000 		.4byte	.LVL16
 2622 0080 0600     		.2byte	0x6
 2623 0082 03       		.byte	0x3
 2624 0083 38000000 		.4byte	.LC7
 2625 0087 9F       		.byte	0x9f
 2626 0088 00000000 		.4byte	0
 2627 008c 00000000 		.4byte	0
 2628              	.LLST6:
 2629 0090 16000000 		.4byte	.LVL17
 2630 0094 22000000 		.4byte	.LVL19
 2631 0098 0600     		.2byte	0x6
 2632 009a 03       		.byte	0x3
 2633 009b 40000000 		.4byte	.LC8
 2634 009f 9F       		.byte	0x9f
 2635 00a0 00000000 		.4byte	0
 2636 00a4 00000000 		.4byte	0
 2637              	.LLST7:
 2638 00a8 00000000 		.4byte	.LVL25
 2639 00ac 07000000 		.4byte	.LVL26-1
 2640 00b0 0100     		.2byte	0x1
 2641 00b2 50       		.byte	0x50
 2642 00b3 07000000 		.4byte	.LVL26-1
 2643 00b7 0C000000 		.4byte	.LFE20
 2644 00bb 0400     		.2byte	0x4
 2645 00bd F3       		.byte	0xf3
 2646 00be 01       		.uleb128 0x1
 2647 00bf 50       		.byte	0x50
 2648 00c0 9F       		.byte	0x9f
 2649 00c1 00000000 		.4byte	0
 2650 00c5 00000000 		.4byte	0
 2651              		.section	.debug_aranges,"",%progbits
 2652 0000 84000000 		.4byte	0x84
 2653 0004 0200     		.2byte	0x2
 2654 0006 00000000 		.4byte	.Ldebug_info0
 2655 000a 04       		.byte	0x4
 2656 000b 00       		.byte	0
 2657 000c 0000     		.2byte	0
ARM GAS  /tmp/ccik12TF.s 			page 48


 2658 000e 0000     		.2byte	0
 2659 0010 00000000 		.4byte	.LFB7
 2660 0014 28000000 		.4byte	.LFE7-.LFB7
 2661 0018 00000000 		.4byte	.LFB8
 2662 001c 28000000 		.4byte	.LFE8-.LFB8
 2663 0020 00000000 		.4byte	.LFB9
 2664 0024 28000000 		.4byte	.LFE9-.LFB9
 2665 0028 00000000 		.4byte	.LFB10
 2666 002c 30000000 		.4byte	.LFE10-.LFB10
 2667 0030 00000000 		.4byte	.LFB11
 2668 0034 38000000 		.4byte	.LFE11-.LFB11
 2669 0038 00000000 		.4byte	.LFB12
 2670 003c 30000000 		.4byte	.LFE12-.LFB12
 2671 0040 00000000 		.4byte	.LFB13
 2672 0044 38000000 		.4byte	.LFE13-.LFB13
 2673 0048 00000000 		.4byte	.LFB14
 2674 004c 40000000 		.4byte	.LFE14-.LFB14
 2675 0050 00000000 		.4byte	.LFB15
 2676 0054 40000000 		.4byte	.LFE15-.LFB15
 2677 0058 00000000 		.4byte	.LFB16
 2678 005c 2C000000 		.4byte	.LFE16-.LFB16
 2679 0060 00000000 		.4byte	.LFB17
 2680 0064 2C000000 		.4byte	.LFE17-.LFB17
 2681 0068 00000000 		.4byte	.LFB18
 2682 006c 14000000 		.4byte	.LFE18-.LFB18
 2683 0070 00000000 		.4byte	.LFB19
 2684 0074 40000000 		.4byte	.LFE19-.LFB19
 2685 0078 00000000 		.4byte	.LFB20
 2686 007c 0C000000 		.4byte	.LFE20-.LFB20
 2687 0080 00000000 		.4byte	0
 2688 0084 00000000 		.4byte	0
 2689              		.section	.debug_ranges,"",%progbits
 2690              	.Ldebug_ranges0:
 2691 0000 00000000 		.4byte	.LFB7
 2692 0004 28000000 		.4byte	.LFE7
 2693 0008 00000000 		.4byte	.LFB8
 2694 000c 28000000 		.4byte	.LFE8
 2695 0010 00000000 		.4byte	.LFB9
 2696 0014 28000000 		.4byte	.LFE9
 2697 0018 00000000 		.4byte	.LFB10
 2698 001c 30000000 		.4byte	.LFE10
 2699 0020 00000000 		.4byte	.LFB11
 2700 0024 38000000 		.4byte	.LFE11
 2701 0028 00000000 		.4byte	.LFB12
 2702 002c 30000000 		.4byte	.LFE12
 2703 0030 00000000 		.4byte	.LFB13
 2704 0034 38000000 		.4byte	.LFE13
 2705 0038 00000000 		.4byte	.LFB14
 2706 003c 40000000 		.4byte	.LFE14
 2707 0040 00000000 		.4byte	.LFB15
 2708 0044 40000000 		.4byte	.LFE15
 2709 0048 00000000 		.4byte	.LFB16
 2710 004c 2C000000 		.4byte	.LFE16
 2711 0050 00000000 		.4byte	.LFB17
 2712 0054 2C000000 		.4byte	.LFE17
 2713 0058 00000000 		.4byte	.LFB18
 2714 005c 14000000 		.4byte	.LFE18
ARM GAS  /tmp/ccik12TF.s 			page 49


 2715 0060 00000000 		.4byte	.LFB19
 2716 0064 40000000 		.4byte	.LFE19
 2717 0068 00000000 		.4byte	.LFB20
 2718 006c 0C000000 		.4byte	.LFE20
 2719 0070 00000000 		.4byte	0
 2720 0074 00000000 		.4byte	0
 2721              		.section	.debug_line,"",%progbits
 2722              	.Ldebug_line0:
 2723 0000 DE020000 		.section	.debug_str,"MS",%progbits,1
 2723      02003301 
 2723      00000201 
 2723      FB0E0D00 
 2723      01010101 
 2724              	.LASF43:
 2725 0000 705F6D73 		.ascii	"p_msg\000"
 2725      6700
 2726              	.LASF110:
 2727 0006 63684462 		.ascii	"chDbgPanic\000"
 2727      6750616E 
 2727      696300
 2728              	.LASF75:
 2729 0011 7264796D 		.ascii	"rdymsg\000"
 2729      736700
 2730              	.LASF16:
 2731 0018 75696E74 		.ascii	"uint64_t\000"
 2731      36345F74 
 2731      00
 2732              	.LASF5:
 2733 0021 5F5F7569 		.ascii	"__uint8_t\000"
 2733      6E74385F 
 2733      7400
 2734              	.LASF101:
 2735 002b 76746C69 		.ascii	"vtlist\000"
 2735      737400
 2736              	.LASF12:
 2737 0032 6C6F6E67 		.ascii	"long long unsigned int\000"
 2737      206C6F6E 
 2737      6720756E 
 2737      7369676E 
 2737      65642069 
 2738              	.LASF88:
 2739 0049 63685F74 		.ascii	"ch_trace_buffer_t\000"
 2739      72616365 
 2739      5F627566 
 2739      6665725F 
 2739      7400
 2740              	.LASF30:
 2741 005b 705F7072 		.ascii	"p_prio\000"
 2741      696F00
 2742              	.LASF81:
 2743 0062 73655F74 		.ascii	"se_tp\000"
 2743      7000
 2744              	.LASF97:
 2745 0068 6462675F 		.ascii	"dbg_check_leave_isr\000"
 2745      63686563 
 2745      6B5F6C65 
 2745      6176655F 
ARM GAS  /tmp/ccik12TF.s 			page 50


 2745      69737200 
 2746              	.LASF10:
 2747 007c 6C6F6E67 		.ascii	"long long int\000"
 2747      206C6F6E 
 2747      6720696E 
 2747      7400
 2748              	.LASF1:
 2749 008a 7369676E 		.ascii	"signed char\000"
 2749      65642063 
 2749      68617200 
 2750              	.LASF95:
 2751 0096 6462675F 		.ascii	"dbg_check_unlock_from_isr\000"
 2751      63686563 
 2751      6B5F756E 
 2751      6C6F636B 
 2751      5F66726F 
 2752              	.LASF47:
 2753 00b0 705F6D70 		.ascii	"p_mpool\000"
 2753      6F6F6C00 
 2754              	.LASF72:
 2755 00b8 6D5F7175 		.ascii	"m_queue\000"
 2755      65756500 
 2756              	.LASF21:
 2757 00c0 74736C69 		.ascii	"tslices_t\000"
 2757      6365735F 
 2757      7400
 2758              	.LASF7:
 2759 00ca 6C6F6E67 		.ascii	"long int\000"
 2759      20696E74 
 2759      00
 2760              	.LASF19:
 2761 00d3 74737461 		.ascii	"tstate_t\000"
 2761      74655F74 
 2761      00
 2762              	.LASF32:
 2763 00dc 705F6E65 		.ascii	"p_newer\000"
 2763      77657200 
 2764              	.LASF76:
 2765 00e4 65786974 		.ascii	"exitcode\000"
 2765      636F6465 
 2765      00
 2766              	.LASF85:
 2767 00ed 74625F73 		.ascii	"tb_size\000"
 2767      697A6500 
 2768              	.LASF8:
 2769 00f5 5F5F7569 		.ascii	"__uint32_t\000"
 2769      6E743332 
 2769      5F7400
 2770              	.LASF50:
 2771 0100 72656761 		.ascii	"regarm_t\000"
 2771      726D5F74 
 2771      00
 2772              	.LASF58:
 2773 0109 76745F70 		.ascii	"vt_prev\000"
 2773      72657600 
 2774              	.LASF80:
 2775 0111 73655F74 		.ascii	"se_time\000"
ARM GAS  /tmp/ccik12TF.s 			page 51


 2775      696D6500 
 2776              	.LASF26:
 2777 0119 636E745F 		.ascii	"cnt_t\000"
 2777      7400
 2778              	.LASF35:
 2779 011f 705F7374 		.ascii	"p_stklimit\000"
 2779      6B6C696D 
 2779      697400
 2780              	.LASF0:
 2781 012a 756E7369 		.ascii	"unsigned int\000"
 2781      676E6564 
 2781      20696E74 
 2781      00
 2782              	.LASF57:
 2783 0137 76745F6E 		.ascii	"vt_next\000"
 2783      65787400 
 2784              	.LASF100:
 2785 013f 6462675F 		.ascii	"dbg_trace\000"
 2785      74726163 
 2785      6500
 2786              	.LASF9:
 2787 0149 6C6F6E67 		.ascii	"long unsigned int\000"
 2787      20756E73 
 2787      69676E65 
 2787      6420696E 
 2787      7400
 2788              	.LASF55:
 2789 015b 76746675 		.ascii	"vtfunc_t\000"
 2789      6E635F74 
 2789      00
 2790              	.LASF90:
 2791 0164 6462675F 		.ascii	"dbg_check_suspend\000"
 2791      63686563 
 2791      6B5F7375 
 2791      7370656E 
 2791      6400
 2792              	.LASF56:
 2793 0176 56697274 		.ascii	"VirtualTimer\000"
 2793      75616C54 
 2793      696D6572 
 2793      00
 2794              	.LASF53:
 2795 0183 636F6E74 		.ascii	"context\000"
 2795      65787400 
 2796              	.LASF4:
 2797 018b 73686F72 		.ascii	"short unsigned int\000"
 2797      7420756E 
 2797      7369676E 
 2797      65642069 
 2797      6E7400
 2798              	.LASF111:
 2799 019e 5F747261 		.ascii	"_trace_init\000"
 2799      63655F69 
 2799      6E697400 
 2800              	.LASF23:
 2801 01aa 6D73675F 		.ascii	"msg_t\000"
 2801      7400
ARM GAS  /tmp/ccik12TF.s 			page 52


 2802              	.LASF67:
 2803 01b0 725F6E65 		.ascii	"r_newer\000"
 2803      77657200 
 2804              	.LASF98:
 2805 01b8 63684462 		.ascii	"chDbgCheckClassI\000"
 2805      67436865 
 2805      636B436C 
 2805      61737349 
 2805      00
 2806              	.LASF18:
 2807 01c9 746D6F64 		.ascii	"tmode_t\000"
 2807      655F7400 
 2808              	.LASF104:
 2809 01d1 6462675F 		.ascii	"dbg_isr_cnt\000"
 2809      6973725F 
 2809      636E7400 
 2810              	.LASF99:
 2811 01dd 63684462 		.ascii	"chDbgCheckClassS\000"
 2811      67436865 
 2811      636B436C 
 2811      61737353 
 2811      00
 2812              	.LASF49:
 2813 01ee 54687265 		.ascii	"ThreadsList\000"
 2813      6164734C 
 2813      69737400 
 2814              	.LASF24:
 2815 01fa 6576656E 		.ascii	"eventmask_t\000"
 2815      746D6173 
 2815      6B5F7400 
 2816              	.LASF71:
 2817 0206 4D757465 		.ascii	"Mutex\000"
 2817      7800
 2818              	.LASF51:
 2819 020c 73746B61 		.ascii	"stkalign_t\000"
 2819      6C69676E 
 2819      5F7400
 2820              	.LASF59:
 2821 0217 76745F74 		.ascii	"vt_time\000"
 2821      696D6500 
 2822              	.LASF86:
 2823 021f 74625F70 		.ascii	"tb_ptr\000"
 2823      747200
 2824              	.LASF54:
 2825 0226 73697A65 		.ascii	"sizetype\000"
 2825      74797065 
 2825      00
 2826              	.LASF112:
 2827 022f 706F7274 		.ascii	"port_halt\000"
 2827      5F68616C 
 2827      7400
 2828              	.LASF60:
 2829 0239 76745F66 		.ascii	"vt_func\000"
 2829      756E6300 
 2830              	.LASF92:
 2831 0241 6462675F 		.ascii	"dbg_check_lock\000"
 2831      63686563 
ARM GAS  /tmp/ccik12TF.s 			page 53


 2831      6B5F6C6F 
 2831      636B00
 2832              	.LASF84:
 2833 0250 63685F73 		.ascii	"ch_swc_event_t\000"
 2833      77635F65 
 2833      76656E74 
 2833      5F7400
 2834              	.LASF33:
 2835 025f 705F6F6C 		.ascii	"p_older\000"
 2835      64657200 
 2836              	.LASF66:
 2837 0267 725F6374 		.ascii	"r_ctx\000"
 2837      7800
 2838              	.LASF48:
 2839 026d 54687265 		.ascii	"ThreadsQueue\000"
 2839      61647351 
 2839      75657565 
 2839      00
 2840              	.LASF69:
 2841 027a 725F6375 		.ascii	"r_current\000"
 2841      7272656E 
 2841      7400
 2842              	.LASF68:
 2843 0284 725F6F6C 		.ascii	"r_older\000"
 2843      64657200 
 2844              	.LASF93:
 2845 028c 6462675F 		.ascii	"dbg_check_unlock\000"
 2845      63686563 
 2845      6B5F756E 
 2845      6C6F636B 
 2845      00
 2846              	.LASF11:
 2847 029d 5F5F7569 		.ascii	"__uint64_t\000"
 2847      6E743634 
 2847      5F7400
 2848              	.LASF103:
 2849 02a8 6462675F 		.ascii	"dbg_trace_buffer\000"
 2849      74726163 
 2849      655F6275 
 2849      66666572 
 2849      00
 2850              	.LASF20:
 2851 02b9 74726566 		.ascii	"trefs_t\000"
 2851      735F7400 
 2852              	.LASF87:
 2853 02c1 74625F62 		.ascii	"tb_buffer\000"
 2853      75666665 
 2853      7200
 2854              	.LASF29:
 2855 02cb 705F7072 		.ascii	"p_prev\000"
 2855      657600
 2856              	.LASF22:
 2857 02d2 74707269 		.ascii	"tprio_t\000"
 2857      6F5F7400 
 2858              	.LASF17:
 2859 02da 5F426F6F 		.ascii	"_Bool\000"
 2859      6C00
ARM GAS  /tmp/ccik12TF.s 			page 54


 2860              	.LASF14:
 2861 02e0 696E7433 		.ascii	"int32_t\000"
 2861      325F7400 
 2862              	.LASF2:
 2863 02e8 756E7369 		.ascii	"unsigned char\000"
 2863      676E6564 
 2863      20636861 
 2863      7200
 2864              	.LASF106:
 2865 02f6 6462675F 		.ascii	"dbg_panic_msg\000"
 2865      70616E69 
 2865      635F6D73 
 2865      6700
 2866              	.LASF45:
 2867 0304 705F6D74 		.ascii	"p_mtxlist\000"
 2867      786C6973 
 2867      7400
 2868              	.LASF3:
 2869 030e 73686F72 		.ascii	"short int\000"
 2869      7420696E 
 2869      7400
 2870              	.LASF36:
 2871 0318 705F7374 		.ascii	"p_state\000"
 2871      61746500 
 2872              	.LASF39:
 2873 0320 705F7072 		.ascii	"p_preempt\000"
 2873      65656D70 
 2873      7400
 2874              	.LASF65:
 2875 032a 725F7072 		.ascii	"r_prio\000"
 2875      696F00
 2876              	.LASF78:
 2877 0331 65776D61 		.ascii	"ewmask\000"
 2877      736B00
 2878              	.LASF28:
 2879 0338 705F6E65 		.ascii	"p_next\000"
 2879      787400
 2880              	.LASF37:
 2881 033f 705F666C 		.ascii	"p_flags\000"
 2881      61677300 
 2882              	.LASF108:
 2883 0347 2E2E2F2E 		.ascii	"../../os/kernel/src/chdebug.c\000"
 2883      2E2F6F73 
 2883      2F6B6572 
 2883      6E656C2F 
 2883      7372632F 
 2884              	.LASF107:
 2885 0365 474E5520 		.ascii	"GNU C 4.8.4 20140526 (release) [ARM/embedded-4_8-br"
 2885      4320342E 
 2885      382E3420 
 2885      32303134 
 2885      30353236 
 2886 0398 616E6368 		.ascii	"anch revision 211358] -mcpu=cortex-m4 -mfloat-abi=h"
 2886      20726576 
 2886      6973696F 
 2886      6E203231 
 2886      31333538 
ARM GAS  /tmp/ccik12TF.s 			page 55


 2887 03cb 61726420 		.ascii	"ard -mfpu=fpv4-sp-d16 -mno-thumb-interwork -mthumb "
 2887      2D6D6670 
 2887      753D6670 
 2887      76342D73 
 2887      702D6431 
 2888 03fe 2D676764 		.ascii	"-ggdb -O2 -fomit-frame-pointer -falign-functions=16"
 2888      62202D4F 
 2888      32202D66 
 2888      6F6D6974 
 2888      2D667261 
 2889 0431 202D6666 		.ascii	" -ffunction-sections -fdata-sections -fno-common -f"
 2889      756E6374 
 2889      696F6E2D 
 2889      73656374 
 2889      696F6E73 
 2890 0464 73696E67 		.ascii	"single-precision-constant\000"
 2890      6C652D70 
 2890      72656369 
 2890      73696F6E 
 2890      2D636F6E 
 2891              	.LASF27:
 2892 047e 54687265 		.ascii	"Thread\000"
 2892      616400
 2893              	.LASF44:
 2894 0485 705F6570 		.ascii	"p_epending\000"
 2894      656E6469 
 2894      6E6700
 2895              	.LASF15:
 2896 0490 75696E74 		.ascii	"uint32_t\000"
 2896      33325F74 
 2896      00
 2897              	.LASF64:
 2898 0499 725F7175 		.ascii	"r_queue\000"
 2898      65756500 
 2899              	.LASF79:
 2900 04a1 63686172 		.ascii	"char\000"
 2900      00
 2901              	.LASF74:
 2902 04a6 6D5F6E65 		.ascii	"m_next\000"
 2902      787400
 2903              	.LASF25:
 2904 04ad 73797374 		.ascii	"systime_t\000"
 2904      696D655F 
 2904      7400
 2905              	.LASF46:
 2906 04b7 705F7265 		.ascii	"p_realprio\000"
 2906      616C7072 
 2906      696F00
 2907              	.LASF6:
 2908 04c2 5F5F696E 		.ascii	"__int32_t\000"
 2908      7433325F 
 2908      7400
 2909              	.LASF105:
 2910 04cc 6462675F 		.ascii	"dbg_lock_cnt\000"
 2910      6C6F636B 
 2910      5F636E74 
 2910      00
ARM GAS  /tmp/ccik12TF.s 			page 56


 2911              	.LASF40:
 2912 04d9 705F7469 		.ascii	"p_time\000"
 2912      6D6500
 2913              	.LASF109:
 2914 04e0 2F686F6D 		.ascii	"/home/makkmarci/devel/ChibiOS_2.6.5/projects/STM32F"
 2914      652F6D61 
 2914      6B6B6D61 
 2914      7263692F 
 2914      64657665 
 2915 0513 345F4368 		.ascii	"4_ChibiOS_uGFX/\000"
 2915      6962694F 
 2915      535F7547 
 2915      46582F00 
 2916              	.LASF52:
 2917 0523 696E7463 		.ascii	"intctx\000"
 2917      747800
 2918              	.LASF42:
 2919 052a 705F6D73 		.ascii	"p_msgqueue\000"
 2919      67717565 
 2919      756500
 2920              	.LASF91:
 2921 0535 6462675F 		.ascii	"dbg_check_enable\000"
 2921      63686563 
 2921      6B5F656E 
 2921      61626C65 
 2921      00
 2922              	.LASF61:
 2923 0546 76745F70 		.ascii	"vt_par\000"
 2923      617200
 2924              	.LASF38:
 2925 054d 705F7265 		.ascii	"p_refs\000"
 2925      667300
 2926              	.LASF70:
 2927 0554 52656164 		.ascii	"ReadyList\000"
 2927      794C6973 
 2927      7400
 2928              	.LASF83:
 2929 055e 73655F73 		.ascii	"se_state\000"
 2929      74617465 
 2929      00
 2930              	.LASF96:
 2931 0567 6462675F 		.ascii	"dbg_check_enter_isr\000"
 2931      63686563 
 2931      6B5F656E 
 2931      7465725F 
 2931      69737200 
 2932              	.LASF102:
 2933 057b 726C6973 		.ascii	"rlist\000"
 2933      7400
 2934              	.LASF13:
 2935 0581 75696E74 		.ascii	"uint8_t\000"
 2935      385F7400 
 2936              	.LASF94:
 2937 0589 6462675F 		.ascii	"dbg_check_lock_from_isr\000"
 2937      63686563 
 2937      6B5F6C6F 
 2937      636B5F66 
ARM GAS  /tmp/ccik12TF.s 			page 57


 2937      726F6D5F 
 2938              	.LASF77:
 2939 05a1 77746F62 		.ascii	"wtobjp\000"
 2939      6A7000
 2940              	.LASF34:
 2941 05a8 705F6E61 		.ascii	"p_name\000"
 2941      6D6500
 2942              	.LASF62:
 2943 05af 76745F73 		.ascii	"vt_systime\000"
 2943      79737469 
 2943      6D6500
 2944              	.LASF63:
 2945 05ba 56544C69 		.ascii	"VTList\000"
 2945      737400
 2946              	.LASF89:
 2947 05c1 6462675F 		.ascii	"dbg_check_disable\000"
 2947      63686563 
 2947      6B5F6469 
 2947      7361626C 
 2947      6500
 2948              	.LASF73:
 2949 05d3 6D5F6F77 		.ascii	"m_owner\000"
 2949      6E657200 
 2950              	.LASF82:
 2951 05db 73655F77 		.ascii	"se_wtobjp\000"
 2951      746F626A 
 2951      7000
 2952              	.LASF31:
 2953 05e5 705F6374 		.ascii	"p_ctx\000"
 2953      7800
 2954              	.LASF41:
 2955 05eb 705F7761 		.ascii	"p_waiting\000"
 2955      6974696E 
 2955      6700
 2956              		.ident	"GCC: (GNU Tools for ARM Embedded Processors) 4.8.4 20140526 (release) [ARM/embedded-4_8-br
ARM GAS  /tmp/ccik12TF.s 			page 58


DEFINED SYMBOLS
                            *ABS*:00000000 chdebug.c
     /tmp/ccik12TF.s:21     .text.dbg_check_disable:00000000 $t
     /tmp/ccik12TF.s:27     .text.dbg_check_disable:00000000 dbg_check_disable
     /tmp/ccik12TF.s:59     .text.dbg_check_disable:00000018 $d
     /tmp/ccik12TF.s:69     .text.dbg_check_suspend:00000000 $t
     /tmp/ccik12TF.s:75     .text.dbg_check_suspend:00000000 dbg_check_suspend
     /tmp/ccik12TF.s:106    .text.dbg_check_suspend:00000018 $d
     /tmp/ccik12TF.s:116    .text.dbg_check_enable:00000000 $t
     /tmp/ccik12TF.s:122    .text.dbg_check_enable:00000000 dbg_check_enable
     /tmp/ccik12TF.s:153    .text.dbg_check_enable:00000018 $d
     /tmp/ccik12TF.s:163    .text.dbg_check_lock:00000000 $t
     /tmp/ccik12TF.s:169    .text.dbg_check_lock:00000000 dbg_check_lock
     /tmp/ccik12TF.s:210    .text.dbg_check_lock:00000020 $d
     /tmp/ccik12TF.s:218    .text.dbg_check_unlock:00000000 $t
     /tmp/ccik12TF.s:224    .text.dbg_check_unlock:00000000 dbg_check_unlock
     /tmp/ccik12TF.s:269    .text.dbg_check_unlock:00000028 $d
     /tmp/ccik12TF.s:277    .text.dbg_check_lock_from_isr:00000000 $t
     /tmp/ccik12TF.s:283    .text.dbg_check_lock_from_isr:00000000 dbg_check_lock_from_isr
     /tmp/ccik12TF.s:325    .text.dbg_check_lock_from_isr:00000020 $d
     /tmp/ccik12TF.s:333    .text.dbg_check_unlock_from_isr:00000000 $t
     /tmp/ccik12TF.s:339    .text.dbg_check_unlock_from_isr:00000000 dbg_check_unlock_from_isr
     /tmp/ccik12TF.s:385    .text.dbg_check_unlock_from_isr:00000028 $d
     /tmp/ccik12TF.s:393    .text.dbg_check_enter_isr:00000000 $t
     /tmp/ccik12TF.s:399    .text.dbg_check_enter_isr:00000000 dbg_check_enter_isr
     /tmp/ccik12TF.s:456    .text.dbg_check_enter_isr:00000030 $d
     /tmp/ccik12TF.s:465    .text.dbg_check_leave_isr:00000000 $t
     /tmp/ccik12TF.s:471    .text.dbg_check_leave_isr:00000000 dbg_check_leave_isr
     /tmp/ccik12TF.s:528    .text.dbg_check_leave_isr:00000030 $d
     /tmp/ccik12TF.s:537    .text.chDbgCheckClassI:00000000 $t
     /tmp/ccik12TF.s:543    .text.chDbgCheckClassI:00000000 chDbgCheckClassI
     /tmp/ccik12TF.s:575    .text.chDbgCheckClassI:0000001c $d
     /tmp/ccik12TF.s:585    .text.chDbgCheckClassS:00000000 $t
     /tmp/ccik12TF.s:591    .text.chDbgCheckClassS:00000000 chDbgCheckClassS
     /tmp/ccik12TF.s:622    .text.chDbgCheckClassS:0000001c $d
     /tmp/ccik12TF.s:632    .text._trace_init:00000000 $t
     /tmp/ccik12TF.s:638    .text._trace_init:00000000 _trace_init
     /tmp/ccik12TF.s:656    .text._trace_init:00000010 $d
     /tmp/ccik12TF.s:661    .text.dbg_trace:00000000 $t
     /tmp/ccik12TF.s:667    .text.dbg_trace:00000000 dbg_trace
     /tmp/ccik12TF.s:713    .text.dbg_trace:00000034 $d
     /tmp/ccik12TF.s:720    .text.chDbgPanic:00000000 $t
     /tmp/ccik12TF.s:726    .text.chDbgPanic:00000000 chDbgPanic
     /tmp/ccik12TF.s:743    .text.chDbgPanic:00000008 $d
     /tmp/ccik12TF.s:811    .bss.dbg_panic_msg:00000000 dbg_panic_msg
     /tmp/ccik12TF.s:763    .bss.dbg_trace_buffer:00000000 dbg_trace_buffer
     /tmp/ccik12TF.s:804    .bss.dbg_lock_cnt:00000000 dbg_lock_cnt
     /tmp/ccik12TF.s:756    .bss.dbg_isr_cnt:00000000 dbg_isr_cnt
     /tmp/ccik12TF.s:752    .bss.dbg_isr_cnt:00000000 $d
     /tmp/ccik12TF.s:759    .bss.dbg_trace_buffer:00000000 $d
     /tmp/ccik12TF.s:766    .rodata.str1.4:00000000 $d
     /tmp/ccik12TF.s:800    .bss.dbg_lock_cnt:00000000 $d
     /tmp/ccik12TF.s:807    .bss.dbg_panic_msg:00000000 $d
                     .debug_frame:00000010 $d
     /tmp/ccik12TF.s:68     .text.dbg_check_disable:00000028 $t
     /tmp/ccik12TF.s:115    .text.dbg_check_suspend:00000028 $t
     /tmp/ccik12TF.s:162    .text.dbg_check_enable:00000028 $t
ARM GAS  /tmp/ccik12TF.s 			page 59


     /tmp/ccik12TF.s:276    .text.dbg_check_unlock:00000038 $t
     /tmp/ccik12TF.s:392    .text.dbg_check_unlock_from_isr:00000038 $t
     /tmp/ccik12TF.s:584    .text.chDbgCheckClassI:0000002c $t
     /tmp/ccik12TF.s:631    .text.chDbgCheckClassS:0000002c $t
     /tmp/ccik12TF.s:660    .text._trace_init:00000014 $t
     /tmp/ccik12TF.s:751    .text.chDbgPanic:0000000c $t

UNDEFINED SYMBOLS
port_halt
rlist
vtlist
