ARM GAS  /tmp/ccir0l50.s 			page 1


   1              		.syntax unified
   2              		.cpu cortex-m4
   3              		.eabi_attribute 27, 3
   4              		.eabi_attribute 28, 1
   5              		.fpu fpv4-sp-d16
   6              		.eabi_attribute 20, 1
   7              		.eabi_attribute 21, 1
   8              		.eabi_attribute 23, 3
   9              		.eabi_attribute 24, 1
  10              		.eabi_attribute 25, 1
  11              		.eabi_attribute 26, 1
  12              		.eabi_attribute 30, 2
  13              		.eabi_attribute 34, 1
  14              		.eabi_attribute 18, 4
  15              		.thumb
  16              		.file	"chlists.c"
  17              		.text
  18              	.Ltext0:
  19              		.cfi_sections	.debug_frame
  20              		.section	.text.prio_insert,"ax",%progbits
  21              		.align	2
  22              		.p2align 4,,15
  23              		.global	prio_insert
  24              		.thumb
  25              		.thumb_func
  26              		.type	prio_insert, %function
  27              	prio_insert:
  28              	.LFB0:
  29              		.file 1 "../../os/kernel/src/chlists.c"
  30              		.loc 1 51 0
  31              		.cfi_startproc
  32              		@ args = 0, pretend = 0, frame = 0
  33              		@ frame_needed = 0, uses_anonymous_args = 0
  34              		@ link register save eliminated.
  35              	.LVL0:
  36 0000 10B4     		push	{r4}
  37              		.cfi_def_cfa_offset 4
  38              		.cfi_offset 4, -4
  39              		.loc 1 54 0
  40 0002 0B46     		mov	r3, r1
  41 0004 03E0     		b	.L4
  42              	.LVL1:
  43              	.L2:
  44              		.loc 1 59 0 discriminator 1
  45 0006 9C68     		ldr	r4, [r3, #8]
  46 0008 8268     		ldr	r2, [r0, #8]
  47 000a 9442     		cmp	r4, r2
  48 000c 02D3     		bcc	.L3
  49              	.L4:
  50              		.loc 1 57 0 discriminator 1
  51 000e 1B68     		ldr	r3, [r3]
  52              	.LVL2:
  53              		.loc 1 59 0 discriminator 1
  54 0010 8B42     		cmp	r3, r1
  55 0012 F8D1     		bne	.L2
  56              	.L3:
  57              		.loc 1 62 0
ARM GAS  /tmp/ccir0l50.s 			page 2


  58 0014 5A68     		ldr	r2, [r3, #4]
  59 0016 4260     		str	r2, [r0, #4]
  60              		.loc 1 61 0
  61 0018 0360     		str	r3, [r0]
  62              		.loc 1 64 0
  63 001a 5DF8044B 		ldr	r4, [sp], #4
  64              		.loc 1 63 0
  65 001e 5860     		str	r0, [r3, #4]
  66 0020 1060     		str	r0, [r2]
  67              		.loc 1 64 0
  68 0022 7047     		bx	lr
  69              		.cfi_endproc
  70              	.LFE0:
  71              		.size	prio_insert, .-prio_insert
  72 0024 AFF30080 		.section	.text.queue_insert,"ax",%progbits
  72      AFF30080 
  72      AFF30080 
  73              		.align	2
  74              		.p2align 4,,15
  75              		.global	queue_insert
  76              		.thumb
  77              		.thumb_func
  78              		.type	queue_insert, %function
  79              	queue_insert:
  80              	.LFB1:
  81              		.loc 1 74 0
  82              		.cfi_startproc
  83              		@ args = 0, pretend = 0, frame = 0
  84              		@ frame_needed = 0, uses_anonymous_args = 0
  85              		@ link register save eliminated.
  86              	.LVL3:
  87              		.loc 1 77 0
  88 0000 4B68     		ldr	r3, [r1, #4]
  89 0002 80E80A00 		stmia	r0, {r1, r3}
  90              		.loc 1 78 0
  91 0006 4860     		str	r0, [r1, #4]
  92 0008 1860     		str	r0, [r3]
  93 000a 7047     		bx	lr
  94              		.cfi_endproc
  95              	.LFE1:
  96              		.size	queue_insert, .-queue_insert
  97 000c AFF30080 		.section	.text.fifo_remove,"ax",%progbits
  98              		.align	2
  99              		.p2align 4,,15
 100              		.global	fifo_remove
 101              		.thumb
 102              		.thumb_func
 103              		.type	fifo_remove, %function
 104              	fifo_remove:
 105              	.LFB2:
 106              		.loc 1 91 0
 107              		.cfi_startproc
 108              		@ args = 0, pretend = 0, frame = 0
 109              		@ frame_needed = 0, uses_anonymous_args = 0
 110              		@ link register save eliminated.
 111              	.LVL4:
 112              		.loc 1 91 0
ARM GAS  /tmp/ccir0l50.s 			page 3


 113 0000 0346     		mov	r3, r0
 114              		.loc 1 92 0
 115 0002 0068     		ldr	r0, [r0]
 116              	.LVL5:
 117              		.loc 1 94 0
 118 0004 0268     		ldr	r2, [r0]
 119 0006 1A60     		str	r2, [r3]
 120 0008 5360     		str	r3, [r2, #4]
 121              		.loc 1 96 0
 122 000a 7047     		bx	lr
 123              		.cfi_endproc
 124              	.LFE2:
 125              		.size	fifo_remove, .-fifo_remove
 126 000c AFF30080 		.section	.text.lifo_remove,"ax",%progbits
 127              		.align	2
 128              		.p2align 4,,15
 129              		.global	lifo_remove
 130              		.thumb
 131              		.thumb_func
 132              		.type	lifo_remove, %function
 133              	lifo_remove:
 134              	.LFB3:
 135              		.loc 1 108 0
 136              		.cfi_startproc
 137              		@ args = 0, pretend = 0, frame = 0
 138              		@ frame_needed = 0, uses_anonymous_args = 0
 139              		@ link register save eliminated.
 140              	.LVL6:
 141              		.loc 1 108 0
 142 0000 0346     		mov	r3, r0
 143              		.loc 1 109 0
 144 0002 4068     		ldr	r0, [r0, #4]
 145              	.LVL7:
 146              		.loc 1 111 0
 147 0004 4268     		ldr	r2, [r0, #4]
 148 0006 5A60     		str	r2, [r3, #4]
 149 0008 1360     		str	r3, [r2]
 150              		.loc 1 113 0
 151 000a 7047     		bx	lr
 152              		.cfi_endproc
 153              	.LFE3:
 154              		.size	lifo_remove, .-lifo_remove
 155 000c AFF30080 		.section	.text.dequeue,"ax",%progbits
 156              		.align	2
 157              		.p2align 4,,15
 158              		.global	dequeue
 159              		.thumb
 160              		.thumb_func
 161              		.type	dequeue, %function
 162              	dequeue:
 163              	.LFB4:
 164              		.loc 1 125 0
 165              		.cfi_startproc
 166              		@ args = 0, pretend = 0, frame = 0
 167              		@ frame_needed = 0, uses_anonymous_args = 0
 168              		@ link register save eliminated.
 169              	.LVL8:
ARM GAS  /tmp/ccir0l50.s 			page 4


 170              		.loc 1 127 0
 171 0000 90E80600 		ldmia	r0, {r1, r2}
 172 0004 1160     		str	r1, [r2]
 173              		.loc 1 128 0
 174 0006 0368     		ldr	r3, [r0]
 175 0008 5A60     		str	r2, [r3, #4]
 176              		.loc 1 130 0
 177 000a 7047     		bx	lr
 178              		.cfi_endproc
 179              	.LFE4:
 180              		.size	dequeue, .-dequeue
 181 000c AFF30080 		.section	.text.list_insert,"ax",%progbits
 182              		.align	2
 183              		.p2align 4,,15
 184              		.global	list_insert
 185              		.thumb
 186              		.thumb_func
 187              		.type	list_insert, %function
 188              	list_insert:
 189              	.LFB5:
 190              		.loc 1 140 0
 191              		.cfi_startproc
 192              		@ args = 0, pretend = 0, frame = 0
 193              		@ frame_needed = 0, uses_anonymous_args = 0
 194              		@ link register save eliminated.
 195              	.LVL9:
 196              		.loc 1 142 0
 197 0000 0B68     		ldr	r3, [r1]
 198 0002 0360     		str	r3, [r0]
 199              		.loc 1 143 0
 200 0004 0860     		str	r0, [r1]
 201 0006 7047     		bx	lr
 202              		.cfi_endproc
 203              	.LFE5:
 204              		.size	list_insert, .-list_insert
 205 0008 AFF30080 		.section	.text.list_remove,"ax",%progbits
 205      AFF30080 
 206              		.align	2
 207              		.p2align 4,,15
 208              		.global	list_remove
 209              		.thumb
 210              		.thumb_func
 211              		.type	list_remove, %function
 212              	list_remove:
 213              	.LFB6:
 214              		.loc 1 155 0
 215              		.cfi_startproc
 216              		@ args = 0, pretend = 0, frame = 0
 217              		@ frame_needed = 0, uses_anonymous_args = 0
 218              		@ link register save eliminated.
 219              	.LVL10:
 220              		.loc 1 157 0
 221 0000 0368     		ldr	r3, [r0]
 222              	.LVL11:
 223              		.loc 1 158 0
 224 0002 1A68     		ldr	r2, [r3]
 225 0004 0260     		str	r2, [r0]
ARM GAS  /tmp/ccir0l50.s 			page 5


 226              		.loc 1 160 0
 227 0006 1846     		mov	r0, r3
 228              	.LVL12:
 229 0008 7047     		bx	lr
 230              		.cfi_endproc
 231              	.LFE6:
 232              		.size	list_remove, .-list_remove
 233 000a 00BFAFF3 		.text
 233      0080
 234              	.Letext0:
 235              		.file 2 "/opt/ARM/arm-none-eabi/include/machine/_default_types.h"
 236              		.file 3 "/opt/ARM/arm-none-eabi/include/stdint.h"
 237              		.file 4 "../../os/ports/GCC/ARMCMx/chtypes.h"
 238              		.file 5 "../../os/kernel/include/chlists.h"
 239              		.file 6 "../../os/kernel/include/chthreads.h"
 240              		.file 7 "../../os/ports/GCC/ARMCMx/chcore_v7m.h"
 241              		.file 8 "../../os/kernel/include/chmtx.h"