ARM GAS  /tmp/ccLEpI8P.s 			page 1


   1              		.syntax unified
   2              		.cpu cortex-m4
   3              		.eabi_attribute 27, 3
   4              		.eabi_attribute 28, 1
   5              		.fpu fpv4-sp-d16
   6              		.eabi_attribute 20, 1
   7              		.eabi_attribute 21, 1
   8              		.eabi_attribute 23, 3
   9              		.eabi_attribute 24, 1
  10              		.eabi_attribute 25, 1
  11              		.eabi_attribute 26, 1
  12              		.eabi_attribute 30, 2
  13              		.eabi_attribute 34, 1
  14              		.eabi_attribute 18, 4
  15              		.thumb
  16              		.file	"chmempools.c"
  17              		.text
  18              	.Ltext0:
  19              		.cfi_sections	.debug_frame
  20              		.section	.text.chPoolInit,"ax",%progbits
  21              		.align	2
  22              		.p2align 4,,15
  23              		.global	chPoolInit
  24              		.thumb
  25              		.thumb_func
  26              		.type	chPoolInit, %function
  27              	chPoolInit:
  28              	.LFB0:
  29              		.file 1 "../../os/kernel/src/chmempools.c"
  30              		.loc 1 62 0
  31              		.cfi_startproc
  32              		@ args = 0, pretend = 0, frame = 0
  33              		@ frame_needed = 0, uses_anonymous_args = 0
  34              	.LVL0:
  35 0000 70B5     		push	{r4, r5, r6, lr}
  36              		.cfi_def_cfa_offset 16
  37              		.cfi_offset 4, -16
  38              		.cfi_offset 5, -12
  39              		.cfi_offset 6, -8
  40              		.cfi_offset 14, -4
  41              		.loc 1 64 0
  42 0002 0446     		mov	r4, r0
  43              		.loc 1 62 0
  44 0004 0D46     		mov	r5, r1
  45 0006 1646     		mov	r6, r2
  46              		.loc 1 64 0
  47 0008 08B1     		cbz	r0, .L2
  48              		.loc 1 64 0 is_stmt 0 discriminator 2
  49 000a 0329     		cmp	r1, #3
  50 000c 02D8     		bhi	.L3
  51              	.L2:
  52              		.loc 1 64 0 discriminator 1
  53 000e 0348     		ldr	r0, .L8
  54              	.LVL1:
  55 0010 FFF7FEFF 		bl	chDbgPanic
  56              	.LVL2:
  57              	.L3:
ARM GAS  /tmp/ccLEpI8P.s 			page 2


  58              		.loc 1 66 0 is_stmt 1
  59 0014 0023     		movs	r3, #0
  60 0016 84E86800 		stmia	r4, {r3, r5, r6}
  61 001a 70BD     		pop	{r4, r5, r6, pc}
  62              	.LVL3:
  63              	.L9:
  64              		.align	2
  65              	.L8:
  66 001c 00000000 		.word	.LC0
  67              		.cfi_endproc
  68              	.LFE0:
  69              		.size	chPoolInit, .-chPoolInit
  70              		.section	.text.chPoolAllocI,"ax",%progbits
  71              		.align	2
  72              		.p2align 4,,15
  73              		.global	chPoolAllocI
  74              		.thumb
  75              		.thumb_func
  76              		.type	chPoolAllocI, %function
  77              	chPoolAllocI:
  78              	.LFB2:
  79              		.loc 1 105 0
  80              		.cfi_startproc
  81              		@ args = 0, pretend = 0, frame = 0
  82              		@ frame_needed = 0, uses_anonymous_args = 0
  83              	.LVL4:
  84 0000 10B5     		push	{r4, lr}
  85              		.cfi_def_cfa_offset 8
  86              		.cfi_offset 4, -8
  87              		.cfi_offset 14, -4
  88              		.loc 1 109 0
  89 0002 0446     		mov	r4, r0
  90 0004 48B1     		cbz	r0, .L17
  91              	.LVL5:
  92              	.L11:
  93              		.loc 1 111 0
  94 0006 2068     		ldr	r0, [r4]
  95              	.LVL6:
  96 0008 10B1     		cbz	r0, .L12
  97              		.loc 1 112 0
  98 000a 0368     		ldr	r3, [r0]
  99 000c 2360     		str	r3, [r4]
 100 000e 10BD     		pop	{r4, pc}
 101              	.LVL7:
 102              	.L12:
 103              		.loc 1 113 0
 104 0010 A368     		ldr	r3, [r4, #8]
 105 0012 0BB1     		cbz	r3, .L13
 106              		.loc 1 114 0
 107 0014 6068     		ldr	r0, [r4, #4]
 108              	.LVL8:
 109 0016 9847     		blx	r3
 110              	.LVL9:
 111              	.L13:
 112              		.loc 1 116 0
 113 0018 10BD     		pop	{r4, pc}
 114              	.LVL10:
ARM GAS  /tmp/ccLEpI8P.s 			page 3


 115              	.L17:
 116              		.loc 1 109 0 discriminator 1
 117 001a 0248     		ldr	r0, .L18
 118              	.LVL11:
 119 001c FFF7FEFF 		bl	chDbgPanic
 120              	.LVL12:
 121 0020 F1E7     		b	.L11
 122              	.L19:
 123 0022 00BF     		.align	2
 124              	.L18:
 125 0024 10000000 		.word	.LC1
 126              		.cfi_endproc
 127              	.LFE2:
 128              		.size	chPoolAllocI, .-chPoolAllocI
 129 0028 AFF30080 		.section	.text.chPoolAlloc,"ax",%progbits
 129      AFF30080 
 130              		.align	2
 131              		.p2align 4,,15
 132              		.global	chPoolAlloc
 133              		.thumb
 134              		.thumb_func
 135              		.type	chPoolAlloc, %function
 136              	chPoolAlloc:
 137              	.LFB3:
 138              		.loc 1 128 0
 139              		.cfi_startproc
 140              		@ args = 0, pretend = 0, frame = 0
 141              		@ frame_needed = 0, uses_anonymous_args = 0
 142              	.LVL13:
 143 0000 08B5     		push	{r3, lr}
 144              		.cfi_def_cfa_offset 8
 145              		.cfi_offset 3, -8
 146              		.cfi_offset 14, -4
 147              		.loc 1 131 0
 148              	@ 131 "../../os/kernel/src/chmempools.c" 1
 149 0002 FFF7FEFF 		bl      _port_lock
 150              	@ 0 "" 2
 151              		.loc 1 132 0
 152              		.thumb
 153 0006 FFF7FEFF 		bl	chPoolAllocI
 154              	.LVL14:
 155              		.loc 1 133 0
 156              	@ 133 "../../os/kernel/src/chmempools.c" 1
 157 000a FFF7FEFF 		bl      _port_unlock
 158              	@ 0 "" 2
 159              		.loc 1 135 0
 160              		.thumb
 161 000e 08BD     		pop	{r3, pc}
 162              		.cfi_endproc
 163              	.LFE3:
 164              		.size	chPoolAlloc, .-chPoolAlloc
 165              		.section	.text.chPoolFreeI,"ax",%progbits
 166              		.align	2
 167              		.p2align 4,,15
 168              		.global	chPoolFreeI
 169              		.thumb
 170              		.thumb_func
ARM GAS  /tmp/ccLEpI8P.s 			page 4


 171              		.type	chPoolFreeI, %function
 172              	chPoolFreeI:
 173              	.LFB4:
 174              		.loc 1 149 0
 175              		.cfi_startproc
 176              		@ args = 0, pretend = 0, frame = 0
 177              		@ frame_needed = 0, uses_anonymous_args = 0
 178              	.LVL15:
 179 0000 38B5     		push	{r3, r4, r5, lr}
 180              		.cfi_def_cfa_offset 16
 181              		.cfi_offset 3, -16
 182              		.cfi_offset 4, -12
 183              		.cfi_offset 5, -8
 184              		.cfi_offset 14, -4
 185              		.loc 1 153 0
 186 0002 0446     		mov	r4, r0
 187              		.loc 1 149 0
 188 0004 0D46     		mov	r5, r1
 189              	.LVL16:
 190              		.loc 1 153 0
 191 0006 20B1     		cbz	r0, .L22
 192              		.loc 1 153 0 is_stmt 0 discriminator 2
 193 0008 19B1     		cbz	r1, .L22
 194              		.loc 1 155 0 is_stmt 1
 195 000a 2368     		ldr	r3, [r4]
 196 000c 2B60     		str	r3, [r5]
 197              		.loc 1 156 0
 198 000e 2560     		str	r5, [r4]
 199 0010 38BD     		pop	{r3, r4, r5, pc}
 200              	.L22:
 201              		.loc 1 153 0 discriminator 1
 202 0012 0348     		ldr	r0, .L27
 203              	.LVL17:
 204 0014 FFF7FEFF 		bl	chDbgPanic
 205              	.LVL18:
 206              		.loc 1 155 0 discriminator 1
 207 0018 2368     		ldr	r3, [r4]
 208 001a 2B60     		str	r3, [r5]
 209              		.loc 1 156 0 discriminator 1
 210 001c 2560     		str	r5, [r4]
 211 001e 38BD     		pop	{r3, r4, r5, pc}
 212              	.LVL19:
 213              	.L28:
 214              		.align	2
 215              	.L27:
 216 0020 24000000 		.word	.LC2
 217              		.cfi_endproc
 218              	.LFE4:
 219              		.size	chPoolFreeI, .-chPoolFreeI
 220 0024 AFF30080 		.section	.text.chPoolFree,"ax",%progbits
 220      AFF30080 
 220      AFF30080 
 221              		.align	2
 222              		.p2align 4,,15
 223              		.global	chPoolFree
 224              		.thumb
 225              		.thumb_func
ARM GAS  /tmp/ccLEpI8P.s 			page 5


 226              		.type	chPoolFree, %function
 227              	chPoolFree:
 228              	.LFB5:
 229              		.loc 1 171 0
 230              		.cfi_startproc
 231              		@ args = 0, pretend = 0, frame = 0
 232              		@ frame_needed = 0, uses_anonymous_args = 0
 233              	.LVL20:
 234 0000 38B5     		push	{r3, r4, r5, lr}
 235              		.cfi_def_cfa_offset 16
 236              		.cfi_offset 3, -16
 237              		.cfi_offset 4, -12
 238              		.cfi_offset 5, -8
 239              		.cfi_offset 14, -4
 240              		.loc 1 171 0
 241 0002 0446     		mov	r4, r0
 242 0004 0D46     		mov	r5, r1
 243              		.loc 1 173 0
 244              	@ 173 "../../os/kernel/src/chmempools.c" 1
 245 0006 FFF7FEFF 		bl      _port_lock
 246              	@ 0 "" 2
 247              	.LVL21:
 248              		.thumb
 249              	.LBB4:
 250              	.LBB5:
 251              		.loc 1 153 0
 252 000a 30B1     		cbz	r0, .L30
 253 000c 29B1     		cbz	r1, .L30
 254              	.LVL22:
 255              	.L31:
 256              		.loc 1 155 0
 257 000e 2368     		ldr	r3, [r4]
 258 0010 2B60     		str	r3, [r5]
 259              		.loc 1 156 0
 260 0012 2560     		str	r5, [r4]
 261              	.LBE5:
 262              	.LBE4:
 263              		.loc 1 175 0
 264              	@ 175 "../../os/kernel/src/chmempools.c" 1
 265 0014 FFF7FEFF 		bl      _port_unlock
 266              	@ 0 "" 2
 267              		.thumb
 268 0018 38BD     		pop	{r3, r4, r5, pc}
 269              	.LVL23:
 270              	.L30:
 271              	.LBB7:
 272              	.LBB6:
 273              		.loc 1 153 0
 274 001a 0248     		ldr	r0, .L35
 275              	.LVL24:
 276 001c FFF7FEFF 		bl	chDbgPanic
 277              	.LVL25:
 278 0020 F5E7     		b	.L31
 279              	.L36:
 280 0022 00BF     		.align	2
 281              	.L35:
 282 0024 24000000 		.word	.LC2
ARM GAS  /tmp/ccLEpI8P.s 			page 6


 283              	.LBE6:
 284              	.LBE7:
 285              		.cfi_endproc
 286              	.LFE5:
 287              		.size	chPoolFree, .-chPoolFree
 288 0028 AFF30080 		.section	.text.chPoolLoadArray,"ax",%progbits
 288      AFF30080 
 289              		.align	2
 290              		.p2align 4,,15
 291              		.global	chPoolLoadArray
 292              		.thumb
 293              		.thumb_func
 294              		.type	chPoolLoadArray, %function
 295              	chPoolLoadArray:
 296              	.LFB1:
 297              		.loc 1 84 0
 298              		.cfi_startproc
 299              		@ args = 0, pretend = 0, frame = 0
 300              		@ frame_needed = 0, uses_anonymous_args = 0
 301              	.LVL26:
 302 0000 70B5     		push	{r4, r5, r6, lr}
 303              		.cfi_def_cfa_offset 16
 304              		.cfi_offset 4, -16
 305              		.cfi_offset 5, -12
 306              		.cfi_offset 6, -8
 307              		.cfi_offset 14, -4
 308              		.loc 1 86 0
 309 0002 0646     		mov	r6, r0
 310              		.loc 1 84 0
 311 0004 0D46     		mov	r5, r1
 312 0006 1446     		mov	r4, r2
 313              		.loc 1 86 0
 314 0008 28B1     		cbz	r0, .L38
 315              		.loc 1 86 0 is_stmt 0 discriminator 2
 316 000a 42B9     		cbnz	r2, .L40
 317              		.loc 1 86 0
 318 000c 0948     		ldr	r0, .L46
 319              	.LVL27:
 320              		.loc 1 93 0 is_stmt 1
 321 000e BDE87040 		pop	{r4, r5, r6, lr}
 322              	.LVL28:
 323              		.loc 1 86 0
 324 0012 FFF7FEBF 		b	chDbgPanic
 325              	.LVL29:
 326              	.L38:
 327              		.loc 1 86 0 is_stmt 0 discriminator 1
 328 0016 0748     		ldr	r0, .L46
 329              	.LVL30:
 330 0018 FFF7FEFF 		bl	chDbgPanic
 331              	.LVL31:
 332              		.loc 1 88 0 is_stmt 1 discriminator 1
 333 001c 44B1     		cbz	r4, .L37
 334              	.LVL32:
 335              	.L40:
 336              		.loc 1 89 0
 337 001e 2946     		mov	r1, r5
 338 0020 3046     		mov	r0, r6
ARM GAS  /tmp/ccLEpI8P.s 			page 7


 339 0022 FFF7FEFF 		bl	chPoolFree
 340              	.LVL33:
 341              		.loc 1 90 0
 342 0026 7368     		ldr	r3, [r6, #4]
 343              		.loc 1 88 0
 344 0028 013C     		subs	r4, r4, #1
 345              	.LVL34:
 346              		.loc 1 90 0
 347 002a 1D44     		add	r5, r5, r3
 348              	.LVL35:
 349              		.loc 1 88 0
 350 002c F7D1     		bne	.L40
 351 002e 70BD     		pop	{r4, r5, r6, pc}
 352              	.LVL36:
 353              	.L37:
 354 0030 70BD     		pop	{r4, r5, r6, pc}
 355              	.LVL37:
 356              	.L47:
 357 0032 00BF     		.align	2
 358              	.L46:
 359 0034 34000000 		.word	.LC3
 360              		.cfi_endproc
 361              	.LFE1:
 362              		.size	chPoolLoadArray, .-chPoolLoadArray
 363 0038 AFF30080 		.section	.rodata.str1.4,"aMS",%progbits,1
 363      AFF30080 
 364              		.align	2
 365              	.LC0:
 366 0000 22636850 		.ascii	"\"chPoolInit\"()\000"
 366      6F6F6C49 
 366      6E697422 
 366      282900
 367 000f 00       		.space	1
 368              	.LC1:
 369 0010 22636850 		.ascii	"\"chPoolAllocI\"()\000"
 369      6F6F6C41 
 369      6C6C6F63 
 369      49222829 
 369      00
 370 0021 000000   		.space	3
 371              	.LC2:
 372 0024 22636850 		.ascii	"\"chPoolFreeI\"()\000"
 372      6F6F6C46 
 372      72656549 
 372      22282900 
 373              	.LC3:
 374 0034 22636850 		.ascii	"\"chPoolLoadArray\"()\000"
 374      6F6F6C4C 
 374      6F616441 
 374      72726179 
 374      22282900 
 375              		.text
 376              	.Letext0:
 377              		.file 2 "/opt/ARM/lib/gcc/arm-none-eabi/4.8.4/include/stddef.h"
 378              		.file 3 "/opt/ARM/arm-none-eabi/include/machine/_default_types.h"
 379              		.file 4 "/opt/ARM/arm-none-eabi/include/stdint.h"
 380              		.file 5 "../../os/kernel/include/chmemcore.h"
ARM GAS  /tmp/ccLEpI8P.s 			page 8


 381              		.file 6 "../../os/kernel/include/chmempools.h"
 382              		.file 7 "../../os/kernel/include/chdebug.h"
 383              		.section	.debug_info,"",%progbits
 384              	.Ldebug_info0:
 385 0000 82030000 		.4byte	0x382
 386 0004 0400     		.2byte	0x4
 387 0006 00000000 		.4byte	.Ldebug_abbrev0
 388 000a 04       		.byte	0x4
 389 000b 01       		.uleb128 0x1
 390 000c C9010000 		.4byte	.LASF29
 391 0010 01       		.byte	0x1
 392 0011 85010000 		.4byte	.LASF30
 393 0015 A9000000 		.4byte	.LASF31
 394 0019 18000000 		.4byte	.Ldebug_ranges0+0x18
 395 001d 00000000 		.4byte	0
 396 0021 00000000 		.4byte	.Ldebug_line0
 397 0025 02       		.uleb128 0x2
 398 0026 04       		.byte	0x4
 399 0027 05       		.byte	0x5
 400 0028 696E7400 		.ascii	"int\000"
 401 002c 03       		.uleb128 0x3
 402 002d 0A000000 		.4byte	.LASF2
 403 0031 02       		.byte	0x2
 404 0032 D4       		.byte	0xd4
 405 0033 37000000 		.4byte	0x37
 406 0037 04       		.uleb128 0x4
 407 0038 04       		.byte	0x4
 408 0039 07       		.byte	0x7
 409 003a 00010000 		.4byte	.LASF0
 410 003e 04       		.uleb128 0x4
 411 003f 01       		.byte	0x1
 412 0040 06       		.byte	0x6
 413 0041 AF010000 		.4byte	.LASF1
 414 0045 03       		.uleb128 0x3
 415 0046 00000000 		.4byte	.LASF3
 416 004a 03       		.byte	0x3
 417 004b 1C       		.byte	0x1c
 418 004c 50000000 		.4byte	0x50
 419 0050 04       		.uleb128 0x4
 420 0051 01       		.byte	0x1
 421 0052 08       		.byte	0x8
 422 0053 7B000000 		.4byte	.LASF4
 423 0057 04       		.uleb128 0x4
 424 0058 02       		.byte	0x2
 425 0059 05       		.byte	0x5
 426 005a 89000000 		.4byte	.LASF5
 427 005e 04       		.uleb128 0x4
 428 005f 02       		.byte	0x2
 429 0060 07       		.byte	0x7
 430 0061 53000000 		.4byte	.LASF6
 431 0065 04       		.uleb128 0x4
 432 0066 04       		.byte	0x4
 433 0067 05       		.byte	0x5
 434 0068 A6010000 		.4byte	.LASF7
 435 006c 04       		.uleb128 0x4
 436 006d 04       		.byte	0x4
 437 006e 07       		.byte	0x7
ARM GAS  /tmp/ccLEpI8P.s 			page 9


 438 006f 41000000 		.4byte	.LASF8
 439 0073 04       		.uleb128 0x4
 440 0074 08       		.byte	0x8
 441 0075 05       		.byte	0x5
 442 0076 3D010000 		.4byte	.LASF9
 443 007a 04       		.uleb128 0x4
 444 007b 08       		.byte	0x8
 445 007c 07       		.byte	0x7
 446 007d 0D010000 		.4byte	.LASF10
 447 0081 03       		.uleb128 0x3
 448 0082 24010000 		.4byte	.LASF11
 449 0086 04       		.byte	0x4
 450 0087 2A       		.byte	0x2a
 451 0088 45000000 		.4byte	0x45
 452 008c 04       		.uleb128 0x4
 453 008d 01       		.byte	0x1
 454 008e 02       		.byte	0x2
 455 008f C3010000 		.4byte	.LASF12
 456 0093 05       		.uleb128 0x5
 457 0094 04       		.byte	0x4
 458 0095 04       		.uleb128 0x4
 459 0096 04       		.byte	0x4
 460 0097 07       		.byte	0x7
 461 0098 34010000 		.4byte	.LASF13
 462 009c 03       		.uleb128 0x3
 463 009d 5B010000 		.4byte	.LASF14
 464 00a1 05       		.byte	0x5
 465 00a2 2C       		.byte	0x2c
 466 00a3 A7000000 		.4byte	0xa7
 467 00a7 06       		.uleb128 0x6
 468 00a8 04       		.byte	0x4
 469 00a9 AD000000 		.4byte	0xad
 470 00ad 07       		.uleb128 0x7
 471 00ae 93000000 		.4byte	0x93
 472 00b2 BC000000 		.4byte	0xbc
 473 00b6 08       		.uleb128 0x8
 474 00b7 2C000000 		.4byte	0x2c
 475 00bb 00       		.byte	0
 476 00bc 09       		.uleb128 0x9
 477 00bd 30000000 		.4byte	.LASF32
 478 00c1 04       		.byte	0x4
 479 00c2 06       		.byte	0x6
 480 00c3 2C       		.byte	0x2c
 481 00c4 D5000000 		.4byte	0xd5
 482 00c8 0A       		.uleb128 0xa
 483 00c9 2C010000 		.4byte	.LASF15
 484 00cd 06       		.byte	0x6
 485 00ce 2D       		.byte	0x2d
 486 00cf D5000000 		.4byte	0xd5
 487 00d3 00       		.byte	0
 488 00d4 00       		.byte	0
 489 00d5 06       		.uleb128 0x6
 490 00d6 04       		.byte	0x4
 491 00d7 BC000000 		.4byte	0xbc
 492 00db 0B       		.uleb128 0xb
 493 00dc 0C       		.byte	0xc
 494 00dd 06       		.byte	0x6
ARM GAS  /tmp/ccLEpI8P.s 			page 10


 495 00de 34       		.byte	0x34
 496 00df 08010000 		.4byte	0x108
 497 00e3 0A       		.uleb128 0xa
 498 00e4 BB010000 		.4byte	.LASF16
 499 00e8 06       		.byte	0x6
 500 00e9 35       		.byte	0x35
 501 00ea D5000000 		.4byte	0xd5
 502 00ee 00       		.byte	0
 503 00ef 0A       		.uleb128 0xa
 504 00f0 11000000 		.4byte	.LASF17
 505 00f4 06       		.byte	0x6
 506 00f5 36       		.byte	0x36
 507 00f6 2C000000 		.4byte	0x2c
 508 00fa 04       		.byte	0x4
 509 00fb 0A       		.uleb128 0xa
 510 00fc 68010000 		.4byte	.LASF18
 511 0100 06       		.byte	0x6
 512 0101 38       		.byte	0x38
 513 0102 9C000000 		.4byte	0x9c
 514 0106 08       		.byte	0x8
 515 0107 00       		.byte	0
 516 0108 03       		.uleb128 0x3
 517 0109 9E000000 		.4byte	.LASF19
 518 010d 06       		.byte	0x6
 519 010e 3A       		.byte	0x3a
 520 010f DB000000 		.4byte	0xdb
 521 0113 06       		.uleb128 0x6
 522 0114 04       		.byte	0x4
 523 0115 19010000 		.4byte	0x119
 524 0119 0C       		.uleb128 0xc
 525 011a 1E010000 		.4byte	0x11e
 526 011e 04       		.uleb128 0x4
 527 011f 01       		.byte	0x1
 528 0120 08       		.byte	0x8
 529 0121 4B010000 		.4byte	.LASF20
 530 0125 0D       		.uleb128 0xd
 531 0126 6F000000 		.4byte	.LASF33
 532 012a 01       		.byte	0x1
 533 012b 95       		.byte	0x95
 534 012c 01       		.byte	0x1
 535 012d 52010000 		.4byte	0x152
 536 0131 0E       		.uleb128 0xe
 537 0132 6D7000   		.ascii	"mp\000"
 538 0135 01       		.byte	0x1
 539 0136 95       		.byte	0x95
 540 0137 52010000 		.4byte	0x152
 541 013b 0F       		.uleb128 0xf
 542 013c 74010000 		.4byte	.LASF21
 543 0140 01       		.byte	0x1
 544 0141 95       		.byte	0x95
 545 0142 93000000 		.4byte	0x93
 546 0146 10       		.uleb128 0x10
 547 0147 70687000 		.ascii	"php\000"
 548 014b 01       		.byte	0x1
 549 014c 96       		.byte	0x96
 550 014d D5000000 		.4byte	0xd5
 551 0151 00       		.byte	0
ARM GAS  /tmp/ccLEpI8P.s 			page 11


 552 0152 06       		.uleb128 0x6
 553 0153 04       		.byte	0x4
 554 0154 08010000 		.4byte	0x108
 555 0158 11       		.uleb128 0x11
 556 0159 E2020000 		.4byte	.LASF26
 557 015d 01       		.byte	0x1
 558 015e 3E       		.byte	0x3e
 559 015f 00000000 		.4byte	.LFB0
 560 0163 20000000 		.4byte	.LFE0-.LFB0
 561 0167 01       		.uleb128 0x1
 562 0168 9C       		.byte	0x9c
 563 0169 AD010000 		.4byte	0x1ad
 564 016d 12       		.uleb128 0x12
 565 016e 6D7000   		.ascii	"mp\000"
 566 0171 01       		.byte	0x1
 567 0172 3E       		.byte	0x3e
 568 0173 52010000 		.4byte	0x152
 569 0177 00000000 		.4byte	.LLST0
 570 017b 13       		.uleb128 0x13
 571 017c 3C000000 		.4byte	.LASF22
 572 0180 01       		.byte	0x1
 573 0181 3E       		.byte	0x3e
 574 0182 2C000000 		.4byte	0x2c
 575 0186 2C000000 		.4byte	.LLST1
 576 018a 13       		.uleb128 0x13
 577 018b 66000000 		.4byte	.LASF23
 578 018f 01       		.byte	0x1
 579 0190 3E       		.byte	0x3e
 580 0191 9C000000 		.4byte	0x9c
 581 0195 59000000 		.4byte	.LLST2
 582 0199 14       		.uleb128 0x14
 583 019a 14000000 		.4byte	.LVL2
 584 019e 78030000 		.4byte	0x378
 585 01a2 15       		.uleb128 0x15
 586 01a3 01       		.uleb128 0x1
 587 01a4 50       		.byte	0x50
 588 01a5 05       		.uleb128 0x5
 589 01a6 03       		.byte	0x3
 590 01a7 00000000 		.4byte	.LC0
 591 01ab 00       		.byte	0
 592 01ac 00       		.byte	0
 593 01ad 16       		.uleb128 0x16
 594 01ae F3000000 		.4byte	.LASF24
 595 01b2 01       		.byte	0x1
 596 01b3 69       		.byte	0x69
 597 01b4 93000000 		.4byte	0x93
 598 01b8 00000000 		.4byte	.LFB2
 599 01bc 28000000 		.4byte	.LFE2-.LFB2
 600 01c0 01       		.uleb128 0x1
 601 01c1 9C       		.byte	0x9c
 602 01c2 F7010000 		.4byte	0x1f7
 603 01c6 12       		.uleb128 0x12
 604 01c7 6D7000   		.ascii	"mp\000"
 605 01ca 01       		.byte	0x1
 606 01cb 69       		.byte	0x69
 607 01cc 52010000 		.4byte	0x152
 608 01d0 86000000 		.4byte	.LLST3
ARM GAS  /tmp/ccLEpI8P.s 			page 12


 609 01d4 17       		.uleb128 0x17
 610 01d5 74010000 		.4byte	.LASF21
 611 01d9 01       		.byte	0x1
 612 01da 6A       		.byte	0x6a
 613 01db 93000000 		.4byte	0x93
 614 01df BA000000 		.4byte	.LLST4
 615 01e3 14       		.uleb128 0x14
 616 01e4 20000000 		.4byte	.LVL12
 617 01e8 78030000 		.4byte	0x378
 618 01ec 15       		.uleb128 0x15
 619 01ed 01       		.uleb128 0x1
 620 01ee 50       		.byte	0x50
 621 01ef 05       		.uleb128 0x5
 622 01f0 03       		.byte	0x3
 623 01f1 10000000 		.4byte	.LC1
 624 01f5 00       		.byte	0
 625 01f6 00       		.byte	0
 626 01f7 18       		.uleb128 0x18
 627 01f8 79010000 		.4byte	.LASF25
 628 01fc 01       		.byte	0x1
 629 01fd 80       		.byte	0x80
 630 01fe 93000000 		.4byte	0x93
 631 0202 00000000 		.4byte	.LFB3
 632 0206 10000000 		.4byte	.LFE3-.LFB3
 633 020a 01       		.uleb128 0x1
 634 020b 9C       		.byte	0x9c
 635 020c 3D020000 		.4byte	0x23d
 636 0210 12       		.uleb128 0x12
 637 0211 6D7000   		.ascii	"mp\000"
 638 0214 01       		.byte	0x1
 639 0215 80       		.byte	0x80
 640 0216 52010000 		.4byte	0x152
 641 021a E4000000 		.4byte	.LLST5
 642 021e 19       		.uleb128 0x19
 643 021f 74010000 		.4byte	.LASF21
 644 0223 01       		.byte	0x1
 645 0224 81       		.byte	0x81
 646 0225 93000000 		.4byte	0x93
 647 0229 01       		.uleb128 0x1
 648 022a 50       		.byte	0x50
 649 022b 14       		.uleb128 0x14
 650 022c 0A000000 		.4byte	.LVL14
 651 0230 AD010000 		.4byte	0x1ad
 652 0234 15       		.uleb128 0x15
 653 0235 01       		.uleb128 0x1
 654 0236 50       		.byte	0x50
 655 0237 03       		.uleb128 0x3
 656 0238 F3       		.byte	0xf3
 657 0239 01       		.uleb128 0x1
 658 023a 50       		.byte	0x50
 659 023b 00       		.byte	0
 660 023c 00       		.byte	0
 661 023d 1A       		.uleb128 0x1a
 662 023e 25010000 		.4byte	0x125
 663 0242 00000000 		.4byte	.LFB4
 664 0246 24000000 		.4byte	.LFE4-.LFB4
 665 024a 01       		.uleb128 0x1
ARM GAS  /tmp/ccLEpI8P.s 			page 13


 666 024b 9C       		.byte	0x9c
 667 024c 7F020000 		.4byte	0x27f
 668 0250 1B       		.uleb128 0x1b
 669 0251 31010000 		.4byte	0x131
 670 0255 05010000 		.4byte	.LLST6
 671 0259 1B       		.uleb128 0x1b
 672 025a 3B010000 		.4byte	0x13b
 673 025e 31010000 		.4byte	.LLST7
 674 0262 1C       		.uleb128 0x1c
 675 0263 46010000 		.4byte	0x146
 676 0267 5C010000 		.4byte	.LLST8
 677 026b 14       		.uleb128 0x14
 678 026c 18000000 		.4byte	.LVL18
 679 0270 78030000 		.4byte	0x378
 680 0274 15       		.uleb128 0x15
 681 0275 01       		.uleb128 0x1
 682 0276 50       		.byte	0x50
 683 0277 05       		.uleb128 0x5
 684 0278 03       		.byte	0x3
 685 0279 24000000 		.4byte	.LC2
 686 027d 00       		.byte	0
 687 027e 00       		.byte	0
 688 027f 11       		.uleb128 0x11
 689 0280 93000000 		.4byte	.LASF27
 690 0284 01       		.byte	0x1
 691 0285 AB       		.byte	0xab
 692 0286 00000000 		.4byte	.LFB5
 693 028a 28000000 		.4byte	.LFE5-.LFB5
 694 028e 01       		.uleb128 0x1
 695 028f 9C       		.byte	0x9c
 696 0290 F6020000 		.4byte	0x2f6
 697 0294 12       		.uleb128 0x12
 698 0295 6D7000   		.ascii	"mp\000"
 699 0298 01       		.byte	0x1
 700 0299 AB       		.byte	0xab
 701 029a 52010000 		.4byte	0x152
 702 029e 87010000 		.4byte	.LLST9
 703 02a2 13       		.uleb128 0x13
 704 02a3 74010000 		.4byte	.LASF21
 705 02a7 01       		.byte	0x1
 706 02a8 AB       		.byte	0xab
 707 02a9 93000000 		.4byte	0x93
 708 02ad BB010000 		.4byte	.LLST10
 709 02b1 1D       		.uleb128 0x1d
 710 02b2 25010000 		.4byte	0x125
 711 02b6 0A000000 		.4byte	.LBB4
 712 02ba 00000000 		.4byte	.Ldebug_ranges0+0
 713 02be 01       		.byte	0x1
 714 02bf AE       		.byte	0xae
 715 02c0 1B       		.uleb128 0x1b
 716 02c1 3B010000 		.4byte	0x13b
 717 02c5 EF010000 		.4byte	.LLST11
 718 02c9 1B       		.uleb128 0x1b
 719 02ca 31010000 		.4byte	0x131
 720 02ce 23020000 		.4byte	.LLST12
 721 02d2 1E       		.uleb128 0x1e
 722 02d3 00000000 		.4byte	.Ldebug_ranges0+0
ARM GAS  /tmp/ccLEpI8P.s 			page 14


 723 02d7 1C       		.uleb128 0x1c
 724 02d8 46010000 		.4byte	0x146
 725 02dc EF010000 		.4byte	.LLST11
 726 02e0 14       		.uleb128 0x14
 727 02e1 20000000 		.4byte	.LVL25
 728 02e5 78030000 		.4byte	0x378
 729 02e9 15       		.uleb128 0x15
 730 02ea 01       		.uleb128 0x1
 731 02eb 50       		.byte	0x50
 732 02ec 05       		.uleb128 0x5
 733 02ed 03       		.byte	0x3
 734 02ee 24000000 		.4byte	.LC2
 735 02f2 00       		.byte	0
 736 02f3 00       		.byte	0
 737 02f4 00       		.byte	0
 738 02f5 00       		.byte	0
 739 02f6 11       		.uleb128 0x11
 740 02f7 20000000 		.4byte	.LASF28
 741 02fb 01       		.byte	0x1
 742 02fc 54       		.byte	0x54
 743 02fd 00000000 		.4byte	.LFB1
 744 0301 38000000 		.4byte	.LFE1-.LFB1
 745 0305 01       		.uleb128 0x1
 746 0306 9C       		.byte	0x9c
 747 0307 78030000 		.4byte	0x378
 748 030b 12       		.uleb128 0x12
 749 030c 6D7000   		.ascii	"mp\000"
 750 030f 01       		.byte	0x1
 751 0310 54       		.byte	0x54
 752 0311 52010000 		.4byte	0x152
 753 0315 57020000 		.4byte	.LLST14
 754 0319 12       		.uleb128 0x12
 755 031a 7000     		.ascii	"p\000"
 756 031c 01       		.byte	0x1
 757 031d 54       		.byte	0x54
 758 031e 93000000 		.4byte	0x93
 759 0322 A7020000 		.4byte	.LLST15
 760 0326 12       		.uleb128 0x12
 761 0327 6E00     		.ascii	"n\000"
 762 0329 01       		.byte	0x1
 763 032a 54       		.byte	0x54
 764 032b 2C000000 		.4byte	0x2c
 765 032f EC020000 		.4byte	.LLST16
 766 0333 1F       		.uleb128 0x1f
 767 0334 16000000 		.4byte	.LVL29
 768 0338 78030000 		.4byte	0x378
 769 033c 4A030000 		.4byte	0x34a
 770 0340 15       		.uleb128 0x15
 771 0341 01       		.uleb128 0x1
 772 0342 50       		.byte	0x50
 773 0343 05       		.uleb128 0x5
 774 0344 03       		.byte	0x3
 775 0345 34000000 		.4byte	.LC3
 776 0349 00       		.byte	0
 777 034a 20       		.uleb128 0x20
 778 034b 1C000000 		.4byte	.LVL31
 779 034f 78030000 		.4byte	0x378
ARM GAS  /tmp/ccLEpI8P.s 			page 15


 780 0353 61030000 		.4byte	0x361
 781 0357 15       		.uleb128 0x15
 782 0358 01       		.uleb128 0x1
 783 0359 50       		.byte	0x50
 784 035a 05       		.uleb128 0x5
 785 035b 03       		.byte	0x3
 786 035c 34000000 		.4byte	.LC3
 787 0360 00       		.byte	0
 788 0361 14       		.uleb128 0x14
 789 0362 26000000 		.4byte	.LVL33
 790 0366 7F020000 		.4byte	0x27f
 791 036a 15       		.uleb128 0x15
 792 036b 01       		.uleb128 0x1
 793 036c 51       		.byte	0x51
 794 036d 02       		.uleb128 0x2
 795 036e 75       		.byte	0x75
 796 036f 00       		.sleb128 0
 797 0370 15       		.uleb128 0x15
 798 0371 01       		.uleb128 0x1
 799 0372 50       		.byte	0x50
 800 0373 02       		.uleb128 0x2
 801 0374 76       		.byte	0x76
 802 0375 00       		.sleb128 0
 803 0376 00       		.byte	0
 804 0377 00       		.byte	0
 805 0378 21       		.uleb128 0x21
 806 0379 50010000 		.4byte	.LASF34
 807 037d 07       		.byte	0x7
 808 037e F6       		.byte	0xf6
 809 037f 08       		.uleb128 0x8
 810 0380 13010000 		.4byte	0x113
 811 0384 00       		.byte	0
 812 0385 00       		.byte	0
 813              		.section	.debug_abbrev,"",%progbits
 814              	.Ldebug_abbrev0:
 815 0000 01       		.uleb128 0x1
 816 0001 11       		.uleb128 0x11
 817 0002 01       		.byte	0x1
 818 0003 25       		.uleb128 0x25
 819 0004 0E       		.uleb128 0xe
 820 0005 13       		.uleb128 0x13
 821 0006 0B       		.uleb128 0xb
 822 0007 03       		.uleb128 0x3
 823 0008 0E       		.uleb128 0xe
 824 0009 1B       		.uleb128 0x1b
 825 000a 0E       		.uleb128 0xe
 826 000b 55       		.uleb128 0x55
 827 000c 17       		.uleb128 0x17
 828 000d 11       		.uleb128 0x11
 829 000e 01       		.uleb128 0x1
 830 000f 10       		.uleb128 0x10
 831 0010 17       		.uleb128 0x17
 832 0011 00       		.byte	0
 833 0012 00       		.byte	0
 834 0013 02       		.uleb128 0x2
 835 0014 24       		.uleb128 0x24
 836 0015 00       		.byte	0
ARM GAS  /tmp/ccLEpI8P.s 			page 16


 837 0016 0B       		.uleb128 0xb
 838 0017 0B       		.uleb128 0xb
 839 0018 3E       		.uleb128 0x3e
 840 0019 0B       		.uleb128 0xb
 841 001a 03       		.uleb128 0x3
 842 001b 08       		.uleb128 0x8
 843 001c 00       		.byte	0
 844 001d 00       		.byte	0
 845 001e 03       		.uleb128 0x3
 846 001f 16       		.uleb128 0x16
 847 0020 00       		.byte	0
 848 0021 03       		.uleb128 0x3
 849 0022 0E       		.uleb128 0xe
 850 0023 3A       		.uleb128 0x3a
 851 0024 0B       		.uleb128 0xb
 852 0025 3B       		.uleb128 0x3b
 853 0026 0B       		.uleb128 0xb
 854 0027 49       		.uleb128 0x49
 855 0028 13       		.uleb128 0x13
 856 0029 00       		.byte	0
 857 002a 00       		.byte	0
 858 002b 04       		.uleb128 0x4
 859 002c 24       		.uleb128 0x24
 860 002d 00       		.byte	0
 861 002e 0B       		.uleb128 0xb
 862 002f 0B       		.uleb128 0xb
 863 0030 3E       		.uleb128 0x3e
 864 0031 0B       		.uleb128 0xb
 865 0032 03       		.uleb128 0x3
 866 0033 0E       		.uleb128 0xe
 867 0034 00       		.byte	0
 868 0035 00       		.byte	0
 869 0036 05       		.uleb128 0x5
 870 0037 0F       		.uleb128 0xf
 871 0038 00       		.byte	0
 872 0039 0B       		.uleb128 0xb
 873 003a 0B       		.uleb128 0xb
 874 003b 00       		.byte	0
 875 003c 00       		.byte	0
 876 003d 06       		.uleb128 0x6
 877 003e 0F       		.uleb128 0xf
 878 003f 00       		.byte	0
 879 0040 0B       		.uleb128 0xb
 880 0041 0B       		.uleb128 0xb
 881 0042 49       		.uleb128 0x49
 882 0043 13       		.uleb128 0x13
 883 0044 00       		.byte	0
 884 0045 00       		.byte	0
 885 0046 07       		.uleb128 0x7
 886 0047 15       		.uleb128 0x15
 887 0048 01       		.byte	0x1
 888 0049 27       		.uleb128 0x27
 889 004a 19       		.uleb128 0x19
 890 004b 49       		.uleb128 0x49
 891 004c 13       		.uleb128 0x13
 892 004d 01       		.uleb128 0x1
 893 004e 13       		.uleb128 0x13
ARM GAS  /tmp/ccLEpI8P.s 			page 17


 894 004f 00       		.byte	0
 895 0050 00       		.byte	0
 896 0051 08       		.uleb128 0x8
 897 0052 05       		.uleb128 0x5
 898 0053 00       		.byte	0
 899 0054 49       		.uleb128 0x49
 900 0055 13       		.uleb128 0x13
 901 0056 00       		.byte	0
 902 0057 00       		.byte	0
 903 0058 09       		.uleb128 0x9
 904 0059 13       		.uleb128 0x13
 905 005a 01       		.byte	0x1
 906 005b 03       		.uleb128 0x3
 907 005c 0E       		.uleb128 0xe
 908 005d 0B       		.uleb128 0xb
 909 005e 0B       		.uleb128 0xb
 910 005f 3A       		.uleb128 0x3a
 911 0060 0B       		.uleb128 0xb
 912 0061 3B       		.uleb128 0x3b
 913 0062 0B       		.uleb128 0xb
 914 0063 01       		.uleb128 0x1
 915 0064 13       		.uleb128 0x13
 916 0065 00       		.byte	0
 917 0066 00       		.byte	0
 918 0067 0A       		.uleb128 0xa
 919 0068 0D       		.uleb128 0xd
 920 0069 00       		.byte	0
 921 006a 03       		.uleb128 0x3
 922 006b 0E       		.uleb128 0xe
 923 006c 3A       		.uleb128 0x3a
 924 006d 0B       		.uleb128 0xb
 925 006e 3B       		.uleb128 0x3b
 926 006f 0B       		.uleb128 0xb
 927 0070 49       		.uleb128 0x49
 928 0071 13       		.uleb128 0x13
 929 0072 38       		.uleb128 0x38
 930 0073 0B       		.uleb128 0xb
 931 0074 00       		.byte	0
 932 0075 00       		.byte	0
 933 0076 0B       		.uleb128 0xb
 934 0077 13       		.uleb128 0x13
 935 0078 01       		.byte	0x1
 936 0079 0B       		.uleb128 0xb
 937 007a 0B       		.uleb128 0xb
 938 007b 3A       		.uleb128 0x3a
 939 007c 0B       		.uleb128 0xb
 940 007d 3B       		.uleb128 0x3b
 941 007e 0B       		.uleb128 0xb
 942 007f 01       		.uleb128 0x1
 943 0080 13       		.uleb128 0x13
 944 0081 00       		.byte	0
 945 0082 00       		.byte	0
 946 0083 0C       		.uleb128 0xc
 947 0084 26       		.uleb128 0x26
 948 0085 00       		.byte	0
 949 0086 49       		.uleb128 0x49
 950 0087 13       		.uleb128 0x13
ARM GAS  /tmp/ccLEpI8P.s 			page 18


 951 0088 00       		.byte	0
 952 0089 00       		.byte	0
 953 008a 0D       		.uleb128 0xd
 954 008b 2E       		.uleb128 0x2e
 955 008c 01       		.byte	0x1
 956 008d 3F       		.uleb128 0x3f
 957 008e 19       		.uleb128 0x19
 958 008f 03       		.uleb128 0x3
 959 0090 0E       		.uleb128 0xe
 960 0091 3A       		.uleb128 0x3a
 961 0092 0B       		.uleb128 0xb
 962 0093 3B       		.uleb128 0x3b
 963 0094 0B       		.uleb128 0xb
 964 0095 27       		.uleb128 0x27
 965 0096 19       		.uleb128 0x19
 966 0097 20       		.uleb128 0x20
 967 0098 0B       		.uleb128 0xb
 968 0099 01       		.uleb128 0x1
 969 009a 13       		.uleb128 0x13
 970 009b 00       		.byte	0
 971 009c 00       		.byte	0
 972 009d 0E       		.uleb128 0xe
 973 009e 05       		.uleb128 0x5
 974 009f 00       		.byte	0
 975 00a0 03       		.uleb128 0x3
 976 00a1 08       		.uleb128 0x8
 977 00a2 3A       		.uleb128 0x3a
 978 00a3 0B       		.uleb128 0xb
 979 00a4 3B       		.uleb128 0x3b
 980 00a5 0B       		.uleb128 0xb
 981 00a6 49       		.uleb128 0x49
 982 00a7 13       		.uleb128 0x13
 983 00a8 00       		.byte	0
 984 00a9 00       		.byte	0
 985 00aa 0F       		.uleb128 0xf
 986 00ab 05       		.uleb128 0x5
 987 00ac 00       		.byte	0
 988 00ad 03       		.uleb128 0x3
 989 00ae 0E       		.uleb128 0xe
 990 00af 3A       		.uleb128 0x3a
 991 00b0 0B       		.uleb128 0xb
 992 00b1 3B       		.uleb128 0x3b
 993 00b2 0B       		.uleb128 0xb
 994 00b3 49       		.uleb128 0x49
 995 00b4 13       		.uleb128 0x13
 996 00b5 00       		.byte	0
 997 00b6 00       		.byte	0
 998 00b7 10       		.uleb128 0x10
 999 00b8 34       		.uleb128 0x34
 1000 00b9 00       		.byte	0
 1001 00ba 03       		.uleb128 0x3
 1002 00bb 08       		.uleb128 0x8
 1003 00bc 3A       		.uleb128 0x3a
 1004 00bd 0B       		.uleb128 0xb
 1005 00be 3B       		.uleb128 0x3b
 1006 00bf 0B       		.uleb128 0xb
 1007 00c0 49       		.uleb128 0x49
ARM GAS  /tmp/ccLEpI8P.s 			page 19


 1008 00c1 13       		.uleb128 0x13
 1009 00c2 00       		.byte	0
 1010 00c3 00       		.byte	0
 1011 00c4 11       		.uleb128 0x11
 1012 00c5 2E       		.uleb128 0x2e
 1013 00c6 01       		.byte	0x1
 1014 00c7 3F       		.uleb128 0x3f
 1015 00c8 19       		.uleb128 0x19
 1016 00c9 03       		.uleb128 0x3
 1017 00ca 0E       		.uleb128 0xe
 1018 00cb 3A       		.uleb128 0x3a
 1019 00cc 0B       		.uleb128 0xb
 1020 00cd 3B       		.uleb128 0x3b
 1021 00ce 0B       		.uleb128 0xb
 1022 00cf 27       		.uleb128 0x27
 1023 00d0 19       		.uleb128 0x19
 1024 00d1 11       		.uleb128 0x11
 1025 00d2 01       		.uleb128 0x1
 1026 00d3 12       		.uleb128 0x12
 1027 00d4 06       		.uleb128 0x6
 1028 00d5 40       		.uleb128 0x40
 1029 00d6 18       		.uleb128 0x18
 1030 00d7 9742     		.uleb128 0x2117
 1031 00d9 19       		.uleb128 0x19
 1032 00da 01       		.uleb128 0x1
 1033 00db 13       		.uleb128 0x13
 1034 00dc 00       		.byte	0
 1035 00dd 00       		.byte	0
 1036 00de 12       		.uleb128 0x12
 1037 00df 05       		.uleb128 0x5
 1038 00e0 00       		.byte	0
 1039 00e1 03       		.uleb128 0x3
 1040 00e2 08       		.uleb128 0x8
 1041 00e3 3A       		.uleb128 0x3a
 1042 00e4 0B       		.uleb128 0xb
 1043 00e5 3B       		.uleb128 0x3b
 1044 00e6 0B       		.uleb128 0xb
 1045 00e7 49       		.uleb128 0x49
 1046 00e8 13       		.uleb128 0x13
 1047 00e9 02       		.uleb128 0x2
 1048 00ea 17       		.uleb128 0x17
 1049 00eb 00       		.byte	0
 1050 00ec 00       		.byte	0
 1051 00ed 13       		.uleb128 0x13
 1052 00ee 05       		.uleb128 0x5
 1053 00ef 00       		.byte	0
 1054 00f0 03       		.uleb128 0x3
 1055 00f1 0E       		.uleb128 0xe
 1056 00f2 3A       		.uleb128 0x3a
 1057 00f3 0B       		.uleb128 0xb
 1058 00f4 3B       		.uleb128 0x3b
 1059 00f5 0B       		.uleb128 0xb
 1060 00f6 49       		.uleb128 0x49
 1061 00f7 13       		.uleb128 0x13
 1062 00f8 02       		.uleb128 0x2
 1063 00f9 17       		.uleb128 0x17
 1064 00fa 00       		.byte	0
ARM GAS  /tmp/ccLEpI8P.s 			page 20


 1065 00fb 00       		.byte	0
 1066 00fc 14       		.uleb128 0x14
 1067 00fd 898201   		.uleb128 0x4109
 1068 0100 01       		.byte	0x1
 1069 0101 11       		.uleb128 0x11
 1070 0102 01       		.uleb128 0x1
 1071 0103 31       		.uleb128 0x31
 1072 0104 13       		.uleb128 0x13
 1073 0105 00       		.byte	0
 1074 0106 00       		.byte	0
 1075 0107 15       		.uleb128 0x15
 1076 0108 8A8201   		.uleb128 0x410a
 1077 010b 00       		.byte	0
 1078 010c 02       		.uleb128 0x2
 1079 010d 18       		.uleb128 0x18
 1080 010e 9142     		.uleb128 0x2111
 1081 0110 18       		.uleb128 0x18
 1082 0111 00       		.byte	0
 1083 0112 00       		.byte	0
 1084 0113 16       		.uleb128 0x16
 1085 0114 2E       		.uleb128 0x2e
 1086 0115 01       		.byte	0x1
 1087 0116 3F       		.uleb128 0x3f
 1088 0117 19       		.uleb128 0x19
 1089 0118 03       		.uleb128 0x3
 1090 0119 0E       		.uleb128 0xe
 1091 011a 3A       		.uleb128 0x3a
 1092 011b 0B       		.uleb128 0xb
 1093 011c 3B       		.uleb128 0x3b
 1094 011d 0B       		.uleb128 0xb
 1095 011e 27       		.uleb128 0x27
 1096 011f 19       		.uleb128 0x19
 1097 0120 49       		.uleb128 0x49
 1098 0121 13       		.uleb128 0x13
 1099 0122 11       		.uleb128 0x11
 1100 0123 01       		.uleb128 0x1
 1101 0124 12       		.uleb128 0x12
 1102 0125 06       		.uleb128 0x6
 1103 0126 40       		.uleb128 0x40
 1104 0127 18       		.uleb128 0x18
 1105 0128 9642     		.uleb128 0x2116
 1106 012a 19       		.uleb128 0x19
 1107 012b 01       		.uleb128 0x1
 1108 012c 13       		.uleb128 0x13
 1109 012d 00       		.byte	0
 1110 012e 00       		.byte	0
 1111 012f 17       		.uleb128 0x17
 1112 0130 34       		.uleb128 0x34
 1113 0131 00       		.byte	0
 1114 0132 03       		.uleb128 0x3
 1115 0133 0E       		.uleb128 0xe
 1116 0134 3A       		.uleb128 0x3a
 1117 0135 0B       		.uleb128 0xb
 1118 0136 3B       		.uleb128 0x3b
 1119 0137 0B       		.uleb128 0xb
 1120 0138 49       		.uleb128 0x49
 1121 0139 13       		.uleb128 0x13
ARM GAS  /tmp/ccLEpI8P.s 			page 21


 1122 013a 02       		.uleb128 0x2
 1123 013b 17       		.uleb128 0x17
 1124 013c 00       		.byte	0
 1125 013d 00       		.byte	0
 1126 013e 18       		.uleb128 0x18
 1127 013f 2E       		.uleb128 0x2e
 1128 0140 01       		.byte	0x1
 1129 0141 3F       		.uleb128 0x3f
 1130 0142 19       		.uleb128 0x19
 1131 0143 03       		.uleb128 0x3
 1132 0144 0E       		.uleb128 0xe
 1133 0145 3A       		.uleb128 0x3a
 1134 0146 0B       		.uleb128 0xb
 1135 0147 3B       		.uleb128 0x3b
 1136 0148 0B       		.uleb128 0xb
 1137 0149 27       		.uleb128 0x27
 1138 014a 19       		.uleb128 0x19
 1139 014b 49       		.uleb128 0x49
 1140 014c 13       		.uleb128 0x13
 1141 014d 11       		.uleb128 0x11
 1142 014e 01       		.uleb128 0x1
 1143 014f 12       		.uleb128 0x12
 1144 0150 06       		.uleb128 0x6
 1145 0151 40       		.uleb128 0x40
 1146 0152 18       		.uleb128 0x18
 1147 0153 9742     		.uleb128 0x2117
 1148 0155 19       		.uleb128 0x19
 1149 0156 01       		.uleb128 0x1
 1150 0157 13       		.uleb128 0x13
 1151 0158 00       		.byte	0
 1152 0159 00       		.byte	0
 1153 015a 19       		.uleb128 0x19
 1154 015b 34       		.uleb128 0x34
 1155 015c 00       		.byte	0
 1156 015d 03       		.uleb128 0x3
 1157 015e 0E       		.uleb128 0xe
 1158 015f 3A       		.uleb128 0x3a
 1159 0160 0B       		.uleb128 0xb
 1160 0161 3B       		.uleb128 0x3b
 1161 0162 0B       		.uleb128 0xb
 1162 0163 49       		.uleb128 0x49
 1163 0164 13       		.uleb128 0x13
 1164 0165 02       		.uleb128 0x2
 1165 0166 18       		.uleb128 0x18
 1166 0167 00       		.byte	0
 1167 0168 00       		.byte	0
 1168 0169 1A       		.uleb128 0x1a
 1169 016a 2E       		.uleb128 0x2e
 1170 016b 01       		.byte	0x1
 1171 016c 31       		.uleb128 0x31
 1172 016d 13       		.uleb128 0x13
 1173 016e 11       		.uleb128 0x11
 1174 016f 01       		.uleb128 0x1
 1175 0170 12       		.uleb128 0x12
 1176 0171 06       		.uleb128 0x6
 1177 0172 40       		.uleb128 0x40
 1178 0173 18       		.uleb128 0x18
ARM GAS  /tmp/ccLEpI8P.s 			page 22


 1179 0174 9742     		.uleb128 0x2117
 1180 0176 19       		.uleb128 0x19
 1181 0177 01       		.uleb128 0x1
 1182 0178 13       		.uleb128 0x13
 1183 0179 00       		.byte	0
 1184 017a 00       		.byte	0
 1185 017b 1B       		.uleb128 0x1b
 1186 017c 05       		.uleb128 0x5
 1187 017d 00       		.byte	0
 1188 017e 31       		.uleb128 0x31
 1189 017f 13       		.uleb128 0x13
 1190 0180 02       		.uleb128 0x2
 1191 0181 17       		.uleb128 0x17
 1192 0182 00       		.byte	0
 1193 0183 00       		.byte	0
 1194 0184 1C       		.uleb128 0x1c
 1195 0185 34       		.uleb128 0x34
 1196 0186 00       		.byte	0
 1197 0187 31       		.uleb128 0x31
 1198 0188 13       		.uleb128 0x13
 1199 0189 02       		.uleb128 0x2
 1200 018a 17       		.uleb128 0x17
 1201 018b 00       		.byte	0
 1202 018c 00       		.byte	0
 1203 018d 1D       		.uleb128 0x1d
 1204 018e 1D       		.uleb128 0x1d
 1205 018f 01       		.byte	0x1
 1206 0190 31       		.uleb128 0x31
 1207 0191 13       		.uleb128 0x13
 1208 0192 52       		.uleb128 0x52
 1209 0193 01       		.uleb128 0x1
 1210 0194 55       		.uleb128 0x55
 1211 0195 17       		.uleb128 0x17
 1212 0196 58       		.uleb128 0x58
 1213 0197 0B       		.uleb128 0xb
 1214 0198 59       		.uleb128 0x59
 1215 0199 0B       		.uleb128 0xb
 1216 019a 00       		.byte	0
 1217 019b 00       		.byte	0
 1218 019c 1E       		.uleb128 0x1e
 1219 019d 0B       		.uleb128 0xb
 1220 019e 01       		.byte	0x1
 1221 019f 55       		.uleb128 0x55
 1222 01a0 17       		.uleb128 0x17
 1223 01a1 00       		.byte	0
 1224 01a2 00       		.byte	0
 1225 01a3 1F       		.uleb128 0x1f
 1226 01a4 898201   		.uleb128 0x4109
 1227 01a7 01       		.byte	0x1
 1228 01a8 11       		.uleb128 0x11
 1229 01a9 01       		.uleb128 0x1
 1230 01aa 9542     		.uleb128 0x2115
 1231 01ac 19       		.uleb128 0x19
 1232 01ad 31       		.uleb128 0x31
 1233 01ae 13       		.uleb128 0x13
 1234 01af 01       		.uleb128 0x1
 1235 01b0 13       		.uleb128 0x13
ARM GAS  /tmp/ccLEpI8P.s 			page 23


 1236 01b1 00       		.byte	0
 1237 01b2 00       		.byte	0
 1238 01b3 20       		.uleb128 0x20
 1239 01b4 898201   		.uleb128 0x4109
 1240 01b7 01       		.byte	0x1
 1241 01b8 11       		.uleb128 0x11
 1242 01b9 01       		.uleb128 0x1
 1243 01ba 31       		.uleb128 0x31
 1244 01bb 13       		.uleb128 0x13
 1245 01bc 01       		.uleb128 0x1
 1246 01bd 13       		.uleb128 0x13
 1247 01be 00       		.byte	0
 1248 01bf 00       		.byte	0
 1249 01c0 21       		.uleb128 0x21
 1250 01c1 2E       		.uleb128 0x2e
 1251 01c2 01       		.byte	0x1
 1252 01c3 3F       		.uleb128 0x3f
 1253 01c4 19       		.uleb128 0x19
 1254 01c5 03       		.uleb128 0x3
 1255 01c6 0E       		.uleb128 0xe
 1256 01c7 3A       		.uleb128 0x3a
 1257 01c8 0B       		.uleb128 0xb
 1258 01c9 3B       		.uleb128 0x3b
 1259 01ca 0B       		.uleb128 0xb
 1260 01cb 27       		.uleb128 0x27
 1261 01cc 19       		.uleb128 0x19
 1262 01cd 3C       		.uleb128 0x3c
 1263 01ce 19       		.uleb128 0x19
 1264 01cf 00       		.byte	0
 1265 01d0 00       		.byte	0
 1266 01d1 00       		.byte	0
 1267              		.section	.debug_loc,"",%progbits
 1268              	.Ldebug_loc0:
 1269              	.LLST0:
 1270 0000 00000000 		.4byte	.LVL0
 1271 0004 10000000 		.4byte	.LVL1
 1272 0008 0100     		.2byte	0x1
 1273 000a 50       		.byte	0x50
 1274 000b 10000000 		.4byte	.LVL1
 1275 000f 1C000000 		.4byte	.LVL3
 1276 0013 0100     		.2byte	0x1
 1277 0015 54       		.byte	0x54
 1278 0016 1C000000 		.4byte	.LVL3
 1279 001a 20000000 		.4byte	.LFE0
 1280 001e 0400     		.2byte	0x4
 1281 0020 F3       		.byte	0xf3
 1282 0021 01       		.uleb128 0x1
 1283 0022 50       		.byte	0x50
 1284 0023 9F       		.byte	0x9f
 1285 0024 00000000 		.4byte	0
 1286 0028 00000000 		.4byte	0
 1287              	.LLST1:
 1288 002c 00000000 		.4byte	.LVL0
 1289 0030 13000000 		.4byte	.LVL2-1
 1290 0034 0100     		.2byte	0x1
 1291 0036 51       		.byte	0x51
 1292 0037 13000000 		.4byte	.LVL2-1
ARM GAS  /tmp/ccLEpI8P.s 			page 24


 1293 003b 1C000000 		.4byte	.LVL3
 1294 003f 0100     		.2byte	0x1
 1295 0041 55       		.byte	0x55
 1296 0042 1C000000 		.4byte	.LVL3
 1297 0046 20000000 		.4byte	.LFE0
 1298 004a 0500     		.2byte	0x5
 1299 004c F3       		.byte	0xf3
 1300 004d 01       		.uleb128 0x1
 1301 004e 50       		.byte	0x50
 1302 004f 23       		.byte	0x23
 1303 0050 04       		.uleb128 0x4
 1304 0051 00000000 		.4byte	0
 1305 0055 00000000 		.4byte	0
 1306              	.LLST2:
 1307 0059 00000000 		.4byte	.LVL0
 1308 005d 13000000 		.4byte	.LVL2-1
 1309 0061 0100     		.2byte	0x1
 1310 0063 52       		.byte	0x52
 1311 0064 13000000 		.4byte	.LVL2-1
 1312 0068 1C000000 		.4byte	.LVL3
 1313 006c 0100     		.2byte	0x1
 1314 006e 56       		.byte	0x56
 1315 006f 1C000000 		.4byte	.LVL3
 1316 0073 20000000 		.4byte	.LFE0
 1317 0077 0500     		.2byte	0x5
 1318 0079 F3       		.byte	0xf3
 1319 007a 01       		.uleb128 0x1
 1320 007b 50       		.byte	0x50
 1321 007c 23       		.byte	0x23
 1322 007d 08       		.uleb128 0x8
 1323 007e 00000000 		.4byte	0
 1324 0082 00000000 		.4byte	0
 1325              	.LLST3:
 1326 0086 00000000 		.4byte	.LVL4
 1327 008a 06000000 		.4byte	.LVL5
 1328 008e 0100     		.2byte	0x1
 1329 0090 50       		.byte	0x50
 1330 0091 06000000 		.4byte	.LVL5
 1331 0095 1A000000 		.4byte	.LVL10
 1332 0099 0100     		.2byte	0x1
 1333 009b 54       		.byte	0x54
 1334 009c 1A000000 		.4byte	.LVL10
 1335 00a0 1C000000 		.4byte	.LVL11
 1336 00a4 0100     		.2byte	0x1
 1337 00a6 50       		.byte	0x50
 1338 00a7 1C000000 		.4byte	.LVL11
 1339 00ab 28000000 		.4byte	.LFE2
 1340 00af 0100     		.2byte	0x1
 1341 00b1 54       		.byte	0x54
 1342 00b2 00000000 		.4byte	0
 1343 00b6 00000000 		.4byte	0
 1344              	.LLST4:
 1345 00ba 08000000 		.4byte	.LVL6
 1346 00be 16000000 		.4byte	.LVL8
 1347 00c2 0100     		.2byte	0x1
 1348 00c4 50       		.byte	0x50
 1349 00c5 16000000 		.4byte	.LVL8
ARM GAS  /tmp/ccLEpI8P.s 			page 25


 1350 00c9 17000000 		.4byte	.LVL9-1
 1351 00cd 0200     		.2byte	0x2
 1352 00cf 74       		.byte	0x74
 1353 00d0 00       		.sleb128 0
 1354 00d1 18000000 		.4byte	.LVL9
 1355 00d5 1A000000 		.4byte	.LVL10
 1356 00d9 0100     		.2byte	0x1
 1357 00db 50       		.byte	0x50
 1358 00dc 00000000 		.4byte	0
 1359 00e0 00000000 		.4byte	0
 1360              	.LLST5:
 1361 00e4 00000000 		.4byte	.LVL13
 1362 00e8 09000000 		.4byte	.LVL14-1
 1363 00ec 0100     		.2byte	0x1
 1364 00ee 50       		.byte	0x50
 1365 00ef 09000000 		.4byte	.LVL14-1
 1366 00f3 10000000 		.4byte	.LFE3
 1367 00f7 0400     		.2byte	0x4
 1368 00f9 F3       		.byte	0xf3
 1369 00fa 01       		.uleb128 0x1
 1370 00fb 50       		.byte	0x50
 1371 00fc 9F       		.byte	0x9f
 1372 00fd 00000000 		.4byte	0
 1373 0101 00000000 		.4byte	0
 1374              	.LLST6:
 1375 0105 00000000 		.4byte	.LVL15
 1376 0109 14000000 		.4byte	.LVL17
 1377 010d 0100     		.2byte	0x1
 1378 010f 50       		.byte	0x50
 1379 0110 14000000 		.4byte	.LVL17
 1380 0114 20000000 		.4byte	.LVL19
 1381 0118 0100     		.2byte	0x1
 1382 011a 54       		.byte	0x54
 1383 011b 20000000 		.4byte	.LVL19
 1384 011f 24000000 		.4byte	.LFE4
 1385 0123 0400     		.2byte	0x4
 1386 0125 F3       		.byte	0xf3
 1387 0126 01       		.uleb128 0x1
 1388 0127 50       		.byte	0x50
 1389 0128 9F       		.byte	0x9f
 1390 0129 00000000 		.4byte	0
 1391 012d 00000000 		.4byte	0
 1392              	.LLST7:
 1393 0131 00000000 		.4byte	.LVL15
 1394 0135 17000000 		.4byte	.LVL18-1
 1395 0139 0100     		.2byte	0x1
 1396 013b 51       		.byte	0x51
 1397 013c 17000000 		.4byte	.LVL18-1
 1398 0140 20000000 		.4byte	.LVL19
 1399 0144 0100     		.2byte	0x1
 1400 0146 55       		.byte	0x55
 1401 0147 20000000 		.4byte	.LVL19
 1402 014b 24000000 		.4byte	.LFE4
 1403 014f 0300     		.2byte	0x3
 1404 0151 F3       		.byte	0xf3
 1405 0152 01       		.uleb128 0x1
 1406 0153 50       		.byte	0x50
ARM GAS  /tmp/ccLEpI8P.s 			page 26


 1407 0154 00000000 		.4byte	0
 1408 0158 00000000 		.4byte	0
 1409              	.LLST8:
 1410 015c 06000000 		.4byte	.LVL16
 1411 0160 17000000 		.4byte	.LVL18-1
 1412 0164 0100     		.2byte	0x1
 1413 0166 51       		.byte	0x51
 1414 0167 17000000 		.4byte	.LVL18-1
 1415 016b 20000000 		.4byte	.LVL19
 1416 016f 0100     		.2byte	0x1
 1417 0171 55       		.byte	0x55
 1418 0172 20000000 		.4byte	.LVL19
 1419 0176 24000000 		.4byte	.LFE4
 1420 017a 0300     		.2byte	0x3
 1421 017c F3       		.byte	0xf3
 1422 017d 01       		.uleb128 0x1
 1423 017e 50       		.byte	0x50
 1424 017f 00000000 		.4byte	0
 1425 0183 00000000 		.4byte	0
 1426              	.LLST9:
 1427 0187 00000000 		.4byte	.LVL20
 1428 018b 0E000000 		.4byte	.LVL22
 1429 018f 0100     		.2byte	0x1
 1430 0191 50       		.byte	0x50
 1431 0192 0E000000 		.4byte	.LVL22
 1432 0196 1A000000 		.4byte	.LVL23
 1433 019a 0100     		.2byte	0x1
 1434 019c 54       		.byte	0x54
 1435 019d 1A000000 		.4byte	.LVL23
 1436 01a1 1C000000 		.4byte	.LVL24
 1437 01a5 0100     		.2byte	0x1
 1438 01a7 50       		.byte	0x50
 1439 01a8 1C000000 		.4byte	.LVL24
 1440 01ac 28000000 		.4byte	.LFE5
 1441 01b0 0100     		.2byte	0x1
 1442 01b2 54       		.byte	0x54
 1443 01b3 00000000 		.4byte	0
 1444 01b7 00000000 		.4byte	0
 1445              	.LLST10:
 1446 01bb 00000000 		.4byte	.LVL20
 1447 01bf 0E000000 		.4byte	.LVL22
 1448 01c3 0100     		.2byte	0x1
 1449 01c5 51       		.byte	0x51
 1450 01c6 0E000000 		.4byte	.LVL22
 1451 01ca 1A000000 		.4byte	.LVL23
 1452 01ce 0100     		.2byte	0x1
 1453 01d0 55       		.byte	0x55
 1454 01d1 1A000000 		.4byte	.LVL23
 1455 01d5 1F000000 		.4byte	.LVL25-1
 1456 01d9 0100     		.2byte	0x1
 1457 01db 51       		.byte	0x51
 1458 01dc 1F000000 		.4byte	.LVL25-1
 1459 01e0 28000000 		.4byte	.LFE5
 1460 01e4 0100     		.2byte	0x1
 1461 01e6 55       		.byte	0x55
 1462 01e7 00000000 		.4byte	0
 1463 01eb 00000000 		.4byte	0
ARM GAS  /tmp/ccLEpI8P.s 			page 27


 1464              	.LLST11:
 1465 01ef 0A000000 		.4byte	.LVL21
 1466 01f3 0E000000 		.4byte	.LVL22
 1467 01f7 0100     		.2byte	0x1
 1468 01f9 51       		.byte	0x51
 1469 01fa 0E000000 		.4byte	.LVL22
 1470 01fe 1A000000 		.4byte	.LVL23
 1471 0202 0100     		.2byte	0x1
 1472 0204 55       		.byte	0x55
 1473 0205 1A000000 		.4byte	.LVL23
 1474 0209 1F000000 		.4byte	.LVL25-1
 1475 020d 0100     		.2byte	0x1
 1476 020f 51       		.byte	0x51
 1477 0210 1F000000 		.4byte	.LVL25-1
 1478 0214 28000000 		.4byte	.LFE5
 1479 0218 0100     		.2byte	0x1
 1480 021a 55       		.byte	0x55
 1481 021b 00000000 		.4byte	0
 1482 021f 00000000 		.4byte	0
 1483              	.LLST12:
 1484 0223 0A000000 		.4byte	.LVL21
 1485 0227 0E000000 		.4byte	.LVL22
 1486 022b 0100     		.2byte	0x1
 1487 022d 50       		.byte	0x50
 1488 022e 0E000000 		.4byte	.LVL22
 1489 0232 1A000000 		.4byte	.LVL23
 1490 0236 0100     		.2byte	0x1
 1491 0238 54       		.byte	0x54
 1492 0239 1A000000 		.4byte	.LVL23
 1493 023d 1C000000 		.4byte	.LVL24
 1494 0241 0100     		.2byte	0x1
 1495 0243 50       		.byte	0x50
 1496 0244 1C000000 		.4byte	.LVL24
 1497 0248 28000000 		.4byte	.LFE5
 1498 024c 0100     		.2byte	0x1
 1499 024e 54       		.byte	0x54
 1500 024f 00000000 		.4byte	0
 1501 0253 00000000 		.4byte	0
 1502              	.LLST14:
 1503 0257 00000000 		.4byte	.LVL26
 1504 025b 0E000000 		.4byte	.LVL27
 1505 025f 0100     		.2byte	0x1
 1506 0261 50       		.byte	0x50
 1507 0262 0E000000 		.4byte	.LVL27
 1508 0266 12000000 		.4byte	.LVL28
 1509 026a 0100     		.2byte	0x1
 1510 026c 56       		.byte	0x56
 1511 026d 12000000 		.4byte	.LVL28
 1512 0271 16000000 		.4byte	.LVL29
 1513 0275 0400     		.2byte	0x4
 1514 0277 F3       		.byte	0xf3
 1515 0278 01       		.uleb128 0x1
 1516 0279 50       		.byte	0x50
 1517 027a 9F       		.byte	0x9f
 1518 027b 16000000 		.4byte	.LVL29
 1519 027f 18000000 		.4byte	.LVL30
 1520 0283 0100     		.2byte	0x1
ARM GAS  /tmp/ccLEpI8P.s 			page 28


 1521 0285 50       		.byte	0x50
 1522 0286 18000000 		.4byte	.LVL30
 1523 028a 32000000 		.4byte	.LVL37
 1524 028e 0100     		.2byte	0x1
 1525 0290 56       		.byte	0x56
 1526 0291 32000000 		.4byte	.LVL37
 1527 0295 38000000 		.4byte	.LFE1
 1528 0299 0400     		.2byte	0x4
 1529 029b F3       		.byte	0xf3
 1530 029c 01       		.uleb128 0x1
 1531 029d 50       		.byte	0x50
 1532 029e 9F       		.byte	0x9f
 1533 029f 00000000 		.4byte	0
 1534 02a3 00000000 		.4byte	0
 1535              	.LLST15:
 1536 02a7 00000000 		.4byte	.LVL26
 1537 02ab 15000000 		.4byte	.LVL29-1
 1538 02af 0100     		.2byte	0x1
 1539 02b1 51       		.byte	0x51
 1540 02b2 15000000 		.4byte	.LVL29-1
 1541 02b6 16000000 		.4byte	.LVL29
 1542 02ba 0400     		.2byte	0x4
 1543 02bc F3       		.byte	0xf3
 1544 02bd 01       		.uleb128 0x1
 1545 02be 51       		.byte	0x51
 1546 02bf 9F       		.byte	0x9f
 1547 02c0 16000000 		.4byte	.LVL29
 1548 02c4 1B000000 		.4byte	.LVL31-1
 1549 02c8 0100     		.2byte	0x1
 1550 02ca 51       		.byte	0x51
 1551 02cb 1B000000 		.4byte	.LVL31-1
 1552 02cf 32000000 		.4byte	.LVL37
 1553 02d3 0100     		.2byte	0x1
 1554 02d5 55       		.byte	0x55
 1555 02d6 32000000 		.4byte	.LVL37
 1556 02da 38000000 		.4byte	.LFE1
 1557 02de 0400     		.2byte	0x4
 1558 02e0 F3       		.byte	0xf3
 1559 02e1 01       		.uleb128 0x1
 1560 02e2 51       		.byte	0x51
 1561 02e3 9F       		.byte	0x9f
 1562 02e4 00000000 		.4byte	0
 1563 02e8 00000000 		.4byte	0
 1564              	.LLST16:
 1565 02ec 00000000 		.4byte	.LVL26
 1566 02f0 15000000 		.4byte	.LVL29-1
 1567 02f4 0100     		.2byte	0x1
 1568 02f6 52       		.byte	0x52
 1569 02f7 15000000 		.4byte	.LVL29-1
 1570 02fb 16000000 		.4byte	.LVL29
 1571 02ff 0400     		.2byte	0x4
 1572 0301 F3       		.byte	0xf3
 1573 0302 01       		.uleb128 0x1
 1574 0303 52       		.byte	0x52
 1575 0304 9F       		.byte	0x9f
 1576 0305 16000000 		.4byte	.LVL29
 1577 0309 1B000000 		.4byte	.LVL31-1
ARM GAS  /tmp/ccLEpI8P.s 			page 29


 1578 030d 0100     		.2byte	0x1
 1579 030f 52       		.byte	0x52
 1580 0310 1B000000 		.4byte	.LVL31-1
 1581 0314 2A000000 		.4byte	.LVL34
 1582 0318 0100     		.2byte	0x1
 1583 031a 54       		.byte	0x54
 1584 031b 2A000000 		.4byte	.LVL34
 1585 031f 2C000000 		.4byte	.LVL35
 1586 0323 0300     		.2byte	0x3
 1587 0325 74       		.byte	0x74
 1588 0326 01       		.sleb128 1
 1589 0327 9F       		.byte	0x9f
 1590 0328 30000000 		.4byte	.LVL36
 1591 032c 32000000 		.4byte	.LVL37
 1592 0330 0100     		.2byte	0x1
 1593 0332 54       		.byte	0x54
 1594 0333 32000000 		.4byte	.LVL37
 1595 0337 38000000 		.4byte	.LFE1
 1596 033b 0400     		.2byte	0x4
 1597 033d F3       		.byte	0xf3
 1598 033e 01       		.uleb128 0x1
 1599 033f 52       		.byte	0x52
 1600 0340 9F       		.byte	0x9f
 1601 0341 00000000 		.4byte	0
 1602 0345 00000000 		.4byte	0
 1603              		.section	.debug_aranges,"",%progbits
 1604 0000 44000000 		.4byte	0x44
 1605 0004 0200     		.2byte	0x2
 1606 0006 00000000 		.4byte	.Ldebug_info0
 1607 000a 04       		.byte	0x4
 1608 000b 00       		.byte	0
 1609 000c 0000     		.2byte	0
 1610 000e 0000     		.2byte	0
 1611 0010 00000000 		.4byte	.LFB0
 1612 0014 20000000 		.4byte	.LFE0-.LFB0
 1613 0018 00000000 		.4byte	.LFB2
 1614 001c 28000000 		.4byte	.LFE2-.LFB2
 1615 0020 00000000 		.4byte	.LFB3
 1616 0024 10000000 		.4byte	.LFE3-.LFB3
 1617 0028 00000000 		.4byte	.LFB4
 1618 002c 24000000 		.4byte	.LFE4-.LFB4
 1619 0030 00000000 		.4byte	.LFB5
 1620 0034 28000000 		.4byte	.LFE5-.LFB5
 1621 0038 00000000 		.4byte	.LFB1
 1622 003c 38000000 		.4byte	.LFE1-.LFB1
 1623 0040 00000000 		.4byte	0
 1624 0044 00000000 		.4byte	0
 1625              		.section	.debug_ranges,"",%progbits
 1626              	.Ldebug_ranges0:
 1627 0000 0A000000 		.4byte	.LBB4
 1628 0004 14000000 		.4byte	.LBE4
 1629 0008 1A000000 		.4byte	.LBB7
 1630 000c 28000000 		.4byte	.LBE7
 1631 0010 00000000 		.4byte	0
 1632 0014 00000000 		.4byte	0
 1633 0018 00000000 		.4byte	.LFB0
 1634 001c 20000000 		.4byte	.LFE0
ARM GAS  /tmp/ccLEpI8P.s 			page 30


 1635 0020 00000000 		.4byte	.LFB2
 1636 0024 28000000 		.4byte	.LFE2
 1637 0028 00000000 		.4byte	.LFB3
 1638 002c 10000000 		.4byte	.LFE3
 1639 0030 00000000 		.4byte	.LFB4
 1640 0034 24000000 		.4byte	.LFE4
 1641 0038 00000000 		.4byte	.LFB5
 1642 003c 28000000 		.4byte	.LFE5
 1643 0040 00000000 		.4byte	.LFB1
 1644 0044 38000000 		.4byte	.LFE1
 1645 0048 00000000 		.4byte	0
 1646 004c 00000000 		.4byte	0
 1647              		.section	.debug_line,"",%progbits
 1648              	.Ldebug_line0:
 1649 0000 E8010000 		.section	.debug_str,"MS",%progbits,1
 1649      02001A01 
 1649      00000201 
 1649      FB0E0D00 
 1649      01010101 
 1650              	.LASF3:
 1651 0000 5F5F7569 		.ascii	"__uint8_t\000"
 1651      6E74385F 
 1651      7400
 1652              	.LASF2:
 1653 000a 73697A65 		.ascii	"size_t\000"
 1653      5F7400
 1654              	.LASF17:
 1655 0011 6D705F6F 		.ascii	"mp_object_size\000"
 1655      626A6563 
 1655      745F7369 
 1655      7A6500
 1656              	.LASF28:
 1657 0020 6368506F 		.ascii	"chPoolLoadArray\000"
 1657      6F6C4C6F 
 1657      61644172 
 1657      72617900 
 1658              	.LASF32:
 1659 0030 706F6F6C 		.ascii	"pool_header\000"
 1659      5F686561 
 1659      64657200 
 1660              	.LASF22:
 1661 003c 73697A65 		.ascii	"size\000"
 1661      00
 1662              	.LASF8:
 1663 0041 6C6F6E67 		.ascii	"long unsigned int\000"
 1663      20756E73 
 1663      69676E65 
 1663      6420696E 
 1663      7400
 1664              	.LASF6:
 1665 0053 73686F72 		.ascii	"short unsigned int\000"
 1665      7420756E 
 1665      7369676E 
 1665      65642069 
 1665      6E7400
 1666              	.LASF23:
 1667 0066 70726F76 		.ascii	"provider\000"
ARM GAS  /tmp/ccLEpI8P.s 			page 31


 1667      69646572 
 1667      00
 1668              	.LASF33:
 1669 006f 6368506F 		.ascii	"chPoolFreeI\000"
 1669      6F6C4672 
 1669      65654900 
 1670              	.LASF4:
 1671 007b 756E7369 		.ascii	"unsigned char\000"
 1671      676E6564 
 1671      20636861 
 1671      7200
 1672              	.LASF5:
 1673 0089 73686F72 		.ascii	"short int\000"
 1673      7420696E 
 1673      7400
 1674              	.LASF27:
 1675 0093 6368506F 		.ascii	"chPoolFree\000"
 1675      6F6C4672 
 1675      656500
 1676              	.LASF19:
 1677 009e 4D656D6F 		.ascii	"MemoryPool\000"
 1677      7279506F 
 1677      6F6C00
 1678              	.LASF31:
 1679 00a9 2F686F6D 		.ascii	"/home/makkmarci/devel/ChibiOS_2.6.5/projects/STM32F"
 1679      652F6D61 
 1679      6B6B6D61 
 1679      7263692F 
 1679      64657665 
 1680 00dc 345F4368 		.ascii	"4_ChibiOS_uGFX_gwin_2/\000"
 1680      6962694F 
 1680      535F7547 
 1680      46585F67 
 1680      77696E5F 
 1681              	.LASF24:
 1682 00f3 6368506F 		.ascii	"chPoolAllocI\000"
 1682      6F6C416C 
 1682      6C6F6349 
 1682      00
 1683              	.LASF0:
 1684 0100 756E7369 		.ascii	"unsigned int\000"
 1684      676E6564 
 1684      20696E74 
 1684      00
 1685              	.LASF10:
 1686 010d 6C6F6E67 		.ascii	"long long unsigned int\000"
 1686      206C6F6E 
 1686      6720756E 
 1686      7369676E 
 1686      65642069 
 1687              	.LASF11:
 1688 0124 75696E74 		.ascii	"uint8_t\000"
 1688      385F7400 
 1689              	.LASF15:
 1690 012c 70685F6E 		.ascii	"ph_next\000"
 1690      65787400 
 1691              	.LASF13:
ARM GAS  /tmp/ccLEpI8P.s 			page 32


 1692 0134 73697A65 		.ascii	"sizetype\000"
 1692      74797065 
 1692      00
 1693              	.LASF9:
 1694 013d 6C6F6E67 		.ascii	"long long int\000"
 1694      206C6F6E 
 1694      6720696E 
 1694      7400
 1695              	.LASF20:
 1696 014b 63686172 		.ascii	"char\000"
 1696      00
 1697              	.LASF34:
 1698 0150 63684462 		.ascii	"chDbgPanic\000"
 1698      6750616E 
 1698      696300
 1699              	.LASF14:
 1700 015b 6D656D67 		.ascii	"memgetfunc_t\000"
 1700      65746675 
 1700      6E635F74 
 1700      00
 1701              	.LASF18:
 1702 0168 6D705F70 		.ascii	"mp_provider\000"
 1702      726F7669 
 1702      64657200 
 1703              	.LASF21:
 1704 0174 6F626A70 		.ascii	"objp\000"
 1704      00
 1705              	.LASF25:
 1706 0179 6368506F 		.ascii	"chPoolAlloc\000"
 1706      6F6C416C 
 1706      6C6F6300 
 1707              	.LASF30:
 1708 0185 2E2E2F2E 		.ascii	"../../os/kernel/src/chmempools.c\000"
 1708      2E2F6F73 
 1708      2F6B6572 
 1708      6E656C2F 
 1708      7372632F 
 1709              	.LASF7:
 1710 01a6 6C6F6E67 		.ascii	"long int\000"
 1710      20696E74 
 1710      00
 1711              	.LASF1:
 1712 01af 7369676E 		.ascii	"signed char\000"
 1712      65642063 
 1712      68617200 
 1713              	.LASF16:
 1714 01bb 6D705F6E 		.ascii	"mp_next\000"
 1714      65787400 
 1715              	.LASF12:
 1716 01c3 5F426F6F 		.ascii	"_Bool\000"
 1716      6C00
 1717              	.LASF29:
 1718 01c9 474E5520 		.ascii	"GNU C 4.8.4 20140526 (release) [ARM/embedded-4_8-br"
 1718      4320342E 
 1718      382E3420 
 1718      32303134 
 1718      30353236 
ARM GAS  /tmp/ccLEpI8P.s 			page 33


 1719 01fc 616E6368 		.ascii	"anch revision 211358] -mcpu=cortex-m4 -mfloat-abi=h"
 1719      20726576 
 1719      6973696F 
 1719      6E203231 
 1719      31333538 
 1720 022f 61726420 		.ascii	"ard -mfpu=fpv4-sp-d16 -mno-thumb-interwork -mthumb "
 1720      2D6D6670 
 1720      753D6670 
 1720      76342D73 
 1720      702D6431 
 1721 0262 2D676764 		.ascii	"-ggdb -O2 -fomit-frame-pointer -falign-functions=16"
 1721      62202D4F 
 1721      32202D66 
 1721      6F6D6974 
 1721      2D667261 
 1722 0295 202D6666 		.ascii	" -ffunction-sections -fdata-sections -fno-common -f"
 1722      756E6374 
 1722      696F6E2D 
 1722      73656374 
 1722      696F6E73 
 1723 02c8 73696E67 		.ascii	"single-precision-constant\000"
 1723      6C652D70 
 1723      72656369 
 1723      73696F6E 
 1723      2D636F6E 
 1724              	.LASF26:
 1725 02e2 6368506F 		.ascii	"chPoolInit\000"
 1725      6F6C496E 
 1725      697400
 1726              		.ident	"GCC: (GNU Tools for ARM Embedded Processors) 4.8.4 20140526 (release) [ARM/embedded-4_8-br
ARM GAS  /tmp/ccLEpI8P.s 			page 34


DEFINED SYMBOLS
                            *ABS*:00000000 chmempools.c
     /tmp/ccLEpI8P.s:21     .text.chPoolInit:00000000 $t
     /tmp/ccLEpI8P.s:27     .text.chPoolInit:00000000 chPoolInit
     /tmp/ccLEpI8P.s:66     .text.chPoolInit:0000001c $d
     /tmp/ccLEpI8P.s:71     .text.chPoolAllocI:00000000 $t
     /tmp/ccLEpI8P.s:77     .text.chPoolAllocI:00000000 chPoolAllocI
     /tmp/ccLEpI8P.s:125    .text.chPoolAllocI:00000024 $d
     /tmp/ccLEpI8P.s:130    .text.chPoolAlloc:00000000 $t
     /tmp/ccLEpI8P.s:136    .text.chPoolAlloc:00000000 chPoolAlloc
     /tmp/ccLEpI8P.s:166    .text.chPoolFreeI:00000000 $t
     /tmp/ccLEpI8P.s:172    .text.chPoolFreeI:00000000 chPoolFreeI
     /tmp/ccLEpI8P.s:216    .text.chPoolFreeI:00000020 $d
     /tmp/ccLEpI8P.s:221    .text.chPoolFree:00000000 $t
     /tmp/ccLEpI8P.s:227    .text.chPoolFree:00000000 chPoolFree
     /tmp/ccLEpI8P.s:282    .text.chPoolFree:00000024 $d
     /tmp/ccLEpI8P.s:289    .text.chPoolLoadArray:00000000 $t
     /tmp/ccLEpI8P.s:295    .text.chPoolLoadArray:00000000 chPoolLoadArray
     /tmp/ccLEpI8P.s:359    .text.chPoolLoadArray:00000034 $d
     /tmp/ccLEpI8P.s:364    .rodata.str1.4:00000000 $d
                     .debug_frame:00000010 $d
     /tmp/ccLEpI8P.s:129    .text.chPoolAllocI:00000028 $t
     /tmp/ccLEpI8P.s:220    .text.chPoolFreeI:00000024 $t
     /tmp/ccLEpI8P.s:288    .text.chPoolFree:00000028 $t
     /tmp/ccLEpI8P.s:363    .text.chPoolLoadArray:00000038 $t

UNDEFINED SYMBOLS
chDbgPanic
_port_lock
_port_unlock
