ARM GAS  /tmp/ccT8pWCx.s 			page 1


   1              		.syntax unified
   2              		.cpu cortex-m4
   3              		.eabi_attribute 27, 1
   4              		.eabi_attribute 28, 1
   5              		.fpu fpv4-sp-d16
   6              		.eabi_attribute 20, 1
   7              		.eabi_attribute 21, 1
   8              		.eabi_attribute 23, 3
   9              		.eabi_attribute 24, 1
  10              		.eabi_attribute 25, 1
  11              		.eabi_attribute 26, 1
  12              		.eabi_attribute 30, 6
  13              		.eabi_attribute 34, 1
  14              		.eabi_attribute 18, 4
  15              		.thumb
  16              		.file	"chmemcore.c"
  17              		.text
  18              	.Ltext0:
  19              		.cfi_sections	.debug_frame
  20              		.section	.bss.nextmem,"aw",%nobits
  21              		.align	2
  22              		.type	nextmem, %object
  23              		.size	nextmem, 4
  24              	nextmem:
  25 0000 00000000 		.space	4
  26              		.section	.bss.endmem,"aw",%nobits
  27              		.align	2
  28              		.type	endmem, %object
  29              		.size	endmem, 4
  30              	endmem:
  31 0000 00000000 		.space	4
  32              		.section	.text._core_init,"ax",%progbits
  33              		.align	2
  34              		.p2align 4,,15
  35              		.global	_core_init
  36              		.thumb
  37              		.thumb_func
  38              		.type	_core_init, %function
  39              	_core_init:
  40              	.LFB0:
  41              		.file 1 "/home/makkmarci/workspace/ChibiOS_2.6.8/os/kernel/src/chmemcore.c"
  42              		.loc 1 66 0
  43              		.cfi_startproc
  44              		@ args = 0, pretend = 0, frame = 0
  45              		@ frame_needed = 0, uses_anonymous_args = 0
  46              		@ link register save eliminated.
  47              		.loc 1 70 0
  48 0000 064B     		ldr	r3, .L2
  49 0002 0733     		adds	r3, r3, #7
  50 0004 23F00703 		bic	r3, r3, #7
  51 0008 1A46     		mov	r2, r3
  52 000a 054B     		ldr	r3, .L2+4
  53 000c 1A60     		str	r2, [r3]
  54              		.loc 1 71 0
  55 000e 054B     		ldr	r3, .L2+8
  56 0010 23F00703 		bic	r3, r3, #7
  57 0014 1A46     		mov	r2, r3
ARM GAS  /tmp/ccT8pWCx.s 			page 2


  58 0016 044B     		ldr	r3, .L2+12
  59 0018 1A60     		str	r2, [r3]
  60              		.loc 1 77 0
  61 001a 7047     		bx	lr
  62              	.L3:
  63              		.align	2
  64              	.L2:
  65 001c 00000000 		.word	__heap_base__
  66 0020 00000000 		.word	nextmem
  67 0024 00000000 		.word	__heap_end__
  68 0028 00000000 		.word	endmem
  69              		.cfi_endproc
  70              	.LFE0:
  71              		.size	_core_init, .-_core_init
  72 002c AFF30080 		.section	.text.chCoreAlloc,"ax",%progbits
  73              		.align	2
  74              		.p2align 4,,15
  75              		.global	chCoreAlloc
  76              		.thumb
  77              		.thumb_func
  78              		.type	chCoreAlloc, %function
  79              	chCoreAlloc:
  80              	.LFB1:
  81              		.loc 1 91 0
  82              		.cfi_startproc
  83              		@ args = 0, pretend = 0, frame = 16
  84              		@ frame_needed = 0, uses_anonymous_args = 0
  85 0000 00B5     		push	{lr}
  86              		.cfi_def_cfa_offset 4
  87              		.cfi_offset 14, -4
  88 0002 85B0     		sub	sp, sp, #20
  89              		.cfi_def_cfa_offset 24
  90 0004 0190     		str	r0, [sp, #4]
  91              		.loc 1 94 0
  92              	@ 94 "/home/makkmarci/workspace/ChibiOS_2.6.8/os/kernel/src/chmemcore.c" 1
  93 0006 FFF7FEFF 		bl      _port_lock
  94              	@ 0 "" 2
  95              		.loc 1 95 0
  96              		.thumb
  97 000a 0198     		ldr	r0, [sp, #4]
  98 000c FFF7FEFF 		bl	chCoreAllocI
  99 0010 0390     		str	r0, [sp, #12]
 100              		.loc 1 96 0
 101              	@ 96 "/home/makkmarci/workspace/ChibiOS_2.6.8/os/kernel/src/chmemcore.c" 1
 102 0012 FFF7FEFF 		bl      _port_unlock
 103              	@ 0 "" 2
 104              		.loc 1 97 0
 105              		.thumb
 106 0016 039B     		ldr	r3, [sp, #12]
 107              		.loc 1 98 0
 108 0018 1846     		mov	r0, r3
 109 001a 05B0     		add	sp, sp, #20
 110              		.cfi_def_cfa_offset 4
 111              		@ sp needed
 112 001c 5DF804FB 		ldr	pc, [sp], #4
 113              		.cfi_endproc
 114              	.LFE1:
ARM GAS  /tmp/ccT8pWCx.s 			page 3


 115              		.size	chCoreAlloc, .-chCoreAlloc
 116              		.section	.text.chCoreAllocI,"ax",%progbits
 117              		.align	2
 118              		.p2align 4,,15
 119              		.global	chCoreAllocI
 120              		.thumb
 121              		.thumb_func
 122              		.type	chCoreAllocI, %function
 123              	chCoreAllocI:
 124              	.LFB2:
 125              		.loc 1 112 0
 126              		.cfi_startproc
 127              		@ args = 0, pretend = 0, frame = 16
 128              		@ frame_needed = 0, uses_anonymous_args = 0
 129              		@ link register save eliminated.
 130 0000 84B0     		sub	sp, sp, #16
 131              		.cfi_def_cfa_offset 16
 132 0002 0190     		str	r0, [sp, #4]
 133              		.loc 1 117 0
 134 0004 019B     		ldr	r3, [sp, #4]
 135 0006 0733     		adds	r3, r3, #7
 136 0008 23F00703 		bic	r3, r3, #7
 137 000c 0193     		str	r3, [sp, #4]
 138              		.loc 1 118 0
 139 000e 0C4B     		ldr	r3, .L9
 140 0010 1B68     		ldr	r3, [r3]
 141 0012 1A46     		mov	r2, r3
 142 0014 0B4B     		ldr	r3, .L9+4
 143 0016 1B68     		ldr	r3, [r3]
 144 0018 D31A     		subs	r3, r2, r3
 145 001a 1A46     		mov	r2, r3
 146 001c 019B     		ldr	r3, [sp, #4]
 147 001e 9A42     		cmp	r2, r3
 148 0020 01D2     		bcs	.L7
 149              		.loc 1 119 0
 150 0022 0023     		movs	r3, #0
 151 0024 09E0     		b	.L8
 152              	.L7:
 153              		.loc 1 120 0
 154 0026 074B     		ldr	r3, .L9+4
 155 0028 1B68     		ldr	r3, [r3]
 156 002a 0393     		str	r3, [sp, #12]
 157              		.loc 1 121 0
 158 002c 054B     		ldr	r3, .L9+4
 159 002e 1A68     		ldr	r2, [r3]
 160 0030 019B     		ldr	r3, [sp, #4]
 161 0032 1344     		add	r3, r3, r2
 162 0034 034A     		ldr	r2, .L9+4
 163 0036 1360     		str	r3, [r2]
 164              		.loc 1 122 0
 165 0038 039B     		ldr	r3, [sp, #12]
 166              	.L8:
 167              		.loc 1 123 0
 168 003a 1846     		mov	r0, r3
 169 003c 04B0     		add	sp, sp, #16
 170              		.cfi_def_cfa_offset 0
 171              		@ sp needed
ARM GAS  /tmp/ccT8pWCx.s 			page 4


 172 003e 7047     		bx	lr
 173              	.L10:
 174              		.align	2
 175              	.L9:
 176 0040 00000000 		.word	endmem
 177 0044 00000000 		.word	nextmem
 178              		.cfi_endproc
 179              	.LFE2:
 180              		.size	chCoreAllocI, .-chCoreAllocI
 181              		.section	.text.chCoreStatus,"ax",%progbits
 182              		.align	2
 183              		.p2align 4,,15
 184              		.global	chCoreStatus
 185              		.thumb
 186              		.thumb_func
 187              		.type	chCoreStatus, %function
 188              	chCoreStatus:
 189              	.LFB3:
 190              		.loc 1 132 0
 191              		.cfi_startproc
 192              		@ args = 0, pretend = 0, frame = 0
 193              		@ frame_needed = 0, uses_anonymous_args = 0
 194              		@ link register save eliminated.
 195              		.loc 1 134 0
 196 0000 034B     		ldr	r3, .L13
 197 0002 1B68     		ldr	r3, [r3]
 198 0004 1A46     		mov	r2, r3
 199 0006 034B     		ldr	r3, .L13+4
 200 0008 1B68     		ldr	r3, [r3]
 201 000a D31A     		subs	r3, r2, r3
 202              		.loc 1 135 0
 203 000c 1846     		mov	r0, r3
 204 000e 7047     		bx	lr
 205              	.L14:
 206              		.align	2
 207              	.L13:
 208 0010 00000000 		.word	endmem
 209 0014 00000000 		.word	nextmem
 210              		.cfi_endproc
 211              	.LFE3:
 212              		.size	chCoreStatus, .-chCoreStatus
 213 0018 AFF30080 		.text
 213      AFF30080 
 214              	.Letext0:
 215              		.file 2 "/opt/gcc-arm-none-eabi/lib/gcc/arm-none-eabi/4.9.3/include/stddef.h"
 216              		.file 3 "/opt/gcc-arm-none-eabi/arm-none-eabi/include/machine/_default_types.h"
 217              		.file 4 "/opt/gcc-arm-none-eabi/arm-none-eabi/include/stdint.h"
 218              		.section	.debug_info,"",%progbits
 219              	.Ldebug_info0:
 220 0000 8E010000 		.4byte	0x18e
 221 0004 0400     		.2byte	0x4
 222 0006 00000000 		.4byte	.Ldebug_abbrev0
 223 000a 04       		.byte	0x4
 224 000b 01       		.uleb128 0x1
 225 000c 4B000000 		.4byte	.LASF22
 226 0010 01       		.byte	0x1
 227 0011 F9010000 		.4byte	.LASF23
ARM GAS  /tmp/ccT8pWCx.s 			page 5


 228 0015 00000000 		.4byte	.Ldebug_ranges0+0
 229 0019 00000000 		.4byte	0
 230 001d 00000000 		.4byte	.Ldebug_line0
 231 0021 02       		.uleb128 0x2
 232 0022 04       		.byte	0x4
 233 0023 05       		.byte	0x5
 234 0024 696E7400 		.ascii	"int\000"
 235 0028 03       		.uleb128 0x3
 236 0029 21000000 		.4byte	.LASF2
 237 002d 02       		.byte	0x2
 238 002e D4       		.byte	0xd4
 239 002f 33000000 		.4byte	0x33
 240 0033 04       		.uleb128 0x4
 241 0034 04       		.byte	0x4
 242 0035 07       		.byte	0x7
 243 0036 45020000 		.4byte	.LASF0
 244 003a 04       		.uleb128 0x4
 245 003b 01       		.byte	0x1
 246 003c 06       		.byte	0x6
 247 003d E8010000 		.4byte	.LASF1
 248 0041 03       		.uleb128 0x3
 249 0042 89010000 		.4byte	.LASF3
 250 0046 03       		.byte	0x3
 251 0047 1D       		.byte	0x1d
 252 0048 4C000000 		.4byte	0x4c
 253 004c 04       		.uleb128 0x4
 254 004d 01       		.byte	0x1
 255 004e 08       		.byte	0x8
 256 004f 9B010000 		.4byte	.LASF4
 257 0053 04       		.uleb128 0x4
 258 0054 02       		.byte	0x2
 259 0055 05       		.byte	0x5
 260 0056 3B020000 		.4byte	.LASF5
 261 005a 04       		.uleb128 0x4
 262 005b 02       		.byte	0x2
 263 005c 07       		.byte	0x7
 264 005d 0E000000 		.4byte	.LASF6
 265 0061 04       		.uleb128 0x4
 266 0062 04       		.byte	0x4
 267 0063 05       		.byte	0x5
 268 0064 BA010000 		.4byte	.LASF7
 269 0068 04       		.uleb128 0x4
 270 0069 04       		.byte	0x4
 271 006a 07       		.byte	0x7
 272 006b 60010000 		.4byte	.LASF8
 273 006f 04       		.uleb128 0x4
 274 0070 08       		.byte	0x8
 275 0071 05       		.byte	0x5
 276 0072 00000000 		.4byte	.LASF9
 277 0076 04       		.uleb128 0x4
 278 0077 08       		.byte	0x8
 279 0078 07       		.byte	0x7
 280 0079 72010000 		.4byte	.LASF10
 281 007d 03       		.uleb128 0x3
 282 007e 93010000 		.4byte	.LASF11
 283 0082 04       		.byte	0x4
 284 0083 15       		.byte	0x15
ARM GAS  /tmp/ccT8pWCx.s 			page 6


 285 0084 41000000 		.4byte	0x41
 286 0088 04       		.uleb128 0x4
 287 0089 01       		.byte	0x1
 288 008a 02       		.byte	0x2
 289 008b CE010000 		.4byte	.LASF12
 290 008f 05       		.uleb128 0x5
 291 0090 04       		.byte	0x4
 292 0091 04       		.uleb128 0x4
 293 0092 04       		.byte	0x4
 294 0093 07       		.byte	0x7
 295 0094 52020000 		.4byte	.LASF13
 296 0098 04       		.uleb128 0x4
 297 0099 01       		.byte	0x1
 298 009a 08       		.byte	0x8
 299 009b A9010000 		.4byte	.LASF14
 300 009f 06       		.uleb128 0x6
 301 00a0 04       		.byte	0x4
 302 00a1 7D000000 		.4byte	0x7d
 303 00a5 07       		.uleb128 0x7
 304 00a6 C3010000 		.4byte	.LASF24
 305 00aa 01       		.byte	0x1
 306 00ab 42       		.byte	0x42
 307 00ac 00000000 		.4byte	.LFB0
 308 00b0 2C000000 		.4byte	.LFE0-.LFB0
 309 00b4 01       		.uleb128 0x1
 310 00b5 9C       		.byte	0x9c
 311 00b6 D1000000 		.4byte	0xd1
 312 00ba 08       		.uleb128 0x8
 313 00bb 3D000000 		.4byte	.LASF15
 314 00bf 01       		.byte	0x1
 315 00c0 44       		.byte	0x44
 316 00c1 D1000000 		.4byte	0xd1
 317 00c5 08       		.uleb128 0x8
 318 00c6 30000000 		.4byte	.LASF16
 319 00ca 01       		.byte	0x1
 320 00cb 45       		.byte	0x45
 321 00cc D1000000 		.4byte	0xd1
 322 00d0 00       		.byte	0
 323 00d1 09       		.uleb128 0x9
 324 00d2 7D000000 		.4byte	0x7d
 325 00d6 DC000000 		.4byte	0xdc
 326 00da 0A       		.uleb128 0xa
 327 00db 00       		.byte	0
 328 00dc 0B       		.uleb128 0xb
 329 00dd AE010000 		.4byte	.LASF17
 330 00e1 01       		.byte	0x1
 331 00e2 5B       		.byte	0x5b
 332 00e3 8F000000 		.4byte	0x8f
 333 00e7 00000000 		.4byte	.LFB1
 334 00eb 20000000 		.4byte	.LFE1-.LFB1
 335 00ef 01       		.uleb128 0x1
 336 00f0 9C       		.byte	0x9c
 337 00f1 10010000 		.4byte	0x110
 338 00f5 0C       		.uleb128 0xc
 339 00f6 F4010000 		.4byte	.LASF19
 340 00fa 01       		.byte	0x1
 341 00fb 5B       		.byte	0x5b
ARM GAS  /tmp/ccT8pWCx.s 			page 7


 342 00fc 28000000 		.4byte	0x28
 343 0100 02       		.uleb128 0x2
 344 0101 91       		.byte	0x91
 345 0102 6C       		.sleb128 -20
 346 0103 0D       		.uleb128 0xd
 347 0104 7000     		.ascii	"p\000"
 348 0106 01       		.byte	0x1
 349 0107 5C       		.byte	0x5c
 350 0108 8F000000 		.4byte	0x8f
 351 010c 02       		.uleb128 0x2
 352 010d 91       		.byte	0x91
 353 010e 74       		.sleb128 -12
 354 010f 00       		.byte	0
 355 0110 0E       		.uleb128 0xe
 356 0111 DB010000 		.4byte	.LASF18
 357 0115 01       		.byte	0x1
 358 0116 70       		.byte	0x70
 359 0117 8F000000 		.4byte	0x8f
 360 011b 00000000 		.4byte	.LFB2
 361 011f 48000000 		.4byte	.LFE2-.LFB2
 362 0123 01       		.uleb128 0x1
 363 0124 9C       		.byte	0x9c
 364 0125 44010000 		.4byte	0x144
 365 0129 0C       		.uleb128 0xc
 366 012a F4010000 		.4byte	.LASF19
 367 012e 01       		.byte	0x1
 368 012f 70       		.byte	0x70
 369 0130 28000000 		.4byte	0x28
 370 0134 02       		.uleb128 0x2
 371 0135 91       		.byte	0x91
 372 0136 74       		.sleb128 -12
 373 0137 0D       		.uleb128 0xd
 374 0138 7000     		.ascii	"p\000"
 375 013a 01       		.byte	0x1
 376 013b 71       		.byte	0x71
 377 013c 8F000000 		.4byte	0x8f
 378 0140 02       		.uleb128 0x2
 379 0141 91       		.byte	0x91
 380 0142 7C       		.sleb128 -4
 381 0143 00       		.byte	0
 382 0144 0F       		.uleb128 0xf
 383 0145 5B020000 		.4byte	.LASF25
 384 0149 01       		.byte	0x1
 385 014a 84       		.byte	0x84
 386 014b 28000000 		.4byte	0x28
 387 014f 00000000 		.4byte	.LFB3
 388 0153 18000000 		.4byte	.LFE3-.LFB3
 389 0157 01       		.uleb128 0x1
 390 0158 9C       		.byte	0x9c
 391 0159 10       		.uleb128 0x10
 392 015a 28000000 		.4byte	.LASF20
 393 015e 01       		.byte	0x1
 394 015f 3A       		.byte	0x3a
 395 0160 9F000000 		.4byte	0x9f
 396 0164 05       		.uleb128 0x5
 397 0165 03       		.byte	0x3
 398 0166 00000000 		.4byte	nextmem
ARM GAS  /tmp/ccT8pWCx.s 			page 8


 399 016a 10       		.uleb128 0x10
 400 016b D4010000 		.4byte	.LASF21
 401 016f 01       		.byte	0x1
 402 0170 3B       		.byte	0x3b
 403 0171 9F000000 		.4byte	0x9f
 404 0175 05       		.uleb128 0x5
 405 0176 03       		.byte	0x3
 406 0177 00000000 		.4byte	endmem
 407 017b 08       		.uleb128 0x8
 408 017c 3D000000 		.4byte	.LASF15
 409 0180 01       		.byte	0x1
 410 0181 44       		.byte	0x44
 411 0182 D1000000 		.4byte	0xd1
 412 0186 08       		.uleb128 0x8
 413 0187 30000000 		.4byte	.LASF16
 414 018b 01       		.byte	0x1
 415 018c 45       		.byte	0x45
 416 018d D1000000 		.4byte	0xd1
 417 0191 00       		.byte	0
 418              		.section	.debug_abbrev,"",%progbits
 419              	.Ldebug_abbrev0:
 420 0000 01       		.uleb128 0x1
 421 0001 11       		.uleb128 0x11
 422 0002 01       		.byte	0x1
 423 0003 25       		.uleb128 0x25
 424 0004 0E       		.uleb128 0xe
 425 0005 13       		.uleb128 0x13
 426 0006 0B       		.uleb128 0xb
 427 0007 03       		.uleb128 0x3
 428 0008 0E       		.uleb128 0xe
 429 0009 55       		.uleb128 0x55
 430 000a 17       		.uleb128 0x17
 431 000b 11       		.uleb128 0x11
 432 000c 01       		.uleb128 0x1
 433 000d 10       		.uleb128 0x10
 434 000e 17       		.uleb128 0x17
 435 000f 00       		.byte	0
 436 0010 00       		.byte	0
 437 0011 02       		.uleb128 0x2
 438 0012 24       		.uleb128 0x24
 439 0013 00       		.byte	0
 440 0014 0B       		.uleb128 0xb
 441 0015 0B       		.uleb128 0xb
 442 0016 3E       		.uleb128 0x3e
 443 0017 0B       		.uleb128 0xb
 444 0018 03       		.uleb128 0x3
 445 0019 08       		.uleb128 0x8
 446 001a 00       		.byte	0
 447 001b 00       		.byte	0
 448 001c 03       		.uleb128 0x3
 449 001d 16       		.uleb128 0x16
 450 001e 00       		.byte	0
 451 001f 03       		.uleb128 0x3
 452 0020 0E       		.uleb128 0xe
 453 0021 3A       		.uleb128 0x3a
 454 0022 0B       		.uleb128 0xb
 455 0023 3B       		.uleb128 0x3b
ARM GAS  /tmp/ccT8pWCx.s 			page 9


 456 0024 0B       		.uleb128 0xb
 457 0025 49       		.uleb128 0x49
 458 0026 13       		.uleb128 0x13
 459 0027 00       		.byte	0
 460 0028 00       		.byte	0
 461 0029 04       		.uleb128 0x4
 462 002a 24       		.uleb128 0x24
 463 002b 00       		.byte	0
 464 002c 0B       		.uleb128 0xb
 465 002d 0B       		.uleb128 0xb
 466 002e 3E       		.uleb128 0x3e
 467 002f 0B       		.uleb128 0xb
 468 0030 03       		.uleb128 0x3
 469 0031 0E       		.uleb128 0xe
 470 0032 00       		.byte	0
 471 0033 00       		.byte	0
 472 0034 05       		.uleb128 0x5
 473 0035 0F       		.uleb128 0xf
 474 0036 00       		.byte	0
 475 0037 0B       		.uleb128 0xb
 476 0038 0B       		.uleb128 0xb
 477 0039 00       		.byte	0
 478 003a 00       		.byte	0
 479 003b 06       		.uleb128 0x6
 480 003c 0F       		.uleb128 0xf
 481 003d 00       		.byte	0
 482 003e 0B       		.uleb128 0xb
 483 003f 0B       		.uleb128 0xb
 484 0040 49       		.uleb128 0x49
 485 0041 13       		.uleb128 0x13
 486 0042 00       		.byte	0
 487 0043 00       		.byte	0
 488 0044 07       		.uleb128 0x7
 489 0045 2E       		.uleb128 0x2e
 490 0046 01       		.byte	0x1
 491 0047 3F       		.uleb128 0x3f
 492 0048 19       		.uleb128 0x19
 493 0049 03       		.uleb128 0x3
 494 004a 0E       		.uleb128 0xe
 495 004b 3A       		.uleb128 0x3a
 496 004c 0B       		.uleb128 0xb
 497 004d 3B       		.uleb128 0x3b
 498 004e 0B       		.uleb128 0xb
 499 004f 27       		.uleb128 0x27
 500 0050 19       		.uleb128 0x19
 501 0051 11       		.uleb128 0x11
 502 0052 01       		.uleb128 0x1
 503 0053 12       		.uleb128 0x12
 504 0054 06       		.uleb128 0x6
 505 0055 40       		.uleb128 0x40
 506 0056 18       		.uleb128 0x18
 507 0057 9742     		.uleb128 0x2117
 508 0059 19       		.uleb128 0x19
 509 005a 01       		.uleb128 0x1
 510 005b 13       		.uleb128 0x13
 511 005c 00       		.byte	0
 512 005d 00       		.byte	0
ARM GAS  /tmp/ccT8pWCx.s 			page 10


 513 005e 08       		.uleb128 0x8
 514 005f 34       		.uleb128 0x34
 515 0060 00       		.byte	0
 516 0061 03       		.uleb128 0x3
 517 0062 0E       		.uleb128 0xe
 518 0063 3A       		.uleb128 0x3a
 519 0064 0B       		.uleb128 0xb
 520 0065 3B       		.uleb128 0x3b
 521 0066 0B       		.uleb128 0xb
 522 0067 49       		.uleb128 0x49
 523 0068 13       		.uleb128 0x13
 524 0069 3F       		.uleb128 0x3f
 525 006a 19       		.uleb128 0x19
 526 006b 3C       		.uleb128 0x3c
 527 006c 19       		.uleb128 0x19
 528 006d 00       		.byte	0
 529 006e 00       		.byte	0
 530 006f 09       		.uleb128 0x9
 531 0070 01       		.uleb128 0x1
 532 0071 01       		.byte	0x1
 533 0072 49       		.uleb128 0x49
 534 0073 13       		.uleb128 0x13
 535 0074 01       		.uleb128 0x1
 536 0075 13       		.uleb128 0x13
 537 0076 00       		.byte	0
 538 0077 00       		.byte	0
 539 0078 0A       		.uleb128 0xa
 540 0079 21       		.uleb128 0x21
 541 007a 00       		.byte	0
 542 007b 00       		.byte	0
 543 007c 00       		.byte	0
 544 007d 0B       		.uleb128 0xb
 545 007e 2E       		.uleb128 0x2e
 546 007f 01       		.byte	0x1
 547 0080 3F       		.uleb128 0x3f
 548 0081 19       		.uleb128 0x19
 549 0082 03       		.uleb128 0x3
 550 0083 0E       		.uleb128 0xe
 551 0084 3A       		.uleb128 0x3a
 552 0085 0B       		.uleb128 0xb
 553 0086 3B       		.uleb128 0x3b
 554 0087 0B       		.uleb128 0xb
 555 0088 27       		.uleb128 0x27
 556 0089 19       		.uleb128 0x19
 557 008a 49       		.uleb128 0x49
 558 008b 13       		.uleb128 0x13
 559 008c 11       		.uleb128 0x11
 560 008d 01       		.uleb128 0x1
 561 008e 12       		.uleb128 0x12
 562 008f 06       		.uleb128 0x6
 563 0090 40       		.uleb128 0x40
 564 0091 18       		.uleb128 0x18
 565 0092 9642     		.uleb128 0x2116
 566 0094 19       		.uleb128 0x19
 567 0095 01       		.uleb128 0x1
 568 0096 13       		.uleb128 0x13
 569 0097 00       		.byte	0
ARM GAS  /tmp/ccT8pWCx.s 			page 11


 570 0098 00       		.byte	0
 571 0099 0C       		.uleb128 0xc
 572 009a 05       		.uleb128 0x5
 573 009b 00       		.byte	0
 574 009c 03       		.uleb128 0x3
 575 009d 0E       		.uleb128 0xe
 576 009e 3A       		.uleb128 0x3a
 577 009f 0B       		.uleb128 0xb
 578 00a0 3B       		.uleb128 0x3b
 579 00a1 0B       		.uleb128 0xb
 580 00a2 49       		.uleb128 0x49
 581 00a3 13       		.uleb128 0x13
 582 00a4 02       		.uleb128 0x2
 583 00a5 18       		.uleb128 0x18
 584 00a6 00       		.byte	0
 585 00a7 00       		.byte	0
 586 00a8 0D       		.uleb128 0xd
 587 00a9 34       		.uleb128 0x34
 588 00aa 00       		.byte	0
 589 00ab 03       		.uleb128 0x3
 590 00ac 08       		.uleb128 0x8
 591 00ad 3A       		.uleb128 0x3a
 592 00ae 0B       		.uleb128 0xb
 593 00af 3B       		.uleb128 0x3b
 594 00b0 0B       		.uleb128 0xb
 595 00b1 49       		.uleb128 0x49
 596 00b2 13       		.uleb128 0x13
 597 00b3 02       		.uleb128 0x2
 598 00b4 18       		.uleb128 0x18
 599 00b5 00       		.byte	0
 600 00b6 00       		.byte	0
 601 00b7 0E       		.uleb128 0xe
 602 00b8 2E       		.uleb128 0x2e
 603 00b9 01       		.byte	0x1
 604 00ba 3F       		.uleb128 0x3f
 605 00bb 19       		.uleb128 0x19
 606 00bc 03       		.uleb128 0x3
 607 00bd 0E       		.uleb128 0xe
 608 00be 3A       		.uleb128 0x3a
 609 00bf 0B       		.uleb128 0xb
 610 00c0 3B       		.uleb128 0x3b
 611 00c1 0B       		.uleb128 0xb
 612 00c2 27       		.uleb128 0x27
 613 00c3 19       		.uleb128 0x19
 614 00c4 49       		.uleb128 0x49
 615 00c5 13       		.uleb128 0x13
 616 00c6 11       		.uleb128 0x11
 617 00c7 01       		.uleb128 0x1
 618 00c8 12       		.uleb128 0x12
 619 00c9 06       		.uleb128 0x6
 620 00ca 40       		.uleb128 0x40
 621 00cb 18       		.uleb128 0x18
 622 00cc 9742     		.uleb128 0x2117
 623 00ce 19       		.uleb128 0x19
 624 00cf 01       		.uleb128 0x1
 625 00d0 13       		.uleb128 0x13
 626 00d1 00       		.byte	0
ARM GAS  /tmp/ccT8pWCx.s 			page 12


 627 00d2 00       		.byte	0
 628 00d3 0F       		.uleb128 0xf
 629 00d4 2E       		.uleb128 0x2e
 630 00d5 00       		.byte	0
 631 00d6 3F       		.uleb128 0x3f
 632 00d7 19       		.uleb128 0x19
 633 00d8 03       		.uleb128 0x3
 634 00d9 0E       		.uleb128 0xe
 635 00da 3A       		.uleb128 0x3a
 636 00db 0B       		.uleb128 0xb
 637 00dc 3B       		.uleb128 0x3b
 638 00dd 0B       		.uleb128 0xb
 639 00de 27       		.uleb128 0x27
 640 00df 19       		.uleb128 0x19
 641 00e0 49       		.uleb128 0x49
 642 00e1 13       		.uleb128 0x13
 643 00e2 11       		.uleb128 0x11
 644 00e3 01       		.uleb128 0x1
 645 00e4 12       		.uleb128 0x12
 646 00e5 06       		.uleb128 0x6
 647 00e6 40       		.uleb128 0x40
 648 00e7 18       		.uleb128 0x18
 649 00e8 9742     		.uleb128 0x2117
 650 00ea 19       		.uleb128 0x19
 651 00eb 00       		.byte	0
 652 00ec 00       		.byte	0
 653 00ed 10       		.uleb128 0x10
 654 00ee 34       		.uleb128 0x34
 655 00ef 00       		.byte	0
 656 00f0 03       		.uleb128 0x3
 657 00f1 0E       		.uleb128 0xe
 658 00f2 3A       		.uleb128 0x3a
 659 00f3 0B       		.uleb128 0xb
 660 00f4 3B       		.uleb128 0x3b
 661 00f5 0B       		.uleb128 0xb
 662 00f6 49       		.uleb128 0x49
 663 00f7 13       		.uleb128 0x13
 664 00f8 02       		.uleb128 0x2
 665 00f9 18       		.uleb128 0x18
 666 00fa 00       		.byte	0
 667 00fb 00       		.byte	0
 668 00fc 00       		.byte	0
 669              		.section	.debug_aranges,"",%progbits
 670 0000 34000000 		.4byte	0x34
 671 0004 0200     		.2byte	0x2
 672 0006 00000000 		.4byte	.Ldebug_info0
 673 000a 04       		.byte	0x4
 674 000b 00       		.byte	0
 675 000c 0000     		.2byte	0
 676 000e 0000     		.2byte	0
 677 0010 00000000 		.4byte	.LFB0
 678 0014 2C000000 		.4byte	.LFE0-.LFB0
 679 0018 00000000 		.4byte	.LFB1
 680 001c 20000000 		.4byte	.LFE1-.LFB1
 681 0020 00000000 		.4byte	.LFB2
 682 0024 48000000 		.4byte	.LFE2-.LFB2
 683 0028 00000000 		.4byte	.LFB3
ARM GAS  /tmp/ccT8pWCx.s 			page 13


 684 002c 18000000 		.4byte	.LFE3-.LFB3
 685 0030 00000000 		.4byte	0
 686 0034 00000000 		.4byte	0
 687              		.section	.debug_ranges,"",%progbits
 688              	.Ldebug_ranges0:
 689 0000 00000000 		.4byte	.LFB0
 690 0004 2C000000 		.4byte	.LFE0
 691 0008 00000000 		.4byte	.LFB1
 692 000c 20000000 		.4byte	.LFE1
 693 0010 00000000 		.4byte	.LFB2
 694 0014 48000000 		.4byte	.LFE2
 695 0018 00000000 		.4byte	.LFB3
 696 001c 18000000 		.4byte	.LFE3
 697 0020 00000000 		.4byte	0
 698 0024 00000000 		.4byte	0
 699              		.section	.debug_line,"",%progbits
 700              	.Ldebug_line0:
 701 0000 78010000 		.section	.debug_str,"MS",%progbits,1
 701      02002101 
 701      00000201 
 701      FB0E0D00 
 701      01010101 
 702              	.LASF9:
 703 0000 6C6F6E67 		.ascii	"long long int\000"
 703      206C6F6E 
 703      6720696E 
 703      7400
 704              	.LASF6:
 705 000e 73686F72 		.ascii	"short unsigned int\000"
 705      7420756E 
 705      7369676E 
 705      65642069 
 705      6E7400
 706              	.LASF2:
 707 0021 73697A65 		.ascii	"size_t\000"
 707      5F7400
 708              	.LASF20:
 709 0028 6E657874 		.ascii	"nextmem\000"
 709      6D656D00 
 710              	.LASF16:
 711 0030 5F5F6865 		.ascii	"__heap_end__\000"
 711      61705F65 
 711      6E645F5F 
 711      00
 712              	.LASF15:
 713 003d 5F5F6865 		.ascii	"__heap_base__\000"
 713      61705F62 
 713      6173655F 
 713      5F00
 714              	.LASF22:
 715 004b 474E5520 		.ascii	"GNU C 4.9.3 20150303 (release) [ARM/embedded-4_9-br"
 715      4320342E 
 715      392E3320 
 715      32303135 
 715      30333033 
 716 007e 616E6368 		.ascii	"anch revision 221220] -mcpu=cortex-m4 -mfloat-abi=h"
 716      20726576 
ARM GAS  /tmp/ccT8pWCx.s 			page 14


 716      6973696F 
 716      6E203232 
 716      31323230 
 717 00b1 61726420 		.ascii	"ard -mfpu=fpv4-sp-d16 -mno-thumb-interwork -mthumb "
 717      2D6D6670 
 717      753D6670 
 717      76342D73 
 717      702D6431 
 718 00e4 2D676764 		.ascii	"-ggdb -fomit-frame-pointer -falign-functions=16 -ff"
 718      62202D66 
 718      6F6D6974 
 718      2D667261 
 718      6D652D70 
 719 0117 756E6374 		.ascii	"unction-sections -fdata-sections -fno-common -fsing"
 719      696F6E2D 
 719      73656374 
 719      696F6E73 
 719      202D6664 
 720 014a 6C652D70 		.ascii	"le-precision-constant\000"
 720      72656369 
 720      73696F6E 
 720      2D636F6E 
 720      7374616E 
 721              	.LASF8:
 722 0160 6C6F6E67 		.ascii	"long unsigned int\000"
 722      20756E73 
 722      69676E65 
 722      6420696E 
 722      7400
 723              	.LASF10:
 724 0172 6C6F6E67 		.ascii	"long long unsigned int\000"
 724      206C6F6E 
 724      6720756E 
 724      7369676E 
 724      65642069 
 725              	.LASF3:
 726 0189 5F5F7569 		.ascii	"__uint8_t\000"
 726      6E74385F 
 726      7400
 727              	.LASF11:
 728 0193 75696E74 		.ascii	"uint8_t\000"
 728      385F7400 
 729              	.LASF4:
 730 019b 756E7369 		.ascii	"unsigned char\000"
 730      676E6564 
 730      20636861 
 730      7200
 731              	.LASF14:
 732 01a9 63686172 		.ascii	"char\000"
 732      00
 733              	.LASF17:
 734 01ae 6368436F 		.ascii	"chCoreAlloc\000"
 734      7265416C 
 734      6C6F6300 
 735              	.LASF7:
 736 01ba 6C6F6E67 		.ascii	"long int\000"
 736      20696E74 
ARM GAS  /tmp/ccT8pWCx.s 			page 15


 736      00
 737              	.LASF24:
 738 01c3 5F636F72 		.ascii	"_core_init\000"
 738      655F696E 
 738      697400
 739              	.LASF12:
 740 01ce 5F426F6F 		.ascii	"_Bool\000"
 740      6C00
 741              	.LASF21:
 742 01d4 656E646D 		.ascii	"endmem\000"
 742      656D00
 743              	.LASF18:
 744 01db 6368436F 		.ascii	"chCoreAllocI\000"
 744      7265416C 
 744      6C6F6349 
 744      00
 745              	.LASF1:
 746 01e8 7369676E 		.ascii	"signed char\000"
 746      65642063 
 746      68617200 
 747              	.LASF19:
 748 01f4 73697A65 		.ascii	"size\000"
 748      00
 749              	.LASF23:
 750 01f9 2F686F6D 		.ascii	"/home/makkmarci/workspace/ChibiOS_2.6.8/os/kernel/s"
 750      652F6D61 
 750      6B6B6D61 
 750      7263692F 
 750      776F726B 
 751 022c 72632F63 		.ascii	"rc/chmemcore.c\000"
 751      686D656D 
 751      636F7265 
 751      2E6300
 752              	.LASF5:
 753 023b 73686F72 		.ascii	"short int\000"
 753      7420696E 
 753      7400
 754              	.LASF0:
 755 0245 756E7369 		.ascii	"unsigned int\000"
 755      676E6564 
 755      20696E74 
 755      00
 756              	.LASF13:
 757 0252 73697A65 		.ascii	"sizetype\000"
 757      74797065 
 757      00
 758              	.LASF25:
 759 025b 6368436F 		.ascii	"chCoreStatus\000"
 759      72655374 
 759      61747573 
 759      00
 760              		.ident	"GCC: (GNU Tools for ARM Embedded Processors) 4.9.3 20150303 (release) [ARM/embedded-4_9-br
ARM GAS  /tmp/ccT8pWCx.s 			page 16


DEFINED SYMBOLS
                            *ABS*:00000000 chmemcore.c
     /tmp/ccT8pWCx.s:21     .bss.nextmem:00000000 $d
     /tmp/ccT8pWCx.s:24     .bss.nextmem:00000000 nextmem
     /tmp/ccT8pWCx.s:27     .bss.endmem:00000000 $d
     /tmp/ccT8pWCx.s:30     .bss.endmem:00000000 endmem
     /tmp/ccT8pWCx.s:33     .text._core_init:00000000 $t
     /tmp/ccT8pWCx.s:39     .text._core_init:00000000 _core_init
     /tmp/ccT8pWCx.s:65     .text._core_init:0000001c $d
     /tmp/ccT8pWCx.s:73     .text.chCoreAlloc:00000000 $t
     /tmp/ccT8pWCx.s:79     .text.chCoreAlloc:00000000 chCoreAlloc
     /tmp/ccT8pWCx.s:123    .text.chCoreAllocI:00000000 chCoreAllocI
     /tmp/ccT8pWCx.s:117    .text.chCoreAllocI:00000000 $t
     /tmp/ccT8pWCx.s:176    .text.chCoreAllocI:00000040 $d
     /tmp/ccT8pWCx.s:182    .text.chCoreStatus:00000000 $t
     /tmp/ccT8pWCx.s:188    .text.chCoreStatus:00000000 chCoreStatus
     /tmp/ccT8pWCx.s:208    .text.chCoreStatus:00000010 $d
                     .debug_frame:00000010 $d
     /tmp/ccT8pWCx.s:72     .text._core_init:0000002c $t
     /tmp/ccT8pWCx.s:760    .text.chCoreAllocI:00000048 $t
     /tmp/ccT8pWCx.s:213    .text.chCoreStatus:00000018 $t

UNDEFINED SYMBOLS
__heap_base__
__heap_end__
_port_lock
_port_unlock
