ARM GAS  /tmp/ccV1nw4E.s 			page 1


   1              		.syntax unified
   2              		.cpu cortex-m4
   3              		.eabi_attribute 27, 1
   4              		.eabi_attribute 28, 1
   5              		.fpu fpv4-sp-d16
   6              		.eabi_attribute 20, 1
   7              		.eabi_attribute 21, 1
   8              		.eabi_attribute 23, 3
   9              		.eabi_attribute 24, 1
  10              		.eabi_attribute 25, 1
  11              		.eabi_attribute 26, 1
  12              		.eabi_attribute 30, 6
  13              		.eabi_attribute 34, 1
  14              		.eabi_attribute 18, 4
  15              		.thumb
  16              		.file	"chmempools.c"
  17              		.text
  18              	.Ltext0:
  19              		.cfi_sections	.debug_frame
  20              		.section	.rodata
  21              		.align	2
  22              	.LC0:
  23 0000 22636850 		.ascii	"\"chPoolInit\"()\000"
  23      6F6F6C49 
  23      6E697422 
  23      282900
  24              		.section	.text.chPoolInit,"ax",%progbits
  25              		.align	2
  26              		.p2align 4,,15
  27              		.global	chPoolInit
  28              		.thumb
  29              		.thumb_func
  30              		.type	chPoolInit, %function
  31              	chPoolInit:
  32              	.LFB0:
  33              		.file 1 "/home/makkmarci/workspace/ChibiOS_2.6.8/os/kernel/src/chmempools.c"
  34              		.loc 1 62 0
  35              		.cfi_startproc
  36              		@ args = 0, pretend = 0, frame = 16
  37              		@ frame_needed = 0, uses_anonymous_args = 0
  38 0000 00B5     		push	{lr}
  39              		.cfi_def_cfa_offset 4
  40              		.cfi_offset 14, -4
  41 0002 85B0     		sub	sp, sp, #20
  42              		.cfi_def_cfa_offset 24
  43 0004 0390     		str	r0, [sp, #12]
  44 0006 0291     		str	r1, [sp, #8]
  45 0008 0192     		str	r2, [sp, #4]
  46              		.loc 1 64 0
  47 000a 039B     		ldr	r3, [sp, #12]
  48 000c 002B     		cmp	r3, #0
  49 000e 02D0     		beq	.L2
  50              		.loc 1 64 0 is_stmt 0 discriminator 2
  51 0010 029B     		ldr	r3, [sp, #8]
  52 0012 032B     		cmp	r3, #3
  53 0014 02D8     		bhi	.L3
  54              	.L2:
ARM GAS  /tmp/ccV1nw4E.s 			page 2


  55              		.loc 1 64 0 discriminator 3
  56 0016 0748     		ldr	r0, .L4
  57 0018 FFF7FEFF 		bl	chDbgPanic
  58              	.L3:
  59              		.loc 1 66 0 is_stmt 1
  60 001c 039B     		ldr	r3, [sp, #12]
  61 001e 0022     		movs	r2, #0
  62 0020 1A60     		str	r2, [r3]
  63              		.loc 1 67 0
  64 0022 039B     		ldr	r3, [sp, #12]
  65 0024 029A     		ldr	r2, [sp, #8]
  66 0026 5A60     		str	r2, [r3, #4]
  67              		.loc 1 68 0
  68 0028 039B     		ldr	r3, [sp, #12]
  69 002a 019A     		ldr	r2, [sp, #4]
  70 002c 9A60     		str	r2, [r3, #8]
  71              		.loc 1 69 0
  72 002e 05B0     		add	sp, sp, #20
  73              		.cfi_def_cfa_offset 4
  74              		@ sp needed
  75 0030 5DF804FB 		ldr	pc, [sp], #4
  76              	.L5:
  77              		.align	2
  78              	.L4:
  79 0034 00000000 		.word	.LC0
  80              		.cfi_endproc
  81              	.LFE0:
  82              		.size	chPoolInit, .-chPoolInit
  83 0038 AFF30080 		.section	.rodata
  83      AFF30080 
  84 000f 00       		.align	2
  85              	.LC1:
  86 0010 22636850 		.ascii	"\"chPoolLoadArray\"()\000"
  86      6F6F6C4C 
  86      6F616441 
  86      72726179 
  86      22282900 
  87              		.section	.text.chPoolLoadArray,"ax",%progbits
  88              		.align	2
  89              		.p2align 4,,15
  90              		.global	chPoolLoadArray
  91              		.thumb
  92              		.thumb_func
  93              		.type	chPoolLoadArray, %function
  94              	chPoolLoadArray:
  95              	.LFB1:
  96              		.loc 1 84 0
  97              		.cfi_startproc
  98              		@ args = 0, pretend = 0, frame = 16
  99              		@ frame_needed = 0, uses_anonymous_args = 0
 100 0000 00B5     		push	{lr}
 101              		.cfi_def_cfa_offset 4
 102              		.cfi_offset 14, -4
 103 0002 85B0     		sub	sp, sp, #20
 104              		.cfi_def_cfa_offset 24
 105 0004 0390     		str	r0, [sp, #12]
 106 0006 0291     		str	r1, [sp, #8]
ARM GAS  /tmp/ccV1nw4E.s 			page 3


 107 0008 0192     		str	r2, [sp, #4]
 108              		.loc 1 86 0
 109 000a 039B     		ldr	r3, [sp, #12]
 110 000c 002B     		cmp	r3, #0
 111 000e 02D0     		beq	.L7
 112              		.loc 1 86 0 is_stmt 0 discriminator 2
 113 0010 019B     		ldr	r3, [sp, #4]
 114 0012 002B     		cmp	r3, #0
 115 0014 02D1     		bne	.L8
 116              	.L7:
 117              		.loc 1 86 0 discriminator 3
 118 0016 0B48     		ldr	r0, .L11
 119 0018 FFF7FEFF 		bl	chDbgPanic
 120              	.L8:
 121              		.loc 1 88 0 is_stmt 1
 122 001c 0BE0     		b	.L9
 123              	.L10:
 124              		.loc 1 89 0
 125 001e 0398     		ldr	r0, [sp, #12]
 126 0020 0299     		ldr	r1, [sp, #8]
 127 0022 FFF7FEFF 		bl	chPoolFree
 128              		.loc 1 90 0
 129 0026 039B     		ldr	r3, [sp, #12]
 130 0028 5B68     		ldr	r3, [r3, #4]
 131 002a 029A     		ldr	r2, [sp, #8]
 132 002c 1344     		add	r3, r3, r2
 133 002e 0293     		str	r3, [sp, #8]
 134              		.loc 1 91 0
 135 0030 019B     		ldr	r3, [sp, #4]
 136 0032 013B     		subs	r3, r3, #1
 137 0034 0193     		str	r3, [sp, #4]
 138              	.L9:
 139              		.loc 1 88 0
 140 0036 019B     		ldr	r3, [sp, #4]
 141 0038 002B     		cmp	r3, #0
 142 003a F0D1     		bne	.L10
 143              		.loc 1 93 0
 144 003c 05B0     		add	sp, sp, #20
 145              		.cfi_def_cfa_offset 4
 146              		@ sp needed
 147 003e 5DF804FB 		ldr	pc, [sp], #4
 148              	.L12:
 149 0042 00BF     		.align	2
 150              	.L11:
 151 0044 10000000 		.word	.LC1
 152              		.cfi_endproc
 153              	.LFE1:
 154              		.size	chPoolLoadArray, .-chPoolLoadArray
 155 0048 AFF30080 		.section	.rodata
 155      AFF30080 
 156              		.align	2
 157              	.LC2:
 158 0024 22636850 		.ascii	"\"chPoolAllocI\"()\000"
 158      6F6F6C41 
 158      6C6C6F63 
 158      49222829 
 158      00
ARM GAS  /tmp/ccV1nw4E.s 			page 4


 159              		.section	.text.chPoolAllocI,"ax",%progbits
 160              		.align	2
 161              		.p2align 4,,15
 162              		.global	chPoolAllocI
 163              		.thumb
 164              		.thumb_func
 165              		.type	chPoolAllocI, %function
 166              	chPoolAllocI:
 167              	.LFB2:
 168              		.loc 1 105 0
 169              		.cfi_startproc
 170              		@ args = 0, pretend = 0, frame = 16
 171              		@ frame_needed = 0, uses_anonymous_args = 0
 172 0000 00B5     		push	{lr}
 173              		.cfi_def_cfa_offset 4
 174              		.cfi_offset 14, -4
 175 0002 85B0     		sub	sp, sp, #20
 176              		.cfi_def_cfa_offset 24
 177 0004 0190     		str	r0, [sp, #4]
 178              		.loc 1 109 0
 179 0006 019B     		ldr	r3, [sp, #4]
 180 0008 002B     		cmp	r3, #0
 181 000a 02D1     		bne	.L14
 182              		.loc 1 109 0 is_stmt 0 discriminator 1
 183 000c 0F48     		ldr	r0, .L18
 184 000e FFF7FEFF 		bl	chDbgPanic
 185              	.L14:
 186              		.loc 1 111 0 is_stmt 1
 187 0012 019B     		ldr	r3, [sp, #4]
 188 0014 1B68     		ldr	r3, [r3]
 189 0016 0393     		str	r3, [sp, #12]
 190 0018 039B     		ldr	r3, [sp, #12]
 191 001a 002B     		cmp	r3, #0
 192 001c 05D0     		beq	.L15
 193              		.loc 1 112 0
 194 001e 019B     		ldr	r3, [sp, #4]
 195 0020 1B68     		ldr	r3, [r3]
 196 0022 1A68     		ldr	r2, [r3]
 197 0024 019B     		ldr	r3, [sp, #4]
 198 0026 1A60     		str	r2, [r3]
 199 0028 0AE0     		b	.L16
 200              	.L15:
 201              		.loc 1 113 0
 202 002a 019B     		ldr	r3, [sp, #4]
 203 002c 9B68     		ldr	r3, [r3, #8]
 204 002e 002B     		cmp	r3, #0
 205 0030 06D0     		beq	.L16
 206              		.loc 1 114 0
 207 0032 019B     		ldr	r3, [sp, #4]
 208 0034 9B68     		ldr	r3, [r3, #8]
 209 0036 019A     		ldr	r2, [sp, #4]
 210 0038 5268     		ldr	r2, [r2, #4]
 211 003a 1046     		mov	r0, r2
 212 003c 9847     		blx	r3
 213 003e 0390     		str	r0, [sp, #12]
 214              	.L16:
 215              		.loc 1 115 0
ARM GAS  /tmp/ccV1nw4E.s 			page 5


 216 0040 039B     		ldr	r3, [sp, #12]
 217              		.loc 1 116 0
 218 0042 1846     		mov	r0, r3
 219 0044 05B0     		add	sp, sp, #20
 220              		.cfi_def_cfa_offset 4
 221              		@ sp needed
 222 0046 5DF804FB 		ldr	pc, [sp], #4
 223              	.L19:
 224 004a 00BF     		.align	2
 225              	.L18:
 226 004c 24000000 		.word	.LC2
 227              		.cfi_endproc
 228              	.LFE2:
 229              		.size	chPoolAllocI, .-chPoolAllocI
 230              		.section	.text.chPoolAlloc,"ax",%progbits
 231              		.align	2
 232              		.p2align 4,,15
 233              		.global	chPoolAlloc
 234              		.thumb
 235              		.thumb_func
 236              		.type	chPoolAlloc, %function
 237              	chPoolAlloc:
 238              	.LFB3:
 239              		.loc 1 128 0
 240              		.cfi_startproc
 241              		@ args = 0, pretend = 0, frame = 16
 242              		@ frame_needed = 0, uses_anonymous_args = 0
 243 0000 00B5     		push	{lr}
 244              		.cfi_def_cfa_offset 4
 245              		.cfi_offset 14, -4
 246 0002 85B0     		sub	sp, sp, #20
 247              		.cfi_def_cfa_offset 24
 248 0004 0190     		str	r0, [sp, #4]
 249              		.loc 1 131 0
 250              	@ 131 "/home/makkmarci/workspace/ChibiOS_2.6.8/os/kernel/src/chmempools.c" 1
 251 0006 FFF7FEFF 		bl      _port_lock
 252              	@ 0 "" 2
 253              		.loc 1 132 0
 254              		.thumb
 255 000a 0198     		ldr	r0, [sp, #4]
 256 000c FFF7FEFF 		bl	chPoolAllocI
 257 0010 0390     		str	r0, [sp, #12]
 258              		.loc 1 133 0
 259              	@ 133 "/home/makkmarci/workspace/ChibiOS_2.6.8/os/kernel/src/chmempools.c" 1
 260 0012 FFF7FEFF 		bl      _port_unlock
 261              	@ 0 "" 2
 262              		.loc 1 134 0
 263              		.thumb
 264 0016 039B     		ldr	r3, [sp, #12]
 265              		.loc 1 135 0
 266 0018 1846     		mov	r0, r3
 267 001a 05B0     		add	sp, sp, #20
 268              		.cfi_def_cfa_offset 4
 269              		@ sp needed
 270 001c 5DF804FB 		ldr	pc, [sp], #4
 271              		.cfi_endproc
 272              	.LFE3:
ARM GAS  /tmp/ccV1nw4E.s 			page 6


 273              		.size	chPoolAlloc, .-chPoolAlloc
 274              		.section	.rodata
 275 0035 000000   		.align	2
 276              	.LC3:
 277 0038 22636850 		.ascii	"\"chPoolFreeI\"()\000"
 277      6F6F6C46 
 277      72656549 
 277      22282900 
 278              		.section	.text.chPoolFreeI,"ax",%progbits
 279              		.align	2
 280              		.p2align 4,,15
 281              		.global	chPoolFreeI
 282              		.thumb
 283              		.thumb_func
 284              		.type	chPoolFreeI, %function
 285              	chPoolFreeI:
 286              	.LFB4:
 287              		.loc 1 149 0
 288              		.cfi_startproc
 289              		@ args = 0, pretend = 0, frame = 16
 290              		@ frame_needed = 0, uses_anonymous_args = 0
 291 0000 00B5     		push	{lr}
 292              		.cfi_def_cfa_offset 4
 293              		.cfi_offset 14, -4
 294 0002 85B0     		sub	sp, sp, #20
 295              		.cfi_def_cfa_offset 24
 296 0004 0190     		str	r0, [sp, #4]
 297 0006 0091     		str	r1, [sp]
 298              		.loc 1 150 0
 299 0008 009B     		ldr	r3, [sp]
 300 000a 0393     		str	r3, [sp, #12]
 301              		.loc 1 153 0
 302 000c 019B     		ldr	r3, [sp, #4]
 303 000e 002B     		cmp	r3, #0
 304 0010 02D0     		beq	.L23
 305              		.loc 1 153 0 is_stmt 0 discriminator 2
 306 0012 009B     		ldr	r3, [sp]
 307 0014 002B     		cmp	r3, #0
 308 0016 02D1     		bne	.L24
 309              	.L23:
 310              		.loc 1 153 0 discriminator 3
 311 0018 0648     		ldr	r0, .L25
 312 001a FFF7FEFF 		bl	chDbgPanic
 313              	.L24:
 314              		.loc 1 155 0 is_stmt 1
 315 001e 019B     		ldr	r3, [sp, #4]
 316 0020 1A68     		ldr	r2, [r3]
 317 0022 039B     		ldr	r3, [sp, #12]
 318 0024 1A60     		str	r2, [r3]
 319              		.loc 1 156 0
 320 0026 019B     		ldr	r3, [sp, #4]
 321 0028 039A     		ldr	r2, [sp, #12]
 322 002a 1A60     		str	r2, [r3]
 323              		.loc 1 157 0
 324 002c 05B0     		add	sp, sp, #20
 325              		.cfi_def_cfa_offset 4
 326              		@ sp needed
ARM GAS  /tmp/ccV1nw4E.s 			page 7


 327 002e 5DF804FB 		ldr	pc, [sp], #4
 328              	.L26:
 329 0032 00BF     		.align	2
 330              	.L25:
 331 0034 38000000 		.word	.LC3
 332              		.cfi_endproc
 333              	.LFE4:
 334              		.size	chPoolFreeI, .-chPoolFreeI
 335 0038 AFF30080 		.section	.text.chPoolFree,"ax",%progbits
 335      AFF30080 
 336              		.align	2
 337              		.p2align 4,,15
 338              		.global	chPoolFree
 339              		.thumb
 340              		.thumb_func
 341              		.type	chPoolFree, %function
 342              	chPoolFree:
 343              	.LFB5:
 344              		.loc 1 171 0
 345              		.cfi_startproc
 346              		@ args = 0, pretend = 0, frame = 8
 347              		@ frame_needed = 0, uses_anonymous_args = 0
 348 0000 00B5     		push	{lr}
 349              		.cfi_def_cfa_offset 4
 350              		.cfi_offset 14, -4
 351 0002 83B0     		sub	sp, sp, #12
 352              		.cfi_def_cfa_offset 16
 353 0004 0190     		str	r0, [sp, #4]
 354 0006 0091     		str	r1, [sp]
 355              		.loc 1 173 0
 356              	@ 173 "/home/makkmarci/workspace/ChibiOS_2.6.8/os/kernel/src/chmempools.c" 1
 357 0008 FFF7FEFF 		bl      _port_lock
 358              	@ 0 "" 2
 359              		.loc 1 174 0
 360              		.thumb
 361 000c 0198     		ldr	r0, [sp, #4]
 362 000e 0099     		ldr	r1, [sp]
 363 0010 FFF7FEFF 		bl	chPoolFreeI
 364              		.loc 1 175 0
 365              	@ 175 "/home/makkmarci/workspace/ChibiOS_2.6.8/os/kernel/src/chmempools.c" 1
 366 0014 FFF7FEFF 		bl      _port_unlock
 367              	@ 0 "" 2
 368              		.loc 1 176 0
 369              		.thumb
 370 0018 03B0     		add	sp, sp, #12
 371              		.cfi_def_cfa_offset 4
 372              		@ sp needed
 373 001a 5DF804FB 		ldr	pc, [sp], #4
 374              		.cfi_endproc
 375              	.LFE5:
 376              		.size	chPoolFree, .-chPoolFree
 377 001e 00BF     		.text
 378              	.Letext0:
 379              		.file 2 "/opt/gcc-arm-none-eabi/lib/gcc/arm-none-eabi/4.9.3/include/stddef.h"
 380              		.file 3 "/opt/gcc-arm-none-eabi/arm-none-eabi/include/machine/_default_types.h"
 381              		.file 4 "/opt/gcc-arm-none-eabi/arm-none-eabi/include/stdint.h"
 382              		.file 5 "/home/makkmarci/workspace/ChibiOS_2.6.8/os/kernel/include/chmemcore.h"
ARM GAS  /tmp/ccV1nw4E.s 			page 8


 383              		.file 6 "/home/makkmarci/workspace/ChibiOS_2.6.8/os/kernel/include/chmempools.h"