ARM GAS  /tmp/ccV1nw4E.s 			page 1


   1              		.syntax unified
   2              		.cpu cortex-m4
   3              		.eabi_attribute 27, 1
   4              		.eabi_attribute 28, 1
   5              		.fpu fpv4-sp-d16
   6              		.eabi_attribute 20, 1
   7              		.eabi_attribute 21, 1
   8              		.eabi_attribute 23, 3
   9              		.eabi_attribute 24, 1
  10              		.eabi_attribute 25, 1
  11              		.eabi_attribute 26, 1
  12              		.eabi_attribute 30, 6
  13              		.eabi_attribute 34, 1
  14              		.eabi_attribute 18, 4
  15              		.thumb
  16              		.file	"chmempools.c"
  17              		.text
  18              	.Ltext0:
  19              		.cfi_sections	.debug_frame
  20              		.section	.rodata
  21              		.align	2
  22              	.LC0:
  23 0000 22636850 		.ascii	"\"chPoolInit\"()\000"
  23      6F6F6C49 
  23      6E697422 
  23      282900
  24              		.section	.text.chPoolInit,"ax",%progbits
  25              		.align	2
  26              		.p2align 4,,15
  27              		.global	chPoolInit
  28              		.thumb
  29              		.thumb_func
  30              		.type	chPoolInit, %function
  31              	chPoolInit:
  32              	.LFB0:
  33              		.file 1 "/home/makkmarci/workspace/ChibiOS_2.6.8/os/kernel/src/chmempools.c"
  34              		.loc 1 62 0
  35              		.cfi_startproc
  36              		@ args = 0, pretend = 0, frame = 16
  37              		@ frame_needed = 0, uses_anonymous_args = 0
  38 0000 00B5     		push	{lr}
  39              		.cfi_def_cfa_offset 4
  40              		.cfi_offset 14, -4
  41 0002 85B0     		sub	sp, sp, #20
  42              		.cfi_def_cfa_offset 24
  43 0004 0390     		str	r0, [sp, #12]
  44 0006 0291     		str	r1, [sp, #8]
  45 0008 0192     		str	r2, [sp, #4]
  46              		.loc 1 64 0
  47 000a 039B     		ldr	r3, [sp, #12]
  48 000c 002B     		cmp	r3, #0
  49 000e 02D0     		beq	.L2
  50              		.loc 1 64 0 is_stmt 0 discriminator 2
  51 0010 029B     		ldr	r3, [sp, #8]
  52 0012 032B     		cmp	r3, #3
  53 0014 02D8     		bhi	.L3
  54              	.L2:
ARM GAS  /tmp/ccV1nw4E.s 			page 2


  55              		.loc 1 64 0 discriminator 3
  56 0016 0748     		ldr	r0, .L4
  57 0018 FFF7FEFF 		bl	chDbgPanic
  58              	.L3:
  59              		.loc 1 66 0 is_stmt 1
  60 001c 039B     		ldr	r3, [sp, #12]
  61 001e 0022     		movs	r2, #0
  62 0020 1A60     		str	r2, [r3]
  63              		.loc 1 67 0
  64 0022 039B     		ldr	r3, [sp, #12]
  65 0024 029A     		ldr	r2, [sp, #8]
  66 0026 5A60     		str	r2, [r3, #4]
  67              		.loc 1 68 0
  68 0028 039B     		ldr	r3, [sp, #12]
  69 002a 019A     		ldr	r2, [sp, #4]
  70 002c 9A60     		str	r2, [r3, #8]
  71              		.loc 1 69 0
  72 002e 05B0     		add	sp, sp, #20
  73              		.cfi_def_cfa_offset 4
  74              		@ sp needed
  75 0030 5DF804FB 		ldr	pc, [sp], #4
  76              	.L5:
  77              		.align	2
  78              	.L4:
  79 0034 00000000 		.word	.LC0
  80              		.cfi_endproc
  81              	.LFE0:
  82              		.size	chPoolInit, .-chPoolInit
  83 0038 AFF30080 		.section	.rodata
  83      AFF30080 
  84 000f 00       		.align	2
  85              	.LC1:
  86 0010 22636850 		.ascii	"\"chPoolLoadArray\"()\000"
  86      6F6F6C4C 
  86      6F616441 
  86      72726179 
  86      22282900 
  87              		.section	.text.chPoolLoadArray,"ax",%progbits
  88              		.align	2
  89              		.p2align 4,,15
  90              		.global	chPoolLoadArray
  91              		.thumb
  92              		.thumb_func
  93              		.type	chPoolLoadArray, %function
  94              	chPoolLoadArray:
  95              	.LFB1:
  96              		.loc 1 84 0
  97              		.cfi_startproc
  98              		@ args = 0, pretend = 0, frame = 16
  99              		@ frame_needed = 0, uses_anonymous_args = 0
 100 0000 00B5     		push	{lr}
 101              		.cfi_def_cfa_offset 4
 102              		.cfi_offset 14, -4
 103 0002 85B0     		sub	sp, sp, #20
 104              		.cfi_def_cfa_offset 24
 105 0004 0390     		str	r0, [sp, #12]
 106 0006 0291     		str	r1, [sp, #8]
ARM GAS  /tmp/ccV1nw4E.s 			page 3


 107 0008 0192     		str	r2, [sp, #4]
 108              		.loc 1 86 0
 109 000a 039B     		ldr	r3, [sp, #12]
 110 000c 002B     		cmp	r3, #0
 111 000e 02D0     		beq	.L7
 112              		.loc 1 86 0 is_stmt 0 discriminator 2
 113 0010 019B     		ldr	r3, [sp, #4]
 114 0012 002B     		cmp	r3, #0
 115 0014 02D1     		bne	.L8
 116              	.L7:
 117              		.loc 1 86 0 discriminator 3
 118 0016 0B48     		ldr	r0, .L11
 119 0018 FFF7FEFF 		bl	chDbgPanic
 120              	.L8:
 121              		.loc 1 88 0 is_stmt 1
 122 001c 0BE0     		b	.L9
 123              	.L10:
 124              		.loc 1 89 0
 125 001e 0398     		ldr	r0, [sp, #12]
 126 0020 0299     		ldr	r1, [sp, #8]
 127 0022 FFF7FEFF 		bl	chPoolFree
 128              		.loc 1 90 0
 129 0026 039B     		ldr	r3, [sp, #12]
 130 0028 5B68     		ldr	r3, [r3, #4]
 131 002a 029A     		ldr	r2, [sp, #8]
 132 002c 1344     		add	r3, r3, r2
 133 002e 0293     		str	r3, [sp, #8]
 134              		.loc 1 91 0
 135 0030 019B     		ldr	r3, [sp, #4]
 136 0032 013B     		subs	r3, r3, #1
 137 0034 0193     		str	r3, [sp, #4]
 138              	.L9:
 139              		.loc 1 88 0
 140 0036 019B     		ldr	r3, [sp, #4]
 141 0038 002B     		cmp	r3, #0
 142 003a F0D1     		bne	.L10
 143              		.loc 1 93 0
 144 003c 05B0     		add	sp, sp, #20
 145              		.cfi_def_cfa_offset 4
 146              		@ sp needed
 147 003e 5DF804FB 		ldr	pc, [sp], #4
 148              	.L12:
 149 0042 00BF     		.align	2
 150              	.L11:
 151 0044 10000000 		.word	.LC1
 152              		.cfi_endproc
 153              	.LFE1:
 154              		.size	chPoolLoadArray, .-chPoolLoadArray
 155 0048 AFF30080 		.section	.rodata
 155      AFF30080 
 156              		.align	2
 157              	.LC2:
 158 0024 22636850 		.ascii	"\"chPoolAllocI\"()\000"
 158      6F6F6C41 
 158      6C6C6F63 
 158      49222829 
 158      00
ARM GAS  /tmp/ccV1nw4E.s 			page 4


 159              		.section	.text.chPoolAllocI,"ax",%progbits
 160              		.align	2
 161              		.p2align 4,,15
 162              		.global	chPoolAllocI
 163              		.thumb
 164              		.thumb_func
 165              		.type	chPoolAllocI, %function
 166              	chPoolAllocI:
 167              	.LFB2:
 168              		.loc 1 105 0
 169              		.cfi_startproc
 170              		@ args = 0, pretend = 0, frame = 16
 171              		@ frame_needed = 0, uses_anonymous_args = 0
 172 0000 00B5     		push	{lr}
 173              		.cfi_def_cfa_offset 4
 174              		.cfi_offset 14, -4
 175 0002 85B0     		sub	sp, sp, #20
 176              		.cfi_def_cfa_offset 24
 177 0004 0190     		str	r0, [sp, #4]
 178              		.loc 1 109 0
 179 0006 019B     		ldr	r3, [sp, #4]
 180 0008 002B     		cmp	r3, #0
 181 000a 02D1     		bne	.L14
 182              		.loc 1 109 0 is_stmt 0 discriminator 1
 183 000c 0F48     		ldr	r0, .L18
 184 000e FFF7FEFF 		bl	chDbgPanic
 185              	.L14:
 186              		.loc 1 111 0 is_stmt 1
 187 0012 019B     		ldr	r3, [sp, #4]
 188 0014 1B68     		ldr	r3, [r3]
 189 0016 0393     		str	r3, [sp, #12]
 190 0018 039B     		ldr	r3, [sp, #12]
 191 001a 002B     		cmp	r3, #0
 192 001c 05D0     		beq	.L15
 193              		.loc 1 112 0
 194 001e 019B     		ldr	r3, [sp, #4]
 195 0020 1B68     		ldr	r3, [r3]
 196 0022 1A68     		ldr	r2, [r3]
 197 0024 019B     		ldr	r3, [sp, #4]
 198 0026 1A60     		str	r2, [r3]
 199 0028 0AE0     		b	.L16
 200              	.L15:
 201              		.loc 1 113 0
 202 002a 019B     		ldr	r3, [sp, #4]
 203 002c 9B68     		ldr	r3, [r3, #8]
 204 002e 002B     		cmp	r3, #0
 205 0030 06D0     		beq	.L16
 206              		.loc 1 114 0
 207 0032 019B     		ldr	r3, [sp, #4]
 208 0034 9B68     		ldr	r3, [r3, #8]
 209 0036 019A     		ldr	r2, [sp, #4]
 210 0038 5268     		ldr	r2, [r2, #4]
 211 003a 1046     		mov	r0, r2
 212 003c 9847     		blx	r3
 213 003e 0390     		str	r0, [sp, #12]
 214              	.L16:
 215              		.loc 1 115 0
ARM GAS  /tmp/ccV1nw4E.s 			page 5


 216 0040 039B     		ldr	r3, [sp, #12]
 217              		.loc 1 116 0
 218 0042 1846     		mov	r0, r3
 219 0044 05B0     		add	sp, sp, #20
 220              		.cfi_def_cfa_offset 4
 221              		@ sp needed
 222 0046 5DF804FB 		ldr	pc, [sp], #4
 223              	.L19:
 224 004a 00BF     		.align	2
 225              	.L18:
 226 004c 24000000 		.word	.LC2
 227              		.cfi_endproc
 228              	.LFE2:
 229              		.size	chPoolAllocI, .-chPoolAllocI
 230              		.section	.text.chPoolAlloc,"ax",%progbits
 231              		.align	2
 232              		.p2align 4,,15
 233              		.global	chPoolAlloc
 234              		.thumb
 235              		.thumb_func
 236              		.type	chPoolAlloc, %function
 237              	chPoolAlloc:
 238              	.LFB3:
 239              		.loc 1 128 0
 240              		.cfi_startproc
 241              		@ args = 0, pretend = 0, frame = 16
 242              		@ frame_needed = 0, uses_anonymous_args = 0
 243 0000 00B5     		push	{lr}
 244              		.cfi_def_cfa_offset 4
 245              		.cfi_offset 14, -4
 246 0002 85B0     		sub	sp, sp, #20
 247              		.cfi_def_cfa_offset 24
 248 0004 0190     		str	r0, [sp, #4]
 249              		.loc 1 131 0
 250              	@ 131 "/home/makkmarci/workspace/ChibiOS_2.6.8/os/kernel/src/chmempools.c" 1
 251 0006 FFF7FEFF 		bl      _port_lock
 252              	@ 0 "" 2
 253              		.loc 1 132 0
 254              		.thumb
 255 000a 0198     		ldr	r0, [sp, #4]
 256 000c FFF7FEFF 		bl	chPoolAllocI
 257 0010 0390     		str	r0, [sp, #12]
 258              		.loc 1 133 0
 259              	@ 133 "/home/makkmarci/workspace/ChibiOS_2.6.8/os/kernel/src/chmempools.c" 1
 260 0012 FFF7FEFF 		bl      _port_unlock
 261              	@ 0 "" 2
 262              		.loc 1 134 0
 263              		.thumb
 264 0016 039B     		ldr	r3, [sp, #12]
 265              		.loc 1 135 0
 266 0018 1846     		mov	r0, r3
 267 001a 05B0     		add	sp, sp, #20
 268              		.cfi_def_cfa_offset 4
 269              		@ sp needed
 270 001c 5DF804FB 		ldr	pc, [sp], #4
 271              		.cfi_endproc
 272              	.LFE3:
ARM GAS  /tmp/ccV1nw4E.s 			page 6


 273              		.size	chPoolAlloc, .-chPoolAlloc
 274              		.section	.rodata
 275 0035 000000   		.align	2
 276              	.LC3:
 277 0038 22636850 		.ascii	"\"chPoolFreeI\"()\000"
 277      6F6F6C46 
 277      72656549 
 277      22282900 
 278              		.section	.text.chPoolFreeI,"ax",%progbits
 279              		.align	2
 280              		.p2align 4,,15
 281              		.global	chPoolFreeI
 282              		.thumb
 283              		.thumb_func
 284              		.type	chPoolFreeI, %function
 285              	chPoolFreeI:
 286              	.LFB4:
 287              		.loc 1 149 0
 288              		.cfi_startproc
 289              		@ args = 0, pretend = 0, frame = 16
 290              		@ frame_needed = 0, uses_anonymous_args = 0
 291 0000 00B5     		push	{lr}
 292              		.cfi_def_cfa_offset 4
 293              		.cfi_offset 14, -4
 294 0002 85B0     		sub	sp, sp, #20
 295              		.cfi_def_cfa_offset 24
 296 0004 0190     		str	r0, [sp, #4]
 297 0006 0091     		str	r1, [sp]
 298              		.loc 1 150 0
 299 0008 009B     		ldr	r3, [sp]
 300 000a 0393     		str	r3, [sp, #12]
 301              		.loc 1 153 0
 302 000c 019B     		ldr	r3, [sp, #4]
 303 000e 002B     		cmp	r3, #0
 304 0010 02D0     		beq	.L23
 305              		.loc 1 153 0 is_stmt 0 discriminator 2
 306 0012 009B     		ldr	r3, [sp]
 307 0014 002B     		cmp	r3, #0
 308 0016 02D1     		bne	.L24
 309              	.L23:
 310              		.loc 1 153 0 discriminator 3
 311 0018 0648     		ldr	r0, .L25
 312 001a FFF7FEFF 		bl	chDbgPanic
 313              	.L24:
 314              		.loc 1 155 0 is_stmt 1
 315 001e 019B     		ldr	r3, [sp, #4]
 316 0020 1A68     		ldr	r2, [r3]
 317 0022 039B     		ldr	r3, [sp, #12]
 318 0024 1A60     		str	r2, [r3]
 319              		.loc 1 156 0
 320 0026 019B     		ldr	r3, [sp, #4]
 321 0028 039A     		ldr	r2, [sp, #12]
 322 002a 1A60     		str	r2, [r3]
 323              		.loc 1 157 0
 324 002c 05B0     		add	sp, sp, #20
 325              		.cfi_def_cfa_offset 4
 326              		@ sp needed
ARM GAS  /tmp/ccV1nw4E.s 			page 7


 327 002e 5DF804FB 		ldr	pc, [sp], #4
 328              	.L26:
 329 0032 00BF     		.align	2
 330              	.L25:
 331 0034 38000000 		.word	.LC3
 332              		.cfi_endproc
 333              	.LFE4:
 334              		.size	chPoolFreeI, .-chPoolFreeI
 335 0038 AFF30080 		.section	.text.chPoolFree,"ax",%progbits
 335      AFF30080 
 336              		.align	2
 337              		.p2align 4,,15
 338              		.global	chPoolFree
 339              		.thumb
 340              		.thumb_func
 341              		.type	chPoolFree, %function
 342              	chPoolFree:
 343              	.LFB5:
 344              		.loc 1 171 0
 345              		.cfi_startproc
 346              		@ args = 0, pretend = 0, frame = 8
 347              		@ frame_needed = 0, uses_anonymous_args = 0
 348 0000 00B5     		push	{lr}
 349              		.cfi_def_cfa_offset 4
 350              		.cfi_offset 14, -4
 351 0002 83B0     		sub	sp, sp, #12
 352              		.cfi_def_cfa_offset 16
 353 0004 0190     		str	r0, [sp, #4]
 354 0006 0091     		str	r1, [sp]
 355              		.loc 1 173 0
 356              	@ 173 "/home/makkmarci/workspace/ChibiOS_2.6.8/os/kernel/src/chmempools.c" 1
 357 0008 FFF7FEFF 		bl      _port_lock
 358              	@ 0 "" 2
 359              		.loc 1 174 0
 360              		.thumb
 361 000c 0198     		ldr	r0, [sp, #4]
 362 000e 0099     		ldr	r1, [sp]
 363 0010 FFF7FEFF 		bl	chPoolFreeI
 364              		.loc 1 175 0
 365              	@ 175 "/home/makkmarci/workspace/ChibiOS_2.6.8/os/kernel/src/chmempools.c" 1
 366 0014 FFF7FEFF 		bl      _port_unlock
 367              	@ 0 "" 2
 368              		.loc 1 176 0
 369              		.thumb
 370 0018 03B0     		add	sp, sp, #12
 371              		.cfi_def_cfa_offset 4
 372              		@ sp needed
 373 001a 5DF804FB 		ldr	pc, [sp], #4
 374              		.cfi_endproc
 375              	.LFE5:
 376              		.size	chPoolFree, .-chPoolFree
 377 001e 00BF     		.text
 378              	.Letext0:
 379              		.file 2 "/opt/gcc-arm-none-eabi/lib/gcc/arm-none-eabi/4.9.3/include/stddef.h"
 380              		.file 3 "/opt/gcc-arm-none-eabi/arm-none-eabi/include/machine/_default_types.h"
 381              		.file 4 "/opt/gcc-arm-none-eabi/arm-none-eabi/include/stdint.h"
 382              		.file 5 "/home/makkmarci/workspace/ChibiOS_2.6.8/os/kernel/include/chmemcore.h"
ARM GAS  /tmp/ccV1nw4E.s 			page 8


 383              		.file 6 "/home/makkmarci/workspace/ChibiOS_2.6.8/os/kernel/include/chmempools.h"
 384              		.section	.debug_info,"",%progbits
 385              	.Ldebug_info0:
 386 0000 69020000 		.4byte	0x269
 387 0004 0400     		.2byte	0x4
 388 0006 00000000 		.4byte	.Ldebug_abbrev0
 389 000a 04       		.byte	0x4
 390 000b 01       		.uleb128 0x1
 391 000c 20000000 		.4byte	.LASF29
 392 0010 01       		.byte	0x1
 393 0011 16020000 		.4byte	.LASF30
 394 0015 00000000 		.4byte	.Ldebug_ranges0+0
 395 0019 00000000 		.4byte	0
 396 001d 00000000 		.4byte	.Ldebug_line0
 397 0021 02       		.uleb128 0x2
 398 0022 04       		.byte	0x4
 399 0023 05       		.byte	0x5
 400 0024 696E7400 		.ascii	"int\000"
 401 0028 03       		.uleb128 0x3
 402 0029 0A000000 		.4byte	.LASF2
 403 002d 02       		.byte	0x2
 404 002e D4       		.byte	0xd4
 405 002f 33000000 		.4byte	0x33
 406 0033 04       		.uleb128 0x4
 407 0034 04       		.byte	0x4
 408 0035 07       		.byte	0x7
 409 0036 C6010000 		.4byte	.LASF0
 410 003a 04       		.uleb128 0x4
 411 003b 01       		.byte	0x1
 412 003c 06       		.byte	0x6
 413 003d 91020000 		.4byte	.LASF1
 414 0041 03       		.uleb128 0x3
 415 0042 00000000 		.4byte	.LASF3
 416 0046 03       		.byte	0x3
 417 0047 1D       		.byte	0x1d
 418 0048 4C000000 		.4byte	0x4c
 419 004c 04       		.uleb128 0x4
 420 004d 01       		.byte	0x1
 421 004e 08       		.byte	0x8
 422 004f 90010000 		.4byte	.LASF4
 423 0053 04       		.uleb128 0x4
 424 0054 02       		.byte	0x2
 425 0055 05       		.byte	0x5
 426 0056 72020000 		.4byte	.LASF5
 427 005a 04       		.uleb128 0x4
 428 005b 02       		.byte	0x2
 429 005c 07       		.byte	0x7
 430 005d 68010000 		.4byte	.LASF6
 431 0061 04       		.uleb128 0x4
 432 0062 04       		.byte	0x4
 433 0063 05       		.byte	0x5
 434 0064 88020000 		.4byte	.LASF7
 435 0068 04       		.uleb128 0x4
 436 0069 04       		.byte	0x4
 437 006a 07       		.byte	0x7
 438 006b 56010000 		.4byte	.LASF8
 439 006f 04       		.uleb128 0x4
ARM GAS  /tmp/ccV1nw4E.s 			page 9


 440 0070 08       		.byte	0x8
 441 0071 05       		.byte	0x5
 442 0072 03020000 		.4byte	.LASF9
 443 0076 04       		.uleb128 0x4
 444 0077 08       		.byte	0x8
 445 0078 07       		.byte	0x7
 446 0079 D3010000 		.4byte	.LASF10
 447 007d 03       		.uleb128 0x3
 448 007e EA010000 		.4byte	.LASF11
 449 0082 04       		.byte	0x4
 450 0083 15       		.byte	0x15
 451 0084 41000000 		.4byte	0x41
 452 0088 04       		.uleb128 0x4
 453 0089 01       		.byte	0x1
 454 008a 02       		.byte	0x2
 455 008b A5020000 		.4byte	.LASF12
 456 008f 05       		.uleb128 0x5
 457 0090 04       		.byte	0x4
 458 0091 04       		.uleb128 0x4
 459 0092 04       		.byte	0x4
 460 0093 07       		.byte	0x7
 461 0094 FA010000 		.4byte	.LASF13
 462 0098 03       		.uleb128 0x3
 463 0099 59020000 		.4byte	.LASF14
 464 009d 05       		.byte	0x5
 465 009e 2C       		.byte	0x2c
 466 009f A3000000 		.4byte	0xa3
 467 00a3 06       		.uleb128 0x6
 468 00a4 04       		.byte	0x4
 469 00a5 A9000000 		.4byte	0xa9
 470 00a9 07       		.uleb128 0x7
 471 00aa 8F000000 		.4byte	0x8f
 472 00ae B8000000 		.4byte	0xb8
 473 00b2 08       		.uleb128 0x8
 474 00b3 28000000 		.4byte	0x28
 475 00b7 00       		.byte	0
 476 00b8 09       		.uleb128 0x9
 477 00b9 45010000 		.4byte	.LASF31
 478 00bd 04       		.byte	0x4
 479 00be 06       		.byte	0x6
 480 00bf 2C       		.byte	0x2c
 481 00c0 D1000000 		.4byte	0xd1
 482 00c4 0A       		.uleb128 0xa
 483 00c5 F2010000 		.4byte	.LASF15
 484 00c9 06       		.byte	0x6
 485 00ca 2D       		.byte	0x2d
 486 00cb D1000000 		.4byte	0xd1
 487 00cf 00       		.byte	0
 488 00d0 00       		.byte	0
 489 00d1 06       		.uleb128 0x6
 490 00d2 04       		.byte	0x4
 491 00d3 B8000000 		.4byte	0xb8
 492 00d7 0B       		.uleb128 0xb
 493 00d8 0C       		.byte	0xc
 494 00d9 06       		.byte	0x6
 495 00da 34       		.byte	0x34
 496 00db 04010000 		.4byte	0x104
ARM GAS  /tmp/ccV1nw4E.s 			page 10


 497 00df 0A       		.uleb128 0xa
 498 00e0 9D020000 		.4byte	.LASF16
 499 00e4 06       		.byte	0x6
 500 00e5 35       		.byte	0x35
 501 00e6 D1000000 		.4byte	0xd1
 502 00ea 00       		.byte	0
 503 00eb 0A       		.uleb128 0xa
 504 00ec 11000000 		.4byte	.LASF17
 505 00f0 06       		.byte	0x6
 506 00f1 36       		.byte	0x36
 507 00f2 28000000 		.4byte	0x28
 508 00f6 04       		.byte	0x4
 509 00f7 0A       		.uleb128 0xa
 510 00f8 66020000 		.4byte	.LASF18
 511 00fc 06       		.byte	0x6
 512 00fd 38       		.byte	0x38
 513 00fe 98000000 		.4byte	0x98
 514 0102 08       		.byte	0x8
 515 0103 00       		.byte	0
 516 0104 03       		.uleb128 0x3
 517 0105 A9010000 		.4byte	.LASF19
 518 0109 06       		.byte	0x6
 519 010a 3A       		.byte	0x3a
 520 010b D7000000 		.4byte	0xd7
 521 010f 04       		.uleb128 0x4
 522 0110 01       		.byte	0x1
 523 0111 08       		.byte	0x8
 524 0112 11020000 		.4byte	.LASF20
 525 0116 0C       		.uleb128 0xc
 526 0117 AB020000 		.4byte	.LASF23
 527 011b 01       		.byte	0x1
 528 011c 3E       		.byte	0x3e
 529 011d 00000000 		.4byte	.LFB0
 530 0121 38000000 		.4byte	.LFE0-.LFB0
 531 0125 01       		.uleb128 0x1
 532 0126 9C       		.byte	0x9c
 533 0127 55010000 		.4byte	0x155
 534 012b 0D       		.uleb128 0xd
 535 012c 6D7000   		.ascii	"mp\000"
 536 012f 01       		.byte	0x1
 537 0130 3E       		.byte	0x3e
 538 0131 55010000 		.4byte	0x155
 539 0135 02       		.uleb128 0x2
 540 0136 91       		.byte	0x91
 541 0137 74       		.sleb128 -12
 542 0138 0E       		.uleb128 0xe
 543 0139 51010000 		.4byte	.LASF21
 544 013d 01       		.byte	0x1
 545 013e 3E       		.byte	0x3e
 546 013f 28000000 		.4byte	0x28
 547 0143 02       		.uleb128 0x2
 548 0144 91       		.byte	0x91
 549 0145 70       		.sleb128 -16
 550 0146 0E       		.uleb128 0xe
 551 0147 7B010000 		.4byte	.LASF22
 552 014b 01       		.byte	0x1
 553 014c 3E       		.byte	0x3e
ARM GAS  /tmp/ccV1nw4E.s 			page 11


 554 014d 98000000 		.4byte	0x98
 555 0151 02       		.uleb128 0x2
 556 0152 91       		.byte	0x91
 557 0153 6C       		.sleb128 -20
 558 0154 00       		.byte	0
 559 0155 06       		.uleb128 0x6
 560 0156 04       		.byte	0x4
 561 0157 04010000 		.4byte	0x104
 562 015b 0C       		.uleb128 0xc
 563 015c 35010000 		.4byte	.LASF24
 564 0160 01       		.byte	0x1
 565 0161 54       		.byte	0x54
 566 0162 00000000 		.4byte	.LFB1
 567 0166 48000000 		.4byte	.LFE1-.LFB1
 568 016a 01       		.uleb128 0x1
 569 016b 9C       		.byte	0x9c
 570 016c 96010000 		.4byte	0x196
 571 0170 0D       		.uleb128 0xd
 572 0171 6D7000   		.ascii	"mp\000"
 573 0174 01       		.byte	0x1
 574 0175 54       		.byte	0x54
 575 0176 55010000 		.4byte	0x155
 576 017a 02       		.uleb128 0x2
 577 017b 91       		.byte	0x91
 578 017c 74       		.sleb128 -12
 579 017d 0D       		.uleb128 0xd
 580 017e 7000     		.ascii	"p\000"
 581 0180 01       		.byte	0x1
 582 0181 54       		.byte	0x54
 583 0182 8F000000 		.4byte	0x8f
 584 0186 02       		.uleb128 0x2
 585 0187 91       		.byte	0x91
 586 0188 70       		.sleb128 -16
 587 0189 0D       		.uleb128 0xd
 588 018a 6E00     		.ascii	"n\000"
 589 018c 01       		.byte	0x1
 590 018d 54       		.byte	0x54
 591 018e 28000000 		.4byte	0x28
 592 0192 02       		.uleb128 0x2
 593 0193 91       		.byte	0x91
 594 0194 6C       		.sleb128 -20
 595 0195 00       		.byte	0
 596 0196 0F       		.uleb128 0xf
 597 0197 B9010000 		.4byte	.LASF25
 598 019b 01       		.byte	0x1
 599 019c 69       		.byte	0x69
 600 019d 8F000000 		.4byte	0x8f
 601 01a1 00000000 		.4byte	.LFB2
 602 01a5 50000000 		.4byte	.LFE2-.LFB2
 603 01a9 01       		.uleb128 0x1
 604 01aa 9C       		.byte	0x9c
 605 01ab CB010000 		.4byte	0x1cb
 606 01af 0D       		.uleb128 0xd
 607 01b0 6D7000   		.ascii	"mp\000"
 608 01b3 01       		.byte	0x1
 609 01b4 69       		.byte	0x69
 610 01b5 55010000 		.4byte	0x155
ARM GAS  /tmp/ccV1nw4E.s 			page 12


 611 01b9 02       		.uleb128 0x2
 612 01ba 91       		.byte	0x91
 613 01bb 6C       		.sleb128 -20
 614 01bc 10       		.uleb128 0x10
 615 01bd B4010000 		.4byte	.LASF27
 616 01c1 01       		.byte	0x1
 617 01c2 6A       		.byte	0x6a
 618 01c3 8F000000 		.4byte	0x8f
 619 01c7 02       		.uleb128 0x2
 620 01c8 91       		.byte	0x91
 621 01c9 74       		.sleb128 -12
 622 01ca 00       		.byte	0
 623 01cb 0F       		.uleb128 0xf
 624 01cc 7C020000 		.4byte	.LASF26
 625 01d0 01       		.byte	0x1
 626 01d1 80       		.byte	0x80
 627 01d2 8F000000 		.4byte	0x8f
 628 01d6 00000000 		.4byte	.LFB3
 629 01da 20000000 		.4byte	.LFE3-.LFB3
 630 01de 01       		.uleb128 0x1
 631 01df 9C       		.byte	0x9c
 632 01e0 00020000 		.4byte	0x200
 633 01e4 0D       		.uleb128 0xd
 634 01e5 6D7000   		.ascii	"mp\000"
 635 01e8 01       		.byte	0x1
 636 01e9 80       		.byte	0x80
 637 01ea 55010000 		.4byte	0x155
 638 01ee 02       		.uleb128 0x2
 639 01ef 91       		.byte	0x91
 640 01f0 6C       		.sleb128 -20
 641 01f1 10       		.uleb128 0x10
 642 01f2 B4010000 		.4byte	.LASF27
 643 01f6 01       		.byte	0x1
 644 01f7 81       		.byte	0x81
 645 01f8 8F000000 		.4byte	0x8f
 646 01fc 02       		.uleb128 0x2
 647 01fd 91       		.byte	0x91
 648 01fe 74       		.sleb128 -12
 649 01ff 00       		.byte	0
 650 0200 0C       		.uleb128 0xc
 651 0201 84010000 		.4byte	.LASF28
 652 0205 01       		.byte	0x1
 653 0206 95       		.byte	0x95
 654 0207 00000000 		.4byte	.LFB4
 655 020b 38000000 		.4byte	.LFE4-.LFB4
 656 020f 01       		.uleb128 0x1
 657 0210 9C       		.byte	0x9c
 658 0211 3F020000 		.4byte	0x23f
 659 0215 0D       		.uleb128 0xd
 660 0216 6D7000   		.ascii	"mp\000"
 661 0219 01       		.byte	0x1
 662 021a 95       		.byte	0x95
 663 021b 55010000 		.4byte	0x155
 664 021f 02       		.uleb128 0x2
 665 0220 91       		.byte	0x91
 666 0221 6C       		.sleb128 -20
 667 0222 0E       		.uleb128 0xe
ARM GAS  /tmp/ccV1nw4E.s 			page 13


 668 0223 B4010000 		.4byte	.LASF27
 669 0227 01       		.byte	0x1
 670 0228 95       		.byte	0x95
 671 0229 8F000000 		.4byte	0x8f
 672 022d 02       		.uleb128 0x2
 673 022e 91       		.byte	0x91
 674 022f 68       		.sleb128 -24
 675 0230 11       		.uleb128 0x11
 676 0231 70687000 		.ascii	"php\000"
 677 0235 01       		.byte	0x1
 678 0236 96       		.byte	0x96
 679 0237 D1000000 		.4byte	0xd1
 680 023b 02       		.uleb128 0x2
 681 023c 91       		.byte	0x91
 682 023d 74       		.sleb128 -12
 683 023e 00       		.byte	0
 684 023f 12       		.uleb128 0x12
 685 0240 9E010000 		.4byte	.LASF32
 686 0244 01       		.byte	0x1
 687 0245 AB       		.byte	0xab
 688 0246 00000000 		.4byte	.LFB5
 689 024a 1E000000 		.4byte	.LFE5-.LFB5
 690 024e 01       		.uleb128 0x1
 691 024f 9C       		.byte	0x9c
 692 0250 0D       		.uleb128 0xd
 693 0251 6D7000   		.ascii	"mp\000"
 694 0254 01       		.byte	0x1
 695 0255 AB       		.byte	0xab
 696 0256 55010000 		.4byte	0x155
 697 025a 02       		.uleb128 0x2
 698 025b 91       		.byte	0x91
 699 025c 74       		.sleb128 -12
 700 025d 0E       		.uleb128 0xe
 701 025e B4010000 		.4byte	.LASF27
 702 0262 01       		.byte	0x1
 703 0263 AB       		.byte	0xab
 704 0264 8F000000 		.4byte	0x8f
 705 0268 02       		.uleb128 0x2
 706 0269 91       		.byte	0x91
 707 026a 70       		.sleb128 -16
 708 026b 00       		.byte	0
 709 026c 00       		.byte	0
 710              		.section	.debug_abbrev,"",%progbits
 711              	.Ldebug_abbrev0:
 712 0000 01       		.uleb128 0x1
 713 0001 11       		.uleb128 0x11
 714 0002 01       		.byte	0x1
 715 0003 25       		.uleb128 0x25
 716 0004 0E       		.uleb128 0xe
 717 0005 13       		.uleb128 0x13
 718 0006 0B       		.uleb128 0xb
 719 0007 03       		.uleb128 0x3
 720 0008 0E       		.uleb128 0xe
 721 0009 55       		.uleb128 0x55
 722 000a 17       		.uleb128 0x17
 723 000b 11       		.uleb128 0x11
 724 000c 01       		.uleb128 0x1
ARM GAS  /tmp/ccV1nw4E.s 			page 14


 725 000d 10       		.uleb128 0x10
 726 000e 17       		.uleb128 0x17
 727 000f 00       		.byte	0
 728 0010 00       		.byte	0
 729 0011 02       		.uleb128 0x2
 730 0012 24       		.uleb128 0x24
 731 0013 00       		.byte	0
 732 0014 0B       		.uleb128 0xb
 733 0015 0B       		.uleb128 0xb
 734 0016 3E       		.uleb128 0x3e
 735 0017 0B       		.uleb128 0xb
 736 0018 03       		.uleb128 0x3
 737 0019 08       		.uleb128 0x8
 738 001a 00       		.byte	0
 739 001b 00       		.byte	0
 740 001c 03       		.uleb128 0x3
 741 001d 16       		.uleb128 0x16
 742 001e 00       		.byte	0
 743 001f 03       		.uleb128 0x3
 744 0020 0E       		.uleb128 0xe
 745 0021 3A       		.uleb128 0x3a
 746 0022 0B       		.uleb128 0xb
 747 0023 3B       		.uleb128 0x3b
 748 0024 0B       		.uleb128 0xb
 749 0025 49       		.uleb128 0x49
 750 0026 13       		.uleb128 0x13
 751 0027 00       		.byte	0
 752 0028 00       		.byte	0
 753 0029 04       		.uleb128 0x4
 754 002a 24       		.uleb128 0x24
 755 002b 00       		.byte	0
 756 002c 0B       		.uleb128 0xb
 757 002d 0B       		.uleb128 0xb
 758 002e 3E       		.uleb128 0x3e
 759 002f 0B       		.uleb128 0xb
 760 0030 03       		.uleb128 0x3
 761 0031 0E       		.uleb128 0xe
 762 0032 00       		.byte	0
 763 0033 00       		.byte	0
 764 0034 05       		.uleb128 0x5
 765 0035 0F       		.uleb128 0xf
 766 0036 00       		.byte	0
 767 0037 0B       		.uleb128 0xb
 768 0038 0B       		.uleb128 0xb
 769 0039 00       		.byte	0
 770 003a 00       		.byte	0
 771 003b 06       		.uleb128 0x6
 772 003c 0F       		.uleb128 0xf
 773 003d 00       		.byte	0
 774 003e 0B       		.uleb128 0xb
 775 003f 0B       		.uleb128 0xb
 776 0040 49       		.uleb128 0x49
 777 0041 13       		.uleb128 0x13
 778 0042 00       		.byte	0
 779 0043 00       		.byte	0
 780 0044 07       		.uleb128 0x7
 781 0045 15       		.uleb128 0x15
ARM GAS  /tmp/ccV1nw4E.s 			page 15


 782 0046 01       		.byte	0x1
 783 0047 27       		.uleb128 0x27
 784 0048 19       		.uleb128 0x19
 785 0049 49       		.uleb128 0x49
 786 004a 13       		.uleb128 0x13
 787 004b 01       		.uleb128 0x1
 788 004c 13       		.uleb128 0x13
 789 004d 00       		.byte	0
 790 004e 00       		.byte	0
 791 004f 08       		.uleb128 0x8
 792 0050 05       		.uleb128 0x5
 793 0051 00       		.byte	0
 794 0052 49       		.uleb128 0x49
 795 0053 13       		.uleb128 0x13
 796 0054 00       		.byte	0
 797 0055 00       		.byte	0
 798 0056 09       		.uleb128 0x9
 799 0057 13       		.uleb128 0x13
 800 0058 01       		.byte	0x1
 801 0059 03       		.uleb128 0x3
 802 005a 0E       		.uleb128 0xe
 803 005b 0B       		.uleb128 0xb
 804 005c 0B       		.uleb128 0xb
 805 005d 3A       		.uleb128 0x3a
 806 005e 0B       		.uleb128 0xb
 807 005f 3B       		.uleb128 0x3b
 808 0060 0B       		.uleb128 0xb
 809 0061 01       		.uleb128 0x1
 810 0062 13       		.uleb128 0x13
 811 0063 00       		.byte	0
 812 0064 00       		.byte	0
 813 0065 0A       		.uleb128 0xa
 814 0066 0D       		.uleb128 0xd
 815 0067 00       		.byte	0
 816 0068 03       		.uleb128 0x3
 817 0069 0E       		.uleb128 0xe
 818 006a 3A       		.uleb128 0x3a
 819 006b 0B       		.uleb128 0xb
 820 006c 3B       		.uleb128 0x3b
 821 006d 0B       		.uleb128 0xb
 822 006e 49       		.uleb128 0x49
 823 006f 13       		.uleb128 0x13
 824 0070 38       		.uleb128 0x38
 825 0071 0B       		.uleb128 0xb
 826 0072 00       		.byte	0
 827 0073 00       		.byte	0
 828 0074 0B       		.uleb128 0xb
 829 0075 13       		.uleb128 0x13
 830 0076 01       		.byte	0x1
 831 0077 0B       		.uleb128 0xb
 832 0078 0B       		.uleb128 0xb
 833 0079 3A       		.uleb128 0x3a
 834 007a 0B       		.uleb128 0xb
 835 007b 3B       		.uleb128 0x3b
 836 007c 0B       		.uleb128 0xb
 837 007d 01       		.uleb128 0x1
 838 007e 13       		.uleb128 0x13
ARM GAS  /tmp/ccV1nw4E.s 			page 16


 839 007f 00       		.byte	0
 840 0080 00       		.byte	0
 841 0081 0C       		.uleb128 0xc
 842 0082 2E       		.uleb128 0x2e
 843 0083 01       		.byte	0x1
 844 0084 3F       		.uleb128 0x3f
 845 0085 19       		.uleb128 0x19
 846 0086 03       		.uleb128 0x3
 847 0087 0E       		.uleb128 0xe
 848 0088 3A       		.uleb128 0x3a
 849 0089 0B       		.uleb128 0xb
 850 008a 3B       		.uleb128 0x3b
 851 008b 0B       		.uleb128 0xb
 852 008c 27       		.uleb128 0x27
 853 008d 19       		.uleb128 0x19
 854 008e 11       		.uleb128 0x11
 855 008f 01       		.uleb128 0x1
 856 0090 12       		.uleb128 0x12
 857 0091 06       		.uleb128 0x6
 858 0092 40       		.uleb128 0x40
 859 0093 18       		.uleb128 0x18
 860 0094 9642     		.uleb128 0x2116
 861 0096 19       		.uleb128 0x19
 862 0097 01       		.uleb128 0x1
 863 0098 13       		.uleb128 0x13
 864 0099 00       		.byte	0
 865 009a 00       		.byte	0
 866 009b 0D       		.uleb128 0xd
 867 009c 05       		.uleb128 0x5
 868 009d 00       		.byte	0
 869 009e 03       		.uleb128 0x3
 870 009f 08       		.uleb128 0x8
 871 00a0 3A       		.uleb128 0x3a
 872 00a1 0B       		.uleb128 0xb
 873 00a2 3B       		.uleb128 0x3b
 874 00a3 0B       		.uleb128 0xb
 875 00a4 49       		.uleb128 0x49
 876 00a5 13       		.uleb128 0x13
 877 00a6 02       		.uleb128 0x2
 878 00a7 18       		.uleb128 0x18
 879 00a8 00       		.byte	0
 880 00a9 00       		.byte	0
 881 00aa 0E       		.uleb128 0xe
 882 00ab 05       		.uleb128 0x5
 883 00ac 00       		.byte	0
 884 00ad 03       		.uleb128 0x3
 885 00ae 0E       		.uleb128 0xe
 886 00af 3A       		.uleb128 0x3a
 887 00b0 0B       		.uleb128 0xb
 888 00b1 3B       		.uleb128 0x3b
 889 00b2 0B       		.uleb128 0xb
 890 00b3 49       		.uleb128 0x49
 891 00b4 13       		.uleb128 0x13
 892 00b5 02       		.uleb128 0x2
 893 00b6 18       		.uleb128 0x18
 894 00b7 00       		.byte	0
 895 00b8 00       		.byte	0
ARM GAS  /tmp/ccV1nw4E.s 			page 17


 896 00b9 0F       		.uleb128 0xf
 897 00ba 2E       		.uleb128 0x2e
 898 00bb 01       		.byte	0x1
 899 00bc 3F       		.uleb128 0x3f
 900 00bd 19       		.uleb128 0x19
 901 00be 03       		.uleb128 0x3
 902 00bf 0E       		.uleb128 0xe
 903 00c0 3A       		.uleb128 0x3a
 904 00c1 0B       		.uleb128 0xb
 905 00c2 3B       		.uleb128 0x3b
 906 00c3 0B       		.uleb128 0xb
 907 00c4 27       		.uleb128 0x27
 908 00c5 19       		.uleb128 0x19
 909 00c6 49       		.uleb128 0x49
 910 00c7 13       		.uleb128 0x13
 911 00c8 11       		.uleb128 0x11
 912 00c9 01       		.uleb128 0x1
 913 00ca 12       		.uleb128 0x12
 914 00cb 06       		.uleb128 0x6
 915 00cc 40       		.uleb128 0x40
 916 00cd 18       		.uleb128 0x18
 917 00ce 9642     		.uleb128 0x2116
 918 00d0 19       		.uleb128 0x19
 919 00d1 01       		.uleb128 0x1
 920 00d2 13       		.uleb128 0x13
 921 00d3 00       		.byte	0
 922 00d4 00       		.byte	0
 923 00d5 10       		.uleb128 0x10
 924 00d6 34       		.uleb128 0x34
 925 00d7 00       		.byte	0
 926 00d8 03       		.uleb128 0x3
 927 00d9 0E       		.uleb128 0xe
 928 00da 3A       		.uleb128 0x3a
 929 00db 0B       		.uleb128 0xb
 930 00dc 3B       		.uleb128 0x3b
 931 00dd 0B       		.uleb128 0xb
 932 00de 49       		.uleb128 0x49
 933 00df 13       		.uleb128 0x13
 934 00e0 02       		.uleb128 0x2
 935 00e1 18       		.uleb128 0x18
 936 00e2 00       		.byte	0
 937 00e3 00       		.byte	0
 938 00e4 11       		.uleb128 0x11
 939 00e5 34       		.uleb128 0x34
 940 00e6 00       		.byte	0
 941 00e7 03       		.uleb128 0x3
 942 00e8 08       		.uleb128 0x8
 943 00e9 3A       		.uleb128 0x3a
 944 00ea 0B       		.uleb128 0xb
 945 00eb 3B       		.uleb128 0x3b
 946 00ec 0B       		.uleb128 0xb
 947 00ed 49       		.uleb128 0x49
 948 00ee 13       		.uleb128 0x13
 949 00ef 02       		.uleb128 0x2
 950 00f0 18       		.uleb128 0x18
 951 00f1 00       		.byte	0
 952 00f2 00       		.byte	0
ARM GAS  /tmp/ccV1nw4E.s 			page 18


 953 00f3 12       		.uleb128 0x12
 954 00f4 2E       		.uleb128 0x2e
 955 00f5 01       		.byte	0x1
 956 00f6 3F       		.uleb128 0x3f
 957 00f7 19       		.uleb128 0x19
 958 00f8 03       		.uleb128 0x3
 959 00f9 0E       		.uleb128 0xe
 960 00fa 3A       		.uleb128 0x3a
 961 00fb 0B       		.uleb128 0xb
 962 00fc 3B       		.uleb128 0x3b
 963 00fd 0B       		.uleb128 0xb
 964 00fe 27       		.uleb128 0x27
 965 00ff 19       		.uleb128 0x19
 966 0100 11       		.uleb128 0x11
 967 0101 01       		.uleb128 0x1
 968 0102 12       		.uleb128 0x12
 969 0103 06       		.uleb128 0x6
 970 0104 40       		.uleb128 0x40
 971 0105 18       		.uleb128 0x18
 972 0106 9642     		.uleb128 0x2116
 973 0108 19       		.uleb128 0x19
 974 0109 00       		.byte	0
 975 010a 00       		.byte	0
 976 010b 00       		.byte	0
 977              		.section	.debug_aranges,"",%progbits
 978 0000 44000000 		.4byte	0x44
 979 0004 0200     		.2byte	0x2
 980 0006 00000000 		.4byte	.Ldebug_info0
 981 000a 04       		.byte	0x4
 982 000b 00       		.byte	0
 983 000c 0000     		.2byte	0
 984 000e 0000     		.2byte	0
 985 0010 00000000 		.4byte	.LFB0
 986 0014 38000000 		.4byte	.LFE0-.LFB0
 987 0018 00000000 		.4byte	.LFB1
 988 001c 48000000 		.4byte	.LFE1-.LFB1
 989 0020 00000000 		.4byte	.LFB2
 990 0024 50000000 		.4byte	.LFE2-.LFB2
 991 0028 00000000 		.4byte	.LFB3
 992 002c 20000000 		.4byte	.LFE3-.LFB3
 993 0030 00000000 		.4byte	.LFB4
 994 0034 38000000 		.4byte	.LFE4-.LFB4
 995 0038 00000000 		.4byte	.LFB5
 996 003c 1E000000 		.4byte	.LFE5-.LFB5
 997 0040 00000000 		.4byte	0
 998 0044 00000000 		.4byte	0
 999              		.section	.debug_ranges,"",%progbits
 1000              	.Ldebug_ranges0:
 1001 0000 00000000 		.4byte	.LFB0
 1002 0004 38000000 		.4byte	.LFE0
 1003 0008 00000000 		.4byte	.LFB1
 1004 000c 48000000 		.4byte	.LFE1
 1005 0010 00000000 		.4byte	.LFB2
 1006 0014 50000000 		.4byte	.LFE2
 1007 0018 00000000 		.4byte	.LFB3
 1008 001c 20000000 		.4byte	.LFE3
 1009 0020 00000000 		.4byte	.LFB4
ARM GAS  /tmp/ccV1nw4E.s 			page 19


 1010 0024 38000000 		.4byte	.LFE4
 1011 0028 00000000 		.4byte	.LFB5
 1012 002c 1E000000 		.4byte	.LFE5
 1013 0030 00000000 		.4byte	0
 1014 0034 00000000 		.4byte	0
 1015              		.section	.debug_line,"",%progbits
 1016              	.Ldebug_line0:
 1017 0000 2C020000 		.section	.debug_str,"MS",%progbits,1
 1017      02007B01 
 1017      00000201 
 1017      FB0E0D00 
 1017      01010101 
 1018              	.LASF3:
 1019 0000 5F5F7569 		.ascii	"__uint8_t\000"
 1019      6E74385F 
 1019      7400
 1020              	.LASF2:
 1021 000a 73697A65 		.ascii	"size_t\000"
 1021      5F7400
 1022              	.LASF17:
 1023 0011 6D705F6F 		.ascii	"mp_object_size\000"
 1023      626A6563 
 1023      745F7369 
 1023      7A6500
 1024              	.LASF29:
 1025 0020 474E5520 		.ascii	"GNU C 4.9.3 20150303 (release) [ARM/embedded-4_9-br"
 1025      4320342E 
 1025      392E3320 
 1025      32303135 
 1025      30333033 
 1026 0053 616E6368 		.ascii	"anch revision 221220] -mcpu=cortex-m4 -mfloat-abi=h"
 1026      20726576 
 1026      6973696F 
 1026      6E203232 
 1026      31323230 
 1027 0086 61726420 		.ascii	"ard -mfpu=fpv4-sp-d16 -mno-thumb-interwork -mthumb "
 1027      2D6D6670 
 1027      753D6670 
 1027      76342D73 
 1027      702D6431 
 1028 00b9 2D676764 		.ascii	"-ggdb -fomit-frame-pointer -falign-functions=16 -ff"
 1028      62202D66 
 1028      6F6D6974 
 1028      2D667261 
 1028      6D652D70 
 1029 00ec 756E6374 		.ascii	"unction-sections -fdata-sections -fno-common -fsing"
 1029      696F6E2D 
 1029      73656374 
 1029      696F6E73 
 1029      202D6664 
 1030 011f 6C652D70 		.ascii	"le-precision-constant\000"
 1030      72656369 
 1030      73696F6E 
 1030      2D636F6E 
 1030      7374616E 
 1031              	.LASF24:
 1032 0135 6368506F 		.ascii	"chPoolLoadArray\000"
ARM GAS  /tmp/ccV1nw4E.s 			page 20


 1032      6F6C4C6F 
 1032      61644172 
 1032      72617900 
 1033              	.LASF31:
 1034 0145 706F6F6C 		.ascii	"pool_header\000"
 1034      5F686561 
 1034      64657200 
 1035              	.LASF21:
 1036 0151 73697A65 		.ascii	"size\000"
 1036      00
 1037              	.LASF8:
 1038 0156 6C6F6E67 		.ascii	"long unsigned int\000"
 1038      20756E73 
 1038      69676E65 
 1038      6420696E 
 1038      7400
 1039              	.LASF6:
 1040 0168 73686F72 		.ascii	"short unsigned int\000"
 1040      7420756E 
 1040      7369676E 
 1040      65642069 
 1040      6E7400
 1041              	.LASF22:
 1042 017b 70726F76 		.ascii	"provider\000"
 1042      69646572 
 1042      00
 1043              	.LASF28:
 1044 0184 6368506F 		.ascii	"chPoolFreeI\000"
 1044      6F6C4672 
 1044      65654900 
 1045              	.LASF4:
 1046 0190 756E7369 		.ascii	"unsigned char\000"
 1046      676E6564 
 1046      20636861 
 1046      7200
 1047              	.LASF32:
 1048 019e 6368506F 		.ascii	"chPoolFree\000"
 1048      6F6C4672 
 1048      656500
 1049              	.LASF19:
 1050 01a9 4D656D6F 		.ascii	"MemoryPool\000"
 1050      7279506F 
 1050      6F6C00
 1051              	.LASF27:
 1052 01b4 6F626A70 		.ascii	"objp\000"
 1052      00
 1053              	.LASF25:
 1054 01b9 6368506F 		.ascii	"chPoolAllocI\000"
 1054      6F6C416C 
 1054      6C6F6349 
 1054      00
 1055              	.LASF0:
 1056 01c6 756E7369 		.ascii	"unsigned int\000"
 1056      676E6564 
 1056      20696E74 
 1056      00
 1057              	.LASF10:
ARM GAS  /tmp/ccV1nw4E.s 			page 21


 1058 01d3 6C6F6E67 		.ascii	"long long unsigned int\000"
 1058      206C6F6E 
 1058      6720756E 
 1058      7369676E 
 1058      65642069 
 1059              	.LASF11:
 1060 01ea 75696E74 		.ascii	"uint8_t\000"
 1060      385F7400 
 1061              	.LASF15:
 1062 01f2 70685F6E 		.ascii	"ph_next\000"
 1062      65787400 
 1063              	.LASF13:
 1064 01fa 73697A65 		.ascii	"sizetype\000"
 1064      74797065 
 1064      00
 1065              	.LASF9:
 1066 0203 6C6F6E67 		.ascii	"long long int\000"
 1066      206C6F6E 
 1066      6720696E 
 1066      7400
 1067              	.LASF20:
 1068 0211 63686172 		.ascii	"char\000"
 1068      00
 1069              	.LASF30:
 1070 0216 2F686F6D 		.ascii	"/home/makkmarci/workspace/ChibiOS_2.6.8/os/kernel/s"
 1070      652F6D61 
 1070      6B6B6D61 
 1070      7263692F 
 1070      776F726B 
 1071 0249 72632F63 		.ascii	"rc/chmempools.c\000"
 1071      686D656D 
 1071      706F6F6C 
 1071      732E6300 
 1072              	.LASF14:
 1073 0259 6D656D67 		.ascii	"memgetfunc_t\000"
 1073      65746675 
 1073      6E635F74 
 1073      00
 1074              	.LASF18:
 1075 0266 6D705F70 		.ascii	"mp_provider\000"
 1075      726F7669 
 1075      64657200 
 1076              	.LASF5:
 1077 0272 73686F72 		.ascii	"short int\000"
 1077      7420696E 
 1077      7400
 1078              	.LASF26:
 1079 027c 6368506F 		.ascii	"chPoolAlloc\000"
 1079      6F6C416C 
 1079      6C6F6300 
 1080              	.LASF7:
 1081 0288 6C6F6E67 		.ascii	"long int\000"
 1081      20696E74 
 1081      00
 1082              	.LASF1:
 1083 0291 7369676E 		.ascii	"signed char\000"
 1083      65642063 
ARM GAS  /tmp/ccV1nw4E.s 			page 22


 1083      68617200 
 1084              	.LASF16:
 1085 029d 6D705F6E 		.ascii	"mp_next\000"
 1085      65787400 
 1086              	.LASF12:
 1087 02a5 5F426F6F 		.ascii	"_Bool\000"
 1087      6C00
 1088              	.LASF23:
 1089 02ab 6368506F 		.ascii	"chPoolInit\000"
 1089      6F6C496E 
 1089      697400
 1090              		.ident	"GCC: (GNU Tools for ARM Embedded Processors) 4.9.3 20150303 (release) [ARM/embedded-4_9-br
ARM GAS  /tmp/ccV1nw4E.s 			page 23


DEFINED SYMBOLS
                            *ABS*:00000000 chmempools.c
     /tmp/ccV1nw4E.s:21     .rodata:00000000 $d
     /tmp/ccV1nw4E.s:25     .text.chPoolInit:00000000 $t
     /tmp/ccV1nw4E.s:31     .text.chPoolInit:00000000 chPoolInit
     /tmp/ccV1nw4E.s:79     .text.chPoolInit:00000034 $d
     /tmp/ccV1nw4E.s:88     .text.chPoolLoadArray:00000000 $t
     /tmp/ccV1nw4E.s:94     .text.chPoolLoadArray:00000000 chPoolLoadArray
     /tmp/ccV1nw4E.s:342    .text.chPoolFree:00000000 chPoolFree
     /tmp/ccV1nw4E.s:151    .text.chPoolLoadArray:00000044 $d
     /tmp/ccV1nw4E.s:160    .text.chPoolAllocI:00000000 $t
     /tmp/ccV1nw4E.s:166    .text.chPoolAllocI:00000000 chPoolAllocI
     /tmp/ccV1nw4E.s:226    .text.chPoolAllocI:0000004c $d
     /tmp/ccV1nw4E.s:231    .text.chPoolAlloc:00000000 $t
     /tmp/ccV1nw4E.s:237    .text.chPoolAlloc:00000000 chPoolAlloc
     /tmp/ccV1nw4E.s:279    .text.chPoolFreeI:00000000 $t
     /tmp/ccV1nw4E.s:285    .text.chPoolFreeI:00000000 chPoolFreeI
     /tmp/ccV1nw4E.s:331    .text.chPoolFreeI:00000034 $d
     /tmp/ccV1nw4E.s:336    .text.chPoolFree:00000000 $t
                     .debug_frame:00000010 $d
     /tmp/ccV1nw4E.s:83     .text.chPoolInit:00000038 $t
     /tmp/ccV1nw4E.s:155    .text.chPoolLoadArray:00000048 $t
     /tmp/ccV1nw4E.s:335    .text.chPoolFreeI:00000038 $t

UNDEFINED SYMBOLS
chDbgPanic
_port_lock
_port_unlock
