ARM GAS  /tmp/cc8sJAS7.s 			page 1


   1              		.syntax unified
   2              		.cpu cortex-m4
   3              		.eabi_attribute 27, 3
   4              		.eabi_attribute 28, 1
   5              		.fpu fpv4-sp-d16
   6              		.eabi_attribute 20, 1
   7              		.eabi_attribute 21, 1
   8              		.eabi_attribute 23, 3
   9              		.eabi_attribute 24, 1
  10              		.eabi_attribute 25, 1
  11              		.eabi_attribute 26, 1
  12              		.eabi_attribute 30, 2
  13              		.eabi_attribute 34, 1
  14              		.eabi_attribute 18, 4
  15              		.thumb
  16              		.file	"chmtx.c"
  17              		.text
  18              	.Ltext0:
  19              		.cfi_sections	.debug_frame
  20              		.section	.text.chMtxInit,"ax",%progbits
  21              		.align	2
  22              		.p2align 4,,15
  23              		.global	chMtxInit
  24              		.thumb
  25              		.thumb_func
  26              		.type	chMtxInit, %function
  27              	chMtxInit:
  28              	.LFB0:
  29              		.file 1 "../../os/kernel/src/chmtx.c"
  30              		.loc 1 86 0
  31              		.cfi_startproc
  32              		@ args = 0, pretend = 0, frame = 0
  33              		@ frame_needed = 0, uses_anonymous_args = 0
  34              	.LVL0:
  35 0000 10B5     		push	{r4, lr}
  36              		.cfi_def_cfa_offset 8
  37              		.cfi_offset 4, -8
  38              		.cfi_offset 14, -4
  39              		.loc 1 88 0
  40 0002 0446     		mov	r4, r0
  41 0004 20B1     		cbz	r0, .L4
  42              	.LVL1:
  43              	.L2:
  44              		.loc 1 91 0
  45 0006 0023     		movs	r3, #0
  46              		.loc 1 90 0
  47 0008 6460     		str	r4, [r4, #4]
  48 000a 2460     		str	r4, [r4]
  49              		.loc 1 91 0
  50 000c A360     		str	r3, [r4, #8]
  51 000e 10BD     		pop	{r4, pc}
  52              	.LVL2:
  53              	.L4:
  54              		.loc 1 88 0 discriminator 1
  55 0010 0148     		ldr	r0, .L5
  56              	.LVL3:
  57 0012 FFF7FEFF 		bl	chDbgPanic
ARM GAS  /tmp/cc8sJAS7.s 			page 2


  58              	.LVL4:
  59 0016 F6E7     		b	.L2
  60              	.L6:
  61              		.align	2
  62              	.L5:
  63 0018 00000000 		.word	.LC0
  64              		.cfi_endproc
  65              	.LFE0:
  66              		.size	chMtxInit, .-chMtxInit
  67 001c AFF30080 		.section	.text.chMtxLockS,"ax",%progbits
  68              		.align	2
  69              		.p2align 4,,15
  70              		.global	chMtxLockS
  71              		.thumb
  72              		.thumb_func
  73              		.type	chMtxLockS, %function
  74              	chMtxLockS:
  75              	.LFB2:
  76              		.loc 1 121 0
  77              		.cfi_startproc
  78              		@ args = 0, pretend = 0, frame = 0
  79              		@ frame_needed = 0, uses_anonymous_args = 0
  80              	.LVL5:
  81              		.loc 1 122 0
  82 0000 274B     		ldr	r3, .L21
  83              		.loc 1 121 0
  84 0002 70B5     		push	{r4, r5, r6, lr}
  85              		.cfi_def_cfa_offset 16
  86              		.cfi_offset 4, -16
  87              		.cfi_offset 5, -12
  88              		.cfi_offset 6, -8
  89              		.cfi_offset 14, -4
  90              		.loc 1 125 0
  91 0004 0546     		mov	r5, r0
  92              		.loc 1 122 0
  93 0006 9E69     		ldr	r6, [r3, #24]
  94              	.LVL6:
  95              		.loc 1 125 0
  96 0008 0028     		cmp	r0, #0
  97 000a 45D0     		beq	.L19
  98              	.LVL7:
  99              	.L8:
 100              		.loc 1 128 0
 101 000c AC68     		ldr	r4, [r5, #8]
 102 000e 54B3     		cbz	r4, .L9
 103              	.LVL8:
 104              	.LBB2:
 105              		.loc 1 135 0 discriminator 1
 106 0010 B268     		ldr	r2, [r6, #8]
 107 0012 A368     		ldr	r3, [r4, #8]
 108 0014 9342     		cmp	r3, r2
 109 0016 07D2     		bcs	.L11
 110              	.L16:
 111              		.loc 1 139 0
 112 0018 94F82030 		ldrb	r3, [r4, #32]	@ zero_extendqisi2
 113              		.loc 1 137 0
 114 001c A260     		str	r2, [r4, #8]
ARM GAS  /tmp/cc8sJAS7.s 			page 3


 115              		.loc 1 139 0
 116 001e 042B     		cmp	r3, #4
 117 0020 2DD0     		beq	.L12
 118 0022 052B     		cmp	r3, #5
 119 0024 24D0     		beq	.L13
 120 0026 ABB1     		cbz	r3, .L20
 121              	.L11:
 122              		.loc 1 173 0
 123 0028 3046     		mov	r0, r6
 124 002a 2946     		mov	r1, r5
 125 002c FFF7FEFF 		bl	prio_insert
 126              	.LVL9:
 127              		.loc 1 174 0
 128 0030 B562     		str	r5, [r6, #40]
 129              		.loc 1 175 0
 130 0032 0420     		movs	r0, #4
 131 0034 FFF7FEFF 		bl	chSchGoSleepS
 132              	.LVL10:
 133              		.loc 1 178 0
 134 0038 AB68     		ldr	r3, [r5, #8]
 135 003a B342     		cmp	r3, r6
 136 003c 02D0     		beq	.L17
 137              		.loc 1 178 0 is_stmt 0 discriminator 1
 138 003e 1948     		ldr	r0, .L21+4
 139 0040 FFF7FEFF 		bl	chDbgPanic
 140              	.LVL11:
 141              	.L17:
 142              		.loc 1 179 0 is_stmt 1
 143 0044 336C     		ldr	r3, [r6, #64]
 144 0046 AB42     		cmp	r3, r5
 145 0048 11D0     		beq	.L7
 146              		.loc 1 179 0 is_stmt 0 discriminator 1
 147 004a 1748     		ldr	r0, .L21+8
 148              	.LBE2:
 149              		.loc 1 187 0 is_stmt 1 discriminator 1
 150 004c BDE87040 		pop	{r4, r5, r6, lr}
 151              	.LVL12:
 152              	.LBB3:
 153              		.loc 1 179 0 discriminator 1
 154 0050 FFF7FEBF 		b	chDbgPanic
 155              	.LVL13:
 156              	.L20:
 157              		.loc 1 164 0
 158 0054 0123     		movs	r3, #1
 159 0056 84F82030 		strb	r3, [r4, #32]
 160              		.loc 1 167 0
 161 005a 2046     		mov	r0, r4
 162 005c FFF7FEFF 		bl	dequeue
 163              	.LVL14:
 164 0060 FFF7FEFF 		bl	chSchReadyI
 165              	.LVL15:
 166              		.loc 1 168 0
 167 0064 E0E7     		b	.L11
 168              	.LVL16:
 169              	.L9:
 170              	.LBE3:
 171              		.loc 1 184 0
ARM GAS  /tmp/cc8sJAS7.s 			page 4


 172 0066 336C     		ldr	r3, [r6, #64]
 173 0068 EB60     		str	r3, [r5, #12]
 174              		.loc 1 183 0
 175 006a AE60     		str	r6, [r5, #8]
 176              		.loc 1 185 0
 177 006c 3564     		str	r5, [r6, #64]
 178              	.L7:
 179 006e 70BD     		pop	{r4, r5, r6, pc}
 180              	.LVL17:
 181              	.L13:
 182              	.LBB4:
 183              		.loc 1 158 0
 184 0070 2046     		mov	r0, r4
 185 0072 FFF7FEFF 		bl	dequeue
 186              	.LVL18:
 187 0076 A16A     		ldr	r1, [r4, #40]
 188 0078 FFF7FEFF 		bl	prio_insert
 189              	.LVL19:
 190              		.loc 1 159 0
 191 007c D4E7     		b	.L11
 192              	.L12:
 193              		.loc 1 142 0
 194 007e 2046     		mov	r0, r4
 195 0080 FFF7FEFF 		bl	dequeue
 196              	.LVL20:
 197 0084 A16A     		ldr	r1, [r4, #40]
 198 0086 FFF7FEFF 		bl	prio_insert
 199              	.LVL21:
 200              		.loc 1 143 0
 201 008a A36A     		ldr	r3, [r4, #40]
 202              		.loc 1 135 0
 203 008c B268     		ldr	r2, [r6, #8]
 204              		.loc 1 143 0
 205 008e 9C68     		ldr	r4, [r3, #8]
 206              	.LVL22:
 207              		.loc 1 135 0
 208 0090 A368     		ldr	r3, [r4, #8]
 209 0092 9342     		cmp	r3, r2
 210 0094 C0D3     		bcc	.L16
 211 0096 C7E7     		b	.L11
 212              	.LVL23:
 213              	.L19:
 214              	.LBE4:
 215              		.loc 1 125 0 discriminator 1
 216 0098 0448     		ldr	r0, .L21+12
 217              	.LVL24:
 218 009a FFF7FEFF 		bl	chDbgPanic
 219              	.LVL25:
 220 009e B5E7     		b	.L8
 221              	.L22:
 222              		.align	2
 223              	.L21:
 224 00a0 00000000 		.word	rlist
 225 00a4 20000000 		.word	.LC2
 226 00a8 34000000 		.word	.LC3
 227 00ac 10000000 		.word	.LC1
 228              		.cfi_endproc
ARM GAS  /tmp/cc8sJAS7.s 			page 5


 229              	.LFE2:
 230              		.size	chMtxLockS, .-chMtxLockS
 231              		.section	.text.chMtxLock,"ax",%progbits
 232              		.align	2
 233              		.p2align 4,,15
 234              		.global	chMtxLock
 235              		.thumb
 236              		.thumb_func
 237              		.type	chMtxLock, %function
 238              	chMtxLock:
 239              	.LFB1:
 240              		.loc 1 103 0
 241              		.cfi_startproc
 242              		@ args = 0, pretend = 0, frame = 0
 243              		@ frame_needed = 0, uses_anonymous_args = 0
 244              	.LVL26:
 245 0000 08B5     		push	{r3, lr}
 246              		.cfi_def_cfa_offset 8
 247              		.cfi_offset 3, -8
 248              		.cfi_offset 14, -4
 249              		.loc 1 105 0
 250              	@ 105 "../../os/kernel/src/chmtx.c" 1
 251 0002 FFF7FEFF 		bl      _port_lock
 252              	@ 0 "" 2
 253              		.loc 1 107 0
 254              		.thumb
 255 0006 FFF7FEFF 		bl	chMtxLockS
 256              	.LVL27:
 257              		.loc 1 109 0
 258              	@ 109 "../../os/kernel/src/chmtx.c" 1
 259 000a FFF7FEFF 		bl      _port_unlock
 260              	@ 0 "" 2
 261              		.thumb
 262 000e 08BD     		pop	{r3, pc}
 263              		.cfi_endproc
 264              	.LFE1:
 265              		.size	chMtxLock, .-chMtxLock
 266              		.section	.text.chMtxTryLockS,"ax",%progbits
 267              		.align	2
 268              		.p2align 4,,15
 269              		.global	chMtxTryLockS
 270              		.thumb
 271              		.thumb_func
 272              		.type	chMtxTryLockS, %function
 273              	chMtxTryLockS:
 274              	.LFB4:
 275              		.loc 1 234 0
 276              		.cfi_startproc
 277              		@ args = 0, pretend = 0, frame = 0
 278              		@ frame_needed = 0, uses_anonymous_args = 0
 279              	.LVL28:
 280 0000 10B5     		push	{r4, lr}
 281              		.cfi_def_cfa_offset 8
 282              		.cfi_offset 4, -8
 283              		.cfi_offset 14, -4
 284              		.loc 1 237 0
 285 0002 0446     		mov	r4, r0
ARM GAS  /tmp/cc8sJAS7.s 			page 6


 286 0004 58B1     		cbz	r0, .L28
 287              	.LVL29:
 288              	.L25:
 289              		.loc 1 239 0
 290 0006 A368     		ldr	r3, [r4, #8]
 291 0008 0BB1     		cbz	r3, .L29
 292              		.loc 1 240 0
 293 000a 0020     		movs	r0, #0
 294              		.loc 1 245 0
 295 000c 10BD     		pop	{r4, pc}
 296              	.LVL30:
 297              	.L29:
 298              		.loc 1 241 0
 299 000e 064B     		ldr	r3, .L30
 300 0010 9B69     		ldr	r3, [r3, #24]
 301 0012 A360     		str	r3, [r4, #8]
 302              		.loc 1 242 0
 303 0014 1A6C     		ldr	r2, [r3, #64]
 304 0016 E260     		str	r2, [r4, #12]
 305              		.loc 1 244 0
 306 0018 0120     		movs	r0, #1
 307              		.loc 1 243 0
 308 001a 1C64     		str	r4, [r3, #64]
 309              		.loc 1 244 0
 310 001c 10BD     		pop	{r4, pc}
 311              	.LVL31:
 312              	.L28:
 313              		.loc 1 237 0 discriminator 1
 314 001e 0348     		ldr	r0, .L30+4
 315              	.LVL32:
 316 0020 FFF7FEFF 		bl	chDbgPanic
 317              	.LVL33:
 318 0024 EFE7     		b	.L25
 319              	.L31:
 320 0026 00BF     		.align	2
 321              	.L30:
 322 0028 00000000 		.word	rlist
 323 002c 48000000 		.word	.LC4
 324              		.cfi_endproc
 325              	.LFE4:
 326              		.size	chMtxTryLockS, .-chMtxTryLockS
 327              		.section	.text.chMtxTryLock,"ax",%progbits
 328              		.align	2
 329              		.p2align 4,,15
 330              		.global	chMtxTryLock
 331              		.thumb
 332              		.thumb_func
 333              		.type	chMtxTryLock, %function
 334              	chMtxTryLock:
 335              	.LFB3:
 336              		.loc 1 206 0
 337              		.cfi_startproc
 338              		@ args = 0, pretend = 0, frame = 0
 339              		@ frame_needed = 0, uses_anonymous_args = 0
 340              	.LVL34:
 341 0000 08B5     		push	{r3, lr}
 342              		.cfi_def_cfa_offset 8
ARM GAS  /tmp/cc8sJAS7.s 			page 7


 343              		.cfi_offset 3, -8
 344              		.cfi_offset 14, -4
 345              		.loc 1 209 0
 346              	@ 209 "../../os/kernel/src/chmtx.c" 1
 347 0002 FFF7FEFF 		bl      _port_lock
 348              	@ 0 "" 2
 349              		.loc 1 211 0
 350              		.thumb
 351 0006 FFF7FEFF 		bl	chMtxTryLockS
 352              	.LVL35:
 353              		.loc 1 213 0
 354              	@ 213 "../../os/kernel/src/chmtx.c" 1
 355 000a FFF7FEFF 		bl      _port_unlock
 356              	@ 0 "" 2
 357              		.loc 1 215 0
 358              		.thumb
 359 000e 08BD     		pop	{r3, pc}
 360              		.cfi_endproc
 361              	.LFE3:
 362              		.size	chMtxTryLock, .-chMtxTryLock
 363              		.section	.text.chMtxUnlock,"ax",%progbits
 364              		.align	2
 365              		.p2align 4,,15
 366              		.global	chMtxUnlock
 367              		.thumb
 368              		.thumb_func
 369              		.type	chMtxUnlock, %function
 370              	chMtxUnlock:
 371              	.LFB5:
 372              		.loc 1 257 0
 373              		.cfi_startproc
 374              		@ args = 0, pretend = 0, frame = 0
 375              		@ frame_needed = 0, uses_anonymous_args = 0
 376 0000 38B5     		push	{r3, r4, r5, lr}
 377              		.cfi_def_cfa_offset 16
 378              		.cfi_offset 3, -16
 379              		.cfi_offset 4, -12
 380              		.cfi_offset 5, -8
 381              		.cfi_offset 14, -4
 382              		.loc 1 258 0
 383 0002 1C4B     		ldr	r3, .L48
 384 0004 9D69     		ldr	r5, [r3, #24]
 385              	.LVL36:
 386              		.loc 1 261 0
 387              	@ 261 "../../os/kernel/src/chmtx.c" 1
 388 0006 FFF7FEFF 		bl      _port_lock
 389              	@ 0 "" 2
 390              		.loc 1 262 0
 391              		.thumb
 392 000a 2C6C     		ldr	r4, [r5, #64]
 393 000c 002C     		cmp	r4, #0
 394 000e 2CD0     		beq	.L47
 395              	.L34:
 396              		.loc 1 265 0
 397 0010 A368     		ldr	r3, [r4, #8]
 398 0012 AB42     		cmp	r3, r5
 399 0014 03D0     		beq	.L35
ARM GAS  /tmp/cc8sJAS7.s 			page 8


 400              		.loc 1 265 0 is_stmt 0 discriminator 1
 401 0016 1848     		ldr	r0, .L48+4
 402 0018 FFF7FEFF 		bl	chDbgPanic
 403              	.LVL37:
 404 001c 2C6C     		ldr	r4, [r5, #64]
 405              	.L35:
 406              	.LVL38:
 407              		.loc 1 273 0 is_stmt 1
 408 001e 2268     		ldr	r2, [r4]
 409              		.loc 1 271 0
 410 0020 E368     		ldr	r3, [r4, #12]
 411 0022 2B64     		str	r3, [r5, #64]
 412              		.loc 1 273 0
 413 0024 A242     		cmp	r2, r4
 414 0026 1AD0     		beq	.L36
 415              	.LBB5:
 416              		.loc 1 278 0
 417 0028 696C     		ldr	r1, [r5, #68]
 418              	.LVL39:
 419              		.loc 1 280 0
 420 002a 4BB1     		cbz	r3, .L37
 421              	.L39:
 422              		.loc 1 284 0
 423 002c 1A68     		ldr	r2, [r3]
 424 002e 9A42     		cmp	r2, r3
 425 0030 03D0     		beq	.L38
 426              		.loc 1 284 0 is_stmt 0 discriminator 1
 427 0032 9268     		ldr	r2, [r2, #8]
 428 0034 9142     		cmp	r1, r2
 429 0036 38BF     		it	cc
 430 0038 1146     		movcc	r1, r2
 431              	.LVL40:
 432              	.L38:
 433              		.loc 1 286 0 is_stmt 1
 434 003a DB68     		ldr	r3, [r3, #12]
 435              	.LVL41:
 436              		.loc 1 280 0
 437 003c 002B     		cmp	r3, #0
 438 003e F5D1     		bne	.L39
 439              	.L37:
 440              		.loc 1 290 0
 441 0040 A960     		str	r1, [r5, #8]
 442              		.loc 1 293 0
 443 0042 2046     		mov	r0, r4
 444 0044 FFF7FEFF 		bl	fifo_remove
 445              	.LVL42:
 446              		.loc 1 295 0
 447 0048 026C     		ldr	r2, [r0, #64]
 448              		.loc 1 294 0
 449 004a A060     		str	r0, [r4, #8]
 450              		.loc 1 295 0
 451 004c E260     		str	r2, [r4, #12]
 452              		.loc 1 297 0
 453 004e 0021     		movs	r1, #0
 454              		.loc 1 296 0
 455 0050 0464     		str	r4, [r0, #64]
 456              		.loc 1 297 0
ARM GAS  /tmp/cc8sJAS7.s 			page 9


 457 0052 FFF7FEFF 		bl	chSchWakeupS
 458              	.LVL43:
 459              	.LBE5:
 460              		.loc 1 301 0
 461              	@ 301 "../../os/kernel/src/chmtx.c" 1
 462 0056 FFF7FEFF 		bl      _port_unlock
 463              	@ 0 "" 2
 464              		.loc 1 303 0
 465              		.thumb
 466 005a 2046     		mov	r0, r4
 467 005c 38BD     		pop	{r3, r4, r5, pc}
 468              	.LVL44:
 469              	.L36:
 470              		.loc 1 300 0
 471 005e 0023     		movs	r3, #0
 472 0060 A360     		str	r3, [r4, #8]
 473              		.loc 1 301 0
 474              	@ 301 "../../os/kernel/src/chmtx.c" 1
 475 0062 FFF7FEFF 		bl      _port_unlock
 476              	@ 0 "" 2
 477              		.loc 1 303 0
 478              		.thumb
 479 0066 2046     		mov	r0, r4
 480 0068 38BD     		pop	{r3, r4, r5, pc}
 481              	.LVL45:
 482              	.L47:
 483              		.loc 1 262 0 discriminator 1
 484 006a 0448     		ldr	r0, .L48+8
 485 006c FFF7FEFF 		bl	chDbgPanic
 486              	.LVL46:
 487 0070 2C6C     		ldr	r4, [r5, #64]
 488 0072 CDE7     		b	.L34
 489              	.L49:
 490              		.align	2
 491              	.L48:
 492 0074 00000000 		.word	rlist
 493 0078 70000000 		.word	.LC6
 494 007c 5C000000 		.word	.LC5
 495              		.cfi_endproc
 496              	.LFE5:
 497              		.size	chMtxUnlock, .-chMtxUnlock
 498              		.section	.text.chMtxUnlockS,"ax",%progbits
 499              		.align	2
 500              		.p2align 4,,15
 501              		.global	chMtxUnlockS
 502              		.thumb
 503              		.thumb_func
 504              		.type	chMtxUnlockS, %function
 505              	chMtxUnlockS:
 506              	.LFB6:
 507              		.loc 1 317 0
 508              		.cfi_startproc
 509              		@ args = 0, pretend = 0, frame = 0
 510              		@ frame_needed = 0, uses_anonymous_args = 0
 511 0000 38B5     		push	{r3, r4, r5, lr}
 512              		.cfi_def_cfa_offset 16
 513              		.cfi_offset 3, -16
ARM GAS  /tmp/cc8sJAS7.s 			page 10


 514              		.cfi_offset 4, -12
 515              		.cfi_offset 5, -8
 516              		.cfi_offset 14, -4
 517              		.loc 1 318 0
 518 0002 194B     		ldr	r3, .L65
 519 0004 9D69     		ldr	r5, [r3, #24]
 520              	.LVL47:
 521              		.loc 1 322 0
 522 0006 2C6C     		ldr	r4, [r5, #64]
 523 0008 002C     		cmp	r4, #0
 524 000a 27D0     		beq	.L64
 525              	.L51:
 526              		.loc 1 325 0
 527 000c A368     		ldr	r3, [r4, #8]
 528 000e AB42     		cmp	r3, r5
 529 0010 03D0     		beq	.L52
 530              		.loc 1 325 0 is_stmt 0 discriminator 1
 531 0012 1648     		ldr	r0, .L65+4
 532 0014 FFF7FEFF 		bl	chDbgPanic
 533              	.LVL48:
 534 0018 2C6C     		ldr	r4, [r5, #64]
 535              	.L52:
 536              	.LVL49:
 537              		.loc 1 334 0 is_stmt 1
 538 001a 2268     		ldr	r2, [r4]
 539              		.loc 1 332 0
 540 001c E368     		ldr	r3, [r4, #12]
 541 001e 2B64     		str	r3, [r5, #64]
 542              		.loc 1 334 0
 543 0020 A242     		cmp	r2, r4
 544 0022 17D0     		beq	.L53
 545              	.LBB6:
 546              		.loc 1 339 0
 547 0024 696C     		ldr	r1, [r5, #68]
 548              	.LVL50:
 549              		.loc 1 341 0
 550 0026 4BB1     		cbz	r3, .L54
 551              	.L56:
 552              		.loc 1 345 0
 553 0028 1A68     		ldr	r2, [r3]
 554 002a 9A42     		cmp	r2, r3
 555 002c 03D0     		beq	.L55
 556              		.loc 1 345 0 is_stmt 0 discriminator 1
 557 002e 9268     		ldr	r2, [r2, #8]
 558 0030 9142     		cmp	r1, r2
 559 0032 38BF     		it	cc
 560 0034 1146     		movcc	r1, r2
 561              	.LVL51:
 562              	.L55:
 563              		.loc 1 347 0 is_stmt 1
 564 0036 DB68     		ldr	r3, [r3, #12]
 565              	.LVL52:
 566              		.loc 1 341 0
 567 0038 002B     		cmp	r3, #0
 568 003a F5D1     		bne	.L56
 569              	.L54:
 570              		.loc 1 349 0
ARM GAS  /tmp/cc8sJAS7.s 			page 11


 571 003c A960     		str	r1, [r5, #8]
 572              		.loc 1 352 0
 573 003e 2046     		mov	r0, r4
 574 0040 FFF7FEFF 		bl	fifo_remove
 575              	.LVL53:
 576              		.loc 1 354 0
 577 0044 026C     		ldr	r2, [r0, #64]
 578              		.loc 1 353 0
 579 0046 A060     		str	r0, [r4, #8]
 580              		.loc 1 354 0
 581 0048 E260     		str	r2, [r4, #12]
 582              		.loc 1 355 0
 583 004a 0464     		str	r4, [r0, #64]
 584              		.loc 1 356 0
 585 004c FFF7FEFF 		bl	chSchReadyI
 586              	.LVL54:
 587              	.LBE6:
 588              		.loc 1 361 0
 589 0050 2046     		mov	r0, r4
 590 0052 38BD     		pop	{r3, r4, r5, pc}
 591              	.LVL55:
 592              	.L53:
 593              		.loc 1 359 0
 594 0054 0023     		movs	r3, #0
 595 0056 A360     		str	r3, [r4, #8]
 596              		.loc 1 361 0
 597 0058 2046     		mov	r0, r4
 598 005a 38BD     		pop	{r3, r4, r5, pc}
 599              	.LVL56:
 600              	.L64:
 601              		.loc 1 322 0 discriminator 1
 602 005c 0448     		ldr	r0, .L65+8
 603 005e FFF7FEFF 		bl	chDbgPanic
 604              	.LVL57:
 605 0062 2C6C     		ldr	r4, [r5, #64]
 606 0064 D2E7     		b	.L51
 607              	.L66:
 608 0066 00BF     		.align	2
 609              	.L65:
 610 0068 00000000 		.word	rlist
 611 006c 98000000 		.word	.LC8
 612 0070 84000000 		.word	.LC7
 613              		.cfi_endproc
 614              	.LFE6:
 615              		.size	chMtxUnlockS, .-chMtxUnlockS
 616 0074 AFF30080 		.section	.text.chMtxUnlockAll,"ax",%progbits
 616      AFF30080 
 616      AFF30080 
 617              		.align	2
 618              		.p2align 4,,15
 619              		.global	chMtxUnlockAll
 620              		.thumb
 621              		.thumb_func
 622              		.type	chMtxUnlockAll, %function
 623              	chMtxUnlockAll:
 624              	.LFB7:
 625              		.loc 1 374 0
ARM GAS  /tmp/cc8sJAS7.s 			page 12


 626              		.cfi_startproc
 627              		@ args = 0, pretend = 0, frame = 0
 628              		@ frame_needed = 0, uses_anonymous_args = 0
 629              		.loc 1 375 0
 630 0000 114B     		ldr	r3, .L78
 631              		.loc 1 374 0
 632 0002 70B5     		push	{r4, r5, r6, lr}
 633              		.cfi_def_cfa_offset 16
 634              		.cfi_offset 4, -16
 635              		.cfi_offset 5, -12
 636              		.cfi_offset 6, -8
 637              		.cfi_offset 14, -4
 638              		.loc 1 375 0
 639 0004 9D69     		ldr	r5, [r3, #24]
 640              	.LVL58:
 641              		.loc 1 377 0
 642              	@ 377 "../../os/kernel/src/chmtx.c" 1
 643 0006 FFF7FEFF 		bl      _port_lock
 644              	@ 0 "" 2
 645              		.loc 1 378 0
 646              		.thumb
 647 000a 2C6C     		ldr	r4, [r5, #64]
 648 000c CCB1     		cbz	r4, .L68
 649              	.LBB7:
 650              		.loc 1 390 0
 651 000e 0026     		movs	r6, #0
 652 0010 09E0     		b	.L72
 653              	.LVL59:
 654              	.L77:
 655              	.LBB8:
 656              		.loc 1 383 0
 657 0012 FFF7FEFF 		bl	fifo_remove
 658              	.LVL60:
 659              		.loc 1 385 0
 660 0016 026C     		ldr	r2, [r0, #64]
 661              		.loc 1 384 0
 662 0018 A060     		str	r0, [r4, #8]
 663              		.loc 1 385 0
 664 001a E260     		str	r2, [r4, #12]
 665              		.loc 1 386 0
 666 001c 0464     		str	r4, [r0, #64]
 667              		.loc 1 387 0
 668 001e FFF7FEFF 		bl	chSchReadyI
 669              	.LVL61:
 670              	.LBE8:
 671              	.LBE7:
 672              		.loc 1 391 0
 673 0022 2C6C     		ldr	r4, [r5, #64]
 674              	.LVL62:
 675 0024 4CB1     		cbz	r4, .L76
 676              	.L72:
 677              	.LVL63:
 678              	.LBB10:
 679              		.loc 1 382 0
 680 0026 2268     		ldr	r2, [r4]
 681              		.loc 1 381 0
 682 0028 E368     		ldr	r3, [r4, #12]
ARM GAS  /tmp/cc8sJAS7.s 			page 13


 683 002a 2B64     		str	r3, [r5, #64]
 684              		.loc 1 382 0
 685 002c A242     		cmp	r2, r4
 686              	.LBB9:
 687              		.loc 1 383 0
 688 002e 2046     		mov	r0, r4
 689              	.LBE9:
 690              		.loc 1 382 0
 691 0030 EFD1     		bne	.L77
 692              		.loc 1 390 0
 693 0032 A660     		str	r6, [r4, #8]
 694              	.LBE10:
 695              		.loc 1 391 0
 696 0034 2C6C     		ldr	r4, [r5, #64]
 697              	.LVL64:
 698 0036 002C     		cmp	r4, #0
 699 0038 F5D1     		bne	.L72
 700              	.LVL65:
 701              	.L76:
 702              		.loc 1 392 0
 703 003a 6B6C     		ldr	r3, [r5, #68]
 704 003c AB60     		str	r3, [r5, #8]
 705              		.loc 1 393 0
 706 003e FFF7FEFF 		bl	chSchRescheduleS
 707              	.LVL66:
 708              	.L68:
 709              		.loc 1 395 0
 710              	@ 395 "../../os/kernel/src/chmtx.c" 1
 711 0042 FFF7FEFF 		bl      _port_unlock
 712              	@ 0 "" 2
 713              		.thumb
 714 0046 70BD     		pop	{r4, r5, r6, pc}
 715              	.LVL67:
 716              	.L79:
 717              		.align	2
 718              	.L78:
 719 0048 00000000 		.word	rlist
 720              		.cfi_endproc
 721              	.LFE7:
 722              		.size	chMtxUnlockAll, .-chMtxUnlockAll
 723 004c AFF30080 		.section	.rodata.str1.4,"aMS",%progbits,1
 724              		.align	2
 725              	.LC0:
 726 0000 2263684D 		.ascii	"\"chMtxInit\"()\000"
 726      7478496E 
 726      69742228 
 726      2900
 727 000e 0000     		.space	2
 728              	.LC1:
 729 0010 2263684D 		.ascii	"\"chMtxLockS\"()\000"
 729      74784C6F 
 729      636B5322 
 729      282900
 730 001f 00       		.space	1
 731              	.LC2:
 732 0020 63684D74 		.ascii	"chMtxLockS(), #1\000"
 732      784C6F63 
ARM GAS  /tmp/cc8sJAS7.s 			page 14


 732      6B532829 
 732      2C202331 
 732      00
 733 0031 000000   		.space	3
 734              	.LC3:
 735 0034 63684D74 		.ascii	"chMtxLockS(), #2\000"
 735      784C6F63 
 735      6B532829 
 735      2C202332 
 735      00
 736 0045 000000   		.space	3
 737              	.LC4:
 738 0048 2263684D 		.ascii	"\"chMtxTryLockS\"()\000"
 738      74785472 
 738      794C6F63 
 738      6B532228 
 738      2900
 739 005a 0000     		.space	2
 740              	.LC5:
 741 005c 63684D74 		.ascii	"chMtxUnlock(), #1\000"
 741      78556E6C 
 741      6F636B28 
 741      292C2023 
 741      3100
 742 006e 0000     		.space	2
 743              	.LC6:
 744 0070 63684D74 		.ascii	"chMtxUnlock(), #2\000"
 744      78556E6C 
 744      6F636B28 
 744      292C2023 
 744      3200
 745 0082 0000     		.space	2
 746              	.LC7:
 747 0084 63684D74 		.ascii	"chMtxUnlockS(), #1\000"
 747      78556E6C 
 747      6F636B53 
 747      28292C20 
 747      233100
 748 0097 00       		.space	1
 749              	.LC8:
 750 0098 63684D74 		.ascii	"chMtxUnlockS(), #2\000"
 750      78556E6C 
 750      6F636B53 
 750      28292C20 
 750      233200
 751 00ab 00       		.text
 752              	.Letext0:
 753              		.file 2 "/opt/ARM/arm-none-eabi/include/machine/_default_types.h"
 754              		.file 3 "/opt/ARM/arm-none-eabi/include/stdint.h"
 755              		.file 4 "../../os/ports/GCC/ARMCMx/chtypes.h"
 756              		.file 5 "../../os/kernel/include/chlists.h"
 757              		.file 6 "../../os/kernel/include/chthreads.h"
 758              		.file 7 "../../os/ports/GCC/ARMCMx/chcore_v7m.h"
 759              		.file 8 "../../os/kernel/include/chschd.h"
 760              		.file 9 "../../os/kernel/include/chmtx.h"
 761              		.file 10 "../../os/kernel/include/chdebug.h"
 762              		.section	.debug_info,"",%progbits
ARM GAS  /tmp/cc8sJAS7.s 			page 15


 763              	.Ldebug_info0:
 764 0000 A1090000 		.4byte	0x9a1
 765 0004 0400     		.2byte	0x4
 766 0006 00000000 		.4byte	.Ldebug_abbrev0
 767 000a 04       		.byte	0x4
 768 000b 01       		.uleb128 0x1
 769 000c AE020000 		.4byte	.LASF87
 770 0010 01       		.byte	0x1
 771 0011 09040000 		.4byte	.LASF88
 772 0015 4E000000 		.4byte	.LASF89
 773 0019 50000000 		.4byte	.Ldebug_ranges0+0x50
 774 001d 00000000 		.4byte	0
 775 0021 00000000 		.4byte	.Ldebug_line0
 776 0025 02       		.uleb128 0x2
 777 0026 04       		.byte	0x4
 778 0027 05       		.byte	0x5
 779 0028 696E7400 		.ascii	"int\000"
 780 002c 03       		.uleb128 0x3
 781 002d 04       		.byte	0x4
 782 002e 07       		.byte	0x7
 783 002f 3B010000 		.4byte	.LASF0
 784 0033 03       		.uleb128 0x3
 785 0034 01       		.byte	0x1
 786 0035 06       		.byte	0x6
 787 0036 AD000000 		.4byte	.LASF1
 788 003a 04       		.uleb128 0x4
 789 003b 21000000 		.4byte	.LASF5
 790 003f 02       		.byte	0x2
 791 0040 1C       		.byte	0x1c
 792 0041 45000000 		.4byte	0x45
 793 0045 03       		.uleb128 0x3
 794 0046 01       		.byte	0x1
 795 0047 08       		.byte	0x8
 796 0048 50020000 		.4byte	.LASF2
 797 004c 03       		.uleb128 0x3
 798 004d 02       		.byte	0x2
 799 004e 05       		.byte	0x5
 800 004f 68020000 		.4byte	.LASF3
 801 0053 03       		.uleb128 0x3
 802 0054 02       		.byte	0x2
 803 0055 07       		.byte	0x7
 804 0056 62010000 		.4byte	.LASF4
 805 005a 04       		.uleb128 0x4
 806 005b 4D040000 		.4byte	.LASF6
 807 005f 02       		.byte	0x2
 808 0060 37       		.byte	0x37
 809 0061 65000000 		.4byte	0x65
 810 0065 03       		.uleb128 0x3
 811 0066 04       		.byte	0x4
 812 0067 05       		.byte	0x5
 813 0068 DA000000 		.4byte	.LASF7
 814 006c 04       		.uleb128 0x4
 815 006d 1C010000 		.4byte	.LASF8
 816 0071 02       		.byte	0x2
 817 0072 38       		.byte	0x38
 818 0073 77000000 		.4byte	0x77
 819 0077 03       		.uleb128 0x3
ARM GAS  /tmp/cc8sJAS7.s 			page 16


 820 0078 04       		.byte	0x4
 821 0079 07       		.byte	0x7
 822 007a 48010000 		.4byte	.LASF9
 823 007e 03       		.uleb128 0x3
 824 007f 08       		.byte	0x8
 825 0080 05       		.byte	0x5
 826 0081 9F000000 		.4byte	.LASF10
 827 0085 04       		.uleb128 0x4
 828 0086 20020000 		.4byte	.LASF11
 829 008a 02       		.byte	0x2
 830 008b 4E       		.byte	0x4e
 831 008c 90000000 		.4byte	0x90
 832 0090 03       		.uleb128 0x3
 833 0091 08       		.byte	0x8
 834 0092 07       		.byte	0x7
 835 0093 2B000000 		.4byte	.LASF12
 836 0097 04       		.uleb128 0x4
 837 0098 AA040000 		.4byte	.LASF13
 838 009c 03       		.byte	0x3
 839 009d 2A       		.byte	0x2a
 840 009e 3A000000 		.4byte	0x3a
 841 00a2 04       		.uleb128 0x4
 842 00a3 48020000 		.4byte	.LASF14
 843 00a7 03       		.byte	0x3
 844 00a8 41       		.byte	0x41
 845 00a9 5A000000 		.4byte	0x5a
 846 00ad 04       		.uleb128 0x4
 847 00ae E7030000 		.4byte	.LASF15
 848 00b2 03       		.byte	0x3
 849 00b3 42       		.byte	0x42
 850 00b4 6C000000 		.4byte	0x6c
 851 00b8 04       		.uleb128 0x4
 852 00b9 18000000 		.4byte	.LASF16
 853 00bd 03       		.byte	0x3
 854 00be 4E       		.byte	0x4e
 855 00bf 85000000 		.4byte	0x85
 856 00c3 04       		.uleb128 0x4
 857 00c4 C1000000 		.4byte	.LASF17
 858 00c8 04       		.byte	0x4
 859 00c9 2B       		.byte	0x2b
 860 00ca CE000000 		.4byte	0xce
 861 00ce 03       		.uleb128 0x3
 862 00cf 01       		.byte	0x1
 863 00d0 02       		.byte	0x2
 864 00d1 42020000 		.4byte	.LASF18
 865 00d5 04       		.uleb128 0x4
 866 00d6 9A010000 		.4byte	.LASF19
 867 00da 04       		.byte	0x4
 868 00db 2C       		.byte	0x2c
 869 00dc 97000000 		.4byte	0x97
 870 00e0 04       		.uleb128 0x4
 871 00e1 E3000000 		.4byte	.LASF20
 872 00e5 04       		.byte	0x4
 873 00e6 2D       		.byte	0x2d
 874 00e7 97000000 		.4byte	0x97
 875 00eb 04       		.uleb128 0x4
 876 00ec 2B020000 		.4byte	.LASF21
ARM GAS  /tmp/cc8sJAS7.s 			page 17


 877 00f0 04       		.byte	0x4
 878 00f1 2E       		.byte	0x2e
 879 00f2 97000000 		.4byte	0x97
 880 00f6 04       		.uleb128 0x4
 881 00f7 D0000000 		.4byte	.LASF22
 882 00fb 04       		.byte	0x4
 883 00fc 2F       		.byte	0x2f
 884 00fd 97000000 		.4byte	0x97
 885 0101 04       		.uleb128 0x4
 886 0102 3A020000 		.4byte	.LASF23
 887 0106 04       		.byte	0x4
 888 0107 30       		.byte	0x30
 889 0108 AD000000 		.4byte	0xad
 890 010c 04       		.uleb128 0x4
 891 010d 75010000 		.4byte	.LASF24
 892 0111 04       		.byte	0x4
 893 0112 31       		.byte	0x31
 894 0113 A2000000 		.4byte	0xa2
 895 0117 04       		.uleb128 0x4
 896 0118 AE010000 		.4byte	.LASF25
 897 011c 04       		.byte	0x4
 898 011d 33       		.byte	0x33
 899 011e AD000000 		.4byte	0xad
 900 0122 04       		.uleb128 0x4
 901 0123 38040000 		.4byte	.LASF26
 902 0127 04       		.byte	0x4
 903 0128 35       		.byte	0x35
 904 0129 AD000000 		.4byte	0xad
 905 012d 04       		.uleb128 0x4
 906 012e C7030000 		.4byte	.LASF27
 907 0132 05       		.byte	0x5
 908 0133 2A       		.byte	0x2a
 909 0134 38010000 		.4byte	0x138
 910 0138 05       		.uleb128 0x5
 911 0139 C7030000 		.4byte	.LASF27
 912 013d 4C       		.byte	0x4c
 913 013e 06       		.byte	0x6
 914 013f 5E       		.byte	0x5e
 915 0140 41020000 		.4byte	0x241
 916 0144 06       		.uleb128 0x6
 917 0145 92020000 		.4byte	.LASF28
 918 0149 06       		.byte	0x6
 919 014a 5F       		.byte	0x5f
 920 014b 62020000 		.4byte	0x262
 921 014f 00       		.byte	0
 922 0150 06       		.uleb128 0x6
 923 0151 33020000 		.4byte	.LASF29
 924 0155 06       		.byte	0x6
 925 0156 61       		.byte	0x61
 926 0157 62020000 		.4byte	0x262
 927 015b 04       		.byte	0x4
 928 015c 06       		.uleb128 0x6
 929 015d 98000000 		.4byte	.LASF30
 930 0161 06       		.byte	0x6
 931 0162 63       		.byte	0x63
 932 0163 01010000 		.4byte	0x101
 933 0167 08       		.byte	0x8
ARM GAS  /tmp/cc8sJAS7.s 			page 18


 934 0168 06       		.uleb128 0x6
 935 0169 D3040000 		.4byte	.LASF31
 936 016d 06       		.byte	0x6
 937 016e 64       		.byte	0x64
 938 016f F7030000 		.4byte	0x3f7
 939 0173 0C       		.byte	0xc
 940 0174 06       		.uleb128 0x6
 941 0175 FA000000 		.4byte	.LASF32
 942 0179 06       		.byte	0x6
 943 017a 66       		.byte	0x66
 944 017b 62020000 		.4byte	0x262
 945 017f 10       		.byte	0x10
 946 0180 06       		.uleb128 0x6
 947 0181 EB010000 		.4byte	.LASF33
 948 0185 06       		.byte	0x6
 949 0186 67       		.byte	0x67
 950 0187 62020000 		.4byte	0x262
 951 018b 14       		.byte	0x14
 952 018c 06       		.uleb128 0x6
 953 018d B9040000 		.4byte	.LASF34
 954 0191 06       		.byte	0x6
 955 0192 6E       		.byte	0x6e
 956 0193 F7040000 		.4byte	0x4f7
 957 0197 18       		.byte	0x18
 958 0198 06       		.uleb128 0x6
 959 0199 30010000 		.4byte	.LASF35
 960 019d 06       		.byte	0x6
 961 019e 74       		.byte	0x74
 962 019f 09050000 		.4byte	0x509
 963 01a3 1C       		.byte	0x1c
 964 01a4 06       		.uleb128 0x6
 965 01a5 72020000 		.4byte	.LASF36
 966 01a9 06       		.byte	0x6
 967 01aa 79       		.byte	0x79
 968 01ab E0000000 		.4byte	0xe0
 969 01af 20       		.byte	0x20
 970 01b0 06       		.uleb128 0x6
 971 01b1 99020000 		.4byte	.LASF37
 972 01b5 06       		.byte	0x6
 973 01b6 7D       		.byte	0x7d
 974 01b7 D5000000 		.4byte	0xd5
 975 01bb 21       		.byte	0x21
 976 01bc 06       		.uleb128 0x6
 977 01bd 93040000 		.4byte	.LASF38
 978 01c1 06       		.byte	0x6
 979 01c2 82       		.byte	0x82
 980 01c3 EB000000 		.4byte	0xeb
 981 01c7 22       		.byte	0x22
 982 01c8 06       		.uleb128 0x6
 983 01c9 7A020000 		.4byte	.LASF39
 984 01cd 06       		.byte	0x6
 985 01ce 88       		.byte	0x88
 986 01cf F6000000 		.4byte	0xf6
 987 01d3 23       		.byte	0x23
 988 01d4 06       		.uleb128 0x6
 989 01d5 63040000 		.4byte	.LASF40
 990 01d9 06       		.byte	0x6
ARM GAS  /tmp/cc8sJAS7.s 			page 19


 991 01da 8F       		.byte	0x8f
 992 01db 1F040000 		.4byte	0x41f
 993 01df 24       		.byte	0x24
 994 01e0 07       		.uleb128 0x7
 995 01e1 705F7500 		.ascii	"p_u\000"
 996 01e5 06       		.byte	0x6
 997 01e6 B4       		.byte	0xb4
 998 01e7 C2040000 		.4byte	0x4c2
 999 01eb 28       		.byte	0x28
 1000 01ec 06       		.uleb128 0x6
 1001 01ed D9040000 		.4byte	.LASF41
 1002 01f1 06       		.byte	0x6
 1003 01f2 B9       		.byte	0xb9
 1004 01f3 88020000 		.4byte	0x288
 1005 01f7 2C       		.byte	0x2c
 1006 01f8 06       		.uleb128 0x6
 1007 01f9 71040000 		.4byte	.LASF42
 1008 01fd 06       		.byte	0x6
 1009 01fe BF       		.byte	0xbf
 1010 01ff 68020000 		.4byte	0x268
 1011 0203 30       		.byte	0x30
 1012 0204 06       		.uleb128 0x6
 1013 0205 00000000 		.4byte	.LASF43
 1014 0209 06       		.byte	0x6
 1015 020a C3       		.byte	0xc3
 1016 020b 0C010000 		.4byte	0x10c
 1017 020f 38       		.byte	0x38
 1018 0210 06       		.uleb128 0x6
 1019 0211 DC030000 		.4byte	.LASF44
 1020 0215 06       		.byte	0x6
 1021 0216 C9       		.byte	0xc9
 1022 0217 17010000 		.4byte	0x117
 1023 021b 3C       		.byte	0x3c
 1024 021c 06       		.uleb128 0x6
 1025 021d 5E020000 		.4byte	.LASF45
 1026 0221 06       		.byte	0x6
 1027 0222 D0       		.byte	0xd0
 1028 0223 0F050000 		.4byte	0x50f
 1029 0227 40       		.byte	0x40
 1030 0228 06       		.uleb128 0x6
 1031 0229 42040000 		.4byte	.LASF46
 1032 022d 06       		.byte	0x6
 1033 022e D4       		.byte	0xd4
 1034 022f 01010000 		.4byte	0x101
 1035 0233 44       		.byte	0x44
 1036 0234 06       		.uleb128 0x6
 1037 0235 B9000000 		.4byte	.LASF47
 1038 0239 06       		.byte	0x6
 1039 023a DA       		.byte	0xda
 1040 023b 9E020000 		.4byte	0x29e
 1041 023f 48       		.byte	0x48
 1042 0240 00       		.byte	0
 1043 0241 08       		.uleb128 0x8
 1044 0242 08       		.byte	0x8
 1045 0243 05       		.byte	0x5
 1046 0244 61       		.byte	0x61
 1047 0245 62020000 		.4byte	0x262
ARM GAS  /tmp/cc8sJAS7.s 			page 20


 1048 0249 06       		.uleb128 0x6
 1049 024a 92020000 		.4byte	.LASF28
 1050 024e 05       		.byte	0x5
 1051 024f 62       		.byte	0x62
 1052 0250 62020000 		.4byte	0x262
 1053 0254 00       		.byte	0
 1054 0255 06       		.uleb128 0x6
 1055 0256 33020000 		.4byte	.LASF29
 1056 025a 05       		.byte	0x5
 1057 025b 64       		.byte	0x64
 1058 025c 62020000 		.4byte	0x262
 1059 0260 04       		.byte	0x4
 1060 0261 00       		.byte	0
 1061 0262 09       		.uleb128 0x9
 1062 0263 04       		.byte	0x4
 1063 0264 2D010000 		.4byte	0x12d
 1064 0268 04       		.uleb128 0x4
 1065 0269 F9010000 		.4byte	.LASF48
 1066 026d 05       		.byte	0x5
 1067 026e 66       		.byte	0x66
 1068 026f 41020000 		.4byte	0x241
 1069 0273 08       		.uleb128 0x8
 1070 0274 04       		.byte	0x4
 1071 0275 05       		.byte	0x5
 1072 0276 6B       		.byte	0x6b
 1073 0277 88020000 		.4byte	0x288
 1074 027b 06       		.uleb128 0x6
 1075 027c 92020000 		.4byte	.LASF28
 1076 0280 05       		.byte	0x5
 1077 0281 6D       		.byte	0x6d
 1078 0282 62020000 		.4byte	0x262
 1079 0286 00       		.byte	0
 1080 0287 00       		.byte	0
 1081 0288 04       		.uleb128 0x4
 1082 0289 A2010000 		.4byte	.LASF49
 1083 028d 05       		.byte	0x5
 1084 028e 70       		.byte	0x70
 1085 028f 73020000 		.4byte	0x273
 1086 0293 04       		.uleb128 0x4
 1087 0294 27010000 		.4byte	.LASF50
 1088 0298 07       		.byte	0x7
 1089 0299 E5       		.byte	0xe5
 1090 029a 9E020000 		.4byte	0x29e
 1091 029e 0A       		.uleb128 0xa
 1092 029f 04       		.byte	0x4
 1093 02a0 04       		.uleb128 0x4
 1094 02a1 CD010000 		.4byte	.LASF51
 1095 02a5 07       		.byte	0x7
 1096 02a6 EB       		.byte	0xeb
 1097 02a7 B8000000 		.4byte	0xb8
 1098 02ab 0B       		.uleb128 0xb
 1099 02ac 6A040000 		.4byte	.LASF52
 1100 02b0 64       		.byte	0x64
 1101 02b1 07       		.byte	0x7
 1102 02b2 0C01     		.2byte	0x10c
 1103 02b4 F7030000 		.4byte	0x3f7
 1104 02b8 0C       		.uleb128 0xc
ARM GAS  /tmp/cc8sJAS7.s 			page 21


 1105 02b9 73313600 		.ascii	"s16\000"
 1106 02bd 07       		.byte	0x7
 1107 02be 0E01     		.2byte	0x10e
 1108 02c0 93020000 		.4byte	0x293
 1109 02c4 00       		.byte	0
 1110 02c5 0C       		.uleb128 0xc
 1111 02c6 73313700 		.ascii	"s17\000"
 1112 02ca 07       		.byte	0x7
 1113 02cb 0F01     		.2byte	0x10f
 1114 02cd 93020000 		.4byte	0x293
 1115 02d1 04       		.byte	0x4
 1116 02d2 0C       		.uleb128 0xc
 1117 02d3 73313800 		.ascii	"s18\000"
 1118 02d7 07       		.byte	0x7
 1119 02d8 1001     		.2byte	0x110
 1120 02da 93020000 		.4byte	0x293
 1121 02de 08       		.byte	0x8
 1122 02df 0C       		.uleb128 0xc
 1123 02e0 73313900 		.ascii	"s19\000"
 1124 02e4 07       		.byte	0x7
 1125 02e5 1101     		.2byte	0x111
 1126 02e7 93020000 		.4byte	0x293
 1127 02eb 0C       		.byte	0xc
 1128 02ec 0C       		.uleb128 0xc
 1129 02ed 73323000 		.ascii	"s20\000"
 1130 02f1 07       		.byte	0x7
 1131 02f2 1201     		.2byte	0x112
 1132 02f4 93020000 		.4byte	0x293
 1133 02f8 10       		.byte	0x10
 1134 02f9 0C       		.uleb128 0xc
 1135 02fa 73323100 		.ascii	"s21\000"
 1136 02fe 07       		.byte	0x7
 1137 02ff 1301     		.2byte	0x113
 1138 0301 93020000 		.4byte	0x293
 1139 0305 14       		.byte	0x14
 1140 0306 0C       		.uleb128 0xc
 1141 0307 73323200 		.ascii	"s22\000"
 1142 030b 07       		.byte	0x7
 1143 030c 1401     		.2byte	0x114
 1144 030e 93020000 		.4byte	0x293
 1145 0312 18       		.byte	0x18
 1146 0313 0C       		.uleb128 0xc
 1147 0314 73323300 		.ascii	"s23\000"
 1148 0318 07       		.byte	0x7
 1149 0319 1501     		.2byte	0x115
 1150 031b 93020000 		.4byte	0x293
 1151 031f 1C       		.byte	0x1c
 1152 0320 0C       		.uleb128 0xc
 1153 0321 73323400 		.ascii	"s24\000"
 1154 0325 07       		.byte	0x7
 1155 0326 1601     		.2byte	0x116
 1156 0328 93020000 		.4byte	0x293
 1157 032c 20       		.byte	0x20
 1158 032d 0C       		.uleb128 0xc
 1159 032e 73323500 		.ascii	"s25\000"
 1160 0332 07       		.byte	0x7
 1161 0333 1701     		.2byte	0x117
ARM GAS  /tmp/cc8sJAS7.s 			page 22


 1162 0335 93020000 		.4byte	0x293
 1163 0339 24       		.byte	0x24
 1164 033a 0C       		.uleb128 0xc
 1165 033b 73323600 		.ascii	"s26\000"
 1166 033f 07       		.byte	0x7
 1167 0340 1801     		.2byte	0x118
 1168 0342 93020000 		.4byte	0x293
 1169 0346 28       		.byte	0x28
 1170 0347 0C       		.uleb128 0xc
 1171 0348 73323700 		.ascii	"s27\000"
 1172 034c 07       		.byte	0x7
 1173 034d 1901     		.2byte	0x119
 1174 034f 93020000 		.4byte	0x293
 1175 0353 2C       		.byte	0x2c
 1176 0354 0C       		.uleb128 0xc
 1177 0355 73323800 		.ascii	"s28\000"
 1178 0359 07       		.byte	0x7
 1179 035a 1A01     		.2byte	0x11a
 1180 035c 93020000 		.4byte	0x293
 1181 0360 30       		.byte	0x30
 1182 0361 0C       		.uleb128 0xc
 1183 0362 73323900 		.ascii	"s29\000"
 1184 0366 07       		.byte	0x7
 1185 0367 1B01     		.2byte	0x11b
 1186 0369 93020000 		.4byte	0x293
 1187 036d 34       		.byte	0x34
 1188 036e 0C       		.uleb128 0xc
 1189 036f 73333000 		.ascii	"s30\000"
 1190 0373 07       		.byte	0x7
 1191 0374 1C01     		.2byte	0x11c
 1192 0376 93020000 		.4byte	0x293
 1193 037a 38       		.byte	0x38
 1194 037b 0C       		.uleb128 0xc
 1195 037c 73333100 		.ascii	"s31\000"
 1196 0380 07       		.byte	0x7
 1197 0381 1D01     		.2byte	0x11d
 1198 0383 93020000 		.4byte	0x293
 1199 0387 3C       		.byte	0x3c
 1200 0388 0C       		.uleb128 0xc
 1201 0389 723400   		.ascii	"r4\000"
 1202 038c 07       		.byte	0x7
 1203 038d 1F01     		.2byte	0x11f
 1204 038f 93020000 		.4byte	0x293
 1205 0393 40       		.byte	0x40
 1206 0394 0C       		.uleb128 0xc
 1207 0395 723500   		.ascii	"r5\000"
 1208 0398 07       		.byte	0x7
 1209 0399 2001     		.2byte	0x120
 1210 039b 93020000 		.4byte	0x293
 1211 039f 44       		.byte	0x44
 1212 03a0 0C       		.uleb128 0xc
 1213 03a1 723600   		.ascii	"r6\000"
 1214 03a4 07       		.byte	0x7
 1215 03a5 2101     		.2byte	0x121
 1216 03a7 93020000 		.4byte	0x293
 1217 03ab 48       		.byte	0x48
 1218 03ac 0C       		.uleb128 0xc
ARM GAS  /tmp/cc8sJAS7.s 			page 23


 1219 03ad 723700   		.ascii	"r7\000"
 1220 03b0 07       		.byte	0x7
 1221 03b1 2201     		.2byte	0x122
 1222 03b3 93020000 		.4byte	0x293
 1223 03b7 4C       		.byte	0x4c
 1224 03b8 0C       		.uleb128 0xc
 1225 03b9 723800   		.ascii	"r8\000"
 1226 03bc 07       		.byte	0x7
 1227 03bd 2301     		.2byte	0x123
 1228 03bf 93020000 		.4byte	0x293
 1229 03c3 50       		.byte	0x50
 1230 03c4 0C       		.uleb128 0xc
 1231 03c5 723900   		.ascii	"r9\000"
 1232 03c8 07       		.byte	0x7
 1233 03c9 2401     		.2byte	0x124
 1234 03cb 93020000 		.4byte	0x293
 1235 03cf 54       		.byte	0x54
 1236 03d0 0C       		.uleb128 0xc
 1237 03d1 72313000 		.ascii	"r10\000"
 1238 03d5 07       		.byte	0x7
 1239 03d6 2501     		.2byte	0x125
 1240 03d8 93020000 		.4byte	0x293
 1241 03dc 58       		.byte	0x58
 1242 03dd 0C       		.uleb128 0xc
 1243 03de 72313100 		.ascii	"r11\000"
 1244 03e2 07       		.byte	0x7
 1245 03e3 2601     		.2byte	0x126
 1246 03e5 93020000 		.4byte	0x293
 1247 03e9 5C       		.byte	0x5c
 1248 03ea 0C       		.uleb128 0xc
 1249 03eb 6C7200   		.ascii	"lr\000"
 1250 03ee 07       		.byte	0x7
 1251 03ef 2701     		.2byte	0x127
 1252 03f1 93020000 		.4byte	0x293
 1253 03f5 60       		.byte	0x60
 1254 03f6 00       		.byte	0
 1255 03f7 0B       		.uleb128 0xb
 1256 03f8 5A010000 		.4byte	.LASF53
 1257 03fc 04       		.byte	0x4
 1258 03fd 07       		.byte	0x7
 1259 03fe 3101     		.2byte	0x131
 1260 0400 12040000 		.4byte	0x412
 1261 0404 0C       		.uleb128 0xc
 1262 0405 72313300 		.ascii	"r13\000"
 1263 0409 07       		.byte	0x7
 1264 040a 3201     		.2byte	0x132
 1265 040c 12040000 		.4byte	0x412
 1266 0410 00       		.byte	0
 1267 0411 00       		.byte	0
 1268 0412 09       		.uleb128 0x9
 1269 0413 04       		.byte	0x4
 1270 0414 AB020000 		.4byte	0x2ab
 1271 0418 03       		.uleb128 0x3
 1272 0419 04       		.byte	0x4
 1273 041a 07       		.byte	0x7
 1274 041b D8010000 		.4byte	.LASF54
 1275 041f 0D       		.uleb128 0xd
ARM GAS  /tmp/cc8sJAS7.s 			page 24


 1276 0420 22010000 		.4byte	0x122
 1277 0424 08       		.uleb128 0x8
 1278 0425 1C       		.byte	0x1c
 1279 0426 08       		.byte	0x8
 1280 0427 5E       		.byte	0x5e
 1281 0428 75040000 		.4byte	0x475
 1282 042c 06       		.uleb128 0x6
 1283 042d F0030000 		.4byte	.LASF55
 1284 0431 08       		.byte	0x8
 1285 0432 5F       		.byte	0x5f
 1286 0433 68020000 		.4byte	0x268
 1287 0437 00       		.byte	0
 1288 0438 06       		.uleb128 0x6
 1289 0439 84020000 		.4byte	.LASF56
 1290 043d 08       		.byte	0x8
 1291 043e 60       		.byte	0x60
 1292 043f 01010000 		.4byte	0x101
 1293 0443 08       		.byte	0x8
 1294 0444 06       		.uleb128 0x6
 1295 0445 F3010000 		.4byte	.LASF57
 1296 0449 08       		.byte	0x8
 1297 044a 62       		.byte	0x62
 1298 044b F7030000 		.4byte	0x3f7
 1299 044f 0C       		.byte	0xc
 1300 0450 06       		.uleb128 0x6
 1301 0451 7B010000 		.4byte	.LASF58
 1302 0455 08       		.byte	0x8
 1303 0456 65       		.byte	0x65
 1304 0457 62020000 		.4byte	0x262
 1305 045b 10       		.byte	0x10
 1306 045c 06       		.uleb128 0x6
 1307 045d 18020000 		.4byte	.LASF59
 1308 0461 08       		.byte	0x8
 1309 0462 66       		.byte	0x66
 1310 0463 62020000 		.4byte	0x262
 1311 0467 14       		.byte	0x14
 1312 0468 06       		.uleb128 0x6
 1313 0469 0E020000 		.4byte	.LASF60
 1314 046d 08       		.byte	0x8
 1315 046e 69       		.byte	0x69
 1316 046f 62020000 		.4byte	0x262
 1317 0473 18       		.byte	0x18
 1318 0474 00       		.byte	0
 1319 0475 04       		.uleb128 0x4
 1320 0476 9A040000 		.4byte	.LASF61
 1321 047a 08       		.byte	0x8
 1322 047b 6B       		.byte	0x6b
 1323 047c 24040000 		.4byte	0x424
 1324 0480 05       		.uleb128 0x5
 1325 0481 C7010000 		.4byte	.LASF62
 1326 0485 10       		.byte	0x10
 1327 0486 09       		.byte	0x9
 1328 0487 2C       		.byte	0x2c
 1329 0488 B1040000 		.4byte	0x4b1
 1330 048c 06       		.uleb128 0x6
 1331 048d C8000000 		.4byte	.LASF63
 1332 0491 09       		.byte	0x9
ARM GAS  /tmp/cc8sJAS7.s 			page 25


 1333 0492 2D       		.byte	0x2d
 1334 0493 68020000 		.4byte	0x268
 1335 0497 00       		.byte	0
 1336 0498 06       		.uleb128 0x6
 1337 0499 CB040000 		.4byte	.LASF64
 1338 049d 09       		.byte	0x9
 1339 049e 2F       		.byte	0x2f
 1340 049f 62020000 		.4byte	0x262
 1341 04a3 08       		.byte	0x8
 1342 04a4 06       		.uleb128 0x6
 1343 04a5 31040000 		.4byte	.LASF65
 1344 04a9 09       		.byte	0x9
 1345 04aa 31       		.byte	0x31
 1346 04ab B1040000 		.4byte	0x4b1
 1347 04af 0C       		.byte	0xc
 1348 04b0 00       		.byte	0
 1349 04b1 09       		.uleb128 0x9
 1350 04b2 04       		.byte	0x4
 1351 04b3 80040000 		.4byte	0x480
 1352 04b7 04       		.uleb128 0x4
 1353 04b8 C7010000 		.4byte	.LASF62
 1354 04bc 09       		.byte	0x9
 1355 04bd 33       		.byte	0x33
 1356 04be 80040000 		.4byte	0x480
 1357 04c2 0E       		.uleb128 0xe
 1358 04c3 04       		.byte	0x4
 1359 04c4 06       		.byte	0x6
 1360 04c5 96       		.byte	0x96
 1361 04c6 F7040000 		.4byte	0x4f7
 1362 04ca 0F       		.uleb128 0xf
 1363 04cb 11000000 		.4byte	.LASF66
 1364 04cf 06       		.byte	0x6
 1365 04d0 9D       		.byte	0x9d
 1366 04d1 0C010000 		.4byte	0x10c
 1367 04d5 0F       		.uleb128 0xf
 1368 04d6 02010000 		.4byte	.LASF67
 1369 04da 06       		.byte	0x6
 1370 04db A4       		.byte	0xa4
 1371 04dc 0C010000 		.4byte	0x10c
 1372 04e0 0F       		.uleb128 0xf
 1373 04e1 B2040000 		.4byte	.LASF68
 1374 04e5 06       		.byte	0x6
 1375 04e6 AB       		.byte	0xab
 1376 04e7 9E020000 		.4byte	0x29e
 1377 04eb 0F       		.uleb128 0xf
 1378 04ec 8B020000 		.4byte	.LASF69
 1379 04f0 06       		.byte	0x6
 1380 04f1 B2       		.byte	0xb2
 1381 04f2 17010000 		.4byte	0x117
 1382 04f6 00       		.byte	0
 1383 04f7 09       		.uleb128 0x9
 1384 04f8 04       		.byte	0x4
 1385 04f9 FD040000 		.4byte	0x4fd
 1386 04fd 10       		.uleb128 0x10
 1387 04fe 02050000 		.4byte	0x502
 1388 0502 03       		.uleb128 0x3
 1389 0503 01       		.byte	0x1
ARM GAS  /tmp/cc8sJAS7.s 			page 26


 1390 0504 08       		.byte	0x8
 1391 0505 F8030000 		.4byte	.LASF70
 1392 0509 09       		.uleb128 0x9
 1393 050a 04       		.byte	0x4
 1394 050b A0020000 		.4byte	0x2a0
 1395 050f 09       		.uleb128 0x9
 1396 0510 04       		.byte	0x4
 1397 0511 B7040000 		.4byte	0x4b7
 1398 0515 11       		.uleb128 0x11
 1399 0516 89040000 		.4byte	.LASF71
 1400 051a 01       		.byte	0x1
 1401 051b 56       		.byte	0x56
 1402 051c 00000000 		.4byte	.LFB0
 1403 0520 1C000000 		.4byte	.LFE0-.LFB0
 1404 0524 01       		.uleb128 0x1
 1405 0525 9C       		.byte	0x9c
 1406 0526 4C050000 		.4byte	0x54c
 1407 052a 12       		.uleb128 0x12
 1408 052b 6D7000   		.ascii	"mp\000"
 1409 052e 01       		.byte	0x1
 1410 052f 56       		.byte	0x56
 1411 0530 0F050000 		.4byte	0x50f
 1412 0534 00000000 		.4byte	.LLST0
 1413 0538 13       		.uleb128 0x13
 1414 0539 16000000 		.4byte	.LVL4
 1415 053d 0A090000 		.4byte	0x90a
 1416 0541 14       		.uleb128 0x14
 1417 0542 01       		.uleb128 0x1
 1418 0543 50       		.byte	0x50
 1419 0544 05       		.uleb128 0x5
 1420 0545 03       		.byte	0x3
 1421 0546 00000000 		.4byte	.LC0
 1422 054a 00       		.byte	0
 1423 054b 00       		.byte	0
 1424 054c 11       		.uleb128 0x11
 1425 054d C0040000 		.4byte	.LASF72
 1426 0551 01       		.byte	0x1
 1427 0552 79       		.byte	0x79
 1428 0553 00000000 		.4byte	.LFB2
 1429 0557 B0000000 		.4byte	.LFE2-.LFB2
 1430 055b 01       		.uleb128 0x1
 1431 055c 9C       		.byte	0x9c
 1432 055d 5C060000 		.4byte	0x65c
 1433 0561 12       		.uleb128 0x12
 1434 0562 6D7000   		.ascii	"mp\000"
 1435 0565 01       		.byte	0x1
 1436 0566 79       		.byte	0x79
 1437 0567 0F050000 		.4byte	0x50f
 1438 056b 34000000 		.4byte	.LLST1
 1439 056f 15       		.uleb128 0x15
 1440 0570 63747000 		.ascii	"ctp\000"
 1441 0574 01       		.byte	0x1
 1442 0575 7A       		.byte	0x7a
 1443 0576 62020000 		.4byte	0x262
 1444 057a 81000000 		.4byte	.LLST2
 1445 057e 16       		.uleb128 0x16
 1446 057f 00000000 		.4byte	.Ldebug_ranges0+0
ARM GAS  /tmp/cc8sJAS7.s 			page 27


 1447 0583 48060000 		.4byte	0x648
 1448 0587 15       		.uleb128 0x15
 1449 0588 747000   		.ascii	"tp\000"
 1450 058b 01       		.byte	0x1
 1451 058c 84       		.byte	0x84
 1452 058d 62020000 		.4byte	0x262
 1453 0591 9F000000 		.4byte	.LLST3
 1454 0595 17       		.uleb128 0x17
 1455 0596 30000000 		.4byte	.LVL9
 1456 059a 1B090000 		.4byte	0x91b
 1457 059e AF050000 		.4byte	0x5af
 1458 05a2 14       		.uleb128 0x14
 1459 05a3 01       		.uleb128 0x1
 1460 05a4 51       		.byte	0x51
 1461 05a5 02       		.uleb128 0x2
 1462 05a6 75       		.byte	0x75
 1463 05a7 00       		.sleb128 0
 1464 05a8 14       		.uleb128 0x14
 1465 05a9 01       		.uleb128 0x1
 1466 05aa 50       		.byte	0x50
 1467 05ab 02       		.uleb128 0x2
 1468 05ac 76       		.byte	0x76
 1469 05ad 00       		.sleb128 0
 1470 05ae 00       		.byte	0
 1471 05af 17       		.uleb128 0x17
 1472 05b0 38000000 		.4byte	.LVL10
 1473 05b4 37090000 		.4byte	0x937
 1474 05b8 C2050000 		.4byte	0x5c2
 1475 05bc 14       		.uleb128 0x14
 1476 05bd 01       		.uleb128 0x1
 1477 05be 50       		.byte	0x50
 1478 05bf 01       		.uleb128 0x1
 1479 05c0 34       		.byte	0x34
 1480 05c1 00       		.byte	0
 1481 05c2 17       		.uleb128 0x17
 1482 05c3 44000000 		.4byte	.LVL11
 1483 05c7 0A090000 		.4byte	0x90a
 1484 05cb D9050000 		.4byte	0x5d9
 1485 05cf 14       		.uleb128 0x14
 1486 05d0 01       		.uleb128 0x1
 1487 05d1 50       		.byte	0x50
 1488 05d2 05       		.uleb128 0x5
 1489 05d3 03       		.byte	0x3
 1490 05d4 20000000 		.4byte	.LC2
 1491 05d8 00       		.byte	0
 1492 05d9 18       		.uleb128 0x18
 1493 05da 54000000 		.4byte	.LVL13
 1494 05de 0A090000 		.4byte	0x90a
 1495 05e2 F0050000 		.4byte	0x5f0
 1496 05e6 14       		.uleb128 0x14
 1497 05e7 01       		.uleb128 0x1
 1498 05e8 50       		.byte	0x50
 1499 05e9 05       		.uleb128 0x5
 1500 05ea 03       		.byte	0x3
 1501 05eb 34000000 		.4byte	.LC3
 1502 05ef 00       		.byte	0
 1503 05f0 17       		.uleb128 0x17
ARM GAS  /tmp/cc8sJAS7.s 			page 28


 1504 05f1 60000000 		.4byte	.LVL14
 1505 05f5 48090000 		.4byte	0x948
 1506 05f9 04060000 		.4byte	0x604
 1507 05fd 14       		.uleb128 0x14
 1508 05fe 01       		.uleb128 0x1
 1509 05ff 50       		.byte	0x50
 1510 0600 02       		.uleb128 0x2
 1511 0601 74       		.byte	0x74
 1512 0602 00       		.sleb128 0
 1513 0603 00       		.byte	0
 1514 0604 19       		.uleb128 0x19
 1515 0605 64000000 		.4byte	.LVL15
 1516 0609 5D090000 		.4byte	0x95d
 1517 060d 17       		.uleb128 0x17
 1518 060e 76000000 		.4byte	.LVL18
 1519 0612 48090000 		.4byte	0x948
 1520 0616 21060000 		.4byte	0x621
 1521 061a 14       		.uleb128 0x14
 1522 061b 01       		.uleb128 0x1
 1523 061c 50       		.byte	0x50
 1524 061d 02       		.uleb128 0x2
 1525 061e 74       		.byte	0x74
 1526 061f 00       		.sleb128 0
 1527 0620 00       		.byte	0
 1528 0621 19       		.uleb128 0x19
 1529 0622 7C000000 		.4byte	.LVL19
 1530 0626 1B090000 		.4byte	0x91b
 1531 062a 17       		.uleb128 0x17
 1532 062b 84000000 		.4byte	.LVL20
 1533 062f 48090000 		.4byte	0x948
 1534 0633 3E060000 		.4byte	0x63e
 1535 0637 14       		.uleb128 0x14
 1536 0638 01       		.uleb128 0x1
 1537 0639 50       		.byte	0x50
 1538 063a 02       		.uleb128 0x2
 1539 063b 74       		.byte	0x74
 1540 063c 00       		.sleb128 0
 1541 063d 00       		.byte	0
 1542 063e 19       		.uleb128 0x19
 1543 063f 8A000000 		.4byte	.LVL21
 1544 0643 1B090000 		.4byte	0x91b
 1545 0647 00       		.byte	0
 1546 0648 13       		.uleb128 0x13
 1547 0649 9E000000 		.4byte	.LVL25
 1548 064d 0A090000 		.4byte	0x90a
 1549 0651 14       		.uleb128 0x14
 1550 0652 01       		.uleb128 0x1
 1551 0653 50       		.byte	0x50
 1552 0654 05       		.uleb128 0x5
 1553 0655 03       		.byte	0x3
 1554 0656 10000000 		.4byte	.LC1
 1555 065a 00       		.byte	0
 1556 065b 00       		.byte	0
 1557 065c 11       		.uleb128 0x11
 1558 065d E1010000 		.4byte	.LASF73
 1559 0661 01       		.byte	0x1
 1560 0662 67       		.byte	0x67
ARM GAS  /tmp/cc8sJAS7.s 			page 29


 1561 0663 00000000 		.4byte	.LFB1
 1562 0667 10000000 		.4byte	.LFE1-.LFB1
 1563 066b 01       		.uleb128 0x1
 1564 066c 9C       		.byte	0x9c
 1565 066d 91060000 		.4byte	0x691
 1566 0671 12       		.uleb128 0x12
 1567 0672 6D7000   		.ascii	"mp\000"
 1568 0675 01       		.byte	0x1
 1569 0676 67       		.byte	0x67
 1570 0677 0F050000 		.4byte	0x50f
 1571 067b C8000000 		.4byte	.LLST4
 1572 067f 13       		.uleb128 0x13
 1573 0680 0A000000 		.4byte	.LVL27
 1574 0684 4C050000 		.4byte	0x54c
 1575 0688 14       		.uleb128 0x14
 1576 0689 01       		.uleb128 0x1
 1577 068a 50       		.byte	0x50
 1578 068b 03       		.uleb128 0x3
 1579 068c F3       		.byte	0xf3
 1580 068d 01       		.uleb128 0x1
 1581 068e 50       		.byte	0x50
 1582 068f 00       		.byte	0
 1583 0690 00       		.byte	0
 1584 0691 1A       		.uleb128 0x1a
 1585 0692 EC000000 		.4byte	.LASF74
 1586 0696 01       		.byte	0x1
 1587 0697 EA       		.byte	0xea
 1588 0698 C3000000 		.4byte	0xc3
 1589 069c 00000000 		.4byte	.LFB4
 1590 06a0 30000000 		.4byte	.LFE4-.LFB4
 1591 06a4 01       		.uleb128 0x1
 1592 06a5 9C       		.byte	0x9c
 1593 06a6 CC060000 		.4byte	0x6cc
 1594 06aa 12       		.uleb128 0x12
 1595 06ab 6D7000   		.ascii	"mp\000"
 1596 06ae 01       		.byte	0x1
 1597 06af EA       		.byte	0xea
 1598 06b0 0F050000 		.4byte	0x50f
 1599 06b4 E9000000 		.4byte	.LLST5
 1600 06b8 13       		.uleb128 0x13
 1601 06b9 24000000 		.4byte	.LVL33
 1602 06bd 0A090000 		.4byte	0x90a
 1603 06c1 14       		.uleb128 0x14
 1604 06c2 01       		.uleb128 0x1
 1605 06c3 50       		.byte	0x50
 1606 06c4 05       		.uleb128 0x5
 1607 06c5 03       		.byte	0x3
 1608 06c6 48000000 		.4byte	.LC4
 1609 06ca 00       		.byte	0
 1610 06cb 00       		.byte	0
 1611 06cc 1A       		.uleb128 0x1a
 1612 06cd BA010000 		.4byte	.LASF75
 1613 06d1 01       		.byte	0x1
 1614 06d2 CE       		.byte	0xce
 1615 06d3 C3000000 		.4byte	0xc3
 1616 06d7 00000000 		.4byte	.LFB3
 1617 06db 10000000 		.4byte	.LFE3-.LFB3
ARM GAS  /tmp/cc8sJAS7.s 			page 30


 1618 06df 01       		.uleb128 0x1
 1619 06e0 9C       		.byte	0x9c
 1620 06e1 10070000 		.4byte	0x710
 1621 06e5 12       		.uleb128 0x12
 1622 06e6 6D7000   		.ascii	"mp\000"
 1623 06e9 01       		.byte	0x1
 1624 06ea CE       		.byte	0xce
 1625 06eb 0F050000 		.4byte	0x50f
 1626 06ef 1D010000 		.4byte	.LLST6
 1627 06f3 1B       		.uleb128 0x1b
 1628 06f4 6200     		.ascii	"b\000"
 1629 06f6 01       		.byte	0x1
 1630 06f7 CF       		.byte	0xcf
 1631 06f8 C3000000 		.4byte	0xc3
 1632 06fc 01       		.uleb128 0x1
 1633 06fd 50       		.byte	0x50
 1634 06fe 13       		.uleb128 0x13
 1635 06ff 0A000000 		.4byte	.LVL35
 1636 0703 91060000 		.4byte	0x691
 1637 0707 14       		.uleb128 0x14
 1638 0708 01       		.uleb128 0x1
 1639 0709 50       		.byte	0x50
 1640 070a 03       		.uleb128 0x3
 1641 070b F3       		.byte	0xf3
 1642 070c 01       		.uleb128 0x1
 1643 070d 50       		.byte	0x50
 1644 070e 00       		.byte	0
 1645 070f 00       		.byte	0
 1646 0710 1C       		.uleb128 0x1c
 1647 0711 42000000 		.4byte	.LASF76
 1648 0715 01       		.byte	0x1
 1649 0716 0101     		.2byte	0x101
 1650 0718 0F050000 		.4byte	0x50f
 1651 071c 00000000 		.4byte	.LFB5
 1652 0720 80000000 		.4byte	.LFE5-.LFB5
 1653 0724 01       		.uleb128 0x1
 1654 0725 9C       		.byte	0x9c
 1655 0726 D2070000 		.4byte	0x7d2
 1656 072a 1D       		.uleb128 0x1d
 1657 072b 63747000 		.ascii	"ctp\000"
 1658 072f 01       		.byte	0x1
 1659 0730 0201     		.2byte	0x102
 1660 0732 62020000 		.4byte	0x262
 1661 0736 01       		.uleb128 0x1
 1662 0737 55       		.byte	0x55
 1663 0738 1E       		.uleb128 0x1e
 1664 0739 756D7000 		.ascii	"ump\000"
 1665 073d 01       		.byte	0x1
 1666 073e 0301     		.2byte	0x103
 1667 0740 0F050000 		.4byte	0x50f
 1668 0744 3E010000 		.4byte	.LLST7
 1669 0748 1E       		.uleb128 0x1e
 1670 0749 6D7000   		.ascii	"mp\000"
 1671 074c 01       		.byte	0x1
 1672 074d 0301     		.2byte	0x103
 1673 074f 0F050000 		.4byte	0x50f
 1674 0753 51010000 		.4byte	.LLST8
ARM GAS  /tmp/cc8sJAS7.s 			page 31


 1675 0757 1F       		.uleb128 0x1f
 1676 0758 28000000 		.4byte	.LBB5
 1677 075c 2E000000 		.4byte	.LBE5-.LBB5
 1678 0760 A7070000 		.4byte	0x7a7
 1679 0764 1E       		.uleb128 0x1e
 1680 0765 747000   		.ascii	"tp\000"
 1681 0768 01       		.byte	0x1
 1682 0769 1201     		.2byte	0x112
 1683 076b 62020000 		.4byte	0x262
 1684 076f 64010000 		.4byte	.LLST9
 1685 0773 20       		.uleb128 0x20
 1686 0774 92010000 		.4byte	.LASF77
 1687 0778 01       		.byte	0x1
 1688 0779 1601     		.2byte	0x116
 1689 077b 01010000 		.4byte	0x101
 1690 077f 77010000 		.4byte	.LLST10
 1691 0783 17       		.uleb128 0x17
 1692 0784 48000000 		.4byte	.LVL42
 1693 0788 72090000 		.4byte	0x972
 1694 078c 97070000 		.4byte	0x797
 1695 0790 14       		.uleb128 0x14
 1696 0791 01       		.uleb128 0x1
 1697 0792 50       		.byte	0x50
 1698 0793 02       		.uleb128 0x2
 1699 0794 74       		.byte	0x74
 1700 0795 00       		.sleb128 0
 1701 0796 00       		.byte	0
 1702 0797 13       		.uleb128 0x13
 1703 0798 56000000 		.4byte	.LVL43
 1704 079c 87090000 		.4byte	0x987
 1705 07a0 14       		.uleb128 0x14
 1706 07a1 01       		.uleb128 0x1
 1707 07a2 51       		.byte	0x51
 1708 07a3 01       		.uleb128 0x1
 1709 07a4 30       		.byte	0x30
 1710 07a5 00       		.byte	0
 1711 07a6 00       		.byte	0
 1712 07a7 17       		.uleb128 0x17
 1713 07a8 1C000000 		.4byte	.LVL37
 1714 07ac 0A090000 		.4byte	0x90a
 1715 07b0 BE070000 		.4byte	0x7be
 1716 07b4 14       		.uleb128 0x14
 1717 07b5 01       		.uleb128 0x1
 1718 07b6 50       		.byte	0x50
 1719 07b7 05       		.uleb128 0x5
 1720 07b8 03       		.byte	0x3
 1721 07b9 70000000 		.4byte	.LC6
 1722 07bd 00       		.byte	0
 1723 07be 13       		.uleb128 0x13
 1724 07bf 70000000 		.4byte	.LVL46
 1725 07c3 0A090000 		.4byte	0x90a
 1726 07c7 14       		.uleb128 0x14
 1727 07c8 01       		.uleb128 0x1
 1728 07c9 50       		.byte	0x50
 1729 07ca 05       		.uleb128 0x5
 1730 07cb 03       		.byte	0x3
 1731 07cc 5C000000 		.4byte	.LC5
ARM GAS  /tmp/cc8sJAS7.s 			page 32


 1732 07d0 00       		.byte	0
 1733 07d1 00       		.byte	0
 1734 07d2 1C       		.uleb128 0x1c
 1735 07d3 A1020000 		.4byte	.LASF78
 1736 07d7 01       		.byte	0x1
 1737 07d8 3D01     		.2byte	0x13d
 1738 07da 0F050000 		.4byte	0x50f
 1739 07de 00000000 		.4byte	.LFB6
 1740 07e2 74000000 		.4byte	.LFE6-.LFB6
 1741 07e6 01       		.uleb128 0x1
 1742 07e7 9C       		.byte	0x9c
 1743 07e8 8E080000 		.4byte	0x88e
 1744 07ec 1D       		.uleb128 0x1d
 1745 07ed 63747000 		.ascii	"ctp\000"
 1746 07f1 01       		.byte	0x1
 1747 07f2 3E01     		.2byte	0x13e
 1748 07f4 62020000 		.4byte	0x262
 1749 07f8 01       		.uleb128 0x1
 1750 07f9 55       		.byte	0x55
 1751 07fa 1E       		.uleb128 0x1e
 1752 07fb 756D7000 		.ascii	"ump\000"
 1753 07ff 01       		.byte	0x1
 1754 0800 3F01     		.2byte	0x13f
 1755 0802 0F050000 		.4byte	0x50f
 1756 0806 8A010000 		.4byte	.LLST11
 1757 080a 1E       		.uleb128 0x1e
 1758 080b 6D7000   		.ascii	"mp\000"
 1759 080e 01       		.byte	0x1
 1760 080f 3F01     		.2byte	0x13f
 1761 0811 0F050000 		.4byte	0x50f
 1762 0815 9D010000 		.4byte	.LLST12
 1763 0819 1F       		.uleb128 0x1f
 1764 081a 24000000 		.4byte	.LBB6
 1765 081e 2C000000 		.4byte	.LBE6-.LBB6
 1766 0822 63080000 		.4byte	0x863
 1767 0826 1E       		.uleb128 0x1e
 1768 0827 747000   		.ascii	"tp\000"
 1769 082a 01       		.byte	0x1
 1770 082b 4F01     		.2byte	0x14f
 1771 082d 62020000 		.4byte	0x262
 1772 0831 B0010000 		.4byte	.LLST13
 1773 0835 20       		.uleb128 0x20
 1774 0836 92010000 		.4byte	.LASF77
 1775 083a 01       		.byte	0x1
 1776 083b 5301     		.2byte	0x153
 1777 083d 01010000 		.4byte	0x101
 1778 0841 C3010000 		.4byte	.LLST14
 1779 0845 17       		.uleb128 0x17
 1780 0846 44000000 		.4byte	.LVL53
 1781 084a 72090000 		.4byte	0x972
 1782 084e 59080000 		.4byte	0x859
 1783 0852 14       		.uleb128 0x14
 1784 0853 01       		.uleb128 0x1
 1785 0854 50       		.byte	0x50
 1786 0855 02       		.uleb128 0x2
 1787 0856 74       		.byte	0x74
 1788 0857 00       		.sleb128 0
ARM GAS  /tmp/cc8sJAS7.s 			page 33


 1789 0858 00       		.byte	0
 1790 0859 19       		.uleb128 0x19
 1791 085a 50000000 		.4byte	.LVL54
 1792 085e 5D090000 		.4byte	0x95d
 1793 0862 00       		.byte	0
 1794 0863 17       		.uleb128 0x17
 1795 0864 18000000 		.4byte	.LVL48
 1796 0868 0A090000 		.4byte	0x90a
 1797 086c 7A080000 		.4byte	0x87a
 1798 0870 14       		.uleb128 0x14
 1799 0871 01       		.uleb128 0x1
 1800 0872 50       		.byte	0x50
 1801 0873 05       		.uleb128 0x5
 1802 0874 03       		.byte	0x3
 1803 0875 98000000 		.4byte	.LC8
 1804 0879 00       		.byte	0
 1805 087a 13       		.uleb128 0x13
 1806 087b 62000000 		.4byte	.LVL57
 1807 087f 0A090000 		.4byte	0x90a
 1808 0883 14       		.uleb128 0x14
 1809 0884 01       		.uleb128 0x1
 1810 0885 50       		.byte	0x50
 1811 0886 05       		.uleb128 0x5
 1812 0887 03       		.byte	0x3
 1813 0888 84000000 		.4byte	.LC7
 1814 088c 00       		.byte	0
 1815 088d 00       		.byte	0
 1816 088e 21       		.uleb128 0x21
 1817 088f 83010000 		.4byte	.LASF79
 1818 0893 01       		.byte	0x1
 1819 0894 7601     		.2byte	0x176
 1820 0896 00000000 		.4byte	.LFB7
 1821 089a 4C000000 		.4byte	.LFE7-.LFB7
 1822 089e 01       		.uleb128 0x1
 1823 089f 9C       		.byte	0x9c
 1824 08a0 FF080000 		.4byte	0x8ff
 1825 08a4 1E       		.uleb128 0x1e
 1826 08a5 63747000 		.ascii	"ctp\000"
 1827 08a9 01       		.byte	0x1
 1828 08aa 7701     		.2byte	0x177
 1829 08ac 62020000 		.4byte	0x262
 1830 08b0 D6010000 		.4byte	.LLST15
 1831 08b4 16       		.uleb128 0x16
 1832 08b5 20000000 		.4byte	.Ldebug_ranges0+0x20
 1833 08b9 F5080000 		.4byte	0x8f5
 1834 08bd 1E       		.uleb128 0x1e
 1835 08be 756D7000 		.ascii	"ump\000"
 1836 08c2 01       		.byte	0x1
 1837 08c3 7C01     		.2byte	0x17c
 1838 08c5 0F050000 		.4byte	0x50f
 1839 08c9 E9010000 		.4byte	.LLST16
 1840 08cd 22       		.uleb128 0x22
 1841 08ce 38000000 		.4byte	.Ldebug_ranges0+0x38
 1842 08d2 1E       		.uleb128 0x1e
 1843 08d3 747000   		.ascii	"tp\000"
 1844 08d6 01       		.byte	0x1
 1845 08d7 7F01     		.2byte	0x17f
ARM GAS  /tmp/cc8sJAS7.s 			page 34


 1846 08d9 62020000 		.4byte	0x262
 1847 08dd 1D020000 		.4byte	.LLST17
 1848 08e1 19       		.uleb128 0x19
 1849 08e2 16000000 		.4byte	.LVL60
 1850 08e6 72090000 		.4byte	0x972
 1851 08ea 19       		.uleb128 0x19
 1852 08eb 22000000 		.4byte	.LVL61
 1853 08ef 5D090000 		.4byte	0x95d
 1854 08f3 00       		.byte	0
 1855 08f4 00       		.byte	0
 1856 08f5 19       		.uleb128 0x19
 1857 08f6 42000000 		.4byte	.LVL66
 1858 08fa 9D090000 		.4byte	0x99d
 1859 08fe 00       		.byte	0
 1860 08ff 23       		.uleb128 0x23
 1861 0900 A4040000 		.4byte	.LASF90
 1862 0904 08       		.byte	0x8
 1863 0905 6F       		.byte	0x6f
 1864 0906 75040000 		.4byte	0x475
 1865 090a 24       		.uleb128 0x24
 1866 090b 06000000 		.4byte	.LASF80
 1867 090f 0A       		.byte	0xa
 1868 0910 F6       		.byte	0xf6
 1869 0911 1B090000 		.4byte	0x91b
 1870 0915 25       		.uleb128 0x25
 1871 0916 F7040000 		.4byte	0x4f7
 1872 091a 00       		.byte	0
 1873 091b 24       		.uleb128 0x24
 1874 091c 57040000 		.4byte	.LASF81
 1875 0920 05       		.byte	0x5
 1876 0921 77       		.byte	0x77
 1877 0922 31090000 		.4byte	0x931
 1878 0926 25       		.uleb128 0x25
 1879 0927 62020000 		.4byte	0x262
 1880 092b 25       		.uleb128 0x25
 1881 092c 31090000 		.4byte	0x931
 1882 0930 00       		.byte	0
 1883 0931 09       		.uleb128 0x9
 1884 0932 04       		.byte	0x4
 1885 0933 68020000 		.4byte	0x268
 1886 0937 24       		.uleb128 0x24
 1887 0938 CE030000 		.4byte	.LASF82
 1888 093c 08       		.byte	0x8
 1889 093d 93       		.byte	0x93
 1890 093e 48090000 		.4byte	0x948
 1891 0942 25       		.uleb128 0x25
 1892 0943 E0000000 		.4byte	0xe0
 1893 0947 00       		.byte	0
 1894 0948 26       		.uleb128 0x26
 1895 0949 06020000 		.4byte	.LASF83
 1896 094d 05       		.byte	0x5
 1897 094e 7B       		.byte	0x7b
 1898 094f 62020000 		.4byte	0x262
 1899 0953 5D090000 		.4byte	0x95d
 1900 0957 25       		.uleb128 0x25
 1901 0958 62020000 		.4byte	0x262
 1902 095c 00       		.byte	0
ARM GAS  /tmp/cc8sJAS7.s 			page 35


 1903 095d 26       		.uleb128 0x26
 1904 095e 25040000 		.4byte	.LASF84
 1905 0962 08       		.byte	0x8
 1906 0963 90       		.byte	0x90
 1907 0964 62020000 		.4byte	0x262
 1908 0968 72090000 		.4byte	0x972
 1909 096c 25       		.uleb128 0x25
 1910 096d 62020000 		.4byte	0x262
 1911 0971 00       		.byte	0
 1912 0972 26       		.uleb128 0x26
 1913 0973 FD030000 		.4byte	.LASF85
 1914 0977 05       		.byte	0x5
 1915 0978 79       		.byte	0x79
 1916 0979 62020000 		.4byte	0x262
 1917 097d 87090000 		.4byte	0x987
 1918 0981 25       		.uleb128 0x25
 1919 0982 31090000 		.4byte	0x931
 1920 0986 00       		.byte	0
 1921 0987 24       		.uleb128 0x24
 1922 0988 7C040000 		.4byte	.LASF86
 1923 098c 08       		.byte	0x8
 1924 098d 99       		.byte	0x99
 1925 098e 9D090000 		.4byte	0x99d
 1926 0992 25       		.uleb128 0x25
 1927 0993 62020000 		.4byte	0x262
 1928 0997 25       		.uleb128 0x25
 1929 0998 0C010000 		.4byte	0x10c
 1930 099c 00       		.byte	0
 1931 099d 27       		.uleb128 0x27
 1932 099e 0B010000 		.4byte	.LASF91
 1933 09a2 08       		.byte	0x8
 1934 09a3 9C       		.byte	0x9c
 1935 09a4 00       		.byte	0
 1936              		.section	.debug_abbrev,"",%progbits
 1937              	.Ldebug_abbrev0:
 1938 0000 01       		.uleb128 0x1
 1939 0001 11       		.uleb128 0x11
 1940 0002 01       		.byte	0x1
 1941 0003 25       		.uleb128 0x25
 1942 0004 0E       		.uleb128 0xe
 1943 0005 13       		.uleb128 0x13
 1944 0006 0B       		.uleb128 0xb
 1945 0007 03       		.uleb128 0x3
 1946 0008 0E       		.uleb128 0xe
 1947 0009 1B       		.uleb128 0x1b
 1948 000a 0E       		.uleb128 0xe
 1949 000b 55       		.uleb128 0x55
 1950 000c 17       		.uleb128 0x17
 1951 000d 11       		.uleb128 0x11
 1952 000e 01       		.uleb128 0x1
 1953 000f 10       		.uleb128 0x10
 1954 0010 17       		.uleb128 0x17
 1955 0011 00       		.byte	0
 1956 0012 00       		.byte	0
 1957 0013 02       		.uleb128 0x2
 1958 0014 24       		.uleb128 0x24
 1959 0015 00       		.byte	0
ARM GAS  /tmp/cc8sJAS7.s 			page 36


 1960 0016 0B       		.uleb128 0xb
 1961 0017 0B       		.uleb128 0xb
 1962 0018 3E       		.uleb128 0x3e
 1963 0019 0B       		.uleb128 0xb
 1964 001a 03       		.uleb128 0x3
 1965 001b 08       		.uleb128 0x8
 1966 001c 00       		.byte	0
 1967 001d 00       		.byte	0
 1968 001e 03       		.uleb128 0x3
 1969 001f 24       		.uleb128 0x24
 1970 0020 00       		.byte	0
 1971 0021 0B       		.uleb128 0xb
 1972 0022 0B       		.uleb128 0xb
 1973 0023 3E       		.uleb128 0x3e
 1974 0024 0B       		.uleb128 0xb
 1975 0025 03       		.uleb128 0x3
 1976 0026 0E       		.uleb128 0xe
 1977 0027 00       		.byte	0
 1978 0028 00       		.byte	0
 1979 0029 04       		.uleb128 0x4
 1980 002a 16       		.uleb128 0x16
 1981 002b 00       		.byte	0
 1982 002c 03       		.uleb128 0x3
 1983 002d 0E       		.uleb128 0xe
 1984 002e 3A       		.uleb128 0x3a
 1985 002f 0B       		.uleb128 0xb
 1986 0030 3B       		.uleb128 0x3b
 1987 0031 0B       		.uleb128 0xb
 1988 0032 49       		.uleb128 0x49
 1989 0033 13       		.uleb128 0x13
 1990 0034 00       		.byte	0
 1991 0035 00       		.byte	0
 1992 0036 05       		.uleb128 0x5
 1993 0037 13       		.uleb128 0x13
 1994 0038 01       		.byte	0x1
 1995 0039 03       		.uleb128 0x3
 1996 003a 0E       		.uleb128 0xe
 1997 003b 0B       		.uleb128 0xb
 1998 003c 0B       		.uleb128 0xb
 1999 003d 3A       		.uleb128 0x3a
 2000 003e 0B       		.uleb128 0xb
 2001 003f 3B       		.uleb128 0x3b
 2002 0040 0B       		.uleb128 0xb
 2003 0041 01       		.uleb128 0x1
 2004 0042 13       		.uleb128 0x13
 2005 0043 00       		.byte	0
 2006 0044 00       		.byte	0
 2007 0045 06       		.uleb128 0x6
 2008 0046 0D       		.uleb128 0xd
 2009 0047 00       		.byte	0
 2010 0048 03       		.uleb128 0x3
 2011 0049 0E       		.uleb128 0xe
 2012 004a 3A       		.uleb128 0x3a
 2013 004b 0B       		.uleb128 0xb
 2014 004c 3B       		.uleb128 0x3b
 2015 004d 0B       		.uleb128 0xb
 2016 004e 49       		.uleb128 0x49
ARM GAS  /tmp/cc8sJAS7.s 			page 37


 2017 004f 13       		.uleb128 0x13
 2018 0050 38       		.uleb128 0x38
 2019 0051 0B       		.uleb128 0xb
 2020 0052 00       		.byte	0
 2021 0053 00       		.byte	0
 2022 0054 07       		.uleb128 0x7
 2023 0055 0D       		.uleb128 0xd
 2024 0056 00       		.byte	0
 2025 0057 03       		.uleb128 0x3
 2026 0058 08       		.uleb128 0x8
 2027 0059 3A       		.uleb128 0x3a
 2028 005a 0B       		.uleb128 0xb
 2029 005b 3B       		.uleb128 0x3b
 2030 005c 0B       		.uleb128 0xb
 2031 005d 49       		.uleb128 0x49
 2032 005e 13       		.uleb128 0x13
 2033 005f 38       		.uleb128 0x38
 2034 0060 0B       		.uleb128 0xb
 2035 0061 00       		.byte	0
 2036 0062 00       		.byte	0
 2037 0063 08       		.uleb128 0x8
 2038 0064 13       		.uleb128 0x13
 2039 0065 01       		.byte	0x1
 2040 0066 0B       		.uleb128 0xb
 2041 0067 0B       		.uleb128 0xb
 2042 0068 3A       		.uleb128 0x3a
 2043 0069 0B       		.uleb128 0xb
 2044 006a 3B       		.uleb128 0x3b
 2045 006b 0B       		.uleb128 0xb
 2046 006c 01       		.uleb128 0x1
 2047 006d 13       		.uleb128 0x13
 2048 006e 00       		.byte	0
 2049 006f 00       		.byte	0
 2050 0070 09       		.uleb128 0x9
 2051 0071 0F       		.uleb128 0xf
 2052 0072 00       		.byte	0
 2053 0073 0B       		.uleb128 0xb
 2054 0074 0B       		.uleb128 0xb
 2055 0075 49       		.uleb128 0x49
 2056 0076 13       		.uleb128 0x13
 2057 0077 00       		.byte	0
 2058 0078 00       		.byte	0
 2059 0079 0A       		.uleb128 0xa
 2060 007a 0F       		.uleb128 0xf
 2061 007b 00       		.byte	0
 2062 007c 0B       		.uleb128 0xb
 2063 007d 0B       		.uleb128 0xb
 2064 007e 00       		.byte	0
 2065 007f 00       		.byte	0
 2066 0080 0B       		.uleb128 0xb
 2067 0081 13       		.uleb128 0x13
 2068 0082 01       		.byte	0x1
 2069 0083 03       		.uleb128 0x3
 2070 0084 0E       		.uleb128 0xe
 2071 0085 0B       		.uleb128 0xb
 2072 0086 0B       		.uleb128 0xb
 2073 0087 3A       		.uleb128 0x3a
ARM GAS  /tmp/cc8sJAS7.s 			page 38


 2074 0088 0B       		.uleb128 0xb
 2075 0089 3B       		.uleb128 0x3b
 2076 008a 05       		.uleb128 0x5
 2077 008b 01       		.uleb128 0x1
 2078 008c 13       		.uleb128 0x13
 2079 008d 00       		.byte	0
 2080 008e 00       		.byte	0
 2081 008f 0C       		.uleb128 0xc
 2082 0090 0D       		.uleb128 0xd
 2083 0091 00       		.byte	0
 2084 0092 03       		.uleb128 0x3
 2085 0093 08       		.uleb128 0x8
 2086 0094 3A       		.uleb128 0x3a
 2087 0095 0B       		.uleb128 0xb
 2088 0096 3B       		.uleb128 0x3b
 2089 0097 05       		.uleb128 0x5
 2090 0098 49       		.uleb128 0x49
 2091 0099 13       		.uleb128 0x13
 2092 009a 38       		.uleb128 0x38
 2093 009b 0B       		.uleb128 0xb
 2094 009c 00       		.byte	0
 2095 009d 00       		.byte	0
 2096 009e 0D       		.uleb128 0xd
 2097 009f 35       		.uleb128 0x35
 2098 00a0 00       		.byte	0
 2099 00a1 49       		.uleb128 0x49
 2100 00a2 13       		.uleb128 0x13
 2101 00a3 00       		.byte	0
 2102 00a4 00       		.byte	0
 2103 00a5 0E       		.uleb128 0xe
 2104 00a6 17       		.uleb128 0x17
 2105 00a7 01       		.byte	0x1
 2106 00a8 0B       		.uleb128 0xb
 2107 00a9 0B       		.uleb128 0xb
 2108 00aa 3A       		.uleb128 0x3a
 2109 00ab 0B       		.uleb128 0xb
 2110 00ac 3B       		.uleb128 0x3b
 2111 00ad 0B       		.uleb128 0xb
 2112 00ae 01       		.uleb128 0x1
 2113 00af 13       		.uleb128 0x13
 2114 00b0 00       		.byte	0
 2115 00b1 00       		.byte	0
 2116 00b2 0F       		.uleb128 0xf
 2117 00b3 0D       		.uleb128 0xd
 2118 00b4 00       		.byte	0
 2119 00b5 03       		.uleb128 0x3
 2120 00b6 0E       		.uleb128 0xe
 2121 00b7 3A       		.uleb128 0x3a
 2122 00b8 0B       		.uleb128 0xb
 2123 00b9 3B       		.uleb128 0x3b
 2124 00ba 0B       		.uleb128 0xb
 2125 00bb 49       		.uleb128 0x49
 2126 00bc 13       		.uleb128 0x13
 2127 00bd 00       		.byte	0
 2128 00be 00       		.byte	0
 2129 00bf 10       		.uleb128 0x10
 2130 00c0 26       		.uleb128 0x26
ARM GAS  /tmp/cc8sJAS7.s 			page 39


 2131 00c1 00       		.byte	0
 2132 00c2 49       		.uleb128 0x49
 2133 00c3 13       		.uleb128 0x13
 2134 00c4 00       		.byte	0
 2135 00c5 00       		.byte	0
 2136 00c6 11       		.uleb128 0x11
 2137 00c7 2E       		.uleb128 0x2e
 2138 00c8 01       		.byte	0x1
 2139 00c9 3F       		.uleb128 0x3f
 2140 00ca 19       		.uleb128 0x19
 2141 00cb 03       		.uleb128 0x3
 2142 00cc 0E       		.uleb128 0xe
 2143 00cd 3A       		.uleb128 0x3a
 2144 00ce 0B       		.uleb128 0xb
 2145 00cf 3B       		.uleb128 0x3b
 2146 00d0 0B       		.uleb128 0xb
 2147 00d1 27       		.uleb128 0x27
 2148 00d2 19       		.uleb128 0x19
 2149 00d3 11       		.uleb128 0x11
 2150 00d4 01       		.uleb128 0x1
 2151 00d5 12       		.uleb128 0x12
 2152 00d6 06       		.uleb128 0x6
 2153 00d7 40       		.uleb128 0x40
 2154 00d8 18       		.uleb128 0x18
 2155 00d9 9742     		.uleb128 0x2117
 2156 00db 19       		.uleb128 0x19
 2157 00dc 01       		.uleb128 0x1
 2158 00dd 13       		.uleb128 0x13
 2159 00de 00       		.byte	0
 2160 00df 00       		.byte	0
 2161 00e0 12       		.uleb128 0x12
 2162 00e1 05       		.uleb128 0x5
 2163 00e2 00       		.byte	0
 2164 00e3 03       		.uleb128 0x3
 2165 00e4 08       		.uleb128 0x8
 2166 00e5 3A       		.uleb128 0x3a
 2167 00e6 0B       		.uleb128 0xb
 2168 00e7 3B       		.uleb128 0x3b
 2169 00e8 0B       		.uleb128 0xb
 2170 00e9 49       		.uleb128 0x49
 2171 00ea 13       		.uleb128 0x13
 2172 00eb 02       		.uleb128 0x2
 2173 00ec 17       		.uleb128 0x17
 2174 00ed 00       		.byte	0
 2175 00ee 00       		.byte	0
 2176 00ef 13       		.uleb128 0x13
 2177 00f0 898201   		.uleb128 0x4109
 2178 00f3 01       		.byte	0x1
 2179 00f4 11       		.uleb128 0x11
 2180 00f5 01       		.uleb128 0x1
 2181 00f6 31       		.uleb128 0x31
 2182 00f7 13       		.uleb128 0x13
 2183 00f8 00       		.byte	0
 2184 00f9 00       		.byte	0
 2185 00fa 14       		.uleb128 0x14
 2186 00fb 8A8201   		.uleb128 0x410a
 2187 00fe 00       		.byte	0
ARM GAS  /tmp/cc8sJAS7.s 			page 40


 2188 00ff 02       		.uleb128 0x2
 2189 0100 18       		.uleb128 0x18
 2190 0101 9142     		.uleb128 0x2111
 2191 0103 18       		.uleb128 0x18
 2192 0104 00       		.byte	0
 2193 0105 00       		.byte	0
 2194 0106 15       		.uleb128 0x15
 2195 0107 34       		.uleb128 0x34
 2196 0108 00       		.byte	0
 2197 0109 03       		.uleb128 0x3
 2198 010a 08       		.uleb128 0x8
 2199 010b 3A       		.uleb128 0x3a
 2200 010c 0B       		.uleb128 0xb
 2201 010d 3B       		.uleb128 0x3b
 2202 010e 0B       		.uleb128 0xb
 2203 010f 49       		.uleb128 0x49
 2204 0110 13       		.uleb128 0x13
 2205 0111 02       		.uleb128 0x2
 2206 0112 17       		.uleb128 0x17
 2207 0113 00       		.byte	0
 2208 0114 00       		.byte	0
 2209 0115 16       		.uleb128 0x16
 2210 0116 0B       		.uleb128 0xb
 2211 0117 01       		.byte	0x1
 2212 0118 55       		.uleb128 0x55
 2213 0119 17       		.uleb128 0x17
 2214 011a 01       		.uleb128 0x1
 2215 011b 13       		.uleb128 0x13
 2216 011c 00       		.byte	0
 2217 011d 00       		.byte	0
 2218 011e 17       		.uleb128 0x17
 2219 011f 898201   		.uleb128 0x4109
 2220 0122 01       		.byte	0x1
 2221 0123 11       		.uleb128 0x11
 2222 0124 01       		.uleb128 0x1
 2223 0125 31       		.uleb128 0x31
 2224 0126 13       		.uleb128 0x13
 2225 0127 01       		.uleb128 0x1
 2226 0128 13       		.uleb128 0x13
 2227 0129 00       		.byte	0
 2228 012a 00       		.byte	0
 2229 012b 18       		.uleb128 0x18
 2230 012c 898201   		.uleb128 0x4109
 2231 012f 01       		.byte	0x1
 2232 0130 11       		.uleb128 0x11
 2233 0131 01       		.uleb128 0x1
 2234 0132 9542     		.uleb128 0x2115
 2235 0134 19       		.uleb128 0x19
 2236 0135 31       		.uleb128 0x31
 2237 0136 13       		.uleb128 0x13
 2238 0137 01       		.uleb128 0x1
 2239 0138 13       		.uleb128 0x13
 2240 0139 00       		.byte	0
 2241 013a 00       		.byte	0
 2242 013b 19       		.uleb128 0x19
 2243 013c 898201   		.uleb128 0x4109
 2244 013f 00       		.byte	0
ARM GAS  /tmp/cc8sJAS7.s 			page 41


 2245 0140 11       		.uleb128 0x11
 2246 0141 01       		.uleb128 0x1
 2247 0142 31       		.uleb128 0x31
 2248 0143 13       		.uleb128 0x13
 2249 0144 00       		.byte	0
 2250 0145 00       		.byte	0
 2251 0146 1A       		.uleb128 0x1a
 2252 0147 2E       		.uleb128 0x2e
 2253 0148 01       		.byte	0x1
 2254 0149 3F       		.uleb128 0x3f
 2255 014a 19       		.uleb128 0x19
 2256 014b 03       		.uleb128 0x3
 2257 014c 0E       		.uleb128 0xe
 2258 014d 3A       		.uleb128 0x3a
 2259 014e 0B       		.uleb128 0xb
 2260 014f 3B       		.uleb128 0x3b
 2261 0150 0B       		.uleb128 0xb
 2262 0151 27       		.uleb128 0x27
 2263 0152 19       		.uleb128 0x19
 2264 0153 49       		.uleb128 0x49
 2265 0154 13       		.uleb128 0x13
 2266 0155 11       		.uleb128 0x11
 2267 0156 01       		.uleb128 0x1
 2268 0157 12       		.uleb128 0x12
 2269 0158 06       		.uleb128 0x6
 2270 0159 40       		.uleb128 0x40
 2271 015a 18       		.uleb128 0x18
 2272 015b 9742     		.uleb128 0x2117
 2273 015d 19       		.uleb128 0x19
 2274 015e 01       		.uleb128 0x1
 2275 015f 13       		.uleb128 0x13
 2276 0160 00       		.byte	0
 2277 0161 00       		.byte	0
 2278 0162 1B       		.uleb128 0x1b
 2279 0163 34       		.uleb128 0x34
 2280 0164 00       		.byte	0
 2281 0165 03       		.uleb128 0x3
 2282 0166 08       		.uleb128 0x8
 2283 0167 3A       		.uleb128 0x3a
 2284 0168 0B       		.uleb128 0xb
 2285 0169 3B       		.uleb128 0x3b
 2286 016a 0B       		.uleb128 0xb
 2287 016b 49       		.uleb128 0x49
 2288 016c 13       		.uleb128 0x13
 2289 016d 02       		.uleb128 0x2
 2290 016e 18       		.uleb128 0x18
 2291 016f 00       		.byte	0
 2292 0170 00       		.byte	0
 2293 0171 1C       		.uleb128 0x1c
 2294 0172 2E       		.uleb128 0x2e
 2295 0173 01       		.byte	0x1
 2296 0174 3F       		.uleb128 0x3f
 2297 0175 19       		.uleb128 0x19
 2298 0176 03       		.uleb128 0x3
 2299 0177 0E       		.uleb128 0xe
 2300 0178 3A       		.uleb128 0x3a
 2301 0179 0B       		.uleb128 0xb
ARM GAS  /tmp/cc8sJAS7.s 			page 42


 2302 017a 3B       		.uleb128 0x3b
 2303 017b 05       		.uleb128 0x5
 2304 017c 27       		.uleb128 0x27
 2305 017d 19       		.uleb128 0x19
 2306 017e 49       		.uleb128 0x49
 2307 017f 13       		.uleb128 0x13
 2308 0180 11       		.uleb128 0x11
 2309 0181 01       		.uleb128 0x1
 2310 0182 12       		.uleb128 0x12
 2311 0183 06       		.uleb128 0x6
 2312 0184 40       		.uleb128 0x40
 2313 0185 18       		.uleb128 0x18
 2314 0186 9742     		.uleb128 0x2117
 2315 0188 19       		.uleb128 0x19
 2316 0189 01       		.uleb128 0x1
 2317 018a 13       		.uleb128 0x13
 2318 018b 00       		.byte	0
 2319 018c 00       		.byte	0
 2320 018d 1D       		.uleb128 0x1d
 2321 018e 34       		.uleb128 0x34
 2322 018f 00       		.byte	0
 2323 0190 03       		.uleb128 0x3
 2324 0191 08       		.uleb128 0x8
 2325 0192 3A       		.uleb128 0x3a
 2326 0193 0B       		.uleb128 0xb
 2327 0194 3B       		.uleb128 0x3b
 2328 0195 05       		.uleb128 0x5
 2329 0196 49       		.uleb128 0x49
 2330 0197 13       		.uleb128 0x13
 2331 0198 02       		.uleb128 0x2
 2332 0199 18       		.uleb128 0x18
 2333 019a 00       		.byte	0
 2334 019b 00       		.byte	0
 2335 019c 1E       		.uleb128 0x1e
 2336 019d 34       		.uleb128 0x34
 2337 019e 00       		.byte	0
 2338 019f 03       		.uleb128 0x3
 2339 01a0 08       		.uleb128 0x8
 2340 01a1 3A       		.uleb128 0x3a
 2341 01a2 0B       		.uleb128 0xb
 2342 01a3 3B       		.uleb128 0x3b
 2343 01a4 05       		.uleb128 0x5
 2344 01a5 49       		.uleb128 0x49
 2345 01a6 13       		.uleb128 0x13
 2346 01a7 02       		.uleb128 0x2
 2347 01a8 17       		.uleb128 0x17
 2348 01a9 00       		.byte	0
 2349 01aa 00       		.byte	0
 2350 01ab 1F       		.uleb128 0x1f
 2351 01ac 0B       		.uleb128 0xb
 2352 01ad 01       		.byte	0x1
 2353 01ae 11       		.uleb128 0x11
 2354 01af 01       		.uleb128 0x1
 2355 01b0 12       		.uleb128 0x12
 2356 01b1 06       		.uleb128 0x6
 2357 01b2 01       		.uleb128 0x1
 2358 01b3 13       		.uleb128 0x13
ARM GAS  /tmp/cc8sJAS7.s 			page 43


 2359 01b4 00       		.byte	0
 2360 01b5 00       		.byte	0
 2361 01b6 20       		.uleb128 0x20
 2362 01b7 34       		.uleb128 0x34
 2363 01b8 00       		.byte	0
 2364 01b9 03       		.uleb128 0x3
 2365 01ba 0E       		.uleb128 0xe
 2366 01bb 3A       		.uleb128 0x3a
 2367 01bc 0B       		.uleb128 0xb
 2368 01bd 3B       		.uleb128 0x3b
 2369 01be 05       		.uleb128 0x5
 2370 01bf 49       		.uleb128 0x49
 2371 01c0 13       		.uleb128 0x13
 2372 01c1 02       		.uleb128 0x2
 2373 01c2 17       		.uleb128 0x17
 2374 01c3 00       		.byte	0
 2375 01c4 00       		.byte	0
 2376 01c5 21       		.uleb128 0x21
 2377 01c6 2E       		.uleb128 0x2e
 2378 01c7 01       		.byte	0x1
 2379 01c8 3F       		.uleb128 0x3f
 2380 01c9 19       		.uleb128 0x19
 2381 01ca 03       		.uleb128 0x3
 2382 01cb 0E       		.uleb128 0xe
 2383 01cc 3A       		.uleb128 0x3a
 2384 01cd 0B       		.uleb128 0xb
 2385 01ce 3B       		.uleb128 0x3b
 2386 01cf 05       		.uleb128 0x5
 2387 01d0 27       		.uleb128 0x27
 2388 01d1 19       		.uleb128 0x19
 2389 01d2 11       		.uleb128 0x11
 2390 01d3 01       		.uleb128 0x1
 2391 01d4 12       		.uleb128 0x12
 2392 01d5 06       		.uleb128 0x6
 2393 01d6 40       		.uleb128 0x40
 2394 01d7 18       		.uleb128 0x18
 2395 01d8 9742     		.uleb128 0x2117
 2396 01da 19       		.uleb128 0x19
 2397 01db 01       		.uleb128 0x1
 2398 01dc 13       		.uleb128 0x13
 2399 01dd 00       		.byte	0
 2400 01de 00       		.byte	0
 2401 01df 22       		.uleb128 0x22
 2402 01e0 0B       		.uleb128 0xb
 2403 01e1 01       		.byte	0x1
 2404 01e2 55       		.uleb128 0x55
 2405 01e3 17       		.uleb128 0x17
 2406 01e4 00       		.byte	0
 2407 01e5 00       		.byte	0
 2408 01e6 23       		.uleb128 0x23
 2409 01e7 34       		.uleb128 0x34
 2410 01e8 00       		.byte	0
 2411 01e9 03       		.uleb128 0x3
 2412 01ea 0E       		.uleb128 0xe
 2413 01eb 3A       		.uleb128 0x3a
 2414 01ec 0B       		.uleb128 0xb
 2415 01ed 3B       		.uleb128 0x3b
ARM GAS  /tmp/cc8sJAS7.s 			page 44


 2416 01ee 0B       		.uleb128 0xb
 2417 01ef 49       		.uleb128 0x49
 2418 01f0 13       		.uleb128 0x13
 2419 01f1 3F       		.uleb128 0x3f
 2420 01f2 19       		.uleb128 0x19
 2421 01f3 3C       		.uleb128 0x3c
 2422 01f4 19       		.uleb128 0x19
 2423 01f5 00       		.byte	0
 2424 01f6 00       		.byte	0
 2425 01f7 24       		.uleb128 0x24
 2426 01f8 2E       		.uleb128 0x2e
 2427 01f9 01       		.byte	0x1
 2428 01fa 3F       		.uleb128 0x3f
 2429 01fb 19       		.uleb128 0x19
 2430 01fc 03       		.uleb128 0x3
 2431 01fd 0E       		.uleb128 0xe
 2432 01fe 3A       		.uleb128 0x3a
 2433 01ff 0B       		.uleb128 0xb
 2434 0200 3B       		.uleb128 0x3b
 2435 0201 0B       		.uleb128 0xb
 2436 0202 27       		.uleb128 0x27
 2437 0203 19       		.uleb128 0x19
 2438 0204 3C       		.uleb128 0x3c
 2439 0205 19       		.uleb128 0x19
 2440 0206 01       		.uleb128 0x1
 2441 0207 13       		.uleb128 0x13
 2442 0208 00       		.byte	0
 2443 0209 00       		.byte	0
 2444 020a 25       		.uleb128 0x25
 2445 020b 05       		.uleb128 0x5
 2446 020c 00       		.byte	0
 2447 020d 49       		.uleb128 0x49
 2448 020e 13       		.uleb128 0x13
 2449 020f 00       		.byte	0
 2450 0210 00       		.byte	0
 2451 0211 26       		.uleb128 0x26
 2452 0212 2E       		.uleb128 0x2e
 2453 0213 01       		.byte	0x1
 2454 0214 3F       		.uleb128 0x3f
 2455 0215 19       		.uleb128 0x19
 2456 0216 03       		.uleb128 0x3
 2457 0217 0E       		.uleb128 0xe
 2458 0218 3A       		.uleb128 0x3a
 2459 0219 0B       		.uleb128 0xb
 2460 021a 3B       		.uleb128 0x3b
 2461 021b 0B       		.uleb128 0xb
 2462 021c 27       		.uleb128 0x27
 2463 021d 19       		.uleb128 0x19
 2464 021e 49       		.uleb128 0x49
 2465 021f 13       		.uleb128 0x13
 2466 0220 3C       		.uleb128 0x3c
 2467 0221 19       		.uleb128 0x19
 2468 0222 01       		.uleb128 0x1
 2469 0223 13       		.uleb128 0x13
 2470 0224 00       		.byte	0
 2471 0225 00       		.byte	0
 2472 0226 27       		.uleb128 0x27
ARM GAS  /tmp/cc8sJAS7.s 			page 45


 2473 0227 2E       		.uleb128 0x2e
 2474 0228 00       		.byte	0
 2475 0229 3F       		.uleb128 0x3f
 2476 022a 19       		.uleb128 0x19
 2477 022b 03       		.uleb128 0x3
 2478 022c 0E       		.uleb128 0xe
 2479 022d 3A       		.uleb128 0x3a
 2480 022e 0B       		.uleb128 0xb
 2481 022f 3B       		.uleb128 0x3b
 2482 0230 0B       		.uleb128 0xb
 2483 0231 27       		.uleb128 0x27
 2484 0232 19       		.uleb128 0x19
 2485 0233 3C       		.uleb128 0x3c
 2486 0234 19       		.uleb128 0x19
 2487 0235 00       		.byte	0
 2488 0236 00       		.byte	0
 2489 0237 00       		.byte	0
 2490              		.section	.debug_loc,"",%progbits
 2491              	.Ldebug_loc0:
 2492              	.LLST0:
 2493 0000 00000000 		.4byte	.LVL0
 2494 0004 06000000 		.4byte	.LVL1
 2495 0008 0100     		.2byte	0x1
 2496 000a 50       		.byte	0x50
 2497 000b 06000000 		.4byte	.LVL1
 2498 000f 10000000 		.4byte	.LVL2
 2499 0013 0100     		.2byte	0x1
 2500 0015 54       		.byte	0x54
 2501 0016 10000000 		.4byte	.LVL2
 2502 001a 12000000 		.4byte	.LVL3
 2503 001e 0100     		.2byte	0x1
 2504 0020 50       		.byte	0x50
 2505 0021 12000000 		.4byte	.LVL3
 2506 0025 1C000000 		.4byte	.LFE0
 2507 0029 0100     		.2byte	0x1
 2508 002b 54       		.byte	0x54
 2509 002c 00000000 		.4byte	0
 2510 0030 00000000 		.4byte	0
 2511              	.LLST1:
 2512 0034 00000000 		.4byte	.LVL5
 2513 0038 0C000000 		.4byte	.LVL7
 2514 003c 0100     		.2byte	0x1
 2515 003e 50       		.byte	0x50
 2516 003f 0C000000 		.4byte	.LVL7
 2517 0043 50000000 		.4byte	.LVL12
 2518 0047 0100     		.2byte	0x1
 2519 0049 55       		.byte	0x55
 2520 004a 50000000 		.4byte	.LVL12
 2521 004e 54000000 		.4byte	.LVL13
 2522 0052 0400     		.2byte	0x4
 2523 0054 F3       		.byte	0xf3
 2524 0055 01       		.uleb128 0x1
 2525 0056 50       		.byte	0x50
 2526 0057 9F       		.byte	0x9f
 2527 0058 54000000 		.4byte	.LVL13
 2528 005c 98000000 		.4byte	.LVL23
 2529 0060 0100     		.2byte	0x1
ARM GAS  /tmp/cc8sJAS7.s 			page 46


 2530 0062 55       		.byte	0x55
 2531 0063 98000000 		.4byte	.LVL23
 2532 0067 9A000000 		.4byte	.LVL24
 2533 006b 0100     		.2byte	0x1
 2534 006d 50       		.byte	0x50
 2535 006e 9A000000 		.4byte	.LVL24
 2536 0072 B0000000 		.4byte	.LFE2
 2537 0076 0100     		.2byte	0x1
 2538 0078 55       		.byte	0x55
 2539 0079 00000000 		.4byte	0
 2540 007d 00000000 		.4byte	0
 2541              	.LLST2:
 2542 0081 08000000 		.4byte	.LVL6
 2543 0085 50000000 		.4byte	.LVL12
 2544 0089 0100     		.2byte	0x1
 2545 008b 56       		.byte	0x56
 2546 008c 54000000 		.4byte	.LVL13
 2547 0090 B0000000 		.4byte	.LFE2
 2548 0094 0100     		.2byte	0x1
 2549 0096 56       		.byte	0x56
 2550 0097 00000000 		.4byte	0
 2551 009b 00000000 		.4byte	0
 2552              	.LLST3:
 2553 009f 10000000 		.4byte	.LVL8
 2554 00a3 50000000 		.4byte	.LVL12
 2555 00a7 0100     		.2byte	0x1
 2556 00a9 54       		.byte	0x54
 2557 00aa 54000000 		.4byte	.LVL13
 2558 00ae 66000000 		.4byte	.LVL16
 2559 00b2 0100     		.2byte	0x1
 2560 00b4 54       		.byte	0x54
 2561 00b5 70000000 		.4byte	.LVL17
 2562 00b9 98000000 		.4byte	.LVL23
 2563 00bd 0100     		.2byte	0x1
 2564 00bf 54       		.byte	0x54
 2565 00c0 00000000 		.4byte	0
 2566 00c4 00000000 		.4byte	0
 2567              	.LLST4:
 2568 00c8 00000000 		.4byte	.LVL26
 2569 00cc 09000000 		.4byte	.LVL27-1
 2570 00d0 0100     		.2byte	0x1
 2571 00d2 50       		.byte	0x50
 2572 00d3 09000000 		.4byte	.LVL27-1
 2573 00d7 10000000 		.4byte	.LFE1
 2574 00db 0400     		.2byte	0x4
 2575 00dd F3       		.byte	0xf3
 2576 00de 01       		.uleb128 0x1
 2577 00df 50       		.byte	0x50
 2578 00e0 9F       		.byte	0x9f
 2579 00e1 00000000 		.4byte	0
 2580 00e5 00000000 		.4byte	0
 2581              	.LLST5:
 2582 00e9 00000000 		.4byte	.LVL28
 2583 00ed 06000000 		.4byte	.LVL29
 2584 00f1 0100     		.2byte	0x1
 2585 00f3 50       		.byte	0x50
 2586 00f4 06000000 		.4byte	.LVL29
ARM GAS  /tmp/cc8sJAS7.s 			page 47


 2587 00f8 1E000000 		.4byte	.LVL31
 2588 00fc 0100     		.2byte	0x1
 2589 00fe 54       		.byte	0x54
 2590 00ff 1E000000 		.4byte	.LVL31
 2591 0103 20000000 		.4byte	.LVL32
 2592 0107 0100     		.2byte	0x1
 2593 0109 50       		.byte	0x50
 2594 010a 20000000 		.4byte	.LVL32
 2595 010e 30000000 		.4byte	.LFE4
 2596 0112 0100     		.2byte	0x1
 2597 0114 54       		.byte	0x54
 2598 0115 00000000 		.4byte	0
 2599 0119 00000000 		.4byte	0
 2600              	.LLST6:
 2601 011d 00000000 		.4byte	.LVL34
 2602 0121 09000000 		.4byte	.LVL35-1
 2603 0125 0100     		.2byte	0x1
 2604 0127 50       		.byte	0x50
 2605 0128 09000000 		.4byte	.LVL35-1
 2606 012c 10000000 		.4byte	.LFE3
 2607 0130 0400     		.2byte	0x4
 2608 0132 F3       		.byte	0xf3
 2609 0133 01       		.uleb128 0x1
 2610 0134 50       		.byte	0x50
 2611 0135 9F       		.byte	0x9f
 2612 0136 00000000 		.4byte	0
 2613 013a 00000000 		.4byte	0
 2614              	.LLST7:
 2615 013e 1E000000 		.4byte	.LVL38
 2616 0142 6A000000 		.4byte	.LVL45
 2617 0146 0100     		.2byte	0x1
 2618 0148 54       		.byte	0x54
 2619 0149 00000000 		.4byte	0
 2620 014d 00000000 		.4byte	0
 2621              	.LLST8:
 2622 0151 2A000000 		.4byte	.LVL39
 2623 0155 47000000 		.4byte	.LVL42-1
 2624 0159 0100     		.2byte	0x1
 2625 015b 53       		.byte	0x53
 2626 015c 00000000 		.4byte	0
 2627 0160 00000000 		.4byte	0
 2628              	.LLST9:
 2629 0164 48000000 		.4byte	.LVL42
 2630 0168 55000000 		.4byte	.LVL43-1
 2631 016c 0100     		.2byte	0x1
 2632 016e 50       		.byte	0x50
 2633 016f 00000000 		.4byte	0
 2634 0173 00000000 		.4byte	0
 2635              	.LLST10:
 2636 0177 2A000000 		.4byte	.LVL39
 2637 017b 47000000 		.4byte	.LVL42-1
 2638 017f 0100     		.2byte	0x1
 2639 0181 51       		.byte	0x51
 2640 0182 00000000 		.4byte	0
 2641 0186 00000000 		.4byte	0
 2642              	.LLST11:
 2643 018a 1A000000 		.4byte	.LVL49
ARM GAS  /tmp/cc8sJAS7.s 			page 48


 2644 018e 5C000000 		.4byte	.LVL56
 2645 0192 0100     		.2byte	0x1
 2646 0194 54       		.byte	0x54
 2647 0195 00000000 		.4byte	0
 2648 0199 00000000 		.4byte	0
 2649              	.LLST12:
 2650 019d 26000000 		.4byte	.LVL50
 2651 01a1 43000000 		.4byte	.LVL53-1
 2652 01a5 0100     		.2byte	0x1
 2653 01a7 53       		.byte	0x53
 2654 01a8 00000000 		.4byte	0
 2655 01ac 00000000 		.4byte	0
 2656              	.LLST13:
 2657 01b0 44000000 		.4byte	.LVL53
 2658 01b4 4F000000 		.4byte	.LVL54-1
 2659 01b8 0100     		.2byte	0x1
 2660 01ba 50       		.byte	0x50
 2661 01bb 00000000 		.4byte	0
 2662 01bf 00000000 		.4byte	0
 2663              	.LLST14:
 2664 01c3 26000000 		.4byte	.LVL50
 2665 01c7 43000000 		.4byte	.LVL53-1
 2666 01cb 0100     		.2byte	0x1
 2667 01cd 51       		.byte	0x51
 2668 01ce 00000000 		.4byte	0
 2669 01d2 00000000 		.4byte	0
 2670              	.LLST15:
 2671 01d6 06000000 		.4byte	.LVL58
 2672 01da 48000000 		.4byte	.LVL67
 2673 01de 0100     		.2byte	0x1
 2674 01e0 55       		.byte	0x55
 2675 01e1 00000000 		.4byte	0
 2676 01e5 00000000 		.4byte	0
 2677              	.LLST16:
 2678 01e9 12000000 		.4byte	.LVL59
 2679 01ed 15000000 		.4byte	.LVL60-1
 2680 01f1 0100     		.2byte	0x1
 2681 01f3 50       		.byte	0x50
 2682 01f4 15000000 		.4byte	.LVL60-1
 2683 01f8 24000000 		.4byte	.LVL62
 2684 01fc 0100     		.2byte	0x1
 2685 01fe 54       		.byte	0x54
 2686 01ff 26000000 		.4byte	.LVL63
 2687 0203 36000000 		.4byte	.LVL64
 2688 0207 0100     		.2byte	0x1
 2689 0209 54       		.byte	0x54
 2690 020a 36000000 		.4byte	.LVL64
 2691 020e 3A000000 		.4byte	.LVL65
 2692 0212 0100     		.2byte	0x1
 2693 0214 50       		.byte	0x50
 2694 0215 00000000 		.4byte	0
 2695 0219 00000000 		.4byte	0
 2696              	.LLST17:
 2697 021d 16000000 		.4byte	.LVL60
 2698 0221 21000000 		.4byte	.LVL61-1
 2699 0225 0100     		.2byte	0x1
 2700 0227 50       		.byte	0x50
ARM GAS  /tmp/cc8sJAS7.s 			page 49


 2701 0228 00000000 		.4byte	0
 2702 022c 00000000 		.4byte	0
 2703              		.section	.debug_aranges,"",%progbits
 2704 0000 54000000 		.4byte	0x54
 2705 0004 0200     		.2byte	0x2
 2706 0006 00000000 		.4byte	.Ldebug_info0
 2707 000a 04       		.byte	0x4
 2708 000b 00       		.byte	0
 2709 000c 0000     		.2byte	0
 2710 000e 0000     		.2byte	0
 2711 0010 00000000 		.4byte	.LFB0
 2712 0014 1C000000 		.4byte	.LFE0-.LFB0
 2713 0018 00000000 		.4byte	.LFB2
 2714 001c B0000000 		.4byte	.LFE2-.LFB2
 2715 0020 00000000 		.4byte	.LFB1
 2716 0024 10000000 		.4byte	.LFE1-.LFB1
 2717 0028 00000000 		.4byte	.LFB4
 2718 002c 30000000 		.4byte	.LFE4-.LFB4
 2719 0030 00000000 		.4byte	.LFB3
 2720 0034 10000000 		.4byte	.LFE3-.LFB3
 2721 0038 00000000 		.4byte	.LFB5
 2722 003c 80000000 		.4byte	.LFE5-.LFB5
 2723 0040 00000000 		.4byte	.LFB6
 2724 0044 74000000 		.4byte	.LFE6-.LFB6
 2725 0048 00000000 		.4byte	.LFB7
 2726 004c 4C000000 		.4byte	.LFE7-.LFB7
 2727 0050 00000000 		.4byte	0
 2728 0054 00000000 		.4byte	0
 2729              		.section	.debug_ranges,"",%progbits
 2730              	.Ldebug_ranges0:
 2731 0000 10000000 		.4byte	.LBB2
 2732 0004 4C000000 		.4byte	.LBE2
 2733 0008 50000000 		.4byte	.LBB3
 2734 000c 66000000 		.4byte	.LBE3
 2735 0010 70000000 		.4byte	.LBB4
 2736 0014 98000000 		.4byte	.LBE4
 2737 0018 00000000 		.4byte	0
 2738 001c 00000000 		.4byte	0
 2739 0020 0E000000 		.4byte	.LBB7
 2740 0024 22000000 		.4byte	.LBE7
 2741 0028 26000000 		.4byte	.LBB10
 2742 002c 34000000 		.4byte	.LBE10
 2743 0030 00000000 		.4byte	0
 2744 0034 00000000 		.4byte	0
 2745 0038 12000000 		.4byte	.LBB8
 2746 003c 22000000 		.4byte	.LBE8
 2747 0040 2E000000 		.4byte	.LBB9
 2748 0044 30000000 		.4byte	.LBE9
 2749 0048 00000000 		.4byte	0
 2750 004c 00000000 		.4byte	0
 2751 0050 00000000 		.4byte	.LFB0
 2752 0054 1C000000 		.4byte	.LFE0
 2753 0058 00000000 		.4byte	.LFB2
 2754 005c B0000000 		.4byte	.LFE2
 2755 0060 00000000 		.4byte	.LFB1
 2756 0064 10000000 		.4byte	.LFE1
 2757 0068 00000000 		.4byte	.LFB4
ARM GAS  /tmp/cc8sJAS7.s 			page 50


 2758 006c 30000000 		.4byte	.LFE4
 2759 0070 00000000 		.4byte	.LFB3
 2760 0074 10000000 		.4byte	.LFE3
 2761 0078 00000000 		.4byte	.LFB5
 2762 007c 80000000 		.4byte	.LFE5
 2763 0080 00000000 		.4byte	.LFB6
 2764 0084 74000000 		.4byte	.LFE6
 2765 0088 00000000 		.4byte	.LFB7
 2766 008c 4C000000 		.4byte	.LFE7
 2767 0090 00000000 		.4byte	0
 2768 0094 00000000 		.4byte	0
 2769              		.section	.debug_line,"",%progbits
 2770              	.Ldebug_line0:
 2771 0000 99020000 		.section	.debug_str,"MS",%progbits,1
 2771      02002701 
 2771      00000201 
 2771      FB0E0D00 
 2771      01010101 
 2772              	.LASF43:
 2773 0000 705F6D73 		.ascii	"p_msg\000"
 2773      6700
 2774              	.LASF80:
 2775 0006 63684462 		.ascii	"chDbgPanic\000"
 2775      6750616E 
 2775      696300
 2776              	.LASF66:
 2777 0011 7264796D 		.ascii	"rdymsg\000"
 2777      736700
 2778              	.LASF16:
 2779 0018 75696E74 		.ascii	"uint64_t\000"
 2779      36345F74 
 2779      00
 2780              	.LASF5:
 2781 0021 5F5F7569 		.ascii	"__uint8_t\000"
 2781      6E74385F 
 2781      7400
 2782              	.LASF12:
 2783 002b 6C6F6E67 		.ascii	"long long unsigned int\000"
 2783      206C6F6E 
 2783      6720756E 
 2783      7369676E 
 2783      65642069 
 2784              	.LASF76:
 2785 0042 63684D74 		.ascii	"chMtxUnlock\000"
 2785      78556E6C 
 2785      6F636B00 
 2786              	.LASF89:
 2787 004e 2F686F6D 		.ascii	"/home/makkmarci/devel/ChibiOS_2.6.5/projects/STM32F"
 2787      652F6D61 
 2787      6B6B6D61 
 2787      7263692F 
 2787      64657665 
 2788 0081 345F4368 		.ascii	"4_ChibiOS_uGFX_gwin_2/\000"
 2788      6962694F 
 2788      535F7547 
 2788      46585F67 
 2788      77696E5F 
ARM GAS  /tmp/cc8sJAS7.s 			page 51


 2789              	.LASF30:
 2790 0098 705F7072 		.ascii	"p_prio\000"
 2790      696F00
 2791              	.LASF10:
 2792 009f 6C6F6E67 		.ascii	"long long int\000"
 2792      206C6F6E 
 2792      6720696E 
 2792      7400
 2793              	.LASF1:
 2794 00ad 7369676E 		.ascii	"signed char\000"
 2794      65642063 
 2794      68617200 
 2795              	.LASF47:
 2796 00b9 705F6D70 		.ascii	"p_mpool\000"
 2796      6F6F6C00 
 2797              	.LASF17:
 2798 00c1 626F6F6C 		.ascii	"bool_t\000"
 2798      5F7400
 2799              	.LASF63:
 2800 00c8 6D5F7175 		.ascii	"m_queue\000"
 2800      65756500 
 2801              	.LASF22:
 2802 00d0 74736C69 		.ascii	"tslices_t\000"
 2802      6365735F 
 2802      7400
 2803              	.LASF7:
 2804 00da 6C6F6E67 		.ascii	"long int\000"
 2804      20696E74 
 2804      00
 2805              	.LASF20:
 2806 00e3 74737461 		.ascii	"tstate_t\000"
 2806      74655F74 
 2806      00
 2807              	.LASF74:
 2808 00ec 63684D74 		.ascii	"chMtxTryLockS\000"
 2808      78547279 
 2808      4C6F636B 
 2808      5300
 2809              	.LASF32:
 2810 00fa 705F6E65 		.ascii	"p_newer\000"
 2810      77657200 
 2811              	.LASF67:
 2812 0102 65786974 		.ascii	"exitcode\000"
 2812      636F6465 
 2812      00
 2813              	.LASF91:
 2814 010b 63685363 		.ascii	"chSchRescheduleS\000"
 2814      68526573 
 2814      63686564 
 2814      756C6553 
 2814      00
 2815              	.LASF8:
 2816 011c 5F5F7569 		.ascii	"__uint32_t\000"
 2816      6E743332 
 2816      5F7400
 2817              	.LASF50:
 2818 0127 72656761 		.ascii	"regarm_t\000"
ARM GAS  /tmp/cc8sJAS7.s 			page 52


 2818      726D5F74 
 2818      00
 2819              	.LASF35:
 2820 0130 705F7374 		.ascii	"p_stklimit\000"
 2820      6B6C696D 
 2820      697400
 2821              	.LASF0:
 2822 013b 756E7369 		.ascii	"unsigned int\000"
 2822      676E6564 
 2822      20696E74 
 2822      00
 2823              	.LASF9:
 2824 0148 6C6F6E67 		.ascii	"long unsigned int\000"
 2824      20756E73 
 2824      69676E65 
 2824      6420696E 
 2824      7400
 2825              	.LASF53:
 2826 015a 636F6E74 		.ascii	"context\000"
 2826      65787400 
 2827              	.LASF4:
 2828 0162 73686F72 		.ascii	"short unsigned int\000"
 2828      7420756E 
 2828      7369676E 
 2828      65642069 
 2828      6E7400
 2829              	.LASF24:
 2830 0175 6D73675F 		.ascii	"msg_t\000"
 2830      7400
 2831              	.LASF58:
 2832 017b 725F6E65 		.ascii	"r_newer\000"
 2832      77657200 
 2833              	.LASF79:
 2834 0183 63684D74 		.ascii	"chMtxUnlockAll\000"
 2834      78556E6C 
 2834      6F636B41 
 2834      6C6C00
 2835              	.LASF77:
 2836 0192 6E657770 		.ascii	"newprio\000"
 2836      72696F00 
 2837              	.LASF19:
 2838 019a 746D6F64 		.ascii	"tmode_t\000"
 2838      655F7400 
 2839              	.LASF49:
 2840 01a2 54687265 		.ascii	"ThreadsList\000"
 2840      6164734C 
 2840      69737400 
 2841              	.LASF25:
 2842 01ae 6576656E 		.ascii	"eventmask_t\000"
 2842      746D6173 
 2842      6B5F7400 
 2843              	.LASF75:
 2844 01ba 63684D74 		.ascii	"chMtxTryLock\000"
 2844      78547279 
 2844      4C6F636B 
 2844      00
 2845              	.LASF62:
ARM GAS  /tmp/cc8sJAS7.s 			page 53


 2846 01c7 4D757465 		.ascii	"Mutex\000"
 2846      7800
 2847              	.LASF51:
 2848 01cd 73746B61 		.ascii	"stkalign_t\000"
 2848      6C69676E 
 2848      5F7400
 2849              	.LASF54:
 2850 01d8 73697A65 		.ascii	"sizetype\000"
 2850      74797065 
 2850      00
 2851              	.LASF73:
 2852 01e1 63684D74 		.ascii	"chMtxLock\000"
 2852      784C6F63 
 2852      6B00
 2853              	.LASF33:
 2854 01eb 705F6F6C 		.ascii	"p_older\000"
 2854      64657200 
 2855              	.LASF57:
 2856 01f3 725F6374 		.ascii	"r_ctx\000"
 2856      7800
 2857              	.LASF48:
 2858 01f9 54687265 		.ascii	"ThreadsQueue\000"
 2858      61647351 
 2858      75657565 
 2858      00
 2859              	.LASF83:
 2860 0206 64657175 		.ascii	"dequeue\000"
 2860      65756500 
 2861              	.LASF60:
 2862 020e 725F6375 		.ascii	"r_current\000"
 2862      7272656E 
 2862      7400
 2863              	.LASF59:
 2864 0218 725F6F6C 		.ascii	"r_older\000"
 2864      64657200 
 2865              	.LASF11:
 2866 0220 5F5F7569 		.ascii	"__uint64_t\000"
 2866      6E743634 
 2866      5F7400
 2867              	.LASF21:
 2868 022b 74726566 		.ascii	"trefs_t\000"
 2868      735F7400 
 2869              	.LASF29:
 2870 0233 705F7072 		.ascii	"p_prev\000"
 2870      657600
 2871              	.LASF23:
 2872 023a 74707269 		.ascii	"tprio_t\000"
 2872      6F5F7400 
 2873              	.LASF18:
 2874 0242 5F426F6F 		.ascii	"_Bool\000"
 2874      6C00
 2875              	.LASF14:
 2876 0248 696E7433 		.ascii	"int32_t\000"
 2876      325F7400 
 2877              	.LASF2:
 2878 0250 756E7369 		.ascii	"unsigned char\000"
 2878      676E6564 
ARM GAS  /tmp/cc8sJAS7.s 			page 54


 2878      20636861 
 2878      7200
 2879              	.LASF45:
 2880 025e 705F6D74 		.ascii	"p_mtxlist\000"
 2880      786C6973 
 2880      7400
 2881              	.LASF3:
 2882 0268 73686F72 		.ascii	"short int\000"
 2882      7420696E 
 2882      7400
 2883              	.LASF36:
 2884 0272 705F7374 		.ascii	"p_state\000"
 2884      61746500 
 2885              	.LASF39:
 2886 027a 705F7072 		.ascii	"p_preempt\000"
 2886      65656D70 
 2886      7400
 2887              	.LASF56:
 2888 0284 725F7072 		.ascii	"r_prio\000"
 2888      696F00
 2889              	.LASF69:
 2890 028b 65776D61 		.ascii	"ewmask\000"
 2890      736B00
 2891              	.LASF28:
 2892 0292 705F6E65 		.ascii	"p_next\000"
 2892      787400
 2893              	.LASF37:
 2894 0299 705F666C 		.ascii	"p_flags\000"
 2894      61677300 
 2895              	.LASF78:
 2896 02a1 63684D74 		.ascii	"chMtxUnlockS\000"
 2896      78556E6C 
 2896      6F636B53 
 2896      00
 2897              	.LASF87:
 2898 02ae 474E5520 		.ascii	"GNU C 4.8.4 20140526 (release) [ARM/embedded-4_8-br"
 2898      4320342E 
 2898      382E3420 
 2898      32303134 
 2898      30353236 
 2899 02e1 616E6368 		.ascii	"anch revision 211358] -mcpu=cortex-m4 -mfloat-abi=h"
 2899      20726576 
 2899      6973696F 
 2899      6E203231 
 2899      31333538 
 2900 0314 61726420 		.ascii	"ard -mfpu=fpv4-sp-d16 -mno-thumb-interwork -mthumb "
 2900      2D6D6670 
 2900      753D6670 
 2900      76342D73 
 2900      702D6431 
 2901 0347 2D676764 		.ascii	"-ggdb -O2 -fomit-frame-pointer -falign-functions=16"
 2901      62202D4F 
 2901      32202D66 
 2901      6F6D6974 
 2901      2D667261 
 2902 037a 202D6666 		.ascii	" -ffunction-sections -fdata-sections -fno-common -f"
 2902      756E6374 
ARM GAS  /tmp/cc8sJAS7.s 			page 55


 2902      696F6E2D 
 2902      73656374 
 2902      696F6E73 
 2903 03ad 73696E67 		.ascii	"single-precision-constant\000"
 2903      6C652D70 
 2903      72656369 
 2903      73696F6E 
 2903      2D636F6E 
 2904              	.LASF27:
 2905 03c7 54687265 		.ascii	"Thread\000"
 2905      616400
 2906              	.LASF82:
 2907 03ce 63685363 		.ascii	"chSchGoSleepS\000"
 2907      68476F53 
 2907      6C656570 
 2907      5300
 2908              	.LASF44:
 2909 03dc 705F6570 		.ascii	"p_epending\000"
 2909      656E6469 
 2909      6E6700
 2910              	.LASF15:
 2911 03e7 75696E74 		.ascii	"uint32_t\000"
 2911      33325F74 
 2911      00
 2912              	.LASF55:
 2913 03f0 725F7175 		.ascii	"r_queue\000"
 2913      65756500 
 2914              	.LASF70:
 2915 03f8 63686172 		.ascii	"char\000"
 2915      00
 2916              	.LASF85:
 2917 03fd 6669666F 		.ascii	"fifo_remove\000"
 2917      5F72656D 
 2917      6F766500 
 2918              	.LASF88:
 2919 0409 2E2E2F2E 		.ascii	"../../os/kernel/src/chmtx.c\000"
 2919      2E2F6F73 
 2919      2F6B6572 
 2919      6E656C2F 
 2919      7372632F 
 2920              	.LASF84:
 2921 0425 63685363 		.ascii	"chSchReadyI\000"
 2921      68526561 
 2921      64794900 
 2922              	.LASF65:
 2923 0431 6D5F6E65 		.ascii	"m_next\000"
 2923      787400
 2924              	.LASF26:
 2925 0438 73797374 		.ascii	"systime_t\000"
 2925      696D655F 
 2925      7400
 2926              	.LASF46:
 2927 0442 705F7265 		.ascii	"p_realprio\000"
 2927      616C7072 
 2927      696F00
 2928              	.LASF6:
 2929 044d 5F5F696E 		.ascii	"__int32_t\000"
ARM GAS  /tmp/cc8sJAS7.s 			page 56


 2929      7433325F 
 2929      7400
 2930              	.LASF81:
 2931 0457 7072696F 		.ascii	"prio_insert\000"
 2931      5F696E73 
 2931      65727400 
 2932              	.LASF40:
 2933 0463 705F7469 		.ascii	"p_time\000"
 2933      6D6500
 2934              	.LASF52:
 2935 046a 696E7463 		.ascii	"intctx\000"
 2935      747800
 2936              	.LASF42:
 2937 0471 705F6D73 		.ascii	"p_msgqueue\000"
 2937      67717565 
 2937      756500
 2938              	.LASF86:
 2939 047c 63685363 		.ascii	"chSchWakeupS\000"
 2939      6857616B 
 2939      65757053 
 2939      00
 2940              	.LASF71:
 2941 0489 63684D74 		.ascii	"chMtxInit\000"
 2941      78496E69 
 2941      7400
 2942              	.LASF38:
 2943 0493 705F7265 		.ascii	"p_refs\000"
 2943      667300
 2944              	.LASF61:
 2945 049a 52656164 		.ascii	"ReadyList\000"
 2945      794C6973 
 2945      7400
 2946              	.LASF90:
 2947 04a4 726C6973 		.ascii	"rlist\000"
 2947      7400
 2948              	.LASF13:
 2949 04aa 75696E74 		.ascii	"uint8_t\000"
 2949      385F7400 
 2950              	.LASF68:
 2951 04b2 77746F62 		.ascii	"wtobjp\000"
 2951      6A7000
 2952              	.LASF34:
 2953 04b9 705F6E61 		.ascii	"p_name\000"
 2953      6D6500
 2954              	.LASF72:
 2955 04c0 63684D74 		.ascii	"chMtxLockS\000"
 2955      784C6F63 
 2955      6B5300
 2956              	.LASF64:
 2957 04cb 6D5F6F77 		.ascii	"m_owner\000"
 2957      6E657200 
 2958              	.LASF31:
 2959 04d3 705F6374 		.ascii	"p_ctx\000"
 2959      7800
 2960              	.LASF41:
 2961 04d9 705F7761 		.ascii	"p_waiting\000"
 2961      6974696E 
ARM GAS  /tmp/cc8sJAS7.s 			page 57


 2961      6700
 2962              		.ident	"GCC: (GNU Tools for ARM Embedded Processors) 4.8.4 20140526 (release) [ARM/embedded-4_8-br
ARM GAS  /tmp/cc8sJAS7.s 			page 58


DEFINED SYMBOLS
                            *ABS*:00000000 chmtx.c
     /tmp/cc8sJAS7.s:21     .text.chMtxInit:00000000 $t
     /tmp/cc8sJAS7.s:27     .text.chMtxInit:00000000 chMtxInit
     /tmp/cc8sJAS7.s:63     .text.chMtxInit:00000018 $d
     /tmp/cc8sJAS7.s:68     .text.chMtxLockS:00000000 $t
     /tmp/cc8sJAS7.s:74     .text.chMtxLockS:00000000 chMtxLockS
     /tmp/cc8sJAS7.s:224    .text.chMtxLockS:000000a0 $d
     /tmp/cc8sJAS7.s:232    .text.chMtxLock:00000000 $t
     /tmp/cc8sJAS7.s:238    .text.chMtxLock:00000000 chMtxLock
     /tmp/cc8sJAS7.s:267    .text.chMtxTryLockS:00000000 $t
     /tmp/cc8sJAS7.s:273    .text.chMtxTryLockS:00000000 chMtxTryLockS
     /tmp/cc8sJAS7.s:322    .text.chMtxTryLockS:00000028 $d
     /tmp/cc8sJAS7.s:328    .text.chMtxTryLock:00000000 $t
     /tmp/cc8sJAS7.s:334    .text.chMtxTryLock:00000000 chMtxTryLock
     /tmp/cc8sJAS7.s:364    .text.chMtxUnlock:00000000 $t
     /tmp/cc8sJAS7.s:370    .text.chMtxUnlock:00000000 chMtxUnlock
     /tmp/cc8sJAS7.s:492    .text.chMtxUnlock:00000074 $d
     /tmp/cc8sJAS7.s:499    .text.chMtxUnlockS:00000000 $t
     /tmp/cc8sJAS7.s:505    .text.chMtxUnlockS:00000000 chMtxUnlockS
     /tmp/cc8sJAS7.s:610    .text.chMtxUnlockS:00000068 $d
     /tmp/cc8sJAS7.s:617    .text.chMtxUnlockAll:00000000 $t
     /tmp/cc8sJAS7.s:623    .text.chMtxUnlockAll:00000000 chMtxUnlockAll
     /tmp/cc8sJAS7.s:719    .text.chMtxUnlockAll:00000048 $d
     /tmp/cc8sJAS7.s:724    .rodata.str1.4:00000000 $d
                     .debug_frame:00000010 $d
     /tmp/cc8sJAS7.s:67     .text.chMtxInit:0000001c $t
     /tmp/cc8sJAS7.s:616    .text.chMtxUnlockS:00000074 $t
     /tmp/cc8sJAS7.s:723    .text.chMtxUnlockAll:0000004c $t

UNDEFINED SYMBOLS
chDbgPanic
prio_insert
chSchGoSleepS
dequeue
chSchReadyI
rlist
_port_lock
_port_unlock
fifo_remove
chSchWakeupS
chSchRescheduleS
