ARM GAS  /tmp/ccSc3bGh.s 			page 1


   1              		.syntax unified
   2              		.cpu cortex-m4
   3              		.eabi_attribute 27, 1
   4              		.eabi_attribute 28, 1
   5              		.fpu fpv4-sp-d16
   6              		.eabi_attribute 20, 1
   7              		.eabi_attribute 21, 1
   8              		.eabi_attribute 23, 3
   9              		.eabi_attribute 24, 1
  10              		.eabi_attribute 25, 1
  11              		.eabi_attribute 26, 1
  12              		.eabi_attribute 30, 6
  13              		.eabi_attribute 34, 1
  14              		.eabi_attribute 18, 4
  15              		.thumb
  16              		.file	"chprintf.c"
  17              		.text
  18              	.Ltext0:
  19              		.cfi_sections	.debug_frame
  20              		.section	.text.long_to_string_with_divisor,"ax",%progbits
  21              		.align	2
  22              		.p2align 4,,15
  23              		.thumb
  24              		.thumb_func
  25              		.type	long_to_string_with_divisor, %function
  26              	long_to_string_with_divisor:
  27              	.LFB1:
  28              		.file 1 "/home/makkmarci/workspace/ChibiOS_2.6.8/os/various/chprintf.c"
  29              		.loc 1 40 0
  30              		.cfi_startproc
  31              		@ args = 0, pretend = 0, frame = 32
  32              		@ frame_needed = 0, uses_anonymous_args = 0
  33              		@ link register save eliminated.
  34 0000 88B0     		sub	sp, sp, #32
  35              		.cfi_def_cfa_offset 32
  36 0002 0390     		str	r0, [sp, #12]
  37 0004 0291     		str	r1, [sp, #8]
  38 0006 0192     		str	r2, [sp, #4]
  39 0008 0093     		str	r3, [sp]
  40              		.loc 1 45 0
  41 000a 029B     		ldr	r3, [sp, #8]
  42 000c 0593     		str	r3, [sp, #20]
  43              		.loc 1 46 0
  44 000e 009B     		ldr	r3, [sp]
  45 0010 002B     		cmp	r3, #0
  46 0012 02D1     		bne	.L2
  47              		.loc 1 47 0
  48 0014 029B     		ldr	r3, [sp, #8]
  49 0016 0493     		str	r3, [sp, #16]
  50 0018 01E0     		b	.L3
  51              	.L2:
  52              		.loc 1 49 0
  53 001a 009B     		ldr	r3, [sp]
  54 001c 0493     		str	r3, [sp, #16]
  55              	.L3:
  56              		.loc 1 52 0
  57 001e 039B     		ldr	r3, [sp, #12]
ARM GAS  /tmp/ccSc3bGh.s 			page 2


  58 0020 0B33     		adds	r3, r3, #11
  59 0022 0693     		str	r3, [sp, #24]
  60              	.L5:
  61              		.loc 1 54 0
  62 0024 059B     		ldr	r3, [sp, #20]
  63 0026 019A     		ldr	r2, [sp, #4]
  64 0028 B3FBF2F2 		udiv	r2, r3, r2
  65 002c 0199     		ldr	r1, [sp, #4]
  66 002e 01FB02F2 		mul	r2, r1, r2
  67 0032 9B1A     		subs	r3, r3, r2
  68 0034 0793     		str	r3, [sp, #28]
  69              		.loc 1 55 0
  70 0036 079B     		ldr	r3, [sp, #28]
  71 0038 3033     		adds	r3, r3, #48
  72 003a 0793     		str	r3, [sp, #28]
  73              		.loc 1 56 0
  74 003c 079B     		ldr	r3, [sp, #28]
  75 003e 392B     		cmp	r3, #57
  76 0040 02DD     		ble	.L4
  77              		.loc 1 57 0
  78 0042 079B     		ldr	r3, [sp, #28]
  79 0044 0733     		adds	r3, r3, #7
  80 0046 0793     		str	r3, [sp, #28]
  81              	.L4:
  82              		.loc 1 58 0
  83 0048 069B     		ldr	r3, [sp, #24]
  84 004a 013B     		subs	r3, r3, #1
  85 004c 0693     		str	r3, [sp, #24]
  86 004e 079B     		ldr	r3, [sp, #28]
  87 0050 DAB2     		uxtb	r2, r3
  88 0052 069B     		ldr	r3, [sp, #24]
  89 0054 1A70     		strb	r2, [r3]
  90              		.loc 1 59 0
  91 0056 059A     		ldr	r2, [sp, #20]
  92 0058 019B     		ldr	r3, [sp, #4]
  93 005a B2FBF3F3 		udiv	r3, r2, r3
  94 005e 0593     		str	r3, [sp, #20]
  95              		.loc 1 60 0
  96 0060 049A     		ldr	r2, [sp, #16]
  97 0062 019B     		ldr	r3, [sp, #4]
  98 0064 B2FBF3F3 		udiv	r3, r2, r3
  99 0068 0493     		str	r3, [sp, #16]
 100 006a 049B     		ldr	r3, [sp, #16]
 101 006c 002B     		cmp	r3, #0
 102 006e D9D1     		bne	.L5
 103              		.loc 1 62 0
 104 0070 039B     		ldr	r3, [sp, #12]
 105 0072 0B33     		adds	r3, r3, #11
 106 0074 1A46     		mov	r2, r3
 107 0076 069B     		ldr	r3, [sp, #24]
 108 0078 D31A     		subs	r3, r2, r3
 109 007a 0793     		str	r3, [sp, #28]
 110              	.L6:
 111              		.loc 1 64 0 discriminator 1
 112 007c 039B     		ldr	r3, [sp, #12]
 113 007e 5A1C     		adds	r2, r3, #1
 114 0080 0392     		str	r2, [sp, #12]
ARM GAS  /tmp/ccSc3bGh.s 			page 3


 115 0082 069A     		ldr	r2, [sp, #24]
 116 0084 511C     		adds	r1, r2, #1
 117 0086 0691     		str	r1, [sp, #24]
 118 0088 1278     		ldrb	r2, [r2]	@ zero_extendqisi2
 119 008a 1A70     		strb	r2, [r3]
 120              		.loc 1 65 0 discriminator 1
 121 008c 079B     		ldr	r3, [sp, #28]
 122 008e 013B     		subs	r3, r3, #1
 123 0090 0793     		str	r3, [sp, #28]
 124 0092 079B     		ldr	r3, [sp, #28]
 125 0094 002B     		cmp	r3, #0
 126 0096 F1D1     		bne	.L6
 127              		.loc 1 67 0
 128 0098 039B     		ldr	r3, [sp, #12]
 129              		.loc 1 68 0
 130 009a 1846     		mov	r0, r3
 131 009c 08B0     		add	sp, sp, #32
 132              		.cfi_def_cfa_offset 0
 133              		@ sp needed
 134 009e 7047     		bx	lr
 135              		.cfi_endproc
 136              	.LFE1:
 137              		.size	long_to_string_with_divisor, .-long_to_string_with_divisor
 138              		.section	.text.ltoa,"ax",%progbits
 139              		.align	2
 140              		.p2align 4,,15
 141              		.thumb
 142              		.thumb_func
 143              		.type	ltoa, %function
 144              	ltoa:
 145              	.LFB2:
 146              		.loc 1 70 0
 147              		.cfi_startproc
 148              		@ args = 0, pretend = 0, frame = 16
 149              		@ frame_needed = 0, uses_anonymous_args = 0
 150 0000 00B5     		push	{lr}
 151              		.cfi_def_cfa_offset 4
 152              		.cfi_offset 14, -4
 153 0002 85B0     		sub	sp, sp, #20
 154              		.cfi_def_cfa_offset 24
 155 0004 0390     		str	r0, [sp, #12]
 156 0006 0291     		str	r1, [sp, #8]
 157 0008 0192     		str	r2, [sp, #4]
 158              		.loc 1 72 0
 159 000a 0398     		ldr	r0, [sp, #12]
 160 000c 0299     		ldr	r1, [sp, #8]
 161 000e 019A     		ldr	r2, [sp, #4]
 162 0010 0023     		movs	r3, #0
 163 0012 FFF7FEFF 		bl	long_to_string_with_divisor
 164 0016 0346     		mov	r3, r0
 165              		.loc 1 73 0
 166 0018 1846     		mov	r0, r3
 167 001a 05B0     		add	sp, sp, #20
 168              		.cfi_def_cfa_offset 4
 169              		@ sp needed
 170 001c 5DF804FB 		ldr	pc, [sp], #4
 171              		.cfi_endproc
ARM GAS  /tmp/ccSc3bGh.s 			page 4


 172              	.LFE2:
 173              		.size	ltoa, .-ltoa
 174              		.section	.rodata
 175              		.align	2
 176              	.LC0:
 177 0000 286E756C 		.ascii	"(null)\000"
 177      6C2900
 178 0007 00       		.section	.text.chvprintf,"ax",%progbits
 179              		.align	2
 180              		.p2align 4,,15
 181              		.global	chvprintf
 182              		.thumb
 183              		.thumb_func
 184              		.type	chvprintf, %function
 185              	chvprintf:
 186              	.LFB3:
 187              		.loc 1 112 0
 188              		.cfi_startproc
 189              		@ args = 0, pretend = 0, frame = 64
 190              		@ frame_needed = 0, uses_anonymous_args = 0
 191 0000 00B5     		push	{lr}
 192              		.cfi_def_cfa_offset 4
 193              		.cfi_offset 14, -4
 194 0002 91B0     		sub	sp, sp, #68
 195              		.cfi_def_cfa_offset 72
 196 0004 0390     		str	r0, [sp, #12]
 197 0006 0291     		str	r1, [sp, #8]
 198 0008 0192     		str	r2, [sp, #4]
 199              	.L62:
 200              		.loc 1 125 0
 201 000a 029B     		ldr	r3, [sp, #8]
 202 000c 5A1C     		adds	r2, r3, #1
 203 000e 0292     		str	r2, [sp, #8]
 204 0010 1B78     		ldrb	r3, [r3]
 205 0012 8DF83730 		strb	r3, [sp, #55]
 206              		.loc 1 126 0
 207 0016 9DF83730 		ldrb	r3, [sp, #55]	@ zero_extendqisi2
 208 001a 002B     		cmp	r3, #0
 209 001c 00D1     		bne	.L11
 210              		.loc 1 127 0
 211 001e 05E2     		b	.L64
 212              	.L11:
 213              		.loc 1 128 0
 214 0020 9DF83730 		ldrb	r3, [sp, #55]	@ zero_extendqisi2
 215 0024 252B     		cmp	r3, #37
 216 0026 08D0     		beq	.L13
 217              		.loc 1 129 0
 218 0028 039B     		ldr	r3, [sp, #12]
 219 002a 1B68     		ldr	r3, [r3]
 220 002c 9B68     		ldr	r3, [r3, #8]
 221 002e 9DF83720 		ldrb	r2, [sp, #55]	@ zero_extendqisi2
 222 0032 0398     		ldr	r0, [sp, #12]
 223 0034 1146     		mov	r1, r2
 224 0036 9847     		blx	r3
 225              		.loc 1 130 0
 226 0038 F7E1     		b	.L14
 227              	.L13:
ARM GAS  /tmp/ccSc3bGh.s 			page 5


 228              		.loc 1 132 0
 229 003a 05AB     		add	r3, sp, #20
 230 003c 0F93     		str	r3, [sp, #60]
 231              		.loc 1 133 0
 232 003e 05AB     		add	r3, sp, #20
 233 0040 0E93     		str	r3, [sp, #56]
 234              		.loc 1 134 0
 235 0042 0023     		movs	r3, #0
 236 0044 8DF82630 		strb	r3, [sp, #38]
 237              		.loc 1 135 0
 238 0048 029B     		ldr	r3, [sp, #8]
 239 004a 1B78     		ldrb	r3, [r3]	@ zero_extendqisi2
 240 004c 2D2B     		cmp	r3, #45
 241 004e 05D1     		bne	.L15
 242              		.loc 1 136 0
 243 0050 029B     		ldr	r3, [sp, #8]
 244 0052 0133     		adds	r3, r3, #1
 245 0054 0293     		str	r3, [sp, #8]
 246              		.loc 1 137 0
 247 0056 0123     		movs	r3, #1
 248 0058 8DF82630 		strb	r3, [sp, #38]
 249              	.L15:
 250              		.loc 1 139 0
 251 005c 2023     		movs	r3, #32
 252 005e 8DF83630 		strb	r3, [sp, #54]
 253              		.loc 1 140 0
 254 0062 029B     		ldr	r3, [sp, #8]
 255 0064 1B78     		ldrb	r3, [r3]	@ zero_extendqisi2
 256 0066 2E2B     		cmp	r3, #46
 257 0068 03D0     		beq	.L16
 258              		.loc 1 140 0 is_stmt 0 discriminator 1
 259 006a 029B     		ldr	r3, [sp, #8]
 260 006c 1B78     		ldrb	r3, [r3]	@ zero_extendqisi2
 261 006e 302B     		cmp	r3, #48
 262 0070 05D1     		bne	.L17
 263              	.L16:
 264              		.loc 1 141 0 is_stmt 1
 265 0072 029B     		ldr	r3, [sp, #8]
 266 0074 0133     		adds	r3, r3, #1
 267 0076 0293     		str	r3, [sp, #8]
 268              		.loc 1 142 0
 269 0078 3023     		movs	r3, #48
 270 007a 8DF83630 		strb	r3, [sp, #54]
 271              	.L17:
 272              		.loc 1 144 0
 273 007e 0023     		movs	r3, #0
 274 0080 0A93     		str	r3, [sp, #40]
 275              	.L22:
 276              		.loc 1 146 0
 277 0082 029B     		ldr	r3, [sp, #8]
 278 0084 5A1C     		adds	r2, r3, #1
 279 0086 0292     		str	r2, [sp, #8]
 280 0088 1B78     		ldrb	r3, [r3]
 281 008a 8DF83730 		strb	r3, [sp, #55]
 282              		.loc 1 147 0
 283 008e 9DF83730 		ldrb	r3, [sp, #55]	@ zero_extendqisi2
 284 0092 2F2B     		cmp	r3, #47
ARM GAS  /tmp/ccSc3bGh.s 			page 6


 285 0094 09D9     		bls	.L18
 286              		.loc 1 147 0 is_stmt 0 discriminator 1
 287 0096 9DF83730 		ldrb	r3, [sp, #55]	@ zero_extendqisi2
 288 009a 392B     		cmp	r3, #57
 289 009c 05D8     		bhi	.L18
 290              		.loc 1 148 0 is_stmt 1
 291 009e 9DF83730 		ldrb	r3, [sp, #55]
 292 00a2 303B     		subs	r3, r3, #48
 293 00a4 8DF83730 		strb	r3, [sp, #55]
 294 00a8 12E0     		b	.L19
 295              	.L18:
 296              		.loc 1 149 0
 297 00aa 9DF83730 		ldrb	r3, [sp, #55]	@ zero_extendqisi2
 298 00ae 2A2B     		cmp	r3, #42
 299 00b0 06D1     		bne	.L20
 300              		.loc 1 150 0
 301 00b2 019B     		ldr	r3, [sp, #4]
 302 00b4 1A1D     		adds	r2, r3, #4
 303 00b6 0192     		str	r2, [sp, #4]
 304 00b8 1B68     		ldr	r3, [r3]
 305 00ba 8DF83730 		strb	r3, [sp, #55]
 306 00be 07E0     		b	.L19
 307              	.L20:
 308              		.loc 1 152 0
 309 00c0 00BF     		nop
 310              		.loc 1 155 0
 311 00c2 0023     		movs	r3, #0
 312 00c4 0B93     		str	r3, [sp, #44]
 313              		.loc 1 156 0
 314 00c6 9DF83730 		ldrb	r3, [sp, #55]	@ zero_extendqisi2
 315 00ca 2E2B     		cmp	r3, #46
 316 00cc 37D1     		bne	.L23
 317 00ce 0AE0     		b	.L27
 318              	.L19:
 319              		.loc 1 153 0
 320 00d0 0A9A     		ldr	r2, [sp, #40]
 321 00d2 1346     		mov	r3, r2
 322 00d4 9B00     		lsls	r3, r3, #2
 323 00d6 1344     		add	r3, r3, r2
 324 00d8 5B00     		lsls	r3, r3, #1
 325 00da 1A46     		mov	r2, r3
 326 00dc 9DF83730 		ldrb	r3, [sp, #55]	@ zero_extendqisi2
 327 00e0 1344     		add	r3, r3, r2
 328 00e2 0A93     		str	r3, [sp, #40]
 329              		.loc 1 154 0
 330 00e4 CDE7     		b	.L22
 331              	.L27:
 332              		.loc 1 158 0
 333 00e6 029B     		ldr	r3, [sp, #8]
 334 00e8 5A1C     		adds	r2, r3, #1
 335 00ea 0292     		str	r2, [sp, #8]
 336 00ec 1B78     		ldrb	r3, [r3]
 337 00ee 8DF83730 		strb	r3, [sp, #55]
 338              		.loc 1 159 0
 339 00f2 9DF83730 		ldrb	r3, [sp, #55]	@ zero_extendqisi2
 340 00f6 2F2B     		cmp	r3, #47
 341 00f8 09D9     		bls	.L24
ARM GAS  /tmp/ccSc3bGh.s 			page 7


 342              		.loc 1 159 0 is_stmt 0 discriminator 1
 343 00fa 9DF83730 		ldrb	r3, [sp, #55]	@ zero_extendqisi2
 344 00fe 392B     		cmp	r3, #57
 345 0100 05D8     		bhi	.L24
 346              		.loc 1 160 0 is_stmt 1
 347 0102 9DF83730 		ldrb	r3, [sp, #55]
 348 0106 303B     		subs	r3, r3, #48
 349 0108 8DF83730 		strb	r3, [sp, #55]
 350 010c 0BE0     		b	.L25
 351              	.L24:
 352              		.loc 1 161 0
 353 010e 9DF83730 		ldrb	r3, [sp, #55]	@ zero_extendqisi2
 354 0112 2A2B     		cmp	r3, #42
 355 0114 06D1     		bne	.L26
 356              		.loc 1 162 0
 357 0116 019B     		ldr	r3, [sp, #4]
 358 0118 1A1D     		adds	r2, r3, #4
 359 011a 0192     		str	r2, [sp, #4]
 360 011c 1B68     		ldr	r3, [r3]
 361 011e 8DF83730 		strb	r3, [sp, #55]
 362 0122 00E0     		b	.L25
 363              	.L26:
 364              		.loc 1 164 0
 365 0124 0BE0     		b	.L23
 366              	.L25:
 367              		.loc 1 165 0
 368 0126 0B9A     		ldr	r2, [sp, #44]
 369 0128 1346     		mov	r3, r2
 370 012a 9B00     		lsls	r3, r3, #2
 371 012c 1344     		add	r3, r3, r2
 372 012e 5B00     		lsls	r3, r3, #1
 373 0130 0B93     		str	r3, [sp, #44]
 374              		.loc 1 166 0
 375 0132 9DF83730 		ldrb	r3, [sp, #55]	@ zero_extendqisi2
 376 0136 0B9A     		ldr	r2, [sp, #44]
 377 0138 1344     		add	r3, r3, r2
 378 013a 0B93     		str	r3, [sp, #44]
 379              		.loc 1 167 0
 380 013c D3E7     		b	.L27
 381              	.L23:
 382              		.loc 1 170 0
 383 013e 9DF83730 		ldrb	r3, [sp, #55]	@ zero_extendqisi2
 384 0142 6C2B     		cmp	r3, #108
 385 0144 03D0     		beq	.L28
 386              		.loc 1 170 0 is_stmt 0 discriminator 1
 387 0146 9DF83730 		ldrb	r3, [sp, #55]	@ zero_extendqisi2
 388 014a 4C2B     		cmp	r3, #76
 389 014c 0ED1     		bne	.L29
 390              	.L28:
 391              		.loc 1 171 0 is_stmt 1
 392 014e 0123     		movs	r3, #1
 393 0150 8DF82730 		strb	r3, [sp, #39]
 394              		.loc 1 172 0
 395 0154 029B     		ldr	r3, [sp, #8]
 396 0156 1B78     		ldrb	r3, [r3]	@ zero_extendqisi2
 397 0158 002B     		cmp	r3, #0
 398 015a 06D0     		beq	.L30
ARM GAS  /tmp/ccSc3bGh.s 			page 8


 399              		.loc 1 173 0
 400 015c 029B     		ldr	r3, [sp, #8]
 401 015e 5A1C     		adds	r2, r3, #1
 402 0160 0292     		str	r2, [sp, #8]
 403 0162 1B78     		ldrb	r3, [r3]
 404 0164 8DF83730 		strb	r3, [sp, #55]
 405              		.loc 1 172 0
 406 0168 13E0     		b	.L31
 407              	.L30:
 408 016a 12E0     		b	.L31
 409              	.L29:
 410              		.loc 1 176 0
 411 016c 9DF83730 		ldrb	r3, [sp, #55]	@ zero_extendqisi2
 412 0170 402B     		cmp	r3, #64
 413 0172 05D9     		bls	.L32
 414              		.loc 1 176 0 is_stmt 0 discriminator 1
 415 0174 9DF83730 		ldrb	r3, [sp, #55]	@ zero_extendqisi2
 416 0178 5A2B     		cmp	r3, #90
 417 017a 01D8     		bhi	.L32
 418              		.loc 1 176 0 discriminator 3
 419 017c 0123     		movs	r3, #1
 420 017e 00E0     		b	.L33
 421              	.L32:
 422              		.loc 1 176 0 discriminator 4
 423 0180 0023     		movs	r3, #0
 424              	.L33:
 425              		.loc 1 176 0 discriminator 6
 426 0182 8DF82730 		strb	r3, [sp, #39]
 427 0186 9DF82730 		ldrb	r3, [sp, #39]
 428 018a 03F00103 		and	r3, r3, #1
 429 018e 8DF82730 		strb	r3, [sp, #39]
 430              	.L31:
 431              		.loc 1 179 0 is_stmt 1
 432 0192 9DF83730 		ldrb	r3, [sp, #55]	@ zero_extendqisi2
 433 0196 443B     		subs	r3, r3, #68
 434 0198 342B     		cmp	r3, #52
 435 019a 00F2E280 		bhi	.L34
 436 019e 01A2     		adr	r2, .L36
 437 01a0 52F823F0 		ldr	pc, [r2, r3, lsl #2]
 438              		.p2align 2
 439              	.L36:
 440 01a4 DB020000 		.word	.L35+1
 441 01a8 63030000 		.word	.L34+1
 442 01ac 63030000 		.word	.L34+1
 443 01b0 63030000 		.word	.L34+1
 444 01b4 63030000 		.word	.L34+1
 445 01b8 DB020000 		.word	.L35+1
 446 01bc 63030000 		.word	.L34+1
 447 01c0 63030000 		.word	.L34+1
 448 01c4 63030000 		.word	.L34+1
 449 01c8 63030000 		.word	.L34+1
 450 01cc 63030000 		.word	.L34+1
 451 01d0 2D030000 		.word	.L37+1
 452 01d4 63030000 		.word	.L34+1
 453 01d8 63030000 		.word	.L34+1
 454 01dc 63030000 		.word	.L34+1
 455 01e0 63030000 		.word	.L34+1
ARM GAS  /tmp/ccSc3bGh.s 			page 9


 456 01e4 63030000 		.word	.L34+1
 457 01e8 25030000 		.word	.L38+1
 458 01ec 63030000 		.word	.L34+1
 459 01f0 63030000 		.word	.L34+1
 460 01f4 1D030000 		.word	.L39+1
 461 01f8 63030000 		.word	.L34+1
 462 01fc 63030000 		.word	.L34+1
 463 0200 63030000 		.word	.L34+1
 464 0204 63030000 		.word	.L34+1
 465 0208 63030000 		.word	.L34+1
 466 020c 63030000 		.word	.L34+1
 467 0210 63030000 		.word	.L34+1
 468 0214 63030000 		.word	.L34+1
 469 0218 63030000 		.word	.L34+1
 470 021c 63030000 		.word	.L34+1
 471 0220 79020000 		.word	.L40+1
 472 0224 DB020000 		.word	.L35+1
 473 0228 63030000 		.word	.L34+1
 474 022c 63030000 		.word	.L34+1
 475 0230 63030000 		.word	.L34+1
 476 0234 63030000 		.word	.L34+1
 477 0238 DB020000 		.word	.L35+1
 478 023c 63030000 		.word	.L34+1
 479 0240 63030000 		.word	.L34+1
 480 0244 63030000 		.word	.L34+1
 481 0248 63030000 		.word	.L34+1
 482 024c 63030000 		.word	.L34+1
 483 0250 2D030000 		.word	.L37+1
 484 0254 63030000 		.word	.L34+1
 485 0258 63030000 		.word	.L34+1
 486 025c 63030000 		.word	.L34+1
 487 0260 93020000 		.word	.L41+1
 488 0264 63030000 		.word	.L34+1
 489 0268 25030000 		.word	.L38+1
 490 026c 63030000 		.word	.L34+1
 491 0270 63030000 		.word	.L34+1
 492 0274 1D030000 		.word	.L39+1
 493              		.p2align 1
 494              	.L40:
 495              		.loc 1 181 0
 496 0278 2023     		movs	r3, #32
 497 027a 8DF83630 		strb	r3, [sp, #54]
 498              		.loc 1 182 0
 499 027e 0F9B     		ldr	r3, [sp, #60]
 500 0280 5A1C     		adds	r2, r3, #1
 501 0282 0F92     		str	r2, [sp, #60]
 502 0284 019A     		ldr	r2, [sp, #4]
 503 0286 111D     		adds	r1, r2, #4
 504 0288 0191     		str	r1, [sp, #4]
 505 028a 1268     		ldr	r2, [r2]
 506 028c D2B2     		uxtb	r2, r2
 507 028e 1A70     		strb	r2, [r3]
 508              		.loc 1 183 0
 509 0290 6EE0     		b	.L42
 510              	.L41:
 511              		.loc 1 185 0
 512 0292 2023     		movs	r3, #32
ARM GAS  /tmp/ccSc3bGh.s 			page 10


 513 0294 8DF83630 		strb	r3, [sp, #54]
 514              		.loc 1 186 0
 515 0298 019B     		ldr	r3, [sp, #4]
 516 029a 1A1D     		adds	r2, r3, #4
 517 029c 0192     		str	r2, [sp, #4]
 518 029e 1B68     		ldr	r3, [r3]
 519 02a0 0E93     		str	r3, [sp, #56]
 520 02a2 0E9B     		ldr	r3, [sp, #56]
 521 02a4 002B     		cmp	r3, #0
 522 02a6 01D1     		bne	.L43
 523              		.loc 1 187 0
 524 02a8 624B     		ldr	r3, .L65
 525 02aa 0E93     		str	r3, [sp, #56]
 526              	.L43:
 527              		.loc 1 188 0
 528 02ac 0B9B     		ldr	r3, [sp, #44]
 529 02ae 002B     		cmp	r3, #0
 530 02b0 02D1     		bne	.L44
 531              		.loc 1 189 0
 532 02b2 47F6FF73 		movw	r3, #32767
 533 02b6 0B93     		str	r3, [sp, #44]
 534              	.L44:
 535              		.loc 1 190 0
 536 02b8 0E9B     		ldr	r3, [sp, #56]
 537 02ba 0F93     		str	r3, [sp, #60]
 538 02bc 02E0     		b	.L45
 539              	.L47:
 540              		.loc 1 190 0 is_stmt 0 discriminator 4
 541 02be 0F9B     		ldr	r3, [sp, #60]
 542 02c0 0133     		adds	r3, r3, #1
 543 02c2 0F93     		str	r3, [sp, #60]
 544              	.L45:
 545              		.loc 1 190 0 discriminator 1
 546 02c4 0F9B     		ldr	r3, [sp, #60]
 547 02c6 1B78     		ldrb	r3, [r3]	@ zero_extendqisi2
 548 02c8 002B     		cmp	r3, #0
 549 02ca 05D0     		beq	.L46
 550              		.loc 1 190 0 discriminator 3
 551 02cc 0B9B     		ldr	r3, [sp, #44]
 552 02ce 013B     		subs	r3, r3, #1
 553 02d0 0B93     		str	r3, [sp, #44]
 554 02d2 0B9B     		ldr	r3, [sp, #44]
 555 02d4 002B     		cmp	r3, #0
 556 02d6 F2DA     		bge	.L47
 557              	.L46:
 558              		.loc 1 192 0 is_stmt 1
 559 02d8 4AE0     		b	.L42
 560              	.L35:
 561              		.loc 1 197 0
 562 02da 9DF82730 		ldrb	r3, [sp, #39]	@ zero_extendqisi2
 563 02de 002B     		cmp	r3, #0
 564 02e0 05D0     		beq	.L48
 565              		.loc 1 198 0
 566 02e2 019B     		ldr	r3, [sp, #4]
 567 02e4 1A1D     		adds	r2, r3, #4
 568 02e6 0192     		str	r2, [sp, #4]
 569 02e8 1B68     		ldr	r3, [r3]
ARM GAS  /tmp/ccSc3bGh.s 			page 11


 570 02ea 0893     		str	r3, [sp, #32]
 571 02ec 04E0     		b	.L49
 572              	.L48:
 573              		.loc 1 200 0
 574 02ee 019B     		ldr	r3, [sp, #4]
 575 02f0 1A1D     		adds	r2, r3, #4
 576 02f2 0192     		str	r2, [sp, #4]
 577 02f4 1B68     		ldr	r3, [r3]
 578 02f6 0893     		str	r3, [sp, #32]
 579              	.L49:
 580              		.loc 1 201 0
 581 02f8 089B     		ldr	r3, [sp, #32]
 582 02fa 002B     		cmp	r3, #0
 583 02fc 07DA     		bge	.L50
 584              		.loc 1 202 0
 585 02fe 0F9B     		ldr	r3, [sp, #60]
 586 0300 5A1C     		adds	r2, r3, #1
 587 0302 0F92     		str	r2, [sp, #60]
 588 0304 2D22     		movs	r2, #45
 589 0306 1A70     		strb	r2, [r3]
 590              		.loc 1 203 0
 591 0308 089B     		ldr	r3, [sp, #32]
 592 030a 5B42     		negs	r3, r3
 593 030c 0893     		str	r3, [sp, #32]
 594              	.L50:
 595              		.loc 1 205 0
 596 030e 0F98     		ldr	r0, [sp, #60]
 597 0310 0899     		ldr	r1, [sp, #32]
 598 0312 0A22     		movs	r2, #10
 599 0314 FFF7FEFF 		bl	ltoa
 600 0318 0F90     		str	r0, [sp, #60]
 601              		.loc 1 206 0
 602 031a 29E0     		b	.L42
 603              	.L39:
 604              		.loc 1 219 0
 605 031c 1023     		movs	r3, #16
 606 031e 8DF83730 		strb	r3, [sp, #55]
 607              		.loc 1 220 0
 608 0322 06E0     		b	.L51
 609              	.L38:
 610              		.loc 1 223 0
 611 0324 0A23     		movs	r3, #10
 612 0326 8DF83730 		strb	r3, [sp, #55]
 613              		.loc 1 224 0
 614 032a 02E0     		b	.L51
 615              	.L37:
 616              		.loc 1 227 0
 617 032c 0823     		movs	r3, #8
 618 032e 8DF83730 		strb	r3, [sp, #55]
 619              	.L51:
 620              		.loc 1 229 0
 621 0332 9DF82730 		ldrb	r3, [sp, #39]	@ zero_extendqisi2
 622 0336 002B     		cmp	r3, #0
 623 0338 05D0     		beq	.L52
 624              		.loc 1 230 0
 625 033a 019B     		ldr	r3, [sp, #4]
 626 033c 1A1D     		adds	r2, r3, #4
ARM GAS  /tmp/ccSc3bGh.s 			page 12


 627 033e 0192     		str	r2, [sp, #4]
 628 0340 1B68     		ldr	r3, [r3]
 629 0342 0893     		str	r3, [sp, #32]
 630 0344 04E0     		b	.L53
 631              	.L52:
 632              		.loc 1 232 0
 633 0346 019B     		ldr	r3, [sp, #4]
 634 0348 1A1D     		adds	r2, r3, #4
 635 034a 0192     		str	r2, [sp, #4]
 636 034c 1B68     		ldr	r3, [r3]
 637 034e 0893     		str	r3, [sp, #32]
 638              	.L53:
 639              		.loc 1 233 0
 640 0350 9DF83730 		ldrb	r3, [sp, #55]	@ zero_extendqisi2
 641 0354 0F98     		ldr	r0, [sp, #60]
 642 0356 0899     		ldr	r1, [sp, #32]
 643 0358 1A46     		mov	r2, r3
 644 035a FFF7FEFF 		bl	ltoa
 645 035e 0F90     		str	r0, [sp, #60]
 646              		.loc 1 234 0
 647 0360 06E0     		b	.L42
 648              	.L34:
 649              		.loc 1 236 0
 650 0362 0F9B     		ldr	r3, [sp, #60]
 651 0364 5A1C     		adds	r2, r3, #1
 652 0366 0F92     		str	r2, [sp, #60]
 653 0368 9DF83720 		ldrb	r2, [sp, #55]
 654 036c 1A70     		strb	r2, [r3]
 655              		.loc 1 237 0
 656 036e 00BF     		nop
 657              	.L42:
 658              		.loc 1 239 0
 659 0370 0F9A     		ldr	r2, [sp, #60]
 660 0372 0E9B     		ldr	r3, [sp, #56]
 661 0374 D31A     		subs	r3, r2, r3
 662 0376 0C93     		str	r3, [sp, #48]
 663              		.loc 1 240 0
 664 0378 0A9A     		ldr	r2, [sp, #40]
 665 037a 0C9B     		ldr	r3, [sp, #48]
 666 037c D31A     		subs	r3, r2, r3
 667 037e 0A93     		str	r3, [sp, #40]
 668 0380 0A9B     		ldr	r3, [sp, #40]
 669 0382 002B     		cmp	r3, #0
 670 0384 01DA     		bge	.L54
 671              		.loc 1 241 0
 672 0386 0023     		movs	r3, #0
 673 0388 0A93     		str	r3, [sp, #40]
 674              	.L54:
 675              		.loc 1 242 0
 676 038a 9DF82630 		ldrb	r3, [sp, #38]
 677 038e 83F00103 		eor	r3, r3, #1
 678 0392 DBB2     		uxtb	r3, r3
 679 0394 002B     		cmp	r3, #0
 680 0396 02D0     		beq	.L55
 681              		.loc 1 243 0
 682 0398 0A9B     		ldr	r3, [sp, #40]
 683 039a 5B42     		negs	r3, r3
ARM GAS  /tmp/ccSc3bGh.s 			page 13


 684 039c 0A93     		str	r3, [sp, #40]
 685              	.L55:
 686              		.loc 1 244 0
 687 039e 0A9B     		ldr	r3, [sp, #40]
 688 03a0 002B     		cmp	r3, #0
 689 03a2 22DA     		bge	.L56
 690              		.loc 1 245 0
 691 03a4 0E9B     		ldr	r3, [sp, #56]
 692 03a6 1B78     		ldrb	r3, [r3]	@ zero_extendqisi2
 693 03a8 2D2B     		cmp	r3, #45
 694 03aa 10D1     		bne	.L57
 695              		.loc 1 245 0 is_stmt 0 discriminator 1
 696 03ac 9DF83630 		ldrb	r3, [sp, #54]	@ zero_extendqisi2
 697 03b0 302B     		cmp	r3, #48
 698 03b2 0CD1     		bne	.L57
 699              		.loc 1 246 0 is_stmt 1
 700 03b4 039B     		ldr	r3, [sp, #12]
 701 03b6 1B68     		ldr	r3, [r3]
 702 03b8 9A68     		ldr	r2, [r3, #8]
 703 03ba 0E9B     		ldr	r3, [sp, #56]
 704 03bc 591C     		adds	r1, r3, #1
 705 03be 0E91     		str	r1, [sp, #56]
 706 03c0 1B78     		ldrb	r3, [r3]	@ zero_extendqisi2
 707 03c2 0398     		ldr	r0, [sp, #12]
 708 03c4 1946     		mov	r1, r3
 709 03c6 9047     		blx	r2
 710              		.loc 1 247 0
 711 03c8 0C9B     		ldr	r3, [sp, #48]
 712 03ca 013B     		subs	r3, r3, #1
 713 03cc 0C93     		str	r3, [sp, #48]
 714              	.L57:
 715              		.loc 1 250 0 discriminator 1
 716 03ce 039B     		ldr	r3, [sp, #12]
 717 03d0 1B68     		ldr	r3, [r3]
 718 03d2 9B68     		ldr	r3, [r3, #8]
 719 03d4 9DF83620 		ldrb	r2, [sp, #54]	@ zero_extendqisi2
 720 03d8 0398     		ldr	r0, [sp, #12]
 721 03da 1146     		mov	r1, r2
 722 03dc 9847     		blx	r3
 723              		.loc 1 251 0 discriminator 1
 724 03de 0A9B     		ldr	r3, [sp, #40]
 725 03e0 0133     		adds	r3, r3, #1
 726 03e2 0A93     		str	r3, [sp, #40]
 727 03e4 0A9B     		ldr	r3, [sp, #40]
 728 03e6 002B     		cmp	r3, #0
 729 03e8 F1D1     		bne	.L57
 730              	.L56:
 731              		.loc 1 253 0
 732 03ea 09E0     		b	.L58
 733              	.L59:
 734              		.loc 1 254 0
 735 03ec 039B     		ldr	r3, [sp, #12]
 736 03ee 1B68     		ldr	r3, [r3]
 737 03f0 9A68     		ldr	r2, [r3, #8]
 738 03f2 0E9B     		ldr	r3, [sp, #56]
 739 03f4 591C     		adds	r1, r3, #1
 740 03f6 0E91     		str	r1, [sp, #56]
ARM GAS  /tmp/ccSc3bGh.s 			page 14


 741 03f8 1B78     		ldrb	r3, [r3]	@ zero_extendqisi2
 742 03fa 0398     		ldr	r0, [sp, #12]
 743 03fc 1946     		mov	r1, r3
 744 03fe 9047     		blx	r2
 745              	.L58:
 746              		.loc 1 253 0
 747 0400 0C9B     		ldr	r3, [sp, #48]
 748 0402 013B     		subs	r3, r3, #1
 749 0404 0C93     		str	r3, [sp, #48]
 750 0406 0C9B     		ldr	r3, [sp, #48]
 751 0408 002B     		cmp	r3, #0
 752 040a EFDA     		bge	.L59
 753              		.loc 1 256 0
 754 040c 0AE0     		b	.L60
 755              	.L61:
 756              		.loc 1 257 0
 757 040e 039B     		ldr	r3, [sp, #12]
 758 0410 1B68     		ldr	r3, [r3]
 759 0412 9B68     		ldr	r3, [r3, #8]
 760 0414 9DF83620 		ldrb	r2, [sp, #54]	@ zero_extendqisi2
 761 0418 0398     		ldr	r0, [sp, #12]
 762 041a 1146     		mov	r1, r2
 763 041c 9847     		blx	r3
 764              		.loc 1 258 0
 765 041e 0A9B     		ldr	r3, [sp, #40]
 766 0420 013B     		subs	r3, r3, #1
 767 0422 0A93     		str	r3, [sp, #40]
 768              	.L60:
 769              		.loc 1 256 0
 770 0424 0A9B     		ldr	r3, [sp, #40]
 771 0426 002B     		cmp	r3, #0
 772 0428 F1D1     		bne	.L61
 773              	.L14:
 774              		.loc 1 260 0
 775 042a EEE5     		b	.L62
 776              	.L64:
 777              		.loc 1 261 0
 778 042c 11B0     		add	sp, sp, #68
 779              		.cfi_def_cfa_offset 4
 780              		@ sp needed
 781 042e 5DF804FB 		ldr	pc, [sp], #4
 782              	.L66:
 783 0432 00BF     		.align	2
 784              	.L65:
 785 0434 00000000 		.word	.LC0
 786              		.cfi_endproc
 787              	.LFE3:
 788              		.size	chvprintf, .-chvprintf
 789 0438 AFF30080 		.section	.text.chsnprintf,"ax",%progbits
 789      AFF30080 
 790              		.align	2
 791              		.p2align 4,,15
 792              		.global	chsnprintf
 793              		.thumb
 794              		.thumb_func
 795              		.type	chsnprintf, %function
 796              	chsnprintf:
ARM GAS  /tmp/ccSc3bGh.s 			page 15


 797              	.LFB4:
 798              		.loc 1 288 0
 799              		.cfi_startproc
 800              		@ args = 4, pretend = 8, frame = 40
 801              		@ frame_needed = 0, uses_anonymous_args = 1
 802 0000 0CB4     		push	{r2, r3}
 803              		.cfi_def_cfa_offset 8
 804              		.cfi_offset 2, -8
 805              		.cfi_offset 3, -4
 806 0002 00B5     		push	{lr}
 807              		.cfi_def_cfa_offset 12
 808              		.cfi_offset 14, -12
 809 0004 8BB0     		sub	sp, sp, #44
 810              		.cfi_def_cfa_offset 56
 811 0006 0190     		str	r0, [sp, #4]
 812 0008 0091     		str	r1, [sp]
 813              		.loc 1 295 0
 814 000a 009B     		ldr	r3, [sp]
 815 000c 013B     		subs	r3, r3, #1
 816 000e 03AA     		add	r2, sp, #12
 817 0010 1046     		mov	r0, r2
 818 0012 0199     		ldr	r1, [sp, #4]
 819 0014 1A46     		mov	r2, r3
 820 0016 0023     		movs	r3, #0
 821 0018 FFF7FEFF 		bl	msObjectInit
 822              		.loc 1 298 0
 823 001c 03AB     		add	r3, sp, #12
 824 001e 0993     		str	r3, [sp, #36]
 825              		.loc 1 299 0
 826 0020 0DAB     		add	r3, sp, #52
 827 0022 0893     		str	r3, [sp, #32]
 828              		.loc 1 300 0
 829 0024 0998     		ldr	r0, [sp, #36]
 830 0026 0C99     		ldr	r1, [sp, #48]
 831 0028 089A     		ldr	r2, [sp, #32]
 832 002a FFF7FEFF 		bl	chvprintf
 833              		.loc 1 304 0
 834 002e 069B     		ldr	r3, [sp, #24]
 835 0030 019A     		ldr	r2, [sp, #4]
 836 0032 1344     		add	r3, r3, r2
 837 0034 0022     		movs	r2, #0
 838 0036 1A70     		strb	r2, [r3]
 839              		.loc 1 305 0
 840 0038 069B     		ldr	r3, [sp, #24]
 841              		.loc 1 306 0
 842 003a 1846     		mov	r0, r3
 843 003c 0BB0     		add	sp, sp, #44
 844              		.cfi_def_cfa_offset 12
 845              		@ sp needed
 846 003e 5DF804EB 		ldr	lr, [sp], #4
 847              		.cfi_restore 14
 848              		.cfi_def_cfa_offset 8
 849 0042 02B0     		add	sp, sp, #8
 850              		.cfi_restore 3
 851              		.cfi_restore 2
 852              		.cfi_def_cfa_offset 0
 853 0044 7047     		bx	lr
ARM GAS  /tmp/ccSc3bGh.s 			page 16


 854              		.cfi_endproc
 855              	.LFE4:
 856              		.size	chsnprintf, .-chsnprintf
 857 0046 00BFAFF3 		.text
 857      0080AFF3 
 857      0080
 858              	.Letext0:
 859              		.file 2 "/opt/gcc-arm-none-eabi/lib/gcc/arm-none-eabi/4.9.3/include/stddef.h"
 860              		.file 3 "/opt/gcc-arm-none-eabi/arm-none-eabi/include/machine/_default_types.h"
 861              		.file 4 "/opt/gcc-arm-none-eabi/arm-none-eabi/include/stdint.h"
 862              		.file 5 "/home/makkmarci/workspace/ChibiOS_2.6.8/os/ports/GCC/ARMCMx/chtypes.h"
 863              		.file 6 "/home/makkmarci/workspace/ChibiOS_2.6.8/os/kernel/include/chstreams.h"
 864              		.file 7 "/opt/gcc-arm-none-eabi/lib/gcc/arm-none-eabi/4.9.3/include/stdarg.h"
 865              		.file 8 "<built-in>"
 866              		.file 9 "/home/makkmarci/workspace/ChibiOS_2.6.8/os/various/memstreams.h"