ARM GAS  /tmp/ccxzWant.s 			page 1


   1              		.syntax unified
   2              		.cpu cortex-m4
   3              		.eabi_attribute 27, 1
   4              		.eabi_attribute 28, 1
   5              		.fpu fpv4-sp-d16
   6              		.eabi_attribute 20, 1
   7              		.eabi_attribute 21, 1
   8              		.eabi_attribute 23, 3
   9              		.eabi_attribute 24, 1
  10              		.eabi_attribute 25, 1
  11              		.eabi_attribute 26, 1
  12              		.eabi_attribute 30, 6
  13              		.eabi_attribute 34, 1
  14              		.eabi_attribute 18, 4
  15              		.thumb
  16              		.file	"chqueues.c"
  17              		.text
  18              	.Ltext0:
  19              		.cfi_sections	.debug_frame
  20              		.section	.text.qwait,"ax",%progbits
  21              		.align	2
  22              		.p2align 4,,15
  23              		.thumb
  24              		.thumb_func
  25              		.type	qwait, %function
  26              	qwait:
  27              	.LFB0:
  28              		.file 1 "/home/makkmarci/workspace/ChibiOS_2.6.8/os/kernel/src/chqueues.c"
  29              		.loc 1 70 0
  30              		.cfi_startproc
  31              		@ args = 0, pretend = 0, frame = 8
  32              		@ frame_needed = 0, uses_anonymous_args = 0
  33 0000 00B5     		push	{lr}
  34              		.cfi_def_cfa_offset 4
  35              		.cfi_offset 14, -4
  36 0002 83B0     		sub	sp, sp, #12
  37              		.cfi_def_cfa_offset 16
  38 0004 0190     		str	r0, [sp, #4]
  39 0006 0091     		str	r1, [sp]
  40              		.loc 1 72 0
  41 0008 009B     		ldr	r3, [sp]
  42 000a 002B     		cmp	r3, #0
  43 000c 02D1     		bne	.L2
  44              		.loc 1 73 0
  45 000e 4FF0FF33 		mov	r3, #-1
  46 0012 0FE0     		b	.L3
  47              	.L2:
  48              		.loc 1 74 0
  49 0014 094B     		ldr	r3, .L4
  50 0016 9B69     		ldr	r3, [r3, #24]
  51 0018 019A     		ldr	r2, [sp, #4]
  52 001a 9A62     		str	r2, [r3, #40]
  53              		.loc 1 75 0
  54 001c 074B     		ldr	r3, .L4
  55 001e 9A69     		ldr	r2, [r3, #24]
  56 0020 019B     		ldr	r3, [sp, #4]
  57 0022 1046     		mov	r0, r2
ARM GAS  /tmp/ccxzWant.s 			page 2


  58 0024 1946     		mov	r1, r3
  59 0026 FFF7FEFF 		bl	queue_insert
  60              		.loc 1 76 0
  61 002a 0D20     		movs	r0, #13
  62 002c 0099     		ldr	r1, [sp]
  63 002e FFF7FEFF 		bl	chSchGoSleepTimeoutS
  64 0032 0346     		mov	r3, r0
  65              	.L3:
  66              		.loc 1 77 0
  67 0034 1846     		mov	r0, r3
  68 0036 03B0     		add	sp, sp, #12
  69              		.cfi_def_cfa_offset 4
  70              		@ sp needed
  71 0038 5DF804FB 		ldr	pc, [sp], #4
  72              	.L5:
  73              		.align	2
  74              	.L4:
  75 003c 00000000 		.word	rlist
  76              		.cfi_endproc
  77              	.LFE0:
  78              		.size	qwait, .-qwait
  79              		.section	.text.chIQInit,"ax",%progbits
  80              		.align	2
  81              		.p2align 4,,15
  82              		.global	chIQInit
  83              		.thumb
  84              		.thumb_func
  85              		.type	chIQInit, %function
  86              	chIQInit:
  87              	.LFB1:
  88              		.loc 1 96 0
  89              		.cfi_startproc
  90              		@ args = 4, pretend = 0, frame = 16
  91              		@ frame_needed = 0, uses_anonymous_args = 0
  92              		@ link register save eliminated.
  93 0000 84B0     		sub	sp, sp, #16
  94              		.cfi_def_cfa_offset 16
  95 0002 0390     		str	r0, [sp, #12]
  96 0004 0291     		str	r1, [sp, #8]
  97 0006 0192     		str	r2, [sp, #4]
  98 0008 0093     		str	r3, [sp]
  99              		.loc 1 98 0
 100 000a 039A     		ldr	r2, [sp, #12]
 101 000c 039B     		ldr	r3, [sp, #12]
 102 000e 5A60     		str	r2, [r3, #4]
 103 0010 039B     		ldr	r3, [sp, #12]
 104 0012 5A68     		ldr	r2, [r3, #4]
 105 0014 039B     		ldr	r3, [sp, #12]
 106 0016 1A60     		str	r2, [r3]
 107              		.loc 1 99 0
 108 0018 039B     		ldr	r3, [sp, #12]
 109 001a 0022     		movs	r2, #0
 110 001c 9A60     		str	r2, [r3, #8]
 111              		.loc 1 100 0
 112 001e 039B     		ldr	r3, [sp, #12]
 113 0020 029A     		ldr	r2, [sp, #8]
 114 0022 5A61     		str	r2, [r3, #20]
ARM GAS  /tmp/ccxzWant.s 			page 3


 115 0024 039B     		ldr	r3, [sp, #12]
 116 0026 5A69     		ldr	r2, [r3, #20]
 117 0028 039B     		ldr	r3, [sp, #12]
 118 002a 9A61     		str	r2, [r3, #24]
 119 002c 039B     		ldr	r3, [sp, #12]
 120 002e 9A69     		ldr	r2, [r3, #24]
 121 0030 039B     		ldr	r3, [sp, #12]
 122 0032 DA60     		str	r2, [r3, #12]
 123              		.loc 1 101 0
 124 0034 029A     		ldr	r2, [sp, #8]
 125 0036 019B     		ldr	r3, [sp, #4]
 126 0038 1A44     		add	r2, r2, r3
 127 003a 039B     		ldr	r3, [sp, #12]
 128 003c 1A61     		str	r2, [r3, #16]
 129              		.loc 1 102 0
 130 003e 039B     		ldr	r3, [sp, #12]
 131 0040 009A     		ldr	r2, [sp]
 132 0042 DA61     		str	r2, [r3, #28]
 133              		.loc 1 103 0
 134 0044 039B     		ldr	r3, [sp, #12]
 135 0046 049A     		ldr	r2, [sp, #16]
 136 0048 1A62     		str	r2, [r3, #32]
 137              		.loc 1 104 0
 138 004a 04B0     		add	sp, sp, #16
 139              		.cfi_def_cfa_offset 0
 140              		@ sp needed
 141 004c 7047     		bx	lr
 142              		.cfi_endproc
 143              	.LFE1:
 144              		.size	chIQInit, .-chIQInit
 145 004e 00BF     		.section	.text.chIQResetI,"ax",%progbits
 146              		.align	2
 147              		.p2align 4,,15
 148              		.global	chIQResetI
 149              		.thumb
 150              		.thumb_func
 151              		.type	chIQResetI, %function
 152              	chIQResetI:
 153              	.LFB2:
 154              		.loc 1 117 0
 155              		.cfi_startproc
 156              		@ args = 0, pretend = 0, frame = 8
 157              		@ frame_needed = 0, uses_anonymous_args = 0
 158 0000 00B5     		push	{lr}
 159              		.cfi_def_cfa_offset 4
 160              		.cfi_offset 14, -4
 161 0002 83B0     		sub	sp, sp, #12
 162              		.cfi_def_cfa_offset 16
 163 0004 0190     		str	r0, [sp, #4]
 164              		.loc 1 121 0
 165 0006 019B     		ldr	r3, [sp, #4]
 166 0008 DA68     		ldr	r2, [r3, #12]
 167 000a 019B     		ldr	r3, [sp, #4]
 168 000c 5A61     		str	r2, [r3, #20]
 169 000e 019B     		ldr	r3, [sp, #4]
 170 0010 5A69     		ldr	r2, [r3, #20]
 171 0012 019B     		ldr	r3, [sp, #4]
ARM GAS  /tmp/ccxzWant.s 			page 4


 172 0014 9A61     		str	r2, [r3, #24]
 173              		.loc 1 122 0
 174 0016 019B     		ldr	r3, [sp, #4]
 175 0018 0022     		movs	r2, #0
 176 001a 9A60     		str	r2, [r3, #8]
 177              		.loc 1 123 0
 178 001c 0BE0     		b	.L8
 179              	.L9:
 180              		.loc 1 124 0
 181 001e 019B     		ldr	r3, [sp, #4]
 182 0020 1846     		mov	r0, r3
 183 0022 FFF7FEFF 		bl	fifo_remove
 184 0026 0346     		mov	r3, r0
 185 0028 1846     		mov	r0, r3
 186 002a FFF7FEFF 		bl	chSchReadyI
 187 002e 0246     		mov	r2, r0
 188 0030 6FF00103 		mvn	r3, #1
 189 0034 9362     		str	r3, [r2, #40]
 190              	.L8:
 191              		.loc 1 123 0
 192 0036 019B     		ldr	r3, [sp, #4]
 193 0038 1A68     		ldr	r2, [r3]
 194 003a 019B     		ldr	r3, [sp, #4]
 195 003c 9A42     		cmp	r2, r3
 196 003e EED1     		bne	.L9
 197              		.loc 1 125 0
 198 0040 03B0     		add	sp, sp, #12
 199              		.cfi_def_cfa_offset 4
 200              		@ sp needed
 201 0042 5DF804FB 		ldr	pc, [sp], #4
 202              		.cfi_endproc
 203              	.LFE2:
 204              		.size	chIQResetI, .-chIQResetI
 205 0046 00BFAFF3 		.section	.text.chIQPutI,"ax",%progbits
 205      0080AFF3 
 205      0080
 206              		.align	2
 207              		.p2align 4,,15
 208              		.global	chIQPutI
 209              		.thumb
 210              		.thumb_func
 211              		.type	chIQPutI, %function
 212              	chIQPutI:
 213              	.LFB3:
 214              		.loc 1 140 0
 215              		.cfi_startproc
 216              		@ args = 0, pretend = 0, frame = 8
 217              		@ frame_needed = 0, uses_anonymous_args = 0
 218 0000 00B5     		push	{lr}
 219              		.cfi_def_cfa_offset 4
 220              		.cfi_offset 14, -4
 221 0002 83B0     		sub	sp, sp, #12
 222              		.cfi_def_cfa_offset 16
 223 0004 0190     		str	r0, [sp, #4]
 224 0006 0B46     		mov	r3, r1
 225 0008 8DF80330 		strb	r3, [sp, #3]
 226              		.loc 1 144 0
ARM GAS  /tmp/ccxzWant.s 			page 5


 227 000c 019B     		ldr	r3, [sp, #4]
 228 000e 5A69     		ldr	r2, [r3, #20]
 229 0010 019B     		ldr	r3, [sp, #4]
 230 0012 9B69     		ldr	r3, [r3, #24]
 231 0014 9A42     		cmp	r2, r3
 232 0016 05D1     		bne	.L11
 233              		.loc 1 144 0 is_stmt 0 discriminator 1
 234 0018 019B     		ldr	r3, [sp, #4]
 235 001a 9B68     		ldr	r3, [r3, #8]
 236 001c 002B     		cmp	r3, #0
 237 001e 01D0     		beq	.L11
 238              		.loc 1 144 0 discriminator 3
 239 0020 0123     		movs	r3, #1
 240 0022 00E0     		b	.L12
 241              	.L11:
 242              		.loc 1 144 0 discriminator 4
 243 0024 0023     		movs	r3, #0
 244              	.L12:
 245              		.loc 1 144 0 discriminator 6
 246 0026 03F00103 		and	r3, r3, #1
 247 002a DBB2     		uxtb	r3, r3
 248 002c 002B     		cmp	r3, #0
 249 002e 02D0     		beq	.L13
 250              		.loc 1 145 0 is_stmt 1
 251 0030 6FF00303 		mvn	r3, #3
 252 0034 27E0     		b	.L14
 253              	.L13:
 254              		.loc 1 147 0
 255 0036 019B     		ldr	r3, [sp, #4]
 256 0038 9B68     		ldr	r3, [r3, #8]
 257 003a 5A1C     		adds	r2, r3, #1
 258 003c 019B     		ldr	r3, [sp, #4]
 259 003e 9A60     		str	r2, [r3, #8]
 260              		.loc 1 148 0
 261 0040 019B     		ldr	r3, [sp, #4]
 262 0042 5B69     		ldr	r3, [r3, #20]
 263 0044 591C     		adds	r1, r3, #1
 264 0046 019A     		ldr	r2, [sp, #4]
 265 0048 5161     		str	r1, [r2, #20]
 266 004a 9DF80320 		ldrb	r2, [sp, #3]
 267 004e 1A70     		strb	r2, [r3]
 268              		.loc 1 149 0
 269 0050 019B     		ldr	r3, [sp, #4]
 270 0052 5A69     		ldr	r2, [r3, #20]
 271 0054 019B     		ldr	r3, [sp, #4]
 272 0056 1B69     		ldr	r3, [r3, #16]
 273 0058 9A42     		cmp	r2, r3
 274 005a 03D3     		bcc	.L15
 275              		.loc 1 150 0
 276 005c 019B     		ldr	r3, [sp, #4]
 277 005e DA68     		ldr	r2, [r3, #12]
 278 0060 019B     		ldr	r3, [sp, #4]
 279 0062 5A61     		str	r2, [r3, #20]
 280              	.L15:
 281              		.loc 1 152 0
 282 0064 019B     		ldr	r3, [sp, #4]
 283 0066 1A68     		ldr	r2, [r3]
ARM GAS  /tmp/ccxzWant.s 			page 6


 284 0068 019B     		ldr	r3, [sp, #4]
 285 006a 9A42     		cmp	r2, r3
 286 006c 0AD0     		beq	.L16
 287              		.loc 1 153 0
 288 006e 019B     		ldr	r3, [sp, #4]
 289 0070 1846     		mov	r0, r3
 290 0072 FFF7FEFF 		bl	fifo_remove
 291 0076 0346     		mov	r3, r0
 292 0078 1846     		mov	r0, r3
 293 007a FFF7FEFF 		bl	chSchReadyI
 294 007e 0246     		mov	r2, r0
 295 0080 0023     		movs	r3, #0
 296 0082 9362     		str	r3, [r2, #40]
 297              	.L16:
 298              		.loc 1 155 0
 299 0084 0023     		movs	r3, #0
 300              	.L14:
 301              		.loc 1 156 0
 302 0086 1846     		mov	r0, r3
 303 0088 03B0     		add	sp, sp, #12
 304              		.cfi_def_cfa_offset 4
 305              		@ sp needed
 306 008a 5DF804FB 		ldr	pc, [sp], #4
 307              		.cfi_endproc
 308              	.LFE3:
 309              		.size	chIQPutI, .-chIQPutI
 310              		.section	.text.chIQGetTimeout,"ax",%progbits
 311              		.align	2
 312              		.p2align 4,,15
 313              		.global	chIQGetTimeout
 314              		.thumb
 315              		.thumb_func
 316              		.type	chIQGetTimeout, %function
 317              	chIQGetTimeout:
 318              	.LFB4:
 319              		.loc 1 178 0
 320              		.cfi_startproc
 321              		@ args = 0, pretend = 0, frame = 16
 322              		@ frame_needed = 0, uses_anonymous_args = 0
 323 0000 00B5     		push	{lr}
 324              		.cfi_def_cfa_offset 4
 325              		.cfi_offset 14, -4
 326 0002 85B0     		sub	sp, sp, #20
 327              		.cfi_def_cfa_offset 24
 328 0004 0190     		str	r0, [sp, #4]
 329 0006 0091     		str	r1, [sp]
 330              		.loc 1 181 0
 331              	@ 181 "/home/makkmarci/workspace/ChibiOS_2.6.8/os/kernel/src/chqueues.c" 1
 332 0008 FFF7FEFF 		bl      _port_lock
 333              	@ 0 "" 2
 334              		.loc 1 182 0
 335              		.thumb
 336 000c 019B     		ldr	r3, [sp, #4]
 337 000e DB69     		ldr	r3, [r3, #28]
 338 0010 002B     		cmp	r3, #0
 339 0012 03D0     		beq	.L18
 340              		.loc 1 183 0
ARM GAS  /tmp/ccxzWant.s 			page 7


 341 0014 019B     		ldr	r3, [sp, #4]
 342 0016 DB69     		ldr	r3, [r3, #28]
 343 0018 0198     		ldr	r0, [sp, #4]
 344 001a 9847     		blx	r3
 345              	.L18:
 346              		.loc 1 185 0
 347 001c 0BE0     		b	.L19
 348              	.L21:
 349              	.LBB2:
 350              		.loc 1 187 0
 351 001e 0198     		ldr	r0, [sp, #4]
 352 0020 0099     		ldr	r1, [sp]
 353 0022 FFF7FEFF 		bl	qwait
 354 0026 0390     		str	r0, [sp, #12]
 355 0028 039B     		ldr	r3, [sp, #12]
 356 002a 002B     		cmp	r3, #0
 357 002c 03DA     		bge	.L19
 358              		.loc 1 188 0
 359              	@ 188 "/home/makkmarci/workspace/ChibiOS_2.6.8/os/kernel/src/chqueues.c" 1
 360 002e FFF7FEFF 		bl      _port_unlock
 361              	@ 0 "" 2
 362              		.loc 1 189 0
 363              		.thumb
 364 0032 039B     		ldr	r3, [sp, #12]
 365 0034 1EE0     		b	.L20
 366              	.L19:
 367              	.LBE2:
 368              		.loc 1 185 0
 369 0036 019B     		ldr	r3, [sp, #4]
 370 0038 9B68     		ldr	r3, [r3, #8]
 371 003a 002B     		cmp	r3, #0
 372 003c EFD0     		beq	.L21
 373              		.loc 1 193 0
 374 003e 019B     		ldr	r3, [sp, #4]
 375 0040 9B68     		ldr	r3, [r3, #8]
 376 0042 5A1E     		subs	r2, r3, #1
 377 0044 019B     		ldr	r3, [sp, #4]
 378 0046 9A60     		str	r2, [r3, #8]
 379              		.loc 1 194 0
 380 0048 019B     		ldr	r3, [sp, #4]
 381 004a 9B69     		ldr	r3, [r3, #24]
 382 004c 591C     		adds	r1, r3, #1
 383 004e 019A     		ldr	r2, [sp, #4]
 384 0050 9161     		str	r1, [r2, #24]
 385 0052 1B78     		ldrb	r3, [r3]
 386 0054 8DF80B30 		strb	r3, [sp, #11]
 387              		.loc 1 195 0
 388 0058 019B     		ldr	r3, [sp, #4]
 389 005a 9A69     		ldr	r2, [r3, #24]
 390 005c 019B     		ldr	r3, [sp, #4]
 391 005e 1B69     		ldr	r3, [r3, #16]
 392 0060 9A42     		cmp	r2, r3
 393 0062 03D3     		bcc	.L22
 394              		.loc 1 196 0
 395 0064 019B     		ldr	r3, [sp, #4]
 396 0066 DA68     		ldr	r2, [r3, #12]
 397 0068 019B     		ldr	r3, [sp, #4]
ARM GAS  /tmp/ccxzWant.s 			page 8


 398 006a 9A61     		str	r2, [r3, #24]
 399              	.L22:
 400              		.loc 1 198 0
 401              	@ 198 "/home/makkmarci/workspace/ChibiOS_2.6.8/os/kernel/src/chqueues.c" 1
 402 006c FFF7FEFF 		bl      _port_unlock
 403              	@ 0 "" 2
 404              		.loc 1 199 0
 405              		.thumb
 406 0070 9DF80B30 		ldrb	r3, [sp, #11]	@ zero_extendqisi2
 407              	.L20:
 408              		.loc 1 200 0
 409 0074 1846     		mov	r0, r3
 410 0076 05B0     		add	sp, sp, #20
 411              		.cfi_def_cfa_offset 4
 412              		@ sp needed
 413 0078 5DF804FB 		ldr	pc, [sp], #4
 414              		.cfi_endproc
 415              	.LFE4:
 416              		.size	chIQGetTimeout, .-chIQGetTimeout
 417 007c AFF30080 		.section	.rodata
 418              		.align	2
 419              	.LC0:
 420 0000 22636849 		.ascii	"\"chIQReadTimeout\"()\000"
 420      51526561 
 420      6454696D 
 420      656F7574 
 420      22282900 
 421              		.section	.text.chIQReadTimeout,"ax",%progbits
 422              		.align	2
 423              		.p2align 4,,15
 424              		.global	chIQReadTimeout
 425              		.thumb
 426              		.thumb_func
 427              		.type	chIQReadTimeout, %function
 428              	chIQReadTimeout:
 429              	.LFB5:
 430              		.loc 1 227 0
 431              		.cfi_startproc
 432              		@ args = 0, pretend = 0, frame = 24
 433              		@ frame_needed = 0, uses_anonymous_args = 0
 434 0000 00B5     		push	{lr}
 435              		.cfi_def_cfa_offset 4
 436              		.cfi_offset 14, -4
 437 0002 87B0     		sub	sp, sp, #28
 438              		.cfi_def_cfa_offset 32
 439 0004 0390     		str	r0, [sp, #12]
 440 0006 0291     		str	r1, [sp, #8]
 441 0008 0192     		str	r2, [sp, #4]
 442 000a 0093     		str	r3, [sp]
 443              		.loc 1 228 0
 444 000c 039B     		ldr	r3, [sp, #12]
 445 000e DB69     		ldr	r3, [r3, #28]
 446 0010 0493     		str	r3, [sp, #16]
 447              		.loc 1 229 0
 448 0012 0023     		movs	r3, #0
 449 0014 0593     		str	r3, [sp, #20]
 450              		.loc 1 231 0
ARM GAS  /tmp/ccxzWant.s 			page 9


 451 0016 019B     		ldr	r3, [sp, #4]
 452 0018 002B     		cmp	r3, #0
 453 001a 02D1     		bne	.L24
 454              		.loc 1 231 0 is_stmt 0 discriminator 1
 455 001c 2348     		ldr	r0, .L32
 456 001e FFF7FEFF 		bl	chDbgPanic
 457              	.L24:
 458              		.loc 1 233 0 is_stmt 1
 459              	@ 233 "/home/makkmarci/workspace/ChibiOS_2.6.8/os/kernel/src/chqueues.c" 1
 460 0022 FFF7FEFF 		bl      _port_lock
 461              	@ 0 "" 2
 462              		.thumb
 463              	.L31:
 464              		.loc 1 235 0
 465 0026 049B     		ldr	r3, [sp, #16]
 466 0028 002B     		cmp	r3, #0
 467 002a 02D0     		beq	.L25
 468              		.loc 1 236 0
 469 002c 049B     		ldr	r3, [sp, #16]
 470 002e 0398     		ldr	r0, [sp, #12]
 471 0030 9847     		blx	r3
 472              	.L25:
 473              		.loc 1 238 0
 474 0032 0AE0     		b	.L26
 475              	.L28:
 476              		.loc 1 239 0
 477 0034 0398     		ldr	r0, [sp, #12]
 478 0036 0099     		ldr	r1, [sp]
 479 0038 FFF7FEFF 		bl	qwait
 480 003c 0346     		mov	r3, r0
 481 003e 002B     		cmp	r3, #0
 482 0040 03D0     		beq	.L26
 483              		.loc 1 240 0
 484              	@ 240 "/home/makkmarci/workspace/ChibiOS_2.6.8/os/kernel/src/chqueues.c" 1
 485 0042 FFF7FEFF 		bl      _port_unlock
 486              	@ 0 "" 2
 487              		.loc 1 241 0
 488              		.thumb
 489 0046 059B     		ldr	r3, [sp, #20]
 490 0048 2CE0     		b	.L27
 491              	.L26:
 492              		.loc 1 238 0
 493 004a 039B     		ldr	r3, [sp, #12]
 494 004c 9B68     		ldr	r3, [r3, #8]
 495 004e 002B     		cmp	r3, #0
 496 0050 F0D0     		beq	.L28
 497              		.loc 1 245 0
 498 0052 039B     		ldr	r3, [sp, #12]
 499 0054 9B68     		ldr	r3, [r3, #8]
 500 0056 5A1E     		subs	r2, r3, #1
 501 0058 039B     		ldr	r3, [sp, #12]
 502 005a 9A60     		str	r2, [r3, #8]
 503              		.loc 1 246 0
 504 005c 029B     		ldr	r3, [sp, #8]
 505 005e 5A1C     		adds	r2, r3, #1
 506 0060 0292     		str	r2, [sp, #8]
 507 0062 039A     		ldr	r2, [sp, #12]
ARM GAS  /tmp/ccxzWant.s 			page 10


 508 0064 9269     		ldr	r2, [r2, #24]
 509 0066 501C     		adds	r0, r2, #1
 510 0068 0399     		ldr	r1, [sp, #12]
 511 006a 8861     		str	r0, [r1, #24]
 512 006c 1278     		ldrb	r2, [r2]	@ zero_extendqisi2
 513 006e 1A70     		strb	r2, [r3]
 514              		.loc 1 247 0
 515 0070 039B     		ldr	r3, [sp, #12]
 516 0072 9A69     		ldr	r2, [r3, #24]
 517 0074 039B     		ldr	r3, [sp, #12]
 518 0076 1B69     		ldr	r3, [r3, #16]
 519 0078 9A42     		cmp	r2, r3
 520 007a 03D3     		bcc	.L29
 521              		.loc 1 248 0
 522 007c 039B     		ldr	r3, [sp, #12]
 523 007e DA68     		ldr	r2, [r3, #12]
 524 0080 039B     		ldr	r3, [sp, #12]
 525 0082 9A61     		str	r2, [r3, #24]
 526              	.L29:
 527              		.loc 1 250 0
 528              	@ 250 "/home/makkmarci/workspace/ChibiOS_2.6.8/os/kernel/src/chqueues.c" 1
 529 0084 FFF7FEFF 		bl      _port_unlock
 530              	@ 0 "" 2
 531              		.loc 1 251 0
 532              		.thumb
 533 0088 059B     		ldr	r3, [sp, #20]
 534 008a 0133     		adds	r3, r3, #1
 535 008c 0593     		str	r3, [sp, #20]
 536              		.loc 1 252 0
 537 008e 019B     		ldr	r3, [sp, #4]
 538 0090 013B     		subs	r3, r3, #1
 539 0092 0193     		str	r3, [sp, #4]
 540 0094 019B     		ldr	r3, [sp, #4]
 541 0096 002B     		cmp	r3, #0
 542 0098 01D1     		bne	.L30
 543              		.loc 1 253 0
 544 009a 059B     		ldr	r3, [sp, #20]
 545 009c 02E0     		b	.L27
 546              	.L30:
 547              		.loc 1 255 0
 548              	@ 255 "/home/makkmarci/workspace/ChibiOS_2.6.8/os/kernel/src/chqueues.c" 1
 549 009e FFF7FEFF 		bl      _port_lock
 550              	@ 0 "" 2
 551              		.loc 1 256 0
 552              		.thumb
 553 00a2 C0E7     		b	.L31
 554              	.L27:
 555              		.loc 1 257 0
 556 00a4 1846     		mov	r0, r3
 557 00a6 07B0     		add	sp, sp, #28
 558              		.cfi_def_cfa_offset 4
 559              		@ sp needed
 560 00a8 5DF804FB 		ldr	pc, [sp], #4
 561              	.L33:
 562              		.align	2
 563              	.L32:
 564 00ac 00000000 		.word	.LC0
ARM GAS  /tmp/ccxzWant.s 			page 11


 565              		.cfi_endproc
 566              	.LFE5:
 567              		.size	chIQReadTimeout, .-chIQReadTimeout
 568              		.section	.text.chOQInit,"ax",%progbits
 569              		.align	2
 570              		.p2align 4,,15
 571              		.global	chOQInit
 572              		.thumb
 573              		.thumb_func
 574              		.type	chOQInit, %function
 575              	chOQInit:
 576              	.LFB6:
 577              		.loc 1 276 0
 578              		.cfi_startproc
 579              		@ args = 4, pretend = 0, frame = 16
 580              		@ frame_needed = 0, uses_anonymous_args = 0
 581              		@ link register save eliminated.
 582 0000 84B0     		sub	sp, sp, #16
 583              		.cfi_def_cfa_offset 16
 584 0002 0390     		str	r0, [sp, #12]
 585 0004 0291     		str	r1, [sp, #8]
 586 0006 0192     		str	r2, [sp, #4]
 587 0008 0093     		str	r3, [sp]
 588              		.loc 1 278 0
 589 000a 039A     		ldr	r2, [sp, #12]
 590 000c 039B     		ldr	r3, [sp, #12]
 591 000e 5A60     		str	r2, [r3, #4]
 592 0010 039B     		ldr	r3, [sp, #12]
 593 0012 5A68     		ldr	r2, [r3, #4]
 594 0014 039B     		ldr	r3, [sp, #12]
 595 0016 1A60     		str	r2, [r3]
 596              		.loc 1 279 0
 597 0018 039B     		ldr	r3, [sp, #12]
 598 001a 019A     		ldr	r2, [sp, #4]
 599 001c 9A60     		str	r2, [r3, #8]
 600              		.loc 1 280 0
 601 001e 039B     		ldr	r3, [sp, #12]
 602 0020 029A     		ldr	r2, [sp, #8]
 603 0022 5A61     		str	r2, [r3, #20]
 604 0024 039B     		ldr	r3, [sp, #12]
 605 0026 5A69     		ldr	r2, [r3, #20]
 606 0028 039B     		ldr	r3, [sp, #12]
 607 002a 9A61     		str	r2, [r3, #24]
 608 002c 039B     		ldr	r3, [sp, #12]
 609 002e 9A69     		ldr	r2, [r3, #24]
 610 0030 039B     		ldr	r3, [sp, #12]
 611 0032 DA60     		str	r2, [r3, #12]
 612              		.loc 1 281 0
 613 0034 029A     		ldr	r2, [sp, #8]
 614 0036 019B     		ldr	r3, [sp, #4]
 615 0038 1A44     		add	r2, r2, r3
 616 003a 039B     		ldr	r3, [sp, #12]
 617 003c 1A61     		str	r2, [r3, #16]
 618              		.loc 1 282 0
 619 003e 039B     		ldr	r3, [sp, #12]
 620 0040 009A     		ldr	r2, [sp]
 621 0042 DA61     		str	r2, [r3, #28]
ARM GAS  /tmp/ccxzWant.s 			page 12


 622              		.loc 1 283 0
 623 0044 039B     		ldr	r3, [sp, #12]
 624 0046 049A     		ldr	r2, [sp, #16]
 625 0048 1A62     		str	r2, [r3, #32]
 626              		.loc 1 284 0
 627 004a 04B0     		add	sp, sp, #16
 628              		.cfi_def_cfa_offset 0
 629              		@ sp needed
 630 004c 7047     		bx	lr
 631              		.cfi_endproc
 632              	.LFE6:
 633              		.size	chOQInit, .-chOQInit
 634 004e 00BF     		.section	.text.chOQResetI,"ax",%progbits
 635              		.align	2
 636              		.p2align 4,,15
 637              		.global	chOQResetI
 638              		.thumb
 639              		.thumb_func
 640              		.type	chOQResetI, %function
 641              	chOQResetI:
 642              	.LFB7:
 643              		.loc 1 297 0
 644              		.cfi_startproc
 645              		@ args = 0, pretend = 0, frame = 8
 646              		@ frame_needed = 0, uses_anonymous_args = 0
 647 0000 00B5     		push	{lr}
 648              		.cfi_def_cfa_offset 4
 649              		.cfi_offset 14, -4
 650 0002 83B0     		sub	sp, sp, #12
 651              		.cfi_def_cfa_offset 16
 652 0004 0190     		str	r0, [sp, #4]
 653              		.loc 1 301 0
 654 0006 019B     		ldr	r3, [sp, #4]
 655 0008 DA68     		ldr	r2, [r3, #12]
 656 000a 019B     		ldr	r3, [sp, #4]
 657 000c 5A61     		str	r2, [r3, #20]
 658 000e 019B     		ldr	r3, [sp, #4]
 659 0010 5A69     		ldr	r2, [r3, #20]
 660 0012 019B     		ldr	r3, [sp, #4]
 661 0014 9A61     		str	r2, [r3, #24]
 662              		.loc 1 302 0
 663 0016 019B     		ldr	r3, [sp, #4]
 664 0018 1B69     		ldr	r3, [r3, #16]
 665 001a 1A46     		mov	r2, r3
 666 001c 019B     		ldr	r3, [sp, #4]
 667 001e DB68     		ldr	r3, [r3, #12]
 668 0020 D31A     		subs	r3, r2, r3
 669 0022 1A46     		mov	r2, r3
 670 0024 019B     		ldr	r3, [sp, #4]
 671 0026 9A60     		str	r2, [r3, #8]
 672              		.loc 1 303 0
 673 0028 0BE0     		b	.L36
 674              	.L37:
 675              		.loc 1 304 0
 676 002a 019B     		ldr	r3, [sp, #4]
 677 002c 1846     		mov	r0, r3
 678 002e FFF7FEFF 		bl	fifo_remove
ARM GAS  /tmp/ccxzWant.s 			page 13


 679 0032 0346     		mov	r3, r0
 680 0034 1846     		mov	r0, r3
 681 0036 FFF7FEFF 		bl	chSchReadyI
 682 003a 0246     		mov	r2, r0
 683 003c 6FF00103 		mvn	r3, #1
 684 0040 9362     		str	r3, [r2, #40]
 685              	.L36:
 686              		.loc 1 303 0
 687 0042 019B     		ldr	r3, [sp, #4]
 688 0044 1A68     		ldr	r2, [r3]
 689 0046 019B     		ldr	r3, [sp, #4]
 690 0048 9A42     		cmp	r2, r3
 691 004a EED1     		bne	.L37
 692              		.loc 1 305 0
 693 004c 03B0     		add	sp, sp, #12
 694              		.cfi_def_cfa_offset 4
 695              		@ sp needed
 696 004e 5DF804FB 		ldr	pc, [sp], #4
 697              		.cfi_endproc
 698              	.LFE7:
 699              		.size	chOQResetI, .-chOQResetI
 700              		.section	.text.chOQPutTimeout,"ax",%progbits
 701              		.align	2
 702              		.p2align 4,,15
 703              		.global	chOQPutTimeout
 704              		.thumb
 705              		.thumb_func
 706              		.type	chOQPutTimeout, %function
 707              	chOQPutTimeout:
 708              	.LFB8:
 709              		.loc 1 329 0
 710              		.cfi_startproc
 711              		@ args = 0, pretend = 0, frame = 24
 712              		@ frame_needed = 0, uses_anonymous_args = 0
 713 0000 00B5     		push	{lr}
 714              		.cfi_def_cfa_offset 4
 715              		.cfi_offset 14, -4
 716 0002 87B0     		sub	sp, sp, #28
 717              		.cfi_def_cfa_offset 32
 718 0004 0390     		str	r0, [sp, #12]
 719 0006 0B46     		mov	r3, r1
 720 0008 0192     		str	r2, [sp, #4]
 721 000a 8DF80B30 		strb	r3, [sp, #11]
 722              		.loc 1 331 0
 723              	@ 331 "/home/makkmarci/workspace/ChibiOS_2.6.8/os/kernel/src/chqueues.c" 1
 724 000e FFF7FEFF 		bl      _port_lock
 725              	@ 0 "" 2
 726              		.loc 1 332 0
 727              		.thumb
 728 0012 0BE0     		b	.L39
 729              	.L41:
 730              	.LBB3:
 731              		.loc 1 335 0
 732 0014 0398     		ldr	r0, [sp, #12]
 733 0016 0199     		ldr	r1, [sp, #4]
 734 0018 FFF7FEFF 		bl	qwait
 735 001c 0590     		str	r0, [sp, #20]
ARM GAS  /tmp/ccxzWant.s 			page 14


 736 001e 059B     		ldr	r3, [sp, #20]
 737 0020 002B     		cmp	r3, #0
 738 0022 03DA     		bge	.L39
 739              		.loc 1 336 0
 740              	@ 336 "/home/makkmarci/workspace/ChibiOS_2.6.8/os/kernel/src/chqueues.c" 1
 741 0024 FFF7FEFF 		bl      _port_unlock
 742              	@ 0 "" 2
 743              		.loc 1 337 0
 744              		.thumb
 745 0028 059B     		ldr	r3, [sp, #20]
 746 002a 25E0     		b	.L40
 747              	.L39:
 748              	.LBE3:
 749              		.loc 1 332 0
 750 002c 039B     		ldr	r3, [sp, #12]
 751 002e 9B68     		ldr	r3, [r3, #8]
 752 0030 002B     		cmp	r3, #0
 753 0032 EFD0     		beq	.L41
 754              		.loc 1 341 0
 755 0034 039B     		ldr	r3, [sp, #12]
 756 0036 9B68     		ldr	r3, [r3, #8]
 757 0038 5A1E     		subs	r2, r3, #1
 758 003a 039B     		ldr	r3, [sp, #12]
 759 003c 9A60     		str	r2, [r3, #8]
 760              		.loc 1 342 0
 761 003e 039B     		ldr	r3, [sp, #12]
 762 0040 5B69     		ldr	r3, [r3, #20]
 763 0042 591C     		adds	r1, r3, #1
 764 0044 039A     		ldr	r2, [sp, #12]
 765 0046 5161     		str	r1, [r2, #20]
 766 0048 9DF80B20 		ldrb	r2, [sp, #11]
 767 004c 1A70     		strb	r2, [r3]
 768              		.loc 1 343 0
 769 004e 039B     		ldr	r3, [sp, #12]
 770 0050 5A69     		ldr	r2, [r3, #20]
 771 0052 039B     		ldr	r3, [sp, #12]
 772 0054 1B69     		ldr	r3, [r3, #16]
 773 0056 9A42     		cmp	r2, r3
 774 0058 03D3     		bcc	.L42
 775              		.loc 1 344 0
 776 005a 039B     		ldr	r3, [sp, #12]
 777 005c DA68     		ldr	r2, [r3, #12]
 778 005e 039B     		ldr	r3, [sp, #12]
 779 0060 5A61     		str	r2, [r3, #20]
 780              	.L42:
 781              		.loc 1 346 0
 782 0062 039B     		ldr	r3, [sp, #12]
 783 0064 DB69     		ldr	r3, [r3, #28]
 784 0066 002B     		cmp	r3, #0
 785 0068 03D0     		beq	.L43
 786              		.loc 1 347 0
 787 006a 039B     		ldr	r3, [sp, #12]
 788 006c DB69     		ldr	r3, [r3, #28]
 789 006e 0398     		ldr	r0, [sp, #12]
 790 0070 9847     		blx	r3
 791              	.L43:
 792              		.loc 1 349 0
ARM GAS  /tmp/ccxzWant.s 			page 15


 793              	@ 349 "/home/makkmarci/workspace/ChibiOS_2.6.8/os/kernel/src/chqueues.c" 1
 794 0072 FFF7FEFF 		bl      _port_unlock
 795              	@ 0 "" 2
 796              		.loc 1 350 0
 797              		.thumb
 798 0076 0023     		movs	r3, #0
 799              	.L40:
 800              		.loc 1 351 0
 801 0078 1846     		mov	r0, r3
 802 007a 07B0     		add	sp, sp, #28
 803              		.cfi_def_cfa_offset 4
 804              		@ sp needed
 805 007c 5DF804FB 		ldr	pc, [sp], #4
 806              		.cfi_endproc
 807              	.LFE8:
 808              		.size	chOQPutTimeout, .-chOQPutTimeout
 809              		.section	.text.chOQGetI,"ax",%progbits
 810              		.align	2
 811              		.p2align 4,,15
 812              		.global	chOQGetI
 813              		.thumb
 814              		.thumb_func
 815              		.type	chOQGetI, %function
 816              	chOQGetI:
 817              	.LFB9:
 818              		.loc 1 363 0
 819              		.cfi_startproc
 820              		@ args = 0, pretend = 0, frame = 16
 821              		@ frame_needed = 0, uses_anonymous_args = 0
 822 0000 00B5     		push	{lr}
 823              		.cfi_def_cfa_offset 4
 824              		.cfi_offset 14, -4
 825 0002 85B0     		sub	sp, sp, #20
 826              		.cfi_def_cfa_offset 24
 827 0004 0190     		str	r0, [sp, #4]
 828              		.loc 1 368 0
 829 0006 019B     		ldr	r3, [sp, #4]
 830 0008 5A69     		ldr	r2, [r3, #20]
 831 000a 019B     		ldr	r3, [sp, #4]
 832 000c 9B69     		ldr	r3, [r3, #24]
 833 000e 9A42     		cmp	r2, r3
 834 0010 05D1     		bne	.L45
 835              		.loc 1 368 0 is_stmt 0 discriminator 1
 836 0012 019B     		ldr	r3, [sp, #4]
 837 0014 9B68     		ldr	r3, [r3, #8]
 838 0016 002B     		cmp	r3, #0
 839 0018 01D0     		beq	.L45
 840              		.loc 1 368 0 discriminator 3
 841 001a 0123     		movs	r3, #1
 842 001c 00E0     		b	.L46
 843              	.L45:
 844              		.loc 1 368 0 discriminator 4
 845 001e 0023     		movs	r3, #0
 846              	.L46:
 847              		.loc 1 368 0 discriminator 6
 848 0020 03F00103 		and	r3, r3, #1
 849 0024 DBB2     		uxtb	r3, r3
ARM GAS  /tmp/ccxzWant.s 			page 16


 850 0026 002B     		cmp	r3, #0
 851 0028 02D0     		beq	.L47
 852              		.loc 1 369 0 is_stmt 1
 853 002a 6FF00203 		mvn	r3, #2
 854 002e 28E0     		b	.L48
 855              	.L47:
 856              		.loc 1 371 0
 857 0030 019B     		ldr	r3, [sp, #4]
 858 0032 9B68     		ldr	r3, [r3, #8]
 859 0034 5A1C     		adds	r2, r3, #1
 860 0036 019B     		ldr	r3, [sp, #4]
 861 0038 9A60     		str	r2, [r3, #8]
 862              		.loc 1 372 0
 863 003a 019B     		ldr	r3, [sp, #4]
 864 003c 9B69     		ldr	r3, [r3, #24]
 865 003e 591C     		adds	r1, r3, #1
 866 0040 019A     		ldr	r2, [sp, #4]
 867 0042 9161     		str	r1, [r2, #24]
 868 0044 1B78     		ldrb	r3, [r3]
 869 0046 8DF80F30 		strb	r3, [sp, #15]
 870              		.loc 1 373 0
 871 004a 019B     		ldr	r3, [sp, #4]
 872 004c 9A69     		ldr	r2, [r3, #24]
 873 004e 019B     		ldr	r3, [sp, #4]
 874 0050 1B69     		ldr	r3, [r3, #16]
 875 0052 9A42     		cmp	r2, r3
 876 0054 03D3     		bcc	.L49
 877              		.loc 1 374 0
 878 0056 019B     		ldr	r3, [sp, #4]
 879 0058 DA68     		ldr	r2, [r3, #12]
 880 005a 019B     		ldr	r3, [sp, #4]
 881 005c 9A61     		str	r2, [r3, #24]
 882              	.L49:
 883              		.loc 1 376 0
 884 005e 019B     		ldr	r3, [sp, #4]
 885 0060 1A68     		ldr	r2, [r3]
 886 0062 019B     		ldr	r3, [sp, #4]
 887 0064 9A42     		cmp	r2, r3
 888 0066 0AD0     		beq	.L50
 889              		.loc 1 377 0
 890 0068 019B     		ldr	r3, [sp, #4]
 891 006a 1846     		mov	r0, r3
 892 006c FFF7FEFF 		bl	fifo_remove
 893 0070 0346     		mov	r3, r0
 894 0072 1846     		mov	r0, r3
 895 0074 FFF7FEFF 		bl	chSchReadyI
 896 0078 0246     		mov	r2, r0
 897 007a 0023     		movs	r3, #0
 898 007c 9362     		str	r3, [r2, #40]
 899              	.L50:
 900              		.loc 1 379 0
 901 007e 9DF80F30 		ldrb	r3, [sp, #15]	@ zero_extendqisi2
 902              	.L48:
 903              		.loc 1 380 0
 904 0082 1846     		mov	r0, r3
 905 0084 05B0     		add	sp, sp, #20
 906              		.cfi_def_cfa_offset 4
ARM GAS  /tmp/ccxzWant.s 			page 17


 907              		@ sp needed
 908 0086 5DF804FB 		ldr	pc, [sp], #4
 909              		.cfi_endproc
 910              	.LFE9:
 911              		.size	chOQGetI, .-chOQGetI
 912 008a 00BFAFF3 		.section	.rodata
 912      0080
 913              		.align	2
 914              	.LC1:
 915 0014 2263684F 		.ascii	"\"chOQWriteTimeout\"()\000"
 915      51577269 
 915      74655469 
 915      6D656F75 
 915      74222829 
 916 0029 000000   		.section	.text.chOQWriteTimeout,"ax",%progbits
 917              		.align	2
 918              		.p2align 4,,15
 919              		.global	chOQWriteTimeout
 920              		.thumb
 921              		.thumb_func
 922              		.type	chOQWriteTimeout, %function
 923              	chOQWriteTimeout:
 924              	.LFB10:
 925              		.loc 1 407 0
 926              		.cfi_startproc
 927              		@ args = 0, pretend = 0, frame = 24
 928              		@ frame_needed = 0, uses_anonymous_args = 0
 929 0000 00B5     		push	{lr}
 930              		.cfi_def_cfa_offset 4
 931              		.cfi_offset 14, -4
 932 0002 87B0     		sub	sp, sp, #28
 933              		.cfi_def_cfa_offset 32
 934 0004 0390     		str	r0, [sp, #12]
 935 0006 0291     		str	r1, [sp, #8]
 936 0008 0192     		str	r2, [sp, #4]
 937 000a 0093     		str	r3, [sp]
 938              		.loc 1 408 0
 939 000c 039B     		ldr	r3, [sp, #12]
 940 000e DB69     		ldr	r3, [r3, #28]
 941 0010 0493     		str	r3, [sp, #16]
 942              		.loc 1 409 0
 943 0012 0023     		movs	r3, #0
 944 0014 0593     		str	r3, [sp, #20]
 945              		.loc 1 411 0
 946 0016 019B     		ldr	r3, [sp, #4]
 947 0018 002B     		cmp	r3, #0
 948 001a 02D1     		bne	.L52
 949              		.loc 1 411 0 is_stmt 0 discriminator 1
 950 001c 2348     		ldr	r0, .L60
 951 001e FFF7FEFF 		bl	chDbgPanic
 952              	.L52:
 953              		.loc 1 413 0 is_stmt 1
 954              	@ 413 "/home/makkmarci/workspace/ChibiOS_2.6.8/os/kernel/src/chqueues.c" 1
 955 0022 FFF7FEFF 		bl      _port_lock
 956              	@ 0 "" 2
 957              		.thumb
 958              	.L59:
ARM GAS  /tmp/ccxzWant.s 			page 18


 959              		.loc 1 415 0
 960 0026 0AE0     		b	.L53
 961              	.L55:
 962              		.loc 1 416 0
 963 0028 0398     		ldr	r0, [sp, #12]
 964 002a 0099     		ldr	r1, [sp]
 965 002c FFF7FEFF 		bl	qwait
 966 0030 0346     		mov	r3, r0
 967 0032 002B     		cmp	r3, #0
 968 0034 03D0     		beq	.L53
 969              		.loc 1 417 0
 970              	@ 417 "/home/makkmarci/workspace/ChibiOS_2.6.8/os/kernel/src/chqueues.c" 1
 971 0036 FFF7FEFF 		bl      _port_unlock
 972              	@ 0 "" 2
 973              		.loc 1 418 0
 974              		.thumb
 975 003a 059B     		ldr	r3, [sp, #20]
 976 003c 32E0     		b	.L54
 977              	.L53:
 978              		.loc 1 415 0
 979 003e 039B     		ldr	r3, [sp, #12]
 980 0040 9B68     		ldr	r3, [r3, #8]
 981 0042 002B     		cmp	r3, #0
 982 0044 F0D0     		beq	.L55
 983              		.loc 1 421 0
 984 0046 039B     		ldr	r3, [sp, #12]
 985 0048 9B68     		ldr	r3, [r3, #8]
 986 004a 5A1E     		subs	r2, r3, #1
 987 004c 039B     		ldr	r3, [sp, #12]
 988 004e 9A60     		str	r2, [r3, #8]
 989              		.loc 1 422 0
 990 0050 039B     		ldr	r3, [sp, #12]
 991 0052 5B69     		ldr	r3, [r3, #20]
 992 0054 591C     		adds	r1, r3, #1
 993 0056 039A     		ldr	r2, [sp, #12]
 994 0058 5161     		str	r1, [r2, #20]
 995 005a 029A     		ldr	r2, [sp, #8]
 996 005c 511C     		adds	r1, r2, #1
 997 005e 0291     		str	r1, [sp, #8]
 998 0060 1278     		ldrb	r2, [r2]	@ zero_extendqisi2
 999 0062 1A70     		strb	r2, [r3]
 1000              		.loc 1 423 0
 1001 0064 039B     		ldr	r3, [sp, #12]
 1002 0066 5A69     		ldr	r2, [r3, #20]
 1003 0068 039B     		ldr	r3, [sp, #12]
 1004 006a 1B69     		ldr	r3, [r3, #16]
 1005 006c 9A42     		cmp	r2, r3
 1006 006e 03D3     		bcc	.L56
 1007              		.loc 1 424 0
 1008 0070 039B     		ldr	r3, [sp, #12]
 1009 0072 DA68     		ldr	r2, [r3, #12]
 1010 0074 039B     		ldr	r3, [sp, #12]
 1011 0076 5A61     		str	r2, [r3, #20]
 1012              	.L56:
 1013              		.loc 1 426 0
 1014 0078 049B     		ldr	r3, [sp, #16]
 1015 007a 002B     		cmp	r3, #0
ARM GAS  /tmp/ccxzWant.s 			page 19


 1016 007c 02D0     		beq	.L57
 1017              		.loc 1 427 0
 1018 007e 049B     		ldr	r3, [sp, #16]
 1019 0080 0398     		ldr	r0, [sp, #12]
 1020 0082 9847     		blx	r3
 1021              	.L57:
 1022              		.loc 1 429 0
 1023              	@ 429 "/home/makkmarci/workspace/ChibiOS_2.6.8/os/kernel/src/chqueues.c" 1
 1024 0084 FFF7FEFF 		bl      _port_unlock
 1025              	@ 0 "" 2
 1026              		.loc 1 430 0
 1027              		.thumb
 1028 0088 059B     		ldr	r3, [sp, #20]
 1029 008a 0133     		adds	r3, r3, #1
 1030 008c 0593     		str	r3, [sp, #20]
 1031              		.loc 1 431 0
 1032 008e 019B     		ldr	r3, [sp, #4]
 1033 0090 013B     		subs	r3, r3, #1
 1034 0092 0193     		str	r3, [sp, #4]
 1035 0094 019B     		ldr	r3, [sp, #4]
 1036 0096 002B     		cmp	r3, #0
 1037 0098 01D1     		bne	.L58
 1038              		.loc 1 432 0
 1039 009a 059B     		ldr	r3, [sp, #20]
 1040 009c 02E0     		b	.L54
 1041              	.L58:
 1042              		.loc 1 433 0
 1043              	@ 433 "/home/makkmarci/workspace/ChibiOS_2.6.8/os/kernel/src/chqueues.c" 1
 1044 009e FFF7FEFF 		bl      _port_lock
 1045              	@ 0 "" 2
 1046              		.loc 1 434 0
 1047              		.thumb
 1048 00a2 C0E7     		b	.L59
 1049              	.L54:
 1050              		.loc 1 435 0
 1051 00a4 1846     		mov	r0, r3
 1052 00a6 07B0     		add	sp, sp, #28
 1053              		.cfi_def_cfa_offset 4
 1054              		@ sp needed
 1055 00a8 5DF804FB 		ldr	pc, [sp], #4
 1056              	.L61:
 1057              		.align	2
 1058              	.L60:
 1059 00ac 14000000 		.word	.LC1
 1060              		.cfi_endproc
 1061              	.LFE10:
 1062              		.size	chOQWriteTimeout, .-chOQWriteTimeout
 1063              		.text
 1064              	.Letext0:
 1065              		.file 2 "/opt/gcc-arm-none-eabi/lib/gcc/arm-none-eabi/4.9.3/include/stddef.h"
 1066              		.file 3 "/opt/gcc-arm-none-eabi/arm-none-eabi/include/machine/_default_types.h"
 1067              		.file 4 "/opt/gcc-arm-none-eabi/arm-none-eabi/include/stdint.h"
 1068              		.file 5 "/home/makkmarci/workspace/ChibiOS_2.6.8/os/ports/GCC/ARMCMx/chtypes.h"
 1069              		.file 6 "/home/makkmarci/workspace/ChibiOS_2.6.8/os/kernel/include/chlists.h"
 1070              		.file 7 "/home/makkmarci/workspace/ChibiOS_2.6.8/os/kernel/include/chthreads.h"
 1071              		.file 8 "/home/makkmarci/workspace/ChibiOS_2.6.8/os/ports/GCC/ARMCMx/chcore_v7m.h"
 1072              		.file 9 "/home/makkmarci/workspace/ChibiOS_2.6.8/os/kernel/include/chschd.h"
ARM GAS  /tmp/ccxzWant.s 			page 20


 1073              		.file 10 "/home/makkmarci/workspace/ChibiOS_2.6.8/os/kernel/include/chmtx.h"
 1074              		.file 11 "/home/makkmarci/workspace/ChibiOS_2.6.8/os/kernel/include/chqueues.h"