ARM GAS  /tmp/ccik8b24.s 			page 1


   1              		.syntax unified
   2              		.cpu cortex-m4
   3              		.eabi_attribute 27, 3
   4              		.eabi_attribute 28, 1
   5              		.fpu fpv4-sp-d16
   6              		.eabi_attribute 20, 1
   7              		.eabi_attribute 21, 1
   8              		.eabi_attribute 23, 3
   9              		.eabi_attribute 24, 1
  10              		.eabi_attribute 25, 1
  11              		.eabi_attribute 26, 1
  12              		.eabi_attribute 30, 2
  13              		.eabi_attribute 34, 1
  14              		.eabi_attribute 18, 4
  15              		.thumb
  16              		.file	"chregistry.c"
  17              		.text
  18              	.Ltext0:
  19              		.cfi_sections	.debug_frame
  20              		.section	.text.chRegFirstThread,"ax",%progbits
  21              		.align	2
  22              		.p2align 4,,15
  23              		.global	chRegFirstThread
  24              		.thumb
  25              		.thumb_func
  26              		.type	chRegFirstThread, %function
  27              	chRegFirstThread:
  28              	.LFB0:
  29              		.file 1 "../../os/kernel/src/chregistry.c"
  30              		.loc 1 117 0
  31              		.cfi_startproc
  32              		@ args = 0, pretend = 0, frame = 0
  33              		@ frame_needed = 0, uses_anonymous_args = 0
  34 0000 00B5     		push	{lr}
  35              		.cfi_def_cfa_offset 4
  36              		.cfi_offset 14, -4
  37              		.loc 1 120 0
  38              	@ 120 "../../os/kernel/src/chregistry.c" 1
  39 0002 FFF7FEFF 		bl      _port_lock
  40              	@ 0 "" 2
  41              		.loc 1 121 0
  42              		.thumb
  43 0006 054B     		ldr	r3, .L2
  44 0008 1869     		ldr	r0, [r3, #16]
  45              	.LVL0:
  46              		.loc 1 123 0
  47 000a 90F82230 		ldrb	r3, [r0, #34]	@ zero_extendqisi2
  48 000e 0133     		adds	r3, r3, #1
  49 0010 80F82230 		strb	r3, [r0, #34]
  50              		.loc 1 125 0
  51              	@ 125 "../../os/kernel/src/chregistry.c" 1
  52 0014 FFF7FEFF 		bl      _port_unlock
  53              	@ 0 "" 2
  54              		.loc 1 127 0
  55              		.thumb
  56 0018 5DF804FB 		ldr	pc, [sp], #4
  57              	.L3:
ARM GAS  /tmp/ccik8b24.s 			page 2


  58              		.align	2
  59              	.L2:
  60 001c 00000000 		.word	rlist
  61              		.cfi_endproc
  62              	.LFE0:
  63              		.size	chRegFirstThread, .-chRegFirstThread
  64              		.section	.text.chRegNextThread,"ax",%progbits
  65              		.align	2
  66              		.p2align 4,,15
  67              		.global	chRegNextThread
  68              		.thumb
  69              		.thumb_func
  70              		.type	chRegNextThread, %function
  71              	chRegNextThread:
  72              	.LFB1:
  73              		.loc 1 140 0
  74              		.cfi_startproc
  75              		@ args = 0, pretend = 0, frame = 0
  76              		@ frame_needed = 0, uses_anonymous_args = 0
  77              	.LVL1:
  78 0000 38B5     		push	{r3, r4, r5, lr}
  79              		.cfi_def_cfa_offset 16
  80              		.cfi_offset 3, -16
  81              		.cfi_offset 4, -12
  82              		.cfi_offset 5, -8
  83              		.cfi_offset 14, -4
  84              		.loc 1 140 0
  85 0002 0546     		mov	r5, r0
  86              		.loc 1 143 0
  87              	@ 143 "../../os/kernel/src/chregistry.c" 1
  88 0004 FFF7FEFF 		bl      _port_lock
  89              	@ 0 "" 2
  90              		.loc 1 145 0
  91              		.thumb
  92 0008 0C4B     		ldr	r3, .L10
  93              		.loc 1 144 0
  94 000a 0469     		ldr	r4, [r0, #16]
  95              	.LVL2:
  96              		.loc 1 145 0
  97 000c 9C42     		cmp	r4, r3
  98 000e 13D0     		beq	.L7
  99              		.loc 1 149 0
 100 0010 94F82230 		ldrb	r3, [r4, #34]	@ zero_extendqisi2
 101 0014 FF2B     		cmp	r3, #255
 102 0016 09D0     		beq	.L9
 103              	.LVL3:
 104              	.L6:
 105              		.loc 1 151 0
 106 0018 0133     		adds	r3, r3, #1
 107 001a 84F82230 		strb	r3, [r4, #34]
 108              	.LVL4:
 109              	.L5:
 110              		.loc 1 154 0
 111              	@ 154 "../../os/kernel/src/chregistry.c" 1
 112 001e FFF7FEFF 		bl      _port_unlock
 113              	@ 0 "" 2
 114              		.loc 1 156 0
ARM GAS  /tmp/ccik8b24.s 			page 3


 115              		.thumb
 116 0022 2846     		mov	r0, r5
 117 0024 FFF7FEFF 		bl	chThdRelease
 118              	.LVL5:
 119              		.loc 1 159 0
 120 0028 2046     		mov	r0, r4
 121 002a 38BD     		pop	{r3, r4, r5, pc}
 122              	.LVL6:
 123              	.L9:
 124              		.loc 1 149 0 discriminator 1
 125 002c 0448     		ldr	r0, .L10+4
 126              	.LVL7:
 127 002e FFF7FEFF 		bl	chDbgPanic
 128              	.LVL8:
 129 0032 94F82230 		ldrb	r3, [r4, #34]	@ zero_extendqisi2
 130 0036 EFE7     		b	.L6
 131              	.LVL9:
 132              	.L7:
 133              		.loc 1 146 0
 134 0038 0024     		movs	r4, #0
 135              	.LVL10:
 136 003a F0E7     		b	.L5
 137              	.L11:
 138              		.align	2
 139              	.L10:
 140 003c 00000000 		.word	rlist
 141 0040 00000000 		.word	.LC0
 142              		.cfi_endproc
 143              	.LFE1:
 144              		.size	chRegNextThread, .-chRegNextThread
 145              		.global	ch_debug
 146 0044 AFF30080 		.section	.rodata.ch_debug,"a",%progbits
 146      AFF30080 
 146      AFF30080 
 147              		.align	2
 148              		.type	ch_debug, %object
 149              		.size	ch_debug, 22
 150              	ch_debug:
 151 0000 6D61696E 		.ascii	"main"
 152 0004 00       		.byte	0
 153 0005 16       		.byte	22
 154 0006 8511     		.short	4485
 155 0008 04       		.byte	4
 156 0009 04       		.byte	4
 157 000a 4C       		.byte	76
 158 000b 08       		.byte	8
 159 000c 0C       		.byte	12
 160 000d 10       		.byte	16
 161 000e 14       		.byte	20
 162 000f 18       		.byte	24
 163 0010 1C       		.byte	28
 164 0011 20       		.byte	32
 165 0012 21       		.byte	33
 166 0013 22       		.byte	34
 167 0014 23       		.byte	35
 168 0015 24       		.byte	36
 169 0016 0000     		.section	.rodata.str1.4,"aMS",%progbits,1
ARM GAS  /tmp/ccik8b24.s 			page 4


 170              		.align	2
 171              	.LC0:
 172 0000 63685265 		.ascii	"chRegNextThread(), #1\000"
 172      674E6578 
 172      74546872 
 172      65616428 
 172      292C2023 
 173 0016 0000     		.text
 174              	.Letext0:
 175              		.file 2 "/opt/ARM/lib/gcc/arm-none-eabi/4.8.4/include/stddef.h"
 176              		.file 3 "/opt/ARM/arm-none-eabi/include/machine/_default_types.h"
 177              		.file 4 "/opt/ARM/arm-none-eabi/include/stdint.h"
 178              		.file 5 "../../os/ports/GCC/ARMCMx/chtypes.h"
 179              		.file 6 "../../os/kernel/include/chlists.h"
 180              		.file 7 "../../os/kernel/include/chthreads.h"
 181              		.file 8 "../../os/ports/GCC/ARMCMx/chcore_v7m.h"
 182              		.file 9 "../../os/kernel/include/chschd.h"
 183              		.file 10 "../../os/kernel/include/chmtx.h"
 184              		.file 11 "../../os/kernel/include/chregistry.h"
 185              		.file 12 "../../os/kernel/include/chdynamic.h"
 186              		.file 13 "../../os/kernel/include/chdebug.h"