ARM GAS  /tmp/cc5JcN0I.s 			page 1


   1              		.syntax unified
   2              		.cpu cortex-m4
   3              		.eabi_attribute 27, 3
   4              		.eabi_attribute 28, 1
   5              		.fpu fpv4-sp-d16
   6              		.eabi_attribute 20, 1
   7              		.eabi_attribute 21, 1
   8              		.eabi_attribute 23, 3
   9              		.eabi_attribute 24, 1
  10              		.eabi_attribute 25, 1
  11              		.eabi_attribute 26, 1
  12              		.eabi_attribute 30, 2
  13              		.eabi_attribute 34, 1
  14              		.eabi_attribute 18, 4
  15              		.thumb
  16              		.file	"chschd.c"
  17              		.text
  18              	.Ltext0:
  19              		.cfi_sections	.debug_frame
  20              		.section	.text._scheduler_init,"ax",%progbits
  21              		.align	2
  22              		.p2align 4,,15
  23              		.global	_scheduler_init
  24              		.thumb
  25              		.thumb_func
  26              		.type	_scheduler_init, %function
  27              	_scheduler_init:
  28              	.LFB7:
  29              		.file 1 "../../os/kernel/src/chschd.c"
  30              		.loc 1 55 0
  31              		.cfi_startproc
  32              		@ args = 0, pretend = 0, frame = 0
  33              		@ frame_needed = 0, uses_anonymous_args = 0
  34              		@ link register save eliminated.
  35              		.loc 1 57 0
  36 0000 034B     		ldr	r3, .L2
  37              		.loc 1 58 0
  38 0002 0022     		movs	r2, #0
  39              		.loc 1 57 0
  40 0004 5B60     		str	r3, [r3, #4]
  41 0006 1B60     		str	r3, [r3]
  42              		.loc 1 60 0
  43 0008 5B61     		str	r3, [r3, #20]
  44 000a 1B61     		str	r3, [r3, #16]
  45              		.loc 1 58 0
  46 000c 9A60     		str	r2, [r3, #8]
  47 000e 7047     		bx	lr
  48              	.L3:
  49              		.align	2
  50              	.L2:
  51 0010 00000000 		.word	.LANCHOR0
  52              		.cfi_endproc
  53              	.LFE7:
  54              		.size	_scheduler_init, .-_scheduler_init
  55 0014 AFF30080 		.section	.text.chSchReadyI,"ax",%progbits
  55      AFF30080 
  55      AFF30080 
ARM GAS  /tmp/cc5JcN0I.s 			page 2


  56              		.align	2
  57              		.p2align 4,,15
  58              		.global	chSchReadyI
  59              		.thumb
  60              		.thumb_func
  61              		.type	chSchReadyI, %function
  62              	chSchReadyI:
  63              	.LFB8:
  64              		.loc 1 81 0
  65              		.cfi_startproc
  66              		@ args = 0, pretend = 0, frame = 0
  67              		@ frame_needed = 0, uses_anonymous_args = 0
  68              	.LVL0:
  69 0000 10B5     		push	{r4, lr}
  70              		.cfi_def_cfa_offset 8
  71              		.cfi_offset 4, -8
  72              		.cfi_offset 14, -4
  73              		.loc 1 81 0
  74 0002 0446     		mov	r4, r0
  75              		.loc 1 84 0
  76 0004 FFF7FEFF 		bl	chDbgCheckClassI
  77              	.LVL1:
  78              		.loc 1 87 0
  79 0008 94F82030 		ldrb	r3, [r4, #32]	@ zero_extendqisi2
  80 000c 8BB1     		cbz	r3, .L5
  81              		.loc 1 87 0 is_stmt 0 discriminator 2
  82 000e 0E2B     		cmp	r3, #14
  83 0010 0FD0     		beq	.L5
  84              	.L6:
  85              		.loc 1 92 0 is_stmt 1
  86 0012 0022     		movs	r2, #0
  87 0014 A168     		ldr	r1, [r4, #8]
  88              		.loc 1 93 0
  89 0016 094B     		ldr	r3, .L13
  90              		.loc 1 92 0
  91 0018 84F82020 		strb	r2, [r4, #32]
  92              	.LVL2:
  93              	.L8:
  94              		.loc 1 95 0 discriminator 1
  95 001c 1B68     		ldr	r3, [r3]
  96              	.LVL3:
  97              		.loc 1 96 0 discriminator 1
  98 001e 9A68     		ldr	r2, [r3, #8]
  99 0020 8A42     		cmp	r2, r1
 100 0022 FBD2     		bcs	.L8
 101              		.loc 1 99 0
 102 0024 5A68     		ldr	r2, [r3, #4]
 103 0026 6260     		str	r2, [r4, #4]
 104              		.loc 1 98 0
 105 0028 2360     		str	r3, [r4]
 106              		.loc 1 102 0
 107 002a 2046     		mov	r0, r4
 108              		.loc 1 100 0
 109 002c 5C60     		str	r4, [r3, #4]
 110 002e 1460     		str	r4, [r2]
 111              		.loc 1 102 0
 112 0030 10BD     		pop	{r4, pc}
ARM GAS  /tmp/cc5JcN0I.s 			page 3


 113              	.LVL4:
 114              	.L5:
 115              		.loc 1 87 0 discriminator 1
 116 0032 0348     		ldr	r0, .L13+4
 117 0034 FFF7FEFF 		bl	chDbgPanic
 118              	.LVL5:
 119 0038 EBE7     		b	.L6
 120              	.L14:
 121 003a 00BF     		.align	2
 122              	.L13:
 123 003c 00000000 		.word	.LANCHOR0
 124 0040 00000000 		.word	.LC0
 125              		.cfi_endproc
 126              	.LFE8:
 127              		.size	chSchReadyI, .-chSchReadyI
 128 0044 AFF30080 		.section	.text.wakeup,"ax",%progbits
 128      AFF30080 
 128      AFF30080 
 129              		.align	2
 130              		.p2align 4,,15
 131              		.thumb
 132              		.thumb_func
 133              		.type	wakeup, %function
 134              	wakeup:
 135              	.LFB10:
 136              		.loc 1 136 0
 137              		.cfi_startproc
 138              		@ args = 0, pretend = 0, frame = 0
 139              		@ frame_needed = 0, uses_anonymous_args = 0
 140              	.LVL6:
 141 0000 10B5     		push	{r4, lr}
 142              		.cfi_def_cfa_offset 8
 143              		.cfi_offset 4, -8
 144              		.cfi_offset 14, -4
 145              	.LBB32:
 146              		.loc 1 139 0
 147 0002 2023     		movs	r3, #32
 148              	.LBE32:
 149              		.loc 1 136 0
 150 0004 0446     		mov	r4, r0
 151              	.LBB33:
 152              		.loc 1 139 0
 153              	@ 139 "../../os/kernel/src/chschd.c" 1
 154 0006 83F31188 		msr     BASEPRI, r3
 155              	@ 0 "" 2
 156              		.thumb
 157              	.LBE33:
 158 000a FFF7FEFF 		bl	dbg_check_lock_from_isr
 159              	.LVL7:
 160              		.loc 1 140 0
 161 000e 94F82030 		ldrb	r3, [r4, #32]	@ zero_extendqisi2
 162 0012 0D2B     		cmp	r3, #13
 163 0014 11D8     		bhi	.L16
 164 0016 DFE803F0 		tbb	[pc, r3]
 165              	.L18:
 166 001a 16       		.byte	(.L22-.L18)/2
 167 001b 10       		.byte	(.L16-.L18)/2
ARM GAS  /tmp/cc5JcN0I.s 			page 4


 168 001c 10       		.byte	(.L16-.L18)/2
 169 001d 07       		.byte	(.L19-.L18)/2
 170 001e 10       		.byte	(.L16-.L18)/2
 171 001f 0B       		.byte	(.L20-.L18)/2
 172 0020 10       		.byte	(.L16-.L18)/2
 173 0021 10       		.byte	(.L16-.L18)/2
 174 0022 10       		.byte	(.L16-.L18)/2
 175 0023 10       		.byte	(.L16-.L18)/2
 176 0024 10       		.byte	(.L16-.L18)/2
 177 0025 10       		.byte	(.L16-.L18)/2
 178 0026 10       		.byte	(.L16-.L18)/2
 179 0027 0B       		.byte	(.L20-.L18)/2
 180              		.p2align 1
 181              	.L19:
 182              		.loc 1 150 0
 183 0028 A36A     		ldr	r3, [r4, #40]
 184 002a 9A68     		ldr	r2, [r3, #8]
 185 002c 0132     		adds	r2, r2, #1
 186 002e 9A60     		str	r2, [r3, #8]
 187              	.L20:
 188              	.LVL8:
 189              	.LBB34:
 190              	.LBB35:
 191              		.file 2 "../../os/kernel/include/chinline.h"
 192              		.loc 2 75 0
 193 0030 94E80C00 		ldmia	r4, {r2, r3}
 194 0034 1A60     		str	r2, [r3]
 195              		.loc 2 76 0
 196 0036 2268     		ldr	r2, [r4]
 197 0038 5360     		str	r3, [r2, #4]
 198              	.LVL9:
 199              	.L16:
 200              	.LBE35:
 201              	.LBE34:
 202              		.loc 1 163 0
 203 003a 4FF0FF33 		mov	r3, #-1
 204 003e A362     		str	r3, [r4, #40]
 205              		.loc 1 164 0
 206 0040 2046     		mov	r0, r4
 207 0042 FFF7FEFF 		bl	chSchReadyI
 208              	.LVL10:
 209              	.L22:
 210              		.loc 1 165 0
 211 0046 FFF7FEFF 		bl	dbg_check_unlock_from_isr
 212              	.LVL11:
 213              	.LBB36:
 214 004a 0023     		movs	r3, #0
 215              	@ 165 "../../os/kernel/src/chschd.c" 1
 216 004c 83F31188 		msr     BASEPRI, r3
 217              	@ 0 "" 2
 218              		.thumb
 219 0050 10BD     		pop	{r4, pc}
 220              	.LBE36:
 221              		.cfi_endproc
 222              	.LFE10:
 223              		.size	wakeup, .-wakeup
 224 0052 00BFAFF3 		.section	.text.chSchGoSleepS,"ax",%progbits
ARM GAS  /tmp/cc5JcN0I.s 			page 5


 224      0080AFF3 
 224      0080AFF3 
 224      0080
 225              		.align	2
 226              		.p2align 4,,15
 227              		.global	chSchGoSleepS
 228              		.thumb
 229              		.thumb_func
 230              		.type	chSchGoSleepS, %function
 231              	chSchGoSleepS:
 232              	.LFB9:
 233              		.loc 1 115 0
 234              		.cfi_startproc
 235              		@ args = 0, pretend = 0, frame = 0
 236              		@ frame_needed = 0, uses_anonymous_args = 0
 237              	.LVL12:
 238 0000 70B5     		push	{r4, r5, r6, lr}
 239              		.cfi_def_cfa_offset 16
 240              		.cfi_offset 4, -16
 241              		.cfi_offset 5, -12
 242              		.cfi_offset 6, -8
 243              		.cfi_offset 14, -4
 244              		.loc 1 120 0
 245 0002 114C     		ldr	r4, .L25
 246              		.loc 1 115 0
 247 0004 0646     		mov	r6, r0
 248              		.loc 1 118 0
 249 0006 FFF7FEFF 		bl	chDbgCheckClassS
 250              	.LVL13:
 251              	.LBB37:
 252              	.LBB38:
 253              		.loc 2 60 0
 254 000a 2368     		ldr	r3, [r4]
 255              	.LBE38:
 256              	.LBE37:
 257              		.loc 1 120 0
 258 000c A569     		ldr	r5, [r4, #24]
 259              	.LVL14:
 260              	.LBB42:
 261              	.LBB39:
 262              		.loc 2 62 0
 263 000e 1A68     		ldr	r2, [r3]
 264              	.LBE39:
 265              	.LBE42:
 266              		.loc 1 120 0
 267 0010 85F82060 		strb	r6, [r5, #32]
 268              		.loc 1 124 0
 269 0014 1420     		movs	r0, #20
 270              		.loc 1 127 0
 271 0016 0121     		movs	r1, #1
 272              		.loc 1 124 0
 273 0018 85F82300 		strb	r0, [r5, #35]
 274              	.LVL15:
 275              	.LBB43:
 276              	.LBB40:
 277              		.loc 2 62 0
 278 001c 5460     		str	r4, [r2, #4]
ARM GAS  /tmp/cc5JcN0I.s 			page 6


 279              	.LBE40:
 280              	.LBE43:
 281              		.loc 1 128 0
 282 001e 2846     		mov	r0, r5
 283              		.loc 1 127 0
 284 0020 83F82010 		strb	r1, [r3, #32]
 285              	.LBB44:
 286              	.LBB41:
 287              		.loc 2 62 0
 288 0024 2260     		str	r2, [r4]
 289              	.LBE41:
 290              	.LBE44:
 291              		.loc 1 126 0
 292 0026 A361     		str	r3, [r4, #24]
 293              		.loc 1 128 0
 294 0028 FFF7FEFF 		bl	dbg_trace
 295              	.LVL16:
 296              	.LBB45:
 297 002c EB69     		ldr	r3, [r5, #28]
 298 002e ADF16402 		sub	r2, sp, #100
 299 0032 9342     		cmp	r3, r2
 300 0034 02D9     		bls	.L24
 301              		.loc 1 128 0 is_stmt 0 discriminator 1
 302 0036 0548     		ldr	r0, .L25+4
 303 0038 FFF7FEFF 		bl	chDbgPanic
 304              	.LVL17:
 305              	.L24:
 306              		.loc 1 128 0 discriminator 2
 307 003c A069     		ldr	r0, [r4, #24]
 308 003e 2946     		mov	r1, r5
 309              	.LBE45:
 310              		.loc 1 129 0 is_stmt 1 discriminator 2
 311 0040 BDE87040 		pop	{r4, r5, r6, lr}
 312              	.LVL18:
 313              	.LBB46:
 314              		.loc 1 128 0 discriminator 2
 315 0044 FFF7FEBF 		b	_port_switch
 316              	.LVL19:
 317              	.L26:
 318              		.align	2
 319              	.L25:
 320 0048 00000000 		.word	.LANCHOR0
 321 004c 14000000 		.word	.LC1
 322              	.LBE46:
 323              		.cfi_endproc
 324              	.LFE9:
 325              		.size	chSchGoSleepS, .-chSchGoSleepS
 326              		.section	.text.chSchGoSleepTimeoutS,"ax",%progbits
 327              		.align	2
 328              		.p2align 4,,15
 329              		.global	chSchGoSleepTimeoutS
 330              		.thumb
 331              		.thumb_func
 332              		.type	chSchGoSleepTimeoutS, %function
 333              	chSchGoSleepTimeoutS:
 334              	.LFB11:
 335              		.loc 1 189 0
ARM GAS  /tmp/cc5JcN0I.s 			page 7


 336              		.cfi_startproc
 337              		@ args = 0, pretend = 0, frame = 24
 338              		@ frame_needed = 0, uses_anonymous_args = 0
 339              	.LVL20:
 340 0000 70B5     		push	{r4, r5, r6, lr}
 341              		.cfi_def_cfa_offset 16
 342              		.cfi_offset 4, -16
 343              		.cfi_offset 5, -12
 344              		.cfi_offset 6, -8
 345              		.cfi_offset 14, -4
 346 0002 0C46     		mov	r4, r1
 347 0004 86B0     		sub	sp, sp, #24
 348              		.cfi_def_cfa_offset 40
 349              		.loc 1 189 0
 350 0006 0646     		mov	r6, r0
 351              		.loc 1 191 0
 352 0008 FFF7FEFF 		bl	chDbgCheckClassS
 353              	.LVL21:
 354              		.loc 1 193 0
 355 000c 631C     		adds	r3, r4, #1
 356 000e 12D0     		beq	.L28
 357              	.LBB47:
 358              		.loc 1 196 0
 359 0010 0D4D     		ldr	r5, .L34
 360 0012 0E4A     		ldr	r2, .L34+4
 361 0014 AB69     		ldr	r3, [r5, #24]
 362 0016 2146     		mov	r1, r4
 363 0018 01A8     		add	r0, sp, #4
 364 001a FFF7FEFF 		bl	chVTSetI
 365              	.LVL22:
 366              		.loc 1 197 0
 367 001e 3046     		mov	r0, r6
 368 0020 FFF7FEFF 		bl	chSchGoSleepS
 369              	.LVL23:
 370              		.loc 1 198 0
 371 0024 049B     		ldr	r3, [sp, #16]
 372 0026 13B1     		cbz	r3, .L30
 373              		.loc 1 199 0
 374 0028 01A8     		add	r0, sp, #4
 375 002a FFF7FEFF 		bl	chVTResetI
 376              	.LVL24:
 377              	.L30:
 378              	.LBE47:
 379              		.loc 1 203 0
 380 002e AB69     		ldr	r3, [r5, #24]
 381              		.loc 1 204 0
 382 0030 986A     		ldr	r0, [r3, #40]
 383 0032 06B0     		add	sp, sp, #24
 384              		@ sp needed
 385 0034 70BD     		pop	{r4, r5, r6, pc}
 386              	.LVL25:
 387              	.L28:
 388 0036 044D     		ldr	r5, .L34
 389              		.loc 1 202 0
 390 0038 3046     		mov	r0, r6
 391 003a FFF7FEFF 		bl	chSchGoSleepS
 392              	.LVL26:
ARM GAS  /tmp/cc5JcN0I.s 			page 8


 393              		.loc 1 203 0
 394 003e AB69     		ldr	r3, [r5, #24]
 395              		.loc 1 204 0
 396 0040 986A     		ldr	r0, [r3, #40]
 397 0042 06B0     		add	sp, sp, #24
 398              		@ sp needed
 399 0044 70BD     		pop	{r4, r5, r6, pc}
 400              	.LVL27:
 401              	.L35:
 402 0046 00BF     		.align	2
 403              	.L34:
 404 0048 00000000 		.word	.LANCHOR0
 405 004c 00000000 		.word	wakeup
 406              		.cfi_endproc
 407              	.LFE11:
 408              		.size	chSchGoSleepTimeoutS, .-chSchGoSleepTimeoutS
 409              		.section	.text.chSchWakeupS,"ax",%progbits
 410              		.align	2
 411              		.p2align 4,,15
 412              		.global	chSchWakeupS
 413              		.thumb
 414              		.thumb_func
 415              		.type	chSchWakeupS, %function
 416              	chSchWakeupS:
 417              	.LFB12:
 418              		.loc 1 225 0
 419              		.cfi_startproc
 420              		@ args = 0, pretend = 0, frame = 0
 421              		@ frame_needed = 0, uses_anonymous_args = 0
 422              	.LVL28:
 423 0000 70B5     		push	{r4, r5, r6, lr}
 424              		.cfi_def_cfa_offset 16
 425              		.cfi_offset 4, -16
 426              		.cfi_offset 5, -12
 427              		.cfi_offset 6, -8
 428              		.cfi_offset 14, -4
 429              		.loc 1 234 0
 430 0002 164D     		ldr	r5, .L41
 431              		.loc 1 225 0
 432 0004 0446     		mov	r4, r0
 433 0006 0E46     		mov	r6, r1
 434              		.loc 1 227 0
 435 0008 FFF7FEFF 		bl	chDbgCheckClassS
 436              	.LVL29:
 437              		.loc 1 234 0
 438 000c A869     		ldr	r0, [r5, #24]
 439 000e A368     		ldr	r3, [r4, #8]
 440 0010 8268     		ldr	r2, [r0, #8]
 441              		.loc 1 229 0
 442 0012 A662     		str	r6, [r4, #40]
 443              		.loc 1 234 0
 444 0014 9342     		cmp	r3, r2
 445 0016 13D9     		bls	.L39
 446              	.LBB48:
 447              		.loc 1 237 0
 448 0018 FFF7FEFF 		bl	chSchReadyI
 449              	.LVL30:
ARM GAS  /tmp/cc5JcN0I.s 			page 9


 450              		.loc 1 239 0
 451 001c 0123     		movs	r3, #1
 452              		.loc 1 237 0
 453 001e 0646     		mov	r6, r0
 454              	.LVL31:
 455              		.loc 1 239 0
 456 0020 84F82030 		strb	r3, [r4, #32]
 457              		.loc 1 238 0
 458 0024 AC61     		str	r4, [r5, #24]
 459              		.loc 1 240 0
 460 0026 FFF7FEFF 		bl	dbg_trace
 461              	.LVL32:
 462              	.LBB49:
 463 002a F369     		ldr	r3, [r6, #28]
 464 002c ADF16402 		sub	r2, sp, #100
 465 0030 9342     		cmp	r3, r2
 466 0032 0AD8     		bhi	.L40
 467              		.loc 1 240 0 is_stmt 0 discriminator 2
 468 0034 2046     		mov	r0, r4
 469 0036 3146     		mov	r1, r6
 470              	.LBE49:
 471              	.LBE48:
 472              		.loc 1 242 0 is_stmt 1 discriminator 2
 473 0038 BDE87040 		pop	{r4, r5, r6, lr}
 474              	.LVL33:
 475              	.LBB53:
 476              	.LBB50:
 477              		.loc 1 240 0 discriminator 2
 478 003c FFF7FEBF 		b	_port_switch
 479              	.LVL34:
 480              	.L39:
 481              	.LBE50:
 482              	.LBE53:
 483              		.loc 1 235 0
 484 0040 2046     		mov	r0, r4
 485              		.loc 1 242 0
 486 0042 BDE87040 		pop	{r4, r5, r6, lr}
 487              	.LVL35:
 488              		.loc 1 235 0
 489 0046 FFF7FEBF 		b	chSchReadyI
 490              	.LVL36:
 491              	.L40:
 492              	.LBB54:
 493              	.LBB51:
 494              		.loc 1 240 0 discriminator 1
 495 004a 0548     		ldr	r0, .L41+4
 496 004c FFF7FEFF 		bl	chDbgPanic
 497              	.LVL37:
 498 0050 2046     		mov	r0, r4
 499 0052 3146     		mov	r1, r6
 500              	.LBE51:
 501              	.LBE54:
 502              		.loc 1 242 0 discriminator 1
 503 0054 BDE87040 		pop	{r4, r5, r6, lr}
 504              	.LVL38:
 505              	.LBB55:
 506              	.LBB52:
ARM GAS  /tmp/cc5JcN0I.s 			page 10


 507              		.loc 1 240 0 discriminator 1
 508 0058 FFF7FEBF 		b	_port_switch
 509              	.LVL39:
 510              	.L42:
 511              		.align	2
 512              	.L41:
 513 005c 00000000 		.word	.LANCHOR0
 514 0060 14000000 		.word	.LC1
 515              	.LBE52:
 516              	.LBE55:
 517              		.cfi_endproc
 518              	.LFE12:
 519              		.size	chSchWakeupS, .-chSchWakeupS
 520 0064 AFF30080 		.section	.text.chSchDoRescheduleBehind,"ax",%progbits
 520      AFF30080 
 520      AFF30080 
 521              		.align	2
 522              		.p2align 4,,15
 523              		.global	chSchDoRescheduleBehind
 524              		.thumb
 525              		.thumb_func
 526              		.type	chSchDoRescheduleBehind, %function
 527              	chSchDoRescheduleBehind:
 528              	.LFB14:
 529              		.loc 1 304 0
 530              		.cfi_startproc
 531              		@ args = 0, pretend = 0, frame = 0
 532              		@ frame_needed = 0, uses_anonymous_args = 0
 533 0000 70B5     		push	{r4, r5, r6, lr}
 534              		.cfi_def_cfa_offset 16
 535              		.cfi_offset 4, -16
 536              		.cfi_offset 5, -12
 537              		.cfi_offset 6, -8
 538              		.cfi_offset 14, -4
 539              		.loc 1 307 0
 540 0002 104C     		ldr	r4, .L45
 541              	.LBB56:
 542              	.LBB57:
 543              		.loc 2 60 0
 544 0004 2368     		ldr	r3, [r4]
 545              	.LBE57:
 546              	.LBE56:
 547              		.loc 1 307 0
 548 0006 A569     		ldr	r5, [r4, #24]
 549              	.LVL40:
 550              	.LBB60:
 551              	.LBB58:
 552              		.loc 2 62 0
 553 0008 1A68     		ldr	r2, [r3]
 554 000a 2260     		str	r2, [r4]
 555              	.LBE58:
 556              	.LBE60:
 557              		.loc 1 312 0
 558 000c 1421     		movs	r1, #20
 559              		.loc 1 310 0
 560 000e 0126     		movs	r6, #1
 561              	.LBB61:
ARM GAS  /tmp/cc5JcN0I.s 			page 11


 562              	.LBB59:
 563              		.loc 2 62 0
 564 0010 5460     		str	r4, [r2, #4]
 565              	.LBE59:
 566              	.LBE61:
 567              		.loc 1 314 0
 568 0012 2846     		mov	r0, r5
 569              		.loc 1 310 0
 570 0014 83F82060 		strb	r6, [r3, #32]
 571              		.loc 1 312 0
 572 0018 85F82310 		strb	r1, [r5, #35]
 573              		.loc 1 309 0
 574 001c A361     		str	r3, [r4, #24]
 575              		.loc 1 314 0
 576 001e FFF7FEFF 		bl	chSchReadyI
 577              	.LVL41:
 578              		.loc 1 315 0
 579 0022 2846     		mov	r0, r5
 580 0024 FFF7FEFF 		bl	dbg_trace
 581              	.LVL42:
 582              	.LBB62:
 583 0028 EB69     		ldr	r3, [r5, #28]
 584 002a ADF16402 		sub	r2, sp, #100
 585 002e 9342     		cmp	r3, r2
 586 0030 02D9     		bls	.L44
 587              		.loc 1 315 0 is_stmt 0 discriminator 1
 588 0032 0548     		ldr	r0, .L45+4
 589 0034 FFF7FEFF 		bl	chDbgPanic
 590              	.LVL43:
 591              	.L44:
 592              		.loc 1 315 0 discriminator 2
 593 0038 A069     		ldr	r0, [r4, #24]
 594 003a 2946     		mov	r1, r5
 595              	.LBE62:
 596              		.loc 1 316 0 is_stmt 1 discriminator 2
 597 003c BDE87040 		pop	{r4, r5, r6, lr}
 598              	.LVL44:
 599              	.LBB63:
 600              		.loc 1 315 0 discriminator 2
 601 0040 FFF7FEBF 		b	_port_switch
 602              	.LVL45:
 603              	.L46:
 604              		.align	2
 605              	.L45:
 606 0044 00000000 		.word	.LANCHOR0
 607 0048 14000000 		.word	.LC1
 608              	.LBE63:
 609              		.cfi_endproc
 610              	.LFE14:
 611              		.size	chSchDoRescheduleBehind, .-chSchDoRescheduleBehind
 612 004c AFF30080 		.section	.text.chSchDoRescheduleAhead,"ax",%progbits
 613              		.align	2
 614              		.p2align 4,,15
 615              		.global	chSchDoRescheduleAhead
 616              		.thumb
 617              		.thumb_func
 618              		.type	chSchDoRescheduleAhead, %function
ARM GAS  /tmp/cc5JcN0I.s 			page 12


 619              	chSchDoRescheduleAhead:
 620              	.LFB15:
 621              		.loc 1 329 0
 622              		.cfi_startproc
 623              		@ args = 0, pretend = 0, frame = 0
 624              		@ frame_needed = 0, uses_anonymous_args = 0
 625 0000 70B5     		push	{r4, r5, r6, lr}
 626              		.cfi_def_cfa_offset 16
 627              		.cfi_offset 4, -16
 628              		.cfi_offset 5, -12
 629              		.cfi_offset 6, -8
 630              		.cfi_offset 14, -4
 631              		.loc 1 332 0
 632 0002 154E     		ldr	r6, .L52
 633              	.LBB64:
 634              	.LBB65:
 635              		.loc 2 60 0
 636 0004 3268     		ldr	r2, [r6]
 637              	.LBE65:
 638              	.LBE64:
 639              		.loc 1 332 0
 640 0006 B569     		ldr	r5, [r6, #24]
 641              	.LVL46:
 642              	.LBB68:
 643              	.LBB66:
 644              		.loc 2 62 0
 645 0008 1368     		ldr	r3, [r2]
 646 000a AC68     		ldr	r4, [r5, #8]
 647 000c 3360     		str	r3, [r6]
 648              	.LBE66:
 649              	.LBE68:
 650              		.loc 1 335 0
 651 000e 0120     		movs	r0, #1
 652              		.loc 1 337 0
 653 0010 0021     		movs	r1, #0
 654              	.LBB69:
 655              	.LBB67:
 656              		.loc 2 62 0
 657 0012 5E60     		str	r6, [r3, #4]
 658              	.LBE67:
 659              	.LBE69:
 660              		.loc 1 335 0
 661 0014 82F82000 		strb	r0, [r2, #32]
 662              		.loc 1 337 0
 663 0018 1346     		mov	r3, r2
 664              		.loc 1 334 0
 665 001a B261     		str	r2, [r6, #24]
 666              		.loc 1 337 0
 667 001c 85F82010 		strb	r1, [r5, #32]
 668              	.LVL47:
 669 0020 00E0     		b	.L49
 670              	.LVL48:
 671              	.L51:
 672 0022 1B68     		ldr	r3, [r3]
 673              	.LVL49:
 674              	.L49:
 675              		.loc 1 341 0 discriminator 1
ARM GAS  /tmp/cc5JcN0I.s 			page 13


 676 0024 9A68     		ldr	r2, [r3, #8]
 677 0026 A242     		cmp	r2, r4
 678 0028 FBD8     		bhi	.L51
 679              		.loc 1 344 0
 680 002a 5A68     		ldr	r2, [r3, #4]
 681 002c 6A60     		str	r2, [r5, #4]
 682              		.loc 1 343 0
 683 002e 2B60     		str	r3, [r5]
 684              		.loc 1 347 0
 685 0030 2846     		mov	r0, r5
 686              		.loc 1 345 0
 687 0032 5D60     		str	r5, [r3, #4]
 688 0034 1560     		str	r5, [r2]
 689              		.loc 1 347 0
 690 0036 FFF7FEFF 		bl	dbg_trace
 691              	.LVL50:
 692              	.LBB70:
 693 003a EB69     		ldr	r3, [r5, #28]
 694 003c ADF16402 		sub	r2, sp, #100
 695 0040 9342     		cmp	r3, r2
 696 0042 02D9     		bls	.L50
 697              		.loc 1 347 0 is_stmt 0 discriminator 1
 698 0044 0548     		ldr	r0, .L52+4
 699 0046 FFF7FEFF 		bl	chDbgPanic
 700              	.LVL51:
 701              	.L50:
 702              		.loc 1 347 0 discriminator 2
 703 004a B069     		ldr	r0, [r6, #24]
 704 004c 2946     		mov	r1, r5
 705              	.LBE70:
 706              		.loc 1 348 0 is_stmt 1 discriminator 2
 707 004e BDE87040 		pop	{r4, r5, r6, lr}
 708              	.LVL52:
 709              	.LBB71:
 710              		.loc 1 347 0 discriminator 2
 711 0052 FFF7FEBF 		b	_port_switch
 712              	.LVL53:
 713              	.L53:
 714 0056 00BF     		.align	2
 715              	.L52:
 716 0058 00000000 		.word	.LANCHOR0
 717 005c 14000000 		.word	.LC1
 718              	.LBE71:
 719              		.cfi_endproc
 720              	.LFE15:
 721              		.size	chSchDoRescheduleAhead, .-chSchDoRescheduleAhead
 722              		.section	.text.chSchRescheduleS,"ax",%progbits
 723              		.align	2
 724              		.p2align 4,,15
 725              		.global	chSchRescheduleS
 726              		.thumb
 727              		.thumb_func
 728              		.type	chSchRescheduleS, %function
 729              	chSchRescheduleS:
 730              	.LFB13:
 731              		.loc 1 253 0
 732              		.cfi_startproc
ARM GAS  /tmp/cc5JcN0I.s 			page 14


 733              		@ args = 0, pretend = 0, frame = 0
 734              		@ frame_needed = 0, uses_anonymous_args = 0
 735 0000 08B5     		push	{r3, lr}
 736              		.cfi_def_cfa_offset 8
 737              		.cfi_offset 3, -8
 738              		.cfi_offset 14, -4
 739              		.loc 1 255 0
 740 0002 FFF7FEFF 		bl	chDbgCheckClassS
 741              	.LVL54:
 742              		.loc 1 257 0
 743 0006 064B     		ldr	r3, .L57
 744 0008 1A68     		ldr	r2, [r3]
 745 000a 9B69     		ldr	r3, [r3, #24]
 746 000c 9268     		ldr	r2, [r2, #8]
 747 000e 9B68     		ldr	r3, [r3, #8]
 748 0010 9A42     		cmp	r2, r3
 749 0012 00D8     		bhi	.L56
 750 0014 08BD     		pop	{r3, pc}
 751              	.L56:
 752              		.loc 1 259 0
 753 0016 BDE80840 		pop	{r3, lr}
 754              		.loc 1 258 0
 755 001a FFF7FEBF 		b	chSchDoRescheduleAhead
 756              	.LVL55:
 757              	.L58:
 758 001e 00BF     		.align	2
 759              	.L57:
 760 0020 00000000 		.word	.LANCHOR0
 761              		.cfi_endproc
 762              	.LFE13:
 763              		.size	chSchRescheduleS, .-chSchRescheduleS
 764 0024 AFF30080 		.section	.text.chSchDoReschedule,"ax",%progbits
 764      AFF30080 
 764      AFF30080 
 765              		.align	2
 766              		.p2align 4,,15
 767              		.global	chSchDoReschedule
 768              		.thumb
 769              		.thumb_func
 770              		.type	chSchDoReschedule, %function
 771              	chSchDoReschedule:
 772              	.LFB16:
 773              		.loc 1 362 0
 774              		.cfi_startproc
 775              		@ args = 0, pretend = 0, frame = 0
 776              		@ frame_needed = 0, uses_anonymous_args = 0
 777              		@ link register save eliminated.
 778              		.loc 1 367 0
 779 0000 044B     		ldr	r3, .L62
 780 0002 9B69     		ldr	r3, [r3, #24]
 781 0004 93F82330 		ldrb	r3, [r3, #35]	@ zero_extendqisi2
 782 0008 0BB1     		cbz	r3, .L61
 783              		.loc 1 375 0
 784 000a FFF7FEBF 		b	chSchDoRescheduleAhead
 785              	.LVL56:
 786              	.L61:
 787              		.loc 1 370 0
ARM GAS  /tmp/cc5JcN0I.s 			page 15


 788 000e FFF7FEBF 		b	chSchDoRescheduleBehind
 789              	.LVL57:
 790              	.L63:
 791 0012 00BF     		.align	2
 792              	.L62:
 793 0014 00000000 		.word	.LANCHOR0
 794              		.cfi_endproc
 795              	.LFE16:
 796              		.size	chSchDoReschedule, .-chSchDoReschedule
 797              		.global	rlist
 798 0018 AFF30080 		.section	.rodata.str1.4,"aMS",%progbits,1
 798      AFF30080 
 799              		.align	2
 800              	.LC0:
 801 0000 63685363 		.ascii	"chSchReadyI(), #1\000"
 801      68526561 
 801      64794928 
 801      292C2023 
 801      3100
 802 0012 0000     		.space	2
 803              	.LC1:
 804 0014 73746163 		.ascii	"stack overflow\000"
 804      6B206F76 
 804      6572666C 
 804      6F7700
 805 0023 00       		.section	.bss.rlist,"aw",%nobits
 806              		.align	2
 807              		.set	.LANCHOR0,. + 0
 808              		.type	rlist, %object
 809              		.size	rlist, 28
 810              	rlist:
 811 0000 00000000 		.space	28
 811      00000000 
 811      00000000 
 811      00000000 
 811      00000000 
 812              		.text
 813              	.Letext0:
 814              		.file 3 "/opt/ARM/arm-none-eabi/include/machine/_default_types.h"
 815              		.file 4 "/opt/ARM/arm-none-eabi/include/stdint.h"
 816              		.file 5 "../../os/ports/GCC/ARMCMx/chtypes.h"
 817              		.file 6 "../../os/kernel/include/chlists.h"
 818              		.file 7 "../../os/kernel/include/chthreads.h"
 819              		.file 8 "../../os/ports/GCC/ARMCMx/chcore_v7m.h"
 820              		.file 9 "../../os/kernel/include/chvt.h"
 821              		.file 10 "../../os/kernel/include/chschd.h"
 822              		.file 11 "../../os/kernel/include/chsem.h"
 823              		.file 12 "../../os/kernel/include/chmtx.h"
 824              		.file 13 "../../os/kernel/include/chdebug.h"
 825              		.section	.debug_info,"",%progbits
 826              	.Ldebug_info0:
 827 0000 BF0B0000 		.4byte	0xbbf
 828 0004 0400     		.2byte	0x4
 829 0006 00000000 		.4byte	.Ldebug_abbrev0
 830 000a 04       		.byte	0x4
 831 000b 01       		.uleb128 0x1
 832 000c 1C030000 		.4byte	.LASF101
ARM GAS  /tmp/cc5JcN0I.s 			page 16


 833 0010 01       		.byte	0x1
 834 0011 37050000 		.4byte	.LASF102
 835 0015 BB040000 		.4byte	.LASF103
 836 0019 18010000 		.4byte	.Ldebug_ranges0+0x118
 837 001d 00000000 		.4byte	0
 838 0021 00000000 		.4byte	.Ldebug_line0
 839 0025 02       		.uleb128 0x2
 840 0026 04       		.byte	0x4
 841 0027 05       		.byte	0x5
 842 0028 696E7400 		.ascii	"int\000"
 843 002c 03       		.uleb128 0x3
 844 002d 04       		.byte	0x4
 845 002e 07       		.byte	0x7
 846 002f 39010000 		.4byte	.LASF0
 847 0033 03       		.uleb128 0x3
 848 0034 01       		.byte	0x1
 849 0035 06       		.byte	0x6
 850 0036 7E000000 		.4byte	.LASF1
 851 003a 04       		.uleb128 0x4
 852 003b 38000000 		.4byte	.LASF5
 853 003f 03       		.byte	0x3
 854 0040 1C       		.byte	0x1c
 855 0041 45000000 		.4byte	0x45
 856 0045 03       		.uleb128 0x3
 857 0046 01       		.byte	0x1
 858 0047 08       		.byte	0x8
 859 0048 C2020000 		.4byte	.LASF2
 860 004c 03       		.uleb128 0x3
 861 004d 02       		.byte	0x2
 862 004e 05       		.byte	0x5
 863 004f E3020000 		.4byte	.LASF3
 864 0053 03       		.uleb128 0x3
 865 0054 02       		.byte	0x2
 866 0055 07       		.byte	0x7
 867 0056 A2010000 		.4byte	.LASF4
 868 005a 04       		.uleb128 0x4
 869 005b AA040000 		.4byte	.LASF6
 870 005f 03       		.byte	0x3
 871 0060 37       		.byte	0x37
 872 0061 65000000 		.4byte	0x65
 873 0065 03       		.uleb128 0x3
 874 0066 04       		.byte	0x4
 875 0067 05       		.byte	0x5
 876 0068 BE000000 		.4byte	.LASF7
 877 006c 04       		.uleb128 0x4
 878 006d FA000000 		.4byte	.LASF8
 879 0071 03       		.byte	0x3
 880 0072 38       		.byte	0x38
 881 0073 77000000 		.4byte	0x77
 882 0077 03       		.uleb128 0x3
 883 0078 04       		.byte	0x4
 884 0079 07       		.byte	0x7
 885 007a 6C010000 		.4byte	.LASF9
 886 007e 03       		.uleb128 0x3
 887 007f 08       		.byte	0x8
 888 0080 05       		.byte	0x5
 889 0081 70000000 		.4byte	.LASF10
ARM GAS  /tmp/cc5JcN0I.s 			page 17


 890 0085 04       		.uleb128 0x4
 891 0086 92020000 		.4byte	.LASF11
 892 008a 03       		.byte	0x3
 893 008b 4E       		.byte	0x4e
 894 008c 90000000 		.4byte	0x90
 895 0090 03       		.uleb128 0x3
 896 0091 08       		.byte	0x8
 897 0092 07       		.byte	0x7
 898 0093 42000000 		.4byte	.LASF12
 899 0097 04       		.uleb128 0x4
 900 0098 5A050000 		.4byte	.LASF13
 901 009c 04       		.byte	0x4
 902 009d 2A       		.byte	0x2a
 903 009e 3A000000 		.4byte	0x3a
 904 00a2 04       		.uleb128 0x4
 905 00a3 BA020000 		.4byte	.LASF14
 906 00a7 04       		.byte	0x4
 907 00a8 41       		.byte	0x41
 908 00a9 5A000000 		.4byte	0x5a
 909 00ad 04       		.uleb128 0x4
 910 00ae 60040000 		.4byte	.LASF15
 911 00b2 04       		.byte	0x4
 912 00b3 42       		.byte	0x42
 913 00b4 6C000000 		.4byte	0x6c
 914 00b8 04       		.uleb128 0x4
 915 00b9 18000000 		.4byte	.LASF16
 916 00bd 04       		.byte	0x4
 917 00be 4E       		.byte	0x4e
 918 00bf 85000000 		.4byte	0x85
 919 00c3 03       		.uleb128 0x3
 920 00c4 01       		.byte	0x1
 921 00c5 02       		.byte	0x2
 922 00c6 B4020000 		.4byte	.LASF17
 923 00ca 04       		.uleb128 0x4
 924 00cb E1010000 		.4byte	.LASF18
 925 00cf 05       		.byte	0x5
 926 00d0 2C       		.byte	0x2c
 927 00d1 97000000 		.4byte	0x97
 928 00d5 04       		.uleb128 0x4
 929 00d6 C7000000 		.4byte	.LASF19
 930 00da 05       		.byte	0x5
 931 00db 2D       		.byte	0x2d
 932 00dc 97000000 		.4byte	0x97
 933 00e0 04       		.uleb128 0x4
 934 00e1 9D020000 		.4byte	.LASF20
 935 00e5 05       		.byte	0x5
 936 00e6 2E       		.byte	0x2e
 937 00e7 97000000 		.4byte	0x97
 938 00eb 04       		.uleb128 0x4
 939 00ec B4000000 		.4byte	.LASF21
 940 00f0 05       		.byte	0x5
 941 00f1 2F       		.byte	0x2f
 942 00f2 97000000 		.4byte	0x97
 943 00f6 04       		.uleb128 0x4
 944 00f7 AC020000 		.4byte	.LASF22
 945 00fb 05       		.byte	0x5
 946 00fc 30       		.byte	0x30
ARM GAS  /tmp/cc5JcN0I.s 			page 18


 947 00fd AD000000 		.4byte	0xad
 948 0101 04       		.uleb128 0x4
 949 0102 C2010000 		.4byte	.LASF23
 950 0106 05       		.byte	0x5
 951 0107 31       		.byte	0x31
 952 0108 A2000000 		.4byte	0xa2
 953 010c 04       		.uleb128 0x4
 954 010d 06020000 		.4byte	.LASF24
 955 0111 05       		.byte	0x5
 956 0112 33       		.byte	0x33
 957 0113 AD000000 		.4byte	0xad
 958 0117 04       		.uleb128 0x4
 959 0118 95040000 		.4byte	.LASF25
 960 011c 05       		.byte	0x5
 961 011d 35       		.byte	0x35
 962 011e AD000000 		.4byte	0xad
 963 0122 04       		.uleb128 0x4
 964 0123 28010000 		.4byte	.LASF26
 965 0127 05       		.byte	0x5
 966 0128 36       		.byte	0x36
 967 0129 A2000000 		.4byte	0xa2
 968 012d 04       		.uleb128 0x4
 969 012e 35040000 		.4byte	.LASF27
 970 0132 06       		.byte	0x6
 971 0133 2A       		.byte	0x2a
 972 0134 38010000 		.4byte	0x138
 973 0138 05       		.uleb128 0x5
 974 0139 35040000 		.4byte	.LASF27
 975 013d 4C       		.byte	0x4c
 976 013e 07       		.byte	0x7
 977 013f 5E       		.byte	0x5e
 978 0140 41020000 		.4byte	0x241
 979 0144 06       		.uleb128 0x6
 980 0145 0D030000 		.4byte	.LASF28
 981 0149 07       		.byte	0x7
 982 014a 5F       		.byte	0x5f
 983 014b 62020000 		.4byte	0x262
 984 014f 00       		.byte	0
 985 0150 06       		.uleb128 0x6
 986 0151 A5020000 		.4byte	.LASF29
 987 0155 07       		.byte	0x7
 988 0156 61       		.byte	0x61
 989 0157 62020000 		.4byte	0x262
 990 015b 04       		.byte	0x4
 991 015c 06       		.uleb128 0x6
 992 015d 59000000 		.4byte	.LASF30
 993 0161 07       		.byte	0x7
 994 0162 63       		.byte	0x63
 995 0163 F6000000 		.4byte	0xf6
 996 0167 08       		.byte	0x8
 997 0168 06       		.uleb128 0x6
 998 0169 A5050000 		.4byte	.LASF31
 999 016d 07       		.byte	0x7
 1000 016e 64       		.byte	0x64
 1001 016f F7030000 		.4byte	0x3f7
 1002 0173 0C       		.byte	0xc
 1003 0174 06       		.uleb128 0x6
ARM GAS  /tmp/cc5JcN0I.s 			page 19


 1004 0175 D0000000 		.4byte	.LASF32
 1005 0179 07       		.byte	0x7
 1006 017a 66       		.byte	0x66
 1007 017b 62020000 		.4byte	0x262
 1008 017f 10       		.byte	0x10
 1009 0180 06       		.uleb128 0x6
 1010 0181 5D020000 		.4byte	.LASF33
 1011 0185 07       		.byte	0x7
 1012 0186 67       		.byte	0x67
 1013 0187 62020000 		.4byte	0x262
 1014 018b 14       		.byte	0x14
 1015 018c 06       		.uleb128 0x6
 1016 018d 81050000 		.4byte	.LASF34
 1017 0191 07       		.byte	0x7
 1018 0192 6E       		.byte	0x6e
 1019 0193 9D050000 		.4byte	0x59d
 1020 0197 18       		.byte	0x18
 1021 0198 06       		.uleb128 0x6
 1022 0199 2E010000 		.4byte	.LASF35
 1023 019d 07       		.byte	0x7
 1024 019e 74       		.byte	0x74
 1025 019f AF050000 		.4byte	0x5af
 1026 01a3 1C       		.byte	0x1c
 1027 01a4 06       		.uleb128 0x6
 1028 01a5 ED020000 		.4byte	.LASF36
 1029 01a9 07       		.byte	0x7
 1030 01aa 79       		.byte	0x79
 1031 01ab D5000000 		.4byte	0xd5
 1032 01af 20       		.byte	0x20
 1033 01b0 06       		.uleb128 0x6
 1034 01b1 14030000 		.4byte	.LASF37
 1035 01b5 07       		.byte	0x7
 1036 01b6 7D       		.byte	0x7d
 1037 01b7 CA000000 		.4byte	0xca
 1038 01bb 21       		.byte	0x21
 1039 01bc 06       		.uleb128 0x6
 1040 01bd 26050000 		.4byte	.LASF38
 1041 01c1 07       		.byte	0x7
 1042 01c2 82       		.byte	0x82
 1043 01c3 E0000000 		.4byte	0xe0
 1044 01c7 22       		.byte	0x22
 1045 01c8 06       		.uleb128 0x6
 1046 01c9 F5020000 		.4byte	.LASF39
 1047 01cd 07       		.byte	0x7
 1048 01ce 88       		.byte	0x88
 1049 01cf EB000000 		.4byte	0xeb
 1050 01d3 23       		.byte	0x23
 1051 01d4 06       		.uleb128 0x6
 1052 01d5 B4040000 		.4byte	.LASF40
 1053 01d9 07       		.byte	0x7
 1054 01da 8F       		.byte	0x8f
 1055 01db 95040000 		.4byte	0x495
 1056 01df 24       		.byte	0x24
 1057 01e0 07       		.uleb128 0x7
 1058 01e1 705F7500 		.ascii	"p_u\000"
 1059 01e5 07       		.byte	0x7
 1060 01e6 B4       		.byte	0xb4
ARM GAS  /tmp/cc5JcN0I.s 			page 20


 1061 01e7 68050000 		.4byte	0x568
 1062 01eb 28       		.byte	0x28
 1063 01ec 06       		.uleb128 0x6
 1064 01ed AB050000 		.4byte	.LASF41
 1065 01f1 07       		.byte	0x7
 1066 01f2 B9       		.byte	0xb9
 1067 01f3 88020000 		.4byte	0x288
 1068 01f7 2C       		.byte	0x2c
 1069 01f8 06       		.uleb128 0x6
 1070 01f9 05050000 		.4byte	.LASF42
 1071 01fd 07       		.byte	0x7
 1072 01fe BF       		.byte	0xbf
 1073 01ff 68020000 		.4byte	0x268
 1074 0203 30       		.byte	0x30
 1075 0204 06       		.uleb128 0x6
 1076 0205 00000000 		.4byte	.LASF43
 1077 0209 07       		.byte	0x7
 1078 020a C3       		.byte	0xc3
 1079 020b 01010000 		.4byte	0x101
 1080 020f 38       		.byte	0x38
 1081 0210 06       		.uleb128 0x6
 1082 0211 55040000 		.4byte	.LASF44
 1083 0215 07       		.byte	0x7
 1084 0216 C9       		.byte	0xc9
 1085 0217 0C010000 		.4byte	0x10c
 1086 021b 3C       		.byte	0x3c
 1087 021c 06       		.uleb128 0x6
 1088 021d D9020000 		.4byte	.LASF45
 1089 0221 07       		.byte	0x7
 1090 0222 D0       		.byte	0xd0
 1091 0223 B5050000 		.4byte	0x5b5
 1092 0227 40       		.byte	0x40
 1093 0228 06       		.uleb128 0x6
 1094 0229 9F040000 		.4byte	.LASF46
 1095 022d 07       		.byte	0x7
 1096 022e D4       		.byte	0xd4
 1097 022f F6000000 		.4byte	0xf6
 1098 0233 44       		.byte	0x44
 1099 0234 06       		.uleb128 0x6
 1100 0235 A4000000 		.4byte	.LASF47
 1101 0239 07       		.byte	0x7
 1102 023a DA       		.byte	0xda
 1103 023b 9E020000 		.4byte	0x29e
 1104 023f 48       		.byte	0x48
 1105 0240 00       		.byte	0
 1106 0241 08       		.uleb128 0x8
 1107 0242 08       		.byte	0x8
 1108 0243 06       		.byte	0x6
 1109 0244 61       		.byte	0x61
 1110 0245 62020000 		.4byte	0x262
 1111 0249 06       		.uleb128 0x6
 1112 024a 0D030000 		.4byte	.LASF28
 1113 024e 06       		.byte	0x6
 1114 024f 62       		.byte	0x62
 1115 0250 62020000 		.4byte	0x262
 1116 0254 00       		.byte	0
 1117 0255 06       		.uleb128 0x6
ARM GAS  /tmp/cc5JcN0I.s 			page 21


 1118 0256 A5020000 		.4byte	.LASF29
 1119 025a 06       		.byte	0x6
 1120 025b 64       		.byte	0x64
 1121 025c 62020000 		.4byte	0x262
 1122 0260 04       		.byte	0x4
 1123 0261 00       		.byte	0
 1124 0262 09       		.uleb128 0x9
 1125 0263 04       		.byte	0x4
 1126 0264 2D010000 		.4byte	0x12d
 1127 0268 04       		.uleb128 0x4
 1128 0269 6B020000 		.4byte	.LASF48
 1129 026d 06       		.byte	0x6
 1130 026e 66       		.byte	0x66
 1131 026f 41020000 		.4byte	0x241
 1132 0273 08       		.uleb128 0x8
 1133 0274 04       		.byte	0x4
 1134 0275 06       		.byte	0x6
 1135 0276 6B       		.byte	0x6b
 1136 0277 88020000 		.4byte	0x288
 1137 027b 06       		.uleb128 0x6
 1138 027c 0D030000 		.4byte	.LASF28
 1139 0280 06       		.byte	0x6
 1140 0281 6D       		.byte	0x6d
 1141 0282 62020000 		.4byte	0x262
 1142 0286 00       		.byte	0
 1143 0287 00       		.byte	0
 1144 0288 04       		.uleb128 0x4
 1145 0289 FA010000 		.4byte	.LASF49
 1146 028d 06       		.byte	0x6
 1147 028e 70       		.byte	0x70
 1148 028f 73020000 		.4byte	0x273
 1149 0293 04       		.uleb128 0x4
 1150 0294 05010000 		.4byte	.LASF50
 1151 0298 08       		.byte	0x8
 1152 0299 E5       		.byte	0xe5
 1153 029a 9E020000 		.4byte	0x29e
 1154 029e 0A       		.uleb128 0xa
 1155 029f 04       		.byte	0x4
 1156 02a0 04       		.uleb128 0x4
 1157 02a1 18020000 		.4byte	.LASF51
 1158 02a5 08       		.byte	0x8
 1159 02a6 EB       		.byte	0xeb
 1160 02a7 B8000000 		.4byte	0xb8
 1161 02ab 0B       		.uleb128 0xb
 1162 02ac FE040000 		.4byte	.LASF52
 1163 02b0 64       		.byte	0x64
 1164 02b1 08       		.byte	0x8
 1165 02b2 0C01     		.2byte	0x10c
 1166 02b4 F7030000 		.4byte	0x3f7
 1167 02b8 0C       		.uleb128 0xc
 1168 02b9 73313600 		.ascii	"s16\000"
 1169 02bd 08       		.byte	0x8
 1170 02be 0E01     		.2byte	0x10e
 1171 02c0 93020000 		.4byte	0x293
 1172 02c4 00       		.byte	0
 1173 02c5 0C       		.uleb128 0xc
 1174 02c6 73313700 		.ascii	"s17\000"
ARM GAS  /tmp/cc5JcN0I.s 			page 22


 1175 02ca 08       		.byte	0x8
 1176 02cb 0F01     		.2byte	0x10f
 1177 02cd 93020000 		.4byte	0x293
 1178 02d1 04       		.byte	0x4
 1179 02d2 0C       		.uleb128 0xc
 1180 02d3 73313800 		.ascii	"s18\000"
 1181 02d7 08       		.byte	0x8
 1182 02d8 1001     		.2byte	0x110
 1183 02da 93020000 		.4byte	0x293
 1184 02de 08       		.byte	0x8
 1185 02df 0C       		.uleb128 0xc
 1186 02e0 73313900 		.ascii	"s19\000"
 1187 02e4 08       		.byte	0x8
 1188 02e5 1101     		.2byte	0x111
 1189 02e7 93020000 		.4byte	0x293
 1190 02eb 0C       		.byte	0xc
 1191 02ec 0C       		.uleb128 0xc
 1192 02ed 73323000 		.ascii	"s20\000"
 1193 02f1 08       		.byte	0x8
 1194 02f2 1201     		.2byte	0x112
 1195 02f4 93020000 		.4byte	0x293
 1196 02f8 10       		.byte	0x10
 1197 02f9 0C       		.uleb128 0xc
 1198 02fa 73323100 		.ascii	"s21\000"
 1199 02fe 08       		.byte	0x8
 1200 02ff 1301     		.2byte	0x113
 1201 0301 93020000 		.4byte	0x293
 1202 0305 14       		.byte	0x14
 1203 0306 0C       		.uleb128 0xc
 1204 0307 73323200 		.ascii	"s22\000"
 1205 030b 08       		.byte	0x8
 1206 030c 1401     		.2byte	0x114
 1207 030e 93020000 		.4byte	0x293
 1208 0312 18       		.byte	0x18
 1209 0313 0C       		.uleb128 0xc
 1210 0314 73323300 		.ascii	"s23\000"
 1211 0318 08       		.byte	0x8
 1212 0319 1501     		.2byte	0x115
 1213 031b 93020000 		.4byte	0x293
 1214 031f 1C       		.byte	0x1c
 1215 0320 0C       		.uleb128 0xc
 1216 0321 73323400 		.ascii	"s24\000"
 1217 0325 08       		.byte	0x8
 1218 0326 1601     		.2byte	0x116
 1219 0328 93020000 		.4byte	0x293
 1220 032c 20       		.byte	0x20
 1221 032d 0C       		.uleb128 0xc
 1222 032e 73323500 		.ascii	"s25\000"
 1223 0332 08       		.byte	0x8
 1224 0333 1701     		.2byte	0x117
 1225 0335 93020000 		.4byte	0x293
 1226 0339 24       		.byte	0x24
 1227 033a 0C       		.uleb128 0xc
 1228 033b 73323600 		.ascii	"s26\000"
 1229 033f 08       		.byte	0x8
 1230 0340 1801     		.2byte	0x118
 1231 0342 93020000 		.4byte	0x293
ARM GAS  /tmp/cc5JcN0I.s 			page 23


 1232 0346 28       		.byte	0x28
 1233 0347 0C       		.uleb128 0xc
 1234 0348 73323700 		.ascii	"s27\000"
 1235 034c 08       		.byte	0x8
 1236 034d 1901     		.2byte	0x119
 1237 034f 93020000 		.4byte	0x293
 1238 0353 2C       		.byte	0x2c
 1239 0354 0C       		.uleb128 0xc
 1240 0355 73323800 		.ascii	"s28\000"
 1241 0359 08       		.byte	0x8
 1242 035a 1A01     		.2byte	0x11a
 1243 035c 93020000 		.4byte	0x293
 1244 0360 30       		.byte	0x30
 1245 0361 0C       		.uleb128 0xc
 1246 0362 73323900 		.ascii	"s29\000"
 1247 0366 08       		.byte	0x8
 1248 0367 1B01     		.2byte	0x11b
 1249 0369 93020000 		.4byte	0x293
 1250 036d 34       		.byte	0x34
 1251 036e 0C       		.uleb128 0xc
 1252 036f 73333000 		.ascii	"s30\000"
 1253 0373 08       		.byte	0x8
 1254 0374 1C01     		.2byte	0x11c
 1255 0376 93020000 		.4byte	0x293
 1256 037a 38       		.byte	0x38
 1257 037b 0C       		.uleb128 0xc
 1258 037c 73333100 		.ascii	"s31\000"
 1259 0380 08       		.byte	0x8
 1260 0381 1D01     		.2byte	0x11d
 1261 0383 93020000 		.4byte	0x293
 1262 0387 3C       		.byte	0x3c
 1263 0388 0C       		.uleb128 0xc
 1264 0389 723400   		.ascii	"r4\000"
 1265 038c 08       		.byte	0x8
 1266 038d 1F01     		.2byte	0x11f
 1267 038f 93020000 		.4byte	0x293
 1268 0393 40       		.byte	0x40
 1269 0394 0C       		.uleb128 0xc
 1270 0395 723500   		.ascii	"r5\000"
 1271 0398 08       		.byte	0x8
 1272 0399 2001     		.2byte	0x120
 1273 039b 93020000 		.4byte	0x293
 1274 039f 44       		.byte	0x44
 1275 03a0 0C       		.uleb128 0xc
 1276 03a1 723600   		.ascii	"r6\000"
 1277 03a4 08       		.byte	0x8
 1278 03a5 2101     		.2byte	0x121
 1279 03a7 93020000 		.4byte	0x293
 1280 03ab 48       		.byte	0x48
 1281 03ac 0C       		.uleb128 0xc
 1282 03ad 723700   		.ascii	"r7\000"
 1283 03b0 08       		.byte	0x8
 1284 03b1 2201     		.2byte	0x122
 1285 03b3 93020000 		.4byte	0x293
 1286 03b7 4C       		.byte	0x4c
 1287 03b8 0C       		.uleb128 0xc
 1288 03b9 723800   		.ascii	"r8\000"
ARM GAS  /tmp/cc5JcN0I.s 			page 24


 1289 03bc 08       		.byte	0x8
 1290 03bd 2301     		.2byte	0x123
 1291 03bf 93020000 		.4byte	0x293
 1292 03c3 50       		.byte	0x50
 1293 03c4 0C       		.uleb128 0xc
 1294 03c5 723900   		.ascii	"r9\000"
 1295 03c8 08       		.byte	0x8
 1296 03c9 2401     		.2byte	0x124
 1297 03cb 93020000 		.4byte	0x293
 1298 03cf 54       		.byte	0x54
 1299 03d0 0C       		.uleb128 0xc
 1300 03d1 72313000 		.ascii	"r10\000"
 1301 03d5 08       		.byte	0x8
 1302 03d6 2501     		.2byte	0x125
 1303 03d8 93020000 		.4byte	0x293
 1304 03dc 58       		.byte	0x58
 1305 03dd 0C       		.uleb128 0xc
 1306 03de 72313100 		.ascii	"r11\000"
 1307 03e2 08       		.byte	0x8
 1308 03e3 2601     		.2byte	0x126
 1309 03e5 93020000 		.4byte	0x293
 1310 03e9 5C       		.byte	0x5c
 1311 03ea 0C       		.uleb128 0xc
 1312 03eb 6C7200   		.ascii	"lr\000"
 1313 03ee 08       		.byte	0x8
 1314 03ef 2701     		.2byte	0x127
 1315 03f1 93020000 		.4byte	0x293
 1316 03f5 60       		.byte	0x60
 1317 03f6 00       		.byte	0
 1318 03f7 0B       		.uleb128 0xb
 1319 03f8 9A010000 		.4byte	.LASF53
 1320 03fc 04       		.byte	0x4
 1321 03fd 08       		.byte	0x8
 1322 03fe 3101     		.2byte	0x131
 1323 0400 12040000 		.4byte	0x412
 1324 0404 0C       		.uleb128 0xc
 1325 0405 72313300 		.ascii	"r13\000"
 1326 0409 08       		.byte	0x8
 1327 040a 3201     		.2byte	0x132
 1328 040c 12040000 		.4byte	0x412
 1329 0410 00       		.byte	0
 1330 0411 00       		.byte	0
 1331 0412 09       		.uleb128 0x9
 1332 0413 04       		.byte	0x4
 1333 0414 AB020000 		.4byte	0x2ab
 1334 0418 03       		.uleb128 0x3
 1335 0419 04       		.byte	0x4
 1336 041a 07       		.byte	0x7
 1337 041b 2B020000 		.4byte	.LASF54
 1338 041f 04       		.uleb128 0x4
 1339 0420 7E010000 		.4byte	.LASF55
 1340 0424 09       		.byte	0x9
 1341 0425 58       		.byte	0x58
 1342 0426 2A040000 		.4byte	0x42a
 1343 042a 09       		.uleb128 0x9
 1344 042b 04       		.byte	0x4
 1345 042c 30040000 		.4byte	0x430
ARM GAS  /tmp/cc5JcN0I.s 			page 25


 1346 0430 0D       		.uleb128 0xd
 1347 0431 3B040000 		.4byte	0x43b
 1348 0435 0E       		.uleb128 0xe
 1349 0436 9E020000 		.4byte	0x29e
 1350 043a 00       		.byte	0
 1351 043b 04       		.uleb128 0x4
 1352 043c 87010000 		.4byte	.LASF56
 1353 0440 09       		.byte	0x9
 1354 0441 5D       		.byte	0x5d
 1355 0442 46040000 		.4byte	0x446
 1356 0446 05       		.uleb128 0x5
 1357 0447 87010000 		.4byte	.LASF56
 1358 044b 14       		.byte	0x14
 1359 044c 09       		.byte	0x9
 1360 044d 64       		.byte	0x64
 1361 044e 8F040000 		.4byte	0x48f
 1362 0452 06       		.uleb128 0x6
 1363 0453 4D010000 		.4byte	.LASF57
 1364 0457 09       		.byte	0x9
 1365 0458 65       		.byte	0x65
 1366 0459 8F040000 		.4byte	0x48f
 1367 045d 00       		.byte	0
 1368 045e 06       		.uleb128 0x6
 1369 045f 0E010000 		.4byte	.LASF58
 1370 0463 09       		.byte	0x9
 1371 0464 67       		.byte	0x67
 1372 0465 8F040000 		.4byte	0x48f
 1373 0469 04       		.byte	0x4
 1374 046a 06       		.uleb128 0x6
 1375 046b 23020000 		.4byte	.LASF59
 1376 046f 09       		.byte	0x9
 1377 0470 69       		.byte	0x69
 1378 0471 17010000 		.4byte	0x117
 1379 0475 08       		.byte	0x8
 1380 0476 06       		.uleb128 0x6
 1381 0477 34020000 		.4byte	.LASF60
 1382 047b 09       		.byte	0x9
 1383 047c 6A       		.byte	0x6a
 1384 047d 1F040000 		.4byte	0x41f
 1385 0481 0C       		.byte	0xc
 1386 0482 06       		.uleb128 0x6
 1387 0483 15050000 		.4byte	.LASF61
 1388 0487 09       		.byte	0x9
 1389 0488 6C       		.byte	0x6c
 1390 0489 9E020000 		.4byte	0x29e
 1391 048d 10       		.byte	0x10
 1392 048e 00       		.byte	0
 1393 048f 09       		.uleb128 0x9
 1394 0490 04       		.byte	0x4
 1395 0491 3B040000 		.4byte	0x43b
 1396 0495 0F       		.uleb128 0xf
 1397 0496 17010000 		.4byte	0x117
 1398 049a 08       		.uleb128 0x8
 1399 049b 1C       		.byte	0x1c
 1400 049c 0A       		.byte	0xa
 1401 049d 5E       		.byte	0x5e
 1402 049e EB040000 		.4byte	0x4eb
ARM GAS  /tmp/cc5JcN0I.s 			page 26


 1403 04a2 06       		.uleb128 0x6
 1404 04a3 69040000 		.4byte	.LASF62
 1405 04a7 0A       		.byte	0xa
 1406 04a8 5F       		.byte	0x5f
 1407 04a9 68020000 		.4byte	0x268
 1408 04ad 00       		.byte	0
 1409 04ae 06       		.uleb128 0x6
 1410 04af FF020000 		.4byte	.LASF63
 1411 04b3 0A       		.byte	0xa
 1412 04b4 60       		.byte	0x60
 1413 04b5 F6000000 		.4byte	0xf6
 1414 04b9 08       		.byte	0x8
 1415 04ba 06       		.uleb128 0x6
 1416 04bb 65020000 		.4byte	.LASF64
 1417 04bf 0A       		.byte	0xa
 1418 04c0 62       		.byte	0x62
 1419 04c1 F7030000 		.4byte	0x3f7
 1420 04c5 0C       		.byte	0xc
 1421 04c6 06       		.uleb128 0x6
 1422 04c7 C8010000 		.4byte	.LASF65
 1423 04cb 0A       		.byte	0xa
 1424 04cc 65       		.byte	0x65
 1425 04cd 62020000 		.4byte	0x262
 1426 04d1 10       		.byte	0x10
 1427 04d2 06       		.uleb128 0x6
 1428 04d3 8A020000 		.4byte	.LASF66
 1429 04d7 0A       		.byte	0xa
 1430 04d8 66       		.byte	0x66
 1431 04d9 62020000 		.4byte	0x262
 1432 04dd 14       		.byte	0x14
 1433 04de 06       		.uleb128 0x6
 1434 04df 80020000 		.4byte	.LASF67
 1435 04e3 0A       		.byte	0xa
 1436 04e4 69       		.byte	0x69
 1437 04e5 62020000 		.4byte	0x262
 1438 04e9 18       		.byte	0x18
 1439 04ea 00       		.byte	0
 1440 04eb 04       		.uleb128 0x4
 1441 04ec 2D050000 		.4byte	.LASF68
 1442 04f0 0A       		.byte	0xa
 1443 04f1 6B       		.byte	0x6b
 1444 04f2 9A040000 		.4byte	0x49a
 1445 04f6 05       		.uleb128 0x5
 1446 04f7 1C050000 		.4byte	.LASF69
 1447 04fb 0C       		.byte	0xc
 1448 04fc 0B       		.byte	0xb
 1449 04fd 2C       		.byte	0x2c
 1450 04fe 1B050000 		.4byte	0x51b
 1451 0502 06       		.uleb128 0x6
 1452 0503 D8000000 		.4byte	.LASF70
 1453 0507 0B       		.byte	0xb
 1454 0508 2D       		.byte	0x2d
 1455 0509 68020000 		.4byte	0x268
 1456 050d 00       		.byte	0
 1457 050e 06       		.uleb128 0x6
 1458 050f 94010000 		.4byte	.LASF71
 1459 0513 0B       		.byte	0xb
ARM GAS  /tmp/cc5JcN0I.s 			page 27


 1460 0514 2F       		.byte	0x2f
 1461 0515 22010000 		.4byte	0x122
 1462 0519 08       		.byte	0x8
 1463 051a 00       		.byte	0
 1464 051b 04       		.uleb128 0x4
 1465 051c 1C050000 		.4byte	.LASF69
 1466 0520 0B       		.byte	0xb
 1467 0521 30       		.byte	0x30
 1468 0522 F6040000 		.4byte	0x4f6
 1469 0526 05       		.uleb128 0x5
 1470 0527 12020000 		.4byte	.LASF72
 1471 052b 10       		.byte	0x10
 1472 052c 0C       		.byte	0xc
 1473 052d 2C       		.byte	0x2c
 1474 052e 57050000 		.4byte	0x557
 1475 0532 06       		.uleb128 0x6
 1476 0533 AC000000 		.4byte	.LASF73
 1477 0537 0C       		.byte	0xc
 1478 0538 2D       		.byte	0x2d
 1479 0539 68020000 		.4byte	0x268
 1480 053d 00       		.byte	0
 1481 053e 06       		.uleb128 0x6
 1482 053f 9D050000 		.4byte	.LASF74
 1483 0543 0C       		.byte	0xc
 1484 0544 2F       		.byte	0x2f
 1485 0545 62020000 		.4byte	0x262
 1486 0549 08       		.byte	0x8
 1487 054a 06       		.uleb128 0x6
 1488 054b 8E040000 		.4byte	.LASF75
 1489 054f 0C       		.byte	0xc
 1490 0550 31       		.byte	0x31
 1491 0551 57050000 		.4byte	0x557
 1492 0555 0C       		.byte	0xc
 1493 0556 00       		.byte	0
 1494 0557 09       		.uleb128 0x9
 1495 0558 04       		.byte	0x4
 1496 0559 26050000 		.4byte	0x526
 1497 055d 04       		.uleb128 0x4
 1498 055e 12020000 		.4byte	.LASF72
 1499 0562 0C       		.byte	0xc
 1500 0563 33       		.byte	0x33
 1501 0564 26050000 		.4byte	0x526
 1502 0568 10       		.uleb128 0x10
 1503 0569 04       		.byte	0x4
 1504 056a 07       		.byte	0x7
 1505 056b 96       		.byte	0x96
 1506 056c 9D050000 		.4byte	0x59d
 1507 0570 11       		.uleb128 0x11
 1508 0571 11000000 		.4byte	.LASF76
 1509 0575 07       		.byte	0x7
 1510 0576 9D       		.byte	0x9d
 1511 0577 01010000 		.4byte	0x101
 1512 057b 11       		.uleb128 0x11
 1513 057c E0000000 		.4byte	.LASF77
 1514 0580 07       		.byte	0x7
 1515 0581 A4       		.byte	0xa4
 1516 0582 01010000 		.4byte	0x101
ARM GAS  /tmp/cc5JcN0I.s 			page 28


 1517 0586 11       		.uleb128 0x11
 1518 0587 7A050000 		.4byte	.LASF78
 1519 058b 07       		.byte	0x7
 1520 058c AB       		.byte	0xab
 1521 058d 9E020000 		.4byte	0x29e
 1522 0591 11       		.uleb128 0x11
 1523 0592 06030000 		.4byte	.LASF79
 1524 0596 07       		.byte	0x7
 1525 0597 B2       		.byte	0xb2
 1526 0598 0C010000 		.4byte	0x10c
 1527 059c 00       		.byte	0
 1528 059d 09       		.uleb128 0x9
 1529 059e 04       		.byte	0x4
 1530 059f A3050000 		.4byte	0x5a3
 1531 05a3 12       		.uleb128 0x12
 1532 05a4 A8050000 		.4byte	0x5a8
 1533 05a8 03       		.uleb128 0x3
 1534 05a9 01       		.byte	0x1
 1535 05aa 08       		.byte	0x8
 1536 05ab 71040000 		.4byte	.LASF80
 1537 05af 09       		.uleb128 0x9
 1538 05b0 04       		.byte	0x4
 1539 05b1 A0020000 		.4byte	0x2a0
 1540 05b5 09       		.uleb128 0x9
 1541 05b6 04       		.byte	0x4
 1542 05b7 5D050000 		.4byte	0x55d
 1543 05bb 13       		.uleb128 0x13
 1544 05bc 78020000 		.4byte	.LASF81
 1545 05c0 02       		.byte	0x2
 1546 05c1 49       		.byte	0x49
 1547 05c2 62020000 		.4byte	0x262
 1548 05c6 03       		.byte	0x3
 1549 05c7 D6050000 		.4byte	0x5d6
 1550 05cb 14       		.uleb128 0x14
 1551 05cc 747000   		.ascii	"tp\000"
 1552 05cf 02       		.byte	0x2
 1553 05d0 49       		.byte	0x49
 1554 05d1 62020000 		.4byte	0x262
 1555 05d5 00       		.byte	0
 1556 05d6 15       		.uleb128 0x15
 1557 05d7 46010000 		.4byte	.LASF104
 1558 05db 01       		.byte	0x1
 1559 05dc 88       		.byte	0x88
 1560 05dd 01       		.byte	0x1
 1561 05de 25060000 		.4byte	0x625
 1562 05e2 14       		.uleb128 0x14
 1563 05e3 7000     		.ascii	"p\000"
 1564 05e5 01       		.byte	0x1
 1565 05e6 88       		.byte	0x88
 1566 05e7 9E020000 		.4byte	0x29e
 1567 05eb 16       		.uleb128 0x16
 1568 05ec 747000   		.ascii	"tp\000"
 1569 05ef 01       		.byte	0x1
 1570 05f0 89       		.byte	0x89
 1571 05f1 62020000 		.4byte	0x262
 1572 05f5 17       		.uleb128 0x17
 1573 05f6 06060000 		.4byte	0x606
ARM GAS  /tmp/cc5JcN0I.s 			page 29


 1574 05fa 16       		.uleb128 0x16
 1575 05fb 746D7000 		.ascii	"tmp\000"
 1576 05ff 01       		.byte	0x1
 1577 0600 8B       		.byte	0x8b
 1578 0601 AD000000 		.4byte	0xad
 1579 0605 00       		.byte	0
 1580 0606 17       		.uleb128 0x17
 1581 0607 17060000 		.4byte	0x617
 1582 060b 16       		.uleb128 0x16
 1583 060c 746D7000 		.ascii	"tmp\000"
 1584 0610 01       		.byte	0x1
 1585 0611 90       		.byte	0x90
 1586 0612 AD000000 		.4byte	0xad
 1587 0616 00       		.byte	0
 1588 0617 18       		.uleb128 0x18
 1589 0618 16       		.uleb128 0x16
 1590 0619 746D7000 		.ascii	"tmp\000"
 1591 061d 01       		.byte	0x1
 1592 061e A5       		.byte	0xa5
 1593 061f AD000000 		.4byte	0xad
 1594 0623 00       		.byte	0
 1595 0624 00       		.byte	0
 1596 0625 13       		.uleb128 0x13
 1597 0626 76040000 		.4byte	.LASF82
 1598 062a 02       		.byte	0x2
 1599 062b 3B       		.byte	0x3b
 1600 062c 62020000 		.4byte	0x262
 1601 0630 03       		.byte	0x3
 1602 0631 4B060000 		.4byte	0x64b
 1603 0635 14       		.uleb128 0x14
 1604 0636 74717000 		.ascii	"tqp\000"
 1605 063a 02       		.byte	0x2
 1606 063b 3B       		.byte	0x3b
 1607 063c 4B060000 		.4byte	0x64b
 1608 0640 16       		.uleb128 0x16
 1609 0641 747000   		.ascii	"tp\000"
 1610 0644 02       		.byte	0x2
 1611 0645 3C       		.byte	0x3c
 1612 0646 62020000 		.4byte	0x262
 1613 064a 00       		.byte	0
 1614 064b 09       		.uleb128 0x9
 1615 064c 04       		.byte	0x4
 1616 064d 68020000 		.4byte	0x268
 1617 0651 19       		.uleb128 0x19
 1618 0652 60000000 		.4byte	.LASF105
 1619 0656 01       		.byte	0x1
 1620 0657 37       		.byte	0x37
 1621 0658 00000000 		.4byte	.LFB7
 1622 065c 14000000 		.4byte	.LFE7-.LFB7
 1623 0660 01       		.uleb128 0x1
 1624 0661 9C       		.byte	0x9c
 1625 0662 1A       		.uleb128 0x1a
 1626 0663 82040000 		.4byte	.LASF84
 1627 0667 01       		.byte	0x1
 1628 0668 51       		.byte	0x51
 1629 0669 62020000 		.4byte	0x262
 1630 066d 00000000 		.4byte	.LFB8
ARM GAS  /tmp/cc5JcN0I.s 			page 30


 1631 0671 44000000 		.4byte	.LFE8-.LFB8
 1632 0675 01       		.uleb128 0x1
 1633 0676 9C       		.byte	0x9c
 1634 0677 B4060000 		.4byte	0x6b4
 1635 067b 1B       		.uleb128 0x1b
 1636 067c 747000   		.ascii	"tp\000"
 1637 067f 01       		.byte	0x1
 1638 0680 51       		.byte	0x51
 1639 0681 62020000 		.4byte	0x262
 1640 0685 00000000 		.4byte	.LLST0
 1641 0689 1C       		.uleb128 0x1c
 1642 068a 637000   		.ascii	"cp\000"
 1643 068d 01       		.byte	0x1
 1644 068e 52       		.byte	0x52
 1645 068f 62020000 		.4byte	0x262
 1646 0693 1E000000 		.4byte	.LLST1
 1647 0697 1D       		.uleb128 0x1d
 1648 0698 08000000 		.4byte	.LVL1
 1649 069c 400B0000 		.4byte	0xb40
 1650 06a0 1E       		.uleb128 0x1e
 1651 06a1 38000000 		.4byte	.LVL5
 1652 06a5 470B0000 		.4byte	0xb47
 1653 06a9 1F       		.uleb128 0x1f
 1654 06aa 01       		.uleb128 0x1
 1655 06ab 50       		.byte	0x50
 1656 06ac 05       		.uleb128 0x5
 1657 06ad 03       		.byte	0x3
 1658 06ae 00000000 		.4byte	.LC0
 1659 06b2 00       		.byte	0
 1660 06b3 00       		.byte	0
 1661 06b4 20       		.uleb128 0x20
 1662 06b5 D6050000 		.4byte	0x5d6
 1663 06b9 00000000 		.4byte	.LFB10
 1664 06bd 52000000 		.4byte	.LFE10-.LFB10
 1665 06c1 01       		.uleb128 0x1
 1666 06c2 9C       		.byte	0x9c
 1667 06c3 43070000 		.4byte	0x743
 1668 06c7 21       		.uleb128 0x21
 1669 06c8 E2050000 		.4byte	0x5e2
 1670 06cc 31000000 		.4byte	.LLST2
 1671 06d0 22       		.uleb128 0x22
 1672 06d1 EB050000 		.4byte	0x5eb
 1673 06d5 31000000 		.4byte	.LLST2
 1674 06d9 23       		.uleb128 0x23
 1675 06da 00000000 		.4byte	.Ldebug_ranges0+0
 1676 06de EA060000 		.4byte	0x6ea
 1677 06e2 24       		.uleb128 0x24
 1678 06e3 FA050000 		.4byte	0x5fa
 1679 06e7 01       		.uleb128 0x1
 1680 06e8 53       		.byte	0x53
 1681 06e9 00       		.byte	0
 1682 06ea 25       		.uleb128 0x25
 1683 06eb BB050000 		.4byte	0x5bb
 1684 06ef 30000000 		.4byte	.LBB34
 1685 06f3 0A000000 		.4byte	.LBE34-.LBB34
 1686 06f7 01       		.byte	0x1
 1687 06f8 A0       		.byte	0xa0
ARM GAS  /tmp/cc5JcN0I.s 			page 31


 1688 06f9 07070000 		.4byte	0x707
 1689 06fd 21       		.uleb128 0x21
 1690 06fe CB050000 		.4byte	0x5cb
 1691 0702 4F000000 		.4byte	.LLST4
 1692 0706 00       		.byte	0
 1693 0707 26       		.uleb128 0x26
 1694 0708 4A000000 		.4byte	.LBB36
 1695 070c 08000000 		.4byte	.LBE36-.LBB36
 1696 0710 1C070000 		.4byte	0x71c
 1697 0714 24       		.uleb128 0x24
 1698 0715 18060000 		.4byte	0x618
 1699 0719 01       		.uleb128 0x1
 1700 071a 53       		.byte	0x53
 1701 071b 00       		.byte	0
 1702 071c 1D       		.uleb128 0x1d
 1703 071d 0E000000 		.4byte	.LVL7
 1704 0721 580B0000 		.4byte	0xb58
 1705 0725 27       		.uleb128 0x27
 1706 0726 46000000 		.4byte	.LVL10
 1707 072a 62060000 		.4byte	0x662
 1708 072e 39070000 		.4byte	0x739
 1709 0732 1F       		.uleb128 0x1f
 1710 0733 01       		.uleb128 0x1
 1711 0734 50       		.byte	0x50
 1712 0735 02       		.uleb128 0x2
 1713 0736 74       		.byte	0x74
 1714 0737 00       		.sleb128 0
 1715 0738 00       		.byte	0
 1716 0739 1D       		.uleb128 0x1d
 1717 073a 4A000000 		.4byte	.LVL11
 1718 073e 5F0B0000 		.4byte	0xb5f
 1719 0742 00       		.byte	0
 1720 0743 28       		.uleb128 0x28
 1721 0744 47040000 		.4byte	.LASF87
 1722 0748 01       		.byte	0x1
 1723 0749 73       		.byte	0x73
 1724 074a 00000000 		.4byte	.LFB9
 1725 074e 50000000 		.4byte	.LFE9-.LFB9
 1726 0752 01       		.uleb128 0x1
 1727 0753 9C       		.byte	0x9c
 1728 0754 F6070000 		.4byte	0x7f6
 1729 0758 29       		.uleb128 0x29
 1730 0759 D0020000 		.4byte	.LASF83
 1731 075d 01       		.byte	0x1
 1732 075e 73       		.byte	0x73
 1733 075f D5000000 		.4byte	0xd5
 1734 0763 62000000 		.4byte	.LLST5
 1735 0767 1C       		.uleb128 0x1c
 1736 0768 6F747000 		.ascii	"otp\000"
 1737 076c 01       		.byte	0x1
 1738 076d 74       		.byte	0x74
 1739 076e 62020000 		.4byte	0x262
 1740 0772 83000000 		.4byte	.LLST6
 1741 0776 2A       		.uleb128 0x2a
 1742 0777 25060000 		.4byte	0x625
 1743 077b 0A000000 		.4byte	.LBB37
 1744 077f 18000000 		.4byte	.Ldebug_ranges0+0x18
ARM GAS  /tmp/cc5JcN0I.s 			page 32


 1745 0783 01       		.byte	0x1
 1746 0784 7E       		.byte	0x7e
 1747 0785 A5070000 		.4byte	0x7a5
 1748 0789 2B       		.uleb128 0x2b
 1749 078a 35060000 		.4byte	0x635
 1750 078e 06       		.uleb128 0x6
 1751 078f 03       		.byte	0x3
 1752 0790 00000000 		.4byte	rlist
 1753 0794 9F       		.byte	0x9f
 1754 0795 2C       		.uleb128 0x2c
 1755 0796 18000000 		.4byte	.Ldebug_ranges0+0x18
 1756 079a 22       		.uleb128 0x22
 1757 079b 40060000 		.4byte	0x640
 1758 079f A1000000 		.4byte	.LLST7
 1759 07a3 00       		.byte	0
 1760 07a4 00       		.byte	0
 1761 07a5 23       		.uleb128 0x23
 1762 07a6 40000000 		.4byte	.Ldebug_ranges0+0x40
 1763 07aa DC070000 		.4byte	0x7dc
 1764 07ae 2D       		.uleb128 0x2d
 1765 07af 72313300 		.ascii	"r13\000"
 1766 07b3 01       		.byte	0x1
 1767 07b4 80       		.byte	0x80
 1768 07b5 12040000 		.4byte	0x412
 1769 07b9 01       		.uleb128 0x1
 1770 07ba 5D       		.byte	0x5d
 1771 07bb 27       		.uleb128 0x27
 1772 07bc 3C000000 		.4byte	.LVL17
 1773 07c0 470B0000 		.4byte	0xb47
 1774 07c4 D2070000 		.4byte	0x7d2
 1775 07c8 1F       		.uleb128 0x1f
 1776 07c9 01       		.uleb128 0x1
 1777 07ca 50       		.byte	0x50
 1778 07cb 05       		.uleb128 0x5
 1779 07cc 03       		.byte	0x3
 1780 07cd 14000000 		.4byte	.LC1
 1781 07d1 00       		.byte	0
 1782 07d2 2E       		.uleb128 0x2e
 1783 07d3 48000000 		.4byte	.LVL19
 1784 07d7 660B0000 		.4byte	0xb66
 1785 07db 00       		.byte	0
 1786 07dc 1D       		.uleb128 0x1d
 1787 07dd 0A000000 		.4byte	.LVL13
 1788 07e1 7D0B0000 		.4byte	0xb7d
 1789 07e5 1E       		.uleb128 0x1e
 1790 07e6 2C000000 		.4byte	.LVL16
 1791 07ea 840B0000 		.4byte	0xb84
 1792 07ee 1F       		.uleb128 0x1f
 1793 07ef 01       		.uleb128 0x1
 1794 07f0 50       		.byte	0x50
 1795 07f1 02       		.uleb128 0x2
 1796 07f2 75       		.byte	0x75
 1797 07f3 00       		.sleb128 0
 1798 07f4 00       		.byte	0
 1799 07f5 00       		.byte	0
 1800 07f6 1A       		.uleb128 0x1a
 1801 07f7 88050000 		.4byte	.LASF85
ARM GAS  /tmp/cc5JcN0I.s 			page 33


 1802 07fb 01       		.byte	0x1
 1803 07fc BD       		.byte	0xbd
 1804 07fd 01010000 		.4byte	0x101
 1805 0801 00000000 		.4byte	.LFB11
 1806 0805 50000000 		.4byte	.LFE11-.LFB11
 1807 0809 01       		.uleb128 0x1
 1808 080a 9C       		.byte	0x9c
 1809 080b A9080000 		.4byte	0x8a9
 1810 080f 29       		.uleb128 0x29
 1811 0810 D0020000 		.4byte	.LASF83
 1812 0814 01       		.byte	0x1
 1813 0815 BD       		.byte	0xbd
 1814 0816 D5000000 		.4byte	0xd5
 1815 081a B4000000 		.4byte	.LLST8
 1816 081e 29       		.uleb128 0x29
 1817 081f 10050000 		.4byte	.LASF86
 1818 0823 01       		.byte	0x1
 1819 0824 BD       		.byte	0xbd
 1820 0825 17010000 		.4byte	0x117
 1821 0829 D5000000 		.4byte	.LLST9
 1822 082d 26       		.uleb128 0x26
 1823 082e 10000000 		.4byte	.LBB47
 1824 0832 1E000000 		.4byte	.LBE47-.LBB47
 1825 0836 8F080000 		.4byte	0x88f
 1826 083a 2D       		.uleb128 0x2d
 1827 083b 767400   		.ascii	"vt\000"
 1828 083e 01       		.byte	0x1
 1829 083f C2       		.byte	0xc2
 1830 0840 3B040000 		.4byte	0x43b
 1831 0844 02       		.uleb128 0x2
 1832 0845 91       		.byte	0x91
 1833 0846 5C       		.sleb128 -36
 1834 0847 27       		.uleb128 0x27
 1835 0848 1E000000 		.4byte	.LVL22
 1836 084c 950B0000 		.4byte	0xb95
 1837 0850 6A080000 		.4byte	0x86a
 1838 0854 1F       		.uleb128 0x1f
 1839 0855 01       		.uleb128 0x1
 1840 0856 52       		.byte	0x52
 1841 0857 05       		.uleb128 0x5
 1842 0858 03       		.byte	0x3
 1843 0859 00000000 		.4byte	wakeup
 1844 085d 1F       		.uleb128 0x1f
 1845 085e 01       		.uleb128 0x1
 1846 085f 51       		.byte	0x51
 1847 0860 02       		.uleb128 0x2
 1848 0861 74       		.byte	0x74
 1849 0862 00       		.sleb128 0
 1850 0863 1F       		.uleb128 0x1f
 1851 0864 01       		.uleb128 0x1
 1852 0865 50       		.byte	0x50
 1853 0866 02       		.uleb128 0x2
 1854 0867 91       		.byte	0x91
 1855 0868 5C       		.sleb128 -36
 1856 0869 00       		.byte	0
 1857 086a 27       		.uleb128 0x27
 1858 086b 24000000 		.4byte	.LVL23
ARM GAS  /tmp/cc5JcN0I.s 			page 34


 1859 086f 43070000 		.4byte	0x743
 1860 0873 7E080000 		.4byte	0x87e
 1861 0877 1F       		.uleb128 0x1f
 1862 0878 01       		.uleb128 0x1
 1863 0879 50       		.byte	0x50
 1864 087a 02       		.uleb128 0x2
 1865 087b 76       		.byte	0x76
 1866 087c 00       		.sleb128 0
 1867 087d 00       		.byte	0
 1868 087e 1E       		.uleb128 0x1e
 1869 087f 2E000000 		.4byte	.LVL24
 1870 0883 B50B0000 		.4byte	0xbb5
 1871 0887 1F       		.uleb128 0x1f
 1872 0888 01       		.uleb128 0x1
 1873 0889 50       		.byte	0x50
 1874 088a 02       		.uleb128 0x2
 1875 088b 91       		.byte	0x91
 1876 088c 5C       		.sleb128 -36
 1877 088d 00       		.byte	0
 1878 088e 00       		.byte	0
 1879 088f 1D       		.uleb128 0x1d
 1880 0890 0C000000 		.4byte	.LVL21
 1881 0894 7D0B0000 		.4byte	0xb7d
 1882 0898 1E       		.uleb128 0x1e
 1883 0899 3E000000 		.4byte	.LVL26
 1884 089d 43070000 		.4byte	0x743
 1885 08a1 1F       		.uleb128 0x1f
 1886 08a2 01       		.uleb128 0x1
 1887 08a3 50       		.byte	0x50
 1888 08a4 02       		.uleb128 0x2
 1889 08a5 76       		.byte	0x76
 1890 08a6 00       		.sleb128 0
 1891 08a7 00       		.byte	0
 1892 08a8 00       		.byte	0
 1893 08a9 28       		.uleb128 0x28
 1894 08aa B5010000 		.4byte	.LASF88
 1895 08ae 01       		.byte	0x1
 1896 08af E1       		.byte	0xe1
 1897 08b0 00000000 		.4byte	.LFB12
 1898 08b4 64000000 		.4byte	.LFE12-.LFB12
 1899 08b8 01       		.uleb128 0x1
 1900 08b9 9C       		.byte	0x9c
 1901 08ba 7D090000 		.4byte	0x97d
 1902 08be 1B       		.uleb128 0x1b
 1903 08bf 6E747000 		.ascii	"ntp\000"
 1904 08c3 01       		.byte	0x1
 1905 08c4 E1       		.byte	0xe1
 1906 08c5 62020000 		.4byte	0x262
 1907 08c9 01010000 		.4byte	.LLST10
 1908 08cd 1B       		.uleb128 0x1b
 1909 08ce 6D736700 		.ascii	"msg\000"
 1910 08d2 01       		.byte	0x1
 1911 08d3 E1       		.byte	0xe1
 1912 08d4 01010000 		.4byte	0x101
 1913 08d8 80010000 		.4byte	.LLST11
 1914 08dc 23       		.uleb128 0x23
 1915 08dd 58000000 		.4byte	.Ldebug_ranges0+0x58
ARM GAS  /tmp/cc5JcN0I.s 			page 35


 1916 08e1 62090000 		.4byte	0x962
 1917 08e5 1C       		.uleb128 0x1c
 1918 08e6 6F747000 		.ascii	"otp\000"
 1919 08ea 01       		.byte	0x1
 1920 08eb ED       		.byte	0xed
 1921 08ec 62020000 		.4byte	0x262
 1922 08f0 D1010000 		.4byte	.LLST12
 1923 08f4 23       		.uleb128 0x23
 1924 08f5 80000000 		.4byte	.Ldebug_ranges0+0x80
 1925 08f9 48090000 		.4byte	0x948
 1926 08fd 2D       		.uleb128 0x2d
 1927 08fe 72313300 		.ascii	"r13\000"
 1928 0902 01       		.byte	0x1
 1929 0903 F0       		.byte	0xf0
 1930 0904 12040000 		.4byte	0x412
 1931 0908 01       		.uleb128 0x1
 1932 0909 5D       		.byte	0x5d
 1933 090a 2F       		.uleb128 0x2f
 1934 090b 40000000 		.4byte	.LVL34
 1935 090f 660B0000 		.4byte	0xb66
 1936 0913 1F090000 		.4byte	0x91f
 1937 0917 1F       		.uleb128 0x1f
 1938 0918 01       		.uleb128 0x1
 1939 0919 50       		.byte	0x50
 1940 091a 03       		.uleb128 0x3
 1941 091b F3       		.byte	0xf3
 1942 091c 01       		.uleb128 0x1
 1943 091d 50       		.byte	0x50
 1944 091e 00       		.byte	0
 1945 091f 27       		.uleb128 0x27
 1946 0920 50000000 		.4byte	.LVL37
 1947 0924 470B0000 		.4byte	0xb47
 1948 0928 36090000 		.4byte	0x936
 1949 092c 1F       		.uleb128 0x1f
 1950 092d 01       		.uleb128 0x1
 1951 092e 50       		.byte	0x50
 1952 092f 05       		.uleb128 0x5
 1953 0930 03       		.byte	0x3
 1954 0931 14000000 		.4byte	.LC1
 1955 0935 00       		.byte	0
 1956 0936 30       		.uleb128 0x30
 1957 0937 5C000000 		.4byte	.LVL39
 1958 093b 660B0000 		.4byte	0xb66
 1959 093f 1F       		.uleb128 0x1f
 1960 0940 01       		.uleb128 0x1
 1961 0941 50       		.byte	0x50
 1962 0942 03       		.uleb128 0x3
 1963 0943 F3       		.byte	0xf3
 1964 0944 01       		.uleb128 0x1
 1965 0945 50       		.byte	0x50
 1966 0946 00       		.byte	0
 1967 0947 00       		.byte	0
 1968 0948 1D       		.uleb128 0x1d
 1969 0949 1C000000 		.4byte	.LVL30
 1970 094d 62060000 		.4byte	0x662
 1971 0951 1E       		.uleb128 0x1e
 1972 0952 2A000000 		.4byte	.LVL32
ARM GAS  /tmp/cc5JcN0I.s 			page 36


 1973 0956 840B0000 		.4byte	0xb84
 1974 095a 1F       		.uleb128 0x1f
 1975 095b 01       		.uleb128 0x1
 1976 095c 50       		.byte	0x50
 1977 095d 02       		.uleb128 0x2
 1978 095e 76       		.byte	0x76
 1979 095f 00       		.sleb128 0
 1980 0960 00       		.byte	0
 1981 0961 00       		.byte	0
 1982 0962 1D       		.uleb128 0x1d
 1983 0963 0C000000 		.4byte	.LVL29
 1984 0967 7D0B0000 		.4byte	0xb7d
 1985 096b 30       		.uleb128 0x30
 1986 096c 4A000000 		.4byte	.LVL36
 1987 0970 62060000 		.4byte	0x662
 1988 0974 1F       		.uleb128 0x1f
 1989 0975 01       		.uleb128 0x1
 1990 0976 50       		.byte	0x50
 1991 0977 03       		.uleb128 0x3
 1992 0978 F3       		.byte	0xf3
 1993 0979 01       		.uleb128 0x1
 1994 097a 50       		.byte	0x50
 1995 097b 00       		.byte	0
 1996 097c 00       		.byte	0
 1997 097d 31       		.uleb128 0x31
 1998 097e 3C020000 		.4byte	.LASF89
 1999 0982 01       		.byte	0x1
 2000 0983 3001     		.2byte	0x130
 2001 0985 00000000 		.4byte	.LFB14
 2002 0989 4C000000 		.4byte	.LFE14-.LFB14
 2003 098d 01       		.uleb128 0x1
 2004 098e 9C       		.byte	0x9c
 2005 098f 300A0000 		.4byte	0xa30
 2006 0993 32       		.uleb128 0x32
 2007 0994 6F747000 		.ascii	"otp\000"
 2008 0998 01       		.byte	0x1
 2009 0999 3101     		.2byte	0x131
 2010 099b 62020000 		.4byte	0x262
 2011 099f 10020000 		.4byte	.LLST13
 2012 09a3 33       		.uleb128 0x33
 2013 09a4 25060000 		.4byte	0x625
 2014 09a8 04000000 		.4byte	.LBB56
 2015 09ac A8000000 		.4byte	.Ldebug_ranges0+0xa8
 2016 09b0 01       		.byte	0x1
 2017 09b1 3501     		.2byte	0x135
 2018 09b3 D3090000 		.4byte	0x9d3
 2019 09b7 2B       		.uleb128 0x2b
 2020 09b8 35060000 		.4byte	0x635
 2021 09bc 06       		.uleb128 0x6
 2022 09bd 03       		.byte	0x3
 2023 09be 00000000 		.4byte	rlist
 2024 09c2 9F       		.byte	0x9f
 2025 09c3 2C       		.uleb128 0x2c
 2026 09c4 A8000000 		.4byte	.Ldebug_ranges0+0xa8
 2027 09c8 22       		.uleb128 0x22
 2028 09c9 40060000 		.4byte	0x640
 2029 09cd 2E020000 		.4byte	.LLST14
ARM GAS  /tmp/cc5JcN0I.s 			page 37


 2030 09d1 00       		.byte	0
 2031 09d2 00       		.byte	0
 2032 09d3 23       		.uleb128 0x23
 2033 09d4 C8000000 		.4byte	.Ldebug_ranges0+0xc8
 2034 09d8 0B0A0000 		.4byte	0xa0b
 2035 09dc 34       		.uleb128 0x34
 2036 09dd 72313300 		.ascii	"r13\000"
 2037 09e1 01       		.byte	0x1
 2038 09e2 3B01     		.2byte	0x13b
 2039 09e4 12040000 		.4byte	0x412
 2040 09e8 01       		.uleb128 0x1
 2041 09e9 5D       		.byte	0x5d
 2042 09ea 27       		.uleb128 0x27
 2043 09eb 38000000 		.4byte	.LVL43
 2044 09ef 470B0000 		.4byte	0xb47
 2045 09f3 010A0000 		.4byte	0xa01
 2046 09f7 1F       		.uleb128 0x1f
 2047 09f8 01       		.uleb128 0x1
 2048 09f9 50       		.byte	0x50
 2049 09fa 05       		.uleb128 0x5
 2050 09fb 03       		.byte	0x3
 2051 09fc 14000000 		.4byte	.LC1
 2052 0a00 00       		.byte	0
 2053 0a01 2E       		.uleb128 0x2e
 2054 0a02 44000000 		.4byte	.LVL45
 2055 0a06 660B0000 		.4byte	0xb66
 2056 0a0a 00       		.byte	0
 2057 0a0b 27       		.uleb128 0x27
 2058 0a0c 22000000 		.4byte	.LVL41
 2059 0a10 62060000 		.4byte	0x662
 2060 0a14 1F0A0000 		.4byte	0xa1f
 2061 0a18 1F       		.uleb128 0x1f
 2062 0a19 01       		.uleb128 0x1
 2063 0a1a 50       		.byte	0x50
 2064 0a1b 02       		.uleb128 0x2
 2065 0a1c 75       		.byte	0x75
 2066 0a1d 00       		.sleb128 0
 2067 0a1e 00       		.byte	0
 2068 0a1f 1E       		.uleb128 0x1e
 2069 0a20 28000000 		.4byte	.LVL42
 2070 0a24 840B0000 		.4byte	0xb84
 2071 0a28 1F       		.uleb128 0x1f
 2072 0a29 01       		.uleb128 0x1
 2073 0a2a 50       		.byte	0x50
 2074 0a2b 02       		.uleb128 0x2
 2075 0a2c 75       		.byte	0x75
 2076 0a2d 00       		.sleb128 0
 2077 0a2e 00       		.byte	0
 2078 0a2f 00       		.byte	0
 2079 0a30 31       		.uleb128 0x31
 2080 0a31 21000000 		.4byte	.LASF90
 2081 0a35 01       		.byte	0x1
 2082 0a36 4901     		.2byte	0x149
 2083 0a38 00000000 		.4byte	.LFB15
 2084 0a3c 60000000 		.4byte	.LFE15-.LFB15
 2085 0a40 01       		.uleb128 0x1
 2086 0a41 9C       		.byte	0x9c
ARM GAS  /tmp/cc5JcN0I.s 			page 38


 2087 0a42 DE0A0000 		.4byte	0xade
 2088 0a46 32       		.uleb128 0x32
 2089 0a47 6F747000 		.ascii	"otp\000"
 2090 0a4b 01       		.byte	0x1
 2091 0a4c 4A01     		.2byte	0x14a
 2092 0a4e 62020000 		.4byte	0x262
 2093 0a52 41020000 		.4byte	.LLST15
 2094 0a56 32       		.uleb128 0x32
 2095 0a57 637000   		.ascii	"cp\000"
 2096 0a5a 01       		.byte	0x1
 2097 0a5b 4A01     		.2byte	0x14a
 2098 0a5d 62020000 		.4byte	0x262
 2099 0a61 5F020000 		.4byte	.LLST16
 2100 0a65 33       		.uleb128 0x33
 2101 0a66 25060000 		.4byte	0x625
 2102 0a6a 04000000 		.4byte	.LBB64
 2103 0a6e E0000000 		.4byte	.Ldebug_ranges0+0xe0
 2104 0a72 01       		.byte	0x1
 2105 0a73 4E01     		.2byte	0x14e
 2106 0a75 950A0000 		.4byte	0xa95
 2107 0a79 2B       		.uleb128 0x2b
 2108 0a7a 35060000 		.4byte	0x635
 2109 0a7e 06       		.uleb128 0x6
 2110 0a7f 03       		.byte	0x3
 2111 0a80 00000000 		.4byte	rlist
 2112 0a84 9F       		.byte	0x9f
 2113 0a85 2C       		.uleb128 0x2c
 2114 0a86 E0000000 		.4byte	.Ldebug_ranges0+0xe0
 2115 0a8a 22       		.uleb128 0x22
 2116 0a8b 40060000 		.4byte	0x640
 2117 0a8f 82020000 		.4byte	.LLST17
 2118 0a93 00       		.byte	0
 2119 0a94 00       		.byte	0
 2120 0a95 23       		.uleb128 0x23
 2121 0a96 00010000 		.4byte	.Ldebug_ranges0+0x100
 2122 0a9a CD0A0000 		.4byte	0xacd
 2123 0a9e 34       		.uleb128 0x34
 2124 0a9f 72313300 		.ascii	"r13\000"
 2125 0aa3 01       		.byte	0x1
 2126 0aa4 5B01     		.2byte	0x15b
 2127 0aa6 12040000 		.4byte	0x412
 2128 0aaa 01       		.uleb128 0x1
 2129 0aab 5D       		.byte	0x5d
 2130 0aac 27       		.uleb128 0x27
 2131 0aad 4A000000 		.4byte	.LVL51
 2132 0ab1 470B0000 		.4byte	0xb47
 2133 0ab5 C30A0000 		.4byte	0xac3
 2134 0ab9 1F       		.uleb128 0x1f
 2135 0aba 01       		.uleb128 0x1
 2136 0abb 50       		.byte	0x50
 2137 0abc 05       		.uleb128 0x5
 2138 0abd 03       		.byte	0x3
 2139 0abe 14000000 		.4byte	.LC1
 2140 0ac2 00       		.byte	0
 2141 0ac3 2E       		.uleb128 0x2e
 2142 0ac4 56000000 		.4byte	.LVL53
 2143 0ac8 660B0000 		.4byte	0xb66
ARM GAS  /tmp/cc5JcN0I.s 			page 39


 2144 0acc 00       		.byte	0
 2145 0acd 1E       		.uleb128 0x1e
 2146 0ace 3A000000 		.4byte	.LVL50
 2147 0ad2 840B0000 		.4byte	0xb84
 2148 0ad6 1F       		.uleb128 0x1f
 2149 0ad7 01       		.uleb128 0x1
 2150 0ad8 50       		.byte	0x50
 2151 0ad9 02       		.uleb128 0x2
 2152 0ada 75       		.byte	0x75
 2153 0adb 00       		.sleb128 0
 2154 0adc 00       		.byte	0
 2155 0add 00       		.byte	0
 2156 0ade 28       		.uleb128 0x28
 2157 0adf E9000000 		.4byte	.LASF91
 2158 0ae3 01       		.byte	0x1
 2159 0ae4 FD       		.byte	0xfd
 2160 0ae5 00000000 		.4byte	.LFB13
 2161 0ae9 24000000 		.4byte	.LFE13-.LFB13
 2162 0aed 01       		.uleb128 0x1
 2163 0aee 9C       		.byte	0x9c
 2164 0aef 060B0000 		.4byte	0xb06
 2165 0af3 1D       		.uleb128 0x1d
 2166 0af4 06000000 		.4byte	.LVL54
 2167 0af8 7D0B0000 		.4byte	0xb7d
 2168 0afc 2E       		.uleb128 0x2e
 2169 0afd 1E000000 		.4byte	.LVL55
 2170 0b01 300A0000 		.4byte	0xa30
 2171 0b05 00       		.byte	0
 2172 0b06 31       		.uleb128 0x31
 2173 0b07 16010000 		.4byte	.LASF92
 2174 0b0b 01       		.byte	0x1
 2175 0b0c 6A01     		.2byte	0x16a
 2176 0b0e 00000000 		.4byte	.LFB16
 2177 0b12 18000000 		.4byte	.LFE16-.LFB16
 2178 0b16 01       		.uleb128 0x1
 2179 0b17 9C       		.byte	0x9c
 2180 0b18 2F0B0000 		.4byte	0xb2f
 2181 0b1c 2E       		.uleb128 0x2e
 2182 0b1d 0E000000 		.4byte	.LVL56
 2183 0b21 300A0000 		.4byte	0xa30
 2184 0b25 2E       		.uleb128 0x2e
 2185 0b26 12000000 		.4byte	.LVL57
 2186 0b2a 7D090000 		.4byte	0x97d
 2187 0b2e 00       		.byte	0
 2188 0b2f 35       		.uleb128 0x35
 2189 0b30 54050000 		.4byte	.LASF106
 2190 0b34 01       		.byte	0x1
 2191 0b35 2F       		.byte	0x2f
 2192 0b36 EB040000 		.4byte	0x4eb
 2193 0b3a 05       		.uleb128 0x5
 2194 0b3b 03       		.byte	0x3
 2195 0b3c 00000000 		.4byte	rlist
 2196 0b40 36       		.uleb128 0x36
 2197 0b41 D0010000 		.4byte	.LASF93
 2198 0b45 0D       		.byte	0xd
 2199 0b46 ED       		.byte	0xed
 2200 0b47 37       		.uleb128 0x37
ARM GAS  /tmp/cc5JcN0I.s 			page 40


 2201 0b48 06000000 		.4byte	.LASF96
 2202 0b4c 0D       		.byte	0xd
 2203 0b4d F6       		.byte	0xf6
 2204 0b4e 580B0000 		.4byte	0xb58
 2205 0b52 0E       		.uleb128 0xe
 2206 0b53 9D050000 		.4byte	0x59d
 2207 0b57 00       		.byte	0
 2208 0b58 36       		.uleb128 0x36
 2209 0b59 62050000 		.4byte	.LASF94
 2210 0b5d 0D       		.byte	0xd
 2211 0b5e E9       		.byte	0xe9
 2212 0b5f 36       		.uleb128 0x36
 2213 0b60 8A000000 		.4byte	.LASF95
 2214 0b64 0D       		.byte	0xd
 2215 0b65 EA       		.byte	0xea
 2216 0b66 38       		.uleb128 0x38
 2217 0b67 5F010000 		.4byte	.LASF97
 2218 0b6b 08       		.byte	0x8
 2219 0b6c 0602     		.2byte	0x206
 2220 0b6e 7D0B0000 		.4byte	0xb7d
 2221 0b72 0E       		.uleb128 0xe
 2222 0b73 62020000 		.4byte	0x262
 2223 0b77 0E       		.uleb128 0xe
 2224 0b78 62020000 		.4byte	0x262
 2225 0b7c 00       		.byte	0
 2226 0b7d 36       		.uleb128 0x36
 2227 0b7e E9010000 		.4byte	.LASF98
 2228 0b82 0D       		.byte	0xd
 2229 0b83 EE       		.byte	0xee
 2230 0b84 37       		.uleb128 0x37
 2231 0b85 55010000 		.4byte	.LASF99
 2232 0b89 0D       		.byte	0xd
 2233 0b8a F2       		.byte	0xf2
 2234 0b8b 950B0000 		.4byte	0xb95
 2235 0b8f 0E       		.uleb128 0xe
 2236 0b90 62020000 		.4byte	0x262
 2237 0b94 00       		.byte	0
 2238 0b95 37       		.uleb128 0x37
 2239 0b96 54020000 		.4byte	.LASF100
 2240 0b9a 09       		.byte	0x9
 2241 0b9b FE       		.byte	0xfe
 2242 0b9c B50B0000 		.4byte	0xbb5
 2243 0ba0 0E       		.uleb128 0xe
 2244 0ba1 8F040000 		.4byte	0x48f
 2245 0ba5 0E       		.uleb128 0xe
 2246 0ba6 17010000 		.4byte	0x117
 2247 0baa 0E       		.uleb128 0xe
 2248 0bab 1F040000 		.4byte	0x41f
 2249 0baf 0E       		.uleb128 0xe
 2250 0bb0 9E020000 		.4byte	0x29e
 2251 0bb4 00       		.byte	0
 2252 0bb5 39       		.uleb128 0x39
 2253 0bb6 3C040000 		.4byte	.LASF107
 2254 0bba 09       		.byte	0x9
 2255 0bbb FF       		.byte	0xff
 2256 0bbc 0E       		.uleb128 0xe
 2257 0bbd 8F040000 		.4byte	0x48f
ARM GAS  /tmp/cc5JcN0I.s 			page 41


 2258 0bc1 00       		.byte	0
 2259 0bc2 00       		.byte	0
 2260              		.section	.debug_abbrev,"",%progbits
 2261              	.Ldebug_abbrev0:
 2262 0000 01       		.uleb128 0x1
 2263 0001 11       		.uleb128 0x11
 2264 0002 01       		.byte	0x1
 2265 0003 25       		.uleb128 0x25
 2266 0004 0E       		.uleb128 0xe
 2267 0005 13       		.uleb128 0x13
 2268 0006 0B       		.uleb128 0xb
 2269 0007 03       		.uleb128 0x3
 2270 0008 0E       		.uleb128 0xe
 2271 0009 1B       		.uleb128 0x1b
 2272 000a 0E       		.uleb128 0xe
 2273 000b 55       		.uleb128 0x55
 2274 000c 17       		.uleb128 0x17
 2275 000d 11       		.uleb128 0x11
 2276 000e 01       		.uleb128 0x1
 2277 000f 10       		.uleb128 0x10
 2278 0010 17       		.uleb128 0x17
 2279 0011 00       		.byte	0
 2280 0012 00       		.byte	0
 2281 0013 02       		.uleb128 0x2
 2282 0014 24       		.uleb128 0x24
 2283 0015 00       		.byte	0
 2284 0016 0B       		.uleb128 0xb
 2285 0017 0B       		.uleb128 0xb
 2286 0018 3E       		.uleb128 0x3e
 2287 0019 0B       		.uleb128 0xb
 2288 001a 03       		.uleb128 0x3
 2289 001b 08       		.uleb128 0x8
 2290 001c 00       		.byte	0
 2291 001d 00       		.byte	0
 2292 001e 03       		.uleb128 0x3
 2293 001f 24       		.uleb128 0x24
 2294 0020 00       		.byte	0
 2295 0021 0B       		.uleb128 0xb
 2296 0022 0B       		.uleb128 0xb
 2297 0023 3E       		.uleb128 0x3e
 2298 0024 0B       		.uleb128 0xb
 2299 0025 03       		.uleb128 0x3
 2300 0026 0E       		.uleb128 0xe
 2301 0027 00       		.byte	0
 2302 0028 00       		.byte	0
 2303 0029 04       		.uleb128 0x4
 2304 002a 16       		.uleb128 0x16
 2305 002b 00       		.byte	0
 2306 002c 03       		.uleb128 0x3
 2307 002d 0E       		.uleb128 0xe
 2308 002e 3A       		.uleb128 0x3a
 2309 002f 0B       		.uleb128 0xb
 2310 0030 3B       		.uleb128 0x3b
 2311 0031 0B       		.uleb128 0xb
 2312 0032 49       		.uleb128 0x49
 2313 0033 13       		.uleb128 0x13
 2314 0034 00       		.byte	0
ARM GAS  /tmp/cc5JcN0I.s 			page 42


 2315 0035 00       		.byte	0
 2316 0036 05       		.uleb128 0x5
 2317 0037 13       		.uleb128 0x13
 2318 0038 01       		.byte	0x1
 2319 0039 03       		.uleb128 0x3
 2320 003a 0E       		.uleb128 0xe
 2321 003b 0B       		.uleb128 0xb
 2322 003c 0B       		.uleb128 0xb
 2323 003d 3A       		.uleb128 0x3a
 2324 003e 0B       		.uleb128 0xb
 2325 003f 3B       		.uleb128 0x3b
 2326 0040 0B       		.uleb128 0xb
 2327 0041 01       		.uleb128 0x1
 2328 0042 13       		.uleb128 0x13
 2329 0043 00       		.byte	0
 2330 0044 00       		.byte	0
 2331 0045 06       		.uleb128 0x6
 2332 0046 0D       		.uleb128 0xd
 2333 0047 00       		.byte	0
 2334 0048 03       		.uleb128 0x3
 2335 0049 0E       		.uleb128 0xe
 2336 004a 3A       		.uleb128 0x3a
 2337 004b 0B       		.uleb128 0xb
 2338 004c 3B       		.uleb128 0x3b
 2339 004d 0B       		.uleb128 0xb
 2340 004e 49       		.uleb128 0x49
 2341 004f 13       		.uleb128 0x13
 2342 0050 38       		.uleb128 0x38
 2343 0051 0B       		.uleb128 0xb
 2344 0052 00       		.byte	0
 2345 0053 00       		.byte	0
 2346 0054 07       		.uleb128 0x7
 2347 0055 0D       		.uleb128 0xd
 2348 0056 00       		.byte	0
 2349 0057 03       		.uleb128 0x3
 2350 0058 08       		.uleb128 0x8
 2351 0059 3A       		.uleb128 0x3a
 2352 005a 0B       		.uleb128 0xb
 2353 005b 3B       		.uleb128 0x3b
 2354 005c 0B       		.uleb128 0xb
 2355 005d 49       		.uleb128 0x49
 2356 005e 13       		.uleb128 0x13
 2357 005f 38       		.uleb128 0x38
 2358 0060 0B       		.uleb128 0xb
 2359 0061 00       		.byte	0
 2360 0062 00       		.byte	0
 2361 0063 08       		.uleb128 0x8
 2362 0064 13       		.uleb128 0x13
 2363 0065 01       		.byte	0x1
 2364 0066 0B       		.uleb128 0xb
 2365 0067 0B       		.uleb128 0xb
 2366 0068 3A       		.uleb128 0x3a
 2367 0069 0B       		.uleb128 0xb
 2368 006a 3B       		.uleb128 0x3b
 2369 006b 0B       		.uleb128 0xb
 2370 006c 01       		.uleb128 0x1
 2371 006d 13       		.uleb128 0x13
ARM GAS  /tmp/cc5JcN0I.s 			page 43


 2372 006e 00       		.byte	0
 2373 006f 00       		.byte	0
 2374 0070 09       		.uleb128 0x9
 2375 0071 0F       		.uleb128 0xf
 2376 0072 00       		.byte	0
 2377 0073 0B       		.uleb128 0xb
 2378 0074 0B       		.uleb128 0xb
 2379 0075 49       		.uleb128 0x49
 2380 0076 13       		.uleb128 0x13
 2381 0077 00       		.byte	0
 2382 0078 00       		.byte	0
 2383 0079 0A       		.uleb128 0xa
 2384 007a 0F       		.uleb128 0xf
 2385 007b 00       		.byte	0
 2386 007c 0B       		.uleb128 0xb
 2387 007d 0B       		.uleb128 0xb
 2388 007e 00       		.byte	0
 2389 007f 00       		.byte	0
 2390 0080 0B       		.uleb128 0xb
 2391 0081 13       		.uleb128 0x13
 2392 0082 01       		.byte	0x1
 2393 0083 03       		.uleb128 0x3
 2394 0084 0E       		.uleb128 0xe
 2395 0085 0B       		.uleb128 0xb
 2396 0086 0B       		.uleb128 0xb
 2397 0087 3A       		.uleb128 0x3a
 2398 0088 0B       		.uleb128 0xb
 2399 0089 3B       		.uleb128 0x3b
 2400 008a 05       		.uleb128 0x5
 2401 008b 01       		.uleb128 0x1
 2402 008c 13       		.uleb128 0x13
 2403 008d 00       		.byte	0
 2404 008e 00       		.byte	0
 2405 008f 0C       		.uleb128 0xc
 2406 0090 0D       		.uleb128 0xd
 2407 0091 00       		.byte	0
 2408 0092 03       		.uleb128 0x3
 2409 0093 08       		.uleb128 0x8
 2410 0094 3A       		.uleb128 0x3a
 2411 0095 0B       		.uleb128 0xb
 2412 0096 3B       		.uleb128 0x3b
 2413 0097 05       		.uleb128 0x5
 2414 0098 49       		.uleb128 0x49
 2415 0099 13       		.uleb128 0x13
 2416 009a 38       		.uleb128 0x38
 2417 009b 0B       		.uleb128 0xb
 2418 009c 00       		.byte	0
 2419 009d 00       		.byte	0
 2420 009e 0D       		.uleb128 0xd
 2421 009f 15       		.uleb128 0x15
 2422 00a0 01       		.byte	0x1
 2423 00a1 27       		.uleb128 0x27
 2424 00a2 19       		.uleb128 0x19
 2425 00a3 01       		.uleb128 0x1
 2426 00a4 13       		.uleb128 0x13
 2427 00a5 00       		.byte	0
 2428 00a6 00       		.byte	0
ARM GAS  /tmp/cc5JcN0I.s 			page 44


 2429 00a7 0E       		.uleb128 0xe
 2430 00a8 05       		.uleb128 0x5
 2431 00a9 00       		.byte	0
 2432 00aa 49       		.uleb128 0x49
 2433 00ab 13       		.uleb128 0x13
 2434 00ac 00       		.byte	0
 2435 00ad 00       		.byte	0
 2436 00ae 0F       		.uleb128 0xf
 2437 00af 35       		.uleb128 0x35
 2438 00b0 00       		.byte	0
 2439 00b1 49       		.uleb128 0x49
 2440 00b2 13       		.uleb128 0x13
 2441 00b3 00       		.byte	0
 2442 00b4 00       		.byte	0
 2443 00b5 10       		.uleb128 0x10
 2444 00b6 17       		.uleb128 0x17
 2445 00b7 01       		.byte	0x1
 2446 00b8 0B       		.uleb128 0xb
 2447 00b9 0B       		.uleb128 0xb
 2448 00ba 3A       		.uleb128 0x3a
 2449 00bb 0B       		.uleb128 0xb
 2450 00bc 3B       		.uleb128 0x3b
 2451 00bd 0B       		.uleb128 0xb
 2452 00be 01       		.uleb128 0x1
 2453 00bf 13       		.uleb128 0x13
 2454 00c0 00       		.byte	0
 2455 00c1 00       		.byte	0
 2456 00c2 11       		.uleb128 0x11
 2457 00c3 0D       		.uleb128 0xd
 2458 00c4 00       		.byte	0
 2459 00c5 03       		.uleb128 0x3
 2460 00c6 0E       		.uleb128 0xe
 2461 00c7 3A       		.uleb128 0x3a
 2462 00c8 0B       		.uleb128 0xb
 2463 00c9 3B       		.uleb128 0x3b
 2464 00ca 0B       		.uleb128 0xb
 2465 00cb 49       		.uleb128 0x49
 2466 00cc 13       		.uleb128 0x13
 2467 00cd 00       		.byte	0
 2468 00ce 00       		.byte	0
 2469 00cf 12       		.uleb128 0x12
 2470 00d0 26       		.uleb128 0x26
 2471 00d1 00       		.byte	0
 2472 00d2 49       		.uleb128 0x49
 2473 00d3 13       		.uleb128 0x13
 2474 00d4 00       		.byte	0
 2475 00d5 00       		.byte	0
 2476 00d6 13       		.uleb128 0x13
 2477 00d7 2E       		.uleb128 0x2e
 2478 00d8 01       		.byte	0x1
 2479 00d9 03       		.uleb128 0x3
 2480 00da 0E       		.uleb128 0xe
 2481 00db 3A       		.uleb128 0x3a
 2482 00dc 0B       		.uleb128 0xb
 2483 00dd 3B       		.uleb128 0x3b
 2484 00de 0B       		.uleb128 0xb
 2485 00df 27       		.uleb128 0x27
ARM GAS  /tmp/cc5JcN0I.s 			page 45


 2486 00e0 19       		.uleb128 0x19
 2487 00e1 49       		.uleb128 0x49
 2488 00e2 13       		.uleb128 0x13
 2489 00e3 20       		.uleb128 0x20
 2490 00e4 0B       		.uleb128 0xb
 2491 00e5 01       		.uleb128 0x1
 2492 00e6 13       		.uleb128 0x13
 2493 00e7 00       		.byte	0
 2494 00e8 00       		.byte	0
 2495 00e9 14       		.uleb128 0x14
 2496 00ea 05       		.uleb128 0x5
 2497 00eb 00       		.byte	0
 2498 00ec 03       		.uleb128 0x3
 2499 00ed 08       		.uleb128 0x8
 2500 00ee 3A       		.uleb128 0x3a
 2501 00ef 0B       		.uleb128 0xb
 2502 00f0 3B       		.uleb128 0x3b
 2503 00f1 0B       		.uleb128 0xb
 2504 00f2 49       		.uleb128 0x49
 2505 00f3 13       		.uleb128 0x13
 2506 00f4 00       		.byte	0
 2507 00f5 00       		.byte	0
 2508 00f6 15       		.uleb128 0x15
 2509 00f7 2E       		.uleb128 0x2e
 2510 00f8 01       		.byte	0x1
 2511 00f9 03       		.uleb128 0x3
 2512 00fa 0E       		.uleb128 0xe
 2513 00fb 3A       		.uleb128 0x3a
 2514 00fc 0B       		.uleb128 0xb
 2515 00fd 3B       		.uleb128 0x3b
 2516 00fe 0B       		.uleb128 0xb
 2517 00ff 27       		.uleb128 0x27
 2518 0100 19       		.uleb128 0x19
 2519 0101 20       		.uleb128 0x20
 2520 0102 0B       		.uleb128 0xb
 2521 0103 01       		.uleb128 0x1
 2522 0104 13       		.uleb128 0x13
 2523 0105 00       		.byte	0
 2524 0106 00       		.byte	0
 2525 0107 16       		.uleb128 0x16
 2526 0108 34       		.uleb128 0x34
 2527 0109 00       		.byte	0
 2528 010a 03       		.uleb128 0x3
 2529 010b 08       		.uleb128 0x8
 2530 010c 3A       		.uleb128 0x3a
 2531 010d 0B       		.uleb128 0xb
 2532 010e 3B       		.uleb128 0x3b
 2533 010f 0B       		.uleb128 0xb
 2534 0110 49       		.uleb128 0x49
 2535 0111 13       		.uleb128 0x13
 2536 0112 00       		.byte	0
 2537 0113 00       		.byte	0
 2538 0114 17       		.uleb128 0x17
 2539 0115 0B       		.uleb128 0xb
 2540 0116 01       		.byte	0x1
 2541 0117 01       		.uleb128 0x1
 2542 0118 13       		.uleb128 0x13
ARM GAS  /tmp/cc5JcN0I.s 			page 46


 2543 0119 00       		.byte	0
 2544 011a 00       		.byte	0
 2545 011b 18       		.uleb128 0x18
 2546 011c 0B       		.uleb128 0xb
 2547 011d 01       		.byte	0x1
 2548 011e 00       		.byte	0
 2549 011f 00       		.byte	0
 2550 0120 19       		.uleb128 0x19
 2551 0121 2E       		.uleb128 0x2e
 2552 0122 00       		.byte	0
 2553 0123 3F       		.uleb128 0x3f
 2554 0124 19       		.uleb128 0x19
 2555 0125 03       		.uleb128 0x3
 2556 0126 0E       		.uleb128 0xe
 2557 0127 3A       		.uleb128 0x3a
 2558 0128 0B       		.uleb128 0xb
 2559 0129 3B       		.uleb128 0x3b
 2560 012a 0B       		.uleb128 0xb
 2561 012b 27       		.uleb128 0x27
 2562 012c 19       		.uleb128 0x19
 2563 012d 11       		.uleb128 0x11
 2564 012e 01       		.uleb128 0x1
 2565 012f 12       		.uleb128 0x12
 2566 0130 06       		.uleb128 0x6
 2567 0131 40       		.uleb128 0x40
 2568 0132 18       		.uleb128 0x18
 2569 0133 9742     		.uleb128 0x2117
 2570 0135 19       		.uleb128 0x19
 2571 0136 00       		.byte	0
 2572 0137 00       		.byte	0
 2573 0138 1A       		.uleb128 0x1a
 2574 0139 2E       		.uleb128 0x2e
 2575 013a 01       		.byte	0x1
 2576 013b 3F       		.uleb128 0x3f
 2577 013c 19       		.uleb128 0x19
 2578 013d 03       		.uleb128 0x3
 2579 013e 0E       		.uleb128 0xe
 2580 013f 3A       		.uleb128 0x3a
 2581 0140 0B       		.uleb128 0xb
 2582 0141 3B       		.uleb128 0x3b
 2583 0142 0B       		.uleb128 0xb
 2584 0143 27       		.uleb128 0x27
 2585 0144 19       		.uleb128 0x19
 2586 0145 49       		.uleb128 0x49
 2587 0146 13       		.uleb128 0x13
 2588 0147 11       		.uleb128 0x11
 2589 0148 01       		.uleb128 0x1
 2590 0149 12       		.uleb128 0x12
 2591 014a 06       		.uleb128 0x6
 2592 014b 40       		.uleb128 0x40
 2593 014c 18       		.uleb128 0x18
 2594 014d 9742     		.uleb128 0x2117
 2595 014f 19       		.uleb128 0x19
 2596 0150 01       		.uleb128 0x1
 2597 0151 13       		.uleb128 0x13
 2598 0152 00       		.byte	0
 2599 0153 00       		.byte	0
ARM GAS  /tmp/cc5JcN0I.s 			page 47


 2600 0154 1B       		.uleb128 0x1b
 2601 0155 05       		.uleb128 0x5
 2602 0156 00       		.byte	0
 2603 0157 03       		.uleb128 0x3
 2604 0158 08       		.uleb128 0x8
 2605 0159 3A       		.uleb128 0x3a
 2606 015a 0B       		.uleb128 0xb
 2607 015b 3B       		.uleb128 0x3b
 2608 015c 0B       		.uleb128 0xb
 2609 015d 49       		.uleb128 0x49
 2610 015e 13       		.uleb128 0x13
 2611 015f 02       		.uleb128 0x2
 2612 0160 17       		.uleb128 0x17
 2613 0161 00       		.byte	0
 2614 0162 00       		.byte	0
 2615 0163 1C       		.uleb128 0x1c
 2616 0164 34       		.uleb128 0x34
 2617 0165 00       		.byte	0
 2618 0166 03       		.uleb128 0x3
 2619 0167 08       		.uleb128 0x8
 2620 0168 3A       		.uleb128 0x3a
 2621 0169 0B       		.uleb128 0xb
 2622 016a 3B       		.uleb128 0x3b
 2623 016b 0B       		.uleb128 0xb
 2624 016c 49       		.uleb128 0x49
 2625 016d 13       		.uleb128 0x13
 2626 016e 02       		.uleb128 0x2
 2627 016f 17       		.uleb128 0x17
 2628 0170 00       		.byte	0
 2629 0171 00       		.byte	0
 2630 0172 1D       		.uleb128 0x1d
 2631 0173 898201   		.uleb128 0x4109
 2632 0176 00       		.byte	0
 2633 0177 11       		.uleb128 0x11
 2634 0178 01       		.uleb128 0x1
 2635 0179 31       		.uleb128 0x31
 2636 017a 13       		.uleb128 0x13
 2637 017b 00       		.byte	0
 2638 017c 00       		.byte	0
 2639 017d 1E       		.uleb128 0x1e
 2640 017e 898201   		.uleb128 0x4109
 2641 0181 01       		.byte	0x1
 2642 0182 11       		.uleb128 0x11
 2643 0183 01       		.uleb128 0x1
 2644 0184 31       		.uleb128 0x31
 2645 0185 13       		.uleb128 0x13
 2646 0186 00       		.byte	0
 2647 0187 00       		.byte	0
 2648 0188 1F       		.uleb128 0x1f
 2649 0189 8A8201   		.uleb128 0x410a
 2650 018c 00       		.byte	0
 2651 018d 02       		.uleb128 0x2
 2652 018e 18       		.uleb128 0x18
 2653 018f 9142     		.uleb128 0x2111
 2654 0191 18       		.uleb128 0x18
 2655 0192 00       		.byte	0
 2656 0193 00       		.byte	0
ARM GAS  /tmp/cc5JcN0I.s 			page 48


 2657 0194 20       		.uleb128 0x20
 2658 0195 2E       		.uleb128 0x2e
 2659 0196 01       		.byte	0x1
 2660 0197 31       		.uleb128 0x31
 2661 0198 13       		.uleb128 0x13
 2662 0199 11       		.uleb128 0x11
 2663 019a 01       		.uleb128 0x1
 2664 019b 12       		.uleb128 0x12
 2665 019c 06       		.uleb128 0x6
 2666 019d 40       		.uleb128 0x40
 2667 019e 18       		.uleb128 0x18
 2668 019f 9742     		.uleb128 0x2117
 2669 01a1 19       		.uleb128 0x19
 2670 01a2 01       		.uleb128 0x1
 2671 01a3 13       		.uleb128 0x13
 2672 01a4 00       		.byte	0
 2673 01a5 00       		.byte	0
 2674 01a6 21       		.uleb128 0x21
 2675 01a7 05       		.uleb128 0x5
 2676 01a8 00       		.byte	0
 2677 01a9 31       		.uleb128 0x31
 2678 01aa 13       		.uleb128 0x13
 2679 01ab 02       		.uleb128 0x2
 2680 01ac 17       		.uleb128 0x17
 2681 01ad 00       		.byte	0
 2682 01ae 00       		.byte	0
 2683 01af 22       		.uleb128 0x22
 2684 01b0 34       		.uleb128 0x34
 2685 01b1 00       		.byte	0
 2686 01b2 31       		.uleb128 0x31
 2687 01b3 13       		.uleb128 0x13
 2688 01b4 02       		.uleb128 0x2
 2689 01b5 17       		.uleb128 0x17
 2690 01b6 00       		.byte	0
 2691 01b7 00       		.byte	0
 2692 01b8 23       		.uleb128 0x23
 2693 01b9 0B       		.uleb128 0xb
 2694 01ba 01       		.byte	0x1
 2695 01bb 55       		.uleb128 0x55
 2696 01bc 17       		.uleb128 0x17
 2697 01bd 01       		.uleb128 0x1
 2698 01be 13       		.uleb128 0x13
 2699 01bf 00       		.byte	0
 2700 01c0 00       		.byte	0
 2701 01c1 24       		.uleb128 0x24
 2702 01c2 34       		.uleb128 0x34
 2703 01c3 00       		.byte	0
 2704 01c4 31       		.uleb128 0x31
 2705 01c5 13       		.uleb128 0x13
 2706 01c6 02       		.uleb128 0x2
 2707 01c7 18       		.uleb128 0x18
 2708 01c8 00       		.byte	0
 2709 01c9 00       		.byte	0
 2710 01ca 25       		.uleb128 0x25
 2711 01cb 1D       		.uleb128 0x1d
 2712 01cc 01       		.byte	0x1
 2713 01cd 31       		.uleb128 0x31
ARM GAS  /tmp/cc5JcN0I.s 			page 49


 2714 01ce 13       		.uleb128 0x13
 2715 01cf 11       		.uleb128 0x11
 2716 01d0 01       		.uleb128 0x1
 2717 01d1 12       		.uleb128 0x12
 2718 01d2 06       		.uleb128 0x6
 2719 01d3 58       		.uleb128 0x58
 2720 01d4 0B       		.uleb128 0xb
 2721 01d5 59       		.uleb128 0x59
 2722 01d6 0B       		.uleb128 0xb
 2723 01d7 01       		.uleb128 0x1
 2724 01d8 13       		.uleb128 0x13
 2725 01d9 00       		.byte	0
 2726 01da 00       		.byte	0
 2727 01db 26       		.uleb128 0x26
 2728 01dc 0B       		.uleb128 0xb
 2729 01dd 01       		.byte	0x1
 2730 01de 11       		.uleb128 0x11
 2731 01df 01       		.uleb128 0x1
 2732 01e0 12       		.uleb128 0x12
 2733 01e1 06       		.uleb128 0x6
 2734 01e2 01       		.uleb128 0x1
 2735 01e3 13       		.uleb128 0x13
 2736 01e4 00       		.byte	0
 2737 01e5 00       		.byte	0
 2738 01e6 27       		.uleb128 0x27
 2739 01e7 898201   		.uleb128 0x4109
 2740 01ea 01       		.byte	0x1
 2741 01eb 11       		.uleb128 0x11
 2742 01ec 01       		.uleb128 0x1
 2743 01ed 31       		.uleb128 0x31
 2744 01ee 13       		.uleb128 0x13
 2745 01ef 01       		.uleb128 0x1
 2746 01f0 13       		.uleb128 0x13
 2747 01f1 00       		.byte	0
 2748 01f2 00       		.byte	0
 2749 01f3 28       		.uleb128 0x28
 2750 01f4 2E       		.uleb128 0x2e
 2751 01f5 01       		.byte	0x1
 2752 01f6 3F       		.uleb128 0x3f
 2753 01f7 19       		.uleb128 0x19
 2754 01f8 03       		.uleb128 0x3
 2755 01f9 0E       		.uleb128 0xe
 2756 01fa 3A       		.uleb128 0x3a
 2757 01fb 0B       		.uleb128 0xb
 2758 01fc 3B       		.uleb128 0x3b
 2759 01fd 0B       		.uleb128 0xb
 2760 01fe 27       		.uleb128 0x27
 2761 01ff 19       		.uleb128 0x19
 2762 0200 11       		.uleb128 0x11
 2763 0201 01       		.uleb128 0x1
 2764 0202 12       		.uleb128 0x12
 2765 0203 06       		.uleb128 0x6
 2766 0204 40       		.uleb128 0x40
 2767 0205 18       		.uleb128 0x18
 2768 0206 9742     		.uleb128 0x2117
 2769 0208 19       		.uleb128 0x19
 2770 0209 01       		.uleb128 0x1
ARM GAS  /tmp/cc5JcN0I.s 			page 50


 2771 020a 13       		.uleb128 0x13
 2772 020b 00       		.byte	0
 2773 020c 00       		.byte	0
 2774 020d 29       		.uleb128 0x29
 2775 020e 05       		.uleb128 0x5
 2776 020f 00       		.byte	0
 2777 0210 03       		.uleb128 0x3
 2778 0211 0E       		.uleb128 0xe
 2779 0212 3A       		.uleb128 0x3a
 2780 0213 0B       		.uleb128 0xb
 2781 0214 3B       		.uleb128 0x3b
 2782 0215 0B       		.uleb128 0xb
 2783 0216 49       		.uleb128 0x49
 2784 0217 13       		.uleb128 0x13
 2785 0218 02       		.uleb128 0x2
 2786 0219 17       		.uleb128 0x17
 2787 021a 00       		.byte	0
 2788 021b 00       		.byte	0
 2789 021c 2A       		.uleb128 0x2a
 2790 021d 1D       		.uleb128 0x1d
 2791 021e 01       		.byte	0x1
 2792 021f 31       		.uleb128 0x31
 2793 0220 13       		.uleb128 0x13
 2794 0221 52       		.uleb128 0x52
 2795 0222 01       		.uleb128 0x1
 2796 0223 55       		.uleb128 0x55
 2797 0224 17       		.uleb128 0x17
 2798 0225 58       		.uleb128 0x58
 2799 0226 0B       		.uleb128 0xb
 2800 0227 59       		.uleb128 0x59
 2801 0228 0B       		.uleb128 0xb
 2802 0229 01       		.uleb128 0x1
 2803 022a 13       		.uleb128 0x13
 2804 022b 00       		.byte	0
 2805 022c 00       		.byte	0
 2806 022d 2B       		.uleb128 0x2b
 2807 022e 05       		.uleb128 0x5
 2808 022f 00       		.byte	0
 2809 0230 31       		.uleb128 0x31
 2810 0231 13       		.uleb128 0x13
 2811 0232 02       		.uleb128 0x2
 2812 0233 18       		.uleb128 0x18
 2813 0234 00       		.byte	0
 2814 0235 00       		.byte	0
 2815 0236 2C       		.uleb128 0x2c
 2816 0237 0B       		.uleb128 0xb
 2817 0238 01       		.byte	0x1
 2818 0239 55       		.uleb128 0x55
 2819 023a 17       		.uleb128 0x17
 2820 023b 00       		.byte	0
 2821 023c 00       		.byte	0
 2822 023d 2D       		.uleb128 0x2d
 2823 023e 34       		.uleb128 0x34
 2824 023f 00       		.byte	0
 2825 0240 03       		.uleb128 0x3
 2826 0241 08       		.uleb128 0x8
 2827 0242 3A       		.uleb128 0x3a
ARM GAS  /tmp/cc5JcN0I.s 			page 51


 2828 0243 0B       		.uleb128 0xb
 2829 0244 3B       		.uleb128 0x3b
 2830 0245 0B       		.uleb128 0xb
 2831 0246 49       		.uleb128 0x49
 2832 0247 13       		.uleb128 0x13
 2833 0248 02       		.uleb128 0x2
 2834 0249 18       		.uleb128 0x18
 2835 024a 00       		.byte	0
 2836 024b 00       		.byte	0
 2837 024c 2E       		.uleb128 0x2e
 2838 024d 898201   		.uleb128 0x4109
 2839 0250 00       		.byte	0
 2840 0251 11       		.uleb128 0x11
 2841 0252 01       		.uleb128 0x1
 2842 0253 9542     		.uleb128 0x2115
 2843 0255 19       		.uleb128 0x19
 2844 0256 31       		.uleb128 0x31
 2845 0257 13       		.uleb128 0x13
 2846 0258 00       		.byte	0
 2847 0259 00       		.byte	0
 2848 025a 2F       		.uleb128 0x2f
 2849 025b 898201   		.uleb128 0x4109
 2850 025e 01       		.byte	0x1
 2851 025f 11       		.uleb128 0x11
 2852 0260 01       		.uleb128 0x1
 2853 0261 9542     		.uleb128 0x2115
 2854 0263 19       		.uleb128 0x19
 2855 0264 31       		.uleb128 0x31
 2856 0265 13       		.uleb128 0x13
 2857 0266 01       		.uleb128 0x1
 2858 0267 13       		.uleb128 0x13
 2859 0268 00       		.byte	0
 2860 0269 00       		.byte	0
 2861 026a 30       		.uleb128 0x30
 2862 026b 898201   		.uleb128 0x4109
 2863 026e 01       		.byte	0x1
 2864 026f 11       		.uleb128 0x11
 2865 0270 01       		.uleb128 0x1
 2866 0271 9542     		.uleb128 0x2115
 2867 0273 19       		.uleb128 0x19
 2868 0274 31       		.uleb128 0x31
 2869 0275 13       		.uleb128 0x13
 2870 0276 00       		.byte	0
 2871 0277 00       		.byte	0
 2872 0278 31       		.uleb128 0x31
 2873 0279 2E       		.uleb128 0x2e
 2874 027a 01       		.byte	0x1
 2875 027b 3F       		.uleb128 0x3f
 2876 027c 19       		.uleb128 0x19
 2877 027d 03       		.uleb128 0x3
 2878 027e 0E       		.uleb128 0xe
 2879 027f 3A       		.uleb128 0x3a
 2880 0280 0B       		.uleb128 0xb
 2881 0281 3B       		.uleb128 0x3b
 2882 0282 05       		.uleb128 0x5
 2883 0283 27       		.uleb128 0x27
 2884 0284 19       		.uleb128 0x19
ARM GAS  /tmp/cc5JcN0I.s 			page 52


 2885 0285 11       		.uleb128 0x11
 2886 0286 01       		.uleb128 0x1
 2887 0287 12       		.uleb128 0x12
 2888 0288 06       		.uleb128 0x6
 2889 0289 40       		.uleb128 0x40
 2890 028a 18       		.uleb128 0x18
 2891 028b 9742     		.uleb128 0x2117
 2892 028d 19       		.uleb128 0x19
 2893 028e 01       		.uleb128 0x1
 2894 028f 13       		.uleb128 0x13
 2895 0290 00       		.byte	0
 2896 0291 00       		.byte	0
 2897 0292 32       		.uleb128 0x32
 2898 0293 34       		.uleb128 0x34
 2899 0294 00       		.byte	0
 2900 0295 03       		.uleb128 0x3
 2901 0296 08       		.uleb128 0x8
 2902 0297 3A       		.uleb128 0x3a
 2903 0298 0B       		.uleb128 0xb
 2904 0299 3B       		.uleb128 0x3b
 2905 029a 05       		.uleb128 0x5
 2906 029b 49       		.uleb128 0x49
 2907 029c 13       		.uleb128 0x13
 2908 029d 02       		.uleb128 0x2
 2909 029e 17       		.uleb128 0x17
 2910 029f 00       		.byte	0
 2911 02a0 00       		.byte	0
 2912 02a1 33       		.uleb128 0x33
 2913 02a2 1D       		.uleb128 0x1d
 2914 02a3 01       		.byte	0x1
 2915 02a4 31       		.uleb128 0x31
 2916 02a5 13       		.uleb128 0x13
 2917 02a6 52       		.uleb128 0x52
 2918 02a7 01       		.uleb128 0x1
 2919 02a8 55       		.uleb128 0x55
 2920 02a9 17       		.uleb128 0x17
 2921 02aa 58       		.uleb128 0x58
 2922 02ab 0B       		.uleb128 0xb
 2923 02ac 59       		.uleb128 0x59
 2924 02ad 05       		.uleb128 0x5
 2925 02ae 01       		.uleb128 0x1
 2926 02af 13       		.uleb128 0x13
 2927 02b0 00       		.byte	0
 2928 02b1 00       		.byte	0
 2929 02b2 34       		.uleb128 0x34
 2930 02b3 34       		.uleb128 0x34
 2931 02b4 00       		.byte	0
 2932 02b5 03       		.uleb128 0x3
 2933 02b6 08       		.uleb128 0x8
 2934 02b7 3A       		.uleb128 0x3a
 2935 02b8 0B       		.uleb128 0xb
 2936 02b9 3B       		.uleb128 0x3b
 2937 02ba 05       		.uleb128 0x5
 2938 02bb 49       		.uleb128 0x49
 2939 02bc 13       		.uleb128 0x13
 2940 02bd 02       		.uleb128 0x2
 2941 02be 18       		.uleb128 0x18
ARM GAS  /tmp/cc5JcN0I.s 			page 53


 2942 02bf 00       		.byte	0
 2943 02c0 00       		.byte	0
 2944 02c1 35       		.uleb128 0x35
 2945 02c2 34       		.uleb128 0x34
 2946 02c3 00       		.byte	0
 2947 02c4 03       		.uleb128 0x3
 2948 02c5 0E       		.uleb128 0xe
 2949 02c6 3A       		.uleb128 0x3a
 2950 02c7 0B       		.uleb128 0xb
 2951 02c8 3B       		.uleb128 0x3b
 2952 02c9 0B       		.uleb128 0xb
 2953 02ca 49       		.uleb128 0x49
 2954 02cb 13       		.uleb128 0x13
 2955 02cc 3F       		.uleb128 0x3f
 2956 02cd 19       		.uleb128 0x19
 2957 02ce 02       		.uleb128 0x2
 2958 02cf 18       		.uleb128 0x18
 2959 02d0 00       		.byte	0
 2960 02d1 00       		.byte	0
 2961 02d2 36       		.uleb128 0x36
 2962 02d3 2E       		.uleb128 0x2e
 2963 02d4 00       		.byte	0
 2964 02d5 3F       		.uleb128 0x3f
 2965 02d6 19       		.uleb128 0x19
 2966 02d7 03       		.uleb128 0x3
 2967 02d8 0E       		.uleb128 0xe
 2968 02d9 3A       		.uleb128 0x3a
 2969 02da 0B       		.uleb128 0xb
 2970 02db 3B       		.uleb128 0x3b
 2971 02dc 0B       		.uleb128 0xb
 2972 02dd 27       		.uleb128 0x27
 2973 02de 19       		.uleb128 0x19
 2974 02df 3C       		.uleb128 0x3c
 2975 02e0 19       		.uleb128 0x19
 2976 02e1 00       		.byte	0
 2977 02e2 00       		.byte	0
 2978 02e3 37       		.uleb128 0x37
 2979 02e4 2E       		.uleb128 0x2e
 2980 02e5 01       		.byte	0x1
 2981 02e6 3F       		.uleb128 0x3f
 2982 02e7 19       		.uleb128 0x19
 2983 02e8 03       		.uleb128 0x3
 2984 02e9 0E       		.uleb128 0xe
 2985 02ea 3A       		.uleb128 0x3a
 2986 02eb 0B       		.uleb128 0xb
 2987 02ec 3B       		.uleb128 0x3b
 2988 02ed 0B       		.uleb128 0xb
 2989 02ee 27       		.uleb128 0x27
 2990 02ef 19       		.uleb128 0x19
 2991 02f0 3C       		.uleb128 0x3c
 2992 02f1 19       		.uleb128 0x19
 2993 02f2 01       		.uleb128 0x1
 2994 02f3 13       		.uleb128 0x13
 2995 02f4 00       		.byte	0
 2996 02f5 00       		.byte	0
 2997 02f6 38       		.uleb128 0x38
 2998 02f7 2E       		.uleb128 0x2e
ARM GAS  /tmp/cc5JcN0I.s 			page 54


 2999 02f8 01       		.byte	0x1
 3000 02f9 3F       		.uleb128 0x3f
 3001 02fa 19       		.uleb128 0x19
 3002 02fb 03       		.uleb128 0x3
 3003 02fc 0E       		.uleb128 0xe
 3004 02fd 3A       		.uleb128 0x3a
 3005 02fe 0B       		.uleb128 0xb
 3006 02ff 3B       		.uleb128 0x3b
 3007 0300 05       		.uleb128 0x5
 3008 0301 27       		.uleb128 0x27
 3009 0302 19       		.uleb128 0x19
 3010 0303 3C       		.uleb128 0x3c
 3011 0304 19       		.uleb128 0x19
 3012 0305 01       		.uleb128 0x1
 3013 0306 13       		.uleb128 0x13
 3014 0307 00       		.byte	0
 3015 0308 00       		.byte	0
 3016 0309 39       		.uleb128 0x39
 3017 030a 2E       		.uleb128 0x2e
 3018 030b 01       		.byte	0x1
 3019 030c 3F       		.uleb128 0x3f
 3020 030d 19       		.uleb128 0x19
 3021 030e 03       		.uleb128 0x3
 3022 030f 0E       		.uleb128 0xe
 3023 0310 3A       		.uleb128 0x3a
 3024 0311 0B       		.uleb128 0xb
 3025 0312 3B       		.uleb128 0x3b
 3026 0313 0B       		.uleb128 0xb
 3027 0314 27       		.uleb128 0x27
 3028 0315 19       		.uleb128 0x19
 3029 0316 3C       		.uleb128 0x3c
 3030 0317 19       		.uleb128 0x19
 3031 0318 00       		.byte	0
 3032 0319 00       		.byte	0
 3033 031a 00       		.byte	0
 3034              		.section	.debug_loc,"",%progbits
 3035              	.Ldebug_loc0:
 3036              	.LLST0:
 3037 0000 00000000 		.4byte	.LVL0
 3038 0004 07000000 		.4byte	.LVL1-1
 3039 0008 0100     		.2byte	0x1
 3040 000a 50       		.byte	0x50
 3041 000b 07000000 		.4byte	.LVL1-1
 3042 000f 44000000 		.4byte	.LFE8
 3043 0013 0100     		.2byte	0x1
 3044 0015 54       		.byte	0x54
 3045 0016 00000000 		.4byte	0
 3046 001a 00000000 		.4byte	0
 3047              	.LLST1:
 3048 001e 1C000000 		.4byte	.LVL2
 3049 0022 32000000 		.4byte	.LVL4
 3050 0026 0100     		.2byte	0x1
 3051 0028 53       		.byte	0x53
 3052 0029 00000000 		.4byte	0
 3053 002d 00000000 		.4byte	0
 3054              	.LLST2:
 3055 0031 00000000 		.4byte	.LVL6
ARM GAS  /tmp/cc5JcN0I.s 			page 55


 3056 0035 0D000000 		.4byte	.LVL7-1
 3057 0039 0100     		.2byte	0x1
 3058 003b 50       		.byte	0x50
 3059 003c 0D000000 		.4byte	.LVL7-1
 3060 0040 52000000 		.4byte	.LFE10
 3061 0044 0100     		.2byte	0x1
 3062 0046 54       		.byte	0x54
 3063 0047 00000000 		.4byte	0
 3064 004b 00000000 		.4byte	0
 3065              	.LLST4:
 3066 004f 30000000 		.4byte	.LVL8
 3067 0053 3A000000 		.4byte	.LVL9
 3068 0057 0100     		.2byte	0x1
 3069 0059 54       		.byte	0x54
 3070 005a 00000000 		.4byte	0
 3071 005e 00000000 		.4byte	0
 3072              	.LLST5:
 3073 0062 00000000 		.4byte	.LVL12
 3074 0066 09000000 		.4byte	.LVL13-1
 3075 006a 0100     		.2byte	0x1
 3076 006c 50       		.byte	0x50
 3077 006d 09000000 		.4byte	.LVL13-1
 3078 0071 50000000 		.4byte	.LFE9
 3079 0075 0400     		.2byte	0x4
 3080 0077 F3       		.byte	0xf3
 3081 0078 01       		.uleb128 0x1
 3082 0079 50       		.byte	0x50
 3083 007a 9F       		.byte	0x9f
 3084 007b 00000000 		.4byte	0
 3085 007f 00000000 		.4byte	0
 3086              	.LLST6:
 3087 0083 0E000000 		.4byte	.LVL14
 3088 0087 44000000 		.4byte	.LVL18
 3089 008b 0100     		.2byte	0x1
 3090 008d 55       		.byte	0x55
 3091 008e 44000000 		.4byte	.LVL18
 3092 0092 47000000 		.4byte	.LVL19-1
 3093 0096 0100     		.2byte	0x1
 3094 0098 51       		.byte	0x51
 3095 0099 00000000 		.4byte	0
 3096 009d 00000000 		.4byte	0
 3097              	.LLST7:
 3098 00a1 1C000000 		.4byte	.LVL15
 3099 00a5 2B000000 		.4byte	.LVL16-1
 3100 00a9 0100     		.2byte	0x1
 3101 00ab 53       		.byte	0x53
 3102 00ac 00000000 		.4byte	0
 3103 00b0 00000000 		.4byte	0
 3104              	.LLST8:
 3105 00b4 00000000 		.4byte	.LVL20
 3106 00b8 0B000000 		.4byte	.LVL21-1
 3107 00bc 0100     		.2byte	0x1
 3108 00be 50       		.byte	0x50
 3109 00bf 0B000000 		.4byte	.LVL21-1
 3110 00c3 50000000 		.4byte	.LFE11
 3111 00c7 0400     		.2byte	0x4
 3112 00c9 F3       		.byte	0xf3
ARM GAS  /tmp/cc5JcN0I.s 			page 56


 3113 00ca 01       		.uleb128 0x1
 3114 00cb 50       		.byte	0x50
 3115 00cc 9F       		.byte	0x9f
 3116 00cd 00000000 		.4byte	0
 3117 00d1 00000000 		.4byte	0
 3118              	.LLST9:
 3119 00d5 00000000 		.4byte	.LVL20
 3120 00d9 0B000000 		.4byte	.LVL21-1
 3121 00dd 0100     		.2byte	0x1
 3122 00df 51       		.byte	0x51
 3123 00e0 0B000000 		.4byte	.LVL21-1
 3124 00e4 46000000 		.4byte	.LVL27
 3125 00e8 0100     		.2byte	0x1
 3126 00ea 54       		.byte	0x54
 3127 00eb 46000000 		.4byte	.LVL27
 3128 00ef 50000000 		.4byte	.LFE11
 3129 00f3 0400     		.2byte	0x4
 3130 00f5 F3       		.byte	0xf3
 3131 00f6 01       		.uleb128 0x1
 3132 00f7 51       		.byte	0x51
 3133 00f8 9F       		.byte	0x9f
 3134 00f9 00000000 		.4byte	0
 3135 00fd 00000000 		.4byte	0
 3136              	.LLST10:
 3137 0101 00000000 		.4byte	.LVL28
 3138 0105 0B000000 		.4byte	.LVL29-1
 3139 0109 0100     		.2byte	0x1
 3140 010b 50       		.byte	0x50
 3141 010c 0B000000 		.4byte	.LVL29-1
 3142 0110 3C000000 		.4byte	.LVL33
 3143 0114 0100     		.2byte	0x1
 3144 0116 54       		.byte	0x54
 3145 0117 3C000000 		.4byte	.LVL33
 3146 011b 3F000000 		.4byte	.LVL34-1
 3147 011f 0100     		.2byte	0x1
 3148 0121 50       		.byte	0x50
 3149 0122 3F000000 		.4byte	.LVL34-1
 3150 0126 40000000 		.4byte	.LVL34
 3151 012a 0400     		.2byte	0x4
 3152 012c F3       		.byte	0xf3
 3153 012d 01       		.uleb128 0x1
 3154 012e 50       		.byte	0x50
 3155 012f 9F       		.byte	0x9f
 3156 0130 40000000 		.4byte	.LVL34
 3157 0134 46000000 		.4byte	.LVL35
 3158 0138 0100     		.2byte	0x1
 3159 013a 54       		.byte	0x54
 3160 013b 46000000 		.4byte	.LVL35
 3161 013f 49000000 		.4byte	.LVL36-1
 3162 0143 0100     		.2byte	0x1
 3163 0145 50       		.byte	0x50
 3164 0146 49000000 		.4byte	.LVL36-1
 3165 014a 4A000000 		.4byte	.LVL36
 3166 014e 0400     		.2byte	0x4
 3167 0150 F3       		.byte	0xf3
 3168 0151 01       		.uleb128 0x1
 3169 0152 50       		.byte	0x50
ARM GAS  /tmp/cc5JcN0I.s 			page 57


 3170 0153 9F       		.byte	0x9f
 3171 0154 4A000000 		.4byte	.LVL36
 3172 0158 58000000 		.4byte	.LVL38
 3173 015c 0100     		.2byte	0x1
 3174 015e 54       		.byte	0x54
 3175 015f 58000000 		.4byte	.LVL38
 3176 0163 5B000000 		.4byte	.LVL39-1
 3177 0167 0100     		.2byte	0x1
 3178 0169 50       		.byte	0x50
 3179 016a 5B000000 		.4byte	.LVL39-1
 3180 016e 64000000 		.4byte	.LFE12
 3181 0172 0400     		.2byte	0x4
 3182 0174 F3       		.byte	0xf3
 3183 0175 01       		.uleb128 0x1
 3184 0176 50       		.byte	0x50
 3185 0177 9F       		.byte	0x9f
 3186 0178 00000000 		.4byte	0
 3187 017c 00000000 		.4byte	0
 3188              	.LLST11:
 3189 0180 00000000 		.4byte	.LVL28
 3190 0184 0B000000 		.4byte	.LVL29-1
 3191 0188 0100     		.2byte	0x1
 3192 018a 51       		.byte	0x51
 3193 018b 0B000000 		.4byte	.LVL29-1
 3194 018f 20000000 		.4byte	.LVL31
 3195 0193 0100     		.2byte	0x1
 3196 0195 56       		.byte	0x56
 3197 0196 20000000 		.4byte	.LVL31
 3198 019a 40000000 		.4byte	.LVL34
 3199 019e 0400     		.2byte	0x4
 3200 01a0 F3       		.byte	0xf3
 3201 01a1 01       		.uleb128 0x1
 3202 01a2 51       		.byte	0x51
 3203 01a3 9F       		.byte	0x9f
 3204 01a4 40000000 		.4byte	.LVL34
 3205 01a8 46000000 		.4byte	.LVL35
 3206 01ac 0100     		.2byte	0x1
 3207 01ae 56       		.byte	0x56
 3208 01af 46000000 		.4byte	.LVL35
 3209 01b3 49000000 		.4byte	.LVL36-1
 3210 01b7 0200     		.2byte	0x2
 3211 01b9 70       		.byte	0x70
 3212 01ba 28       		.sleb128 40
 3213 01bb 49000000 		.4byte	.LVL36-1
 3214 01bf 64000000 		.4byte	.LFE12
 3215 01c3 0400     		.2byte	0x4
 3216 01c5 F3       		.byte	0xf3
 3217 01c6 01       		.uleb128 0x1
 3218 01c7 51       		.byte	0x51
 3219 01c8 9F       		.byte	0x9f
 3220 01c9 00000000 		.4byte	0
 3221 01cd 00000000 		.4byte	0
 3222              	.LLST12:
 3223 01d1 20000000 		.4byte	.LVL31
 3224 01d5 29000000 		.4byte	.LVL32-1
 3225 01d9 0100     		.2byte	0x1
 3226 01db 50       		.byte	0x50
ARM GAS  /tmp/cc5JcN0I.s 			page 58


 3227 01dc 29000000 		.4byte	.LVL32-1
 3228 01e0 3C000000 		.4byte	.LVL33
 3229 01e4 0100     		.2byte	0x1
 3230 01e6 56       		.byte	0x56
 3231 01e7 3C000000 		.4byte	.LVL33
 3232 01eb 3F000000 		.4byte	.LVL34-1
 3233 01ef 0100     		.2byte	0x1
 3234 01f1 51       		.byte	0x51
 3235 01f2 4A000000 		.4byte	.LVL36
 3236 01f6 58000000 		.4byte	.LVL38
 3237 01fa 0100     		.2byte	0x1
 3238 01fc 56       		.byte	0x56
 3239 01fd 58000000 		.4byte	.LVL38
 3240 0201 5B000000 		.4byte	.LVL39-1
 3241 0205 0100     		.2byte	0x1
 3242 0207 51       		.byte	0x51
 3243 0208 00000000 		.4byte	0
 3244 020c 00000000 		.4byte	0
 3245              	.LLST13:
 3246 0210 08000000 		.4byte	.LVL40
 3247 0214 40000000 		.4byte	.LVL44
 3248 0218 0100     		.2byte	0x1
 3249 021a 55       		.byte	0x55
 3250 021b 40000000 		.4byte	.LVL44
 3251 021f 43000000 		.4byte	.LVL45-1
 3252 0223 0100     		.2byte	0x1
 3253 0225 51       		.byte	0x51
 3254 0226 00000000 		.4byte	0
 3255 022a 00000000 		.4byte	0
 3256              	.LLST14:
 3257 022e 08000000 		.4byte	.LVL40
 3258 0232 21000000 		.4byte	.LVL41-1
 3259 0236 0100     		.2byte	0x1
 3260 0238 53       		.byte	0x53
 3261 0239 00000000 		.4byte	0
 3262 023d 00000000 		.4byte	0
 3263              	.LLST15:
 3264 0241 08000000 		.4byte	.LVL46
 3265 0245 52000000 		.4byte	.LVL52
 3266 0249 0100     		.2byte	0x1
 3267 024b 55       		.byte	0x55
 3268 024c 52000000 		.4byte	.LVL52
 3269 0250 55000000 		.4byte	.LVL53-1
 3270 0254 0100     		.2byte	0x1
 3271 0256 51       		.byte	0x51
 3272 0257 00000000 		.4byte	0
 3273 025b 00000000 		.4byte	0
 3274              	.LLST16:
 3275 025f 20000000 		.4byte	.LVL47
 3276 0263 22000000 		.4byte	.LVL48
 3277 0267 0600     		.2byte	0x6
 3278 0269 03       		.byte	0x3
 3279 026a 00000000 		.4byte	rlist
 3280 026e 9F       		.byte	0x9f
 3281 026f 22000000 		.4byte	.LVL48
 3282 0273 39000000 		.4byte	.LVL50-1
 3283 0277 0100     		.2byte	0x1
ARM GAS  /tmp/cc5JcN0I.s 			page 59


 3284 0279 53       		.byte	0x53
 3285 027a 00000000 		.4byte	0
 3286 027e 00000000 		.4byte	0
 3287              	.LLST17:
 3288 0282 08000000 		.4byte	.LVL46
 3289 0286 22000000 		.4byte	.LVL48
 3290 028a 0100     		.2byte	0x1
 3291 028c 52       		.byte	0x52
 3292 028d 22000000 		.4byte	.LVL48
 3293 0291 39000000 		.4byte	.LVL50-1
 3294 0295 0500     		.2byte	0x5
 3295 0297 03       		.byte	0x3
 3296 0298 00000000 		.4byte	rlist
 3297 029c 00000000 		.4byte	0
 3298 02a0 00000000 		.4byte	0
 3299              		.section	.debug_aranges,"",%progbits
 3300 0000 64000000 		.4byte	0x64
 3301 0004 0200     		.2byte	0x2
 3302 0006 00000000 		.4byte	.Ldebug_info0
 3303 000a 04       		.byte	0x4
 3304 000b 00       		.byte	0
 3305 000c 0000     		.2byte	0
 3306 000e 0000     		.2byte	0
 3307 0010 00000000 		.4byte	.LFB7
 3308 0014 14000000 		.4byte	.LFE7-.LFB7
 3309 0018 00000000 		.4byte	.LFB8
 3310 001c 44000000 		.4byte	.LFE8-.LFB8
 3311 0020 00000000 		.4byte	.LFB10
 3312 0024 52000000 		.4byte	.LFE10-.LFB10
 3313 0028 00000000 		.4byte	.LFB9
 3314 002c 50000000 		.4byte	.LFE9-.LFB9
 3315 0030 00000000 		.4byte	.LFB11
 3316 0034 50000000 		.4byte	.LFE11-.LFB11
 3317 0038 00000000 		.4byte	.LFB12
 3318 003c 64000000 		.4byte	.LFE12-.LFB12
 3319 0040 00000000 		.4byte	.LFB14
 3320 0044 4C000000 		.4byte	.LFE14-.LFB14
 3321 0048 00000000 		.4byte	.LFB15
 3322 004c 60000000 		.4byte	.LFE15-.LFB15
 3323 0050 00000000 		.4byte	.LFB13
 3324 0054 24000000 		.4byte	.LFE13-.LFB13
 3325 0058 00000000 		.4byte	.LFB16
 3326 005c 18000000 		.4byte	.LFE16-.LFB16
 3327 0060 00000000 		.4byte	0
 3328 0064 00000000 		.4byte	0
 3329              		.section	.debug_ranges,"",%progbits
 3330              	.Ldebug_ranges0:
 3331 0000 02000000 		.4byte	.LBB32
 3332 0004 04000000 		.4byte	.LBE32
 3333 0008 06000000 		.4byte	.LBB33
 3334 000c 0A000000 		.4byte	.LBE33
 3335 0010 00000000 		.4byte	0
 3336 0014 00000000 		.4byte	0
 3337 0018 0A000000 		.4byte	.LBB37
 3338 001c 0C000000 		.4byte	.LBE37
 3339 0020 0E000000 		.4byte	.LBB42
 3340 0024 10000000 		.4byte	.LBE42
ARM GAS  /tmp/cc5JcN0I.s 			page 60


 3341 0028 1C000000 		.4byte	.LBB43
 3342 002c 1E000000 		.4byte	.LBE43
 3343 0030 24000000 		.4byte	.LBB44
 3344 0034 26000000 		.4byte	.LBE44
 3345 0038 00000000 		.4byte	0
 3346 003c 00000000 		.4byte	0
 3347 0040 2C000000 		.4byte	.LBB45
 3348 0044 40000000 		.4byte	.LBE45
 3349 0048 44000000 		.4byte	.LBB46
 3350 004c 50000000 		.4byte	.LBE46
 3351 0050 00000000 		.4byte	0
 3352 0054 00000000 		.4byte	0
 3353 0058 18000000 		.4byte	.LBB48
 3354 005c 38000000 		.4byte	.LBE48
 3355 0060 3C000000 		.4byte	.LBB53
 3356 0064 40000000 		.4byte	.LBE53
 3357 0068 4A000000 		.4byte	.LBB54
 3358 006c 54000000 		.4byte	.LBE54
 3359 0070 58000000 		.4byte	.LBB55
 3360 0074 64000000 		.4byte	.LBE55
 3361 0078 00000000 		.4byte	0
 3362 007c 00000000 		.4byte	0
 3363 0080 2A000000 		.4byte	.LBB49
 3364 0084 38000000 		.4byte	.LBE49
 3365 0088 3C000000 		.4byte	.LBB50
 3366 008c 40000000 		.4byte	.LBE50
 3367 0090 4A000000 		.4byte	.LBB51
 3368 0094 54000000 		.4byte	.LBE51
 3369 0098 58000000 		.4byte	.LBB52
 3370 009c 64000000 		.4byte	.LBE52
 3371 00a0 00000000 		.4byte	0
 3372 00a4 00000000 		.4byte	0
 3373 00a8 04000000 		.4byte	.LBB56
 3374 00ac 06000000 		.4byte	.LBE56
 3375 00b0 08000000 		.4byte	.LBB60
 3376 00b4 0C000000 		.4byte	.LBE60
 3377 00b8 10000000 		.4byte	.LBB61
 3378 00bc 12000000 		.4byte	.LBE61
 3379 00c0 00000000 		.4byte	0
 3380 00c4 00000000 		.4byte	0
 3381 00c8 28000000 		.4byte	.LBB62
 3382 00cc 3C000000 		.4byte	.LBE62
 3383 00d0 40000000 		.4byte	.LBB63
 3384 00d4 4C000000 		.4byte	.LBE63
 3385 00d8 00000000 		.4byte	0
 3386 00dc 00000000 		.4byte	0
 3387 00e0 04000000 		.4byte	.LBB64
 3388 00e4 06000000 		.4byte	.LBE64
 3389 00e8 08000000 		.4byte	.LBB68
 3390 00ec 0E000000 		.4byte	.LBE68
 3391 00f0 12000000 		.4byte	.LBB69
 3392 00f4 14000000 		.4byte	.LBE69
 3393 00f8 00000000 		.4byte	0
 3394 00fc 00000000 		.4byte	0
 3395 0100 3A000000 		.4byte	.LBB70
 3396 0104 4E000000 		.4byte	.LBE70
 3397 0108 52000000 		.4byte	.LBB71
ARM GAS  /tmp/cc5JcN0I.s 			page 61


 3398 010c 60000000 		.4byte	.LBE71
 3399 0110 00000000 		.4byte	0
 3400 0114 00000000 		.4byte	0
 3401 0118 00000000 		.4byte	.LFB7
 3402 011c 14000000 		.4byte	.LFE7
 3403 0120 00000000 		.4byte	.LFB8
 3404 0124 44000000 		.4byte	.LFE8
 3405 0128 00000000 		.4byte	.LFB10
 3406 012c 52000000 		.4byte	.LFE10
 3407 0130 00000000 		.4byte	.LFB9
 3408 0134 50000000 		.4byte	.LFE9
 3409 0138 00000000 		.4byte	.LFB11
 3410 013c 50000000 		.4byte	.LFE11
 3411 0140 00000000 		.4byte	.LFB12
 3412 0144 64000000 		.4byte	.LFE12
 3413 0148 00000000 		.4byte	.LFB14
 3414 014c 4C000000 		.4byte	.LFE14
 3415 0150 00000000 		.4byte	.LFB15
 3416 0154 60000000 		.4byte	.LFE15
 3417 0158 00000000 		.4byte	.LFB13
 3418 015c 24000000 		.4byte	.LFE13
 3419 0160 00000000 		.4byte	.LFB16
 3420 0164 18000000 		.4byte	.LFE16
 3421 0168 00000000 		.4byte	0
 3422 016c 00000000 		.4byte	0
 3423              		.section	.debug_line,"",%progbits
 3424              	.Ldebug_line0:
 3425 0000 49030000 		.section	.debug_str,"MS",%progbits,1
 3425      02004B01 
 3425      00000201 
 3425      FB0E0D00 
 3425      01010101 
 3426              	.LASF43:
 3427 0000 705F6D73 		.ascii	"p_msg\000"
 3427      6700
 3428              	.LASF96:
 3429 0006 63684462 		.ascii	"chDbgPanic\000"
 3429      6750616E 
 3429      696300
 3430              	.LASF76:
 3431 0011 7264796D 		.ascii	"rdymsg\000"
 3431      736700
 3432              	.LASF16:
 3433 0018 75696E74 		.ascii	"uint64_t\000"
 3433      36345F74 
 3433      00
 3434              	.LASF90:
 3435 0021 63685363 		.ascii	"chSchDoRescheduleAhead\000"
 3435      68446F52 
 3435      65736368 
 3435      6564756C 
 3435      65416865 
 3436              	.LASF5:
 3437 0038 5F5F7569 		.ascii	"__uint8_t\000"
 3437      6E74385F 
 3437      7400
 3438              	.LASF12:
ARM GAS  /tmp/cc5JcN0I.s 			page 62


 3439 0042 6C6F6E67 		.ascii	"long long unsigned int\000"
 3439      206C6F6E 
 3439      6720756E 
 3439      7369676E 
 3439      65642069 
 3440              	.LASF30:
 3441 0059 705F7072 		.ascii	"p_prio\000"
 3441      696F00
 3442              	.LASF105:
 3443 0060 5F736368 		.ascii	"_scheduler_init\000"
 3443      6564756C 
 3443      65725F69 
 3443      6E697400 
 3444              	.LASF10:
 3445 0070 6C6F6E67 		.ascii	"long long int\000"
 3445      206C6F6E 
 3445      6720696E 
 3445      7400
 3446              	.LASF1:
 3447 007e 7369676E 		.ascii	"signed char\000"
 3447      65642063 
 3447      68617200 
 3448              	.LASF95:
 3449 008a 6462675F 		.ascii	"dbg_check_unlock_from_isr\000"
 3449      63686563 
 3449      6B5F756E 
 3449      6C6F636B 
 3449      5F66726F 
 3450              	.LASF47:
 3451 00a4 705F6D70 		.ascii	"p_mpool\000"
 3451      6F6F6C00 
 3452              	.LASF73:
 3453 00ac 6D5F7175 		.ascii	"m_queue\000"
 3453      65756500 
 3454              	.LASF21:
 3455 00b4 74736C69 		.ascii	"tslices_t\000"
 3455      6365735F 
 3455      7400
 3456              	.LASF7:
 3457 00be 6C6F6E67 		.ascii	"long int\000"
 3457      20696E74 
 3457      00
 3458              	.LASF19:
 3459 00c7 74737461 		.ascii	"tstate_t\000"
 3459      74655F74 
 3459      00
 3460              	.LASF32:
 3461 00d0 705F6E65 		.ascii	"p_newer\000"
 3461      77657200 
 3462              	.LASF70:
 3463 00d8 735F7175 		.ascii	"s_queue\000"
 3463      65756500 
 3464              	.LASF77:
 3465 00e0 65786974 		.ascii	"exitcode\000"
 3465      636F6465 
 3465      00
 3466              	.LASF91:
ARM GAS  /tmp/cc5JcN0I.s 			page 63


 3467 00e9 63685363 		.ascii	"chSchRescheduleS\000"
 3467      68526573 
 3467      63686564 
 3467      756C6553 
 3467      00
 3468              	.LASF8:
 3469 00fa 5F5F7569 		.ascii	"__uint32_t\000"
 3469      6E743332 
 3469      5F7400
 3470              	.LASF50:
 3471 0105 72656761 		.ascii	"regarm_t\000"
 3471      726D5F74 
 3471      00
 3472              	.LASF58:
 3473 010e 76745F70 		.ascii	"vt_prev\000"
 3473      72657600 
 3474              	.LASF92:
 3475 0116 63685363 		.ascii	"chSchDoReschedule\000"
 3475      68446F52 
 3475      65736368 
 3475      6564756C 
 3475      6500
 3476              	.LASF26:
 3477 0128 636E745F 		.ascii	"cnt_t\000"
 3477      7400
 3478              	.LASF35:
 3479 012e 705F7374 		.ascii	"p_stklimit\000"
 3479      6B6C696D 
 3479      697400
 3480              	.LASF0:
 3481 0139 756E7369 		.ascii	"unsigned int\000"
 3481      676E6564 
 3481      20696E74 
 3481      00
 3482              	.LASF104:
 3483 0146 77616B65 		.ascii	"wakeup\000"
 3483      757000
 3484              	.LASF57:
 3485 014d 76745F6E 		.ascii	"vt_next\000"
 3485      65787400 
 3486              	.LASF99:
 3487 0155 6462675F 		.ascii	"dbg_trace\000"
 3487      74726163 
 3487      6500
 3488              	.LASF97:
 3489 015f 5F706F72 		.ascii	"_port_switch\000"
 3489      745F7377 
 3489      69746368 
 3489      00
 3490              	.LASF9:
 3491 016c 6C6F6E67 		.ascii	"long unsigned int\000"
 3491      20756E73 
 3491      69676E65 
 3491      6420696E 
 3491      7400
 3492              	.LASF55:
 3493 017e 76746675 		.ascii	"vtfunc_t\000"
ARM GAS  /tmp/cc5JcN0I.s 			page 64


 3493      6E635F74 
 3493      00
 3494              	.LASF56:
 3495 0187 56697274 		.ascii	"VirtualTimer\000"
 3495      75616C54 
 3495      696D6572 
 3495      00
 3496              	.LASF71:
 3497 0194 735F636E 		.ascii	"s_cnt\000"
 3497      7400
 3498              	.LASF53:
 3499 019a 636F6E74 		.ascii	"context\000"
 3499      65787400 
 3500              	.LASF4:
 3501 01a2 73686F72 		.ascii	"short unsigned int\000"
 3501      7420756E 
 3501      7369676E 
 3501      65642069 
 3501      6E7400
 3502              	.LASF88:
 3503 01b5 63685363 		.ascii	"chSchWakeupS\000"
 3503      6857616B 
 3503      65757053 
 3503      00
 3504              	.LASF23:
 3505 01c2 6D73675F 		.ascii	"msg_t\000"
 3505      7400
 3506              	.LASF65:
 3507 01c8 725F6E65 		.ascii	"r_newer\000"
 3507      77657200 
 3508              	.LASF93:
 3509 01d0 63684462 		.ascii	"chDbgCheckClassI\000"
 3509      67436865 
 3509      636B436C 
 3509      61737349 
 3509      00
 3510              	.LASF18:
 3511 01e1 746D6F64 		.ascii	"tmode_t\000"
 3511      655F7400 
 3512              	.LASF98:
 3513 01e9 63684462 		.ascii	"chDbgCheckClassS\000"
 3513      67436865 
 3513      636B436C 
 3513      61737353 
 3513      00
 3514              	.LASF49:
 3515 01fa 54687265 		.ascii	"ThreadsList\000"
 3515      6164734C 
 3515      69737400 
 3516              	.LASF24:
 3517 0206 6576656E 		.ascii	"eventmask_t\000"
 3517      746D6173 
 3517      6B5F7400 
 3518              	.LASF72:
 3519 0212 4D757465 		.ascii	"Mutex\000"
 3519      7800
 3520              	.LASF51:
ARM GAS  /tmp/cc5JcN0I.s 			page 65


 3521 0218 73746B61 		.ascii	"stkalign_t\000"
 3521      6C69676E 
 3521      5F7400
 3522              	.LASF59:
 3523 0223 76745F74 		.ascii	"vt_time\000"
 3523      696D6500 
 3524              	.LASF54:
 3525 022b 73697A65 		.ascii	"sizetype\000"
 3525      74797065 
 3525      00
 3526              	.LASF60:
 3527 0234 76745F66 		.ascii	"vt_func\000"
 3527      756E6300 
 3528              	.LASF89:
 3529 023c 63685363 		.ascii	"chSchDoRescheduleBehind\000"
 3529      68446F52 
 3529      65736368 
 3529      6564756C 
 3529      65426568 
 3530              	.LASF100:
 3531 0254 63685654 		.ascii	"chVTSetI\000"
 3531      53657449 
 3531      00
 3532              	.LASF33:
 3533 025d 705F6F6C 		.ascii	"p_older\000"
 3533      64657200 
 3534              	.LASF64:
 3535 0265 725F6374 		.ascii	"r_ctx\000"
 3535      7800
 3536              	.LASF48:
 3537 026b 54687265 		.ascii	"ThreadsQueue\000"
 3537      61647351 
 3537      75657565 
 3537      00
 3538              	.LASF81:
 3539 0278 64657175 		.ascii	"dequeue\000"
 3539      65756500 
 3540              	.LASF67:
 3541 0280 725F6375 		.ascii	"r_current\000"
 3541      7272656E 
 3541      7400
 3542              	.LASF66:
 3543 028a 725F6F6C 		.ascii	"r_older\000"
 3543      64657200 
 3544              	.LASF11:
 3545 0292 5F5F7569 		.ascii	"__uint64_t\000"
 3545      6E743634 
 3545      5F7400
 3546              	.LASF20:
 3547 029d 74726566 		.ascii	"trefs_t\000"
 3547      735F7400 
 3548              	.LASF29:
 3549 02a5 705F7072 		.ascii	"p_prev\000"
 3549      657600
 3550              	.LASF22:
 3551 02ac 74707269 		.ascii	"tprio_t\000"
 3551      6F5F7400 
ARM GAS  /tmp/cc5JcN0I.s 			page 66


 3552              	.LASF17:
 3553 02b4 5F426F6F 		.ascii	"_Bool\000"
 3553      6C00
 3554              	.LASF14:
 3555 02ba 696E7433 		.ascii	"int32_t\000"
 3555      325F7400 
 3556              	.LASF2:
 3557 02c2 756E7369 		.ascii	"unsigned char\000"
 3557      676E6564 
 3557      20636861 
 3557      7200
 3558              	.LASF83:
 3559 02d0 6E657773 		.ascii	"newstate\000"
 3559      74617465 
 3559      00
 3560              	.LASF45:
 3561 02d9 705F6D74 		.ascii	"p_mtxlist\000"
 3561      786C6973 
 3561      7400
 3562              	.LASF3:
 3563 02e3 73686F72 		.ascii	"short int\000"
 3563      7420696E 
 3563      7400
 3564              	.LASF36:
 3565 02ed 705F7374 		.ascii	"p_state\000"
 3565      61746500 
 3566              	.LASF39:
 3567 02f5 705F7072 		.ascii	"p_preempt\000"
 3567      65656D70 
 3567      7400
 3568              	.LASF63:
 3569 02ff 725F7072 		.ascii	"r_prio\000"
 3569      696F00
 3570              	.LASF79:
 3571 0306 65776D61 		.ascii	"ewmask\000"
 3571      736B00
 3572              	.LASF28:
 3573 030d 705F6E65 		.ascii	"p_next\000"
 3573      787400
 3574              	.LASF37:
 3575 0314 705F666C 		.ascii	"p_flags\000"
 3575      61677300 
 3576              	.LASF101:
 3577 031c 474E5520 		.ascii	"GNU C 4.8.4 20140526 (release) [ARM/embedded-4_8-br"
 3577      4320342E 
 3577      382E3420 
 3577      32303134 
 3577      30353236 
 3578 034f 616E6368 		.ascii	"anch revision 211358] -mcpu=cortex-m4 -mfloat-abi=h"
 3578      20726576 
 3578      6973696F 
 3578      6E203231 
 3578      31333538 
 3579 0382 61726420 		.ascii	"ard -mfpu=fpv4-sp-d16 -mno-thumb-interwork -mthumb "
 3579      2D6D6670 
 3579      753D6670 
 3579      76342D73 
ARM GAS  /tmp/cc5JcN0I.s 			page 67


 3579      702D6431 
 3580 03b5 2D676764 		.ascii	"-ggdb -O2 -fomit-frame-pointer -falign-functions=16"
 3580      62202D4F 
 3580      32202D66 
 3580      6F6D6974 
 3580      2D667261 
 3581 03e8 202D6666 		.ascii	" -ffunction-sections -fdata-sections -fno-common -f"
 3581      756E6374 
 3581      696F6E2D 
 3581      73656374 
 3581      696F6E73 
 3582 041b 73696E67 		.ascii	"single-precision-constant\000"
 3582      6C652D70 
 3582      72656369 
 3582      73696F6E 
 3582      2D636F6E 
 3583              	.LASF27:
 3584 0435 54687265 		.ascii	"Thread\000"
 3584      616400
 3585              	.LASF107:
 3586 043c 63685654 		.ascii	"chVTResetI\000"
 3586      52657365 
 3586      744900
 3587              	.LASF87:
 3588 0447 63685363 		.ascii	"chSchGoSleepS\000"
 3588      68476F53 
 3588      6C656570 
 3588      5300
 3589              	.LASF44:
 3590 0455 705F6570 		.ascii	"p_epending\000"
 3590      656E6469 
 3590      6E6700
 3591              	.LASF15:
 3592 0460 75696E74 		.ascii	"uint32_t\000"
 3592      33325F74 
 3592      00
 3593              	.LASF62:
 3594 0469 725F7175 		.ascii	"r_queue\000"
 3594      65756500 
 3595              	.LASF80:
 3596 0471 63686172 		.ascii	"char\000"
 3596      00
 3597              	.LASF82:
 3598 0476 6669666F 		.ascii	"fifo_remove\000"
 3598      5F72656D 
 3598      6F766500 
 3599              	.LASF84:
 3600 0482 63685363 		.ascii	"chSchReadyI\000"
 3600      68526561 
 3600      64794900 
 3601              	.LASF75:
 3602 048e 6D5F6E65 		.ascii	"m_next\000"
 3602      787400
 3603              	.LASF25:
 3604 0495 73797374 		.ascii	"systime_t\000"
 3604      696D655F 
 3604      7400
ARM GAS  /tmp/cc5JcN0I.s 			page 68


 3605              	.LASF46:
 3606 049f 705F7265 		.ascii	"p_realprio\000"
 3606      616C7072 
 3606      696F00
 3607              	.LASF6:
 3608 04aa 5F5F696E 		.ascii	"__int32_t\000"
 3608      7433325F 
 3608      7400
 3609              	.LASF40:
 3610 04b4 705F7469 		.ascii	"p_time\000"
 3610      6D6500
 3611              	.LASF103:
 3612 04bb 2F686F6D 		.ascii	"/home/makkmarci/devel/ChibiOS_2.6.5/projects/STM32F"
 3612      652F6D61 
 3612      6B6B6D61 
 3612      7263692F 
 3612      64657665 
 3613 04ee 345F4368 		.ascii	"4_ChibiOS_uGFX/\000"
 3613      6962694F 
 3613      535F7547 
 3613      46582F00 
 3614              	.LASF52:
 3615 04fe 696E7463 		.ascii	"intctx\000"
 3615      747800
 3616              	.LASF42:
 3617 0505 705F6D73 		.ascii	"p_msgqueue\000"
 3617      67717565 
 3617      756500
 3618              	.LASF86:
 3619 0510 74696D65 		.ascii	"time\000"
 3619      00
 3620              	.LASF61:
 3621 0515 76745F70 		.ascii	"vt_par\000"
 3621      617200
 3622              	.LASF69:
 3623 051c 53656D61 		.ascii	"Semaphore\000"
 3623      70686F72 
 3623      6500
 3624              	.LASF38:
 3625 0526 705F7265 		.ascii	"p_refs\000"
 3625      667300
 3626              	.LASF68:
 3627 052d 52656164 		.ascii	"ReadyList\000"
 3627      794C6973 
 3627      7400
 3628              	.LASF102:
 3629 0537 2E2E2F2E 		.ascii	"../../os/kernel/src/chschd.c\000"
 3629      2E2F6F73 
 3629      2F6B6572 
 3629      6E656C2F 
 3629      7372632F 
 3630              	.LASF106:
 3631 0554 726C6973 		.ascii	"rlist\000"
 3631      7400
 3632              	.LASF13:
 3633 055a 75696E74 		.ascii	"uint8_t\000"
 3633      385F7400 
ARM GAS  /tmp/cc5JcN0I.s 			page 69


 3634              	.LASF94:
 3635 0562 6462675F 		.ascii	"dbg_check_lock_from_isr\000"
 3635      63686563 
 3635      6B5F6C6F 
 3635      636B5F66 
 3635      726F6D5F 
 3636              	.LASF78:
 3637 057a 77746F62 		.ascii	"wtobjp\000"
 3637      6A7000
 3638              	.LASF34:
 3639 0581 705F6E61 		.ascii	"p_name\000"
 3639      6D6500
 3640              	.LASF85:
 3641 0588 63685363 		.ascii	"chSchGoSleepTimeoutS\000"
 3641      68476F53 
 3641      6C656570 
 3641      54696D65 
 3641      6F757453 
 3642              	.LASF74:
 3643 059d 6D5F6F77 		.ascii	"m_owner\000"
 3643      6E657200 
 3644              	.LASF31:
 3645 05a5 705F6374 		.ascii	"p_ctx\000"
 3645      7800
 3646              	.LASF41:
 3647 05ab 705F7761 		.ascii	"p_waiting\000"
 3647      6974696E 
 3647      6700
 3648              		.ident	"GCC: (GNU Tools for ARM Embedded Processors) 4.8.4 20140526 (release) [ARM/embedded-4_8-br
ARM GAS  /tmp/cc5JcN0I.s 			page 70


DEFINED SYMBOLS
                            *ABS*:00000000 chschd.c
     /tmp/cc5JcN0I.s:21     .text._scheduler_init:00000000 $t
     /tmp/cc5JcN0I.s:27     .text._scheduler_init:00000000 _scheduler_init
     /tmp/cc5JcN0I.s:51     .text._scheduler_init:00000010 $d
     /tmp/cc5JcN0I.s:56     .text.chSchReadyI:00000000 $t
     /tmp/cc5JcN0I.s:62     .text.chSchReadyI:00000000 chSchReadyI
     /tmp/cc5JcN0I.s:123    .text.chSchReadyI:0000003c $d
     /tmp/cc5JcN0I.s:129    .text.wakeup:00000000 $t
     /tmp/cc5JcN0I.s:134    .text.wakeup:00000000 wakeup
     /tmp/cc5JcN0I.s:166    .text.wakeup:0000001a $d
     /tmp/cc5JcN0I.s:180    .text.wakeup:00000028 $t
     /tmp/cc5JcN0I.s:225    .text.chSchGoSleepS:00000000 $t
     /tmp/cc5JcN0I.s:231    .text.chSchGoSleepS:00000000 chSchGoSleepS
     /tmp/cc5JcN0I.s:320    .text.chSchGoSleepS:00000048 $d
     /tmp/cc5JcN0I.s:327    .text.chSchGoSleepTimeoutS:00000000 $t
     /tmp/cc5JcN0I.s:333    .text.chSchGoSleepTimeoutS:00000000 chSchGoSleepTimeoutS
     /tmp/cc5JcN0I.s:404    .text.chSchGoSleepTimeoutS:00000048 $d
     /tmp/cc5JcN0I.s:410    .text.chSchWakeupS:00000000 $t
     /tmp/cc5JcN0I.s:416    .text.chSchWakeupS:00000000 chSchWakeupS
     /tmp/cc5JcN0I.s:513    .text.chSchWakeupS:0000005c $d
     /tmp/cc5JcN0I.s:521    .text.chSchDoRescheduleBehind:00000000 $t
     /tmp/cc5JcN0I.s:527    .text.chSchDoRescheduleBehind:00000000 chSchDoRescheduleBehind
     /tmp/cc5JcN0I.s:606    .text.chSchDoRescheduleBehind:00000044 $d
     /tmp/cc5JcN0I.s:613    .text.chSchDoRescheduleAhead:00000000 $t
     /tmp/cc5JcN0I.s:619    .text.chSchDoRescheduleAhead:00000000 chSchDoRescheduleAhead
     /tmp/cc5JcN0I.s:716    .text.chSchDoRescheduleAhead:00000058 $d
     /tmp/cc5JcN0I.s:723    .text.chSchRescheduleS:00000000 $t
     /tmp/cc5JcN0I.s:729    .text.chSchRescheduleS:00000000 chSchRescheduleS
     /tmp/cc5JcN0I.s:760    .text.chSchRescheduleS:00000020 $d
     /tmp/cc5JcN0I.s:765    .text.chSchDoReschedule:00000000 $t
     /tmp/cc5JcN0I.s:771    .text.chSchDoReschedule:00000000 chSchDoReschedule
     /tmp/cc5JcN0I.s:793    .text.chSchDoReschedule:00000014 $d
     /tmp/cc5JcN0I.s:810    .bss.rlist:00000000 rlist
     /tmp/cc5JcN0I.s:799    .rodata.str1.4:00000000 $d
     /tmp/cc5JcN0I.s:806    .bss.rlist:00000000 $d
                     .debug_frame:00000010 $d
     /tmp/cc5JcN0I.s:55     .text._scheduler_init:00000014 $t
     /tmp/cc5JcN0I.s:128    .text.chSchReadyI:00000044 $t
     /tmp/cc5JcN0I.s:520    .text.chSchWakeupS:00000064 $t
     /tmp/cc5JcN0I.s:612    .text.chSchDoRescheduleBehind:0000004c $t
     /tmp/cc5JcN0I.s:764    .text.chSchRescheduleS:00000024 $t
     /tmp/cc5JcN0I.s:798    .text.chSchDoReschedule:00000018 $t

UNDEFINED SYMBOLS
chDbgCheckClassI
chDbgPanic
dbg_check_lock_from_isr
dbg_check_unlock_from_isr
chDbgCheckClassS
dbg_trace
_port_switch
chVTSetI
chVTResetI
