ARM GAS  /tmp/cc5JcN0I.s 			page 1


   1              		.syntax unified
   2              		.cpu cortex-m4
   3              		.eabi_attribute 27, 3
   4              		.eabi_attribute 28, 1
   5              		.fpu fpv4-sp-d16
   6              		.eabi_attribute 20, 1
   7              		.eabi_attribute 21, 1
   8              		.eabi_attribute 23, 3
   9              		.eabi_attribute 24, 1
  10              		.eabi_attribute 25, 1
  11              		.eabi_attribute 26, 1
  12              		.eabi_attribute 30, 2
  13              		.eabi_attribute 34, 1
  14              		.eabi_attribute 18, 4
  15              		.thumb
  16              		.file	"chschd.c"
  17              		.text
  18              	.Ltext0:
  19              		.cfi_sections	.debug_frame
  20              		.section	.text._scheduler_init,"ax",%progbits
  21              		.align	2
  22              		.p2align 4,,15
  23              		.global	_scheduler_init
  24              		.thumb
  25              		.thumb_func
  26              		.type	_scheduler_init, %function
  27              	_scheduler_init:
  28              	.LFB7:
  29              		.file 1 "../../os/kernel/src/chschd.c"
  30              		.loc 1 55 0
  31              		.cfi_startproc
  32              		@ args = 0, pretend = 0, frame = 0
  33              		@ frame_needed = 0, uses_anonymous_args = 0
  34              		@ link register save eliminated.
  35              		.loc 1 57 0
  36 0000 034B     		ldr	r3, .L2
  37              		.loc 1 58 0
  38 0002 0022     		movs	r2, #0
  39              		.loc 1 57 0
  40 0004 5B60     		str	r3, [r3, #4]
  41 0006 1B60     		str	r3, [r3]
  42              		.loc 1 60 0
  43 0008 5B61     		str	r3, [r3, #20]
  44 000a 1B61     		str	r3, [r3, #16]
  45              		.loc 1 58 0
  46 000c 9A60     		str	r2, [r3, #8]
  47 000e 7047     		bx	lr
  48              	.L3:
  49              		.align	2
  50              	.L2:
  51 0010 00000000 		.word	.LANCHOR0
  52              		.cfi_endproc
  53              	.LFE7:
  54              		.size	_scheduler_init, .-_scheduler_init
  55 0014 AFF30080 		.section	.text.chSchReadyI,"ax",%progbits
  55      AFF30080 
  55      AFF30080 
ARM GAS  /tmp/cc5JcN0I.s 			page 2


  56              		.align	2
  57              		.p2align 4,,15
  58              		.global	chSchReadyI
  59              		.thumb
  60              		.thumb_func
  61              		.type	chSchReadyI, %function
  62              	chSchReadyI:
  63              	.LFB8:
  64              		.loc 1 81 0
  65              		.cfi_startproc
  66              		@ args = 0, pretend = 0, frame = 0
  67              		@ frame_needed = 0, uses_anonymous_args = 0
  68              	.LVL0:
  69 0000 10B5     		push	{r4, lr}
  70              		.cfi_def_cfa_offset 8
  71              		.cfi_offset 4, -8
  72              		.cfi_offset 14, -4
  73              		.loc 1 81 0
  74 0002 0446     		mov	r4, r0
  75              		.loc 1 84 0
  76 0004 FFF7FEFF 		bl	chDbgCheckClassI
  77              	.LVL1:
  78              		.loc 1 87 0
  79 0008 94F82030 		ldrb	r3, [r4, #32]	@ zero_extendqisi2
  80 000c 8BB1     		cbz	r3, .L5
  81              		.loc 1 87 0 is_stmt 0 discriminator 2
  82 000e 0E2B     		cmp	r3, #14
  83 0010 0FD0     		beq	.L5
  84              	.L6:
  85              		.loc 1 92 0 is_stmt 1
  86 0012 0022     		movs	r2, #0
  87 0014 A168     		ldr	r1, [r4, #8]
  88              		.loc 1 93 0
  89 0016 094B     		ldr	r3, .L13
  90              		.loc 1 92 0
  91 0018 84F82020 		strb	r2, [r4, #32]
  92              	.LVL2:
  93              	.L8:
  94              		.loc 1 95 0 discriminator 1
  95 001c 1B68     		ldr	r3, [r3]
  96              	.LVL3:
  97              		.loc 1 96 0 discriminator 1
  98 001e 9A68     		ldr	r2, [r3, #8]
  99 0020 8A42     		cmp	r2, r1
 100 0022 FBD2     		bcs	.L8
 101              		.loc 1 99 0
 102 0024 5A68     		ldr	r2, [r3, #4]
 103 0026 6260     		str	r2, [r4, #4]
 104              		.loc 1 98 0
 105 0028 2360     		str	r3, [r4]
 106              		.loc 1 102 0
 107 002a 2046     		mov	r0, r4
 108              		.loc 1 100 0
 109 002c 5C60     		str	r4, [r3, #4]
 110 002e 1460     		str	r4, [r2]
 111              		.loc 1 102 0
 112 0030 10BD     		pop	{r4, pc}
ARM GAS  /tmp/cc5JcN0I.s 			page 3


 113              	.LVL4:
 114              	.L5:
 115              		.loc 1 87 0 discriminator 1
 116 0032 0348     		ldr	r0, .L13+4
 117 0034 FFF7FEFF 		bl	chDbgPanic
 118              	.LVL5:
 119 0038 EBE7     		b	.L6
 120              	.L14:
 121 003a 00BF     		.align	2
 122              	.L13:
 123 003c 00000000 		.word	.LANCHOR0
 124 0040 00000000 		.word	.LC0
 125              		.cfi_endproc
 126              	.LFE8:
 127              		.size	chSchReadyI, .-chSchReadyI
 128 0044 AFF30080 		.section	.text.wakeup,"ax",%progbits
 128      AFF30080 
 128      AFF30080 
 129              		.align	2
 130              		.p2align 4,,15
 131              		.thumb
 132              		.thumb_func
 133              		.type	wakeup, %function
 134              	wakeup:
 135              	.LFB10:
 136              		.loc 1 136 0
 137              		.cfi_startproc
 138              		@ args = 0, pretend = 0, frame = 0
 139              		@ frame_needed = 0, uses_anonymous_args = 0
 140              	.LVL6:
 141 0000 10B5     		push	{r4, lr}
 142              		.cfi_def_cfa_offset 8
 143              		.cfi_offset 4, -8
 144              		.cfi_offset 14, -4
 145              	.LBB32:
 146              		.loc 1 139 0
 147 0002 2023     		movs	r3, #32
 148              	.LBE32:
 149              		.loc 1 136 0
 150 0004 0446     		mov	r4, r0
 151              	.LBB33:
 152              		.loc 1 139 0
 153              	@ 139 "../../os/kernel/src/chschd.c" 1
 154 0006 83F31188 		msr     BASEPRI, r3
 155              	@ 0 "" 2
 156              		.thumb
 157              	.LBE33:
 158 000a FFF7FEFF 		bl	dbg_check_lock_from_isr
 159              	.LVL7:
 160              		.loc 1 140 0
 161 000e 94F82030 		ldrb	r3, [r4, #32]	@ zero_extendqisi2
 162 0012 0D2B     		cmp	r3, #13
 163 0014 11D8     		bhi	.L16
 164 0016 DFE803F0 		tbb	[pc, r3]
 165              	.L18:
 166 001a 16       		.byte	(.L22-.L18)/2
 167 001b 10       		.byte	(.L16-.L18)/2
ARM GAS  /tmp/cc5JcN0I.s 			page 4


 168 001c 10       		.byte	(.L16-.L18)/2
 169 001d 07       		.byte	(.L19-.L18)/2
 170 001e 10       		.byte	(.L16-.L18)/2
 171 001f 0B       		.byte	(.L20-.L18)/2
 172 0020 10       		.byte	(.L16-.L18)/2
 173 0021 10       		.byte	(.L16-.L18)/2
 174 0022 10       		.byte	(.L16-.L18)/2
 175 0023 10       		.byte	(.L16-.L18)/2
 176 0024 10       		.byte	(.L16-.L18)/2
 177 0025 10       		.byte	(.L16-.L18)/2
 178 0026 10       		.byte	(.L16-.L18)/2
 179 0027 0B       		.byte	(.L20-.L18)/2
 180              		.p2align 1
 181              	.L19:
 182              		.loc 1 150 0
 183 0028 A36A     		ldr	r3, [r4, #40]
 184 002a 9A68     		ldr	r2, [r3, #8]
 185 002c 0132     		adds	r2, r2, #1
 186 002e 9A60     		str	r2, [r3, #8]
 187              	.L20:
 188              	.LVL8:
 189              	.LBB34:
 190              	.LBB35:
 191              		.file 2 "../../os/kernel/include/chinline.h"
 192              		.loc 2 75 0
 193 0030 94E80C00 		ldmia	r4, {r2, r3}
 194 0034 1A60     		str	r2, [r3]
 195              		.loc 2 76 0
 196 0036 2268     		ldr	r2, [r4]
 197 0038 5360     		str	r3, [r2, #4]
 198              	.LVL9:
 199              	.L16:
 200              	.LBE35:
 201              	.LBE34:
 202              		.loc 1 163 0
 203 003a 4FF0FF33 		mov	r3, #-1
 204 003e A362     		str	r3, [r4, #40]
 205              		.loc 1 164 0
 206 0040 2046     		mov	r0, r4
 207 0042 FFF7FEFF 		bl	chSchReadyI
 208              	.LVL10:
 209              	.L22:
 210              		.loc 1 165 0
 211 0046 FFF7FEFF 		bl	dbg_check_unlock_from_isr
 212              	.LVL11:
 213              	.LBB36:
 214 004a 0023     		movs	r3, #0
 215              	@ 165 "../../os/kernel/src/chschd.c" 1
 216 004c 83F31188 		msr     BASEPRI, r3
 217              	@ 0 "" 2
 218              		.thumb
 219 0050 10BD     		pop	{r4, pc}
 220              	.LBE36:
 221              		.cfi_endproc
 222              	.LFE10:
 223              		.size	wakeup, .-wakeup
 224 0052 00BFAFF3 		.section	.text.chSchGoSleepS,"ax",%progbits
ARM GAS  /tmp/cc5JcN0I.s 			page 5


 224      0080AFF3 
 224      0080AFF3 
 224      0080
 225              		.align	2
 226              		.p2align 4,,15
 227              		.global	chSchGoSleepS
 228              		.thumb
 229              		.thumb_func
 230              		.type	chSchGoSleepS, %function
 231              	chSchGoSleepS:
 232              	.LFB9:
 233              		.loc 1 115 0
 234              		.cfi_startproc
 235              		@ args = 0, pretend = 0, frame = 0
 236              		@ frame_needed = 0, uses_anonymous_args = 0
 237              	.LVL12:
 238 0000 70B5     		push	{r4, r5, r6, lr}
 239              		.cfi_def_cfa_offset 16
 240              		.cfi_offset 4, -16
 241              		.cfi_offset 5, -12
 242              		.cfi_offset 6, -8
 243              		.cfi_offset 14, -4
 244              		.loc 1 120 0
 245 0002 114C     		ldr	r4, .L25
 246              		.loc 1 115 0
 247 0004 0646     		mov	r6, r0
 248              		.loc 1 118 0
 249 0006 FFF7FEFF 		bl	chDbgCheckClassS
 250              	.LVL13:
 251              	.LBB37:
 252              	.LBB38:
 253              		.loc 2 60 0
 254 000a 2368     		ldr	r3, [r4]
 255              	.LBE38:
 256              	.LBE37:
 257              		.loc 1 120 0
 258 000c A569     		ldr	r5, [r4, #24]
 259              	.LVL14:
 260              	.LBB42:
 261              	.LBB39:
 262              		.loc 2 62 0
 263 000e 1A68     		ldr	r2, [r3]
 264              	.LBE39:
 265              	.LBE42:
 266              		.loc 1 120 0
 267 0010 85F82060 		strb	r6, [r5, #32]
 268              		.loc 1 124 0
 269 0014 1420     		movs	r0, #20
 270              		.loc 1 127 0
 271 0016 0121     		movs	r1, #1
 272              		.loc 1 124 0
 273 0018 85F82300 		strb	r0, [r5, #35]
 274              	.LVL15:
 275              	.LBB43:
 276              	.LBB40:
 277              		.loc 2 62 0
 278 001c 5460     		str	r4, [r2, #4]
ARM GAS  /tmp/cc5JcN0I.s 			page 6


 279              	.LBE40:
 280              	.LBE43:
 281              		.loc 1 128 0
 282 001e 2846     		mov	r0, r5
 283              		.loc 1 127 0
 284 0020 83F82010 		strb	r1, [r3, #32]
 285              	.LBB44:
 286              	.LBB41:
 287              		.loc 2 62 0
 288 0024 2260     		str	r2, [r4]
 289              	.LBE41:
 290              	.LBE44:
 291              		.loc 1 126 0
 292 0026 A361     		str	r3, [r4, #24]
 293              		.loc 1 128 0
 294 0028 FFF7FEFF 		bl	dbg_trace
 295              	.LVL16:
 296              	.LBB45:
 297 002c EB69     		ldr	r3, [r5, #28]
 298 002e ADF16402 		sub	r2, sp, #100
 299 0032 9342     		cmp	r3, r2
 300 0034 02D9     		bls	.L24
 301              		.loc 1 128 0 is_stmt 0 discriminator 1
 302 0036 0548     		ldr	r0, .L25+4
 303 0038 FFF7FEFF 		bl	chDbgPanic
 304              	.LVL17:
 305              	.L24:
 306              		.loc 1 128 0 discriminator 2
 307 003c A069     		ldr	r0, [r4, #24]
 308 003e 2946     		mov	r1, r5
 309              	.LBE45:
 310              		.loc 1 129 0 is_stmt 1 discriminator 2
 311 0040 BDE87040 		pop	{r4, r5, r6, lr}
 312              	.LVL18:
 313              	.LBB46:
 314              		.loc 1 128 0 discriminator 2
 315 0044 FFF7FEBF 		b	_port_switch
 316              	.LVL19:
 317              	.L26:
 318              		.align	2
 319              	.L25:
 320 0048 00000000 		.word	.LANCHOR0
 321 004c 14000000 		.word	.LC1
 322              	.LBE46:
 323              		.cfi_endproc
 324              	.LFE9:
 325              		.size	chSchGoSleepS, .-chSchGoSleepS
 326              		.section	.text.chSchGoSleepTimeoutS,"ax",%progbits
 327              		.align	2
 328              		.p2align 4,,15
 329              		.global	chSchGoSleepTimeoutS
 330              		.thumb
 331              		.thumb_func
 332              		.type	chSchGoSleepTimeoutS, %function
 333              	chSchGoSleepTimeoutS:
 334              	.LFB11:
 335              		.loc 1 189 0
ARM GAS  /tmp/cc5JcN0I.s 			page 7


 336              		.cfi_startproc
 337              		@ args = 0, pretend = 0, frame = 24
 338              		@ frame_needed = 0, uses_anonymous_args = 0
 339              	.LVL20:
 340 0000 70B5     		push	{r4, r5, r6, lr}
 341              		.cfi_def_cfa_offset 16
 342              		.cfi_offset 4, -16
 343              		.cfi_offset 5, -12
 344              		.cfi_offset 6, -8
 345              		.cfi_offset 14, -4
 346 0002 0C46     		mov	r4, r1
 347 0004 86B0     		sub	sp, sp, #24
 348              		.cfi_def_cfa_offset 40
 349              		.loc 1 189 0
 350 0006 0646     		mov	r6, r0
 351              		.loc 1 191 0
 352 0008 FFF7FEFF 		bl	chDbgCheckClassS
 353              	.LVL21:
 354              		.loc 1 193 0
 355 000c 631C     		adds	r3, r4, #1
 356 000e 12D0     		beq	.L28
 357              	.LBB47:
 358              		.loc 1 196 0
 359 0010 0D4D     		ldr	r5, .L34
 360 0012 0E4A     		ldr	r2, .L34+4
 361 0014 AB69     		ldr	r3, [r5, #24]
 362 0016 2146     		mov	r1, r4
 363 0018 01A8     		add	r0, sp, #4
 364 001a FFF7FEFF 		bl	chVTSetI
 365              	.LVL22:
 366              		.loc 1 197 0
 367 001e 3046     		mov	r0, r6
 368 0020 FFF7FEFF 		bl	chSchGoSleepS
 369              	.LVL23:
 370              		.loc 1 198 0
 371 0024 049B     		ldr	r3, [sp, #16]
 372 0026 13B1     		cbz	r3, .L30
 373              		.loc 1 199 0
 374 0028 01A8     		add	r0, sp, #4
 375 002a FFF7FEFF 		bl	chVTResetI
 376              	.LVL24:
 377              	.L30:
 378              	.LBE47:
 379              		.loc 1 203 0
 380 002e AB69     		ldr	r3, [r5, #24]
 381              		.loc 1 204 0
 382 0030 986A     		ldr	r0, [r3, #40]
 383 0032 06B0     		add	sp, sp, #24
 384              		@ sp needed
 385 0034 70BD     		pop	{r4, r5, r6, pc}
 386              	.LVL25:
 387              	.L28:
 388 0036 044D     		ldr	r5, .L34
 389              		.loc 1 202 0
 390 0038 3046     		mov	r0, r6
 391 003a FFF7FEFF 		bl	chSchGoSleepS
 392              	.LVL26:
ARM GAS  /tmp/cc5JcN0I.s 			page 8


 393              		.loc 1 203 0
 394 003e AB69     		ldr	r3, [r5, #24]
 395              		.loc 1 204 0
 396 0040 986A     		ldr	r0, [r3, #40]
 397 0042 06B0     		add	sp, sp, #24
 398              		@ sp needed
 399 0044 70BD     		pop	{r4, r5, r6, pc}
 400              	.LVL27:
 401              	.L35:
 402 0046 00BF     		.align	2
 403              	.L34:
 404 0048 00000000 		.word	.LANCHOR0
 405 004c 00000000 		.word	wakeup
 406              		.cfi_endproc
 407              	.LFE11:
 408              		.size	chSchGoSleepTimeoutS, .-chSchGoSleepTimeoutS
 409              		.section	.text.chSchWakeupS,"ax",%progbits
 410              		.align	2
 411              		.p2align 4,,15
 412              		.global	chSchWakeupS
 413              		.thumb
 414              		.thumb_func
 415              		.type	chSchWakeupS, %function
 416              	chSchWakeupS:
 417              	.LFB12:
 418              		.loc 1 225 0
 419              		.cfi_startproc
 420              		@ args = 0, pretend = 0, frame = 0
 421              		@ frame_needed = 0, uses_anonymous_args = 0
 422              	.LVL28:
 423 0000 70B5     		push	{r4, r5, r6, lr}
 424              		.cfi_def_cfa_offset 16
 425              		.cfi_offset 4, -16
 426              		.cfi_offset 5, -12
 427              		.cfi_offset 6, -8
 428              		.cfi_offset 14, -4
 429              		.loc 1 234 0
 430 0002 164D     		ldr	r5, .L41
 431              		.loc 1 225 0
 432 0004 0446     		mov	r4, r0
 433 0006 0E46     		mov	r6, r1
 434              		.loc 1 227 0
 435 0008 FFF7FEFF 		bl	chDbgCheckClassS
 436              	.LVL29:
 437              		.loc 1 234 0
 438 000c A869     		ldr	r0, [r5, #24]
 439 000e A368     		ldr	r3, [r4, #8]
 440 0010 8268     		ldr	r2, [r0, #8]
 441              		.loc 1 229 0
 442 0012 A662     		str	r6, [r4, #40]
 443              		.loc 1 234 0
 444 0014 9342     		cmp	r3, r2
 445 0016 13D9     		bls	.L39
 446              	.LBB48:
 447              		.loc 1 237 0
 448 0018 FFF7FEFF 		bl	chSchReadyI
 449              	.LVL30:
ARM GAS  /tmp/cc5JcN0I.s 			page 9


 450              		.loc 1 239 0
 451 001c 0123     		movs	r3, #1
 452              		.loc 1 237 0
 453 001e 0646     		mov	r6, r0
 454              	.LVL31:
 455              		.loc 1 239 0
 456 0020 84F82030 		strb	r3, [r4, #32]
 457              		.loc 1 238 0
 458 0024 AC61     		str	r4, [r5, #24]
 459              		.loc 1 240 0
 460 0026 FFF7FEFF 		bl	dbg_trace
 461              	.LVL32:
 462              	.LBB49:
 463 002a F369     		ldr	r3, [r6, #28]
 464 002c ADF16402 		sub	r2, sp, #100
 465 0030 9342     		cmp	r3, r2
 466 0032 0AD8     		bhi	.L40
 467              		.loc 1 240 0 is_stmt 0 discriminator 2
 468 0034 2046     		mov	r0, r4
 469 0036 3146     		mov	r1, r6
 470              	.LBE49:
 471              	.LBE48:
 472              		.loc 1 242 0 is_stmt 1 discriminator 2
 473 0038 BDE87040 		pop	{r4, r5, r6, lr}
 474              	.LVL33:
 475              	.LBB53:
 476              	.LBB50:
 477              		.loc 1 240 0 discriminator 2
 478 003c FFF7FEBF 		b	_port_switch
 479              	.LVL34:
 480              	.L39:
 481              	.LBE50:
 482              	.LBE53:
 483              		.loc 1 235 0
 484 0040 2046     		mov	r0, r4
 485              		.loc 1 242 0
 486 0042 BDE87040 		pop	{r4, r5, r6, lr}
 487              	.LVL35:
 488              		.loc 1 235 0
 489 0046 FFF7FEBF 		b	chSchReadyI
 490              	.LVL36:
 491              	.L40:
 492              	.LBB54:
 493              	.LBB51:
 494              		.loc 1 240 0 discriminator 1
 495 004a 0548     		ldr	r0, .L41+4
 496 004c FFF7FEFF 		bl	chDbgPanic
 497              	.LVL37:
 498 0050 2046     		mov	r0, r4
 499 0052 3146     		mov	r1, r6
 500              	.LBE51:
 501              	.LBE54:
 502              		.loc 1 242 0 discriminator 1
 503 0054 BDE87040 		pop	{r4, r5, r6, lr}
 504              	.LVL38:
 505              	.LBB55:
 506              	.LBB52:
ARM GAS  /tmp/cc5JcN0I.s 			page 10


 507              		.loc 1 240 0 discriminator 1
 508 0058 FFF7FEBF 		b	_port_switch
 509              	.LVL39:
 510              	.L42:
 511              		.align	2
 512              	.L41:
 513 005c 00000000 		.word	.LANCHOR0
 514 0060 14000000 		.word	.LC1
 515              	.LBE52:
 516              	.LBE55:
 517              		.cfi_endproc
 518              	.LFE12:
 519              		.size	chSchWakeupS, .-chSchWakeupS
 520 0064 AFF30080 		.section	.text.chSchDoRescheduleBehind,"ax",%progbits
 520      AFF30080 
 520      AFF30080 
 521              		.align	2
 522              		.p2align 4,,15
 523              		.global	chSchDoRescheduleBehind
 524              		.thumb
 525              		.thumb_func
 526              		.type	chSchDoRescheduleBehind, %function
 527              	chSchDoRescheduleBehind:
 528              	.LFB14:
 529              		.loc 1 304 0
 530              		.cfi_startproc
 531              		@ args = 0, pretend = 0, frame = 0
 532              		@ frame_needed = 0, uses_anonymous_args = 0
 533 0000 70B5     		push	{r4, r5, r6, lr}
 534              		.cfi_def_cfa_offset 16
 535              		.cfi_offset 4, -16
 536              		.cfi_offset 5, -12
 537              		.cfi_offset 6, -8
 538              		.cfi_offset 14, -4
 539              		.loc 1 307 0
 540 0002 104C     		ldr	r4, .L45
 541              	.LBB56:
 542              	.LBB57:
 543              		.loc 2 60 0
 544 0004 2368     		ldr	r3, [r4]
 545              	.LBE57:
 546              	.LBE56:
 547              		.loc 1 307 0
 548 0006 A569     		ldr	r5, [r4, #24]
 549              	.LVL40:
 550              	.LBB60:
 551              	.LBB58:
 552              		.loc 2 62 0
 553 0008 1A68     		ldr	r2, [r3]
 554 000a 2260     		str	r2, [r4]
 555              	.LBE58:
 556              	.LBE60:
 557              		.loc 1 312 0
 558 000c 1421     		movs	r1, #20
 559              		.loc 1 310 0
 560 000e 0126     		movs	r6, #1
 561              	.LBB61:
ARM GAS  /tmp/cc5JcN0I.s 			page 11


 562              	.LBB59:
 563              		.loc 2 62 0
 564 0010 5460     		str	r4, [r2, #4]
 565              	.LBE59:
 566              	.LBE61:
 567              		.loc 1 314 0
 568 0012 2846     		mov	r0, r5
 569              		.loc 1 310 0
 570 0014 83F82060 		strb	r6, [r3, #32]
 571              		.loc 1 312 0
 572 0018 85F82310 		strb	r1, [r5, #35]
 573              		.loc 1 309 0
 574 001c A361     		str	r3, [r4, #24]
 575              		.loc 1 314 0
 576 001e FFF7FEFF 		bl	chSchReadyI
 577              	.LVL41:
 578              		.loc 1 315 0
 579 0022 2846     		mov	r0, r5
 580 0024 FFF7FEFF 		bl	dbg_trace
 581              	.LVL42:
 582              	.LBB62:
 583 0028 EB69     		ldr	r3, [r5, #28]
 584 002a ADF16402 		sub	r2, sp, #100
 585 002e 9342     		cmp	r3, r2
 586 0030 02D9     		bls	.L44
 587              		.loc 1 315 0 is_stmt 0 discriminator 1
 588 0032 0548     		ldr	r0, .L45+4
 589 0034 FFF7FEFF 		bl	chDbgPanic
 590              	.LVL43:
 591              	.L44:
 592              		.loc 1 315 0 discriminator 2
 593 0038 A069     		ldr	r0, [r4, #24]
 594 003a 2946     		mov	r1, r5
 595              	.LBE62:
 596              		.loc 1 316 0 is_stmt 1 discriminator 2
 597 003c BDE87040 		pop	{r4, r5, r6, lr}
 598              	.LVL44:
 599              	.LBB63:
 600              		.loc 1 315 0 discriminator 2
 601 0040 FFF7FEBF 		b	_port_switch
 602              	.LVL45:
 603              	.L46:
 604              		.align	2
 605              	.L45:
 606 0044 00000000 		.word	.LANCHOR0
 607 0048 14000000 		.word	.LC1
 608              	.LBE63:
 609              		.cfi_endproc
 610              	.LFE14:
 611              		.size	chSchDoRescheduleBehind, .-chSchDoRescheduleBehind
 612 004c AFF30080 		.section	.text.chSchDoRescheduleAhead,"ax",%progbits
 613              		.align	2
 614              		.p2align 4,,15
 615              		.global	chSchDoRescheduleAhead
 616              		.thumb
 617              		.thumb_func
 618              		.type	chSchDoRescheduleAhead, %function
ARM GAS  /tmp/cc5JcN0I.s 			page 12


 619              	chSchDoRescheduleAhead:
 620              	.LFB15:
 621              		.loc 1 329 0
 622              		.cfi_startproc
 623              		@ args = 0, pretend = 0, frame = 0
 624              		@ frame_needed = 0, uses_anonymous_args = 0
 625 0000 70B5     		push	{r4, r5, r6, lr}
 626              		.cfi_def_cfa_offset 16
 627              		.cfi_offset 4, -16
 628              		.cfi_offset 5, -12
 629              		.cfi_offset 6, -8
 630              		.cfi_offset 14, -4
 631              		.loc 1 332 0
 632 0002 154E     		ldr	r6, .L52
 633              	.LBB64:
 634              	.LBB65:
 635              		.loc 2 60 0
 636 0004 3268     		ldr	r2, [r6]
 637              	.LBE65:
 638              	.LBE64:
 639              		.loc 1 332 0
 640 0006 B569     		ldr	r5, [r6, #24]
 641              	.LVL46:
 642              	.LBB68:
 643              	.LBB66:
 644              		.loc 2 62 0
 645 0008 1368     		ldr	r3, [r2]
 646 000a AC68     		ldr	r4, [r5, #8]
 647 000c 3360     		str	r3, [r6]
 648              	.LBE66:
 649              	.LBE68:
 650              		.loc 1 335 0
 651 000e 0120     		movs	r0, #1
 652              		.loc 1 337 0
 653 0010 0021     		movs	r1, #0
 654              	.LBB69:
 655              	.LBB67:
 656              		.loc 2 62 0
 657 0012 5E60     		str	r6, [r3, #4]
 658              	.LBE67:
 659              	.LBE69:
 660              		.loc 1 335 0
 661 0014 82F82000 		strb	r0, [r2, #32]
 662              		.loc 1 337 0
 663 0018 1346     		mov	r3, r2
 664              		.loc 1 334 0
 665 001a B261     		str	r2, [r6, #24]
 666              		.loc 1 337 0
 667 001c 85F82010 		strb	r1, [r5, #32]
 668              	.LVL47:
 669 0020 00E0     		b	.L49
 670              	.LVL48:
 671              	.L51:
 672 0022 1B68     		ldr	r3, [r3]
 673              	.LVL49:
 674              	.L49:
 675              		.loc 1 341 0 discriminator 1
ARM GAS  /tmp/cc5JcN0I.s 			page 13


 676 0024 9A68     		ldr	r2, [r3, #8]
 677 0026 A242     		cmp	r2, r4
 678 0028 FBD8     		bhi	.L51
 679              		.loc 1 344 0
 680 002a 5A68     		ldr	r2, [r3, #4]
 681 002c 6A60     		str	r2, [r5, #4]
 682              		.loc 1 343 0
 683 002e 2B60     		str	r3, [r5]
 684              		.loc 1 347 0
 685 0030 2846     		mov	r0, r5
 686              		.loc 1 345 0
 687 0032 5D60     		str	r5, [r3, #4]
 688 0034 1560     		str	r5, [r2]
 689              		.loc 1 347 0
 690 0036 FFF7FEFF 		bl	dbg_trace
 691              	.LVL50:
 692              	.LBB70:
 693 003a EB69     		ldr	r3, [r5, #28]
 694 003c ADF16402 		sub	r2, sp, #100
 695 0040 9342     		cmp	r3, r2
 696 0042 02D9     		bls	.L50
 697              		.loc 1 347 0 is_stmt 0 discriminator 1
 698 0044 0548     		ldr	r0, .L52+4
 699 0046 FFF7FEFF 		bl	chDbgPanic
 700              	.LVL51:
 701              	.L50:
 702              		.loc 1 347 0 discriminator 2
 703 004a B069     		ldr	r0, [r6, #24]
 704 004c 2946     		mov	r1, r5
 705              	.LBE70:
 706              		.loc 1 348 0 is_stmt 1 discriminator 2
 707 004e BDE87040 		pop	{r4, r5, r6, lr}
 708              	.LVL52:
 709              	.LBB71:
 710              		.loc 1 347 0 discriminator 2
 711 0052 FFF7FEBF 		b	_port_switch
 712              	.LVL53:
 713              	.L53:
 714 0056 00BF     		.align	2
 715              	.L52:
 716 0058 00000000 		.word	.LANCHOR0
 717 005c 14000000 		.word	.LC1
 718              	.LBE71:
 719              		.cfi_endproc
 720              	.LFE15:
 721              		.size	chSchDoRescheduleAhead, .-chSchDoRescheduleAhead
 722              		.section	.text.chSchRescheduleS,"ax",%progbits
 723              		.align	2
 724              		.p2align 4,,15
 725              		.global	chSchRescheduleS
 726              		.thumb
 727              		.thumb_func
 728              		.type	chSchRescheduleS, %function
 729              	chSchRescheduleS:
 730              	.LFB13:
 731              		.loc 1 253 0
 732              		.cfi_startproc
ARM GAS  /tmp/cc5JcN0I.s 			page 14


 733              		@ args = 0, pretend = 0, frame = 0
 734              		@ frame_needed = 0, uses_anonymous_args = 0
 735 0000 08B5     		push	{r3, lr}
 736              		.cfi_def_cfa_offset 8
 737              		.cfi_offset 3, -8
 738              		.cfi_offset 14, -4
 739              		.loc 1 255 0
 740 0002 FFF7FEFF 		bl	chDbgCheckClassS
 741              	.LVL54:
 742              		.loc 1 257 0
 743 0006 064B     		ldr	r3, .L57
 744 0008 1A68     		ldr	r2, [r3]
 745 000a 9B69     		ldr	r3, [r3, #24]
 746 000c 9268     		ldr	r2, [r2, #8]
 747 000e 9B68     		ldr	r3, [r3, #8]
 748 0010 9A42     		cmp	r2, r3
 749 0012 00D8     		bhi	.L56
 750 0014 08BD     		pop	{r3, pc}
 751              	.L56:
 752              		.loc 1 259 0
 753 0016 BDE80840 		pop	{r3, lr}
 754              		.loc 1 258 0
 755 001a FFF7FEBF 		b	chSchDoRescheduleAhead
 756              	.LVL55:
 757              	.L58:
 758 001e 00BF     		.align	2
 759              	.L57:
 760 0020 00000000 		.word	.LANCHOR0
 761              		.cfi_endproc
 762              	.LFE13:
 763              		.size	chSchRescheduleS, .-chSchRescheduleS
 764 0024 AFF30080 		.section	.text.chSchDoReschedule,"ax",%progbits
 764      AFF30080 
 764      AFF30080 
 765              		.align	2
 766              		.p2align 4,,15
 767              		.global	chSchDoReschedule
 768              		.thumb
 769              		.thumb_func
 770              		.type	chSchDoReschedule, %function
 771              	chSchDoReschedule:
 772              	.LFB16:
 773              		.loc 1 362 0
 774              		.cfi_startproc
 775              		@ args = 0, pretend = 0, frame = 0
 776              		@ frame_needed = 0, uses_anonymous_args = 0
 777              		@ link register save eliminated.
 778              		.loc 1 367 0
 779 0000 044B     		ldr	r3, .L62
 780 0002 9B69     		ldr	r3, [r3, #24]
 781 0004 93F82330 		ldrb	r3, [r3, #35]	@ zero_extendqisi2
 782 0008 0BB1     		cbz	r3, .L61
 783              		.loc 1 375 0
 784 000a FFF7FEBF 		b	chSchDoRescheduleAhead
 785              	.LVL56:
 786              	.L61:
 787              		.loc 1 370 0
ARM GAS  /tmp/cc5JcN0I.s 			page 15


 788 000e FFF7FEBF 		b	chSchDoRescheduleBehind
 789              	.LVL57:
 790              	.L63:
 791 0012 00BF     		.align	2
 792              	.L62:
 793 0014 00000000 		.word	.LANCHOR0
 794              		.cfi_endproc
 795              	.LFE16:
 796              		.size	chSchDoReschedule, .-chSchDoReschedule
 797              		.global	rlist
 798 0018 AFF30080 		.section	.rodata.str1.4,"aMS",%progbits,1
 798      AFF30080 
 799              		.align	2
 800              	.LC0:
 801 0000 63685363 		.ascii	"chSchReadyI(), #1\000"
 801      68526561 
 801      64794928 
 801      292C2023 
 801      3100
 802 0012 0000     		.space	2
 803              	.LC1:
 804 0014 73746163 		.ascii	"stack overflow\000"
 804      6B206F76 
 804      6572666C 
 804      6F7700
 805 0023 00       		.section	.bss.rlist,"aw",%nobits
 806              		.align	2
 807              		.set	.LANCHOR0,. + 0
 808              		.type	rlist, %object
 809              		.size	rlist, 28
 810              	rlist:
 811 0000 00000000 		.space	28
 811      00000000 
 811      00000000 
 811      00000000 
 811      00000000 
 812              		.text
 813              	.Letext0:
 814              		.file 3 "/opt/ARM/arm-none-eabi/include/machine/_default_types.h"
 815              		.file 4 "/opt/ARM/arm-none-eabi/include/stdint.h"
 816              		.file 5 "../../os/ports/GCC/ARMCMx/chtypes.h"
 817              		.file 6 "../../os/kernel/include/chlists.h"
 818              		.file 7 "../../os/kernel/include/chthreads.h"
 819              		.file 8 "../../os/ports/GCC/ARMCMx/chcore_v7m.h"
 820              		.file 9 "../../os/kernel/include/chvt.h"
 821              		.file 10 "../../os/kernel/include/chschd.h"
 822              		.file 11 "../../os/kernel/include/chsem.h"
 823              		.file 12 "../../os/kernel/include/chmtx.h"
 824              		.file 13 "../../os/kernel/include/chdebug.h"