ARM GAS  /tmp/ccBFD0yx.s 			page 1


   1              		.syntax unified
   2              		.cpu cortex-m4
   3              		.eabi_attribute 27, 3
   4              		.eabi_attribute 28, 1
   5              		.fpu fpv4-sp-d16
   6              		.eabi_attribute 20, 1
   7              		.eabi_attribute 21, 1
   8              		.eabi_attribute 23, 3
   9              		.eabi_attribute 24, 1
  10              		.eabi_attribute 25, 1
  11              		.eabi_attribute 26, 1
  12              		.eabi_attribute 30, 2
  13              		.eabi_attribute 34, 1
  14              		.eabi_attribute 18, 4
  15              		.thumb
  16              		.file	"chsem.c"
  17              		.text
  18              	.Ltext0:
  19              		.cfi_sections	.debug_frame
  20              		.section	.text.chSemInit,"ax",%progbits
  21              		.align	2
  22              		.p2align 4,,15
  23              		.global	chSemInit
  24              		.thumb
  25              		.thumb_func
  26              		.type	chSemInit, %function
  27              	chSemInit:
  28              	.LFB0:
  29              		.file 1 "../../os/kernel/src/chsem.c"
  30              		.loc 1 86 0
  31              		.cfi_startproc
  32              		@ args = 0, pretend = 0, frame = 0
  33              		@ frame_needed = 0, uses_anonymous_args = 0
  34              	.LVL0:
  35 0000 38B5     		push	{r3, r4, r5, lr}
  36              		.cfi_def_cfa_offset 16
  37              		.cfi_offset 3, -16
  38              		.cfi_offset 4, -12
  39              		.cfi_offset 5, -8
  40              		.cfi_offset 14, -4
  41              		.loc 1 88 0
  42 0002 0446     		mov	r4, r0
  43              		.loc 1 86 0
  44 0004 0D46     		mov	r5, r1
  45              		.loc 1 88 0
  46 0006 28B1     		cbz	r0, .L2
  47              		.loc 1 88 0 is_stmt 0 discriminator 2
  48 0008 0029     		cmp	r1, #0
  49 000a 03DB     		blt	.L2
  50              		.loc 1 90 0 is_stmt 1
  51 000c 6460     		str	r4, [r4, #4]
  52 000e 2460     		str	r4, [r4]
  53              		.loc 1 91 0
  54 0010 A560     		str	r5, [r4, #8]
  55 0012 38BD     		pop	{r3, r4, r5, pc}
  56              	.L2:
  57              		.loc 1 88 0 discriminator 1
ARM GAS  /tmp/ccBFD0yx.s 			page 2


  58 0014 0348     		ldr	r0, .L8
  59              	.LVL1:
  60 0016 FFF7FEFF 		bl	chDbgPanic
  61              	.LVL2:
  62              		.loc 1 90 0 discriminator 1
  63 001a 6460     		str	r4, [r4, #4]
  64 001c 2460     		str	r4, [r4]
  65              		.loc 1 91 0 discriminator 1
  66 001e A560     		str	r5, [r4, #8]
  67 0020 38BD     		pop	{r3, r4, r5, pc}
  68              	.LVL3:
  69              	.L9:
  70 0022 00BF     		.align	2
  71              	.L8:
  72 0024 00000000 		.word	.LC0
  73              		.cfi_endproc
  74              	.LFE0:
  75              		.size	chSemInit, .-chSemInit
  76 0028 AFF30080 		.section	.text.chSemResetI,"ax",%progbits
  76      AFF30080 
  77              		.align	2
  78              		.p2align 4,,15
  79              		.global	chSemResetI
  80              		.thumb
  81              		.thumb_func
  82              		.type	chSemResetI, %function
  83              	chSemResetI:
  84              	.LFB2:
  85              		.loc 1 136 0
  86              		.cfi_startproc
  87              		@ args = 0, pretend = 0, frame = 0
  88              		@ frame_needed = 0, uses_anonymous_args = 0
  89              	.LVL4:
  90 0000 70B5     		push	{r4, r5, r6, lr}
  91              		.cfi_def_cfa_offset 16
  92              		.cfi_offset 4, -16
  93              		.cfi_offset 5, -12
  94              		.cfi_offset 6, -8
  95              		.cfi_offset 14, -4
  96              		.loc 1 140 0
  97 0002 0546     		mov	r5, r0
  98              		.loc 1 136 0
  99 0004 0E46     		mov	r6, r1
 100              		.loc 1 140 0
 101 0006 F0B1     		cbz	r0, .L11
 102              		.loc 1 140 0 is_stmt 0 discriminator 2
 103 0008 0029     		cmp	r1, #0
 104 000a 1CDB     		blt	.L11
 105              	.LVL5:
 106              	.L12:
 107              		.loc 1 141 0 is_stmt 1
 108 000c AC68     		ldr	r4, [r5, #8]
 109 000e 2B68     		ldr	r3, [r5]
 110 0010 002C     		cmp	r4, #0
 111 0012 15DB     		blt	.L13
 112              		.loc 1 141 0 is_stmt 0 discriminator 2
 113 0014 AB42     		cmp	r3, r5
ARM GAS  /tmp/ccBFD0yx.s 			page 3


 114 0016 03D0     		beq	.L15
 115              	.L14:
 116              		.loc 1 141 0 discriminator 1
 117 0018 0D48     		ldr	r0, .L25
 118 001a FFF7FEFF 		bl	chDbgPanic
 119              	.LVL6:
 120 001e AC68     		ldr	r4, [r5, #8]
 121              	.L15:
 122              	.LVL7:
 123              		.loc 1 148 0 is_stmt 1
 124 0020 0134     		adds	r4, r4, #1
 125              	.LVL8:
 126 0022 002C     		cmp	r4, #0
 127              		.loc 1 147 0
 128 0024 AE60     		str	r6, [r5, #8]
 129              	.LVL9:
 130              		.loc 1 148 0
 131 0026 0ADC     		bgt	.L10
 132              		.loc 1 149 0
 133 0028 6FF00106 		mvn	r6, #1
 134              	.LVL10:
 135              	.L18:
 136 002c 2846     		mov	r0, r5
 137 002e FFF7FEFF 		bl	lifo_remove
 138              	.LVL11:
 139 0032 FFF7FEFF 		bl	chSchReadyI
 140              	.LVL12:
 141              		.loc 1 148 0
 142 0036 0134     		adds	r4, r4, #1
 143              	.LVL13:
 144 0038 012C     		cmp	r4, #1
 145              		.loc 1 149 0
 146 003a 8662     		str	r6, [r0, #40]
 147              	.LVL14:
 148              		.loc 1 148 0
 149 003c F6D1     		bne	.L18
 150              	.L10:
 151 003e 70BD     		pop	{r4, r5, r6, pc}
 152              	.LVL15:
 153              	.L13:
 154              		.loc 1 141 0 discriminator 2
 155 0040 AB42     		cmp	r3, r5
 156 0042 EDD1     		bne	.L15
 157 0044 E8E7     		b	.L14
 158              	.LVL16:
 159              	.L11:
 160              		.loc 1 140 0 discriminator 1
 161 0046 0348     		ldr	r0, .L25+4
 162              	.LVL17:
 163 0048 FFF7FEFF 		bl	chDbgPanic
 164              	.LVL18:
 165 004c DEE7     		b	.L12
 166              	.L26:
 167 004e 00BF     		.align	2
 168              	.L25:
 169 0050 20000000 		.word	.LC2
 170 0054 10000000 		.word	.LC1
ARM GAS  /tmp/ccBFD0yx.s 			page 4


 171              		.cfi_endproc
 172              	.LFE2:
 173              		.size	chSemResetI, .-chSemResetI
 174 0058 AFF30080 		.section	.text.chSemReset,"ax",%progbits
 174      AFF30080 
 175              		.align	2
 176              		.p2align 4,,15
 177              		.global	chSemReset
 178              		.thumb
 179              		.thumb_func
 180              		.type	chSemReset, %function
 181              	chSemReset:
 182              	.LFB1:
 183              		.loc 1 109 0
 184              		.cfi_startproc
 185              		@ args = 0, pretend = 0, frame = 0
 186              		@ frame_needed = 0, uses_anonymous_args = 0
 187              	.LVL19:
 188 0000 08B5     		push	{r3, lr}
 189              		.cfi_def_cfa_offset 8
 190              		.cfi_offset 3, -8
 191              		.cfi_offset 14, -4
 192              		.loc 1 111 0
 193              	@ 111 "../../os/kernel/src/chsem.c" 1
 194 0002 FFF7FEFF 		bl      _port_lock
 195              	@ 0 "" 2
 196              		.loc 1 112 0
 197              		.thumb
 198 0006 FFF7FEFF 		bl	chSemResetI
 199              	.LVL20:
 200              		.loc 1 113 0
 201 000a FFF7FEFF 		bl	chSchRescheduleS
 202              	.LVL21:
 203              		.loc 1 114 0
 204              	@ 114 "../../os/kernel/src/chsem.c" 1
 205 000e FFF7FEFF 		bl      _port_unlock
 206              	@ 0 "" 2
 207              		.thumb
 208 0012 08BD     		pop	{r3, pc}
 209              		.cfi_endproc
 210              	.LFE1:
 211              		.size	chSemReset, .-chSemReset
 212 0014 AFF30080 		.section	.text.chSemWaitS,"ax",%progbits
 212      AFF30080 
 212      AFF30080 
 213              		.align	2
 214              		.p2align 4,,15
 215              		.global	chSemWaitS
 216              		.thumb
 217              		.thumb_func
 218              		.type	chSemWaitS, %function
 219              	chSemWaitS:
 220              	.LFB4:
 221              		.loc 1 185 0
 222              		.cfi_startproc
 223              		@ args = 0, pretend = 0, frame = 0
 224              		@ frame_needed = 0, uses_anonymous_args = 0
ARM GAS  /tmp/ccBFD0yx.s 			page 5


 225              	.LVL22:
 226 0000 38B5     		push	{r3, r4, r5, lr}
 227              		.cfi_def_cfa_offset 16
 228              		.cfi_offset 3, -16
 229              		.cfi_offset 4, -12
 230              		.cfi_offset 5, -8
 231              		.cfi_offset 14, -4
 232              		.loc 1 188 0
 233 0002 0446     		mov	r4, r0
 234 0004 08B3     		cbz	r0, .L36
 235              	.LVL23:
 236              	.L29:
 237              		.loc 1 189 0
 238 0006 A368     		ldr	r3, [r4, #8]
 239 0008 2268     		ldr	r2, [r4]
 240 000a 002B     		cmp	r3, #0
 241 000c 0BDB     		blt	.L30
 242              		.loc 1 189 0 is_stmt 0 discriminator 2
 243 000e A242     		cmp	r2, r4
 244 0010 03D0     		beq	.L32
 245              	.L31:
 246              		.loc 1 189 0 discriminator 1
 247 0012 1048     		ldr	r0, .L38
 248 0014 FFF7FEFF 		bl	chDbgPanic
 249              	.LVL24:
 250 0018 A368     		ldr	r3, [r4, #8]
 251              	.L32:
 252              		.loc 1 194 0 is_stmt 1
 253 001a 013B     		subs	r3, r3, #1
 254 001c 002B     		cmp	r3, #0
 255 001e A360     		str	r3, [r4, #8]
 256 0020 07DB     		blt	.L37
 257              	.L34:
 258              		.loc 1 200 0
 259 0022 0020     		movs	r0, #0
 260              		.loc 1 201 0
 261 0024 38BD     		pop	{r3, r4, r5, pc}
 262              	.LVL25:
 263              	.L30:
 264              		.loc 1 189 0 discriminator 2
 265 0026 A242     		cmp	r2, r4
 266 0028 F3D0     		beq	.L31
 267              		.loc 1 194 0
 268 002a 013B     		subs	r3, r3, #1
 269 002c 002B     		cmp	r3, #0
 270 002e A360     		str	r3, [r4, #8]
 271 0030 F7DA     		bge	.L34
 272              	.L37:
 273              		.loc 1 195 0
 274 0032 094D     		ldr	r5, .L38+4
 275 0034 A869     		ldr	r0, [r5, #24]
 276              		.loc 1 196 0
 277 0036 2146     		mov	r1, r4
 278              		.loc 1 195 0
 279 0038 8462     		str	r4, [r0, #40]
 280              		.loc 1 196 0
 281 003a FFF7FEFF 		bl	queue_insert
ARM GAS  /tmp/ccBFD0yx.s 			page 6


 282              	.LVL26:
 283              		.loc 1 197 0
 284 003e 0320     		movs	r0, #3
 285 0040 FFF7FEFF 		bl	chSchGoSleepS
 286              	.LVL27:
 287              		.loc 1 198 0
 288 0044 AB69     		ldr	r3, [r5, #24]
 289 0046 986A     		ldr	r0, [r3, #40]
 290 0048 38BD     		pop	{r3, r4, r5, pc}
 291              	.LVL28:
 292              	.L36:
 293              		.loc 1 188 0 discriminator 1
 294 004a 0448     		ldr	r0, .L38+8
 295              	.LVL29:
 296 004c FFF7FEFF 		bl	chDbgPanic
 297              	.LVL30:
 298 0050 D9E7     		b	.L29
 299              	.L39:
 300 0052 00BF     		.align	2
 301              	.L38:
 302 0054 44000000 		.word	.LC4
 303 0058 00000000 		.word	rlist
 304 005c 34000000 		.word	.LC3
 305              		.cfi_endproc
 306              	.LFE4:
 307              		.size	chSemWaitS, .-chSemWaitS
 308              		.section	.text.chSemWait,"ax",%progbits
 309              		.align	2
 310              		.p2align 4,,15
 311              		.global	chSemWait
 312              		.thumb
 313              		.thumb_func
 314              		.type	chSemWait, %function
 315              	chSemWait:
 316              	.LFB3:
 317              		.loc 1 164 0
 318              		.cfi_startproc
 319              		@ args = 0, pretend = 0, frame = 0
 320              		@ frame_needed = 0, uses_anonymous_args = 0
 321              	.LVL31:
 322 0000 08B5     		push	{r3, lr}
 323              		.cfi_def_cfa_offset 8
 324              		.cfi_offset 3, -8
 325              		.cfi_offset 14, -4
 326              		.loc 1 167 0
 327              	@ 167 "../../os/kernel/src/chsem.c" 1
 328 0002 FFF7FEFF 		bl      _port_lock
 329              	@ 0 "" 2
 330              		.loc 1 168 0
 331              		.thumb
 332 0006 FFF7FEFF 		bl	chSemWaitS
 333              	.LVL32:
 334              		.loc 1 169 0
 335              	@ 169 "../../os/kernel/src/chsem.c" 1
 336 000a FFF7FEFF 		bl      _port_unlock
 337              	@ 0 "" 2
 338              		.loc 1 171 0
ARM GAS  /tmp/ccBFD0yx.s 			page 7


 339              		.thumb
 340 000e 08BD     		pop	{r3, pc}
 341              		.cfi_endproc
 342              	.LFE3:
 343              		.size	chSemWait, .-chSemWait
 344              		.section	.text.chSemWaitTimeoutS,"ax",%progbits
 345              		.align	2
 346              		.p2align 4,,15
 347              		.global	chSemWaitTimeoutS
 348              		.thumb
 349              		.thumb_func
 350              		.type	chSemWaitTimeoutS, %function
 351              	chSemWaitTimeoutS:
 352              	.LFB6:
 353              		.loc 1 250 0
 354              		.cfi_startproc
 355              		@ args = 0, pretend = 0, frame = 0
 356              		@ frame_needed = 0, uses_anonymous_args = 0
 357              	.LVL33:
 358 0000 38B5     		push	{r3, r4, r5, lr}
 359              		.cfi_def_cfa_offset 16
 360              		.cfi_offset 3, -16
 361              		.cfi_offset 4, -12
 362              		.cfi_offset 5, -8
 363              		.cfi_offset 14, -4
 364              		.loc 1 253 0
 365 0002 0446     		mov	r4, r0
 366              		.loc 1 250 0
 367 0004 0D46     		mov	r5, r1
 368              		.loc 1 253 0
 369 0006 10B3     		cbz	r0, .L50
 370              	.LVL34:
 371              	.L42:
 372              		.loc 1 254 0
 373 0008 A368     		ldr	r3, [r4, #8]
 374 000a 2268     		ldr	r2, [r4]
 375 000c 002B     		cmp	r3, #0
 376 000e 0BDB     		blt	.L43
 377              		.loc 1 254 0 is_stmt 0 discriminator 2
 378 0010 A242     		cmp	r2, r4
 379 0012 03D0     		beq	.L45
 380              	.L44:
 381              		.loc 1 254 0 discriminator 1
 382 0014 1248     		ldr	r0, .L53
 383 0016 FFF7FEFF 		bl	chDbgPanic
 384              	.LVL35:
 385 001a A368     		ldr	r3, [r4, #8]
 386              	.L45:
 387              		.loc 1 259 0 is_stmt 1
 388 001c 5A1E     		subs	r2, r3, #1
 389 001e 002A     		cmp	r2, #0
 390 0020 A260     		str	r2, [r4, #8]
 391 0022 07DB     		blt	.L51
 392              	.L48:
 393              		.loc 1 268 0
 394 0024 0020     		movs	r0, #0
 395              		.loc 1 269 0
ARM GAS  /tmp/ccBFD0yx.s 			page 8


 396 0026 38BD     		pop	{r3, r4, r5, pc}
 397              	.LVL36:
 398              	.L43:
 399              		.loc 1 254 0 discriminator 2
 400 0028 A242     		cmp	r2, r4
 401 002a F3D0     		beq	.L44
 402              		.loc 1 259 0
 403 002c 5A1E     		subs	r2, r3, #1
 404 002e 002A     		cmp	r2, #0
 405 0030 A260     		str	r2, [r4, #8]
 406 0032 F7DA     		bge	.L48
 407              	.L51:
 408              		.loc 1 260 0
 409 0034 7DB1     		cbz	r5, .L52
 410              		.loc 1 264 0
 411 0036 0B4B     		ldr	r3, .L53+4
 412 0038 9869     		ldr	r0, [r3, #24]
 413              		.loc 1 265 0
 414 003a 2146     		mov	r1, r4
 415              		.loc 1 264 0
 416 003c 8462     		str	r4, [r0, #40]
 417              		.loc 1 265 0
 418 003e FFF7FEFF 		bl	queue_insert
 419              	.LVL37:
 420              		.loc 1 266 0
 421 0042 2946     		mov	r1, r5
 422 0044 0320     		movs	r0, #3
 423              		.loc 1 269 0
 424 0046 BDE83840 		pop	{r3, r4, r5, lr}
 425              	.LVL38:
 426              		.loc 1 266 0
 427 004a FFF7FEBF 		b	chSchGoSleepTimeoutS
 428              	.LVL39:
 429              	.L50:
 430              		.loc 1 253 0 discriminator 1
 431 004e 0648     		ldr	r0, .L53+8
 432              	.LVL40:
 433 0050 FFF7FEFF 		bl	chDbgPanic
 434              	.LVL41:
 435 0054 D8E7     		b	.L42
 436              	.L52:
 437              		.loc 1 261 0
 438 0056 A360     		str	r3, [r4, #8]
 439              		.loc 1 262 0
 440 0058 4FF0FF30 		mov	r0, #-1
 441 005c 38BD     		pop	{r3, r4, r5, pc}
 442              	.LVL42:
 443              	.L54:
 444 005e 00BF     		.align	2
 445              	.L53:
 446 0060 70000000 		.word	.LC6
 447 0064 00000000 		.word	rlist
 448 0068 58000000 		.word	.LC5
 449              		.cfi_endproc
 450              	.LFE6:
 451              		.size	chSemWaitTimeoutS, .-chSemWaitTimeoutS
 452 006c AFF30080 		.section	.text.chSemWaitTimeout,"ax",%progbits
ARM GAS  /tmp/ccBFD0yx.s 			page 9


 453              		.align	2
 454              		.p2align 4,,15
 455              		.global	chSemWaitTimeout
 456              		.thumb
 457              		.thumb_func
 458              		.type	chSemWaitTimeout, %function
 459              	chSemWaitTimeout:
 460              	.LFB5:
 461              		.loc 1 222 0
 462              		.cfi_startproc
 463              		@ args = 0, pretend = 0, frame = 0
 464              		@ frame_needed = 0, uses_anonymous_args = 0
 465              	.LVL43:
 466 0000 08B5     		push	{r3, lr}
 467              		.cfi_def_cfa_offset 8
 468              		.cfi_offset 3, -8
 469              		.cfi_offset 14, -4
 470              		.loc 1 225 0
 471              	@ 225 "../../os/kernel/src/chsem.c" 1
 472 0002 FFF7FEFF 		bl      _port_lock
 473              	@ 0 "" 2
 474              		.loc 1 226 0
 475              		.thumb
 476 0006 FFF7FEFF 		bl	chSemWaitTimeoutS
 477              	.LVL44:
 478              		.loc 1 227 0
 479              	@ 227 "../../os/kernel/src/chsem.c" 1
 480 000a FFF7FEFF 		bl      _port_unlock
 481              	@ 0 "" 2
 482              		.loc 1 229 0
 483              		.thumb
 484 000e 08BD     		pop	{r3, pc}
 485              		.cfi_endproc
 486              	.LFE5:
 487              		.size	chSemWaitTimeout, .-chSemWaitTimeout
 488              		.section	.text.chSemSignal,"ax",%progbits
 489              		.align	2
 490              		.p2align 4,,15
 491              		.global	chSemSignal
 492              		.thumb
 493              		.thumb_func
 494              		.type	chSemSignal, %function
 495              	chSemSignal:
 496              	.LFB7:
 497              		.loc 1 278 0
 498              		.cfi_startproc
 499              		@ args = 0, pretend = 0, frame = 0
 500              		@ frame_needed = 0, uses_anonymous_args = 0
 501              	.LVL45:
 502 0000 10B5     		push	{r4, lr}
 503              		.cfi_def_cfa_offset 8
 504              		.cfi_offset 4, -8
 505              		.cfi_offset 14, -4
 506              		.loc 1 280 0
 507 0002 0446     		mov	r4, r0
 508 0004 F0B1     		cbz	r0, .L62
 509              	.LVL46:
ARM GAS  /tmp/ccBFD0yx.s 			page 10


 510              	.L57:
 511              		.loc 1 281 0
 512 0006 A368     		ldr	r3, [r4, #8]
 513 0008 002B     		cmp	r3, #0
 514 000a 2368     		ldr	r3, [r4]
 515 000c 0EDB     		blt	.L58
 516              		.loc 1 281 0 is_stmt 0 discriminator 2
 517 000e A342     		cmp	r3, r4
 518 0010 02D0     		beq	.L60
 519              	.L59:
 520              		.loc 1 281 0 discriminator 1
 521 0012 0E48     		ldr	r0, .L64
 522 0014 FFF7FEFF 		bl	chDbgPanic
 523              	.LVL47:
 524              	.L60:
 525              		.loc 1 286 0 is_stmt 1
 526              	@ 286 "../../os/kernel/src/chsem.c" 1
 527 0018 FFF7FEFF 		bl      _port_lock
 528              	@ 0 "" 2
 529              		.loc 1 287 0
 530              		.thumb
 531 001c A368     		ldr	r3, [r4, #8]
 532 001e 0133     		adds	r3, r3, #1
 533 0020 002B     		cmp	r3, #0
 534 0022 A360     		str	r3, [r4, #8]
 535 0024 05DD     		ble	.L63
 536              		.loc 1 289 0
 537              	@ 289 "../../os/kernel/src/chsem.c" 1
 538 0026 FFF7FEFF 		bl      _port_unlock
 539              	@ 0 "" 2
 540              		.thumb
 541 002a 10BD     		pop	{r4, pc}
 542              	.LVL48:
 543              	.L58:
 544              		.loc 1 281 0 discriminator 2
 545 002c A342     		cmp	r3, r4
 546 002e F3D1     		bne	.L60
 547 0030 EFE7     		b	.L59
 548              	.L63:
 549              		.loc 1 288 0
 550 0032 2046     		mov	r0, r4
 551 0034 FFF7FEFF 		bl	fifo_remove
 552              	.LVL49:
 553 0038 0021     		movs	r1, #0
 554 003a FFF7FEFF 		bl	chSchWakeupS
 555              	.LVL50:
 556              		.loc 1 289 0
 557              	@ 289 "../../os/kernel/src/chsem.c" 1
 558 003e FFF7FEFF 		bl      _port_unlock
 559              	@ 0 "" 2
 560              		.thumb
 561 0042 10BD     		pop	{r4, pc}
 562              	.LVL51:
 563              	.L62:
 564              		.loc 1 280 0 discriminator 1
 565 0044 0248     		ldr	r0, .L64+4
 566              	.LVL52:
ARM GAS  /tmp/ccBFD0yx.s 			page 11


 567 0046 FFF7FEFF 		bl	chDbgPanic
 568              	.LVL53:
 569 004a DCE7     		b	.L57
 570              	.L65:
 571              		.align	2
 572              	.L64:
 573 004c 98000000 		.word	.LC8
 574 0050 88000000 		.word	.LC7
 575              		.cfi_endproc
 576              	.LFE7:
 577              		.size	chSemSignal, .-chSemSignal
 578 0054 AFF30080 		.section	.text.chSemSignalI,"ax",%progbits
 578      AFF30080 
 578      AFF30080 
 579              		.align	2
 580              		.p2align 4,,15
 581              		.global	chSemSignalI
 582              		.thumb
 583              		.thumb_func
 584              		.type	chSemSignalI, %function
 585              	chSemSignalI:
 586              	.LFB8:
 587              		.loc 1 303 0
 588              		.cfi_startproc
 589              		@ args = 0, pretend = 0, frame = 0
 590              		@ frame_needed = 0, uses_anonymous_args = 0
 591              	.LVL54:
 592 0000 10B5     		push	{r4, lr}
 593              		.cfi_def_cfa_offset 8
 594              		.cfi_offset 4, -8
 595              		.cfi_offset 14, -4
 596              		.loc 1 306 0
 597 0002 0446     		mov	r4, r0
 598 0004 E8B1     		cbz	r0, .L73
 599              	.LVL55:
 600              	.L67:
 601              		.loc 1 307 0
 602 0006 A368     		ldr	r3, [r4, #8]
 603 0008 2268     		ldr	r2, [r4]
 604 000a 002B     		cmp	r3, #0
 605 000c 0ADB     		blt	.L68
 606              		.loc 1 307 0 is_stmt 0 discriminator 2
 607 000e A242     		cmp	r2, r4
 608 0010 03D0     		beq	.L70
 609              	.L69:
 610              		.loc 1 307 0 discriminator 1
 611 0012 0E48     		ldr	r0, .L75
 612 0014 FFF7FEFF 		bl	chDbgPanic
 613              	.LVL56:
 614 0018 A368     		ldr	r3, [r4, #8]
 615              	.L70:
 616              		.loc 1 312 0 is_stmt 1
 617 001a 0133     		adds	r3, r3, #1
 618 001c 002B     		cmp	r3, #0
 619 001e A360     		str	r3, [r4, #8]
 620 0020 06DD     		ble	.L74
 621              	.L66:
ARM GAS  /tmp/ccBFD0yx.s 			page 12


 622 0022 10BD     		pop	{r4, pc}
 623              	.LVL57:
 624              	.L68:
 625              		.loc 1 307 0 discriminator 2
 626 0024 A242     		cmp	r2, r4
 627 0026 F4D0     		beq	.L69
 628              		.loc 1 312 0
 629 0028 0133     		adds	r3, r3, #1
 630 002a 002B     		cmp	r3, #0
 631 002c A360     		str	r3, [r4, #8]
 632 002e F8DC     		bgt	.L66
 633              	.L74:
 634              	.LBB2:
 635              		.loc 1 315 0
 636 0030 2046     		mov	r0, r4
 637 0032 FFF7FEFF 		bl	fifo_remove
 638              	.LVL58:
 639              		.loc 1 316 0
 640 0036 0022     		movs	r2, #0
 641 0038 8262     		str	r2, [r0, #40]
 642              	.LBE2:
 643              		.loc 1 319 0
 644 003a BDE81040 		pop	{r4, lr}
 645              	.LVL59:
 646              	.LBB3:
 647              		.loc 1 317 0
 648 003e FFF7FEBF 		b	chSchReadyI
 649              	.LVL60:
 650              	.L73:
 651              	.LBE3:
 652              		.loc 1 306 0 discriminator 1
 653 0042 0348     		ldr	r0, .L75+4
 654              	.LVL61:
 655 0044 FFF7FEFF 		bl	chDbgPanic
 656              	.LVL62:
 657 0048 DDE7     		b	.L67
 658              	.L76:
 659 004a 00BF     		.align	2
 660              	.L75:
 661 004c C0000000 		.word	.LC10
 662 0050 AC000000 		.word	.LC9
 663              		.cfi_endproc
 664              	.LFE8:
 665              		.size	chSemSignalI, .-chSemSignalI
 666 0054 AFF30080 		.section	.text.chSemAddCounterI,"ax",%progbits
 666      AFF30080 
 666      AFF30080 
 667              		.align	2
 668              		.p2align 4,,15
 669              		.global	chSemAddCounterI
 670              		.thumb
 671              		.thumb_func
 672              		.type	chSemAddCounterI, %function
 673              	chSemAddCounterI:
 674              	.LFB9:
 675              		.loc 1 334 0
 676              		.cfi_startproc
ARM GAS  /tmp/ccBFD0yx.s 			page 13


 677              		@ args = 0, pretend = 0, frame = 0
 678              		@ frame_needed = 0, uses_anonymous_args = 0
 679              	.LVL63:
 680 0000 70B5     		push	{r4, r5, r6, lr}
 681              		.cfi_def_cfa_offset 16
 682              		.cfi_offset 4, -16
 683              		.cfi_offset 5, -12
 684              		.cfi_offset 6, -8
 685              		.cfi_offset 14, -4
 686              		.loc 1 337 0
 687 0002 0546     		mov	r5, r0
 688              		.loc 1 334 0
 689 0004 0C46     		mov	r4, r1
 690              		.loc 1 337 0
 691 0006 08B3     		cbz	r0, .L78
 692              		.loc 1 337 0 is_stmt 0 discriminator 2
 693 0008 0029     		cmp	r1, #0
 694 000a 1FDD     		ble	.L78
 695              	.LVL64:
 696              	.L79:
 697              		.loc 1 338 0 is_stmt 1
 698 000c AB68     		ldr	r3, [r5, #8]
 699 000e 002B     		cmp	r3, #0
 700 0010 2B68     		ldr	r3, [r5]
 701 0012 18DB     		blt	.L80
 702              		.loc 1 338 0 is_stmt 0 discriminator 2
 703 0014 AB42     		cmp	r3, r5
 704 0016 02D0     		beq	.L82
 705              	.L81:
 706              		.loc 1 338 0 discriminator 1
 707 0018 0E48     		ldr	r0, .L93
 708 001a FFF7FEFF 		bl	chDbgPanic
 709              	.LVL65:
 710              	.L82:
 711              		.loc 1 343 0 is_stmt 1 discriminator 1
 712 001e 002C     		cmp	r4, #0
 713 0020 10DD     		ble	.L77
 714              		.loc 1 345 0
 715 0022 0026     		movs	r6, #0
 716 0024 01E0     		b	.L86
 717              	.L84:
 718              	.LVL66:
 719              		.loc 1 343 0
 720 0026 013C     		subs	r4, r4, #1
 721              	.LVL67:
 722 0028 0CD0     		beq	.L77
 723              	.LVL68:
 724              	.L86:
 725              		.loc 1 344 0
 726 002a AB68     		ldr	r3, [r5, #8]
 727 002c 0133     		adds	r3, r3, #1
 728 002e 002B     		cmp	r3, #0
 729 0030 AB60     		str	r3, [r5, #8]
 730 0032 F8DC     		bgt	.L84
 731              		.loc 1 345 0
 732 0034 2846     		mov	r0, r5
 733 0036 FFF7FEFF 		bl	fifo_remove
ARM GAS  /tmp/ccBFD0yx.s 			page 14


 734              	.LVL69:
 735 003a FFF7FEFF 		bl	chSchReadyI
 736              	.LVL70:
 737              		.loc 1 343 0
 738 003e 013C     		subs	r4, r4, #1
 739              	.LVL71:
 740              		.loc 1 345 0
 741 0040 8662     		str	r6, [r0, #40]
 742              	.LVL72:
 743              		.loc 1 343 0
 744 0042 F2D1     		bne	.L86
 745              	.L77:
 746 0044 70BD     		pop	{r4, r5, r6, pc}
 747              	.LVL73:
 748              	.L80:
 749              		.loc 1 338 0 discriminator 2
 750 0046 AB42     		cmp	r3, r5
 751 0048 E9D1     		bne	.L82
 752 004a E5E7     		b	.L81
 753              	.LVL74:
 754              	.L78:
 755              		.loc 1 337 0 discriminator 1
 756 004c 0248     		ldr	r0, .L93+4
 757              	.LVL75:
 758 004e FFF7FEFF 		bl	chDbgPanic
 759              	.LVL76:
 760 0052 DBE7     		b	.L79
 761              	.L94:
 762              		.align	2
 763              	.L93:
 764 0054 EC000000 		.word	.LC12
 765 0058 D4000000 		.word	.LC11
 766              		.cfi_endproc
 767              	.LFE9:
 768              		.size	chSemAddCounterI, .-chSemAddCounterI
 769 005c AFF30080 		.section	.text.chSemSignalWait,"ax",%progbits
 770              		.align	2
 771              		.p2align 4,,15
 772              		.global	chSemSignalWait
 773              		.thumb
 774              		.thumb_func
 775              		.type	chSemSignalWait, %function
 776              	chSemSignalWait:
 777              	.LFB10:
 778              		.loc 1 366 0
 779              		.cfi_startproc
 780              		@ args = 0, pretend = 0, frame = 0
 781              		@ frame_needed = 0, uses_anonymous_args = 0
 782              	.LVL77:
 783 0000 38B5     		push	{r3, r4, r5, lr}
 784              		.cfi_def_cfa_offset 16
 785              		.cfi_offset 3, -16
 786              		.cfi_offset 4, -12
 787              		.cfi_offset 5, -8
 788              		.cfi_offset 14, -4
 789              		.loc 1 369 0
 790 0002 0546     		mov	r5, r0
ARM GAS  /tmp/ccBFD0yx.s 			page 15


 791              		.loc 1 366 0
 792 0004 0C46     		mov	r4, r1
 793              		.loc 1 369 0
 794 0006 68B3     		cbz	r0, .L96
 795              		.loc 1 369 0 is_stmt 0 discriminator 2
 796 0008 61B3     		cbz	r1, .L96
 797              	.LVL78:
 798              	.L97:
 799              		.loc 1 370 0 is_stmt 1
 800 000a AB68     		ldr	r3, [r5, #8]
 801 000c 002B     		cmp	r3, #0
 802 000e 2B68     		ldr	r3, [r5]
 803 0010 1FDB     		blt	.L98
 804              		.loc 1 370 0 is_stmt 0 discriminator 2
 805 0012 AB42     		cmp	r3, r5
 806 0014 02D0     		beq	.L100
 807              	.L99:
 808              		.loc 1 370 0 discriminator 1
 809 0016 2048     		ldr	r0, .L114
 810 0018 FFF7FEFF 		bl	chDbgPanic
 811              	.LVL79:
 812              	.L100:
 813              		.loc 1 374 0 is_stmt 1
 814 001c A368     		ldr	r3, [r4, #8]
 815 001e 002B     		cmp	r3, #0
 816 0020 2368     		ldr	r3, [r4]
 817 0022 1CDB     		blt	.L101
 818              	.L113:
 819              		.loc 1 374 0 is_stmt 0 discriminator 2
 820 0024 A342     		cmp	r3, r4
 821 0026 02D0     		beq	.L103
 822              	.L102:
 823              		.loc 1 374 0 discriminator 1
 824 0028 1C48     		ldr	r0, .L114+4
 825 002a FFF7FEFF 		bl	chDbgPanic
 826              	.LVL80:
 827              	.L103:
 828              		.loc 1 379 0 is_stmt 1
 829              	@ 379 "../../os/kernel/src/chsem.c" 1
 830 002e FFF7FEFF 		bl      _port_lock
 831              	@ 0 "" 2
 832              		.loc 1 380 0
 833              		.thumb
 834 0032 AB68     		ldr	r3, [r5, #8]
 835 0034 0133     		adds	r3, r3, #1
 836 0036 002B     		cmp	r3, #0
 837 0038 AB60     		str	r3, [r5, #8]
 838 003a 25DD     		ble	.L111
 839              	.L104:
 840              		.loc 1 382 0
 841 003c A368     		ldr	r3, [r4, #8]
 842 003e 013B     		subs	r3, r3, #1
 843 0040 002B     		cmp	r3, #0
 844 0042 A360     		str	r3, [r4, #8]
 845 0044 12DB     		blt	.L112
 846              		.loc 1 390 0
 847 0046 FFF7FEFF 		bl	chSchRescheduleS
ARM GAS  /tmp/ccBFD0yx.s 			page 16


 848              	.LVL81:
 849              		.loc 1 391 0
 850 004a 0020     		movs	r0, #0
 851              	.LVL82:
 852              		.loc 1 393 0
 853              	@ 393 "../../os/kernel/src/chsem.c" 1
 854 004c FFF7FEFF 		bl      _port_unlock
 855              	@ 0 "" 2
 856              		.loc 1 395 0
 857              		.thumb
 858 0050 38BD     		pop	{r3, r4, r5, pc}
 859              	.LVL83:
 860              	.L98:
 861              		.loc 1 370 0 discriminator 2
 862 0052 AB42     		cmp	r3, r5
 863 0054 DFD0     		beq	.L99
 864              		.loc 1 374 0
 865 0056 A368     		ldr	r3, [r4, #8]
 866 0058 002B     		cmp	r3, #0
 867 005a 2368     		ldr	r3, [r4]
 868 005c E2DA     		bge	.L113
 869              	.L101:
 870              		.loc 1 374 0 is_stmt 0 discriminator 2
 871 005e A342     		cmp	r3, r4
 872 0060 E5D1     		bne	.L103
 873 0062 E1E7     		b	.L102
 874              	.LVL84:
 875              	.L96:
 876              		.loc 1 369 0 is_stmt 1 discriminator 1
 877 0064 0E48     		ldr	r0, .L114+8
 878              	.LVL85:
 879 0066 FFF7FEFF 		bl	chDbgPanic
 880              	.LVL86:
 881 006a CEE7     		b	.L97
 882              	.L112:
 883              	.LBB4:
 884              		.loc 1 383 0
 885 006c 0D4B     		ldr	r3, .L114+12
 886 006e 9D69     		ldr	r5, [r3, #24]
 887              	.LVL87:
 888              		.loc 1 384 0
 889 0070 2146     		mov	r1, r4
 890 0072 2846     		mov	r0, r5
 891 0074 FFF7FEFF 		bl	queue_insert
 892              	.LVL88:
 893              		.loc 1 385 0
 894 0078 AC62     		str	r4, [r5, #40]
 895              		.loc 1 386 0
 896 007a 0320     		movs	r0, #3
 897 007c FFF7FEFF 		bl	chSchGoSleepS
 898              	.LVL89:
 899              		.loc 1 387 0
 900 0080 A86A     		ldr	r0, [r5, #40]
 901              	.LVL90:
 902              	.LBE4:
 903              		.loc 1 393 0
 904              	@ 393 "../../os/kernel/src/chsem.c" 1
ARM GAS  /tmp/ccBFD0yx.s 			page 17


 905 0082 FFF7FEFF 		bl      _port_unlock
 906              	@ 0 "" 2
 907              		.loc 1 395 0
 908              		.thumb
 909 0086 38BD     		pop	{r3, r4, r5, pc}
 910              	.LVL91:
 911              	.L111:
 912              		.loc 1 381 0
 913 0088 2846     		mov	r0, r5
 914 008a FFF7FEFF 		bl	fifo_remove
 915              	.LVL92:
 916 008e FFF7FEFF 		bl	chSchReadyI
 917              	.LVL93:
 918 0092 0023     		movs	r3, #0
 919 0094 8362     		str	r3, [r0, #40]
 920 0096 D1E7     		b	.L104
 921              	.L115:
 922              		.align	2
 923              	.L114:
 924 0098 18010000 		.word	.LC14
 925 009c 30010000 		.word	.LC15
 926 00a0 04010000 		.word	.LC13
 927 00a4 00000000 		.word	rlist
 928              		.cfi_endproc
 929              	.LFE10:
 930              		.size	chSemSignalWait, .-chSemSignalWait
 931 00a8 AFF30080 		.section	.rodata.str1.4,"aMS",%progbits,1
 931      AFF30080 
 932              		.align	2
 933              	.LC0:
 934 0000 22636853 		.ascii	"\"chSemInit\"()\000"
 934      656D496E 
 934      69742228 
 934      2900
 935 000e 0000     		.space	2
 936              	.LC1:
 937 0010 22636853 		.ascii	"\"chSemResetI\"()\000"
 937      656D5265 
 937      73657449 
 937      22282900 
 938              	.LC2:
 939 0020 63685365 		.ascii	"chSemResetI(), #1\000"
 939      6D526573 
 939      65744928 
 939      292C2023 
 939      3100
 940 0032 0000     		.space	2
 941              	.LC3:
 942 0034 22636853 		.ascii	"\"chSemWaitS\"()\000"
 942      656D5761 
 942      69745322 
 942      282900
 943 0043 00       		.space	1
 944              	.LC4:
 945 0044 63685365 		.ascii	"chSemWaitS(), #1\000"
 945      6D576169 
 945      74532829 
ARM GAS  /tmp/ccBFD0yx.s 			page 18


 945      2C202331 
 945      00
 946 0055 000000   		.space	3
 947              	.LC5:
 948 0058 22636853 		.ascii	"\"chSemWaitTimeoutS\"()\000"
 948      656D5761 
 948      69745469 
 948      6D656F75 
 948      74532228 
 949 006e 0000     		.space	2
 950              	.LC6:
 951 0070 63685365 		.ascii	"chSemWaitTimeoutS(), #1\000"
 951      6D576169 
 951      7454696D 
 951      656F7574 
 951      5328292C 
 952              	.LC7:
 953 0088 22636853 		.ascii	"\"chSemSignal\"()\000"
 953      656D5369 
 953      676E616C 
 953      22282900 
 954              	.LC8:
 955 0098 63685365 		.ascii	"chSemSignal(), #1\000"
 955      6D536967 
 955      6E616C28 
 955      292C2023 
 955      3100
 956 00aa 0000     		.space	2
 957              	.LC9:
 958 00ac 22636853 		.ascii	"\"chSemSignalI\"()\000"
 958      656D5369 
 958      676E616C 
 958      49222829 
 958      00
 959 00bd 000000   		.space	3
 960              	.LC10:
 961 00c0 63685365 		.ascii	"chSemSignalI(), #1\000"
 961      6D536967 
 961      6E616C49 
 961      28292C20 
 961      233100
 962 00d3 00       		.space	1
 963              	.LC11:
 964 00d4 22636853 		.ascii	"\"chSemAddCounterI\"()\000"
 964      656D4164 
 964      64436F75 
 964      6E746572 
 964      49222829 
 965 00e9 000000   		.space	3
 966              	.LC12:
 967 00ec 63685365 		.ascii	"chSemAddCounterI(), #1\000"
 967      6D416464 
 967      436F756E 
 967      74657249 
 967      28292C20 
 968 0103 00       		.space	1
 969              	.LC13:
ARM GAS  /tmp/ccBFD0yx.s 			page 19


 970 0104 22636853 		.ascii	"\"chSemSignalWait\"()\000"
 970      656D5369 
 970      676E616C 
 970      57616974 
 970      22282900 
 971              	.LC14:
 972 0118 63685365 		.ascii	"chSemSignalWait(), #1\000"
 972      6D536967 
 972      6E616C57 
 972      61697428 
 972      292C2023 
 973 012e 0000     		.space	2
 974              	.LC15:
 975 0130 63685365 		.ascii	"chSemSignalWait(), #2\000"
 975      6D536967 
 975      6E616C57 
 975      61697428 
 975      292C2023 
 976 0146 0000     		.text
 977              	.Letext0:
 978              		.file 2 "/opt/ARM/arm-none-eabi/include/machine/_default_types.h"
 979              		.file 3 "/opt/ARM/arm-none-eabi/include/stdint.h"
 980              		.file 4 "../../os/ports/GCC/ARMCMx/chtypes.h"
 981              		.file 5 "../../os/kernel/include/chlists.h"
 982              		.file 6 "../../os/kernel/include/chthreads.h"
 983              		.file 7 "../../os/ports/GCC/ARMCMx/chcore_v7m.h"
 984              		.file 8 "../../os/kernel/include/chschd.h"
 985              		.file 9 "../../os/kernel/include/chsem.h"
 986              		.file 10 "../../os/kernel/include/chmtx.h"
 987              		.file 11 "../../os/kernel/include/chdebug.h"