ARM GAS  /tmp/ccGfWlQb.s 			page 1


   1              		.syntax unified
   2              		.cpu cortex-m4
   3              		.eabi_attribute 27, 1
   4              		.eabi_attribute 28, 1
   5              		.fpu fpv4-sp-d16
   6              		.eabi_attribute 20, 1
   7              		.eabi_attribute 21, 1
   8              		.eabi_attribute 23, 3
   9              		.eabi_attribute 24, 1
  10              		.eabi_attribute 25, 1
  11              		.eabi_attribute 26, 1
  12              		.eabi_attribute 30, 6
  13              		.eabi_attribute 34, 1
  14              		.eabi_attribute 18, 4
  15              		.thumb
  16              		.file	"chthreads.c"
  17              		.text
  18              	.Ltext0:
  19              		.cfi_sections	.debug_frame
  20              		.section	.text._thread_init,"ax",%progbits
  21              		.align	2
  22              		.p2align 4,,15
  23              		.global	_thread_init
  24              		.thumb
  25              		.thumb_func
  26              		.type	_thread_init, %function
  27              	_thread_init:
  28              	.LFB0:
  29              		.file 1 "/home/makkmarci/workspace/ChibiOS_2.6.8/os/kernel/src/chthreads.c"
  30              		.loc 1 76 0
  31              		.cfi_startproc
  32              		@ args = 0, pretend = 0, frame = 8
  33              		@ frame_needed = 0, uses_anonymous_args = 0
  34              		@ link register save eliminated.
  35 0000 82B0     		sub	sp, sp, #8
  36              		.cfi_def_cfa_offset 8
  37 0002 0190     		str	r0, [sp, #4]
  38 0004 0091     		str	r1, [sp]
  39              		.loc 1 78 0
  40 0006 019B     		ldr	r3, [sp, #4]
  41 0008 009A     		ldr	r2, [sp]
  42 000a 9A60     		str	r2, [r3, #8]
  43              		.loc 1 79 0
  44 000c 019B     		ldr	r3, [sp, #4]
  45 000e 0222     		movs	r2, #2
  46 0010 83F82020 		strb	r2, [r3, #32]
  47              		.loc 1 80 0
  48 0014 019B     		ldr	r3, [sp, #4]
  49 0016 0022     		movs	r2, #0
  50 0018 83F82120 		strb	r2, [r3, #33]
  51              		.loc 1 82 0
  52 001c 019B     		ldr	r3, [sp, #4]
  53 001e 1422     		movs	r2, #20
  54 0020 83F82320 		strb	r2, [r3, #35]
  55              		.loc 1 85 0
  56 0024 019B     		ldr	r3, [sp, #4]
  57 0026 009A     		ldr	r2, [sp]
ARM GAS  /tmp/ccGfWlQb.s 			page 2


  58 0028 5A64     		str	r2, [r3, #68]
  59              		.loc 1 86 0
  60 002a 019B     		ldr	r3, [sp, #4]
  61 002c 0022     		movs	r2, #0
  62 002e 1A64     		str	r2, [r3, #64]
  63              		.loc 1 89 0
  64 0030 019B     		ldr	r3, [sp, #4]
  65 0032 0022     		movs	r2, #0
  66 0034 DA63     		str	r2, [r3, #60]
  67              		.loc 1 92 0
  68 0036 019B     		ldr	r3, [sp, #4]
  69 0038 0022     		movs	r2, #0
  70 003a 5A62     		str	r2, [r3, #36]
  71              		.loc 1 95 0
  72 003c 019B     		ldr	r3, [sp, #4]
  73 003e 0122     		movs	r2, #1
  74 0040 83F82220 		strb	r2, [r3, #34]
  75              		.loc 1 98 0
  76 0044 019B     		ldr	r3, [sp, #4]
  77 0046 0022     		movs	r2, #0
  78 0048 9A61     		str	r2, [r3, #24]
  79              		.loc 1 99 0
  80 004a 019B     		ldr	r3, [sp, #4]
  81 004c 124A     		ldr	r2, .L3
  82 004e 1A61     		str	r2, [r3, #16]
  83 0050 114B     		ldr	r3, .L3
  84 0052 5A69     		ldr	r2, [r3, #20]
  85 0054 019B     		ldr	r3, [sp, #4]
  86 0056 5A61     		str	r2, [r3, #20]
  87 0058 019B     		ldr	r3, [sp, #4]
  88 005a 5B69     		ldr	r3, [r3, #20]
  89 005c 0E49     		ldr	r1, .L3
  90 005e 019A     		ldr	r2, [sp, #4]
  91 0060 4A61     		str	r2, [r1, #20]
  92 0062 0D4A     		ldr	r2, .L3
  93 0064 5269     		ldr	r2, [r2, #20]
  94 0066 1A61     		str	r2, [r3, #16]
  95              		.loc 1 102 0
  96 0068 019B     		ldr	r3, [sp, #4]
  97 006a 03F12C02 		add	r2, r3, #44
  98 006e 019B     		ldr	r3, [sp, #4]
  99 0070 DA62     		str	r2, [r3, #44]
 100              		.loc 1 105 0
 101 0072 019B     		ldr	r3, [sp, #4]
 102 0074 03F13002 		add	r2, r3, #48
 103 0078 019B     		ldr	r3, [sp, #4]
 104 007a 5A63     		str	r2, [r3, #52]
 105 007c 019B     		ldr	r3, [sp, #4]
 106 007e 5A6B     		ldr	r2, [r3, #52]
 107 0080 019B     		ldr	r3, [sp, #4]
 108 0082 1A63     		str	r2, [r3, #48]
 109              		.loc 1 108 0
 110 0084 019B     		ldr	r3, [sp, #4]
 111 0086 03F14C02 		add	r2, r3, #76
 112 008a 019B     		ldr	r3, [sp, #4]
 113 008c DA61     		str	r2, [r3, #28]
 114              		.loc 1 113 0
ARM GAS  /tmp/ccGfWlQb.s 			page 3


 115 008e 019B     		ldr	r3, [sp, #4]
 116              		.loc 1 114 0
 117 0090 1846     		mov	r0, r3
 118 0092 02B0     		add	sp, sp, #8
 119              		.cfi_def_cfa_offset 0
 120              		@ sp needed
 121 0094 7047     		bx	lr
 122              	.L4:
 123 0096 00BF     		.align	2
 124              	.L3:
 125 0098 00000000 		.word	rlist
 126              		.cfi_endproc
 127              	.LFE0:
 128              		.size	_thread_init, .-_thread_init
 129 009c AFF30080 		.section	.text._thread_memfill,"ax",%progbits
 130              		.align	2
 131              		.p2align 4,,15
 132              		.global	_thread_memfill
 133              		.thumb
 134              		.thumb_func
 135              		.type	_thread_memfill, %function
 136              	_thread_memfill:
 137              	.LFB1:
 138              		.loc 1 126 0
 139              		.cfi_startproc
 140              		@ args = 0, pretend = 0, frame = 16
 141              		@ frame_needed = 0, uses_anonymous_args = 0
 142              		@ link register save eliminated.
 143 0000 84B0     		sub	sp, sp, #16
 144              		.cfi_def_cfa_offset 16
 145 0002 0390     		str	r0, [sp, #12]
 146 0004 0291     		str	r1, [sp, #8]
 147 0006 1346     		mov	r3, r2
 148 0008 8DF80730 		strb	r3, [sp, #7]
 149              		.loc 1 128 0
 150 000c 05E0     		b	.L6
 151              	.L7:
 152              		.loc 1 129 0
 153 000e 039B     		ldr	r3, [sp, #12]
 154 0010 5A1C     		adds	r2, r3, #1
 155 0012 0392     		str	r2, [sp, #12]
 156 0014 9DF80720 		ldrb	r2, [sp, #7]
 157 0018 1A70     		strb	r2, [r3]
 158              	.L6:
 159              		.loc 1 128 0
 160 001a 039A     		ldr	r2, [sp, #12]
 161 001c 029B     		ldr	r3, [sp, #8]
 162 001e 9A42     		cmp	r2, r3
 163 0020 F5D3     		bcc	.L7
 164              		.loc 1 130 0
 165 0022 04B0     		add	sp, sp, #16
 166              		.cfi_def_cfa_offset 0
 167              		@ sp needed
 168 0024 7047     		bx	lr
 169              		.cfi_endproc
 170              	.LFE1:
 171              		.size	_thread_memfill, .-_thread_memfill
ARM GAS  /tmp/ccGfWlQb.s 			page 4


 172 0026 00BFAFF3 		.section	.rodata
 172      0080AFF3 
 172      0080
 173              		.align	2
 174              	.LC0:
 175 0000 22636854 		.ascii	"\"chThdCreateI\"()\000"
 175      68644372 
 175      65617465 
 175      49222829 
 175      00
 176              		.section	.text.chThdCreateI,"ax",%progbits
 177              		.align	2
 178              		.p2align 4,,15
 179              		.global	chThdCreateI
 180              		.thumb
 181              		.thumb_func
 182              		.type	chThdCreateI, %function
 183              	chThdCreateI:
 184              	.LFB2:
 185              		.loc 1 158 0
 186              		.cfi_startproc
 187              		@ args = 4, pretend = 0, frame = 24
 188              		@ frame_needed = 0, uses_anonymous_args = 0
 189 0000 00B5     		push	{lr}
 190              		.cfi_def_cfa_offset 4
 191              		.cfi_offset 14, -4
 192 0002 87B0     		sub	sp, sp, #28
 193              		.cfi_def_cfa_offset 32
 194 0004 0390     		str	r0, [sp, #12]
 195 0006 0291     		str	r1, [sp, #8]
 196 0008 0192     		str	r2, [sp, #4]
 197 000a 0093     		str	r3, [sp]
 198              		.loc 1 160 0
 199 000c 039B     		ldr	r3, [sp, #12]
 200 000e 0593     		str	r3, [sp, #20]
 201              		.loc 1 164 0
 202 0010 039B     		ldr	r3, [sp, #12]
 203 0012 002B     		cmp	r3, #0
 204 0014 09D0     		beq	.L9
 205              		.loc 1 164 0 is_stmt 0 discriminator 2
 206 0016 029B     		ldr	r3, [sp, #8]
 207 0018 B3F5AC7F 		cmp	r3, #344
 208 001c 05D3     		bcc	.L9
 209              		.loc 1 164 0 discriminator 4
 210 001e 019B     		ldr	r3, [sp, #4]
 211 0020 7F2B     		cmp	r3, #127
 212 0022 02D8     		bhi	.L9
 213              		.loc 1 164 0 discriminator 6
 214 0024 009B     		ldr	r3, [sp]
 215 0026 002B     		cmp	r3, #0
 216 0028 02D1     		bne	.L10
 217              	.L9:
 218              		.loc 1 164 0 discriminator 7
 219 002a 0F48     		ldr	r0, .L12
 220 002c FFF7FEFF 		bl	chDbgPanic
 221              	.L10:
 222              		.loc 1 167 0 is_stmt 1
ARM GAS  /tmp/ccGfWlQb.s 			page 5


 223 0030 029B     		ldr	r3, [sp, #8]
 224 0032 643B     		subs	r3, r3, #100
 225 0034 039A     		ldr	r2, [sp, #12]
 226 0036 1A44     		add	r2, r2, r3
 227 0038 059B     		ldr	r3, [sp, #20]
 228 003a DA60     		str	r2, [r3, #12]
 229 003c 059B     		ldr	r3, [sp, #20]
 230 003e DB68     		ldr	r3, [r3, #12]
 231 0040 009A     		ldr	r2, [sp]
 232 0042 1A64     		str	r2, [r3, #64]
 233 0044 059B     		ldr	r3, [sp, #20]
 234 0046 DB68     		ldr	r3, [r3, #12]
 235 0048 089A     		ldr	r2, [sp, #32]
 236 004a 5A64     		str	r2, [r3, #68]
 237 004c 059B     		ldr	r3, [sp, #20]
 238 004e DB68     		ldr	r3, [r3, #12]
 239 0050 064A     		ldr	r2, .L12+4
 240 0052 1A66     		str	r2, [r3, #96]
 241              		.loc 1 168 0
 242 0054 0598     		ldr	r0, [sp, #20]
 243 0056 0199     		ldr	r1, [sp, #4]
 244 0058 FFF7FEFF 		bl	_thread_init
 245 005c 0346     		mov	r3, r0
 246              		.loc 1 169 0
 247 005e 1846     		mov	r0, r3
 248 0060 07B0     		add	sp, sp, #28
 249              		.cfi_def_cfa_offset 4
 250              		@ sp needed
 251 0062 5DF804FB 		ldr	pc, [sp], #4
 252              	.L13:
 253 0066 00BF     		.align	2
 254              	.L12:
 255 0068 00000000 		.word	.LC0
 256 006c 00000000 		.word	_port_thread_start
 257              		.cfi_endproc
 258              	.LFE2:
 259              		.size	chThdCreateI, .-chThdCreateI
 260              		.section	.text.chThdCreateStatic,"ax",%progbits
 261              		.align	2
 262              		.p2align 4,,15
 263              		.global	chThdCreateStatic
 264              		.thumb
 265              		.thumb_func
 266              		.type	chThdCreateStatic, %function
 267              	chThdCreateStatic:
 268              	.LFB3:
 269              		.loc 1 188 0
 270              		.cfi_startproc
 271              		@ args = 4, pretend = 0, frame = 24
 272              		@ frame_needed = 0, uses_anonymous_args = 0
 273 0000 00B5     		push	{lr}
 274              		.cfi_def_cfa_offset 4
 275              		.cfi_offset 14, -4
 276 0002 89B0     		sub	sp, sp, #36
 277              		.cfi_def_cfa_offset 40
 278 0004 0590     		str	r0, [sp, #20]
 279 0006 0491     		str	r1, [sp, #16]
ARM GAS  /tmp/ccGfWlQb.s 			page 6


 280 0008 0392     		str	r2, [sp, #12]
 281 000a 0293     		str	r3, [sp, #8]
 282              		.loc 1 192 0
 283 000c 059B     		ldr	r3, [sp, #20]
 284 000e 4C33     		adds	r3, r3, #76
 285 0010 0598     		ldr	r0, [sp, #20]
 286 0012 1946     		mov	r1, r3
 287 0014 FF22     		movs	r2, #255
 288 0016 FFF7FEFF 		bl	_thread_memfill
 289              		.loc 1 195 0
 290 001a 059B     		ldr	r3, [sp, #20]
 291 001c 03F14C01 		add	r1, r3, #76
 292 0020 059A     		ldr	r2, [sp, #20]
 293 0022 049B     		ldr	r3, [sp, #16]
 294 0024 1344     		add	r3, r3, r2
 295 0026 0846     		mov	r0, r1
 296 0028 1946     		mov	r1, r3
 297 002a 5522     		movs	r2, #85
 298 002c FFF7FEFF 		bl	_thread_memfill
 299              		.loc 1 199 0
 300              	@ 199 "/home/makkmarci/workspace/ChibiOS_2.6.8/os/kernel/src/chthreads.c" 1
 301 0030 FFF7FEFF 		bl      _port_lock
 302              	@ 0 "" 2
 303              		.loc 1 200 0
 304              		.thumb
 305 0034 0A9B     		ldr	r3, [sp, #40]
 306 0036 0093     		str	r3, [sp]
 307 0038 0598     		ldr	r0, [sp, #20]
 308 003a 0499     		ldr	r1, [sp, #16]
 309 003c 039A     		ldr	r2, [sp, #12]
 310 003e 029B     		ldr	r3, [sp, #8]
 311 0040 FFF7FEFF 		bl	chThdCreateI
 312 0044 0790     		str	r0, [sp, #28]
 313 0046 0798     		ldr	r0, [sp, #28]
 314 0048 0021     		movs	r1, #0
 315 004a FFF7FEFF 		bl	chSchWakeupS
 316              		.loc 1 201 0
 317              	@ 201 "/home/makkmarci/workspace/ChibiOS_2.6.8/os/kernel/src/chthreads.c" 1
 318 004e FFF7FEFF 		bl      _port_unlock
 319              	@ 0 "" 2
 320              		.loc 1 202 0
 321              		.thumb
 322 0052 079B     		ldr	r3, [sp, #28]
 323              		.loc 1 203 0
 324 0054 1846     		mov	r0, r3
 325 0056 09B0     		add	sp, sp, #36
 326              		.cfi_def_cfa_offset 4
 327              		@ sp needed
 328 0058 5DF804FB 		ldr	pc, [sp], #4
 329              		.cfi_endproc
 330              	.LFE3:
 331              		.size	chThdCreateStatic, .-chThdCreateStatic
 332 005c AFF30080 		.section	.rodata
 333 0011 000000   		.align	2
 334              	.LC1:
 335 0014 22636854 		.ascii	"\"chThdSetPriority\"()\000"
 335      68645365 
ARM GAS  /tmp/ccGfWlQb.s 			page 7


 335      74507269 
 335      6F726974 
 335      79222829 
 336              		.section	.text.chThdSetPriority,"ax",%progbits
 337              		.align	2
 338              		.p2align 4,,15
 339              		.global	chThdSetPriority
 340              		.thumb
 341              		.thumb_func
 342              		.type	chThdSetPriority, %function
 343              	chThdSetPriority:
 344              	.LFB4:
 345              		.loc 1 217 0
 346              		.cfi_startproc
 347              		@ args = 0, pretend = 0, frame = 16
 348              		@ frame_needed = 0, uses_anonymous_args = 0
 349 0000 00B5     		push	{lr}
 350              		.cfi_def_cfa_offset 4
 351              		.cfi_offset 14, -4
 352 0002 85B0     		sub	sp, sp, #20
 353              		.cfi_def_cfa_offset 24
 354 0004 0190     		str	r0, [sp, #4]
 355              		.loc 1 220 0
 356 0006 019B     		ldr	r3, [sp, #4]
 357 0008 7F2B     		cmp	r3, #127
 358 000a 02D9     		bls	.L17
 359              		.loc 1 220 0 is_stmt 0 discriminator 1
 360 000c 1348     		ldr	r0, .L21
 361 000e FFF7FEFF 		bl	chDbgPanic
 362              	.L17:
 363              		.loc 1 222 0 is_stmt 1
 364              	@ 222 "/home/makkmarci/workspace/ChibiOS_2.6.8/os/kernel/src/chthreads.c" 1
 365 0012 FFF7FEFF 		bl      _port_lock
 366              	@ 0 "" 2
 367              		.loc 1 224 0
 368              		.thumb
 369 0016 124B     		ldr	r3, .L21+4
 370 0018 9B69     		ldr	r3, [r3, #24]
 371 001a 5B6C     		ldr	r3, [r3, #68]
 372 001c 0393     		str	r3, [sp, #12]
 373              		.loc 1 225 0
 374 001e 104B     		ldr	r3, .L21+4
 375 0020 9B69     		ldr	r3, [r3, #24]
 376 0022 9A68     		ldr	r2, [r3, #8]
 377 0024 0E4B     		ldr	r3, .L21+4
 378 0026 9B69     		ldr	r3, [r3, #24]
 379 0028 5B6C     		ldr	r3, [r3, #68]
 380 002a 9A42     		cmp	r2, r3
 381 002c 05D0     		beq	.L18
 382              		.loc 1 225 0 is_stmt 0 discriminator 1
 383 002e 0C4B     		ldr	r3, .L21+4
 384 0030 9B69     		ldr	r3, [r3, #24]
 385 0032 9A68     		ldr	r2, [r3, #8]
 386 0034 019B     		ldr	r3, [sp, #4]
 387 0036 9A42     		cmp	r2, r3
 388 0038 03D2     		bcs	.L19
 389              	.L18:
ARM GAS  /tmp/ccGfWlQb.s 			page 8


 390              		.loc 1 226 0 is_stmt 1
 391 003a 094B     		ldr	r3, .L21+4
 392 003c 9B69     		ldr	r3, [r3, #24]
 393 003e 019A     		ldr	r2, [sp, #4]
 394 0040 9A60     		str	r2, [r3, #8]
 395              	.L19:
 396              		.loc 1 227 0
 397 0042 074B     		ldr	r3, .L21+4
 398 0044 9B69     		ldr	r3, [r3, #24]
 399 0046 019A     		ldr	r2, [sp, #4]
 400 0048 5A64     		str	r2, [r3, #68]
 401              		.loc 1 232 0
 402 004a FFF7FEFF 		bl	chSchRescheduleS
 403              		.loc 1 233 0
 404              	@ 233 "/home/makkmarci/workspace/ChibiOS_2.6.8/os/kernel/src/chthreads.c" 1
 405 004e FFF7FEFF 		bl      _port_unlock
 406              	@ 0 "" 2
 407              		.loc 1 234 0
 408              		.thumb
 409 0052 039B     		ldr	r3, [sp, #12]
 410              		.loc 1 235 0
 411 0054 1846     		mov	r0, r3
 412 0056 05B0     		add	sp, sp, #20
 413              		.cfi_def_cfa_offset 4
 414              		@ sp needed
 415 0058 5DF804FB 		ldr	pc, [sp], #4
 416              	.L22:
 417              		.align	2
 418              	.L21:
 419 005c 14000000 		.word	.LC1
 420 0060 00000000 		.word	rlist
 421              		.cfi_endproc
 422              	.LFE4:
 423              		.size	chThdSetPriority, .-chThdSetPriority
 424 0064 AFF30080 		.section	.rodata
 424      AFF30080 
 424      AFF30080 
 425 0029 000000   		.align	2
 426              	.LC2:
 427 002c 63685468 		.ascii	"chThdResume(), #1\000"
 427      64526573 
 427      756D6528 
 427      292C2023 
 427      3100
 428              		.section	.text.chThdResume,"ax",%progbits
 429              		.align	2
 430              		.p2align 4,,15
 431              		.global	chThdResume
 432              		.thumb
 433              		.thumb_func
 434              		.type	chThdResume, %function
 435              	chThdResume:
 436              	.LFB5:
 437              		.loc 1 250 0
 438              		.cfi_startproc
 439              		@ args = 0, pretend = 0, frame = 8
 440              		@ frame_needed = 0, uses_anonymous_args = 0
ARM GAS  /tmp/ccGfWlQb.s 			page 9


 441 0000 00B5     		push	{lr}
 442              		.cfi_def_cfa_offset 4
 443              		.cfi_offset 14, -4
 444 0002 83B0     		sub	sp, sp, #12
 445              		.cfi_def_cfa_offset 16
 446 0004 0190     		str	r0, [sp, #4]
 447              		.loc 1 252 0
 448              	@ 252 "/home/makkmarci/workspace/ChibiOS_2.6.8/os/kernel/src/chthreads.c" 1
 449 0006 FFF7FEFF 		bl      _port_lock
 450              	@ 0 "" 2
 451              		.loc 1 253 0
 452              		.thumb
 453 000a 019B     		ldr	r3, [sp, #4]
 454 000c 93F82030 		ldrb	r3, [r3, #32]	@ zero_extendqisi2
 455 0010 022B     		cmp	r3, #2
 456 0012 02D0     		beq	.L24
 457              		.loc 1 253 0 is_stmt 0 discriminator 1
 458 0014 0648     		ldr	r0, .L26
 459 0016 FFF7FEFF 		bl	chDbgPanic
 460              	.L24:
 461              		.loc 1 256 0 is_stmt 1
 462 001a 0198     		ldr	r0, [sp, #4]
 463 001c 0021     		movs	r1, #0
 464 001e FFF7FEFF 		bl	chSchWakeupS
 465              		.loc 1 257 0
 466              	@ 257 "/home/makkmarci/workspace/ChibiOS_2.6.8/os/kernel/src/chthreads.c" 1
 467 0022 FFF7FEFF 		bl      _port_unlock
 468              	@ 0 "" 2
 469              		.loc 1 258 0
 470              		.thumb
 471 0026 019B     		ldr	r3, [sp, #4]
 472              		.loc 1 259 0
 473 0028 1846     		mov	r0, r3
 474 002a 03B0     		add	sp, sp, #12
 475              		.cfi_def_cfa_offset 4
 476              		@ sp needed
 477 002c 5DF804FB 		ldr	pc, [sp], #4
 478              	.L27:
 479              		.align	2
 480              	.L26:
 481 0030 2C000000 		.word	.LC2
 482              		.cfi_endproc
 483              	.LFE5:
 484              		.size	chThdResume, .-chThdResume
 485 0034 AFF30080 		.section	.text.chThdTerminate,"ax",%progbits
 485      AFF30080 
 485      AFF30080 
 486              		.align	2
 487              		.p2align 4,,15
 488              		.global	chThdTerminate
 489              		.thumb
 490              		.thumb_func
 491              		.type	chThdTerminate, %function
 492              	chThdTerminate:
 493              	.LFB6:
 494              		.loc 1 273 0
 495              		.cfi_startproc
ARM GAS  /tmp/ccGfWlQb.s 			page 10


 496              		@ args = 0, pretend = 0, frame = 8
 497              		@ frame_needed = 0, uses_anonymous_args = 0
 498 0000 00B5     		push	{lr}
 499              		.cfi_def_cfa_offset 4
 500              		.cfi_offset 14, -4
 501 0002 83B0     		sub	sp, sp, #12
 502              		.cfi_def_cfa_offset 16
 503 0004 0190     		str	r0, [sp, #4]
 504              		.loc 1 275 0
 505              	@ 275 "/home/makkmarci/workspace/ChibiOS_2.6.8/os/kernel/src/chthreads.c" 1
 506 0006 FFF7FEFF 		bl      _port_lock
 507              	@ 0 "" 2
 508              		.loc 1 276 0
 509              		.thumb
 510 000a 019B     		ldr	r3, [sp, #4]
 511 000c 93F82130 		ldrb	r3, [r3, #33]	@ zero_extendqisi2
 512 0010 43F00403 		orr	r3, r3, #4
 513 0014 DAB2     		uxtb	r2, r3
 514 0016 019B     		ldr	r3, [sp, #4]
 515 0018 83F82120 		strb	r2, [r3, #33]
 516              		.loc 1 277 0
 517              	@ 277 "/home/makkmarci/workspace/ChibiOS_2.6.8/os/kernel/src/chthreads.c" 1
 518 001c FFF7FEFF 		bl      _port_unlock
 519              	@ 0 "" 2
 520              		.loc 1 278 0
 521              		.thumb
 522 0020 03B0     		add	sp, sp, #12
 523              		.cfi_def_cfa_offset 4
 524              		@ sp needed
 525 0022 5DF804FB 		ldr	pc, [sp], #4
 526              		.cfi_endproc
 527              	.LFE6:
 528              		.size	chThdTerminate, .-chThdTerminate
 529 0026 00BFAFF3 		.section	.rodata
 529      0080AFF3 
 529      0080
 530 003e 0000     		.align	2
 531              	.LC3:
 532 0040 22636854 		.ascii	"\"chThdSleep\"()\000"
 532      6864536C 
 532      65657022 
 532      282900
 533              		.section	.text.chThdSleep,"ax",%progbits
 534              		.align	2
 535              		.p2align 4,,15
 536              		.global	chThdSleep
 537              		.thumb
 538              		.thumb_func
 539              		.type	chThdSleep, %function
 540              	chThdSleep:
 541              	.LFB7:
 542              		.loc 1 292 0
 543              		.cfi_startproc
 544              		@ args = 0, pretend = 0, frame = 8
 545              		@ frame_needed = 0, uses_anonymous_args = 0
 546 0000 00B5     		push	{lr}
 547              		.cfi_def_cfa_offset 4
ARM GAS  /tmp/ccGfWlQb.s 			page 11


 548              		.cfi_offset 14, -4
 549 0002 83B0     		sub	sp, sp, #12
 550              		.cfi_def_cfa_offset 16
 551 0004 0190     		str	r0, [sp, #4]
 552              		.loc 1 294 0
 553 0006 019B     		ldr	r3, [sp, #4]
 554 0008 002B     		cmp	r3, #0
 555 000a 02D1     		bne	.L30
 556              		.loc 1 294 0 is_stmt 0 discriminator 1
 557 000c 0648     		ldr	r0, .L31
 558 000e FFF7FEFF 		bl	chDbgPanic
 559              	.L30:
 560              		.loc 1 296 0 is_stmt 1
 561              	@ 296 "/home/makkmarci/workspace/ChibiOS_2.6.8/os/kernel/src/chthreads.c" 1
 562 0012 FFF7FEFF 		bl      _port_lock
 563              	@ 0 "" 2
 564              		.loc 1 297 0
 565              		.thumb
 566 0016 0620     		movs	r0, #6
 567 0018 0199     		ldr	r1, [sp, #4]
 568 001a FFF7FEFF 		bl	chSchGoSleepTimeoutS
 569              		.loc 1 298 0
 570              	@ 298 "/home/makkmarci/workspace/ChibiOS_2.6.8/os/kernel/src/chthreads.c" 1
 571 001e FFF7FEFF 		bl      _port_unlock
 572              	@ 0 "" 2
 573              		.loc 1 299 0
 574              		.thumb
 575 0022 03B0     		add	sp, sp, #12
 576              		.cfi_def_cfa_offset 4
 577              		@ sp needed
 578 0024 5DF804FB 		ldr	pc, [sp], #4
 579              	.L32:
 580              		.align	2
 581              	.L31:
 582 0028 40000000 		.word	.LC3
 583              		.cfi_endproc
 584              	.LFE7:
 585              		.size	chThdSleep, .-chThdSleep
 586 002c AFF30080 		.section	.text.chThdSleepUntil,"ax",%progbits
 587              		.align	2
 588              		.p2align 4,,15
 589              		.global	chThdSleepUntil
 590              		.thumb
 591              		.thumb_func
 592              		.type	chThdSleepUntil, %function
 593              	chThdSleepUntil:
 594              	.LFB8:
 595              		.loc 1 309 0
 596              		.cfi_startproc
 597              		@ args = 0, pretend = 0, frame = 8
 598              		@ frame_needed = 0, uses_anonymous_args = 0
 599 0000 00B5     		push	{lr}
 600              		.cfi_def_cfa_offset 4
 601              		.cfi_offset 14, -4
 602 0002 83B0     		sub	sp, sp, #12
 603              		.cfi_def_cfa_offset 16
 604 0004 0190     		str	r0, [sp, #4]
ARM GAS  /tmp/ccGfWlQb.s 			page 12


 605              		.loc 1 311 0
 606              	@ 311 "/home/makkmarci/workspace/ChibiOS_2.6.8/os/kernel/src/chthreads.c" 1
 607 0006 FFF7FEFF 		bl      _port_lock
 608              	@ 0 "" 2
 609              		.loc 1 312 0
 610              		.thumb
 611 000a 084B     		ldr	r3, .L35
 612 000c DB68     		ldr	r3, [r3, #12]
 613 000e 019A     		ldr	r2, [sp, #4]
 614 0010 D31A     		subs	r3, r2, r3
 615 0012 0193     		str	r3, [sp, #4]
 616 0014 019B     		ldr	r3, [sp, #4]
 617 0016 002B     		cmp	r3, #0
 618 0018 03D0     		beq	.L34
 619              		.loc 1 313 0
 620 001a 0620     		movs	r0, #6
 621 001c 0199     		ldr	r1, [sp, #4]
 622 001e FFF7FEFF 		bl	chSchGoSleepTimeoutS
 623              	.L34:
 624              		.loc 1 314 0
 625              	@ 314 "/home/makkmarci/workspace/ChibiOS_2.6.8/os/kernel/src/chthreads.c" 1
 626 0022 FFF7FEFF 		bl      _port_unlock
 627              	@ 0 "" 2
 628              		.loc 1 315 0
 629              		.thumb
 630 0026 03B0     		add	sp, sp, #12
 631              		.cfi_def_cfa_offset 4
 632              		@ sp needed
 633 0028 5DF804FB 		ldr	pc, [sp], #4
 634              	.L36:
 635              		.align	2
 636              	.L35:
 637 002c 00000000 		.word	vtlist
 638              		.cfi_endproc
 639              	.LFE8:
 640              		.size	chThdSleepUntil, .-chThdSleepUntil
 641              		.section	.text.chThdYield,"ax",%progbits
 642              		.align	2
 643              		.p2align 4,,15
 644              		.global	chThdYield
 645              		.thumb
 646              		.thumb_func
 647              		.type	chThdYield, %function
 648              	chThdYield:
 649              	.LFB9:
 650              		.loc 1 324 0
 651              		.cfi_startproc
 652              		@ args = 0, pretend = 0, frame = 0
 653              		@ frame_needed = 0, uses_anonymous_args = 0
 654 0000 08B5     		push	{r3, lr}
 655              		.cfi_def_cfa_offset 8
 656              		.cfi_offset 3, -8
 657              		.cfi_offset 14, -4
 658              		.loc 1 326 0
 659              	@ 326 "/home/makkmarci/workspace/ChibiOS_2.6.8/os/kernel/src/chthreads.c" 1
 660 0002 FFF7FEFF 		bl      _port_lock
 661              	@ 0 "" 2
ARM GAS  /tmp/ccGfWlQb.s 			page 13


 662              		.loc 1 327 0
 663              		.thumb
 664 0006 064B     		ldr	r3, .L39
 665 0008 1B68     		ldr	r3, [r3]
 666 000a 9A68     		ldr	r2, [r3, #8]
 667 000c 044B     		ldr	r3, .L39
 668 000e 9B69     		ldr	r3, [r3, #24]
 669 0010 9B68     		ldr	r3, [r3, #8]
 670 0012 9A42     		cmp	r2, r3
 671 0014 01D3     		bcc	.L38
 672              		.loc 1 327 0 is_stmt 0 discriminator 1
 673 0016 FFF7FEFF 		bl	chSchDoRescheduleBehind
 674              	.L38:
 675              		.loc 1 328 0 is_stmt 1
 676              	@ 328 "/home/makkmarci/workspace/ChibiOS_2.6.8/os/kernel/src/chthreads.c" 1
 677 001a FFF7FEFF 		bl      _port_unlock
 678              	@ 0 "" 2
 679              		.loc 1 329 0
 680              		.thumb
 681 001e 08BD     		pop	{r3, pc}
 682              	.L40:
 683              		.align	2
 684              	.L39:
 685 0020 00000000 		.word	rlist
 686              		.cfi_endproc
 687              	.LFE9:
 688              		.size	chThdYield, .-chThdYield
 689 0024 AFF30080 		.section	.text.chThdExit,"ax",%progbits
 689      AFF30080 
 689      AFF30080 
 690              		.align	2
 691              		.p2align 4,,15
 692              		.global	chThdExit
 693              		.thumb
 694              		.thumb_func
 695              		.type	chThdExit, %function
 696              	chThdExit:
 697              	.LFB10:
 698              		.loc 1 345 0
 699              		.cfi_startproc
 700              		@ args = 0, pretend = 0, frame = 8
 701              		@ frame_needed = 0, uses_anonymous_args = 0
 702 0000 00B5     		push	{lr}
 703              		.cfi_def_cfa_offset 4
 704              		.cfi_offset 14, -4
 705 0002 83B0     		sub	sp, sp, #12
 706              		.cfi_def_cfa_offset 16
 707 0004 0190     		str	r0, [sp, #4]
 708              		.loc 1 347 0
 709              	@ 347 "/home/makkmarci/workspace/ChibiOS_2.6.8/os/kernel/src/chthreads.c" 1
 710 0006 FFF7FEFF 		bl      _port_lock
 711              	@ 0 "" 2
 712              		.loc 1 348 0
 713              		.thumb
 714 000a 0198     		ldr	r0, [sp, #4]
 715 000c FFF7FEFF 		bl	chThdExitS
 716              		.loc 1 350 0
ARM GAS  /tmp/ccGfWlQb.s 			page 14


 717 0010 03B0     		add	sp, sp, #12
 718              		.cfi_def_cfa_offset 4
 719              		@ sp needed
 720 0012 5DF804FB 		ldr	pc, [sp], #4
 721              		.cfi_endproc
 722              	.LFE10:
 723              		.size	chThdExit, .-chThdExit
 724 0016 00BFAFF3 		.section	.rodata
 724      0080AFF3 
 724      0080
 725 004f 00       		.align	2
 726              	.LC4:
 727 0050 63685468 		.ascii	"chThdExitS(), #1\000"
 727      64457869 
 727      74532829 
 727      2C202331 
 727      00
 728              		.section	.text.chThdExitS,"ax",%progbits
 729              		.align	2
 730              		.p2align 4,,15
 731              		.global	chThdExitS
 732              		.thumb
 733              		.thumb_func
 734              		.type	chThdExitS, %function
 735              	chThdExitS:
 736              	.LFB11:
 737              		.loc 1 366 0
 738              		.cfi_startproc
 739              		@ args = 0, pretend = 0, frame = 16
 740              		@ frame_needed = 0, uses_anonymous_args = 0
 741 0000 00B5     		push	{lr}
 742              		.cfi_def_cfa_offset 4
 743              		.cfi_offset 14, -4
 744 0002 85B0     		sub	sp, sp, #20
 745              		.cfi_def_cfa_offset 24
 746 0004 0190     		str	r0, [sp, #4]
 747              		.loc 1 367 0
 748 0006 184B     		ldr	r3, .L46
 749 0008 9B69     		ldr	r3, [r3, #24]
 750 000a 0393     		str	r3, [sp, #12]
 751              		.loc 1 369 0
 752 000c 039B     		ldr	r3, [sp, #12]
 753 000e 019A     		ldr	r2, [sp, #4]
 754 0010 9A62     		str	r2, [r3, #40]
 755              		.loc 1 374 0
 756 0012 08E0     		b	.L43
 757              	.L44:
 758              		.loc 1 375 0
 759 0014 039B     		ldr	r3, [sp, #12]
 760 0016 2C33     		adds	r3, r3, #44
 761 0018 1846     		mov	r0, r3
 762 001a FFF7FEFF 		bl	list_remove
 763 001e 0346     		mov	r3, r0
 764 0020 1846     		mov	r0, r3
 765 0022 FFF7FEFF 		bl	chSchReadyI
 766              	.L43:
 767              		.loc 1 374 0
ARM GAS  /tmp/ccGfWlQb.s 			page 15


 768 0026 039B     		ldr	r3, [sp, #12]
 769 0028 DA6A     		ldr	r2, [r3, #44]
 770 002a 039B     		ldr	r3, [sp, #12]
 771 002c 2C33     		adds	r3, r3, #44
 772 002e 9A42     		cmp	r2, r3
 773 0030 F0D1     		bne	.L44
 774              		.loc 1 380 0
 775 0032 039B     		ldr	r3, [sp, #12]
 776 0034 93F82130 		ldrb	r3, [r3, #33]	@ zero_extendqisi2
 777 0038 03F00303 		and	r3, r3, #3
 778 003c 002B     		cmp	r3, #0
 779 003e 09D1     		bne	.L45
 780              		.loc 1 381 0
 781 0040 039B     		ldr	r3, [sp, #12]
 782 0042 5B69     		ldr	r3, [r3, #20]
 783 0044 039A     		ldr	r2, [sp, #12]
 784 0046 1269     		ldr	r2, [r2, #16]
 785 0048 1A61     		str	r2, [r3, #16]
 786 004a 039B     		ldr	r3, [sp, #12]
 787 004c 1B69     		ldr	r3, [r3, #16]
 788 004e 039A     		ldr	r2, [sp, #12]
 789 0050 5269     		ldr	r2, [r2, #20]
 790 0052 5A61     		str	r2, [r3, #20]
 791              	.L45:
 792              		.loc 1 383 0
 793 0054 0E20     		movs	r0, #14
 794 0056 FFF7FEFF 		bl	chSchGoSleepS
 795              		.loc 1 385 0
 796 005a 0448     		ldr	r0, .L46+4
 797 005c FFF7FEFF 		bl	chDbgPanic
 798              		.loc 1 386 0
 799 0060 05B0     		add	sp, sp, #20
 800              		.cfi_def_cfa_offset 4
 801              		@ sp needed
 802 0062 5DF804FB 		ldr	pc, [sp], #4
 803              	.L47:
 804 0066 00BF     		.align	2
 805              	.L46:
 806 0068 00000000 		.word	rlist
 807 006c 50000000 		.word	.LC4
 808              		.cfi_endproc
 809              	.LFE11:
 810              		.size	chThdExitS, .-chThdExitS
 811              		.section	.rodata
 812 0061 000000   		.align	2
 813              	.LC5:
 814 0064 22636854 		.ascii	"\"chThdWait\"()\000"
 814      68645761 
 814      69742228 
 814      2900
 815 0072 0000     		.align	2
 816              	.LC6:
 817 0074 63685468 		.ascii	"chThdWait(), #1\000"
 817      64576169 
 817      7428292C 
 817      20233100 
 818              		.align	2
ARM GAS  /tmp/ccGfWlQb.s 			page 16


 819              	.LC7:
 820 0084 63685468 		.ascii	"chThdWait(), #2\000"
 820      64576169 
 820      7428292C 
 820      20233200 
 821              		.section	.text.chThdWait,"ax",%progbits
 822              		.align	2
 823              		.p2align 4,,15
 824              		.global	chThdWait
 825              		.thumb
 826              		.thumb_func
 827              		.type	chThdWait, %function
 828              	chThdWait:
 829              	.LFB12:
 830              		.loc 1 420 0
 831              		.cfi_startproc
 832              		@ args = 0, pretend = 0, frame = 16
 833              		@ frame_needed = 0, uses_anonymous_args = 0
 834 0000 00B5     		push	{lr}
 835              		.cfi_def_cfa_offset 4
 836              		.cfi_offset 14, -4
 837 0002 85B0     		sub	sp, sp, #20
 838              		.cfi_def_cfa_offset 24
 839 0004 0190     		str	r0, [sp, #4]
 840              		.loc 1 423 0
 841 0006 019B     		ldr	r3, [sp, #4]
 842 0008 002B     		cmp	r3, #0
 843 000a 02D1     		bne	.L49
 844              		.loc 1 423 0 is_stmt 0 discriminator 1
 845 000c 1848     		ldr	r0, .L54
 846 000e FFF7FEFF 		bl	chDbgPanic
 847              	.L49:
 848              		.loc 1 425 0 is_stmt 1
 849              	@ 425 "/home/makkmarci/workspace/ChibiOS_2.6.8/os/kernel/src/chthreads.c" 1
 850 0012 FFF7FEFF 		bl      _port_lock
 851              	@ 0 "" 2
 852              		.loc 1 426 0
 853              		.thumb
 854 0016 174B     		ldr	r3, .L54+4
 855 0018 9A69     		ldr	r2, [r3, #24]
 856 001a 019B     		ldr	r3, [sp, #4]
 857 001c 9A42     		cmp	r2, r3
 858 001e 02D1     		bne	.L50
 859              		.loc 1 426 0 is_stmt 0 discriminator 1
 860 0020 1548     		ldr	r0, .L54+8
 861 0022 FFF7FEFF 		bl	chDbgPanic
 862              	.L50:
 863              		.loc 1 428 0 is_stmt 1
 864 0026 019B     		ldr	r3, [sp, #4]
 865 0028 93F82230 		ldrb	r3, [r3, #34]	@ zero_extendqisi2
 866 002c 002B     		cmp	r3, #0
 867 002e 02D1     		bne	.L51
 868              		.loc 1 428 0 is_stmt 0 discriminator 1
 869 0030 1248     		ldr	r0, .L54+12
 870 0032 FFF7FEFF 		bl	chDbgPanic
 871              	.L51:
 872              		.loc 1 430 0 is_stmt 1
ARM GAS  /tmp/ccGfWlQb.s 			page 17


 873 0036 019B     		ldr	r3, [sp, #4]
 874 0038 93F82030 		ldrb	r3, [r3, #32]	@ zero_extendqisi2
 875 003c 0E2B     		cmp	r3, #14
 876 003e 0AD0     		beq	.L52
 877              		.loc 1 431 0
 878 0040 0C4B     		ldr	r3, .L54+4
 879 0042 9A69     		ldr	r2, [r3, #24]
 880 0044 019B     		ldr	r3, [sp, #4]
 881 0046 2C33     		adds	r3, r3, #44
 882 0048 1046     		mov	r0, r2
 883 004a 1946     		mov	r1, r3
 884 004c FFF7FEFF 		bl	list_insert
 885              		.loc 1 432 0
 886 0050 0720     		movs	r0, #7
 887 0052 FFF7FEFF 		bl	chSchGoSleepS
 888              	.L52:
 889              		.loc 1 434 0
 890 0056 019B     		ldr	r3, [sp, #4]
 891 0058 9B6A     		ldr	r3, [r3, #40]
 892 005a 0393     		str	r3, [sp, #12]
 893              		.loc 1 435 0
 894              	@ 435 "/home/makkmarci/workspace/ChibiOS_2.6.8/os/kernel/src/chthreads.c" 1
 895 005c FFF7FEFF 		bl      _port_unlock
 896              	@ 0 "" 2
 897              		.loc 1 437 0
 898              		.thumb
 899 0060 0198     		ldr	r0, [sp, #4]
 900 0062 FFF7FEFF 		bl	chThdRelease
 901              		.loc 1 439 0
 902 0066 039B     		ldr	r3, [sp, #12]
 903              		.loc 1 440 0
 904 0068 1846     		mov	r0, r3
 905 006a 05B0     		add	sp, sp, #20
 906              		.cfi_def_cfa_offset 4
 907              		@ sp needed
 908 006c 5DF804FB 		ldr	pc, [sp], #4
 909              	.L55:
 910              		.align	2
 911              	.L54:
 912 0070 64000000 		.word	.LC5
 913 0074 00000000 		.word	rlist
 914 0078 74000000 		.word	.LC6
 915 007c 84000000 		.word	.LC7
 916              		.cfi_endproc
 917              	.LFE12:
 918              		.size	chThdWait, .-chThdWait
 919              		.text
 920              	.Letext0:
 921              		.file 2 "/opt/gcc-arm-none-eabi/lib/gcc/arm-none-eabi/4.9.3/include/stddef.h"
 922              		.file 3 "/opt/gcc-arm-none-eabi/arm-none-eabi/include/machine/_default_types.h"
 923              		.file 4 "/opt/gcc-arm-none-eabi/arm-none-eabi/include/stdint.h"
 924              		.file 5 "/home/makkmarci/workspace/ChibiOS_2.6.8/os/ports/GCC/ARMCMx/chtypes.h"
 925              		.file 6 "/home/makkmarci/workspace/ChibiOS_2.6.8/os/kernel/include/chlists.h"
 926              		.file 7 "/home/makkmarci/workspace/ChibiOS_2.6.8/os/kernel/include/chthreads.h"
 927              		.file 8 "/home/makkmarci/workspace/ChibiOS_2.6.8/os/ports/GCC/ARMCMx/chcore_v7m.h"
 928              		.file 9 "/home/makkmarci/workspace/ChibiOS_2.6.8/os/kernel/include/chvt.h"
 929              		.file 10 "/home/makkmarci/workspace/ChibiOS_2.6.8/os/kernel/include/chschd.h"
ARM GAS  /tmp/ccGfWlQb.s 			page 18


 930              		.file 11 "/home/makkmarci/workspace/ChibiOS_2.6.8/os/kernel/include/chmtx.h"