ARM GAS  /tmp/ccHM6Mvs.s 			page 1


   1              		.syntax unified
   2              		.cpu cortex-m4
   3              		.eabi_attribute 27, 3
   4              		.eabi_attribute 28, 1
   5              		.fpu fpv4-sp-d16
   6              		.eabi_attribute 20, 1
   7              		.eabi_attribute 21, 1
   8              		.eabi_attribute 23, 3
   9              		.eabi_attribute 24, 1
  10              		.eabi_attribute 25, 1
  11              		.eabi_attribute 26, 1
  12              		.eabi_attribute 30, 2
  13              		.eabi_attribute 34, 1
  14              		.eabi_attribute 18, 4
  15              		.thumb
  16              		.file	"chthreads.c"
  17              		.text
  18              	.Ltext0:
  19              		.cfi_sections	.debug_frame
  20              		.section	.text._thread_init,"ax",%progbits
  21              		.align	2
  22              		.p2align 4,,15
  23              		.global	_thread_init
  24              		.thumb
  25              		.thumb_func
  26              		.type	_thread_init, %function
  27              	_thread_init:
  28              	.LFB0:
  29              		.file 1 "../../os/kernel/src/chthreads.c"
  30              		.loc 1 76 0
  31              		.cfi_startproc
  32              		@ args = 0, pretend = 0, frame = 0
  33              		@ frame_needed = 0, uses_anonymous_args = 0
  34              		@ link register save eliminated.
  35              	.LVL0:
  36 0000 2DE9F007 		push	{r4, r5, r6, r7, r8, r9, r10}
  37              		.cfi_def_cfa_offset 28
  38              		.cfi_offset 4, -28
  39              		.cfi_offset 5, -24
  40              		.cfi_offset 6, -20
  41              		.cfi_offset 7, -16
  42              		.cfi_offset 8, -12
  43              		.cfi_offset 9, -8
  44              		.cfi_offset 10, -4
  45              		.loc 1 99 0
  46 0004 144C     		ldr	r4, .L2
  47              		.loc 1 85 0
  48 0006 4164     		str	r1, [r0, #68]
  49              		.loc 1 99 0
  50 0008 6569     		ldr	r5, [r4, #20]
  51 000a 4561     		str	r5, [r0, #20]
  52              		.loc 1 80 0
  53 000c 0022     		movs	r2, #0
  54              		.loc 1 105 0
  55 000e 00F13006 		add	r6, r0, #48
  56              		.loc 1 79 0
  57 0012 4FF0020A 		mov	r10, #2
ARM GAS  /tmp/ccHM6Mvs.s 			page 2


  58              		.loc 1 82 0
  59 0016 4FF01409 		mov	r9, #20
  60              		.loc 1 95 0
  61 001a 4FF00108 		mov	r8, #1
  62              		.loc 1 108 0
  63 001e 00F14C07 		add	r7, r0, #76
  64              		.loc 1 102 0
  65 0022 00F12C0C 		add	ip, r0, #44
  66              		.loc 1 99 0
  67 0026 0461     		str	r4, [r0, #16]
  68              		.loc 1 78 0
  69 0028 8160     		str	r1, [r0, #8]
  70              		.loc 1 79 0
  71 002a 80F820A0 		strb	r10, [r0, #32]
  72              		.loc 1 99 0
  73 002e 6061     		str	r0, [r4, #20]
  74              		.loc 1 82 0
  75 0030 80F82390 		strb	r9, [r0, #35]
  76              		.loc 1 95 0
  77 0034 80F82280 		strb	r8, [r0, #34]
  78              		.loc 1 80 0
  79 0038 80F82120 		strb	r2, [r0, #33]
  80              		.loc 1 86 0
  81 003c 0264     		str	r2, [r0, #64]
  82              		.loc 1 89 0
  83 003e C263     		str	r2, [r0, #60]
  84              		.loc 1 92 0
  85 0040 4262     		str	r2, [r0, #36]
  86              		.loc 1 98 0
  87 0042 8261     		str	r2, [r0, #24]
  88              		.loc 1 99 0
  89 0044 2861     		str	r0, [r5, #16]
  90              		.loc 1 108 0
  91 0046 C761     		str	r7, [r0, #28]
  92              		.loc 1 105 0
  93 0048 4663     		str	r6, [r0, #52]
  94 004a 0663     		str	r6, [r0, #48]
  95              		.loc 1 102 0
  96 004c C0F82CC0 		str	ip, [r0, #44]
  97              		.loc 1 114 0
  98 0050 BDE8F007 		pop	{r4, r5, r6, r7, r8, r9, r10}
  99 0054 7047     		bx	lr
 100              	.L3:
 101 0056 00BF     		.align	2
 102              	.L2:
 103 0058 00000000 		.word	rlist
 104              		.cfi_endproc
 105              	.LFE0:
 106              		.size	_thread_init, .-_thread_init
 107 005c AFF30080 		.section	.text._thread_memfill,"ax",%progbits
 108              		.align	2
 109              		.p2align 4,,15
 110              		.global	_thread_memfill
 111              		.thumb
 112              		.thumb_func
 113              		.type	_thread_memfill, %function
 114              	_thread_memfill:
ARM GAS  /tmp/ccHM6Mvs.s 			page 3


 115              	.LFB1:
 116              		.loc 1 126 0
 117              		.cfi_startproc
 118              		@ args = 0, pretend = 0, frame = 0
 119              		@ frame_needed = 0, uses_anonymous_args = 0
 120              		@ link register save eliminated.
 121              	.LVL1:
 122              		.loc 1 128 0
 123 0000 8842     		cmp	r0, r1
 124 0002 03D2     		bcs	.L4
 125              	.L7:
 126              		.loc 1 129 0
 127 0004 00F8012B 		strb	r2, [r0], #1
 128              	.LVL2:
 129              		.loc 1 128 0
 130 0008 8842     		cmp	r0, r1
 131 000a FBD1     		bne	.L7
 132              	.L4:
 133 000c 7047     		bx	lr
 134              		.cfi_endproc
 135              	.LFE1:
 136              		.size	_thread_memfill, .-_thread_memfill
 137 000e 00BF     		.section	.text.chThdCreateI,"ax",%progbits
 138              		.align	2
 139              		.p2align 4,,15
 140              		.global	chThdCreateI
 141              		.thumb
 142              		.thumb_func
 143              		.type	chThdCreateI, %function
 144              	chThdCreateI:
 145              	.LFB2:
 146              		.loc 1 158 0
 147              		.cfi_startproc
 148              		@ args = 4, pretend = 0, frame = 8
 149              		@ frame_needed = 0, uses_anonymous_args = 0
 150              	.LVL3:
 151 0000 2DE9F04F 		push	{r4, r5, r6, r7, r8, r9, r10, fp, lr}
 152              		.cfi_def_cfa_offset 36
 153              		.cfi_offset 4, -36
 154              		.cfi_offset 5, -32
 155              		.cfi_offset 6, -28
 156              		.cfi_offset 7, -24
 157              		.cfi_offset 8, -20
 158              		.cfi_offset 9, -16
 159              		.cfi_offset 10, -12
 160              		.cfi_offset 11, -8
 161              		.cfi_offset 14, -4
 162              		.loc 1 164 0
 163 0004 0446     		mov	r4, r0
 164              		.loc 1 158 0
 165 0006 83B0     		sub	sp, sp, #12
 166              		.cfi_def_cfa_offset 48
 167              		.loc 1 158 0
 168 0008 0D46     		mov	r5, r1
 169 000a 1746     		mov	r7, r2
 170              		.loc 1 164 0
 171 000c 10B1     		cbz	r0, .L11
ARM GAS  /tmp/ccHM6Mvs.s 			page 4


 172              		.loc 1 164 0 is_stmt 0 discriminator 2
 173 000e B1F5AC7F 		cmp	r1, #344
 174 0012 38D2     		bcs	.L16
 175              	.L11:
 176              		.loc 1 164 0 discriminator 1
 177 0014 1E48     		ldr	r0, .L17
 178              	.LVL4:
 179 0016 0193     		str	r3, [sp, #4]
 180 0018 FFF7FEFF 		bl	chDbgPanic
 181              	.LVL5:
 182 001c 019B     		ldr	r3, [sp, #4]
 183              	.L12:
 184              		.loc 1 167 0 is_stmt 1
 185 001e A5F16401 		sub	r1, r5, #100
 186 0022 2144     		add	r1, r1, r4
 187              	.LBB8:
 188              	.LBB9:
 189              		.loc 1 99 0
 190 0024 1B4E     		ldr	r6, .L17+4
 191              	.LBE9:
 192              	.LBE8:
 193              		.loc 1 167 0
 194 0026 0C98     		ldr	r0, [sp, #48]
 195              	.LBB13:
 196              	.LBB10:
 197              		.loc 1 99 0
 198 0028 7269     		ldr	r2, [r6, #20]
 199              	.LBE10:
 200              	.LBE13:
 201              		.loc 1 167 0
 202 002a E160     		str	r1, [r4, #12]
 203 002c 4864     		str	r0, [r1, #68]
 204 002e 1A48     		ldr	r0, .L17+8
 205 0030 0B64     		str	r3, [r1, #64]
 206 0032 0866     		str	r0, [r1, #96]
 207              	.LVL6:
 208              	.LBB14:
 209              	.LBB11:
 210              		.loc 1 80 0
 211 0034 0025     		movs	r5, #0
 212              	.LVL7:
 213              		.loc 1 105 0
 214 0036 04F13003 		add	r3, r4, #48
 215              		.loc 1 79 0
 216 003a 4FF0020B 		mov	fp, #2
 217              		.loc 1 82 0
 218 003e 4FF0140A 		mov	r10, #20
 219              		.loc 1 95 0
 220 0042 4FF00109 		mov	r9, #1
 221              		.loc 1 102 0
 222 0046 04F12C08 		add	r8, r4, #44
 223              		.loc 1 108 0
 224 004a 04F14C0C 		add	ip, r4, #76
 225              	.LBE11:
 226              	.LBE14:
 227              		.loc 1 169 0
 228 004e 2046     		mov	r0, r4
ARM GAS  /tmp/ccHM6Mvs.s 			page 5


 229              	.LBB15:
 230              	.LBB12:
 231              		.loc 1 78 0
 232 0050 A760     		str	r7, [r4, #8]
 233              		.loc 1 99 0
 234 0052 2661     		str	r6, [r4, #16]
 235 0054 6261     		str	r2, [r4, #20]
 236              		.loc 1 85 0
 237 0056 6764     		str	r7, [r4, #68]
 238              		.loc 1 79 0
 239 0058 84F820B0 		strb	fp, [r4, #32]
 240              		.loc 1 99 0
 241 005c 7461     		str	r4, [r6, #20]
 242              		.loc 1 80 0
 243 005e 84F82150 		strb	r5, [r4, #33]
 244              		.loc 1 86 0
 245 0062 2564     		str	r5, [r4, #64]
 246              		.loc 1 89 0
 247 0064 E563     		str	r5, [r4, #60]
 248              		.loc 1 92 0
 249 0066 6562     		str	r5, [r4, #36]
 250              		.loc 1 98 0
 251 0068 A561     		str	r5, [r4, #24]
 252              		.loc 1 82 0
 253 006a 84F823A0 		strb	r10, [r4, #35]
 254              		.loc 1 95 0
 255 006e 84F82290 		strb	r9, [r4, #34]
 256              		.loc 1 99 0
 257 0072 1461     		str	r4, [r2, #16]
 258              		.loc 1 102 0
 259 0074 C4F82C80 		str	r8, [r4, #44]
 260              		.loc 1 105 0
 261 0078 6363     		str	r3, [r4, #52]
 262 007a 2363     		str	r3, [r4, #48]
 263              		.loc 1 108 0
 264 007c C4F81CC0 		str	ip, [r4, #28]
 265              	.LBE12:
 266              	.LBE15:
 267              		.loc 1 169 0
 268 0080 03B0     		add	sp, sp, #12
 269              		@ sp needed
 270 0082 BDE8F08F 		pop	{r4, r5, r6, r7, r8, r9, r10, fp, pc}
 271              	.LVL8:
 272              	.L16:
 273              		.loc 1 164 0 discriminator 1
 274 0086 7F2A     		cmp	r2, #127
 275 0088 C4D8     		bhi	.L11
 276 008a 002B     		cmp	r3, #0
 277 008c C7D1     		bne	.L12
 278 008e C1E7     		b	.L11
 279              	.L18:
 280              		.align	2
 281              	.L17:
 282 0090 00000000 		.word	.LC0
 283 0094 00000000 		.word	rlist
 284 0098 00000000 		.word	_port_thread_start
 285              		.cfi_endproc
ARM GAS  /tmp/ccHM6Mvs.s 			page 6


 286              	.LFE2:
 287              		.size	chThdCreateI, .-chThdCreateI
 288 009c AFF30080 		.section	.text.chThdCreateStatic,"ax",%progbits
 289              		.align	2
 290              		.p2align 4,,15
 291              		.global	chThdCreateStatic
 292              		.thumb
 293              		.thumb_func
 294              		.type	chThdCreateStatic, %function
 295              	chThdCreateStatic:
 296              	.LFB3:
 297              		.loc 1 188 0
 298              		.cfi_startproc
 299              		@ args = 4, pretend = 0, frame = 0
 300              		@ frame_needed = 0, uses_anonymous_args = 0
 301              	.LVL9:
 302 0000 F0B5     		push	{r4, r5, r6, r7, lr}
 303              		.cfi_def_cfa_offset 20
 304              		.cfi_offset 4, -20
 305              		.cfi_offset 5, -16
 306              		.cfi_offset 6, -12
 307              		.cfi_offset 7, -8
 308              		.cfi_offset 14, -4
 309 0002 83B0     		sub	sp, sp, #12
 310              		.cfi_def_cfa_offset 32
 311              		.loc 1 188 0
 312 0004 9C46     		mov	ip, r3
 313 0006 089F     		ldr	r7, [sp, #32]
 314              		.loc 1 192 0
 315 0008 00F14C05 		add	r5, r0, #76
 316              	.LVL10:
 317 000c 0446     		mov	r4, r0
 318              	.LBB16:
 319              	.LBB17:
 320              		.loc 1 129 0
 321 000e FF26     		movs	r6, #255
 322              	.LVL11:
 323              	.L21:
 324 0010 04F8016B 		strb	r6, [r4], #1
 325              	.LVL12:
 326              		.loc 1 128 0
 327 0014 A542     		cmp	r5, r4
 328 0016 FBD1     		bne	.L21
 329              	.LBE17:
 330              	.LBE16:
 331              		.loc 1 195 0
 332 0018 4418     		adds	r4, r0, r1
 333              	.LVL13:
 334              	.LBB18:
 335              	.LBB19:
 336              		.loc 1 128 0
 337 001a A542     		cmp	r5, r4
 338 001c 04D2     		bcs	.L23
 339              		.loc 1 129 0
 340 001e 5526     		movs	r6, #85
 341              	.LVL14:
 342              	.L24:
ARM GAS  /tmp/ccHM6Mvs.s 			page 7


 343 0020 05F8016B 		strb	r6, [r5], #1
 344              	.LVL15:
 345              		.loc 1 128 0
 346 0024 A542     		cmp	r5, r4
 347 0026 FBD1     		bne	.L24
 348              	.L23:
 349              	.LBE19:
 350              	.LBE18:
 351              		.loc 1 199 0
 352              	@ 199 "../../os/kernel/src/chthreads.c" 1
 353 0028 FFF7FEFF 		bl      _port_lock
 354              	@ 0 "" 2
 355              	.LVL16:
 356              		.loc 1 200 0
 357              		.thumb
 358 002c 6346     		mov	r3, ip
 359 002e 0097     		str	r7, [sp]
 360 0030 FFF7FEFF 		bl	chThdCreateI
 361              	.LVL17:
 362 0034 0021     		movs	r1, #0
 363 0036 0446     		mov	r4, r0
 364              	.LVL18:
 365 0038 FFF7FEFF 		bl	chSchWakeupS
 366              	.LVL19:
 367              		.loc 1 201 0
 368              	@ 201 "../../os/kernel/src/chthreads.c" 1
 369 003c FFF7FEFF 		bl      _port_unlock
 370              	@ 0 "" 2
 371              		.loc 1 203 0
 372              		.thumb
 373 0040 2046     		mov	r0, r4
 374 0042 03B0     		add	sp, sp, #12
 375              		@ sp needed
 376 0044 F0BD     		pop	{r4, r5, r6, r7, pc}
 377              		.cfi_endproc
 378              	.LFE3:
 379              		.size	chThdCreateStatic, .-chThdCreateStatic
 380 0046 00BFAFF3 		.section	.text.chThdSetPriority,"ax",%progbits
 380      0080AFF3 
 380      0080
 381              		.align	2
 382              		.p2align 4,,15
 383              		.global	chThdSetPriority
 384              		.thumb
 385              		.thumb_func
 386              		.type	chThdSetPriority, %function
 387              	chThdSetPriority:
 388              	.LFB4:
 389              		.loc 1 217 0
 390              		.cfi_startproc
 391              		@ args = 0, pretend = 0, frame = 0
 392              		@ frame_needed = 0, uses_anonymous_args = 0
 393              	.LVL20:
 394              		.loc 1 220 0
 395 0000 7F28     		cmp	r0, #127
 396              		.loc 1 217 0
 397 0002 38B5     		push	{r3, r4, r5, lr}
ARM GAS  /tmp/ccHM6Mvs.s 			page 8


 398              		.cfi_def_cfa_offset 16
 399              		.cfi_offset 3, -16
 400              		.cfi_offset 4, -12
 401              		.cfi_offset 5, -8
 402              		.cfi_offset 14, -4
 403              		.loc 1 217 0
 404 0004 0446     		mov	r4, r0
 405              		.loc 1 220 0
 406 0006 11D8     		bhi	.L32
 407              	.LVL21:
 408              	.L29:
 409              		.loc 1 222 0
 410              	@ 222 "../../os/kernel/src/chthreads.c" 1
 411 0008 FFF7FEFF 		bl      _port_lock
 412              	@ 0 "" 2
 413              		.loc 1 224 0
 414              		.thumb
 415 000c 094B     		ldr	r3, .L33
 416 000e 9B69     		ldr	r3, [r3, #24]
 417 0010 5D6C     		ldr	r5, [r3, #68]
 418              	.LVL22:
 419              		.loc 1 225 0
 420 0012 9A68     		ldr	r2, [r3, #8]
 421 0014 9542     		cmp	r5, r2
 422 0016 01D0     		beq	.L30
 423              		.loc 1 225 0 is_stmt 0 discriminator 1
 424 0018 9442     		cmp	r4, r2
 425 001a 00D9     		bls	.L31
 426              	.L30:
 427              		.loc 1 226 0 is_stmt 1
 428 001c 9C60     		str	r4, [r3, #8]
 429              	.L31:
 430              		.loc 1 227 0
 431 001e 5C64     		str	r4, [r3, #68]
 432              		.loc 1 232 0
 433 0020 FFF7FEFF 		bl	chSchRescheduleS
 434              	.LVL23:
 435              		.loc 1 233 0
 436              	@ 233 "../../os/kernel/src/chthreads.c" 1
 437 0024 FFF7FEFF 		bl      _port_unlock
 438              	@ 0 "" 2
 439              		.loc 1 235 0
 440              		.thumb
 441 0028 2846     		mov	r0, r5
 442 002a 38BD     		pop	{r3, r4, r5, pc}
 443              	.LVL24:
 444              	.L32:
 445              		.loc 1 220 0 discriminator 1
 446 002c 0248     		ldr	r0, .L33+4
 447              	.LVL25:
 448 002e FFF7FEFF 		bl	chDbgPanic
 449              	.LVL26:
 450 0032 E9E7     		b	.L29
 451              	.L34:
 452              		.align	2
 453              	.L33:
 454 0034 00000000 		.word	rlist
ARM GAS  /tmp/ccHM6Mvs.s 			page 9


 455 0038 14000000 		.word	.LC1
 456              		.cfi_endproc
 457              	.LFE4:
 458              		.size	chThdSetPriority, .-chThdSetPriority
 459 003c AFF30080 		.section	.text.chThdResume,"ax",%progbits
 460              		.align	2
 461              		.p2align 4,,15
 462              		.global	chThdResume
 463              		.thumb
 464              		.thumb_func
 465              		.type	chThdResume, %function
 466              	chThdResume:
 467              	.LFB5:
 468              		.loc 1 250 0
 469              		.cfi_startproc
 470              		@ args = 0, pretend = 0, frame = 0
 471              		@ frame_needed = 0, uses_anonymous_args = 0
 472              	.LVL27:
 473 0000 10B5     		push	{r4, lr}
 474              		.cfi_def_cfa_offset 8
 475              		.cfi_offset 4, -8
 476              		.cfi_offset 14, -4
 477              		.loc 1 250 0
 478 0002 0446     		mov	r4, r0
 479              		.loc 1 252 0
 480              	@ 252 "../../os/kernel/src/chthreads.c" 1
 481 0004 FFF7FEFF 		bl      _port_lock
 482              	@ 0 "" 2
 483              		.loc 1 253 0
 484              		.thumb
 485 0008 90F82030 		ldrb	r3, [r0, #32]	@ zero_extendqisi2
 486 000c 022B     		cmp	r3, #2
 487 000e 02D0     		beq	.L36
 488              		.loc 1 253 0 is_stmt 0 discriminator 1
 489 0010 0548     		ldr	r0, .L40
 490              	.LVL28:
 491 0012 FFF7FEFF 		bl	chDbgPanic
 492              	.LVL29:
 493              	.L36:
 494              		.loc 1 256 0 is_stmt 1
 495 0016 2046     		mov	r0, r4
 496 0018 0021     		movs	r1, #0
 497 001a FFF7FEFF 		bl	chSchWakeupS
 498              	.LVL30:
 499              		.loc 1 257 0
 500              	@ 257 "../../os/kernel/src/chthreads.c" 1
 501 001e FFF7FEFF 		bl      _port_unlock
 502              	@ 0 "" 2
 503              		.loc 1 259 0
 504              		.thumb
 505 0022 2046     		mov	r0, r4
 506 0024 10BD     		pop	{r4, pc}
 507              	.LVL31:
 508              	.L41:
 509 0026 00BF     		.align	2
 510              	.L40:
 511 0028 2C000000 		.word	.LC2
ARM GAS  /tmp/ccHM6Mvs.s 			page 10


 512              		.cfi_endproc
 513              	.LFE5:
 514              		.size	chThdResume, .-chThdResume
 515 002c AFF30080 		.section	.text.chThdTerminate,"ax",%progbits
 516              		.align	2
 517              		.p2align 4,,15
 518              		.global	chThdTerminate
 519              		.thumb
 520              		.thumb_func
 521              		.type	chThdTerminate, %function
 522              	chThdTerminate:
 523              	.LFB6:
 524              		.loc 1 273 0
 525              		.cfi_startproc
 526              		@ args = 0, pretend = 0, frame = 0
 527              		@ frame_needed = 0, uses_anonymous_args = 0
 528              	.LVL32:
 529 0000 00B5     		push	{lr}
 530              		.cfi_def_cfa_offset 4
 531              		.cfi_offset 14, -4
 532              		.loc 1 275 0
 533              	@ 275 "../../os/kernel/src/chthreads.c" 1
 534 0002 FFF7FEFF 		bl      _port_lock
 535              	@ 0 "" 2
 536              		.loc 1 276 0
 537              		.thumb
 538 0006 90F82130 		ldrb	r3, [r0, #33]	@ zero_extendqisi2
 539 000a 43F00403 		orr	r3, r3, #4
 540 000e 80F82130 		strb	r3, [r0, #33]
 541              		.loc 1 277 0
 542              	@ 277 "../../os/kernel/src/chthreads.c" 1
 543 0012 FFF7FEFF 		bl      _port_unlock
 544              	@ 0 "" 2
 545              		.thumb
 546 0016 5DF804FB 		ldr	pc, [sp], #4
 547              		.cfi_endproc
 548              	.LFE6:
 549              		.size	chThdTerminate, .-chThdTerminate
 550 001a 00BFAFF3 		.section	.text.chThdSleep,"ax",%progbits
 550      0080
 551              		.align	2
 552              		.p2align 4,,15
 553              		.global	chThdSleep
 554              		.thumb
 555              		.thumb_func
 556              		.type	chThdSleep, %function
 557              	chThdSleep:
 558              	.LFB7:
 559              		.loc 1 292 0
 560              		.cfi_startproc
 561              		@ args = 0, pretend = 0, frame = 0
 562              		@ frame_needed = 0, uses_anonymous_args = 0
 563              	.LVL33:
 564 0000 10B5     		push	{r4, lr}
 565              		.cfi_def_cfa_offset 8
 566              		.cfi_offset 4, -8
 567              		.cfi_offset 14, -4
ARM GAS  /tmp/ccHM6Mvs.s 			page 11


 568              		.loc 1 294 0
 569 0002 0446     		mov	r4, r0
 570 0004 10B9     		cbnz	r0, .L44
 571              		.loc 1 294 0 is_stmt 0 discriminator 1
 572 0006 0648     		ldr	r0, .L45
 573              	.LVL34:
 574 0008 FFF7FEFF 		bl	chDbgPanic
 575              	.LVL35:
 576              	.L44:
 577              		.loc 1 296 0 is_stmt 1
 578              	@ 296 "../../os/kernel/src/chthreads.c" 1
 579 000c FFF7FEFF 		bl      _port_lock
 580              	@ 0 "" 2
 581              		.loc 1 297 0
 582              		.thumb
 583 0010 0620     		movs	r0, #6
 584 0012 2146     		mov	r1, r4
 585 0014 FFF7FEFF 		bl	chSchGoSleepTimeoutS
 586              	.LVL36:
 587              		.loc 1 298 0
 588              	@ 298 "../../os/kernel/src/chthreads.c" 1
 589 0018 FFF7FEFF 		bl      _port_unlock
 590              	@ 0 "" 2
 591              		.thumb
 592 001c 10BD     		pop	{r4, pc}
 593              	.LVL37:
 594              	.L46:
 595 001e 00BF     		.align	2
 596              	.L45:
 597 0020 40000000 		.word	.LC3
 598              		.cfi_endproc
 599              	.LFE7:
 600              		.size	chThdSleep, .-chThdSleep
 601 0024 AFF30080 		.section	.text.chThdSleepUntil,"ax",%progbits
 601      AFF30080 
 601      AFF30080 
 602              		.align	2
 603              		.p2align 4,,15
 604              		.global	chThdSleepUntil
 605              		.thumb
 606              		.thumb_func
 607              		.type	chThdSleepUntil, %function
 608              	chThdSleepUntil:
 609              	.LFB8:
 610              		.loc 1 309 0
 611              		.cfi_startproc
 612              		@ args = 0, pretend = 0, frame = 0
 613              		@ frame_needed = 0, uses_anonymous_args = 0
 614              	.LVL38:
 615 0000 08B5     		push	{r3, lr}
 616              		.cfi_def_cfa_offset 8
 617              		.cfi_offset 3, -8
 618              		.cfi_offset 14, -4
 619              		.loc 1 311 0
 620              	@ 311 "../../os/kernel/src/chthreads.c" 1
 621 0002 FFF7FEFF 		bl      _port_lock
 622              	@ 0 "" 2
ARM GAS  /tmp/ccHM6Mvs.s 			page 12


 623              		.loc 1 312 0
 624              		.thumb
 625 0006 054B     		ldr	r3, .L52
 626 0008 D968     		ldr	r1, [r3, #12]
 627              	.LVL39:
 628 000a 411A     		subs	r1, r0, r1
 629              	.LVL40:
 630 000c 02D0     		beq	.L48
 631              		.loc 1 313 0
 632 000e 0620     		movs	r0, #6
 633 0010 FFF7FEFF 		bl	chSchGoSleepTimeoutS
 634              	.LVL41:
 635              	.L48:
 636              		.loc 1 314 0
 637              	@ 314 "../../os/kernel/src/chthreads.c" 1
 638 0014 FFF7FEFF 		bl      _port_unlock
 639              	@ 0 "" 2
 640              		.thumb
 641 0018 08BD     		pop	{r3, pc}
 642              	.L53:
 643 001a 00BF     		.align	2
 644              	.L52:
 645 001c 00000000 		.word	vtlist
 646              		.cfi_endproc
 647              	.LFE8:
 648              		.size	chThdSleepUntil, .-chThdSleepUntil
 649              		.section	.text.chThdYield,"ax",%progbits
 650              		.align	2
 651              		.p2align 4,,15
 652              		.global	chThdYield
 653              		.thumb
 654              		.thumb_func
 655              		.type	chThdYield, %function
 656              	chThdYield:
 657              	.LFB9:
 658              		.loc 1 324 0
 659              		.cfi_startproc
 660              		@ args = 0, pretend = 0, frame = 0
 661              		@ frame_needed = 0, uses_anonymous_args = 0
 662 0000 08B5     		push	{r3, lr}
 663              		.cfi_def_cfa_offset 8
 664              		.cfi_offset 3, -8
 665              		.cfi_offset 14, -4
 666              		.loc 1 326 0
 667              	@ 326 "../../os/kernel/src/chthreads.c" 1
 668 0002 FFF7FEFF 		bl      _port_lock
 669              	@ 0 "" 2
 670              		.loc 1 327 0
 671              		.thumb
 672 0006 064B     		ldr	r3, .L56
 673 0008 1A68     		ldr	r2, [r3]
 674 000a 9B69     		ldr	r3, [r3, #24]
 675 000c 9268     		ldr	r2, [r2, #8]
 676 000e 9B68     		ldr	r3, [r3, #8]
 677 0010 9A42     		cmp	r2, r3
 678 0012 01D3     		bcc	.L55
 679              		.loc 1 327 0 is_stmt 0 discriminator 1
ARM GAS  /tmp/ccHM6Mvs.s 			page 13


 680 0014 FFF7FEFF 		bl	chSchDoRescheduleBehind
 681              	.LVL42:
 682              	.L55:
 683              		.loc 1 328 0 is_stmt 1
 684              	@ 328 "../../os/kernel/src/chthreads.c" 1
 685 0018 FFF7FEFF 		bl      _port_unlock
 686              	@ 0 "" 2
 687              		.thumb
 688 001c 08BD     		pop	{r3, pc}
 689              	.L57:
 690 001e 00BF     		.align	2
 691              	.L56:
 692 0020 00000000 		.word	rlist
 693              		.cfi_endproc
 694              	.LFE9:
 695              		.size	chThdYield, .-chThdYield
 696 0024 AFF30080 		.section	.text.chThdExitS,"ax",%progbits
 696      AFF30080 
 696      AFF30080 
 697              		.align	2
 698              		.p2align 4,,15
 699              		.global	chThdExitS
 700              		.thumb
 701              		.thumb_func
 702              		.type	chThdExitS, %function
 703              	chThdExitS:
 704              	.LFB11:
 705              		.loc 1 366 0
 706              		.cfi_startproc
 707              		@ args = 0, pretend = 0, frame = 0
 708              		@ frame_needed = 0, uses_anonymous_args = 0
 709              	.LVL43:
 710 0000 38B5     		push	{r3, r4, r5, lr}
 711              		.cfi_def_cfa_offset 16
 712              		.cfi_offset 3, -16
 713              		.cfi_offset 4, -12
 714              		.cfi_offset 5, -8
 715              		.cfi_offset 14, -4
 716              		.loc 1 367 0
 717 0002 104B     		ldr	r3, .L64
 718 0004 9D69     		ldr	r5, [r3, #24]
 719              	.LVL44:
 720              		.loc 1 374 0
 721 0006 EB6A     		ldr	r3, [r5, #44]
 722              		.loc 1 369 0
 723 0008 A862     		str	r0, [r5, #40]
 724              		.loc 1 374 0
 725 000a 05F12C04 		add	r4, r5, #44
 726 000e A342     		cmp	r3, r4
 727 0010 07D0     		beq	.L62
 728              	.LVL45:
 729              	.L63:
 730              		.loc 1 375 0
 731 0012 2046     		mov	r0, r4
 732 0014 FFF7FEFF 		bl	list_remove
 733              	.LVL46:
 734 0018 FFF7FEFF 		bl	chSchReadyI
ARM GAS  /tmp/ccHM6Mvs.s 			page 14


 735              	.LVL47:
 736              		.loc 1 374 0
 737 001c EB6A     		ldr	r3, [r5, #44]
 738 001e A342     		cmp	r3, r4
 739 0020 F7D1     		bne	.L63
 740              	.L62:
 741              		.loc 1 380 0
 742 0022 95F82130 		ldrb	r3, [r5, #33]	@ zero_extendqisi2
 743 0026 9B07     		lsls	r3, r3, #30
 744 0028 04D1     		bne	.L61
 745              		.loc 1 381 0
 746 002a 6B69     		ldr	r3, [r5, #20]
 747 002c 2A69     		ldr	r2, [r5, #16]
 748 002e 1A61     		str	r2, [r3, #16]
 749 0030 2A69     		ldr	r2, [r5, #16]
 750 0032 5361     		str	r3, [r2, #20]
 751              	.L61:
 752              		.loc 1 383 0
 753 0034 0E20     		movs	r0, #14
 754 0036 FFF7FEFF 		bl	chSchGoSleepS
 755              	.LVL48:
 756              		.loc 1 385 0
 757 003a 0348     		ldr	r0, .L64+4
 758              		.loc 1 386 0
 759 003c BDE83840 		pop	{r3, r4, r5, lr}
 760              	.LVL49:
 761              		.loc 1 385 0
 762 0040 FFF7FEBF 		b	chDbgPanic
 763              	.LVL50:
 764              	.L65:
 765              		.align	2
 766              	.L64:
 767 0044 00000000 		.word	rlist
 768 0048 50000000 		.word	.LC4
 769              		.cfi_endproc
 770              	.LFE11:
 771              		.size	chThdExitS, .-chThdExitS
 772 004c AFF30080 		.section	.text.chThdExit,"ax",%progbits
 773              		.align	2
 774              		.p2align 4,,15
 775              		.global	chThdExit
 776              		.thumb
 777              		.thumb_func
 778              		.type	chThdExit, %function
 779              	chThdExit:
 780              	.LFB10:
 781              		.loc 1 345 0
 782              		.cfi_startproc
 783              		@ args = 0, pretend = 0, frame = 0
 784              		@ frame_needed = 0, uses_anonymous_args = 0
 785              	.LVL51:
 786 0000 00B5     		push	{lr}
 787              		.cfi_def_cfa_offset 4
 788              		.cfi_offset 14, -4
 789              		.loc 1 347 0
 790              	@ 347 "../../os/kernel/src/chthreads.c" 1
 791 0002 FFF7FEFF 		bl      _port_lock
ARM GAS  /tmp/ccHM6Mvs.s 			page 15


 792              	@ 0 "" 2
 793              		.loc 1 350 0
 794              		.thumb
 795 0006 5DF804EB 		ldr	lr, [sp], #4
 796              		.loc 1 348 0
 797 000a FFF7FEBF 		b	chThdExitS
 798              	.LVL52:
 799              		.cfi_endproc
 800              	.LFE10:
 801              		.size	chThdExit, .-chThdExit
 802 000e 00BF     		.section	.text.chThdWait,"ax",%progbits
 803              		.align	2
 804              		.p2align 4,,15
 805              		.global	chThdWait
 806              		.thumb
 807              		.thumb_func
 808              		.type	chThdWait, %function
 809              	chThdWait:
 810              	.LFB12:
 811              		.loc 1 420 0
 812              		.cfi_startproc
 813              		@ args = 0, pretend = 0, frame = 0
 814              		@ frame_needed = 0, uses_anonymous_args = 0
 815              	.LVL53:
 816 0000 38B5     		push	{r3, r4, r5, lr}
 817              		.cfi_def_cfa_offset 16
 818              		.cfi_offset 3, -16
 819              		.cfi_offset 4, -12
 820              		.cfi_offset 5, -8
 821              		.cfi_offset 14, -4
 822              		.loc 1 423 0
 823 0002 0446     		mov	r4, r0
 824 0004 20B3     		cbz	r0, .L75
 825              	.LVL54:
 826              	.L68:
 827              		.loc 1 425 0
 828              	@ 425 "../../os/kernel/src/chthreads.c" 1
 829 0006 FFF7FEFF 		bl      _port_lock
 830              	@ 0 "" 2
 831              		.loc 1 426 0
 832              		.thumb
 833 000a 134D     		ldr	r5, .L78
 834 000c AB69     		ldr	r3, [r5, #24]
 835 000e A342     		cmp	r3, r4
 836 0010 1AD0     		beq	.L76
 837              	.L69:
 838              		.loc 1 428 0
 839 0012 94F82230 		ldrb	r3, [r4, #34]	@ zero_extendqisi2
 840 0016 9BB1     		cbz	r3, .L77
 841              	.L70:
 842              		.loc 1 430 0
 843 0018 94F82030 		ldrb	r3, [r4, #32]	@ zero_extendqisi2
 844 001c 0E2B     		cmp	r3, #14
 845 001e 07D0     		beq	.L71
 846              		.loc 1 431 0
 847 0020 A869     		ldr	r0, [r5, #24]
 848 0022 04F12C01 		add	r1, r4, #44
ARM GAS  /tmp/ccHM6Mvs.s 			page 16


 849 0026 FFF7FEFF 		bl	list_insert
 850              	.LVL55:
 851              		.loc 1 432 0
 852 002a 0720     		movs	r0, #7
 853 002c FFF7FEFF 		bl	chSchGoSleepS
 854              	.LVL56:
 855              	.L71:
 856              		.loc 1 434 0
 857 0030 A56A     		ldr	r5, [r4, #40]
 858              	.LVL57:
 859              		.loc 1 435 0
 860              	@ 435 "../../os/kernel/src/chthreads.c" 1
 861 0032 FFF7FEFF 		bl      _port_unlock
 862              	@ 0 "" 2
 863              		.loc 1 437 0
 864              		.thumb
 865 0036 2046     		mov	r0, r4
 866 0038 FFF7FEFF 		bl	chThdRelease
 867              	.LVL58:
 868              		.loc 1 440 0
 869 003c 2846     		mov	r0, r5
 870 003e 38BD     		pop	{r3, r4, r5, pc}
 871              	.LVL59:
 872              	.L77:
 873              		.loc 1 428 0 discriminator 1
 874 0040 0648     		ldr	r0, .L78+4
 875 0042 FFF7FEFF 		bl	chDbgPanic
 876              	.LVL60:
 877 0046 E7E7     		b	.L70
 878              	.L76:
 879              		.loc 1 426 0 discriminator 1
 880 0048 0548     		ldr	r0, .L78+8
 881 004a FFF7FEFF 		bl	chDbgPanic
 882              	.LVL61:
 883 004e E0E7     		b	.L69
 884              	.LVL62:
 885              	.L75:
 886              		.loc 1 423 0 discriminator 1
 887 0050 0448     		ldr	r0, .L78+12
 888              	.LVL63:
 889 0052 FFF7FEFF 		bl	chDbgPanic
 890              	.LVL64:
 891 0056 D6E7     		b	.L68
 892              	.L79:
 893              		.align	2
 894              	.L78:
 895 0058 00000000 		.word	rlist
 896 005c 84000000 		.word	.LC7
 897 0060 74000000 		.word	.LC6
 898 0064 64000000 		.word	.LC5
 899              		.cfi_endproc
 900              	.LFE12:
 901              		.size	chThdWait, .-chThdWait
 902 0068 AFF30080 		.section	.rodata.str1.4,"aMS",%progbits,1
 902      AFF30080 
 903              		.align	2
 904              	.LC0:
ARM GAS  /tmp/ccHM6Mvs.s 			page 17


 905 0000 22636854 		.ascii	"\"chThdCreateI\"()\000"
 905      68644372 
 905      65617465 
 905      49222829 
 905      00
 906 0011 000000   		.space	3
 907              	.LC1:
 908 0014 22636854 		.ascii	"\"chThdSetPriority\"()\000"
 908      68645365 
 908      74507269 
 908      6F726974 
 908      79222829 
 909 0029 000000   		.space	3
 910              	.LC2:
 911 002c 63685468 		.ascii	"chThdResume(), #1\000"
 911      64526573 
 911      756D6528 
 911      292C2023 
 911      3100
 912 003e 0000     		.space	2
 913              	.LC3:
 914 0040 22636854 		.ascii	"\"chThdSleep\"()\000"
 914      6864536C 
 914      65657022 
 914      282900
 915 004f 00       		.space	1
 916              	.LC4:
 917 0050 63685468 		.ascii	"chThdExitS(), #1\000"
 917      64457869 
 917      74532829 
 917      2C202331 
 917      00
 918 0061 000000   		.space	3
 919              	.LC5:
 920 0064 22636854 		.ascii	"\"chThdWait\"()\000"
 920      68645761 
 920      69742228 
 920      2900
 921 0072 0000     		.space	2
 922              	.LC6:
 923 0074 63685468 		.ascii	"chThdWait(), #1\000"
 923      64576169 
 923      7428292C 
 923      20233100 
 924              	.LC7:
 925 0084 63685468 		.ascii	"chThdWait(), #2\000"
 925      64576169 
 925      7428292C 
 925      20233200 
 926              		.text
 927              	.Letext0:
 928              		.file 2 "/opt/ARM/lib/gcc/arm-none-eabi/4.8.4/include/stddef.h"
 929              		.file 3 "/opt/ARM/arm-none-eabi/include/machine/_default_types.h"
 930              		.file 4 "/opt/ARM/arm-none-eabi/include/stdint.h"
 931              		.file 5 "../../os/ports/GCC/ARMCMx/chtypes.h"
 932              		.file 6 "../../os/kernel/include/chlists.h"
 933              		.file 7 "../../os/kernel/include/chthreads.h"
ARM GAS  /tmp/ccHM6Mvs.s 			page 18


 934              		.file 8 "../../os/ports/GCC/ARMCMx/chcore_v7m.h"
 935              		.file 9 "../../os/kernel/include/chvt.h"
 936              		.file 10 "../../os/kernel/include/chschd.h"
 937              		.file 11 "../../os/kernel/include/chmtx.h"
 938              		.file 12 "../../os/kernel/include/chdebug.h"
 939              		.file 13 "../../os/kernel/include/chdynamic.h"
 940              		.section	.debug_info,"",%progbits
 941              	.Ldebug_info0:
 942 0000 D90B0000 		.4byte	0xbd9
 943 0004 0400     		.2byte	0x4
 944 0006 00000000 		.4byte	.Ldebug_abbrev0
 945 000a 04       		.byte	0x4
 946 000b 01       		.uleb128 0x1
 947 000c 86030000 		.4byte	.LASF112
 948 0010 01       		.byte	0x1
 949 0011 78050000 		.4byte	.LASF113
 950 0015 68000000 		.4byte	.LASF114
 951 0019 28000000 		.4byte	.Ldebug_ranges0+0x28
 952 001d 00000000 		.4byte	0
 953 0021 00000000 		.4byte	.Ldebug_line0
 954 0025 02       		.uleb128 0x2
 955 0026 04       		.byte	0x4
 956 0027 05       		.byte	0x5
 957 0028 696E7400 		.ascii	"int\000"
 958 002c 03       		.uleb128 0x3
 959 002d 0E000000 		.4byte	.LASF2
 960 0031 02       		.byte	0x2
 961 0032 D4       		.byte	0xd4
 962 0033 37000000 		.4byte	0x37
 963 0037 04       		.uleb128 0x4
 964 0038 04       		.byte	0x4
 965 0039 07       		.byte	0x7
 966 003a 7C010000 		.4byte	.LASF0
 967 003e 04       		.uleb128 0x4
 968 003f 01       		.byte	0x1
 969 0040 06       		.byte	0x6
 970 0041 C7000000 		.4byte	.LASF1
 971 0045 03       		.uleb128 0x3
 972 0046 2A000000 		.4byte	.LASF3
 973 004a 03       		.byte	0x3
 974 004b 1C       		.byte	0x1c
 975 004c 50000000 		.4byte	0x50
 976 0050 04       		.uleb128 0x4
 977 0051 01       		.byte	0x1
 978 0052 08       		.byte	0x8
 979 0053 25030000 		.4byte	.LASF4
 980 0057 04       		.uleb128 0x4
 981 0058 02       		.byte	0x2
 982 0059 05       		.byte	0x5
 983 005a 3D030000 		.4byte	.LASF5
 984 005e 04       		.uleb128 0x4
 985 005f 02       		.byte	0x2
 986 0060 07       		.byte	0x7
 987 0061 C6010000 		.4byte	.LASF6
 988 0065 03       		.uleb128 0x3
 989 0066 0A050000 		.4byte	.LASF7
 990 006a 03       		.byte	0x3
ARM GAS  /tmp/ccHM6Mvs.s 			page 19


 991 006b 37       		.byte	0x37
 992 006c 70000000 		.4byte	0x70
 993 0070 04       		.uleb128 0x4
 994 0071 04       		.byte	0x4
 995 0072 05       		.byte	0x5
 996 0073 04010000 		.4byte	.LASF8
 997 0077 03       		.uleb128 0x3
 998 0078 44010000 		.4byte	.LASF9
 999 007c 03       		.byte	0x3
 1000 007d 38       		.byte	0x38
 1001 007e 82000000 		.4byte	0x82
 1002 0082 04       		.uleb128 0x4
 1003 0083 04       		.byte	0x4
 1004 0084 07       		.byte	0x7
 1005 0085 91010000 		.4byte	.LASF10
 1006 0089 04       		.uleb128 0x4
 1007 008a 08       		.byte	0x8
 1008 008b 05       		.byte	0x5
 1009 008c B9000000 		.4byte	.LASF11
 1010 0090 03       		.uleb128 0x3
 1011 0091 F5020000 		.4byte	.LASF12
 1012 0095 03       		.byte	0x3
 1013 0096 4E       		.byte	0x4e
 1014 0097 9B000000 		.4byte	0x9b
 1015 009b 04       		.uleb128 0x4
 1016 009c 08       		.byte	0x8
 1017 009d 07       		.byte	0x7
 1018 009e 46000000 		.4byte	.LASF13
 1019 00a2 03       		.uleb128 0x3
 1020 00a3 70050000 		.4byte	.LASF14
 1021 00a7 04       		.byte	0x4
 1022 00a8 2A       		.byte	0x2a
 1023 00a9 45000000 		.4byte	0x45
 1024 00ad 03       		.uleb128 0x3
 1025 00ae 1D030000 		.4byte	.LASF15
 1026 00b2 04       		.byte	0x4
 1027 00b3 41       		.byte	0x41
 1028 00b4 65000000 		.4byte	0x65
 1029 00b8 03       		.uleb128 0x3
 1030 00b9 BF040000 		.4byte	.LASF16
 1031 00bd 04       		.byte	0x4
 1032 00be 42       		.byte	0x42
 1033 00bf 77000000 		.4byte	0x77
 1034 00c3 03       		.uleb128 0x3
 1035 00c4 21000000 		.4byte	.LASF17
 1036 00c8 04       		.byte	0x4
 1037 00c9 4E       		.byte	0x4e
 1038 00ca 90000000 		.4byte	0x90
 1039 00ce 04       		.uleb128 0x4
 1040 00cf 01       		.byte	0x1
 1041 00d0 02       		.byte	0x2
 1042 00d1 17030000 		.4byte	.LASF18
 1043 00d5 03       		.uleb128 0x3
 1044 00d6 09020000 		.4byte	.LASF19
 1045 00da 05       		.byte	0x5
 1046 00db 2C       		.byte	0x2c
 1047 00dc A2000000 		.4byte	0xa2
ARM GAS  /tmp/ccHM6Mvs.s 			page 20


 1048 00e0 03       		.uleb128 0x3
 1049 00e1 0D010000 		.4byte	.LASF20
 1050 00e5 05       		.byte	0x5
 1051 00e6 2D       		.byte	0x2d
 1052 00e7 A2000000 		.4byte	0xa2
 1053 00eb 03       		.uleb128 0x3
 1054 00ec 00030000 		.4byte	.LASF21
 1055 00f0 05       		.byte	0x5
 1056 00f1 2E       		.byte	0x2e
 1057 00f2 A2000000 		.4byte	0xa2
 1058 00f6 03       		.uleb128 0x3
 1059 00f7 ED000000 		.4byte	.LASF22
 1060 00fb 05       		.byte	0x5
 1061 00fc 2F       		.byte	0x2f
 1062 00fd A2000000 		.4byte	0xa2
 1063 0101 03       		.uleb128 0x3
 1064 0102 0F030000 		.4byte	.LASF23
 1065 0106 05       		.byte	0x5
 1066 0107 30       		.byte	0x30
 1067 0108 B8000000 		.4byte	0xb8
 1068 010c 03       		.uleb128 0x3
 1069 010d F3010000 		.4byte	.LASF24
 1070 0111 05       		.byte	0x5
 1071 0112 31       		.byte	0x31
 1072 0113 AD000000 		.4byte	0xad
 1073 0117 03       		.uleb128 0x3
 1074 0118 2C020000 		.4byte	.LASF25
 1075 011c 05       		.byte	0x5
 1076 011d 33       		.byte	0x33
 1077 011e B8000000 		.4byte	0xb8
 1078 0122 03       		.uleb128 0x3
 1079 0123 F5040000 		.4byte	.LASF26
 1080 0127 05       		.byte	0x5
 1081 0128 35       		.byte	0x35
 1082 0129 B8000000 		.4byte	0xb8
 1083 012d 03       		.uleb128 0x3
 1084 012e 9F040000 		.4byte	.LASF27
 1085 0132 06       		.byte	0x6
 1086 0133 2A       		.byte	0x2a
 1087 0134 38010000 		.4byte	0x138
 1088 0138 05       		.uleb128 0x5
 1089 0139 9F040000 		.4byte	.LASF27
 1090 013d 4C       		.byte	0x4c
 1091 013e 07       		.byte	0x7
 1092 013f 5E       		.byte	0x5e
 1093 0140 41020000 		.4byte	0x241
 1094 0144 06       		.uleb128 0x6
 1095 0145 67030000 		.4byte	.LASF28
 1096 0149 07       		.byte	0x7
 1097 014a 5F       		.byte	0x5f
 1098 014b 62020000 		.4byte	0x262
 1099 014f 00       		.byte	0
 1100 0150 06       		.uleb128 0x6
 1101 0151 08030000 		.4byte	.LASF29
 1102 0155 07       		.byte	0x7
 1103 0156 61       		.byte	0x61
 1104 0157 62020000 		.4byte	0x262
ARM GAS  /tmp/ccHM6Mvs.s 			page 21


 1105 015b 04       		.byte	0x4
 1106 015c 06       		.uleb128 0x6
 1107 015d B2000000 		.4byte	.LASF30
 1108 0161 07       		.byte	0x7
 1109 0162 63       		.byte	0x63
 1110 0163 01010000 		.4byte	0x101
 1111 0167 08       		.byte	0x8
 1112 0168 06       		.uleb128 0x6
 1113 0169 D5050000 		.4byte	.LASF31
 1114 016d 07       		.byte	0x7
 1115 016e 64       		.byte	0x64
 1116 016f F7030000 		.4byte	0x3f7
 1117 0173 0C       		.byte	0xc
 1118 0174 06       		.uleb128 0x6
 1119 0175 16010000 		.4byte	.LASF32
 1120 0179 07       		.byte	0x7
 1121 017a 66       		.byte	0x66
 1122 017b 62020000 		.4byte	0x262
 1123 017f 10       		.byte	0x10
 1124 0180 06       		.uleb128 0x6
 1125 0181 A7020000 		.4byte	.LASF33
 1126 0185 07       		.byte	0x7
 1127 0186 67       		.byte	0x67
 1128 0187 62020000 		.4byte	0x262
 1129 018b 14       		.byte	0x14
 1130 018c 06       		.uleb128 0x6
 1131 018d 9F050000 		.4byte	.LASF34
 1132 0191 07       		.byte	0x7
 1133 0192 6E       		.byte	0x6e
 1134 0193 B1050000 		.4byte	0x5b1
 1135 0197 18       		.byte	0x18
 1136 0198 06       		.uleb128 0x6
 1137 0199 71010000 		.4byte	.LASF35
 1138 019d 07       		.byte	0x7
 1139 019e 74       		.byte	0x74
 1140 019f C3050000 		.4byte	0x5c3
 1141 01a3 1C       		.byte	0x1c
 1142 01a4 06       		.uleb128 0x6
 1143 01a5 47030000 		.4byte	.LASF36
 1144 01a9 07       		.byte	0x7
 1145 01aa 79       		.byte	0x79
 1146 01ab E0000000 		.4byte	0xe0
 1147 01af 20       		.byte	0x20
 1148 01b0 06       		.uleb128 0x6
 1149 01b1 6E030000 		.4byte	.LASF37
 1150 01b5 07       		.byte	0x7
 1151 01b6 7D       		.byte	0x7d
 1152 01b7 D5000000 		.4byte	0xd5
 1153 01bb 21       		.byte	0x21
 1154 01bc 06       		.uleb128 0x6
 1155 01bd 59050000 		.4byte	.LASF38
 1156 01c1 07       		.byte	0x7
 1157 01c2 82       		.byte	0x82
 1158 01c3 EB000000 		.4byte	0xeb
 1159 01c7 22       		.byte	0x22
 1160 01c8 06       		.uleb128 0x6
 1161 01c9 4F030000 		.4byte	.LASF39
ARM GAS  /tmp/ccHM6Mvs.s 			page 22


 1162 01cd 07       		.byte	0x7
 1163 01ce 88       		.byte	0x88
 1164 01cf F6000000 		.4byte	0xf6
 1165 01d3 23       		.byte	0x23
 1166 01d4 06       		.uleb128 0x6
 1167 01d5 1F050000 		.4byte	.LASF40
 1168 01d9 07       		.byte	0x7
 1169 01da 8F       		.byte	0x8f
 1170 01db CE040000 		.4byte	0x4ce
 1171 01df 24       		.byte	0x24
 1172 01e0 07       		.uleb128 0x7
 1173 01e1 705F7500 		.ascii	"p_u\000"
 1174 01e5 07       		.byte	0x7
 1175 01e6 B4       		.byte	0xb4
 1176 01e7 7C050000 		.4byte	0x57c
 1177 01eb 28       		.byte	0x28
 1178 01ec 06       		.uleb128 0x6
 1179 01ed DB050000 		.4byte	.LASF41
 1180 01f1 07       		.byte	0x7
 1181 01f2 B9       		.byte	0xb9
 1182 01f3 88020000 		.4byte	0x288
 1183 01f7 2C       		.byte	0x2c
 1184 01f8 06       		.uleb128 0x6
 1185 01f9 2D050000 		.4byte	.LASF42
 1186 01fd 07       		.byte	0x7
 1187 01fe BF       		.byte	0xbf
 1188 01ff 68020000 		.4byte	0x268
 1189 0203 30       		.byte	0x30
 1190 0204 06       		.uleb128 0x6
 1191 0205 08000000 		.4byte	.LASF43
 1192 0209 07       		.byte	0x7
 1193 020a C3       		.byte	0xc3
 1194 020b 0C010000 		.4byte	0x10c
 1195 020f 38       		.byte	0x38
 1196 0210 06       		.uleb128 0x6
 1197 0211 B4040000 		.4byte	.LASF44
 1198 0215 07       		.byte	0x7
 1199 0216 C9       		.byte	0xc9
 1200 0217 17010000 		.4byte	0x117
 1201 021b 3C       		.byte	0x3c
 1202 021c 06       		.uleb128 0x6
 1203 021d 33030000 		.4byte	.LASF45
 1204 0221 07       		.byte	0x7
 1205 0222 D0       		.byte	0xd0
 1206 0223 C9050000 		.4byte	0x5c9
 1207 0227 40       		.byte	0x40
 1208 0228 06       		.uleb128 0x6
 1209 0229 FF040000 		.4byte	.LASF46
 1210 022d 07       		.byte	0x7
 1211 022e D4       		.byte	0xd4
 1212 022f 01010000 		.4byte	0x101
 1213 0233 44       		.byte	0x44
 1214 0234 06       		.uleb128 0x6
 1215 0235 DD000000 		.4byte	.LASF47
 1216 0239 07       		.byte	0x7
 1217 023a DA       		.byte	0xda
 1218 023b 9E020000 		.4byte	0x29e
ARM GAS  /tmp/ccHM6Mvs.s 			page 23


 1219 023f 48       		.byte	0x48
 1220 0240 00       		.byte	0
 1221 0241 08       		.uleb128 0x8
 1222 0242 08       		.byte	0x8
 1223 0243 06       		.byte	0x6
 1224 0244 61       		.byte	0x61
 1225 0245 62020000 		.4byte	0x262
 1226 0249 06       		.uleb128 0x6
 1227 024a 67030000 		.4byte	.LASF28
 1228 024e 06       		.byte	0x6
 1229 024f 62       		.byte	0x62
 1230 0250 62020000 		.4byte	0x262
 1231 0254 00       		.byte	0
 1232 0255 06       		.uleb128 0x6
 1233 0256 08030000 		.4byte	.LASF29
 1234 025a 06       		.byte	0x6
 1235 025b 64       		.byte	0x64
 1236 025c 62020000 		.4byte	0x262
 1237 0260 04       		.byte	0x4
 1238 0261 00       		.byte	0
 1239 0262 09       		.uleb128 0x9
 1240 0263 04       		.byte	0x4
 1241 0264 2D010000 		.4byte	0x12d
 1242 0268 03       		.uleb128 0x3
 1243 0269 B5020000 		.4byte	.LASF48
 1244 026d 06       		.byte	0x6
 1245 026e 66       		.byte	0x66
 1246 026f 41020000 		.4byte	0x241
 1247 0273 08       		.uleb128 0x8
 1248 0274 04       		.byte	0x4
 1249 0275 06       		.byte	0x6
 1250 0276 6B       		.byte	0x6b
 1251 0277 88020000 		.4byte	0x288
 1252 027b 06       		.uleb128 0x6
 1253 027c 67030000 		.4byte	.LASF28
 1254 0280 06       		.byte	0x6
 1255 0281 6D       		.byte	0x6d
 1256 0282 62020000 		.4byte	0x262
 1257 0286 00       		.byte	0
 1258 0287 00       		.byte	0
 1259 0288 03       		.uleb128 0x3
 1260 0289 20020000 		.4byte	.LASF49
 1261 028d 06       		.byte	0x6
 1262 028e 70       		.byte	0x70
 1263 028f 73020000 		.4byte	0x273
 1264 0293 03       		.uleb128 0x3
 1265 0294 4F010000 		.4byte	.LASF50
 1266 0298 08       		.byte	0x8
 1267 0299 E5       		.byte	0xe5
 1268 029a 9E020000 		.4byte	0x29e
 1269 029e 0A       		.uleb128 0xa
 1270 029f 04       		.byte	0x4
 1271 02a0 03       		.uleb128 0x3
 1272 02a1 46020000 		.4byte	.LASF51
 1273 02a5 08       		.byte	0x8
 1274 02a6 EB       		.byte	0xeb
 1275 02a7 C3000000 		.4byte	0xc3
ARM GAS  /tmp/ccHM6Mvs.s 			page 24


 1276 02ab 0B       		.uleb128 0xb
 1277 02ac 26050000 		.4byte	.LASF52
 1278 02b0 64       		.byte	0x64
 1279 02b1 08       		.byte	0x8
 1280 02b2 0C01     		.2byte	0x10c
 1281 02b4 F7030000 		.4byte	0x3f7
 1282 02b8 0C       		.uleb128 0xc
 1283 02b9 73313600 		.ascii	"s16\000"
 1284 02bd 08       		.byte	0x8
 1285 02be 0E01     		.2byte	0x10e
 1286 02c0 93020000 		.4byte	0x293
 1287 02c4 00       		.byte	0
 1288 02c5 0C       		.uleb128 0xc
 1289 02c6 73313700 		.ascii	"s17\000"
 1290 02ca 08       		.byte	0x8
 1291 02cb 0F01     		.2byte	0x10f
 1292 02cd 93020000 		.4byte	0x293
 1293 02d1 04       		.byte	0x4
 1294 02d2 0C       		.uleb128 0xc
 1295 02d3 73313800 		.ascii	"s18\000"
 1296 02d7 08       		.byte	0x8
 1297 02d8 1001     		.2byte	0x110
 1298 02da 93020000 		.4byte	0x293
 1299 02de 08       		.byte	0x8
 1300 02df 0C       		.uleb128 0xc
 1301 02e0 73313900 		.ascii	"s19\000"
 1302 02e4 08       		.byte	0x8
 1303 02e5 1101     		.2byte	0x111
 1304 02e7 93020000 		.4byte	0x293
 1305 02eb 0C       		.byte	0xc
 1306 02ec 0C       		.uleb128 0xc
 1307 02ed 73323000 		.ascii	"s20\000"
 1308 02f1 08       		.byte	0x8
 1309 02f2 1201     		.2byte	0x112
 1310 02f4 93020000 		.4byte	0x293
 1311 02f8 10       		.byte	0x10
 1312 02f9 0C       		.uleb128 0xc
 1313 02fa 73323100 		.ascii	"s21\000"
 1314 02fe 08       		.byte	0x8
 1315 02ff 1301     		.2byte	0x113
 1316 0301 93020000 		.4byte	0x293
 1317 0305 14       		.byte	0x14
 1318 0306 0C       		.uleb128 0xc
 1319 0307 73323200 		.ascii	"s22\000"
 1320 030b 08       		.byte	0x8
 1321 030c 1401     		.2byte	0x114
 1322 030e 93020000 		.4byte	0x293
 1323 0312 18       		.byte	0x18
 1324 0313 0C       		.uleb128 0xc
 1325 0314 73323300 		.ascii	"s23\000"
 1326 0318 08       		.byte	0x8
 1327 0319 1501     		.2byte	0x115
 1328 031b 93020000 		.4byte	0x293
 1329 031f 1C       		.byte	0x1c
 1330 0320 0C       		.uleb128 0xc
 1331 0321 73323400 		.ascii	"s24\000"
 1332 0325 08       		.byte	0x8
ARM GAS  /tmp/ccHM6Mvs.s 			page 25


 1333 0326 1601     		.2byte	0x116
 1334 0328 93020000 		.4byte	0x293
 1335 032c 20       		.byte	0x20
 1336 032d 0C       		.uleb128 0xc
 1337 032e 73323500 		.ascii	"s25\000"
 1338 0332 08       		.byte	0x8
 1339 0333 1701     		.2byte	0x117
 1340 0335 93020000 		.4byte	0x293
 1341 0339 24       		.byte	0x24
 1342 033a 0C       		.uleb128 0xc
 1343 033b 73323600 		.ascii	"s26\000"
 1344 033f 08       		.byte	0x8
 1345 0340 1801     		.2byte	0x118
 1346 0342 93020000 		.4byte	0x293
 1347 0346 28       		.byte	0x28
 1348 0347 0C       		.uleb128 0xc
 1349 0348 73323700 		.ascii	"s27\000"
 1350 034c 08       		.byte	0x8
 1351 034d 1901     		.2byte	0x119
 1352 034f 93020000 		.4byte	0x293
 1353 0353 2C       		.byte	0x2c
 1354 0354 0C       		.uleb128 0xc
 1355 0355 73323800 		.ascii	"s28\000"
 1356 0359 08       		.byte	0x8
 1357 035a 1A01     		.2byte	0x11a
 1358 035c 93020000 		.4byte	0x293
 1359 0360 30       		.byte	0x30
 1360 0361 0C       		.uleb128 0xc
 1361 0362 73323900 		.ascii	"s29\000"
 1362 0366 08       		.byte	0x8
 1363 0367 1B01     		.2byte	0x11b
 1364 0369 93020000 		.4byte	0x293
 1365 036d 34       		.byte	0x34
 1366 036e 0C       		.uleb128 0xc
 1367 036f 73333000 		.ascii	"s30\000"
 1368 0373 08       		.byte	0x8
 1369 0374 1C01     		.2byte	0x11c
 1370 0376 93020000 		.4byte	0x293
 1371 037a 38       		.byte	0x38
 1372 037b 0C       		.uleb128 0xc
 1373 037c 73333100 		.ascii	"s31\000"
 1374 0380 08       		.byte	0x8
 1375 0381 1D01     		.2byte	0x11d
 1376 0383 93020000 		.4byte	0x293
 1377 0387 3C       		.byte	0x3c
 1378 0388 0C       		.uleb128 0xc
 1379 0389 723400   		.ascii	"r4\000"
 1380 038c 08       		.byte	0x8
 1381 038d 1F01     		.2byte	0x11f
 1382 038f 93020000 		.4byte	0x293
 1383 0393 40       		.byte	0x40
 1384 0394 0C       		.uleb128 0xc
 1385 0395 723500   		.ascii	"r5\000"
 1386 0398 08       		.byte	0x8
 1387 0399 2001     		.2byte	0x120
 1388 039b 93020000 		.4byte	0x293
 1389 039f 44       		.byte	0x44
ARM GAS  /tmp/ccHM6Mvs.s 			page 26


 1390 03a0 0C       		.uleb128 0xc
 1391 03a1 723600   		.ascii	"r6\000"
 1392 03a4 08       		.byte	0x8
 1393 03a5 2101     		.2byte	0x121
 1394 03a7 93020000 		.4byte	0x293
 1395 03ab 48       		.byte	0x48
 1396 03ac 0C       		.uleb128 0xc
 1397 03ad 723700   		.ascii	"r7\000"
 1398 03b0 08       		.byte	0x8
 1399 03b1 2201     		.2byte	0x122
 1400 03b3 93020000 		.4byte	0x293
 1401 03b7 4C       		.byte	0x4c
 1402 03b8 0C       		.uleb128 0xc
 1403 03b9 723800   		.ascii	"r8\000"
 1404 03bc 08       		.byte	0x8
 1405 03bd 2301     		.2byte	0x123
 1406 03bf 93020000 		.4byte	0x293
 1407 03c3 50       		.byte	0x50
 1408 03c4 0C       		.uleb128 0xc
 1409 03c5 723900   		.ascii	"r9\000"
 1410 03c8 08       		.byte	0x8
 1411 03c9 2401     		.2byte	0x124
 1412 03cb 93020000 		.4byte	0x293
 1413 03cf 54       		.byte	0x54
 1414 03d0 0C       		.uleb128 0xc
 1415 03d1 72313000 		.ascii	"r10\000"
 1416 03d5 08       		.byte	0x8
 1417 03d6 2501     		.2byte	0x125
 1418 03d8 93020000 		.4byte	0x293
 1419 03dc 58       		.byte	0x58
 1420 03dd 0C       		.uleb128 0xc
 1421 03de 72313100 		.ascii	"r11\000"
 1422 03e2 08       		.byte	0x8
 1423 03e3 2601     		.2byte	0x126
 1424 03e5 93020000 		.4byte	0x293
 1425 03e9 5C       		.byte	0x5c
 1426 03ea 0C       		.uleb128 0xc
 1427 03eb 6C7200   		.ascii	"lr\000"
 1428 03ee 08       		.byte	0x8
 1429 03ef 2701     		.2byte	0x127
 1430 03f1 93020000 		.4byte	0x293
 1431 03f5 60       		.byte	0x60
 1432 03f6 00       		.byte	0
 1433 03f7 0B       		.uleb128 0xb
 1434 03f8 B9010000 		.4byte	.LASF53
 1435 03fc 04       		.byte	0x4
 1436 03fd 08       		.byte	0x8
 1437 03fe 3101     		.2byte	0x131
 1438 0400 12040000 		.4byte	0x412
 1439 0404 0C       		.uleb128 0xc
 1440 0405 72313300 		.ascii	"r13\000"
 1441 0409 08       		.byte	0x8
 1442 040a 3201     		.2byte	0x132
 1443 040c 12040000 		.4byte	0x412
 1444 0410 00       		.byte	0
 1445 0411 00       		.byte	0
 1446 0412 09       		.uleb128 0x9
ARM GAS  /tmp/ccHM6Mvs.s 			page 27


 1447 0413 04       		.byte	0x4
 1448 0414 AB020000 		.4byte	0x2ab
 1449 0418 04       		.uleb128 0x4
 1450 0419 04       		.byte	0x4
 1451 041a 07       		.byte	0x7
 1452 041b 6B020000 		.4byte	.LASF54
 1453 041f 03       		.uleb128 0x3
 1454 0420 A3010000 		.4byte	.LASF55
 1455 0424 09       		.byte	0x9
 1456 0425 58       		.byte	0x58
 1457 0426 2A040000 		.4byte	0x42a
 1458 042a 09       		.uleb128 0x9
 1459 042b 04       		.byte	0x4
 1460 042c 30040000 		.4byte	0x430
 1461 0430 0D       		.uleb128 0xd
 1462 0431 3B040000 		.4byte	0x43b
 1463 0435 0E       		.uleb128 0xe
 1464 0436 9E020000 		.4byte	0x29e
 1465 043a 00       		.byte	0
 1466 043b 03       		.uleb128 0x3
 1467 043c AC010000 		.4byte	.LASF56
 1468 0440 09       		.byte	0x9
 1469 0441 5D       		.byte	0x5d
 1470 0442 46040000 		.4byte	0x446
 1471 0446 05       		.uleb128 0x5
 1472 0447 AC010000 		.4byte	.LASF56
 1473 044b 14       		.byte	0x14
 1474 044c 09       		.byte	0x9
 1475 044d 64       		.byte	0x64
 1476 044e 8F040000 		.4byte	0x48f
 1477 0452 06       		.uleb128 0x6
 1478 0453 89010000 		.4byte	.LASF57
 1479 0457 09       		.byte	0x9
 1480 0458 65       		.byte	0x65
 1481 0459 8F040000 		.4byte	0x48f
 1482 045d 00       		.byte	0
 1483 045e 06       		.uleb128 0x6
 1484 045f 58010000 		.4byte	.LASF58
 1485 0463 09       		.byte	0x9
 1486 0464 67       		.byte	0x67
 1487 0465 8F040000 		.4byte	0x48f
 1488 0469 04       		.byte	0x4
 1489 046a 06       		.uleb128 0x6
 1490 046b 63020000 		.4byte	.LASF59
 1491 046f 09       		.byte	0x9
 1492 0470 69       		.byte	0x69
 1493 0471 22010000 		.4byte	0x122
 1494 0475 08       		.byte	0x8
 1495 0476 06       		.uleb128 0x6
 1496 0477 74020000 		.4byte	.LASF60
 1497 047b 09       		.byte	0x9
 1498 047c 6A       		.byte	0x6a
 1499 047d 1F040000 		.4byte	0x41f
 1500 0481 0C       		.byte	0xc
 1501 0482 06       		.uleb128 0x6
 1502 0483 47050000 		.4byte	.LASF61
 1503 0487 09       		.byte	0x9
ARM GAS  /tmp/ccHM6Mvs.s 			page 28


 1504 0488 6C       		.byte	0x6c
 1505 0489 9E020000 		.4byte	0x29e
 1506 048d 10       		.byte	0x10
 1507 048e 00       		.byte	0
 1508 048f 09       		.uleb128 0x9
 1509 0490 04       		.byte	0x4
 1510 0491 3B040000 		.4byte	0x43b
 1511 0495 08       		.uleb128 0x8
 1512 0496 10       		.byte	0x10
 1513 0497 09       		.byte	0x9
 1514 0498 76       		.byte	0x76
 1515 0499 CE040000 		.4byte	0x4ce
 1516 049d 06       		.uleb128 0x6
 1517 049e 89010000 		.4byte	.LASF57
 1518 04a2 09       		.byte	0x9
 1519 04a3 77       		.byte	0x77
 1520 04a4 8F040000 		.4byte	0x48f
 1521 04a8 00       		.byte	0
 1522 04a9 06       		.uleb128 0x6
 1523 04aa 58010000 		.4byte	.LASF58
 1524 04ae 09       		.byte	0x9
 1525 04af 79       		.byte	0x79
 1526 04b0 8F040000 		.4byte	0x48f
 1527 04b4 04       		.byte	0x4
 1528 04b5 06       		.uleb128 0x6
 1529 04b6 63020000 		.4byte	.LASF59
 1530 04ba 09       		.byte	0x9
 1531 04bb 7B       		.byte	0x7b
 1532 04bc 22010000 		.4byte	0x122
 1533 04c0 08       		.byte	0x8
 1534 04c1 06       		.uleb128 0x6
 1535 04c2 A6050000 		.4byte	.LASF62
 1536 04c6 09       		.byte	0x9
 1537 04c7 7C       		.byte	0x7c
 1538 04c8 CE040000 		.4byte	0x4ce
 1539 04cc 0C       		.byte	0xc
 1540 04cd 00       		.byte	0
 1541 04ce 0F       		.uleb128 0xf
 1542 04cf 22010000 		.4byte	0x122
 1543 04d3 03       		.uleb128 0x3
 1544 04d4 C6050000 		.4byte	.LASF63
 1545 04d8 09       		.byte	0x9
 1546 04d9 7D       		.byte	0x7d
 1547 04da 95040000 		.4byte	0x495
 1548 04de 08       		.uleb128 0x8
 1549 04df 1C       		.byte	0x1c
 1550 04e0 0A       		.byte	0xa
 1551 04e1 5E       		.byte	0x5e
 1552 04e2 2F050000 		.4byte	0x52f
 1553 04e6 06       		.uleb128 0x6
 1554 04e7 D5040000 		.4byte	.LASF64
 1555 04eb 0A       		.byte	0xa
 1556 04ec 5F       		.byte	0x5f
 1557 04ed 68020000 		.4byte	0x268
 1558 04f1 00       		.byte	0
 1559 04f2 06       		.uleb128 0x6
 1560 04f3 59030000 		.4byte	.LASF65
ARM GAS  /tmp/ccHM6Mvs.s 			page 29


 1561 04f7 0A       		.byte	0xa
 1562 04f8 60       		.byte	0x60
 1563 04f9 01010000 		.4byte	0x101
 1564 04fd 08       		.byte	0x8
 1565 04fe 06       		.uleb128 0x6
 1566 04ff AF020000 		.4byte	.LASF66
 1567 0503 0A       		.byte	0xa
 1568 0504 62       		.byte	0x62
 1569 0505 F7030000 		.4byte	0x3f7
 1570 0509 0C       		.byte	0xc
 1571 050a 06       		.uleb128 0x6
 1572 050b F9010000 		.4byte	.LASF67
 1573 050f 0A       		.byte	0xa
 1574 0510 65       		.byte	0x65
 1575 0511 62020000 		.4byte	0x262
 1576 0515 10       		.byte	0x10
 1577 0516 06       		.uleb128 0x6
 1578 0517 DD020000 		.4byte	.LASF68
 1579 051b 0A       		.byte	0xa
 1580 051c 66       		.byte	0x66
 1581 051d 62020000 		.4byte	0x262
 1582 0521 14       		.byte	0x14
 1583 0522 06       		.uleb128 0x6
 1584 0523 D3020000 		.4byte	.LASF69
 1585 0527 0A       		.byte	0xa
 1586 0528 69       		.byte	0x69
 1587 0529 62020000 		.4byte	0x262
 1588 052d 18       		.byte	0x18
 1589 052e 00       		.byte	0
 1590 052f 03       		.uleb128 0x3
 1591 0530 60050000 		.4byte	.LASF70
 1592 0534 0A       		.byte	0xa
 1593 0535 6B       		.byte	0x6b
 1594 0536 DE040000 		.4byte	0x4de
 1595 053a 05       		.uleb128 0x5
 1596 053b 38020000 		.4byte	.LASF71
 1597 053f 10       		.byte	0x10
 1598 0540 0B       		.byte	0xb
 1599 0541 2C       		.byte	0x2c
 1600 0542 6B050000 		.4byte	0x56b
 1601 0546 06       		.uleb128 0x6
 1602 0547 E5000000 		.4byte	.LASF72
 1603 054b 0B       		.byte	0xb
 1604 054c 2D       		.byte	0x2d
 1605 054d 68020000 		.4byte	0x268
 1606 0551 00       		.byte	0
 1607 0552 06       		.uleb128 0x6
 1608 0553 CD050000 		.4byte	.LASF73
 1609 0557 0B       		.byte	0xb
 1610 0558 2F       		.byte	0x2f
 1611 0559 62020000 		.4byte	0x262
 1612 055d 08       		.byte	0x8
 1613 055e 06       		.uleb128 0x6
 1614 055f EE040000 		.4byte	.LASF74
 1615 0563 0B       		.byte	0xb
 1616 0564 31       		.byte	0x31
 1617 0565 6B050000 		.4byte	0x56b
ARM GAS  /tmp/ccHM6Mvs.s 			page 30


 1618 0569 0C       		.byte	0xc
 1619 056a 00       		.byte	0
 1620 056b 09       		.uleb128 0x9
 1621 056c 04       		.byte	0x4
 1622 056d 3A050000 		.4byte	0x53a
 1623 0571 03       		.uleb128 0x3
 1624 0572 38020000 		.4byte	.LASF71
 1625 0576 0B       		.byte	0xb
 1626 0577 33       		.byte	0x33
 1627 0578 3A050000 		.4byte	0x53a
 1628 057c 10       		.uleb128 0x10
 1629 057d 04       		.byte	0x4
 1630 057e 07       		.byte	0x7
 1631 057f 96       		.byte	0x96
 1632 0580 B1050000 		.4byte	0x5b1
 1633 0584 11       		.uleb128 0x11
 1634 0585 1A000000 		.4byte	.LASF75
 1635 0589 07       		.byte	0x7
 1636 058a 9D       		.byte	0x9d
 1637 058b 0C010000 		.4byte	0x10c
 1638 058f 11       		.uleb128 0x11
 1639 0590 2A010000 		.4byte	.LASF76
 1640 0594 07       		.byte	0x7
 1641 0595 A4       		.byte	0xa4
 1642 0596 0C010000 		.4byte	0x10c
 1643 059a 11       		.uleb128 0x11
 1644 059b 98050000 		.4byte	.LASF77
 1645 059f 07       		.byte	0x7
 1646 05a0 AB       		.byte	0xab
 1647 05a1 9E020000 		.4byte	0x29e
 1648 05a5 11       		.uleb128 0x11
 1649 05a6 60030000 		.4byte	.LASF78
 1650 05aa 07       		.byte	0x7
 1651 05ab B2       		.byte	0xb2
 1652 05ac 17010000 		.4byte	0x117
 1653 05b0 00       		.byte	0
 1654 05b1 09       		.uleb128 0x9
 1655 05b2 04       		.byte	0x4
 1656 05b3 B7050000 		.4byte	0x5b7
 1657 05b7 12       		.uleb128 0x12
 1658 05b8 BC050000 		.4byte	0x5bc
 1659 05bc 04       		.uleb128 0x4
 1660 05bd 01       		.byte	0x1
 1661 05be 08       		.byte	0x8
 1662 05bf DD040000 		.4byte	.LASF79
 1663 05c3 09       		.uleb128 0x9
 1664 05c4 04       		.byte	0x4
 1665 05c5 A0020000 		.4byte	0x2a0
 1666 05c9 09       		.uleb128 0x9
 1667 05ca 04       		.byte	0x4
 1668 05cb 71050000 		.4byte	0x571
 1669 05cf 03       		.uleb128 0x3
 1670 05d0 00000000 		.4byte	.LASF80
 1671 05d4 07       		.byte	0x7
 1672 05d5 E5       		.byte	0xe5
 1673 05d6 DA050000 		.4byte	0x5da
 1674 05da 09       		.uleb128 0x9
ARM GAS  /tmp/ccHM6Mvs.s 			page 31


 1675 05db 04       		.byte	0x4
 1676 05dc E0050000 		.4byte	0x5e0
 1677 05e0 13       		.uleb128 0x13
 1678 05e1 0C010000 		.4byte	0x10c
 1679 05e5 EF050000 		.4byte	0x5ef
 1680 05e9 0E       		.uleb128 0xe
 1681 05ea 9E020000 		.4byte	0x29e
 1682 05ee 00       		.byte	0
 1683 05ef 09       		.uleb128 0x9
 1684 05f0 04       		.byte	0x4
 1685 05f1 A2000000 		.4byte	0xa2
 1686 05f5 14       		.uleb128 0x14
 1687 05f6 C8040000 		.4byte	.LASF104
 1688 05fa 01       		.byte	0x1
 1689 05fb 4C       		.byte	0x4c
 1690 05fc 62020000 		.4byte	0x262
 1691 0600 01       		.byte	0x1
 1692 0601 1B060000 		.4byte	0x61b
 1693 0605 15       		.uleb128 0x15
 1694 0606 747000   		.ascii	"tp\000"
 1695 0609 01       		.byte	0x1
 1696 060a 4C       		.byte	0x4c
 1697 060b 62020000 		.4byte	0x262
 1698 060f 16       		.uleb128 0x16
 1699 0610 15000000 		.4byte	.LASF81
 1700 0614 01       		.byte	0x1
 1701 0615 4C       		.byte	0x4c
 1702 0616 01010000 		.4byte	0x101
 1703 061a 00       		.byte	0
 1704 061b 17       		.uleb128 0x17
 1705 061c 76030000 		.4byte	.LASF101
 1706 0620 01       		.byte	0x1
 1707 0621 7E       		.byte	0x7e
 1708 0622 01       		.byte	0x1
 1709 0623 47060000 		.4byte	0x647
 1710 0627 16       		.uleb128 0x16
 1711 0628 88020000 		.4byte	.LASF82
 1712 062c 01       		.byte	0x1
 1713 062d 7E       		.byte	0x7e
 1714 062e EF050000 		.4byte	0x5ef
 1715 0632 16       		.uleb128 0x16
 1716 0633 38050000 		.4byte	.LASF83
 1717 0637 01       		.byte	0x1
 1718 0638 7E       		.byte	0x7e
 1719 0639 EF050000 		.4byte	0x5ef
 1720 063d 15       		.uleb128 0x15
 1721 063e 7600     		.ascii	"v\000"
 1722 0640 01       		.byte	0x1
 1723 0641 7E       		.byte	0x7e
 1724 0642 A2000000 		.4byte	0xa2
 1725 0646 00       		.byte	0
 1726 0647 18       		.uleb128 0x18
 1727 0648 F5050000 		.4byte	0x5f5
 1728 064c 00000000 		.4byte	.LFB0
 1729 0650 5C000000 		.4byte	.LFE0-.LFB0
 1730 0654 01       		.uleb128 0x1
 1731 0655 9C       		.byte	0x9c
ARM GAS  /tmp/ccHM6Mvs.s 			page 32


 1732 0656 69060000 		.4byte	0x669
 1733 065a 19       		.uleb128 0x19
 1734 065b 05060000 		.4byte	0x605
 1735 065f 01       		.uleb128 0x1
 1736 0660 50       		.byte	0x50
 1737 0661 19       		.uleb128 0x19
 1738 0662 0F060000 		.4byte	0x60f
 1739 0666 01       		.uleb128 0x1
 1740 0667 51       		.byte	0x51
 1741 0668 00       		.byte	0
 1742 0669 18       		.uleb128 0x18
 1743 066a 1B060000 		.4byte	0x61b
 1744 066e 00000000 		.4byte	.LFB1
 1745 0672 0E000000 		.4byte	.LFE1-.LFB1
 1746 0676 01       		.uleb128 0x1
 1747 0677 9C       		.byte	0x9c
 1748 0678 94060000 		.4byte	0x694
 1749 067c 1A       		.uleb128 0x1a
 1750 067d 27060000 		.4byte	0x627
 1751 0681 00000000 		.4byte	.LLST0
 1752 0685 19       		.uleb128 0x19
 1753 0686 32060000 		.4byte	0x632
 1754 068a 01       		.uleb128 0x1
 1755 068b 51       		.byte	0x51
 1756 068c 19       		.uleb128 0x19
 1757 068d 3D060000 		.4byte	0x63d
 1758 0691 01       		.uleb128 0x1
 1759 0692 52       		.byte	0x52
 1760 0693 00       		.byte	0
 1761 0694 1B       		.uleb128 0x1b
 1762 0695 F7000000 		.4byte	.LASF85
 1763 0699 01       		.byte	0x1
 1764 069a 9D       		.byte	0x9d
 1765 069b 62020000 		.4byte	0x262
 1766 069f 00000000 		.4byte	.LFB2
 1767 06a3 9C000000 		.4byte	.LFE2-.LFB2
 1768 06a7 01       		.uleb128 0x1
 1769 06a8 9C       		.byte	0x9c
 1770 06a9 3F070000 		.4byte	0x73f
 1771 06ad 1C       		.uleb128 0x1c
 1772 06ae 77737000 		.ascii	"wsp\000"
 1773 06b2 01       		.byte	0x1
 1774 06b3 9D       		.byte	0x9d
 1775 06b4 9E020000 		.4byte	0x29e
 1776 06b8 1E000000 		.4byte	.LLST1
 1777 06bc 1D       		.uleb128 0x1d
 1778 06bd C1010000 		.4byte	.LASF84
 1779 06c1 01       		.byte	0x1
 1780 06c2 9D       		.byte	0x9d
 1781 06c3 2C000000 		.4byte	0x2c
 1782 06c7 47000000 		.4byte	.LLST2
 1783 06cb 1D       		.uleb128 0x1d
 1784 06cc 15000000 		.4byte	.LASF81
 1785 06d0 01       		.byte	0x1
 1786 06d1 9E       		.byte	0x9e
 1787 06d2 01010000 		.4byte	0x101
 1788 06d6 7E000000 		.4byte	.LLST3
ARM GAS  /tmp/ccHM6Mvs.s 			page 33


 1789 06da 1C       		.uleb128 0x1c
 1790 06db 706600   		.ascii	"pf\000"
 1791 06de 01       		.byte	0x1
 1792 06df 9E       		.byte	0x9e
 1793 06e0 CF050000 		.4byte	0x5cf
 1794 06e4 A7000000 		.4byte	.LLST4
 1795 06e8 1C       		.uleb128 0x1c
 1796 06e9 61726700 		.ascii	"arg\000"
 1797 06ed 01       		.byte	0x1
 1798 06ee 9E       		.byte	0x9e
 1799 06ef 9E020000 		.4byte	0x29e
 1800 06f3 D3000000 		.4byte	.LLST5
 1801 06f7 1E       		.uleb128 0x1e
 1802 06f8 747000   		.ascii	"tp\000"
 1803 06fb 01       		.byte	0x1
 1804 06fc A0       		.byte	0xa0
 1805 06fd 62020000 		.4byte	0x262
 1806 0701 1E000000 		.4byte	.LLST1
 1807 0705 1F       		.uleb128 0x1f
 1808 0706 F5050000 		.4byte	0x5f5
 1809 070a 24000000 		.4byte	.LBB8
 1810 070e 00000000 		.4byte	.Ldebug_ranges0+0
 1811 0712 01       		.byte	0x1
 1812 0713 A8       		.byte	0xa8
 1813 0714 2B070000 		.4byte	0x72b
 1814 0718 1A       		.uleb128 0x1a
 1815 0719 0F060000 		.4byte	0x60f
 1816 071d F3000000 		.4byte	.LLST7
 1817 0721 1A       		.uleb128 0x1a
 1818 0722 05060000 		.4byte	0x605
 1819 0726 06010000 		.4byte	.LLST8
 1820 072a 00       		.byte	0
 1821 072b 20       		.uleb128 0x20
 1822 072c 1C000000 		.4byte	.LVL5
 1823 0730 290B0000 		.4byte	0xb29
 1824 0734 21       		.uleb128 0x21
 1825 0735 01       		.uleb128 0x1
 1826 0736 50       		.byte	0x50
 1827 0737 05       		.uleb128 0x5
 1828 0738 03       		.byte	0x3
 1829 0739 00000000 		.4byte	.LC0
 1830 073d 00       		.byte	0
 1831 073e 00       		.byte	0
 1832 073f 1B       		.uleb128 0x1b
 1833 0740 51020000 		.4byte	.LASF86
 1834 0744 01       		.byte	0x1
 1835 0745 BB       		.byte	0xbb
 1836 0746 62020000 		.4byte	0x262
 1837 074a 00000000 		.4byte	.LFB3
 1838 074e 46000000 		.4byte	.LFE3-.LFB3
 1839 0752 01       		.uleb128 0x1
 1840 0753 9C       		.byte	0x9c
 1841 0754 37080000 		.4byte	0x837
 1842 0758 1C       		.uleb128 0x1c
 1843 0759 77737000 		.ascii	"wsp\000"
 1844 075d 01       		.byte	0x1
 1845 075e BB       		.byte	0xbb
ARM GAS  /tmp/ccHM6Mvs.s 			page 34


 1846 075f 9E020000 		.4byte	0x29e
 1847 0763 19010000 		.4byte	.LLST9
 1848 0767 1D       		.uleb128 0x1d
 1849 0768 C1010000 		.4byte	.LASF84
 1850 076c 01       		.byte	0x1
 1851 076d BB       		.byte	0xbb
 1852 076e 2C000000 		.4byte	0x2c
 1853 0772 3A010000 		.4byte	.LLST10
 1854 0776 1D       		.uleb128 0x1d
 1855 0777 15000000 		.4byte	.LASF81
 1856 077b 01       		.byte	0x1
 1857 077c BC       		.byte	0xbc
 1858 077d 01010000 		.4byte	0x101
 1859 0781 5B010000 		.4byte	.LLST11
 1860 0785 1C       		.uleb128 0x1c
 1861 0786 706600   		.ascii	"pf\000"
 1862 0789 01       		.byte	0x1
 1863 078a BC       		.byte	0xbc
 1864 078b CF050000 		.4byte	0x5cf
 1865 078f 7C010000 		.4byte	.LLST12
 1866 0793 22       		.uleb128 0x22
 1867 0794 61726700 		.ascii	"arg\000"
 1868 0798 01       		.byte	0x1
 1869 0799 BC       		.byte	0xbc
 1870 079a 9E020000 		.4byte	0x29e
 1871 079e 02       		.uleb128 0x2
 1872 079f 91       		.byte	0x91
 1873 07a0 00       		.sleb128 0
 1874 07a1 1E       		.uleb128 0x1e
 1875 07a2 747000   		.ascii	"tp\000"
 1876 07a5 01       		.byte	0x1
 1877 07a6 BD       		.byte	0xbd
 1878 07a7 62020000 		.4byte	0x262
 1879 07ab A8010000 		.4byte	.LLST13
 1880 07af 23       		.uleb128 0x23
 1881 07b0 1B060000 		.4byte	0x61b
 1882 07b4 0E000000 		.4byte	.LBB16
 1883 07b8 0A000000 		.4byte	.LBE16-.LBB16
 1884 07bc 01       		.byte	0x1
 1885 07bd C0       		.byte	0xc0
 1886 07be DB070000 		.4byte	0x7db
 1887 07c2 24       		.uleb128 0x24
 1888 07c3 3D060000 		.4byte	0x63d
 1889 07c7 7F       		.sleb128 -1
 1890 07c8 1A       		.uleb128 0x1a
 1891 07c9 32060000 		.4byte	0x632
 1892 07cd C6010000 		.4byte	.LLST14
 1893 07d1 1A       		.uleb128 0x1a
 1894 07d2 27060000 		.4byte	0x627
 1895 07d6 F7010000 		.4byte	.LLST15
 1896 07da 00       		.byte	0
 1897 07db 23       		.uleb128 0x23
 1898 07dc 1B060000 		.4byte	0x61b
 1899 07e0 1A000000 		.4byte	.LBB18
 1900 07e4 0E000000 		.4byte	.LBE18-.LBB18
 1901 07e8 01       		.byte	0x1
 1902 07e9 C3       		.byte	0xc3
ARM GAS  /tmp/ccHM6Mvs.s 			page 35


 1903 07ea 05080000 		.4byte	0x805
 1904 07ee 25       		.uleb128 0x25
 1905 07ef 3D060000 		.4byte	0x63d
 1906 07f3 55       		.byte	0x55
 1907 07f4 1A       		.uleb128 0x1a
 1908 07f5 32060000 		.4byte	0x632
 1909 07f9 15020000 		.4byte	.LLST16
 1910 07fd 19       		.uleb128 0x19
 1911 07fe 27060000 		.4byte	0x627
 1912 0802 01       		.uleb128 0x1
 1913 0803 55       		.byte	0x55
 1914 0804 00       		.byte	0
 1915 0805 26       		.uleb128 0x26
 1916 0806 34000000 		.4byte	.LVL17
 1917 080a 94060000 		.4byte	0x694
 1918 080e 21080000 		.4byte	0x821
 1919 0812 21       		.uleb128 0x21
 1920 0813 01       		.uleb128 0x1
 1921 0814 53       		.byte	0x53
 1922 0815 03       		.uleb128 0x3
 1923 0816 F3       		.byte	0xf3
 1924 0817 01       		.uleb128 0x1
 1925 0818 53       		.byte	0x53
 1926 0819 21       		.uleb128 0x21
 1927 081a 02       		.uleb128 0x2
 1928 081b 7D       		.byte	0x7d
 1929 081c 00       		.sleb128 0
 1930 081d 02       		.uleb128 0x2
 1931 081e 77       		.byte	0x77
 1932 081f 00       		.sleb128 0
 1933 0820 00       		.byte	0
 1934 0821 20       		.uleb128 0x20
 1935 0822 3C000000 		.4byte	.LVL19
 1936 0826 3A0B0000 		.4byte	0xb3a
 1937 082a 21       		.uleb128 0x21
 1938 082b 01       		.uleb128 0x1
 1939 082c 51       		.byte	0x51
 1940 082d 01       		.uleb128 0x1
 1941 082e 30       		.byte	0x30
 1942 082f 21       		.uleb128 0x21
 1943 0830 01       		.uleb128 0x1
 1944 0831 50       		.byte	0x50
 1945 0832 02       		.uleb128 0x2
 1946 0833 74       		.byte	0x74
 1947 0834 00       		.sleb128 0
 1948 0835 00       		.byte	0
 1949 0836 00       		.byte	0
 1950 0837 1B       		.uleb128 0x1b
 1951 0838 60010000 		.4byte	.LASF87
 1952 083c 01       		.byte	0x1
 1953 083d D9       		.byte	0xd9
 1954 083e 01010000 		.4byte	0x101
 1955 0842 00000000 		.4byte	.LFB4
 1956 0846 3C000000 		.4byte	.LFE4-.LFB4
 1957 084a 01       		.uleb128 0x1
 1958 084b 9C       		.byte	0x9c
 1959 084c 8B080000 		.4byte	0x88b
ARM GAS  /tmp/ccHM6Mvs.s 			page 36


 1960 0850 1D       		.uleb128 0x1d
 1961 0851 01020000 		.4byte	.LASF88
 1962 0855 01       		.byte	0x1
 1963 0856 D9       		.byte	0xd9
 1964 0857 01010000 		.4byte	0x101
 1965 085b 3A020000 		.4byte	.LLST17
 1966 085f 27       		.uleb128 0x27
 1967 0860 3E020000 		.4byte	.LASF89
 1968 0864 01       		.byte	0x1
 1969 0865 DA       		.byte	0xda
 1970 0866 01010000 		.4byte	0x101
 1971 086a 6E020000 		.4byte	.LLST18
 1972 086e 28       		.uleb128 0x28
 1973 086f 24000000 		.4byte	.LVL23
 1974 0873 500B0000 		.4byte	0xb50
 1975 0877 20       		.uleb128 0x20
 1976 0878 32000000 		.4byte	.LVL26
 1977 087c 290B0000 		.4byte	0xb29
 1978 0880 21       		.uleb128 0x21
 1979 0881 01       		.uleb128 0x1
 1980 0882 50       		.byte	0x50
 1981 0883 05       		.uleb128 0x5
 1982 0884 03       		.byte	0x3
 1983 0885 14000000 		.4byte	.LC1
 1984 0889 00       		.byte	0
 1985 088a 00       		.byte	0
 1986 088b 1B       		.uleb128 0x1b
 1987 088c 7C020000 		.4byte	.LASF90
 1988 0890 01       		.byte	0x1
 1989 0891 FA       		.byte	0xfa
 1990 0892 62020000 		.4byte	0x262
 1991 0896 00000000 		.4byte	.LFB5
 1992 089a 2C000000 		.4byte	.LFE5-.LFB5
 1993 089e 01       		.uleb128 0x1
 1994 089f 9C       		.byte	0x9c
 1995 08a0 DF080000 		.4byte	0x8df
 1996 08a4 1C       		.uleb128 0x1c
 1997 08a5 747000   		.ascii	"tp\000"
 1998 08a8 01       		.byte	0x1
 1999 08a9 FA       		.byte	0xfa
 2000 08aa 62020000 		.4byte	0x262
 2001 08ae 81020000 		.4byte	.LLST19
 2002 08b2 26       		.uleb128 0x26
 2003 08b3 16000000 		.4byte	.LVL29
 2004 08b7 290B0000 		.4byte	0xb29
 2005 08bb C9080000 		.4byte	0x8c9
 2006 08bf 21       		.uleb128 0x21
 2007 08c0 01       		.uleb128 0x1
 2008 08c1 50       		.byte	0x50
 2009 08c2 05       		.uleb128 0x5
 2010 08c3 03       		.byte	0x3
 2011 08c4 2C000000 		.4byte	.LC2
 2012 08c8 00       		.byte	0
 2013 08c9 20       		.uleb128 0x20
 2014 08ca 1E000000 		.4byte	.LVL30
 2015 08ce 3A0B0000 		.4byte	0xb3a
 2016 08d2 21       		.uleb128 0x21
ARM GAS  /tmp/ccHM6Mvs.s 			page 37


 2017 08d3 01       		.uleb128 0x1
 2018 08d4 51       		.byte	0x51
 2019 08d5 01       		.uleb128 0x1
 2020 08d6 30       		.byte	0x30
 2021 08d7 21       		.uleb128 0x21
 2022 08d8 01       		.uleb128 0x1
 2023 08d9 50       		.byte	0x50
 2024 08da 02       		.uleb128 0x2
 2025 08db 74       		.byte	0x74
 2026 08dc 00       		.sleb128 0
 2027 08dd 00       		.byte	0
 2028 08de 00       		.byte	0
 2029 08df 29       		.uleb128 0x29
 2030 08e0 11020000 		.4byte	.LASF91
 2031 08e4 01       		.byte	0x1
 2032 08e5 1101     		.2byte	0x111
 2033 08e7 00000000 		.4byte	.LFB6
 2034 08eb 1A000000 		.4byte	.LFE6-.LFB6
 2035 08ef 01       		.uleb128 0x1
 2036 08f0 9C       		.byte	0x9c
 2037 08f1 03090000 		.4byte	0x903
 2038 08f5 2A       		.uleb128 0x2a
 2039 08f6 747000   		.ascii	"tp\000"
 2040 08f9 01       		.byte	0x1
 2041 08fa 1101     		.2byte	0x111
 2042 08fc 62020000 		.4byte	0x262
 2043 0900 01       		.uleb128 0x1
 2044 0901 50       		.byte	0x50
 2045 0902 00       		.byte	0
 2046 0903 29       		.uleb128 0x29
 2047 0904 4E050000 		.4byte	.LASF92
 2048 0908 01       		.byte	0x1
 2049 0909 2401     		.2byte	0x124
 2050 090b 00000000 		.4byte	.LFB7
 2051 090f 24000000 		.4byte	.LFE7-.LFB7
 2052 0913 01       		.uleb128 0x1
 2053 0914 9C       		.byte	0x9c
 2054 0915 56090000 		.4byte	0x956
 2055 0919 2B       		.uleb128 0x2b
 2056 091a C2020000 		.4byte	.LASF93
 2057 091e 01       		.byte	0x1
 2058 091f 2401     		.2byte	0x124
 2059 0921 22010000 		.4byte	0x122
 2060 0925 AA020000 		.4byte	.LLST20
 2061 0929 26       		.uleb128 0x26
 2062 092a 0C000000 		.4byte	.LVL35
 2063 092e 290B0000 		.4byte	0xb29
 2064 0932 40090000 		.4byte	0x940
 2065 0936 21       		.uleb128 0x21
 2066 0937 01       		.uleb128 0x1
 2067 0938 50       		.byte	0x50
 2068 0939 05       		.uleb128 0x5
 2069 093a 03       		.byte	0x3
 2070 093b 40000000 		.4byte	.LC3
 2071 093f 00       		.byte	0
 2072 0940 20       		.uleb128 0x20
 2073 0941 18000000 		.4byte	.LVL36
ARM GAS  /tmp/ccHM6Mvs.s 			page 38


 2074 0945 570B0000 		.4byte	0xb57
 2075 0949 21       		.uleb128 0x21
 2076 094a 01       		.uleb128 0x1
 2077 094b 51       		.byte	0x51
 2078 094c 02       		.uleb128 0x2
 2079 094d 74       		.byte	0x74
 2080 094e 00       		.sleb128 0
 2081 094f 21       		.uleb128 0x21
 2082 0950 01       		.uleb128 0x1
 2083 0951 50       		.byte	0x50
 2084 0952 01       		.uleb128 0x1
 2085 0953 36       		.byte	0x36
 2086 0954 00       		.byte	0
 2087 0955 00       		.byte	0
 2088 0956 29       		.uleb128 0x29
 2089 0957 E5020000 		.4byte	.LASF94
 2090 095b 01       		.byte	0x1
 2091 095c 3501     		.2byte	0x135
 2092 095e 00000000 		.4byte	.LFB8
 2093 0962 20000000 		.4byte	.LFE8-.LFB8
 2094 0966 01       		.uleb128 0x1
 2095 0967 9C       		.byte	0x9c
 2096 0968 8C090000 		.4byte	0x98c
 2097 096c 2B       		.uleb128 0x2b
 2098 096d C2020000 		.4byte	.LASF93
 2099 0971 01       		.byte	0x1
 2100 0972 3501     		.2byte	0x135
 2101 0974 22010000 		.4byte	0x122
 2102 0978 D6020000 		.4byte	.LLST21
 2103 097c 20       		.uleb128 0x20
 2104 097d 14000000 		.4byte	.LVL41
 2105 0981 570B0000 		.4byte	0xb57
 2106 0985 21       		.uleb128 0x21
 2107 0986 01       		.uleb128 0x1
 2108 0987 50       		.byte	0x50
 2109 0988 01       		.uleb128 0x1
 2110 0989 36       		.byte	0x36
 2111 098a 00       		.byte	0
 2112 098b 00       		.byte	0
 2113 098c 29       		.uleb128 0x29
 2114 098d 14050000 		.4byte	.LASF95
 2115 0991 01       		.byte	0x1
 2116 0992 4401     		.2byte	0x144
 2117 0994 00000000 		.4byte	.LFB9
 2118 0998 24000000 		.4byte	.LFE9-.LFB9
 2119 099c 01       		.uleb128 0x1
 2120 099d 9C       		.byte	0x9c
 2121 099e AC090000 		.4byte	0x9ac
 2122 09a2 28       		.uleb128 0x28
 2123 09a3 18000000 		.4byte	.LVL42
 2124 09a7 710B0000 		.4byte	0xb71
 2125 09ab 00       		.byte	0
 2126 09ac 29       		.uleb128 0x29
 2127 09ad 3B000000 		.4byte	.LASF96
 2128 09b1 01       		.byte	0x1
 2129 09b2 6E01     		.2byte	0x16e
 2130 09b4 00000000 		.4byte	.LFB11
ARM GAS  /tmp/ccHM6Mvs.s 			page 39


 2131 09b8 4C000000 		.4byte	.LFE11-.LFB11
 2132 09bc 01       		.uleb128 0x1
 2133 09bd 9C       		.byte	0x9c
 2134 09be 250A0000 		.4byte	0xa25
 2135 09c2 2C       		.uleb128 0x2c
 2136 09c3 6D736700 		.ascii	"msg\000"
 2137 09c7 01       		.byte	0x1
 2138 09c8 6E01     		.2byte	0x16e
 2139 09ca 0C010000 		.4byte	0x10c
 2140 09ce 04030000 		.4byte	.LLST22
 2141 09d2 2D       		.uleb128 0x2d
 2142 09d3 747000   		.ascii	"tp\000"
 2143 09d6 01       		.byte	0x1
 2144 09d7 6F01     		.2byte	0x16f
 2145 09d9 62020000 		.4byte	0x262
 2146 09dd 25030000 		.4byte	.LLST23
 2147 09e1 26       		.uleb128 0x26
 2148 09e2 18000000 		.4byte	.LVL46
 2149 09e6 780B0000 		.4byte	0xb78
 2150 09ea F5090000 		.4byte	0x9f5
 2151 09ee 21       		.uleb128 0x21
 2152 09ef 01       		.uleb128 0x1
 2153 09f0 50       		.byte	0x50
 2154 09f1 02       		.uleb128 0x2
 2155 09f2 74       		.byte	0x74
 2156 09f3 00       		.sleb128 0
 2157 09f4 00       		.byte	0
 2158 09f5 28       		.uleb128 0x28
 2159 09f6 1C000000 		.4byte	.LVL47
 2160 09fa 930B0000 		.4byte	0xb93
 2161 09fe 26       		.uleb128 0x26
 2162 09ff 3A000000 		.4byte	.LVL48
 2163 0a03 A80B0000 		.4byte	0xba8
 2164 0a07 110A0000 		.4byte	0xa11
 2165 0a0b 21       		.uleb128 0x21
 2166 0a0c 01       		.uleb128 0x1
 2167 0a0d 50       		.byte	0x50
 2168 0a0e 01       		.uleb128 0x1
 2169 0a0f 3E       		.byte	0x3e
 2170 0a10 00       		.byte	0
 2171 0a11 2E       		.uleb128 0x2e
 2172 0a12 44000000 		.4byte	.LVL50
 2173 0a16 290B0000 		.4byte	0xb29
 2174 0a1a 21       		.uleb128 0x21
 2175 0a1b 01       		.uleb128 0x1
 2176 0a1c 50       		.byte	0x50
 2177 0a1d 05       		.uleb128 0x5
 2178 0a1e 03       		.byte	0x3
 2179 0a1f 50000000 		.4byte	.LC4
 2180 0a23 00       		.byte	0
 2181 0a24 00       		.byte	0
 2182 0a25 29       		.uleb128 0x29
 2183 0a26 D3000000 		.4byte	.LASF97
 2184 0a2a 01       		.byte	0x1
 2185 0a2b 5901     		.2byte	0x159
 2186 0a2d 00000000 		.4byte	.LFB10
 2187 0a31 0E000000 		.4byte	.LFE10-.LFB10
ARM GAS  /tmp/ccHM6Mvs.s 			page 40


 2188 0a35 01       		.uleb128 0x1
 2189 0a36 9C       		.byte	0x9c
 2190 0a37 5D0A0000 		.4byte	0xa5d
 2191 0a3b 2C       		.uleb128 0x2c
 2192 0a3c 6D736700 		.ascii	"msg\000"
 2193 0a40 01       		.byte	0x1
 2194 0a41 5901     		.2byte	0x159
 2195 0a43 0C010000 		.4byte	0x10c
 2196 0a47 38030000 		.4byte	.LLST24
 2197 0a4b 2E       		.uleb128 0x2e
 2198 0a4c 0E000000 		.4byte	.LVL52
 2199 0a50 AC090000 		.4byte	0x9ac
 2200 0a54 21       		.uleb128 0x21
 2201 0a55 01       		.uleb128 0x1
 2202 0a56 50       		.byte	0x50
 2203 0a57 03       		.uleb128 0x3
 2204 0a58 F3       		.byte	0xf3
 2205 0a59 01       		.uleb128 0x1
 2206 0a5a 50       		.byte	0x50
 2207 0a5b 00       		.byte	0
 2208 0a5c 00       		.byte	0
 2209 0a5d 2F       		.uleb128 0x2f
 2210 0a5e 3D050000 		.4byte	.LASF98
 2211 0a62 01       		.byte	0x1
 2212 0a63 A401     		.2byte	0x1a4
 2213 0a65 0C010000 		.4byte	0x10c
 2214 0a69 00000000 		.4byte	.LFB12
 2215 0a6d 68000000 		.4byte	.LFE12-.LFB12
 2216 0a71 01       		.uleb128 0x1
 2217 0a72 9C       		.byte	0x9c
 2218 0a73 130B0000 		.4byte	0xb13
 2219 0a77 2C       		.uleb128 0x2c
 2220 0a78 747000   		.ascii	"tp\000"
 2221 0a7b 01       		.byte	0x1
 2222 0a7c A401     		.2byte	0x1a4
 2223 0a7e 62020000 		.4byte	0x262
 2224 0a82 59030000 		.4byte	.LLST25
 2225 0a86 2D       		.uleb128 0x2d
 2226 0a87 6D736700 		.ascii	"msg\000"
 2227 0a8b 01       		.byte	0x1
 2228 0a8c A501     		.2byte	0x1a5
 2229 0a8e 0C010000 		.4byte	0x10c
 2230 0a92 8D030000 		.4byte	.LLST26
 2231 0a96 26       		.uleb128 0x26
 2232 0a97 2A000000 		.4byte	.LVL55
 2233 0a9b B90B0000 		.4byte	0xbb9
 2234 0a9f AA0A0000 		.4byte	0xaaa
 2235 0aa3 21       		.uleb128 0x21
 2236 0aa4 01       		.uleb128 0x1
 2237 0aa5 51       		.byte	0x51
 2238 0aa6 02       		.uleb128 0x2
 2239 0aa7 74       		.byte	0x74
 2240 0aa8 2C       		.sleb128 44
 2241 0aa9 00       		.byte	0
 2242 0aaa 26       		.uleb128 0x26
 2243 0aab 30000000 		.4byte	.LVL56
 2244 0aaf A80B0000 		.4byte	0xba8
ARM GAS  /tmp/ccHM6Mvs.s 			page 41


 2245 0ab3 BD0A0000 		.4byte	0xabd
 2246 0ab7 21       		.uleb128 0x21
 2247 0ab8 01       		.uleb128 0x1
 2248 0ab9 50       		.byte	0x50
 2249 0aba 01       		.uleb128 0x1
 2250 0abb 37       		.byte	0x37
 2251 0abc 00       		.byte	0
 2252 0abd 26       		.uleb128 0x26
 2253 0abe 3C000000 		.4byte	.LVL58
 2254 0ac2 CF0B0000 		.4byte	0xbcf
 2255 0ac6 D10A0000 		.4byte	0xad1
 2256 0aca 21       		.uleb128 0x21
 2257 0acb 01       		.uleb128 0x1
 2258 0acc 50       		.byte	0x50
 2259 0acd 02       		.uleb128 0x2
 2260 0ace 74       		.byte	0x74
 2261 0acf 00       		.sleb128 0
 2262 0ad0 00       		.byte	0
 2263 0ad1 26       		.uleb128 0x26
 2264 0ad2 46000000 		.4byte	.LVL60
 2265 0ad6 290B0000 		.4byte	0xb29
 2266 0ada E80A0000 		.4byte	0xae8
 2267 0ade 21       		.uleb128 0x21
 2268 0adf 01       		.uleb128 0x1
 2269 0ae0 50       		.byte	0x50
 2270 0ae1 05       		.uleb128 0x5
 2271 0ae2 03       		.byte	0x3
 2272 0ae3 84000000 		.4byte	.LC7
 2273 0ae7 00       		.byte	0
 2274 0ae8 26       		.uleb128 0x26
 2275 0ae9 4E000000 		.4byte	.LVL61
 2276 0aed 290B0000 		.4byte	0xb29
 2277 0af1 FF0A0000 		.4byte	0xaff
 2278 0af5 21       		.uleb128 0x21
 2279 0af6 01       		.uleb128 0x1
 2280 0af7 50       		.byte	0x50
 2281 0af8 05       		.uleb128 0x5
 2282 0af9 03       		.byte	0x3
 2283 0afa 74000000 		.4byte	.LC6
 2284 0afe 00       		.byte	0
 2285 0aff 20       		.uleb128 0x20
 2286 0b00 56000000 		.4byte	.LVL64
 2287 0b04 290B0000 		.4byte	0xb29
 2288 0b08 21       		.uleb128 0x21
 2289 0b09 01       		.uleb128 0x1
 2290 0b0a 50       		.byte	0x50
 2291 0b0b 05       		.uleb128 0x5
 2292 0b0c 03       		.byte	0x3
 2293 0b0d 64000000 		.4byte	.LC5
 2294 0b11 00       		.byte	0
 2295 0b12 00       		.byte	0
 2296 0b13 30       		.uleb128 0x30
 2297 0b14 34000000 		.4byte	.LASF99
 2298 0b18 09       		.byte	0x9
 2299 0b19 F5       		.byte	0xf5
 2300 0b1a D3040000 		.4byte	0x4d3
 2301 0b1e 30       		.uleb128 0x30
ARM GAS  /tmp/ccHM6Mvs.s 			page 42


 2302 0b1f 6A050000 		.4byte	.LASF100
 2303 0b23 0A       		.byte	0xa
 2304 0b24 6F       		.byte	0x6f
 2305 0b25 2F050000 		.4byte	0x52f
 2306 0b29 31       		.uleb128 0x31
 2307 0b2a 5D000000 		.4byte	.LASF102
 2308 0b2e 0C       		.byte	0xc
 2309 0b2f F6       		.byte	0xf6
 2310 0b30 3A0B0000 		.4byte	0xb3a
 2311 0b34 0E       		.uleb128 0xe
 2312 0b35 B1050000 		.4byte	0x5b1
 2313 0b39 00       		.byte	0
 2314 0b3a 31       		.uleb128 0x31
 2315 0b3b D9010000 		.4byte	.LASF103
 2316 0b3f 0A       		.byte	0xa
 2317 0b40 99       		.byte	0x99
 2318 0b41 500B0000 		.4byte	0xb50
 2319 0b45 0E       		.uleb128 0xe
 2320 0b46 62020000 		.4byte	0x262
 2321 0b4a 0E       		.uleb128 0xe
 2322 0b4b 0C010000 		.4byte	0x10c
 2323 0b4f 00       		.byte	0
 2324 0b50 32       		.uleb128 0x32
 2325 0b51 33010000 		.4byte	.LASF106
 2326 0b55 0A       		.byte	0xa
 2327 0b56 9C       		.byte	0x9c
 2328 0b57 33       		.uleb128 0x33
 2329 0b58 B1050000 		.4byte	.LASF105
 2330 0b5c 0A       		.byte	0xa
 2331 0b5d 96       		.byte	0x96
 2332 0b5e 0C010000 		.4byte	0x10c
 2333 0b62 710B0000 		.4byte	0xb71
 2334 0b66 0E       		.uleb128 0xe
 2335 0b67 E0000000 		.4byte	0xe0
 2336 0b6b 0E       		.uleb128 0xe
 2337 0b6c 22010000 		.4byte	0x122
 2338 0b70 00       		.byte	0
 2339 0b71 32       		.uleb128 0x32
 2340 0b72 8F020000 		.4byte	.LASF107
 2341 0b76 0A       		.byte	0xa
 2342 0b77 A2       		.byte	0xa2
 2343 0b78 33       		.uleb128 0x33
 2344 0b79 1E010000 		.4byte	.LASF108
 2345 0b7d 06       		.byte	0x6
 2346 0b7e 7D       		.byte	0x7d
 2347 0b7f 62020000 		.4byte	0x262
 2348 0b83 8D0B0000 		.4byte	0xb8d
 2349 0b87 0E       		.uleb128 0xe
 2350 0b88 8D0B0000 		.4byte	0xb8d
 2351 0b8c 00       		.byte	0
 2352 0b8d 09       		.uleb128 0x9
 2353 0b8e 04       		.byte	0x4
 2354 0b8f 88020000 		.4byte	0x288
 2355 0b93 33       		.uleb128 0x33
 2356 0b94 E2040000 		.4byte	.LASF109
 2357 0b98 0A       		.byte	0xa
 2358 0b99 90       		.byte	0x90
ARM GAS  /tmp/ccHM6Mvs.s 			page 43


 2359 0b9a 62020000 		.4byte	0x262
 2360 0b9e A80B0000 		.4byte	0xba8
 2361 0ba2 0E       		.uleb128 0xe
 2362 0ba3 62020000 		.4byte	0x262
 2363 0ba7 00       		.byte	0
 2364 0ba8 31       		.uleb128 0x31
 2365 0ba9 A6040000 		.4byte	.LASF110
 2366 0bad 0A       		.byte	0xa
 2367 0bae 93       		.byte	0x93
 2368 0baf B90B0000 		.4byte	0xbb9
 2369 0bb3 0E       		.uleb128 0xe
 2370 0bb4 E0000000 		.4byte	0xe0
 2371 0bb8 00       		.byte	0
 2372 0bb9 31       		.uleb128 0x31
 2373 0bba C7020000 		.4byte	.LASF111
 2374 0bbe 06       		.byte	0x6
 2375 0bbf 7C       		.byte	0x7c
 2376 0bc0 CF0B0000 		.4byte	0xbcf
 2377 0bc4 0E       		.uleb128 0xe
 2378 0bc5 62020000 		.4byte	0x262
 2379 0bc9 0E       		.uleb128 0xe
 2380 0bca 8D0B0000 		.4byte	0xb8d
 2381 0bce 00       		.byte	0
 2382 0bcf 34       		.uleb128 0x34
 2383 0bd0 E6010000 		.4byte	.LASF115
 2384 0bd4 0D       		.byte	0xd
 2385 0bd5 3A       		.byte	0x3a
 2386 0bd6 0E       		.uleb128 0xe
 2387 0bd7 62020000 		.4byte	0x262
 2388 0bdb 00       		.byte	0
 2389 0bdc 00       		.byte	0
 2390              		.section	.debug_abbrev,"",%progbits
 2391              	.Ldebug_abbrev0:
 2392 0000 01       		.uleb128 0x1
 2393 0001 11       		.uleb128 0x11
 2394 0002 01       		.byte	0x1
 2395 0003 25       		.uleb128 0x25
 2396 0004 0E       		.uleb128 0xe
 2397 0005 13       		.uleb128 0x13
 2398 0006 0B       		.uleb128 0xb
 2399 0007 03       		.uleb128 0x3
 2400 0008 0E       		.uleb128 0xe
 2401 0009 1B       		.uleb128 0x1b
 2402 000a 0E       		.uleb128 0xe
 2403 000b 55       		.uleb128 0x55
 2404 000c 17       		.uleb128 0x17
 2405 000d 11       		.uleb128 0x11
 2406 000e 01       		.uleb128 0x1
 2407 000f 10       		.uleb128 0x10
 2408 0010 17       		.uleb128 0x17
 2409 0011 00       		.byte	0
 2410 0012 00       		.byte	0
 2411 0013 02       		.uleb128 0x2
 2412 0014 24       		.uleb128 0x24
 2413 0015 00       		.byte	0
 2414 0016 0B       		.uleb128 0xb
 2415 0017 0B       		.uleb128 0xb
ARM GAS  /tmp/ccHM6Mvs.s 			page 44


 2416 0018 3E       		.uleb128 0x3e
 2417 0019 0B       		.uleb128 0xb
 2418 001a 03       		.uleb128 0x3
 2419 001b 08       		.uleb128 0x8
 2420 001c 00       		.byte	0
 2421 001d 00       		.byte	0
 2422 001e 03       		.uleb128 0x3
 2423 001f 16       		.uleb128 0x16
 2424 0020 00       		.byte	0
 2425 0021 03       		.uleb128 0x3
 2426 0022 0E       		.uleb128 0xe
 2427 0023 3A       		.uleb128 0x3a
 2428 0024 0B       		.uleb128 0xb
 2429 0025 3B       		.uleb128 0x3b
 2430 0026 0B       		.uleb128 0xb
 2431 0027 49       		.uleb128 0x49
 2432 0028 13       		.uleb128 0x13
 2433 0029 00       		.byte	0
 2434 002a 00       		.byte	0
 2435 002b 04       		.uleb128 0x4
 2436 002c 24       		.uleb128 0x24
 2437 002d 00       		.byte	0
 2438 002e 0B       		.uleb128 0xb
 2439 002f 0B       		.uleb128 0xb
 2440 0030 3E       		.uleb128 0x3e
 2441 0031 0B       		.uleb128 0xb
 2442 0032 03       		.uleb128 0x3
 2443 0033 0E       		.uleb128 0xe
 2444 0034 00       		.byte	0
 2445 0035 00       		.byte	0
 2446 0036 05       		.uleb128 0x5
 2447 0037 13       		.uleb128 0x13
 2448 0038 01       		.byte	0x1
 2449 0039 03       		.uleb128 0x3
 2450 003a 0E       		.uleb128 0xe
 2451 003b 0B       		.uleb128 0xb
 2452 003c 0B       		.uleb128 0xb
 2453 003d 3A       		.uleb128 0x3a
 2454 003e 0B       		.uleb128 0xb
 2455 003f 3B       		.uleb128 0x3b
 2456 0040 0B       		.uleb128 0xb
 2457 0041 01       		.uleb128 0x1
 2458 0042 13       		.uleb128 0x13
 2459 0043 00       		.byte	0
 2460 0044 00       		.byte	0
 2461 0045 06       		.uleb128 0x6
 2462 0046 0D       		.uleb128 0xd
 2463 0047 00       		.byte	0
 2464 0048 03       		.uleb128 0x3
 2465 0049 0E       		.uleb128 0xe
 2466 004a 3A       		.uleb128 0x3a
 2467 004b 0B       		.uleb128 0xb
 2468 004c 3B       		.uleb128 0x3b
 2469 004d 0B       		.uleb128 0xb
 2470 004e 49       		.uleb128 0x49
 2471 004f 13       		.uleb128 0x13
 2472 0050 38       		.uleb128 0x38
ARM GAS  /tmp/ccHM6Mvs.s 			page 45


 2473 0051 0B       		.uleb128 0xb
 2474 0052 00       		.byte	0
 2475 0053 00       		.byte	0
 2476 0054 07       		.uleb128 0x7
 2477 0055 0D       		.uleb128 0xd
 2478 0056 00       		.byte	0
 2479 0057 03       		.uleb128 0x3
 2480 0058 08       		.uleb128 0x8
 2481 0059 3A       		.uleb128 0x3a
 2482 005a 0B       		.uleb128 0xb
 2483 005b 3B       		.uleb128 0x3b
 2484 005c 0B       		.uleb128 0xb
 2485 005d 49       		.uleb128 0x49
 2486 005e 13       		.uleb128 0x13
 2487 005f 38       		.uleb128 0x38
 2488 0060 0B       		.uleb128 0xb
 2489 0061 00       		.byte	0
 2490 0062 00       		.byte	0
 2491 0063 08       		.uleb128 0x8
 2492 0064 13       		.uleb128 0x13
 2493 0065 01       		.byte	0x1
 2494 0066 0B       		.uleb128 0xb
 2495 0067 0B       		.uleb128 0xb
 2496 0068 3A       		.uleb128 0x3a
 2497 0069 0B       		.uleb128 0xb
 2498 006a 3B       		.uleb128 0x3b
 2499 006b 0B       		.uleb128 0xb
 2500 006c 01       		.uleb128 0x1
 2501 006d 13       		.uleb128 0x13
 2502 006e 00       		.byte	0
 2503 006f 00       		.byte	0
 2504 0070 09       		.uleb128 0x9
 2505 0071 0F       		.uleb128 0xf
 2506 0072 00       		.byte	0
 2507 0073 0B       		.uleb128 0xb
 2508 0074 0B       		.uleb128 0xb
 2509 0075 49       		.uleb128 0x49
 2510 0076 13       		.uleb128 0x13
 2511 0077 00       		.byte	0
 2512 0078 00       		.byte	0
 2513 0079 0A       		.uleb128 0xa
 2514 007a 0F       		.uleb128 0xf
 2515 007b 00       		.byte	0
 2516 007c 0B       		.uleb128 0xb
 2517 007d 0B       		.uleb128 0xb
 2518 007e 00       		.byte	0
 2519 007f 00       		.byte	0
 2520 0080 0B       		.uleb128 0xb
 2521 0081 13       		.uleb128 0x13
 2522 0082 01       		.byte	0x1
 2523 0083 03       		.uleb128 0x3
 2524 0084 0E       		.uleb128 0xe
 2525 0085 0B       		.uleb128 0xb
 2526 0086 0B       		.uleb128 0xb
 2527 0087 3A       		.uleb128 0x3a
 2528 0088 0B       		.uleb128 0xb
 2529 0089 3B       		.uleb128 0x3b
ARM GAS  /tmp/ccHM6Mvs.s 			page 46


 2530 008a 05       		.uleb128 0x5
 2531 008b 01       		.uleb128 0x1
 2532 008c 13       		.uleb128 0x13
 2533 008d 00       		.byte	0
 2534 008e 00       		.byte	0
 2535 008f 0C       		.uleb128 0xc
 2536 0090 0D       		.uleb128 0xd
 2537 0091 00       		.byte	0
 2538 0092 03       		.uleb128 0x3
 2539 0093 08       		.uleb128 0x8
 2540 0094 3A       		.uleb128 0x3a
 2541 0095 0B       		.uleb128 0xb
 2542 0096 3B       		.uleb128 0x3b
 2543 0097 05       		.uleb128 0x5
 2544 0098 49       		.uleb128 0x49
 2545 0099 13       		.uleb128 0x13
 2546 009a 38       		.uleb128 0x38
 2547 009b 0B       		.uleb128 0xb
 2548 009c 00       		.byte	0
 2549 009d 00       		.byte	0
 2550 009e 0D       		.uleb128 0xd
 2551 009f 15       		.uleb128 0x15
 2552 00a0 01       		.byte	0x1
 2553 00a1 27       		.uleb128 0x27
 2554 00a2 19       		.uleb128 0x19
 2555 00a3 01       		.uleb128 0x1
 2556 00a4 13       		.uleb128 0x13
 2557 00a5 00       		.byte	0
 2558 00a6 00       		.byte	0
 2559 00a7 0E       		.uleb128 0xe
 2560 00a8 05       		.uleb128 0x5
 2561 00a9 00       		.byte	0
 2562 00aa 49       		.uleb128 0x49
 2563 00ab 13       		.uleb128 0x13
 2564 00ac 00       		.byte	0
 2565 00ad 00       		.byte	0
 2566 00ae 0F       		.uleb128 0xf
 2567 00af 35       		.uleb128 0x35
 2568 00b0 00       		.byte	0
 2569 00b1 49       		.uleb128 0x49
 2570 00b2 13       		.uleb128 0x13
 2571 00b3 00       		.byte	0
 2572 00b4 00       		.byte	0
 2573 00b5 10       		.uleb128 0x10
 2574 00b6 17       		.uleb128 0x17
 2575 00b7 01       		.byte	0x1
 2576 00b8 0B       		.uleb128 0xb
 2577 00b9 0B       		.uleb128 0xb
 2578 00ba 3A       		.uleb128 0x3a
 2579 00bb 0B       		.uleb128 0xb
 2580 00bc 3B       		.uleb128 0x3b
 2581 00bd 0B       		.uleb128 0xb
 2582 00be 01       		.uleb128 0x1
 2583 00bf 13       		.uleb128 0x13
 2584 00c0 00       		.byte	0
 2585 00c1 00       		.byte	0
 2586 00c2 11       		.uleb128 0x11
ARM GAS  /tmp/ccHM6Mvs.s 			page 47


 2587 00c3 0D       		.uleb128 0xd
 2588 00c4 00       		.byte	0
 2589 00c5 03       		.uleb128 0x3
 2590 00c6 0E       		.uleb128 0xe
 2591 00c7 3A       		.uleb128 0x3a
 2592 00c8 0B       		.uleb128 0xb
 2593 00c9 3B       		.uleb128 0x3b
 2594 00ca 0B       		.uleb128 0xb
 2595 00cb 49       		.uleb128 0x49
 2596 00cc 13       		.uleb128 0x13
 2597 00cd 00       		.byte	0
 2598 00ce 00       		.byte	0
 2599 00cf 12       		.uleb128 0x12
 2600 00d0 26       		.uleb128 0x26
 2601 00d1 00       		.byte	0
 2602 00d2 49       		.uleb128 0x49
 2603 00d3 13       		.uleb128 0x13
 2604 00d4 00       		.byte	0
 2605 00d5 00       		.byte	0
 2606 00d6 13       		.uleb128 0x13
 2607 00d7 15       		.uleb128 0x15
 2608 00d8 01       		.byte	0x1
 2609 00d9 27       		.uleb128 0x27
 2610 00da 19       		.uleb128 0x19
 2611 00db 49       		.uleb128 0x49
 2612 00dc 13       		.uleb128 0x13
 2613 00dd 01       		.uleb128 0x1
 2614 00de 13       		.uleb128 0x13
 2615 00df 00       		.byte	0
 2616 00e0 00       		.byte	0
 2617 00e1 14       		.uleb128 0x14
 2618 00e2 2E       		.uleb128 0x2e
 2619 00e3 01       		.byte	0x1
 2620 00e4 3F       		.uleb128 0x3f
 2621 00e5 19       		.uleb128 0x19
 2622 00e6 03       		.uleb128 0x3
 2623 00e7 0E       		.uleb128 0xe
 2624 00e8 3A       		.uleb128 0x3a
 2625 00e9 0B       		.uleb128 0xb
 2626 00ea 3B       		.uleb128 0x3b
 2627 00eb 0B       		.uleb128 0xb
 2628 00ec 27       		.uleb128 0x27
 2629 00ed 19       		.uleb128 0x19
 2630 00ee 49       		.uleb128 0x49
 2631 00ef 13       		.uleb128 0x13
 2632 00f0 20       		.uleb128 0x20
 2633 00f1 0B       		.uleb128 0xb
 2634 00f2 01       		.uleb128 0x1
 2635 00f3 13       		.uleb128 0x13
 2636 00f4 00       		.byte	0
 2637 00f5 00       		.byte	0
 2638 00f6 15       		.uleb128 0x15
 2639 00f7 05       		.uleb128 0x5
 2640 00f8 00       		.byte	0
 2641 00f9 03       		.uleb128 0x3
 2642 00fa 08       		.uleb128 0x8
 2643 00fb 3A       		.uleb128 0x3a
ARM GAS  /tmp/ccHM6Mvs.s 			page 48


 2644 00fc 0B       		.uleb128 0xb
 2645 00fd 3B       		.uleb128 0x3b
 2646 00fe 0B       		.uleb128 0xb
 2647 00ff 49       		.uleb128 0x49
 2648 0100 13       		.uleb128 0x13
 2649 0101 00       		.byte	0
 2650 0102 00       		.byte	0
 2651 0103 16       		.uleb128 0x16
 2652 0104 05       		.uleb128 0x5
 2653 0105 00       		.byte	0
 2654 0106 03       		.uleb128 0x3
 2655 0107 0E       		.uleb128 0xe
 2656 0108 3A       		.uleb128 0x3a
 2657 0109 0B       		.uleb128 0xb
 2658 010a 3B       		.uleb128 0x3b
 2659 010b 0B       		.uleb128 0xb
 2660 010c 49       		.uleb128 0x49
 2661 010d 13       		.uleb128 0x13
 2662 010e 00       		.byte	0
 2663 010f 00       		.byte	0
 2664 0110 17       		.uleb128 0x17
 2665 0111 2E       		.uleb128 0x2e
 2666 0112 01       		.byte	0x1
 2667 0113 3F       		.uleb128 0x3f
 2668 0114 19       		.uleb128 0x19
 2669 0115 03       		.uleb128 0x3
 2670 0116 0E       		.uleb128 0xe
 2671 0117 3A       		.uleb128 0x3a
 2672 0118 0B       		.uleb128 0xb
 2673 0119 3B       		.uleb128 0x3b
 2674 011a 0B       		.uleb128 0xb
 2675 011b 27       		.uleb128 0x27
 2676 011c 19       		.uleb128 0x19
 2677 011d 20       		.uleb128 0x20
 2678 011e 0B       		.uleb128 0xb
 2679 011f 01       		.uleb128 0x1
 2680 0120 13       		.uleb128 0x13
 2681 0121 00       		.byte	0
 2682 0122 00       		.byte	0
 2683 0123 18       		.uleb128 0x18
 2684 0124 2E       		.uleb128 0x2e
 2685 0125 01       		.byte	0x1
 2686 0126 31       		.uleb128 0x31
 2687 0127 13       		.uleb128 0x13
 2688 0128 11       		.uleb128 0x11
 2689 0129 01       		.uleb128 0x1
 2690 012a 12       		.uleb128 0x12
 2691 012b 06       		.uleb128 0x6
 2692 012c 40       		.uleb128 0x40
 2693 012d 18       		.uleb128 0x18
 2694 012e 9742     		.uleb128 0x2117
 2695 0130 19       		.uleb128 0x19
 2696 0131 01       		.uleb128 0x1
 2697 0132 13       		.uleb128 0x13
 2698 0133 00       		.byte	0
 2699 0134 00       		.byte	0
 2700 0135 19       		.uleb128 0x19
ARM GAS  /tmp/ccHM6Mvs.s 			page 49


 2701 0136 05       		.uleb128 0x5
 2702 0137 00       		.byte	0
 2703 0138 31       		.uleb128 0x31
 2704 0139 13       		.uleb128 0x13
 2705 013a 02       		.uleb128 0x2
 2706 013b 18       		.uleb128 0x18
 2707 013c 00       		.byte	0
 2708 013d 00       		.byte	0
 2709 013e 1A       		.uleb128 0x1a
 2710 013f 05       		.uleb128 0x5
 2711 0140 00       		.byte	0
 2712 0141 31       		.uleb128 0x31
 2713 0142 13       		.uleb128 0x13
 2714 0143 02       		.uleb128 0x2
 2715 0144 17       		.uleb128 0x17
 2716 0145 00       		.byte	0
 2717 0146 00       		.byte	0
 2718 0147 1B       		.uleb128 0x1b
 2719 0148 2E       		.uleb128 0x2e
 2720 0149 01       		.byte	0x1
 2721 014a 3F       		.uleb128 0x3f
 2722 014b 19       		.uleb128 0x19
 2723 014c 03       		.uleb128 0x3
 2724 014d 0E       		.uleb128 0xe
 2725 014e 3A       		.uleb128 0x3a
 2726 014f 0B       		.uleb128 0xb
 2727 0150 3B       		.uleb128 0x3b
 2728 0151 0B       		.uleb128 0xb
 2729 0152 27       		.uleb128 0x27
 2730 0153 19       		.uleb128 0x19
 2731 0154 49       		.uleb128 0x49
 2732 0155 13       		.uleb128 0x13
 2733 0156 11       		.uleb128 0x11
 2734 0157 01       		.uleb128 0x1
 2735 0158 12       		.uleb128 0x12
 2736 0159 06       		.uleb128 0x6
 2737 015a 40       		.uleb128 0x40
 2738 015b 18       		.uleb128 0x18
 2739 015c 9742     		.uleb128 0x2117
 2740 015e 19       		.uleb128 0x19
 2741 015f 01       		.uleb128 0x1
 2742 0160 13       		.uleb128 0x13
 2743 0161 00       		.byte	0
 2744 0162 00       		.byte	0
 2745 0163 1C       		.uleb128 0x1c
 2746 0164 05       		.uleb128 0x5
 2747 0165 00       		.byte	0
 2748 0166 03       		.uleb128 0x3
 2749 0167 08       		.uleb128 0x8
 2750 0168 3A       		.uleb128 0x3a
 2751 0169 0B       		.uleb128 0xb
 2752 016a 3B       		.uleb128 0x3b
 2753 016b 0B       		.uleb128 0xb
 2754 016c 49       		.uleb128 0x49
 2755 016d 13       		.uleb128 0x13
 2756 016e 02       		.uleb128 0x2
 2757 016f 17       		.uleb128 0x17
ARM GAS  /tmp/ccHM6Mvs.s 			page 50


 2758 0170 00       		.byte	0
 2759 0171 00       		.byte	0
 2760 0172 1D       		.uleb128 0x1d
 2761 0173 05       		.uleb128 0x5
 2762 0174 00       		.byte	0
 2763 0175 03       		.uleb128 0x3
 2764 0176 0E       		.uleb128 0xe
 2765 0177 3A       		.uleb128 0x3a
 2766 0178 0B       		.uleb128 0xb
 2767 0179 3B       		.uleb128 0x3b
 2768 017a 0B       		.uleb128 0xb
 2769 017b 49       		.uleb128 0x49
 2770 017c 13       		.uleb128 0x13
 2771 017d 02       		.uleb128 0x2
 2772 017e 17       		.uleb128 0x17
 2773 017f 00       		.byte	0
 2774 0180 00       		.byte	0
 2775 0181 1E       		.uleb128 0x1e
 2776 0182 34       		.uleb128 0x34
 2777 0183 00       		.byte	0
 2778 0184 03       		.uleb128 0x3
 2779 0185 08       		.uleb128 0x8
 2780 0186 3A       		.uleb128 0x3a
 2781 0187 0B       		.uleb128 0xb
 2782 0188 3B       		.uleb128 0x3b
 2783 0189 0B       		.uleb128 0xb
 2784 018a 49       		.uleb128 0x49
 2785 018b 13       		.uleb128 0x13
 2786 018c 02       		.uleb128 0x2
 2787 018d 17       		.uleb128 0x17
 2788 018e 00       		.byte	0
 2789 018f 00       		.byte	0
 2790 0190 1F       		.uleb128 0x1f
 2791 0191 1D       		.uleb128 0x1d
 2792 0192 01       		.byte	0x1
 2793 0193 31       		.uleb128 0x31
 2794 0194 13       		.uleb128 0x13
 2795 0195 52       		.uleb128 0x52
 2796 0196 01       		.uleb128 0x1
 2797 0197 55       		.uleb128 0x55
 2798 0198 17       		.uleb128 0x17
 2799 0199 58       		.uleb128 0x58
 2800 019a 0B       		.uleb128 0xb
 2801 019b 59       		.uleb128 0x59
 2802 019c 0B       		.uleb128 0xb
 2803 019d 01       		.uleb128 0x1
 2804 019e 13       		.uleb128 0x13
 2805 019f 00       		.byte	0
 2806 01a0 00       		.byte	0
 2807 01a1 20       		.uleb128 0x20
 2808 01a2 898201   		.uleb128 0x4109
 2809 01a5 01       		.byte	0x1
 2810 01a6 11       		.uleb128 0x11
 2811 01a7 01       		.uleb128 0x1
 2812 01a8 31       		.uleb128 0x31
 2813 01a9 13       		.uleb128 0x13
 2814 01aa 00       		.byte	0
ARM GAS  /tmp/ccHM6Mvs.s 			page 51


 2815 01ab 00       		.byte	0
 2816 01ac 21       		.uleb128 0x21
 2817 01ad 8A8201   		.uleb128 0x410a
 2818 01b0 00       		.byte	0
 2819 01b1 02       		.uleb128 0x2
 2820 01b2 18       		.uleb128 0x18
 2821 01b3 9142     		.uleb128 0x2111
 2822 01b5 18       		.uleb128 0x18
 2823 01b6 00       		.byte	0
 2824 01b7 00       		.byte	0
 2825 01b8 22       		.uleb128 0x22
 2826 01b9 05       		.uleb128 0x5
 2827 01ba 00       		.byte	0
 2828 01bb 03       		.uleb128 0x3
 2829 01bc 08       		.uleb128 0x8
 2830 01bd 3A       		.uleb128 0x3a
 2831 01be 0B       		.uleb128 0xb
 2832 01bf 3B       		.uleb128 0x3b
 2833 01c0 0B       		.uleb128 0xb
 2834 01c1 49       		.uleb128 0x49
 2835 01c2 13       		.uleb128 0x13
 2836 01c3 02       		.uleb128 0x2
 2837 01c4 18       		.uleb128 0x18
 2838 01c5 00       		.byte	0
 2839 01c6 00       		.byte	0
 2840 01c7 23       		.uleb128 0x23
 2841 01c8 1D       		.uleb128 0x1d
 2842 01c9 01       		.byte	0x1
 2843 01ca 31       		.uleb128 0x31
 2844 01cb 13       		.uleb128 0x13
 2845 01cc 11       		.uleb128 0x11
 2846 01cd 01       		.uleb128 0x1
 2847 01ce 12       		.uleb128 0x12
 2848 01cf 06       		.uleb128 0x6
 2849 01d0 58       		.uleb128 0x58
 2850 01d1 0B       		.uleb128 0xb
 2851 01d2 59       		.uleb128 0x59
 2852 01d3 0B       		.uleb128 0xb
 2853 01d4 01       		.uleb128 0x1
 2854 01d5 13       		.uleb128 0x13
 2855 01d6 00       		.byte	0
 2856 01d7 00       		.byte	0
 2857 01d8 24       		.uleb128 0x24
 2858 01d9 05       		.uleb128 0x5
 2859 01da 00       		.byte	0
 2860 01db 31       		.uleb128 0x31
 2861 01dc 13       		.uleb128 0x13
 2862 01dd 1C       		.uleb128 0x1c
 2863 01de 0D       		.uleb128 0xd
 2864 01df 00       		.byte	0
 2865 01e0 00       		.byte	0
 2866 01e1 25       		.uleb128 0x25
 2867 01e2 05       		.uleb128 0x5
 2868 01e3 00       		.byte	0
 2869 01e4 31       		.uleb128 0x31
 2870 01e5 13       		.uleb128 0x13
 2871 01e6 1C       		.uleb128 0x1c
ARM GAS  /tmp/ccHM6Mvs.s 			page 52


 2872 01e7 0B       		.uleb128 0xb
 2873 01e8 00       		.byte	0
 2874 01e9 00       		.byte	0
 2875 01ea 26       		.uleb128 0x26
 2876 01eb 898201   		.uleb128 0x4109
 2877 01ee 01       		.byte	0x1
 2878 01ef 11       		.uleb128 0x11
 2879 01f0 01       		.uleb128 0x1
 2880 01f1 31       		.uleb128 0x31
 2881 01f2 13       		.uleb128 0x13
 2882 01f3 01       		.uleb128 0x1
 2883 01f4 13       		.uleb128 0x13
 2884 01f5 00       		.byte	0
 2885 01f6 00       		.byte	0
 2886 01f7 27       		.uleb128 0x27
 2887 01f8 34       		.uleb128 0x34
 2888 01f9 00       		.byte	0
 2889 01fa 03       		.uleb128 0x3
 2890 01fb 0E       		.uleb128 0xe
 2891 01fc 3A       		.uleb128 0x3a
 2892 01fd 0B       		.uleb128 0xb
 2893 01fe 3B       		.uleb128 0x3b
 2894 01ff 0B       		.uleb128 0xb
 2895 0200 49       		.uleb128 0x49
 2896 0201 13       		.uleb128 0x13
 2897 0202 02       		.uleb128 0x2
 2898 0203 17       		.uleb128 0x17
 2899 0204 00       		.byte	0
 2900 0205 00       		.byte	0
 2901 0206 28       		.uleb128 0x28
 2902 0207 898201   		.uleb128 0x4109
 2903 020a 00       		.byte	0
 2904 020b 11       		.uleb128 0x11
 2905 020c 01       		.uleb128 0x1
 2906 020d 31       		.uleb128 0x31
 2907 020e 13       		.uleb128 0x13
 2908 020f 00       		.byte	0
 2909 0210 00       		.byte	0
 2910 0211 29       		.uleb128 0x29
 2911 0212 2E       		.uleb128 0x2e
 2912 0213 01       		.byte	0x1
 2913 0214 3F       		.uleb128 0x3f
 2914 0215 19       		.uleb128 0x19
 2915 0216 03       		.uleb128 0x3
 2916 0217 0E       		.uleb128 0xe
 2917 0218 3A       		.uleb128 0x3a
 2918 0219 0B       		.uleb128 0xb
 2919 021a 3B       		.uleb128 0x3b
 2920 021b 05       		.uleb128 0x5
 2921 021c 27       		.uleb128 0x27
 2922 021d 19       		.uleb128 0x19
 2923 021e 11       		.uleb128 0x11
 2924 021f 01       		.uleb128 0x1
 2925 0220 12       		.uleb128 0x12
 2926 0221 06       		.uleb128 0x6
 2927 0222 40       		.uleb128 0x40
 2928 0223 18       		.uleb128 0x18
ARM GAS  /tmp/ccHM6Mvs.s 			page 53


 2929 0224 9742     		.uleb128 0x2117
 2930 0226 19       		.uleb128 0x19
 2931 0227 01       		.uleb128 0x1
 2932 0228 13       		.uleb128 0x13
 2933 0229 00       		.byte	0
 2934 022a 00       		.byte	0
 2935 022b 2A       		.uleb128 0x2a
 2936 022c 05       		.uleb128 0x5
 2937 022d 00       		.byte	0
 2938 022e 03       		.uleb128 0x3
 2939 022f 08       		.uleb128 0x8
 2940 0230 3A       		.uleb128 0x3a
 2941 0231 0B       		.uleb128 0xb
 2942 0232 3B       		.uleb128 0x3b
 2943 0233 05       		.uleb128 0x5
 2944 0234 49       		.uleb128 0x49
 2945 0235 13       		.uleb128 0x13
 2946 0236 02       		.uleb128 0x2
 2947 0237 18       		.uleb128 0x18
 2948 0238 00       		.byte	0
 2949 0239 00       		.byte	0
 2950 023a 2B       		.uleb128 0x2b
 2951 023b 05       		.uleb128 0x5
 2952 023c 00       		.byte	0
 2953 023d 03       		.uleb128 0x3
 2954 023e 0E       		.uleb128 0xe
 2955 023f 3A       		.uleb128 0x3a
 2956 0240 0B       		.uleb128 0xb
 2957 0241 3B       		.uleb128 0x3b
 2958 0242 05       		.uleb128 0x5
 2959 0243 49       		.uleb128 0x49
 2960 0244 13       		.uleb128 0x13
 2961 0245 02       		.uleb128 0x2
 2962 0246 17       		.uleb128 0x17
 2963 0247 00       		.byte	0
 2964 0248 00       		.byte	0
 2965 0249 2C       		.uleb128 0x2c
 2966 024a 05       		.uleb128 0x5
 2967 024b 00       		.byte	0
 2968 024c 03       		.uleb128 0x3
 2969 024d 08       		.uleb128 0x8
 2970 024e 3A       		.uleb128 0x3a
 2971 024f 0B       		.uleb128 0xb
 2972 0250 3B       		.uleb128 0x3b
 2973 0251 05       		.uleb128 0x5
 2974 0252 49       		.uleb128 0x49
 2975 0253 13       		.uleb128 0x13
 2976 0254 02       		.uleb128 0x2
 2977 0255 17       		.uleb128 0x17
 2978 0256 00       		.byte	0
 2979 0257 00       		.byte	0
 2980 0258 2D       		.uleb128 0x2d
 2981 0259 34       		.uleb128 0x34
 2982 025a 00       		.byte	0
 2983 025b 03       		.uleb128 0x3
 2984 025c 08       		.uleb128 0x8
 2985 025d 3A       		.uleb128 0x3a
ARM GAS  /tmp/ccHM6Mvs.s 			page 54


 2986 025e 0B       		.uleb128 0xb
 2987 025f 3B       		.uleb128 0x3b
 2988 0260 05       		.uleb128 0x5
 2989 0261 49       		.uleb128 0x49
 2990 0262 13       		.uleb128 0x13
 2991 0263 02       		.uleb128 0x2
 2992 0264 17       		.uleb128 0x17
 2993 0265 00       		.byte	0
 2994 0266 00       		.byte	0
 2995 0267 2E       		.uleb128 0x2e
 2996 0268 898201   		.uleb128 0x4109
 2997 026b 01       		.byte	0x1
 2998 026c 11       		.uleb128 0x11
 2999 026d 01       		.uleb128 0x1
 3000 026e 9542     		.uleb128 0x2115
 3001 0270 19       		.uleb128 0x19
 3002 0271 31       		.uleb128 0x31
 3003 0272 13       		.uleb128 0x13
 3004 0273 00       		.byte	0
 3005 0274 00       		.byte	0
 3006 0275 2F       		.uleb128 0x2f
 3007 0276 2E       		.uleb128 0x2e
 3008 0277 01       		.byte	0x1
 3009 0278 3F       		.uleb128 0x3f
 3010 0279 19       		.uleb128 0x19
 3011 027a 03       		.uleb128 0x3
 3012 027b 0E       		.uleb128 0xe
 3013 027c 3A       		.uleb128 0x3a
 3014 027d 0B       		.uleb128 0xb
 3015 027e 3B       		.uleb128 0x3b
 3016 027f 05       		.uleb128 0x5
 3017 0280 27       		.uleb128 0x27
 3018 0281 19       		.uleb128 0x19
 3019 0282 49       		.uleb128 0x49
 3020 0283 13       		.uleb128 0x13
 3021 0284 11       		.uleb128 0x11
 3022 0285 01       		.uleb128 0x1
 3023 0286 12       		.uleb128 0x12
 3024 0287 06       		.uleb128 0x6
 3025 0288 40       		.uleb128 0x40
 3026 0289 18       		.uleb128 0x18
 3027 028a 9742     		.uleb128 0x2117
 3028 028c 19       		.uleb128 0x19
 3029 028d 01       		.uleb128 0x1
 3030 028e 13       		.uleb128 0x13
 3031 028f 00       		.byte	0
 3032 0290 00       		.byte	0
 3033 0291 30       		.uleb128 0x30
 3034 0292 34       		.uleb128 0x34
 3035 0293 00       		.byte	0
 3036 0294 03       		.uleb128 0x3
 3037 0295 0E       		.uleb128 0xe
 3038 0296 3A       		.uleb128 0x3a
 3039 0297 0B       		.uleb128 0xb
 3040 0298 3B       		.uleb128 0x3b
 3041 0299 0B       		.uleb128 0xb
 3042 029a 49       		.uleb128 0x49
ARM GAS  /tmp/ccHM6Mvs.s 			page 55


 3043 029b 13       		.uleb128 0x13
 3044 029c 3F       		.uleb128 0x3f
 3045 029d 19       		.uleb128 0x19
 3046 029e 3C       		.uleb128 0x3c
 3047 029f 19       		.uleb128 0x19
 3048 02a0 00       		.byte	0
 3049 02a1 00       		.byte	0
 3050 02a2 31       		.uleb128 0x31
 3051 02a3 2E       		.uleb128 0x2e
 3052 02a4 01       		.byte	0x1
 3053 02a5 3F       		.uleb128 0x3f
 3054 02a6 19       		.uleb128 0x19
 3055 02a7 03       		.uleb128 0x3
 3056 02a8 0E       		.uleb128 0xe
 3057 02a9 3A       		.uleb128 0x3a
 3058 02aa 0B       		.uleb128 0xb
 3059 02ab 3B       		.uleb128 0x3b
 3060 02ac 0B       		.uleb128 0xb
 3061 02ad 27       		.uleb128 0x27
 3062 02ae 19       		.uleb128 0x19
 3063 02af 3C       		.uleb128 0x3c
 3064 02b0 19       		.uleb128 0x19
 3065 02b1 01       		.uleb128 0x1
 3066 02b2 13       		.uleb128 0x13
 3067 02b3 00       		.byte	0
 3068 02b4 00       		.byte	0
 3069 02b5 32       		.uleb128 0x32
 3070 02b6 2E       		.uleb128 0x2e
 3071 02b7 00       		.byte	0
 3072 02b8 3F       		.uleb128 0x3f
 3073 02b9 19       		.uleb128 0x19
 3074 02ba 03       		.uleb128 0x3
 3075 02bb 0E       		.uleb128 0xe
 3076 02bc 3A       		.uleb128 0x3a
 3077 02bd 0B       		.uleb128 0xb
 3078 02be 3B       		.uleb128 0x3b
 3079 02bf 0B       		.uleb128 0xb
 3080 02c0 27       		.uleb128 0x27
 3081 02c1 19       		.uleb128 0x19
 3082 02c2 3C       		.uleb128 0x3c
 3083 02c3 19       		.uleb128 0x19
 3084 02c4 00       		.byte	0
 3085 02c5 00       		.byte	0
 3086 02c6 33       		.uleb128 0x33
 3087 02c7 2E       		.uleb128 0x2e
 3088 02c8 01       		.byte	0x1
 3089 02c9 3F       		.uleb128 0x3f
 3090 02ca 19       		.uleb128 0x19
 3091 02cb 03       		.uleb128 0x3
 3092 02cc 0E       		.uleb128 0xe
 3093 02cd 3A       		.uleb128 0x3a
 3094 02ce 0B       		.uleb128 0xb
 3095 02cf 3B       		.uleb128 0x3b
 3096 02d0 0B       		.uleb128 0xb
 3097 02d1 27       		.uleb128 0x27
 3098 02d2 19       		.uleb128 0x19
 3099 02d3 49       		.uleb128 0x49
ARM GAS  /tmp/ccHM6Mvs.s 			page 56


 3100 02d4 13       		.uleb128 0x13
 3101 02d5 3C       		.uleb128 0x3c
 3102 02d6 19       		.uleb128 0x19
 3103 02d7 01       		.uleb128 0x1
 3104 02d8 13       		.uleb128 0x13
 3105 02d9 00       		.byte	0
 3106 02da 00       		.byte	0
 3107 02db 34       		.uleb128 0x34
 3108 02dc 2E       		.uleb128 0x2e
 3109 02dd 01       		.byte	0x1
 3110 02de 3F       		.uleb128 0x3f
 3111 02df 19       		.uleb128 0x19
 3112 02e0 03       		.uleb128 0x3
 3113 02e1 0E       		.uleb128 0xe
 3114 02e2 3A       		.uleb128 0x3a
 3115 02e3 0B       		.uleb128 0xb
 3116 02e4 3B       		.uleb128 0x3b
 3117 02e5 0B       		.uleb128 0xb
 3118 02e6 27       		.uleb128 0x27
 3119 02e7 19       		.uleb128 0x19
 3120 02e8 3C       		.uleb128 0x3c
 3121 02e9 19       		.uleb128 0x19
 3122 02ea 00       		.byte	0
 3123 02eb 00       		.byte	0
 3124 02ec 00       		.byte	0
 3125              		.section	.debug_loc,"",%progbits
 3126              	.Ldebug_loc0:
 3127              	.LLST0:
 3128 0000 00000000 		.4byte	.LVL1
 3129 0004 08000000 		.4byte	.LVL2
 3130 0008 0100     		.2byte	0x1
 3131 000a 50       		.byte	0x50
 3132 000b 08000000 		.4byte	.LVL2
 3133 000f 0E000000 		.4byte	.LFE1
 3134 0013 0100     		.2byte	0x1
 3135 0015 50       		.byte	0x50
 3136 0016 00000000 		.4byte	0
 3137 001a 00000000 		.4byte	0
 3138              	.LLST1:
 3139 001e 00000000 		.4byte	.LVL3
 3140 0022 16000000 		.4byte	.LVL4
 3141 0026 0100     		.2byte	0x1
 3142 0028 50       		.byte	0x50
 3143 0029 16000000 		.4byte	.LVL4
 3144 002d 86000000 		.4byte	.LVL8
 3145 0031 0100     		.2byte	0x1
 3146 0033 54       		.byte	0x54
 3147 0034 86000000 		.4byte	.LVL8
 3148 0038 9C000000 		.4byte	.LFE2
 3149 003c 0100     		.2byte	0x1
 3150 003e 50       		.byte	0x50
 3151 003f 00000000 		.4byte	0
 3152 0043 00000000 		.4byte	0
 3153              	.LLST2:
 3154 0047 00000000 		.4byte	.LVL3
 3155 004b 1B000000 		.4byte	.LVL5-1
 3156 004f 0100     		.2byte	0x1
ARM GAS  /tmp/ccHM6Mvs.s 			page 57


 3157 0051 51       		.byte	0x51
 3158 0052 1B000000 		.4byte	.LVL5-1
 3159 0056 36000000 		.4byte	.LVL7
 3160 005a 0100     		.2byte	0x1
 3161 005c 55       		.byte	0x55
 3162 005d 36000000 		.4byte	.LVL7
 3163 0061 86000000 		.4byte	.LVL8
 3164 0065 0400     		.2byte	0x4
 3165 0067 F3       		.byte	0xf3
 3166 0068 01       		.uleb128 0x1
 3167 0069 51       		.byte	0x51
 3168 006a 9F       		.byte	0x9f
 3169 006b 86000000 		.4byte	.LVL8
 3170 006f 9C000000 		.4byte	.LFE2
 3171 0073 0100     		.2byte	0x1
 3172 0075 51       		.byte	0x51
 3173 0076 00000000 		.4byte	0
 3174 007a 00000000 		.4byte	0
 3175              	.LLST3:
 3176 007e 00000000 		.4byte	.LVL3
 3177 0082 1B000000 		.4byte	.LVL5-1
 3178 0086 0100     		.2byte	0x1
 3179 0088 52       		.byte	0x52
 3180 0089 1B000000 		.4byte	.LVL5-1
 3181 008d 86000000 		.4byte	.LVL8
 3182 0091 0100     		.2byte	0x1
 3183 0093 57       		.byte	0x57
 3184 0094 86000000 		.4byte	.LVL8
 3185 0098 9C000000 		.4byte	.LFE2
 3186 009c 0100     		.2byte	0x1
 3187 009e 52       		.byte	0x52
 3188 009f 00000000 		.4byte	0
 3189 00a3 00000000 		.4byte	0
 3190              	.LLST4:
 3191 00a7 00000000 		.4byte	.LVL3
 3192 00ab 1B000000 		.4byte	.LVL5-1
 3193 00af 0100     		.2byte	0x1
 3194 00b1 53       		.byte	0x53
 3195 00b2 1B000000 		.4byte	.LVL5-1
 3196 00b6 86000000 		.4byte	.LVL8
 3197 00ba 0400     		.2byte	0x4
 3198 00bc F3       		.byte	0xf3
 3199 00bd 01       		.uleb128 0x1
 3200 00be 53       		.byte	0x53
 3201 00bf 9F       		.byte	0x9f
 3202 00c0 86000000 		.4byte	.LVL8
 3203 00c4 9C000000 		.4byte	.LFE2
 3204 00c8 0100     		.2byte	0x1
 3205 00ca 53       		.byte	0x53
 3206 00cb 00000000 		.4byte	0
 3207 00cf 00000000 		.4byte	0
 3208              	.LLST5:
 3209 00d3 00000000 		.4byte	.LVL3
 3210 00d7 86000000 		.4byte	.LVL8
 3211 00db 0200     		.2byte	0x2
 3212 00dd 91       		.byte	0x91
 3213 00de 00       		.sleb128 0
ARM GAS  /tmp/ccHM6Mvs.s 			page 58


 3214 00df 86000000 		.4byte	.LVL8
 3215 00e3 9C000000 		.4byte	.LFE2
 3216 00e7 0200     		.2byte	0x2
 3217 00e9 91       		.byte	0x91
 3218 00ea 00       		.sleb128 0
 3219 00eb 00000000 		.4byte	0
 3220 00ef 00000000 		.4byte	0
 3221              	.LLST7:
 3222 00f3 34000000 		.4byte	.LVL6
 3223 00f7 86000000 		.4byte	.LVL8
 3224 00fb 0100     		.2byte	0x1
 3225 00fd 57       		.byte	0x57
 3226 00fe 00000000 		.4byte	0
 3227 0102 00000000 		.4byte	0
 3228              	.LLST8:
 3229 0106 34000000 		.4byte	.LVL6
 3230 010a 86000000 		.4byte	.LVL8
 3231 010e 0100     		.2byte	0x1
 3232 0110 54       		.byte	0x54
 3233 0111 00000000 		.4byte	0
 3234 0115 00000000 		.4byte	0
 3235              	.LLST9:
 3236 0119 00000000 		.4byte	.LVL9
 3237 011d 33000000 		.4byte	.LVL17-1
 3238 0121 0100     		.2byte	0x1
 3239 0123 50       		.byte	0x50
 3240 0124 33000000 		.4byte	.LVL17-1
 3241 0128 46000000 		.4byte	.LFE3
 3242 012c 0400     		.2byte	0x4
 3243 012e F3       		.byte	0xf3
 3244 012f 01       		.uleb128 0x1
 3245 0130 50       		.byte	0x50
 3246 0131 9F       		.byte	0x9f
 3247 0132 00000000 		.4byte	0
 3248 0136 00000000 		.4byte	0
 3249              	.LLST10:
 3250 013a 00000000 		.4byte	.LVL9
 3251 013e 33000000 		.4byte	.LVL17-1
 3252 0142 0100     		.2byte	0x1
 3253 0144 51       		.byte	0x51
 3254 0145 33000000 		.4byte	.LVL17-1
 3255 0149 46000000 		.4byte	.LFE3
 3256 014d 0400     		.2byte	0x4
 3257 014f F3       		.byte	0xf3
 3258 0150 01       		.uleb128 0x1
 3259 0151 51       		.byte	0x51
 3260 0152 9F       		.byte	0x9f
 3261 0153 00000000 		.4byte	0
 3262 0157 00000000 		.4byte	0
 3263              	.LLST11:
 3264 015b 00000000 		.4byte	.LVL9
 3265 015f 33000000 		.4byte	.LVL17-1
 3266 0163 0100     		.2byte	0x1
 3267 0165 52       		.byte	0x52
 3268 0166 33000000 		.4byte	.LVL17-1
 3269 016a 46000000 		.4byte	.LFE3
 3270 016e 0400     		.2byte	0x4
ARM GAS  /tmp/ccHM6Mvs.s 			page 59


 3271 0170 F3       		.byte	0xf3
 3272 0171 01       		.uleb128 0x1
 3273 0172 52       		.byte	0x52
 3274 0173 9F       		.byte	0x9f
 3275 0174 00000000 		.4byte	0
 3276 0178 00000000 		.4byte	0
 3277              	.LLST12:
 3278 017c 00000000 		.4byte	.LVL9
 3279 0180 2C000000 		.4byte	.LVL16
 3280 0184 0100     		.2byte	0x1
 3281 0186 53       		.byte	0x53
 3282 0187 2C000000 		.4byte	.LVL16
 3283 018b 33000000 		.4byte	.LVL17-1
 3284 018f 0100     		.2byte	0x1
 3285 0191 5C       		.byte	0x5c
 3286 0192 33000000 		.4byte	.LVL17-1
 3287 0196 46000000 		.4byte	.LFE3
 3288 019a 0400     		.2byte	0x4
 3289 019c F3       		.byte	0xf3
 3290 019d 01       		.uleb128 0x1
 3291 019e 53       		.byte	0x53
 3292 019f 9F       		.byte	0x9f
 3293 01a0 00000000 		.4byte	0
 3294 01a4 00000000 		.4byte	0
 3295              	.LLST13:
 3296 01a8 38000000 		.4byte	.LVL18
 3297 01ac 3B000000 		.4byte	.LVL19-1
 3298 01b0 0100     		.2byte	0x1
 3299 01b2 50       		.byte	0x50
 3300 01b3 3B000000 		.4byte	.LVL19-1
 3301 01b7 46000000 		.4byte	.LFE3
 3302 01bb 0100     		.2byte	0x1
 3303 01bd 54       		.byte	0x54
 3304 01be 00000000 		.4byte	0
 3305 01c2 00000000 		.4byte	0
 3306              	.LLST14:
 3307 01c6 0C000000 		.4byte	.LVL10
 3308 01ca 20000000 		.4byte	.LVL14
 3309 01ce 0100     		.2byte	0x1
 3310 01d0 55       		.byte	0x55
 3311 01d1 20000000 		.4byte	.LVL14
 3312 01d5 33000000 		.4byte	.LVL17-1
 3313 01d9 0400     		.2byte	0x4
 3314 01db 70       		.byte	0x70
 3315 01dc CC00     		.sleb128 76
 3316 01de 9F       		.byte	0x9f
 3317 01df 33000000 		.4byte	.LVL17-1
 3318 01e3 46000000 		.4byte	.LFE3
 3319 01e7 0600     		.2byte	0x6
 3320 01e9 F3       		.byte	0xf3
 3321 01ea 01       		.uleb128 0x1
 3322 01eb 50       		.byte	0x50
 3323 01ec 23       		.byte	0x23
 3324 01ed 4C       		.uleb128 0x4c
 3325 01ee 9F       		.byte	0x9f
 3326 01ef 00000000 		.4byte	0
 3327 01f3 00000000 		.4byte	0
ARM GAS  /tmp/ccHM6Mvs.s 			page 60


 3328              	.LLST15:
 3329 01f7 0C000000 		.4byte	.LVL10
 3330 01fb 10000000 		.4byte	.LVL11
 3331 01ff 0100     		.2byte	0x1
 3332 0201 50       		.byte	0x50
 3333 0202 10000000 		.4byte	.LVL11
 3334 0206 1A000000 		.4byte	.LVL13
 3335 020a 0100     		.2byte	0x1
 3336 020c 54       		.byte	0x54
 3337 020d 00000000 		.4byte	0
 3338 0211 00000000 		.4byte	0
 3339              	.LLST16:
 3340 0215 1A000000 		.4byte	.LVL13
 3341 0219 38000000 		.4byte	.LVL18
 3342 021d 0100     		.2byte	0x1
 3343 021f 54       		.byte	0x54
 3344 0220 38000000 		.4byte	.LVL18
 3345 0224 46000000 		.4byte	.LFE3
 3346 0228 0800     		.2byte	0x8
 3347 022a F3       		.byte	0xf3
 3348 022b 01       		.uleb128 0x1
 3349 022c 50       		.byte	0x50
 3350 022d F3       		.byte	0xf3
 3351 022e 01       		.uleb128 0x1
 3352 022f 51       		.byte	0x51
 3353 0230 22       		.byte	0x22
 3354 0231 9F       		.byte	0x9f
 3355 0232 00000000 		.4byte	0
 3356 0236 00000000 		.4byte	0
 3357              	.LLST17:
 3358 023a 00000000 		.4byte	.LVL20
 3359 023e 08000000 		.4byte	.LVL21
 3360 0242 0100     		.2byte	0x1
 3361 0244 50       		.byte	0x50
 3362 0245 08000000 		.4byte	.LVL21
 3363 0249 2C000000 		.4byte	.LVL24
 3364 024d 0100     		.2byte	0x1
 3365 024f 54       		.byte	0x54
 3366 0250 2C000000 		.4byte	.LVL24
 3367 0254 2E000000 		.4byte	.LVL25
 3368 0258 0100     		.2byte	0x1
 3369 025a 50       		.byte	0x50
 3370 025b 2E000000 		.4byte	.LVL25
 3371 025f 3C000000 		.4byte	.LFE4
 3372 0263 0100     		.2byte	0x1
 3373 0265 54       		.byte	0x54
 3374 0266 00000000 		.4byte	0
 3375 026a 00000000 		.4byte	0
 3376              	.LLST18:
 3377 026e 12000000 		.4byte	.LVL22
 3378 0272 2C000000 		.4byte	.LVL24
 3379 0276 0100     		.2byte	0x1
 3380 0278 55       		.byte	0x55
 3381 0279 00000000 		.4byte	0
 3382 027d 00000000 		.4byte	0
 3383              	.LLST19:
 3384 0281 00000000 		.4byte	.LVL27
ARM GAS  /tmp/ccHM6Mvs.s 			page 61


 3385 0285 12000000 		.4byte	.LVL28
 3386 0289 0100     		.2byte	0x1
 3387 028b 50       		.byte	0x50
 3388 028c 12000000 		.4byte	.LVL28
 3389 0290 26000000 		.4byte	.LVL31
 3390 0294 0100     		.2byte	0x1
 3391 0296 54       		.byte	0x54
 3392 0297 26000000 		.4byte	.LVL31
 3393 029b 2C000000 		.4byte	.LFE5
 3394 029f 0100     		.2byte	0x1
 3395 02a1 50       		.byte	0x50
 3396 02a2 00000000 		.4byte	0
 3397 02a6 00000000 		.4byte	0
 3398              	.LLST20:
 3399 02aa 00000000 		.4byte	.LVL33
 3400 02ae 08000000 		.4byte	.LVL34
 3401 02b2 0100     		.2byte	0x1
 3402 02b4 50       		.byte	0x50
 3403 02b5 08000000 		.4byte	.LVL34
 3404 02b9 1E000000 		.4byte	.LVL37
 3405 02bd 0100     		.2byte	0x1
 3406 02bf 54       		.byte	0x54
 3407 02c0 1E000000 		.4byte	.LVL37
 3408 02c4 24000000 		.4byte	.LFE7
 3409 02c8 0400     		.2byte	0x4
 3410 02ca F3       		.byte	0xf3
 3411 02cb 01       		.uleb128 0x1
 3412 02cc 50       		.byte	0x50
 3413 02cd 9F       		.byte	0x9f
 3414 02ce 00000000 		.4byte	0
 3415 02d2 00000000 		.4byte	0
 3416              	.LLST21:
 3417 02d6 00000000 		.4byte	.LVL38
 3418 02da 0A000000 		.4byte	.LVL39
 3419 02de 0100     		.2byte	0x1
 3420 02e0 50       		.byte	0x50
 3421 02e1 0A000000 		.4byte	.LVL39
 3422 02e5 0C000000 		.4byte	.LVL40
 3423 02e9 0600     		.2byte	0x6
 3424 02eb 70       		.byte	0x70
 3425 02ec 00       		.sleb128 0
 3426 02ed 71       		.byte	0x71
 3427 02ee 00       		.sleb128 0
 3428 02ef 1C       		.byte	0x1c
 3429 02f0 9F       		.byte	0x9f
 3430 02f1 0C000000 		.4byte	.LVL40
 3431 02f5 13000000 		.4byte	.LVL41-1
 3432 02f9 0100     		.2byte	0x1
 3433 02fb 51       		.byte	0x51
 3434 02fc 00000000 		.4byte	0
 3435 0300 00000000 		.4byte	0
 3436              	.LLST22:
 3437 0304 00000000 		.4byte	.LVL43
 3438 0308 12000000 		.4byte	.LVL45
 3439 030c 0100     		.2byte	0x1
 3440 030e 50       		.byte	0x50
 3441 030f 12000000 		.4byte	.LVL45
ARM GAS  /tmp/ccHM6Mvs.s 			page 62


 3442 0313 4C000000 		.4byte	.LFE11
 3443 0317 0400     		.2byte	0x4
 3444 0319 F3       		.byte	0xf3
 3445 031a 01       		.uleb128 0x1
 3446 031b 50       		.byte	0x50
 3447 031c 9F       		.byte	0x9f
 3448 031d 00000000 		.4byte	0
 3449 0321 00000000 		.4byte	0
 3450              	.LLST23:
 3451 0325 06000000 		.4byte	.LVL44
 3452 0329 40000000 		.4byte	.LVL49
 3453 032d 0100     		.2byte	0x1
 3454 032f 55       		.byte	0x55
 3455 0330 00000000 		.4byte	0
 3456 0334 00000000 		.4byte	0
 3457              	.LLST24:
 3458 0338 00000000 		.4byte	.LVL51
 3459 033c 0D000000 		.4byte	.LVL52-1
 3460 0340 0100     		.2byte	0x1
 3461 0342 50       		.byte	0x50
 3462 0343 0D000000 		.4byte	.LVL52-1
 3463 0347 0E000000 		.4byte	.LFE10
 3464 034b 0400     		.2byte	0x4
 3465 034d F3       		.byte	0xf3
 3466 034e 01       		.uleb128 0x1
 3467 034f 50       		.byte	0x50
 3468 0350 9F       		.byte	0x9f
 3469 0351 00000000 		.4byte	0
 3470 0355 00000000 		.4byte	0
 3471              	.LLST25:
 3472 0359 00000000 		.4byte	.LVL53
 3473 035d 06000000 		.4byte	.LVL54
 3474 0361 0100     		.2byte	0x1
 3475 0363 50       		.byte	0x50
 3476 0364 06000000 		.4byte	.LVL54
 3477 0368 50000000 		.4byte	.LVL62
 3478 036c 0100     		.2byte	0x1
 3479 036e 54       		.byte	0x54
 3480 036f 50000000 		.4byte	.LVL62
 3481 0373 52000000 		.4byte	.LVL63
 3482 0377 0100     		.2byte	0x1
 3483 0379 50       		.byte	0x50
 3484 037a 52000000 		.4byte	.LVL63
 3485 037e 68000000 		.4byte	.LFE12
 3486 0382 0100     		.2byte	0x1
 3487 0384 54       		.byte	0x54
 3488 0385 00000000 		.4byte	0
 3489 0389 00000000 		.4byte	0
 3490              	.LLST26:
 3491 038d 32000000 		.4byte	.LVL57
 3492 0391 40000000 		.4byte	.LVL59
 3493 0395 0100     		.2byte	0x1
 3494 0397 55       		.byte	0x55
 3495 0398 00000000 		.4byte	0
 3496 039c 00000000 		.4byte	0
 3497              		.section	.debug_aranges,"",%progbits
 3498 0000 7C000000 		.4byte	0x7c
ARM GAS  /tmp/ccHM6Mvs.s 			page 63


 3499 0004 0200     		.2byte	0x2
 3500 0006 00000000 		.4byte	.Ldebug_info0
 3501 000a 04       		.byte	0x4
 3502 000b 00       		.byte	0
 3503 000c 0000     		.2byte	0
 3504 000e 0000     		.2byte	0
 3505 0010 00000000 		.4byte	.LFB0
 3506 0014 5C000000 		.4byte	.LFE0-.LFB0
 3507 0018 00000000 		.4byte	.LFB1
 3508 001c 0E000000 		.4byte	.LFE1-.LFB1
 3509 0020 00000000 		.4byte	.LFB2
 3510 0024 9C000000 		.4byte	.LFE2-.LFB2
 3511 0028 00000000 		.4byte	.LFB3
 3512 002c 46000000 		.4byte	.LFE3-.LFB3
 3513 0030 00000000 		.4byte	.LFB4
 3514 0034 3C000000 		.4byte	.LFE4-.LFB4
 3515 0038 00000000 		.4byte	.LFB5
 3516 003c 2C000000 		.4byte	.LFE5-.LFB5
 3517 0040 00000000 		.4byte	.LFB6
 3518 0044 1A000000 		.4byte	.LFE6-.LFB6
 3519 0048 00000000 		.4byte	.LFB7
 3520 004c 24000000 		.4byte	.LFE7-.LFB7
 3521 0050 00000000 		.4byte	.LFB8
 3522 0054 20000000 		.4byte	.LFE8-.LFB8
 3523 0058 00000000 		.4byte	.LFB9
 3524 005c 24000000 		.4byte	.LFE9-.LFB9
 3525 0060 00000000 		.4byte	.LFB11
 3526 0064 4C000000 		.4byte	.LFE11-.LFB11
 3527 0068 00000000 		.4byte	.LFB10
 3528 006c 0E000000 		.4byte	.LFE10-.LFB10
 3529 0070 00000000 		.4byte	.LFB12
 3530 0074 68000000 		.4byte	.LFE12-.LFB12
 3531 0078 00000000 		.4byte	0
 3532 007c 00000000 		.4byte	0
 3533              		.section	.debug_ranges,"",%progbits
 3534              	.Ldebug_ranges0:
 3535 0000 24000000 		.4byte	.LBB8
 3536 0004 26000000 		.4byte	.LBE8
 3537 0008 28000000 		.4byte	.LBB13
 3538 000c 2A000000 		.4byte	.LBE13
 3539 0010 34000000 		.4byte	.LBB14
 3540 0014 4E000000 		.4byte	.LBE14
 3541 0018 50000000 		.4byte	.LBB15
 3542 001c 80000000 		.4byte	.LBE15
 3543 0020 00000000 		.4byte	0
 3544 0024 00000000 		.4byte	0
 3545 0028 00000000 		.4byte	.LFB0
 3546 002c 5C000000 		.4byte	.LFE0
 3547 0030 00000000 		.4byte	.LFB1
 3548 0034 0E000000 		.4byte	.LFE1
 3549 0038 00000000 		.4byte	.LFB2
 3550 003c 9C000000 		.4byte	.LFE2
 3551 0040 00000000 		.4byte	.LFB3
 3552 0044 46000000 		.4byte	.LFE3
 3553 0048 00000000 		.4byte	.LFB4
 3554 004c 3C000000 		.4byte	.LFE4
 3555 0050 00000000 		.4byte	.LFB5
ARM GAS  /tmp/ccHM6Mvs.s 			page 64


 3556 0054 2C000000 		.4byte	.LFE5
 3557 0058 00000000 		.4byte	.LFB6
 3558 005c 1A000000 		.4byte	.LFE6
 3559 0060 00000000 		.4byte	.LFB7
 3560 0064 24000000 		.4byte	.LFE7
 3561 0068 00000000 		.4byte	.LFB8
 3562 006c 20000000 		.4byte	.LFE8
 3563 0070 00000000 		.4byte	.LFB9
 3564 0074 24000000 		.4byte	.LFE9
 3565 0078 00000000 		.4byte	.LFB11
 3566 007c 4C000000 		.4byte	.LFE11
 3567 0080 00000000 		.4byte	.LFB10
 3568 0084 0E000000 		.4byte	.LFE10
 3569 0088 00000000 		.4byte	.LFB12
 3570 008c 68000000 		.4byte	.LFE12
 3571 0090 00000000 		.4byte	0
 3572 0094 00000000 		.4byte	0
 3573              		.section	.debug_line,"",%progbits
 3574              	.Ldebug_line0:
 3575 0000 74030000 		.section	.debug_str,"MS",%progbits,1
 3575      02007D01 
 3575      00000201 
 3575      FB0E0D00 
 3575      01010101 
 3576              	.LASF80:
 3577 0000 7466756E 		.ascii	"tfunc_t\000"
 3577      635F7400 
 3578              	.LASF43:
 3579 0008 705F6D73 		.ascii	"p_msg\000"
 3579      6700
 3580              	.LASF2:
 3581 000e 73697A65 		.ascii	"size_t\000"
 3581      5F7400
 3582              	.LASF81:
 3583 0015 7072696F 		.ascii	"prio\000"
 3583      00
 3584              	.LASF75:
 3585 001a 7264796D 		.ascii	"rdymsg\000"
 3585      736700
 3586              	.LASF17:
 3587 0021 75696E74 		.ascii	"uint64_t\000"
 3587      36345F74 
 3587      00
 3588              	.LASF3:
 3589 002a 5F5F7569 		.ascii	"__uint8_t\000"
 3589      6E74385F 
 3589      7400
 3590              	.LASF99:
 3591 0034 76746C69 		.ascii	"vtlist\000"
 3591      737400
 3592              	.LASF96:
 3593 003b 63685468 		.ascii	"chThdExitS\000"
 3593      64457869 
 3593      745300
 3594              	.LASF13:
 3595 0046 6C6F6E67 		.ascii	"long long unsigned int\000"
 3595      206C6F6E 
ARM GAS  /tmp/ccHM6Mvs.s 			page 65


 3595      6720756E 
 3595      7369676E 
 3595      65642069 
 3596              	.LASF102:
 3597 005d 63684462 		.ascii	"chDbgPanic\000"
 3597      6750616E 
 3597      696300
 3598              	.LASF114:
 3599 0068 2F686F6D 		.ascii	"/home/makkmarci/devel/ChibiOS_2.6.5/projects/STM32F"
 3599      652F6D61 
 3599      6B6B6D61 
 3599      7263692F 
 3599      64657665 
 3600 009b 345F4368 		.ascii	"4_ChibiOS_uGFX_gwin_2/\000"
 3600      6962694F 
 3600      535F7547 
 3600      46585F67 
 3600      77696E5F 
 3601              	.LASF30:
 3602 00b2 705F7072 		.ascii	"p_prio\000"
 3602      696F00
 3603              	.LASF11:
 3604 00b9 6C6F6E67 		.ascii	"long long int\000"
 3604      206C6F6E 
 3604      6720696E 
 3604      7400
 3605              	.LASF1:
 3606 00c7 7369676E 		.ascii	"signed char\000"
 3606      65642063 
 3606      68617200 
 3607              	.LASF97:
 3608 00d3 63685468 		.ascii	"chThdExit\000"
 3608      64457869 
 3608      7400
 3609              	.LASF47:
 3610 00dd 705F6D70 		.ascii	"p_mpool\000"
 3610      6F6F6C00 
 3611              	.LASF72:
 3612 00e5 6D5F7175 		.ascii	"m_queue\000"
 3612      65756500 
 3613              	.LASF22:
 3614 00ed 74736C69 		.ascii	"tslices_t\000"
 3614      6365735F 
 3614      7400
 3615              	.LASF85:
 3616 00f7 63685468 		.ascii	"chThdCreateI\000"
 3616      64437265 
 3616      61746549 
 3616      00
 3617              	.LASF8:
 3618 0104 6C6F6E67 		.ascii	"long int\000"
 3618      20696E74 
 3618      00
 3619              	.LASF20:
 3620 010d 74737461 		.ascii	"tstate_t\000"
 3620      74655F74 
 3620      00
ARM GAS  /tmp/ccHM6Mvs.s 			page 66


 3621              	.LASF32:
 3622 0116 705F6E65 		.ascii	"p_newer\000"
 3622      77657200 
 3623              	.LASF108:
 3624 011e 6C697374 		.ascii	"list_remove\000"
 3624      5F72656D 
 3624      6F766500 
 3625              	.LASF76:
 3626 012a 65786974 		.ascii	"exitcode\000"
 3626      636F6465 
 3626      00
 3627              	.LASF106:
 3628 0133 63685363 		.ascii	"chSchRescheduleS\000"
 3628      68526573 
 3628      63686564 
 3628      756C6553 
 3628      00
 3629              	.LASF9:
 3630 0144 5F5F7569 		.ascii	"__uint32_t\000"
 3630      6E743332 
 3630      5F7400
 3631              	.LASF50:
 3632 014f 72656761 		.ascii	"regarm_t\000"
 3632      726D5F74 
 3632      00
 3633              	.LASF58:
 3634 0158 76745F70 		.ascii	"vt_prev\000"
 3634      72657600 
 3635              	.LASF87:
 3636 0160 63685468 		.ascii	"chThdSetPriority\000"
 3636      64536574 
 3636      5072696F 
 3636      72697479 
 3636      00
 3637              	.LASF35:
 3638 0171 705F7374 		.ascii	"p_stklimit\000"
 3638      6B6C696D 
 3638      697400
 3639              	.LASF0:
 3640 017c 756E7369 		.ascii	"unsigned int\000"
 3640      676E6564 
 3640      20696E74 
 3640      00
 3641              	.LASF57:
 3642 0189 76745F6E 		.ascii	"vt_next\000"
 3642      65787400 
 3643              	.LASF10:
 3644 0191 6C6F6E67 		.ascii	"long unsigned int\000"
 3644      20756E73 
 3644      69676E65 
 3644      6420696E 
 3644      7400
 3645              	.LASF55:
 3646 01a3 76746675 		.ascii	"vtfunc_t\000"
 3646      6E635F74 
 3646      00
 3647              	.LASF56:
ARM GAS  /tmp/ccHM6Mvs.s 			page 67


 3648 01ac 56697274 		.ascii	"VirtualTimer\000"
 3648      75616C54 
 3648      696D6572 
 3648      00
 3649              	.LASF53:
 3650 01b9 636F6E74 		.ascii	"context\000"
 3650      65787400 
 3651              	.LASF84:
 3652 01c1 73697A65 		.ascii	"size\000"
 3652      00
 3653              	.LASF6:
 3654 01c6 73686F72 		.ascii	"short unsigned int\000"
 3654      7420756E 
 3654      7369676E 
 3654      65642069 
 3654      6E7400
 3655              	.LASF103:
 3656 01d9 63685363 		.ascii	"chSchWakeupS\000"
 3656      6857616B 
 3656      65757053 
 3656      00
 3657              	.LASF115:
 3658 01e6 63685468 		.ascii	"chThdRelease\000"
 3658      6452656C 
 3658      65617365 
 3658      00
 3659              	.LASF24:
 3660 01f3 6D73675F 		.ascii	"msg_t\000"
 3660      7400
 3661              	.LASF67:
 3662 01f9 725F6E65 		.ascii	"r_newer\000"
 3662      77657200 
 3663              	.LASF88:
 3664 0201 6E657770 		.ascii	"newprio\000"
 3664      72696F00 
 3665              	.LASF19:
 3666 0209 746D6F64 		.ascii	"tmode_t\000"
 3666      655F7400 
 3667              	.LASF91:
 3668 0211 63685468 		.ascii	"chThdTerminate\000"
 3668      64546572 
 3668      6D696E61 
 3668      746500
 3669              	.LASF49:
 3670 0220 54687265 		.ascii	"ThreadsList\000"
 3670      6164734C 
 3670      69737400 
 3671              	.LASF25:
 3672 022c 6576656E 		.ascii	"eventmask_t\000"
 3672      746D6173 
 3672      6B5F7400 
 3673              	.LASF71:
 3674 0238 4D757465 		.ascii	"Mutex\000"
 3674      7800
 3675              	.LASF89:
 3676 023e 6F6C6470 		.ascii	"oldprio\000"
 3676      72696F00 
ARM GAS  /tmp/ccHM6Mvs.s 			page 68


 3677              	.LASF51:
 3678 0246 73746B61 		.ascii	"stkalign_t\000"
 3678      6C69676E 
 3678      5F7400
 3679              	.LASF86:
 3680 0251 63685468 		.ascii	"chThdCreateStatic\000"
 3680      64437265 
 3680      61746553 
 3680      74617469 
 3680      6300
 3681              	.LASF59:
 3682 0263 76745F74 		.ascii	"vt_time\000"
 3682      696D6500 
 3683              	.LASF54:
 3684 026b 73697A65 		.ascii	"sizetype\000"
 3684      74797065 
 3684      00
 3685              	.LASF60:
 3686 0274 76745F66 		.ascii	"vt_func\000"
 3686      756E6300 
 3687              	.LASF90:
 3688 027c 63685468 		.ascii	"chThdResume\000"
 3688      64526573 
 3688      756D6500 
 3689              	.LASF82:
 3690 0288 73746172 		.ascii	"startp\000"
 3690      747000
 3691              	.LASF107:
 3692 028f 63685363 		.ascii	"chSchDoRescheduleBehind\000"
 3692      68446F52 
 3692      65736368 
 3692      6564756C 
 3692      65426568 
 3693              	.LASF33:
 3694 02a7 705F6F6C 		.ascii	"p_older\000"
 3694      64657200 
 3695              	.LASF66:
 3696 02af 725F6374 		.ascii	"r_ctx\000"
 3696      7800
 3697              	.LASF48:
 3698 02b5 54687265 		.ascii	"ThreadsQueue\000"
 3698      61647351 
 3698      75657565 
 3698      00
 3699              	.LASF93:
 3700 02c2 74696D65 		.ascii	"time\000"
 3700      00
 3701              	.LASF111:
 3702 02c7 6C697374 		.ascii	"list_insert\000"
 3702      5F696E73 
 3702      65727400 
 3703              	.LASF69:
 3704 02d3 725F6375 		.ascii	"r_current\000"
 3704      7272656E 
 3704      7400
 3705              	.LASF68:
 3706 02dd 725F6F6C 		.ascii	"r_older\000"
ARM GAS  /tmp/ccHM6Mvs.s 			page 69


 3706      64657200 
 3707              	.LASF94:
 3708 02e5 63685468 		.ascii	"chThdSleepUntil\000"
 3708      64536C65 
 3708      6570556E 
 3708      74696C00 
 3709              	.LASF12:
 3710 02f5 5F5F7569 		.ascii	"__uint64_t\000"
 3710      6E743634 
 3710      5F7400
 3711              	.LASF21:
 3712 0300 74726566 		.ascii	"trefs_t\000"
 3712      735F7400 
 3713              	.LASF29:
 3714 0308 705F7072 		.ascii	"p_prev\000"
 3714      657600
 3715              	.LASF23:
 3716 030f 74707269 		.ascii	"tprio_t\000"
 3716      6F5F7400 
 3717              	.LASF18:
 3718 0317 5F426F6F 		.ascii	"_Bool\000"
 3718      6C00
 3719              	.LASF15:
 3720 031d 696E7433 		.ascii	"int32_t\000"
 3720      325F7400 
 3721              	.LASF4:
 3722 0325 756E7369 		.ascii	"unsigned char\000"
 3722      676E6564 
 3722      20636861 
 3722      7200
 3723              	.LASF45:
 3724 0333 705F6D74 		.ascii	"p_mtxlist\000"
 3724      786C6973 
 3724      7400
 3725              	.LASF5:
 3726 033d 73686F72 		.ascii	"short int\000"
 3726      7420696E 
 3726      7400
 3727              	.LASF36:
 3728 0347 705F7374 		.ascii	"p_state\000"
 3728      61746500 
 3729              	.LASF39:
 3730 034f 705F7072 		.ascii	"p_preempt\000"
 3730      65656D70 
 3730      7400
 3731              	.LASF65:
 3732 0359 725F7072 		.ascii	"r_prio\000"
 3732      696F00
 3733              	.LASF78:
 3734 0360 65776D61 		.ascii	"ewmask\000"
 3734      736B00
 3735              	.LASF28:
 3736 0367 705F6E65 		.ascii	"p_next\000"
 3736      787400
 3737              	.LASF37:
 3738 036e 705F666C 		.ascii	"p_flags\000"
 3738      61677300 
ARM GAS  /tmp/ccHM6Mvs.s 			page 70


 3739              	.LASF101:
 3740 0376 5F746872 		.ascii	"_thread_memfill\000"
 3740      6561645F 
 3740      6D656D66 
 3740      696C6C00 
 3741              	.LASF112:
 3742 0386 474E5520 		.ascii	"GNU C 4.8.4 20140526 (release) [ARM/embedded-4_8-br"
 3742      4320342E 
 3742      382E3420 
 3742      32303134 
 3742      30353236 
 3743 03b9 616E6368 		.ascii	"anch revision 211358] -mcpu=cortex-m4 -mfloat-abi=h"
 3743      20726576 
 3743      6973696F 
 3743      6E203231 
 3743      31333538 
 3744 03ec 61726420 		.ascii	"ard -mfpu=fpv4-sp-d16 -mno-thumb-interwork -mthumb "
 3744      2D6D6670 
 3744      753D6670 
 3744      76342D73 
 3744      702D6431 
 3745 041f 2D676764 		.ascii	"-ggdb -O2 -fomit-frame-pointer -falign-functions=16"
 3745      62202D4F 
 3745      32202D66 
 3745      6F6D6974 
 3745      2D667261 
 3746 0452 202D6666 		.ascii	" -ffunction-sections -fdata-sections -fno-common -f"
 3746      756E6374 
 3746      696F6E2D 
 3746      73656374 
 3746      696F6E73 
 3747 0485 73696E67 		.ascii	"single-precision-constant\000"
 3747      6C652D70 
 3747      72656369 
 3747      73696F6E 
 3747      2D636F6E 
 3748              	.LASF27:
 3749 049f 54687265 		.ascii	"Thread\000"
 3749      616400
 3750              	.LASF110:
 3751 04a6 63685363 		.ascii	"chSchGoSleepS\000"
 3751      68476F53 
 3751      6C656570 
 3751      5300
 3752              	.LASF44:
 3753 04b4 705F6570 		.ascii	"p_epending\000"
 3753      656E6469 
 3753      6E6700
 3754              	.LASF16:
 3755 04bf 75696E74 		.ascii	"uint32_t\000"
 3755      33325F74 
 3755      00
 3756              	.LASF104:
 3757 04c8 5F746872 		.ascii	"_thread_init\000"
 3757      6561645F 
 3757      696E6974 
 3757      00
ARM GAS  /tmp/ccHM6Mvs.s 			page 71


 3758              	.LASF64:
 3759 04d5 725F7175 		.ascii	"r_queue\000"
 3759      65756500 
 3760              	.LASF79:
 3761 04dd 63686172 		.ascii	"char\000"
 3761      00
 3762              	.LASF109:
 3763 04e2 63685363 		.ascii	"chSchReadyI\000"
 3763      68526561 
 3763      64794900 
 3764              	.LASF74:
 3765 04ee 6D5F6E65 		.ascii	"m_next\000"
 3765      787400
 3766              	.LASF26:
 3767 04f5 73797374 		.ascii	"systime_t\000"
 3767      696D655F 
 3767      7400
 3768              	.LASF46:
 3769 04ff 705F7265 		.ascii	"p_realprio\000"
 3769      616C7072 
 3769      696F00
 3770              	.LASF7:
 3771 050a 5F5F696E 		.ascii	"__int32_t\000"
 3771      7433325F 
 3771      7400
 3772              	.LASF95:
 3773 0514 63685468 		.ascii	"chThdYield\000"
 3773      64596965 
 3773      6C6400
 3774              	.LASF40:
 3775 051f 705F7469 		.ascii	"p_time\000"
 3775      6D6500
 3776              	.LASF52:
 3777 0526 696E7463 		.ascii	"intctx\000"
 3777      747800
 3778              	.LASF42:
 3779 052d 705F6D73 		.ascii	"p_msgqueue\000"
 3779      67717565 
 3779      756500
 3780              	.LASF83:
 3781 0538 656E6470 		.ascii	"endp\000"
 3781      00
 3782              	.LASF98:
 3783 053d 63685468 		.ascii	"chThdWait\000"
 3783      64576169 
 3783      7400
 3784              	.LASF61:
 3785 0547 76745F70 		.ascii	"vt_par\000"
 3785      617200
 3786              	.LASF92:
 3787 054e 63685468 		.ascii	"chThdSleep\000"
 3787      64536C65 
 3787      657000
 3788              	.LASF38:
 3789 0559 705F7265 		.ascii	"p_refs\000"
 3789      667300
 3790              	.LASF70:
ARM GAS  /tmp/ccHM6Mvs.s 			page 72


 3791 0560 52656164 		.ascii	"ReadyList\000"
 3791      794C6973 
 3791      7400
 3792              	.LASF100:
 3793 056a 726C6973 		.ascii	"rlist\000"
 3793      7400
 3794              	.LASF14:
 3795 0570 75696E74 		.ascii	"uint8_t\000"
 3795      385F7400 
 3796              	.LASF113:
 3797 0578 2E2E2F2E 		.ascii	"../../os/kernel/src/chthreads.c\000"
 3797      2E2F6F73 
 3797      2F6B6572 
 3797      6E656C2F 
 3797      7372632F 
 3798              	.LASF77:
 3799 0598 77746F62 		.ascii	"wtobjp\000"
 3799      6A7000
 3800              	.LASF34:
 3801 059f 705F6E61 		.ascii	"p_name\000"
 3801      6D6500
 3802              	.LASF62:
 3803 05a6 76745F73 		.ascii	"vt_systime\000"
 3803      79737469 
 3803      6D6500
 3804              	.LASF105:
 3805 05b1 63685363 		.ascii	"chSchGoSleepTimeoutS\000"
 3805      68476F53 
 3805      6C656570 
 3805      54696D65 
 3805      6F757453 
 3806              	.LASF63:
 3807 05c6 56544C69 		.ascii	"VTList\000"
 3807      737400
 3808              	.LASF73:
 3809 05cd 6D5F6F77 		.ascii	"m_owner\000"
 3809      6E657200 
 3810              	.LASF31:
 3811 05d5 705F6374 		.ascii	"p_ctx\000"
 3811      7800
 3812              	.LASF41:
 3813 05db 705F7761 		.ascii	"p_waiting\000"
 3813      6974696E 
 3813      6700
 3814              		.ident	"GCC: (GNU Tools for ARM Embedded Processors) 4.8.4 20140526 (release) [ARM/embedded-4_8-br
ARM GAS  /tmp/ccHM6Mvs.s 			page 73


DEFINED SYMBOLS
                            *ABS*:00000000 chthreads.c
     /tmp/ccHM6Mvs.s:21     .text._thread_init:00000000 $t
     /tmp/ccHM6Mvs.s:27     .text._thread_init:00000000 _thread_init
     /tmp/ccHM6Mvs.s:103    .text._thread_init:00000058 $d
     /tmp/ccHM6Mvs.s:108    .text._thread_memfill:00000000 $t
     /tmp/ccHM6Mvs.s:114    .text._thread_memfill:00000000 _thread_memfill
     /tmp/ccHM6Mvs.s:138    .text.chThdCreateI:00000000 $t
     /tmp/ccHM6Mvs.s:144    .text.chThdCreateI:00000000 chThdCreateI
     /tmp/ccHM6Mvs.s:282    .text.chThdCreateI:00000090 $d
     /tmp/ccHM6Mvs.s:289    .text.chThdCreateStatic:00000000 $t
     /tmp/ccHM6Mvs.s:295    .text.chThdCreateStatic:00000000 chThdCreateStatic
     /tmp/ccHM6Mvs.s:381    .text.chThdSetPriority:00000000 $t
     /tmp/ccHM6Mvs.s:387    .text.chThdSetPriority:00000000 chThdSetPriority
     /tmp/ccHM6Mvs.s:454    .text.chThdSetPriority:00000034 $d
     /tmp/ccHM6Mvs.s:460    .text.chThdResume:00000000 $t
     /tmp/ccHM6Mvs.s:466    .text.chThdResume:00000000 chThdResume
     /tmp/ccHM6Mvs.s:511    .text.chThdResume:00000028 $d
     /tmp/ccHM6Mvs.s:516    .text.chThdTerminate:00000000 $t
     /tmp/ccHM6Mvs.s:522    .text.chThdTerminate:00000000 chThdTerminate
     /tmp/ccHM6Mvs.s:551    .text.chThdSleep:00000000 $t
     /tmp/ccHM6Mvs.s:557    .text.chThdSleep:00000000 chThdSleep
     /tmp/ccHM6Mvs.s:597    .text.chThdSleep:00000020 $d
     /tmp/ccHM6Mvs.s:602    .text.chThdSleepUntil:00000000 $t
     /tmp/ccHM6Mvs.s:608    .text.chThdSleepUntil:00000000 chThdSleepUntil
     /tmp/ccHM6Mvs.s:645    .text.chThdSleepUntil:0000001c $d
     /tmp/ccHM6Mvs.s:650    .text.chThdYield:00000000 $t
     /tmp/ccHM6Mvs.s:656    .text.chThdYield:00000000 chThdYield
     /tmp/ccHM6Mvs.s:692    .text.chThdYield:00000020 $d
     /tmp/ccHM6Mvs.s:697    .text.chThdExitS:00000000 $t
     /tmp/ccHM6Mvs.s:703    .text.chThdExitS:00000000 chThdExitS
     /tmp/ccHM6Mvs.s:767    .text.chThdExitS:00000044 $d
     /tmp/ccHM6Mvs.s:773    .text.chThdExit:00000000 $t
     /tmp/ccHM6Mvs.s:779    .text.chThdExit:00000000 chThdExit
     /tmp/ccHM6Mvs.s:803    .text.chThdWait:00000000 $t
     /tmp/ccHM6Mvs.s:809    .text.chThdWait:00000000 chThdWait
     /tmp/ccHM6Mvs.s:895    .text.chThdWait:00000058 $d
     /tmp/ccHM6Mvs.s:903    .rodata.str1.4:00000000 $d
                     .debug_frame:00000010 $d
     /tmp/ccHM6Mvs.s:107    .text._thread_init:0000005c $t
     /tmp/ccHM6Mvs.s:288    .text.chThdCreateI:0000009c $t
     /tmp/ccHM6Mvs.s:459    .text.chThdSetPriority:0000003c $t
     /tmp/ccHM6Mvs.s:515    .text.chThdResume:0000002c $t
     /tmp/ccHM6Mvs.s:601    .text.chThdSleep:00000024 $t
     /tmp/ccHM6Mvs.s:696    .text.chThdYield:00000024 $t
     /tmp/ccHM6Mvs.s:772    .text.chThdExitS:0000004c $t
     /tmp/ccHM6Mvs.s:902    .text.chThdWait:00000068 $t

UNDEFINED SYMBOLS
rlist
chDbgPanic
_port_thread_start
_port_lock
chSchWakeupS
_port_unlock
chSchRescheduleS
chSchGoSleepTimeoutS
ARM GAS  /tmp/ccHM6Mvs.s 			page 74


vtlist
chSchDoRescheduleBehind
list_remove
chSchReadyI
chSchGoSleepS
list_insert
chThdRelease
