ARM GAS  /tmp/cchASicq.s 			page 1


   1              		.syntax unified
   2              		.cpu cortex-m4
   3              		.eabi_attribute 27, 3
   4              		.eabi_attribute 28, 1
   5              		.fpu fpv4-sp-d16
   6              		.eabi_attribute 20, 1
   7              		.eabi_attribute 21, 1
   8              		.eabi_attribute 23, 3
   9              		.eabi_attribute 24, 1
  10              		.eabi_attribute 25, 1
  11              		.eabi_attribute 26, 1
  12              		.eabi_attribute 30, 2
  13              		.eabi_attribute 34, 1
  14              		.eabi_attribute 18, 4
  15              		.thumb
  16              		.file	"chvt.c"
  17              		.text
  18              	.Ltext0:
  19              		.cfi_sections	.debug_frame
  20              		.section	.text._vt_init,"ax",%progbits
  21              		.align	2
  22              		.p2align 4,,15
  23              		.global	_vt_init
  24              		.thumb
  25              		.thumb_func
  26              		.type	_vt_init, %function
  27              	_vt_init:
  28              	.LFB0:
  29              		.file 1 "../../os/kernel/src/chvt.c"
  30              		.loc 1 50 0
  31              		.cfi_startproc
  32              		@ args = 0, pretend = 0, frame = 0
  33              		@ frame_needed = 0, uses_anonymous_args = 0
  34              		@ link register save eliminated.
  35              		.loc 1 52 0
  36 0000 044B     		ldr	r3, .L2
  37              		.loc 1 53 0
  38 0002 4FF0FF31 		mov	r1, #-1
  39              		.loc 1 54 0
  40 0006 0022     		movs	r2, #0
  41              		.loc 1 52 0
  42 0008 5B60     		str	r3, [r3, #4]
  43 000a 1B60     		str	r3, [r3]
  44              		.loc 1 53 0
  45 000c 9960     		str	r1, [r3, #8]
  46              		.loc 1 54 0
  47 000e DA60     		str	r2, [r3, #12]
  48 0010 7047     		bx	lr
  49              	.L3:
  50 0012 00BF     		.align	2
  51              	.L2:
  52 0014 00000000 		.word	.LANCHOR0
  53              		.cfi_endproc
  54              	.LFE0:
  55              		.size	_vt_init, .-_vt_init
  56 0018 AFF30080 		.section	.text.chVTSetI,"ax",%progbits
  56      AFF30080 
ARM GAS  /tmp/cchASicq.s 			page 2


  57              		.align	2
  58              		.p2align 4,,15
  59              		.global	chVTSetI
  60              		.thumb
  61              		.thumb_func
  62              		.type	chVTSetI, %function
  63              	chVTSetI:
  64              	.LFB1:
  65              		.loc 1 76 0
  66              		.cfi_startproc
  67              		@ args = 0, pretend = 0, frame = 0
  68              		@ frame_needed = 0, uses_anonymous_args = 0
  69              	.LVL0:
  70 0000 F8B5     		push	{r3, r4, r5, r6, r7, lr}
  71              		.cfi_def_cfa_offset 24
  72              		.cfi_offset 3, -24
  73              		.cfi_offset 4, -20
  74              		.cfi_offset 5, -16
  75              		.cfi_offset 6, -12
  76              		.cfi_offset 7, -8
  77              		.cfi_offset 14, -4
  78              		.loc 1 80 0
  79 0002 0546     		mov	r5, r0
  80              		.loc 1 76 0
  81 0004 0C46     		mov	r4, r1
  82 0006 1646     		mov	r6, r2
  83 0008 1F46     		mov	r7, r3
  84              		.loc 1 80 0
  85 000a C8B1     		cbz	r0, .L5
  86              		.loc 1 80 0 is_stmt 0 discriminator 2
  87 000c C2B1     		cbz	r2, .L5
  88              		.loc 1 80 0 discriminator 1
  89 000e B9B1     		cbz	r1, .L5
  90              	.LVL1:
  91              	.L6:
  92              		.loc 1 85 0 is_stmt 1
  93 0010 0D49     		ldr	r1, .L17
  94              		.loc 1 83 0
  95 0012 2F61     		str	r7, [r5, #16]
  96              		.loc 1 85 0
  97 0014 0B68     		ldr	r3, [r1]
  98              	.LVL2:
  99              		.loc 1 84 0
 100 0016 EE60     		str	r6, [r5, #12]
 101              		.loc 1 86 0
 102 0018 9A68     		ldr	r2, [r3, #8]
 103 001a 9442     		cmp	r4, r2
 104 001c 04D9     		bls	.L7
 105              	.L8:
 106              		.loc 1 88 0
 107 001e 1B68     		ldr	r3, [r3]
 108              	.LVL3:
 109              		.loc 1 87 0
 110 0020 A41A     		subs	r4, r4, r2
 111              	.LVL4:
 112              		.loc 1 86 0
 113 0022 9A68     		ldr	r2, [r3, #8]
ARM GAS  /tmp/cchASicq.s 			page 3


 114 0024 A242     		cmp	r2, r4
 115 0026 FAD3     		bcc	.L8
 116              	.L7:
 117              		.loc 1 91 0
 118 0028 5A68     		ldr	r2, [r3, #4]
 119 002a 6A60     		str	r2, [r5, #4]
 120              		.loc 1 94 0
 121 002c 8B42     		cmp	r3, r1
 122              		.loc 1 91 0
 123 002e 2B60     		str	r3, [r5]
 124              		.loc 1 92 0
 125 0030 5D60     		str	r5, [r3, #4]
 126 0032 1560     		str	r5, [r2]
 127              		.loc 1 93 0
 128 0034 AC60     		str	r4, [r5, #8]
 129              		.loc 1 94 0
 130 0036 02D0     		beq	.L4
 131              		.loc 1 95 0
 132 0038 9A68     		ldr	r2, [r3, #8]
 133 003a 141B     		subs	r4, r2, r4
 134              	.LVL5:
 135 003c 9C60     		str	r4, [r3, #8]
 136              	.LVL6:
 137              	.L4:
 138 003e F8BD     		pop	{r3, r4, r5, r6, r7, pc}
 139              	.LVL7:
 140              	.L5:
 141              		.loc 1 80 0 discriminator 1
 142 0040 0248     		ldr	r0, .L17+4
 143              	.LVL8:
 144 0042 FFF7FEFF 		bl	chDbgPanic
 145              	.LVL9:
 146 0046 E3E7     		b	.L6
 147              	.L18:
 148              		.align	2
 149              	.L17:
 150 0048 00000000 		.word	.LANCHOR0
 151 004c 00000000 		.word	.LC0
 152              		.cfi_endproc
 153              	.LFE1:
 154              		.size	chVTSetI, .-chVTSetI
 155              		.section	.text.chVTResetI,"ax",%progbits
 156              		.align	2
 157              		.p2align 4,,15
 158              		.global	chVTResetI
 159              		.thumb
 160              		.thumb_func
 161              		.type	chVTResetI, %function
 162              	chVTResetI:
 163              	.LFB2:
 164              		.loc 1 106 0
 165              		.cfi_startproc
 166              		@ args = 0, pretend = 0, frame = 0
 167              		@ frame_needed = 0, uses_anonymous_args = 0
 168              	.LVL10:
 169 0000 10B5     		push	{r4, lr}
 170              		.cfi_def_cfa_offset 8
ARM GAS  /tmp/cchASicq.s 			page 4


 171              		.cfi_offset 4, -8
 172              		.cfi_offset 14, -4
 173              		.loc 1 109 0
 174 0002 0446     		mov	r4, r0
 175 0004 80B1     		cbz	r0, .L23
 176              	.LVL11:
 177              	.L20:
 178              		.loc 1 110 0
 179 0006 E368     		ldr	r3, [r4, #12]
 180 0008 93B1     		cbz	r3, .L24
 181              	.L21:
 182              		.loc 1 114 0
 183 000a 2368     		ldr	r3, [r4]
 184 000c 0A4A     		ldr	r2, .L25
 185 000e 9342     		cmp	r3, r2
 186 0010 03D0     		beq	.L22
 187              		.loc 1 115 0
 188 0012 9968     		ldr	r1, [r3, #8]
 189 0014 A268     		ldr	r2, [r4, #8]
 190 0016 0A44     		add	r2, r2, r1
 191 0018 9A60     		str	r2, [r3, #8]
 192              	.L22:
 193              		.loc 1 116 0
 194 001a 6268     		ldr	r2, [r4, #4]
 195 001c 1360     		str	r3, [r2]
 196              		.loc 1 117 0
 197 001e 2368     		ldr	r3, [r4]
 198              		.loc 1 118 0
 199 0020 0021     		movs	r1, #0
 200              		.loc 1 117 0
 201 0022 5A60     		str	r2, [r3, #4]
 202              		.loc 1 118 0
 203 0024 E160     		str	r1, [r4, #12]
 204 0026 10BD     		pop	{r4, pc}
 205              	.LVL12:
 206              	.L23:
 207              		.loc 1 109 0 discriminator 1
 208 0028 0448     		ldr	r0, .L25+4
 209              	.LVL13:
 210 002a FFF7FEFF 		bl	chDbgPanic
 211              	.LVL14:
 212 002e EAE7     		b	.L20
 213              	.L24:
 214              		.loc 1 110 0 discriminator 1
 215 0030 0348     		ldr	r0, .L25+8
 216 0032 FFF7FEFF 		bl	chDbgPanic
 217              	.LVL15:
 218 0036 E8E7     		b	.L21
 219              	.L26:
 220              		.align	2
 221              	.L25:
 222 0038 00000000 		.word	.LANCHOR0
 223 003c 10000000 		.word	.LC1
 224 0040 20000000 		.word	.LC2
 225              		.cfi_endproc
 226              	.LFE2:
 227              		.size	chVTResetI, .-chVTResetI
ARM GAS  /tmp/cchASicq.s 			page 5


 228              		.global	vtlist
 229 0044 AFF30080 		.section	.bss.vtlist,"aw",%nobits
 229      AFF30080 
 229      AFF30080 
 230              		.align	2
 231              		.set	.LANCHOR0,. + 0
 232              		.type	vtlist, %object
 233              		.size	vtlist, 16
 234              	vtlist:
 235 0000 00000000 		.space	16
 235      00000000 
 235      00000000 
 235      00000000 
 236              		.section	.rodata.str1.4,"aMS",%progbits,1
 237              		.align	2
 238              	.LC0:
 239 0000 22636856 		.ascii	"\"chVTSetI\"()\000"
 239      54536574 
 239      49222829 
 239      00
 240 000d 000000   		.space	3
 241              	.LC1:
 242 0010 22636856 		.ascii	"\"chVTResetI\"()\000"
 242      54526573 
 242      65744922 
 242      282900
 243 001f 00       		.space	1
 244              	.LC2:
 245 0020 63685654 		.ascii	"chVTResetI(), #1\000"
 245      52657365 
 245      74492829 
 245      2C202331 
 245      00
 246 0031 000000   		.text
 247              	.Letext0:
 248              		.file 2 "/opt/ARM/arm-none-eabi/include/machine/_default_types.h"
 249              		.file 3 "/opt/ARM/arm-none-eabi/include/stdint.h"
 250              		.file 4 "../../os/ports/GCC/ARMCMx/chtypes.h"
 251              		.file 5 "../../os/kernel/include/chvt.h"
 252              		.file 6 "../../os/kernel/include/chdebug.h"
 253              		.section	.debug_info,"",%progbits
 254              	.Ldebug_info0:
 255 0000 5A020000 		.4byte	0x25a
 256 0004 0400     		.2byte	0x4
 257 0006 00000000 		.4byte	.Ldebug_abbrev0
 258 000a 04       		.byte	0x4
 259 000b 01       		.uleb128 0x1
 260 000c 85010000 		.4byte	.LASF28
 261 0010 01       		.byte	0x1
 262 0011 06010000 		.4byte	.LASF29
 263 0015 70000000 		.4byte	.LASF30
 264 0019 00000000 		.4byte	.Ldebug_ranges0+0
 265 001d 00000000 		.4byte	0
 266 0021 00000000 		.4byte	.Ldebug_line0
 267 0025 02       		.uleb128 0x2
 268 0026 04       		.byte	0x4
 269 0027 05       		.byte	0x5
ARM GAS  /tmp/cchASicq.s 			page 6


 270 0028 696E7400 		.ascii	"int\000"
 271 002c 03       		.uleb128 0x3
 272 002d 04       		.byte	0x4
 273 002e 07       		.byte	0x7
 274 002f BA000000 		.4byte	.LASF0
 275 0033 03       		.uleb128 0x3
 276 0034 01       		.byte	0x1
 277 0035 06       		.byte	0x6
 278 0036 79010000 		.4byte	.LASF1
 279 003a 03       		.uleb128 0x3
 280 003b 01       		.byte	0x1
 281 003c 08       		.byte	0x8
 282 003d 4E000000 		.4byte	.LASF2
 283 0041 03       		.uleb128 0x3
 284 0042 02       		.byte	0x2
 285 0043 05       		.byte	0x5
 286 0044 55010000 		.4byte	.LASF3
 287 0048 03       		.uleb128 0x3
 288 0049 02       		.byte	0x2
 289 004a 07       		.byte	0x7
 290 004b 2E000000 		.4byte	.LASF4
 291 004f 03       		.uleb128 0x3
 292 0050 04       		.byte	0x4
 293 0051 05       		.byte	0x5
 294 0052 70010000 		.4byte	.LASF5
 295 0056 04       		.uleb128 0x4
 296 0057 65000000 		.4byte	.LASF9
 297 005b 02       		.byte	0x2
 298 005c 38       		.byte	0x38
 299 005d 61000000 		.4byte	0x61
 300 0061 03       		.uleb128 0x3
 301 0062 04       		.byte	0x4
 302 0063 07       		.byte	0x7
 303 0064 1C000000 		.4byte	.LASF6
 304 0068 03       		.uleb128 0x3
 305 0069 08       		.byte	0x8
 306 006a 05       		.byte	0x5
 307 006b 21010000 		.4byte	.LASF7
 308 006f 03       		.uleb128 0x3
 309 0070 08       		.byte	0x8
 310 0071 07       		.byte	0x7
 311 0072 C7000000 		.4byte	.LASF8
 312 0076 04       		.uleb128 0x4
 313 0077 67010000 		.4byte	.LASF10
 314 007b 03       		.byte	0x3
 315 007c 42       		.byte	0x42
 316 007d 56000000 		.4byte	0x56
 317 0081 03       		.uleb128 0x3
 318 0082 01       		.byte	0x1
 319 0083 02       		.byte	0x2
 320 0084 B8020000 		.4byte	.LASF11
 321 0088 04       		.uleb128 0x4
 322 0089 09000000 		.4byte	.LASF12
 323 008d 04       		.byte	0x4
 324 008e 35       		.byte	0x35
 325 008f 76000000 		.4byte	0x76
 326 0093 05       		.uleb128 0x5
ARM GAS  /tmp/cchASicq.s 			page 7


 327 0094 04       		.byte	0x4
 328 0095 03       		.uleb128 0x3
 329 0096 04       		.byte	0x4
 330 0097 07       		.byte	0x7
 331 0098 F2000000 		.4byte	.LASF13
 332 009c 04       		.uleb128 0x4
 333 009d 13000000 		.4byte	.LASF14
 334 00a1 05       		.byte	0x5
 335 00a2 58       		.byte	0x58
 336 00a3 A7000000 		.4byte	0xa7
 337 00a7 06       		.uleb128 0x6
 338 00a8 04       		.byte	0x4
 339 00a9 AD000000 		.4byte	0xad
 340 00ad 07       		.uleb128 0x7
 341 00ae B8000000 		.4byte	0xb8
 342 00b2 08       		.uleb128 0x8
 343 00b3 93000000 		.4byte	0x93
 344 00b7 00       		.byte	0
 345 00b8 04       		.uleb128 0x4
 346 00b9 41000000 		.4byte	.LASF15
 347 00bd 05       		.byte	0x5
 348 00be 5D       		.byte	0x5d
 349 00bf C3000000 		.4byte	0xc3
 350 00c3 09       		.uleb128 0x9
 351 00c4 41000000 		.4byte	.LASF15
 352 00c8 14       		.byte	0x14
 353 00c9 05       		.byte	0x5
 354 00ca 64       		.byte	0x64
 355 00cb 0C010000 		.4byte	0x10c
 356 00cf 0A       		.uleb128 0xa
 357 00d0 A5020000 		.4byte	.LASF16
 358 00d4 05       		.byte	0x5
 359 00d5 65       		.byte	0x65
 360 00d6 0C010000 		.4byte	0x10c
 361 00da 00       		.byte	0
 362 00db 0A       		.uleb128 0xa
 363 00dc 5F010000 		.4byte	.LASF17
 364 00e0 05       		.byte	0x5
 365 00e1 67       		.byte	0x67
 366 00e2 0C010000 		.4byte	0x10c
 367 00e6 04       		.byte	0x4
 368 00e7 0A       		.uleb128 0xa
 369 00e8 EA000000 		.4byte	.LASF18
 370 00ec 05       		.byte	0x5
 371 00ed 69       		.byte	0x69
 372 00ee 88000000 		.4byte	0x88
 373 00f2 08       		.byte	0x8
 374 00f3 0A       		.uleb128 0xa
 375 00f4 2F010000 		.4byte	.LASF19
 376 00f8 05       		.byte	0x5
 377 00f9 6A       		.byte	0x6a
 378 00fa 9C000000 		.4byte	0x9c
 379 00fe 0C       		.byte	0xc
 380 00ff 0A       		.uleb128 0xa
 381 0100 4E010000 		.4byte	.LASF20
 382 0104 05       		.byte	0x5
 383 0105 6C       		.byte	0x6c
ARM GAS  /tmp/cchASicq.s 			page 8


 384 0106 93000000 		.4byte	0x93
 385 010a 10       		.byte	0x10
 386 010b 00       		.byte	0
 387 010c 06       		.uleb128 0x6
 388 010d 04       		.byte	0x4
 389 010e B8000000 		.4byte	0xb8
 390 0112 0B       		.uleb128 0xb
 391 0113 10       		.byte	0x10
 392 0114 05       		.byte	0x5
 393 0115 76       		.byte	0x76
 394 0116 4B010000 		.4byte	0x14b
 395 011a 0A       		.uleb128 0xa
 396 011b A5020000 		.4byte	.LASF16
 397 011f 05       		.byte	0x5
 398 0120 77       		.byte	0x77
 399 0121 0C010000 		.4byte	0x10c
 400 0125 00       		.byte	0
 401 0126 0A       		.uleb128 0xa
 402 0127 5F010000 		.4byte	.LASF17
 403 012b 05       		.byte	0x5
 404 012c 79       		.byte	0x79
 405 012d 0C010000 		.4byte	0x10c
 406 0131 04       		.byte	0x4
 407 0132 0A       		.uleb128 0xa
 408 0133 EA000000 		.4byte	.LASF18
 409 0137 05       		.byte	0x5
 410 0138 7B       		.byte	0x7b
 411 0139 88000000 		.4byte	0x88
 412 013d 08       		.byte	0x8
 413 013e 0A       		.uleb128 0xa
 414 013f FB000000 		.4byte	.LASF21
 415 0143 05       		.byte	0x5
 416 0144 7C       		.byte	0x7c
 417 0145 4B010000 		.4byte	0x14b
 418 0149 0C       		.byte	0xc
 419 014a 00       		.byte	0
 420 014b 0C       		.uleb128 0xc
 421 014c 88000000 		.4byte	0x88
 422 0150 04       		.uleb128 0x4
 423 0151 9E020000 		.4byte	.LASF22
 424 0155 05       		.byte	0x5
 425 0156 7D       		.byte	0x7d
 426 0157 12010000 		.4byte	0x112
 427 015b 06       		.uleb128 0x6
 428 015c 04       		.byte	0x4
 429 015d 61010000 		.4byte	0x161
 430 0161 0D       		.uleb128 0xd
 431 0162 66010000 		.4byte	0x166
 432 0166 03       		.uleb128 0x3
 433 0167 01       		.byte	0x1
 434 0168 08       		.byte	0x8
 435 0169 3E010000 		.4byte	.LASF23
 436 016d 0E       		.uleb128 0xe
 437 016e 5C000000 		.4byte	.LASF31
 438 0172 01       		.byte	0x1
 439 0173 32       		.byte	0x32
 440 0174 00000000 		.4byte	.LFB0
ARM GAS  /tmp/cchASicq.s 			page 9


 441 0178 18000000 		.4byte	.LFE0-.LFB0
 442 017c 01       		.uleb128 0x1
 443 017d 9C       		.byte	0x9c
 444 017e 0F       		.uleb128 0xf
 445 017f 00000000 		.4byte	.LASF26
 446 0183 01       		.byte	0x1
 447 0184 4C       		.byte	0x4c
 448 0185 00000000 		.4byte	.LFB1
 449 0189 50000000 		.4byte	.LFE1-.LFB1
 450 018d 01       		.uleb128 0x1
 451 018e 9C       		.byte	0x9c
 452 018f F0010000 		.4byte	0x1f0
 453 0193 10       		.uleb128 0x10
 454 0194 76747000 		.ascii	"vtp\000"
 455 0198 01       		.byte	0x1
 456 0199 4C       		.byte	0x4c
 457 019a 0C010000 		.4byte	0x10c
 458 019e 00000000 		.4byte	.LLST0
 459 01a2 11       		.uleb128 0x11
 460 01a3 E5000000 		.4byte	.LASF24
 461 01a7 01       		.byte	0x1
 462 01a8 4C       		.byte	0x4c
 463 01a9 88000000 		.4byte	0x88
 464 01ad 34000000 		.4byte	.LLST1
 465 01b1 11       		.uleb128 0x11
 466 01b2 37010000 		.4byte	.LASF25
 467 01b6 01       		.byte	0x1
 468 01b7 4C       		.byte	0x4c
 469 01b8 9C000000 		.4byte	0x9c
 470 01bc 74000000 		.4byte	.LLST2
 471 01c0 10       		.uleb128 0x10
 472 01c1 70617200 		.ascii	"par\000"
 473 01c5 01       		.byte	0x1
 474 01c6 4C       		.byte	0x4c
 475 01c7 93000000 		.4byte	0x93
 476 01cb A8000000 		.4byte	.LLST3
 477 01cf 12       		.uleb128 0x12
 478 01d0 7000     		.ascii	"p\000"
 479 01d2 01       		.byte	0x1
 480 01d3 4D       		.byte	0x4d
 481 01d4 0C010000 		.4byte	0x10c
 482 01d8 DC000000 		.4byte	.LLST4
 483 01dc 13       		.uleb128 0x13
 484 01dd 46000000 		.4byte	.LVL9
 485 01e1 50020000 		.4byte	0x250
 486 01e5 14       		.uleb128 0x14
 487 01e6 01       		.uleb128 0x1
 488 01e7 50       		.byte	0x50
 489 01e8 05       		.uleb128 0x5
 490 01e9 03       		.byte	0x3
 491 01ea 00000000 		.4byte	.LC0
 492 01ee 00       		.byte	0
 493 01ef 00       		.byte	0
 494 01f0 0F       		.uleb128 0xf
 495 01f1 AD020000 		.4byte	.LASF27
 496 01f5 01       		.byte	0x1
 497 01f6 6A       		.byte	0x6a
ARM GAS  /tmp/cchASicq.s 			page 10


 498 01f7 00000000 		.4byte	.LFB2
 499 01fb 44000000 		.4byte	.LFE2-.LFB2
 500 01ff 01       		.uleb128 0x1
 501 0200 9C       		.byte	0x9c
 502 0201 3F020000 		.4byte	0x23f
 503 0205 10       		.uleb128 0x10
 504 0206 76747000 		.ascii	"vtp\000"
 505 020a 01       		.byte	0x1
 506 020b 6A       		.byte	0x6a
 507 020c 0C010000 		.4byte	0x10c
 508 0210 FA000000 		.4byte	.LLST5
 509 0214 15       		.uleb128 0x15
 510 0215 2E000000 		.4byte	.LVL14
 511 0219 50020000 		.4byte	0x250
 512 021d 2B020000 		.4byte	0x22b
 513 0221 14       		.uleb128 0x14
 514 0222 01       		.uleb128 0x1
 515 0223 50       		.byte	0x50
 516 0224 05       		.uleb128 0x5
 517 0225 03       		.byte	0x3
 518 0226 10000000 		.4byte	.LC1
 519 022a 00       		.byte	0
 520 022b 13       		.uleb128 0x13
 521 022c 36000000 		.4byte	.LVL15
 522 0230 50020000 		.4byte	0x250
 523 0234 14       		.uleb128 0x14
 524 0235 01       		.uleb128 0x1
 525 0236 50       		.byte	0x50
 526 0237 05       		.uleb128 0x5
 527 0238 03       		.byte	0x3
 528 0239 20000000 		.4byte	.LC2
 529 023d 00       		.byte	0
 530 023e 00       		.byte	0
 531 023f 16       		.uleb128 0x16
 532 0240 DE000000 		.4byte	.LASF32
 533 0244 01       		.byte	0x1
 534 0245 2A       		.byte	0x2a
 535 0246 50010000 		.4byte	0x150
 536 024a 05       		.uleb128 0x5
 537 024b 03       		.byte	0x3
 538 024c 00000000 		.4byte	vtlist
 539 0250 17       		.uleb128 0x17
 540 0251 43010000 		.4byte	.LASF33
 541 0255 06       		.byte	0x6
 542 0256 F6       		.byte	0xf6
 543 0257 08       		.uleb128 0x8
 544 0258 5B010000 		.4byte	0x15b
 545 025c 00       		.byte	0
 546 025d 00       		.byte	0
 547              		.section	.debug_abbrev,"",%progbits
 548              	.Ldebug_abbrev0:
 549 0000 01       		.uleb128 0x1
 550 0001 11       		.uleb128 0x11
 551 0002 01       		.byte	0x1
 552 0003 25       		.uleb128 0x25
 553 0004 0E       		.uleb128 0xe
 554 0005 13       		.uleb128 0x13
ARM GAS  /tmp/cchASicq.s 			page 11


 555 0006 0B       		.uleb128 0xb
 556 0007 03       		.uleb128 0x3
 557 0008 0E       		.uleb128 0xe
 558 0009 1B       		.uleb128 0x1b
 559 000a 0E       		.uleb128 0xe
 560 000b 55       		.uleb128 0x55
 561 000c 17       		.uleb128 0x17
 562 000d 11       		.uleb128 0x11
 563 000e 01       		.uleb128 0x1
 564 000f 10       		.uleb128 0x10
 565 0010 17       		.uleb128 0x17
 566 0011 00       		.byte	0
 567 0012 00       		.byte	0
 568 0013 02       		.uleb128 0x2
 569 0014 24       		.uleb128 0x24
 570 0015 00       		.byte	0
 571 0016 0B       		.uleb128 0xb
 572 0017 0B       		.uleb128 0xb
 573 0018 3E       		.uleb128 0x3e
 574 0019 0B       		.uleb128 0xb
 575 001a 03       		.uleb128 0x3
 576 001b 08       		.uleb128 0x8
 577 001c 00       		.byte	0
 578 001d 00       		.byte	0
 579 001e 03       		.uleb128 0x3
 580 001f 24       		.uleb128 0x24
 581 0020 00       		.byte	0
 582 0021 0B       		.uleb128 0xb
 583 0022 0B       		.uleb128 0xb
 584 0023 3E       		.uleb128 0x3e
 585 0024 0B       		.uleb128 0xb
 586 0025 03       		.uleb128 0x3
 587 0026 0E       		.uleb128 0xe
 588 0027 00       		.byte	0
 589 0028 00       		.byte	0
 590 0029 04       		.uleb128 0x4
 591 002a 16       		.uleb128 0x16
 592 002b 00       		.byte	0
 593 002c 03       		.uleb128 0x3
 594 002d 0E       		.uleb128 0xe
 595 002e 3A       		.uleb128 0x3a
 596 002f 0B       		.uleb128 0xb
 597 0030 3B       		.uleb128 0x3b
 598 0031 0B       		.uleb128 0xb
 599 0032 49       		.uleb128 0x49
 600 0033 13       		.uleb128 0x13
 601 0034 00       		.byte	0
 602 0035 00       		.byte	0
 603 0036 05       		.uleb128 0x5
 604 0037 0F       		.uleb128 0xf
 605 0038 00       		.byte	0
 606 0039 0B       		.uleb128 0xb
 607 003a 0B       		.uleb128 0xb
 608 003b 00       		.byte	0
 609 003c 00       		.byte	0
 610 003d 06       		.uleb128 0x6
 611 003e 0F       		.uleb128 0xf
ARM GAS  /tmp/cchASicq.s 			page 12


 612 003f 00       		.byte	0
 613 0040 0B       		.uleb128 0xb
 614 0041 0B       		.uleb128 0xb
 615 0042 49       		.uleb128 0x49
 616 0043 13       		.uleb128 0x13
 617 0044 00       		.byte	0
 618 0045 00       		.byte	0
 619 0046 07       		.uleb128 0x7
 620 0047 15       		.uleb128 0x15
 621 0048 01       		.byte	0x1
 622 0049 27       		.uleb128 0x27
 623 004a 19       		.uleb128 0x19
 624 004b 01       		.uleb128 0x1
 625 004c 13       		.uleb128 0x13
 626 004d 00       		.byte	0
 627 004e 00       		.byte	0
 628 004f 08       		.uleb128 0x8
 629 0050 05       		.uleb128 0x5
 630 0051 00       		.byte	0
 631 0052 49       		.uleb128 0x49
 632 0053 13       		.uleb128 0x13
 633 0054 00       		.byte	0
 634 0055 00       		.byte	0
 635 0056 09       		.uleb128 0x9
 636 0057 13       		.uleb128 0x13
 637 0058 01       		.byte	0x1
 638 0059 03       		.uleb128 0x3
 639 005a 0E       		.uleb128 0xe
 640 005b 0B       		.uleb128 0xb
 641 005c 0B       		.uleb128 0xb
 642 005d 3A       		.uleb128 0x3a
 643 005e 0B       		.uleb128 0xb
 644 005f 3B       		.uleb128 0x3b
 645 0060 0B       		.uleb128 0xb
 646 0061 01       		.uleb128 0x1
 647 0062 13       		.uleb128 0x13
 648 0063 00       		.byte	0
 649 0064 00       		.byte	0
 650 0065 0A       		.uleb128 0xa
 651 0066 0D       		.uleb128 0xd
 652 0067 00       		.byte	0
 653 0068 03       		.uleb128 0x3
 654 0069 0E       		.uleb128 0xe
 655 006a 3A       		.uleb128 0x3a
 656 006b 0B       		.uleb128 0xb
 657 006c 3B       		.uleb128 0x3b
 658 006d 0B       		.uleb128 0xb
 659 006e 49       		.uleb128 0x49
 660 006f 13       		.uleb128 0x13
 661 0070 38       		.uleb128 0x38
 662 0071 0B       		.uleb128 0xb
 663 0072 00       		.byte	0
 664 0073 00       		.byte	0
 665 0074 0B       		.uleb128 0xb
 666 0075 13       		.uleb128 0x13
 667 0076 01       		.byte	0x1
 668 0077 0B       		.uleb128 0xb
ARM GAS  /tmp/cchASicq.s 			page 13


 669 0078 0B       		.uleb128 0xb
 670 0079 3A       		.uleb128 0x3a
 671 007a 0B       		.uleb128 0xb
 672 007b 3B       		.uleb128 0x3b
 673 007c 0B       		.uleb128 0xb
 674 007d 01       		.uleb128 0x1
 675 007e 13       		.uleb128 0x13
 676 007f 00       		.byte	0
 677 0080 00       		.byte	0
 678 0081 0C       		.uleb128 0xc
 679 0082 35       		.uleb128 0x35
 680 0083 00       		.byte	0
 681 0084 49       		.uleb128 0x49
 682 0085 13       		.uleb128 0x13
 683 0086 00       		.byte	0
 684 0087 00       		.byte	0
 685 0088 0D       		.uleb128 0xd
 686 0089 26       		.uleb128 0x26
 687 008a 00       		.byte	0
 688 008b 49       		.uleb128 0x49
 689 008c 13       		.uleb128 0x13
 690 008d 00       		.byte	0
 691 008e 00       		.byte	0
 692 008f 0E       		.uleb128 0xe
 693 0090 2E       		.uleb128 0x2e
 694 0091 00       		.byte	0
 695 0092 3F       		.uleb128 0x3f
 696 0093 19       		.uleb128 0x19
 697 0094 03       		.uleb128 0x3
 698 0095 0E       		.uleb128 0xe
 699 0096 3A       		.uleb128 0x3a
 700 0097 0B       		.uleb128 0xb
 701 0098 3B       		.uleb128 0x3b
 702 0099 0B       		.uleb128 0xb
 703 009a 27       		.uleb128 0x27
 704 009b 19       		.uleb128 0x19
 705 009c 11       		.uleb128 0x11
 706 009d 01       		.uleb128 0x1
 707 009e 12       		.uleb128 0x12
 708 009f 06       		.uleb128 0x6
 709 00a0 40       		.uleb128 0x40
 710 00a1 18       		.uleb128 0x18
 711 00a2 9742     		.uleb128 0x2117
 712 00a4 19       		.uleb128 0x19
 713 00a5 00       		.byte	0
 714 00a6 00       		.byte	0
 715 00a7 0F       		.uleb128 0xf
 716 00a8 2E       		.uleb128 0x2e
 717 00a9 01       		.byte	0x1
 718 00aa 3F       		.uleb128 0x3f
 719 00ab 19       		.uleb128 0x19
 720 00ac 03       		.uleb128 0x3
 721 00ad 0E       		.uleb128 0xe
 722 00ae 3A       		.uleb128 0x3a
 723 00af 0B       		.uleb128 0xb
 724 00b0 3B       		.uleb128 0x3b
 725 00b1 0B       		.uleb128 0xb
ARM GAS  /tmp/cchASicq.s 			page 14


 726 00b2 27       		.uleb128 0x27
 727 00b3 19       		.uleb128 0x19
 728 00b4 11       		.uleb128 0x11
 729 00b5 01       		.uleb128 0x1
 730 00b6 12       		.uleb128 0x12
 731 00b7 06       		.uleb128 0x6
 732 00b8 40       		.uleb128 0x40
 733 00b9 18       		.uleb128 0x18
 734 00ba 9742     		.uleb128 0x2117
 735 00bc 19       		.uleb128 0x19
 736 00bd 01       		.uleb128 0x1
 737 00be 13       		.uleb128 0x13
 738 00bf 00       		.byte	0
 739 00c0 00       		.byte	0
 740 00c1 10       		.uleb128 0x10
 741 00c2 05       		.uleb128 0x5
 742 00c3 00       		.byte	0
 743 00c4 03       		.uleb128 0x3
 744 00c5 08       		.uleb128 0x8
 745 00c6 3A       		.uleb128 0x3a
 746 00c7 0B       		.uleb128 0xb
 747 00c8 3B       		.uleb128 0x3b
 748 00c9 0B       		.uleb128 0xb
 749 00ca 49       		.uleb128 0x49
 750 00cb 13       		.uleb128 0x13
 751 00cc 02       		.uleb128 0x2
 752 00cd 17       		.uleb128 0x17
 753 00ce 00       		.byte	0
 754 00cf 00       		.byte	0
 755 00d0 11       		.uleb128 0x11
 756 00d1 05       		.uleb128 0x5
 757 00d2 00       		.byte	0
 758 00d3 03       		.uleb128 0x3
 759 00d4 0E       		.uleb128 0xe
 760 00d5 3A       		.uleb128 0x3a
 761 00d6 0B       		.uleb128 0xb
 762 00d7 3B       		.uleb128 0x3b
 763 00d8 0B       		.uleb128 0xb
 764 00d9 49       		.uleb128 0x49
 765 00da 13       		.uleb128 0x13
 766 00db 02       		.uleb128 0x2
 767 00dc 17       		.uleb128 0x17
 768 00dd 00       		.byte	0
 769 00de 00       		.byte	0
 770 00df 12       		.uleb128 0x12
 771 00e0 34       		.uleb128 0x34
 772 00e1 00       		.byte	0
 773 00e2 03       		.uleb128 0x3
 774 00e3 08       		.uleb128 0x8
 775 00e4 3A       		.uleb128 0x3a
 776 00e5 0B       		.uleb128 0xb
 777 00e6 3B       		.uleb128 0x3b
 778 00e7 0B       		.uleb128 0xb
 779 00e8 49       		.uleb128 0x49
 780 00e9 13       		.uleb128 0x13
 781 00ea 02       		.uleb128 0x2
 782 00eb 17       		.uleb128 0x17
ARM GAS  /tmp/cchASicq.s 			page 15


 783 00ec 00       		.byte	0
 784 00ed 00       		.byte	0
 785 00ee 13       		.uleb128 0x13
 786 00ef 898201   		.uleb128 0x4109
 787 00f2 01       		.byte	0x1
 788 00f3 11       		.uleb128 0x11
 789 00f4 01       		.uleb128 0x1
 790 00f5 31       		.uleb128 0x31
 791 00f6 13       		.uleb128 0x13
 792 00f7 00       		.byte	0
 793 00f8 00       		.byte	0
 794 00f9 14       		.uleb128 0x14
 795 00fa 8A8201   		.uleb128 0x410a
 796 00fd 00       		.byte	0
 797 00fe 02       		.uleb128 0x2
 798 00ff 18       		.uleb128 0x18
 799 0100 9142     		.uleb128 0x2111
 800 0102 18       		.uleb128 0x18
 801 0103 00       		.byte	0
 802 0104 00       		.byte	0
 803 0105 15       		.uleb128 0x15
 804 0106 898201   		.uleb128 0x4109
 805 0109 01       		.byte	0x1
 806 010a 11       		.uleb128 0x11
 807 010b 01       		.uleb128 0x1
 808 010c 31       		.uleb128 0x31
 809 010d 13       		.uleb128 0x13
 810 010e 01       		.uleb128 0x1
 811 010f 13       		.uleb128 0x13
 812 0110 00       		.byte	0
 813 0111 00       		.byte	0
 814 0112 16       		.uleb128 0x16
 815 0113 34       		.uleb128 0x34
 816 0114 00       		.byte	0
 817 0115 03       		.uleb128 0x3
 818 0116 0E       		.uleb128 0xe
 819 0117 3A       		.uleb128 0x3a
 820 0118 0B       		.uleb128 0xb
 821 0119 3B       		.uleb128 0x3b
 822 011a 0B       		.uleb128 0xb
 823 011b 49       		.uleb128 0x49
 824 011c 13       		.uleb128 0x13
 825 011d 3F       		.uleb128 0x3f
 826 011e 19       		.uleb128 0x19
 827 011f 02       		.uleb128 0x2
 828 0120 18       		.uleb128 0x18
 829 0121 00       		.byte	0
 830 0122 00       		.byte	0
 831 0123 17       		.uleb128 0x17
 832 0124 2E       		.uleb128 0x2e
 833 0125 01       		.byte	0x1
 834 0126 3F       		.uleb128 0x3f
 835 0127 19       		.uleb128 0x19
 836 0128 03       		.uleb128 0x3
 837 0129 0E       		.uleb128 0xe
 838 012a 3A       		.uleb128 0x3a
 839 012b 0B       		.uleb128 0xb
ARM GAS  /tmp/cchASicq.s 			page 16


 840 012c 3B       		.uleb128 0x3b
 841 012d 0B       		.uleb128 0xb
 842 012e 27       		.uleb128 0x27
 843 012f 19       		.uleb128 0x19
 844 0130 3C       		.uleb128 0x3c
 845 0131 19       		.uleb128 0x19
 846 0132 00       		.byte	0
 847 0133 00       		.byte	0
 848 0134 00       		.byte	0
 849              		.section	.debug_loc,"",%progbits
 850              	.Ldebug_loc0:
 851              	.LLST0:
 852 0000 00000000 		.4byte	.LVL0
 853 0004 10000000 		.4byte	.LVL1
 854 0008 0100     		.2byte	0x1
 855 000a 50       		.byte	0x50
 856 000b 10000000 		.4byte	.LVL1
 857 000f 40000000 		.4byte	.LVL7
 858 0013 0100     		.2byte	0x1
 859 0015 55       		.byte	0x55
 860 0016 40000000 		.4byte	.LVL7
 861 001a 42000000 		.4byte	.LVL8
 862 001e 0100     		.2byte	0x1
 863 0020 50       		.byte	0x50
 864 0021 42000000 		.4byte	.LVL8
 865 0025 50000000 		.4byte	.LFE1
 866 0029 0100     		.2byte	0x1
 867 002b 55       		.byte	0x55
 868 002c 00000000 		.4byte	0
 869 0030 00000000 		.4byte	0
 870              	.LLST1:
 871 0034 00000000 		.4byte	.LVL0
 872 0038 10000000 		.4byte	.LVL1
 873 003c 0100     		.2byte	0x1
 874 003e 51       		.byte	0x51
 875 003f 10000000 		.4byte	.LVL1
 876 0043 3C000000 		.4byte	.LVL5
 877 0047 0100     		.2byte	0x1
 878 0049 54       		.byte	0x54
 879 004a 3C000000 		.4byte	.LVL5
 880 004e 3E000000 		.4byte	.LVL6
 881 0052 0200     		.2byte	0x2
 882 0054 75       		.byte	0x75
 883 0055 08       		.sleb128 8
 884 0056 40000000 		.4byte	.LVL7
 885 005a 45000000 		.4byte	.LVL9-1
 886 005e 0100     		.2byte	0x1
 887 0060 51       		.byte	0x51
 888 0061 45000000 		.4byte	.LVL9-1
 889 0065 50000000 		.4byte	.LFE1
 890 0069 0100     		.2byte	0x1
 891 006b 54       		.byte	0x54
 892 006c 00000000 		.4byte	0
 893 0070 00000000 		.4byte	0
 894              	.LLST2:
 895 0074 00000000 		.4byte	.LVL0
 896 0078 10000000 		.4byte	.LVL1
ARM GAS  /tmp/cchASicq.s 			page 17


 897 007c 0100     		.2byte	0x1
 898 007e 52       		.byte	0x52
 899 007f 10000000 		.4byte	.LVL1
 900 0083 40000000 		.4byte	.LVL7
 901 0087 0100     		.2byte	0x1
 902 0089 56       		.byte	0x56
 903 008a 40000000 		.4byte	.LVL7
 904 008e 45000000 		.4byte	.LVL9-1
 905 0092 0100     		.2byte	0x1
 906 0094 52       		.byte	0x52
 907 0095 45000000 		.4byte	.LVL9-1
 908 0099 50000000 		.4byte	.LFE1
 909 009d 0100     		.2byte	0x1
 910 009f 56       		.byte	0x56
 911 00a0 00000000 		.4byte	0
 912 00a4 00000000 		.4byte	0
 913              	.LLST3:
 914 00a8 00000000 		.4byte	.LVL0
 915 00ac 10000000 		.4byte	.LVL1
 916 00b0 0100     		.2byte	0x1
 917 00b2 53       		.byte	0x53
 918 00b3 10000000 		.4byte	.LVL1
 919 00b7 40000000 		.4byte	.LVL7
 920 00bb 0100     		.2byte	0x1
 921 00bd 57       		.byte	0x57
 922 00be 40000000 		.4byte	.LVL7
 923 00c2 45000000 		.4byte	.LVL9-1
 924 00c6 0100     		.2byte	0x1
 925 00c8 53       		.byte	0x53
 926 00c9 45000000 		.4byte	.LVL9-1
 927 00cd 50000000 		.4byte	.LFE1
 928 00d1 0100     		.2byte	0x1
 929 00d3 57       		.byte	0x57
 930 00d4 00000000 		.4byte	0
 931 00d8 00000000 		.4byte	0
 932              	.LLST4:
 933 00dc 16000000 		.4byte	.LVL2
 934 00e0 20000000 		.4byte	.LVL3
 935 00e4 0100     		.2byte	0x1
 936 00e6 53       		.byte	0x53
 937 00e7 22000000 		.4byte	.LVL4
 938 00eb 40000000 		.4byte	.LVL7
 939 00ef 0100     		.2byte	0x1
 940 00f1 53       		.byte	0x53
 941 00f2 00000000 		.4byte	0
 942 00f6 00000000 		.4byte	0
 943              	.LLST5:
 944 00fa 00000000 		.4byte	.LVL10
 945 00fe 06000000 		.4byte	.LVL11
 946 0102 0100     		.2byte	0x1
 947 0104 50       		.byte	0x50
 948 0105 06000000 		.4byte	.LVL11
 949 0109 28000000 		.4byte	.LVL12
 950 010d 0100     		.2byte	0x1
 951 010f 54       		.byte	0x54
 952 0110 28000000 		.4byte	.LVL12
 953 0114 2A000000 		.4byte	.LVL13
ARM GAS  /tmp/cchASicq.s 			page 18


 954 0118 0100     		.2byte	0x1
 955 011a 50       		.byte	0x50
 956 011b 2A000000 		.4byte	.LVL13
 957 011f 44000000 		.4byte	.LFE2
 958 0123 0100     		.2byte	0x1
 959 0125 54       		.byte	0x54
 960 0126 00000000 		.4byte	0
 961 012a 00000000 		.4byte	0
 962              		.section	.debug_aranges,"",%progbits
 963 0000 2C000000 		.4byte	0x2c
 964 0004 0200     		.2byte	0x2
 965 0006 00000000 		.4byte	.Ldebug_info0
 966 000a 04       		.byte	0x4
 967 000b 00       		.byte	0
 968 000c 0000     		.2byte	0
 969 000e 0000     		.2byte	0
 970 0010 00000000 		.4byte	.LFB0
 971 0014 18000000 		.4byte	.LFE0-.LFB0
 972 0018 00000000 		.4byte	.LFB1
 973 001c 50000000 		.4byte	.LFE1-.LFB1
 974 0020 00000000 		.4byte	.LFB2
 975 0024 44000000 		.4byte	.LFE2-.LFB2
 976 0028 00000000 		.4byte	0
 977 002c 00000000 		.4byte	0
 978              		.section	.debug_ranges,"",%progbits
 979              	.Ldebug_ranges0:
 980 0000 00000000 		.4byte	.LFB0
 981 0004 18000000 		.4byte	.LFE0
 982 0008 00000000 		.4byte	.LFB1
 983 000c 50000000 		.4byte	.LFE1
 984 0010 00000000 		.4byte	.LFB2
 985 0014 44000000 		.4byte	.LFE2
 986 0018 00000000 		.4byte	0
 987 001c 00000000 		.4byte	0
 988              		.section	.debug_line,"",%progbits
 989              	.Ldebug_line0:
 990 0000 62010000 		.section	.debug_str,"MS",%progbits,1
 990      0200ED00 
 990      00000201 
 990      FB0E0D00 
 990      01010101 
 991              	.LASF26:
 992 0000 63685654 		.ascii	"chVTSetI\000"
 992      53657449 
 992      00
 993              	.LASF12:
 994 0009 73797374 		.ascii	"systime_t\000"
 994      696D655F 
 994      7400
 995              	.LASF14:
 996 0013 76746675 		.ascii	"vtfunc_t\000"
 996      6E635F74 
 996      00
 997              	.LASF6:
 998 001c 6C6F6E67 		.ascii	"long unsigned int\000"
 998      20756E73 
 998      69676E65 
ARM GAS  /tmp/cchASicq.s 			page 19


 998      6420696E 
 998      7400
 999              	.LASF4:
 1000 002e 73686F72 		.ascii	"short unsigned int\000"
 1000      7420756E 
 1000      7369676E 
 1000      65642069 
 1000      6E7400
 1001              	.LASF15:
 1002 0041 56697274 		.ascii	"VirtualTimer\000"
 1002      75616C54 
 1002      696D6572 
 1002      00
 1003              	.LASF2:
 1004 004e 756E7369 		.ascii	"unsigned char\000"
 1004      676E6564 
 1004      20636861 
 1004      7200
 1005              	.LASF31:
 1006 005c 5F76745F 		.ascii	"_vt_init\000"
 1006      696E6974 
 1006      00
 1007              	.LASF9:
 1008 0065 5F5F7569 		.ascii	"__uint32_t\000"
 1008      6E743332 
 1008      5F7400
 1009              	.LASF30:
 1010 0070 2F686F6D 		.ascii	"/home/makkmarci/devel/ChibiOS_2.6.5/projects/STM32F"
 1010      652F6D61 
 1010      6B6B6D61 
 1010      7263692F 
 1010      64657665 
 1011 00a3 345F4368 		.ascii	"4_ChibiOS_uGFX_gwin_2/\000"
 1011      6962694F 
 1011      535F7547 
 1011      46585F67 
 1011      77696E5F 
 1012              	.LASF0:
 1013 00ba 756E7369 		.ascii	"unsigned int\000"
 1013      676E6564 
 1013      20696E74 
 1013      00
 1014              	.LASF8:
 1015 00c7 6C6F6E67 		.ascii	"long long unsigned int\000"
 1015      206C6F6E 
 1015      6720756E 
 1015      7369676E 
 1015      65642069 
 1016              	.LASF32:
 1017 00de 76746C69 		.ascii	"vtlist\000"
 1017      737400
 1018              	.LASF24:
 1019 00e5 74696D65 		.ascii	"time\000"
 1019      00
 1020              	.LASF18:
 1021 00ea 76745F74 		.ascii	"vt_time\000"
 1021      696D6500 
ARM GAS  /tmp/cchASicq.s 			page 20


 1022              	.LASF13:
 1023 00f2 73697A65 		.ascii	"sizetype\000"
 1023      74797065 
 1023      00
 1024              	.LASF21:
 1025 00fb 76745F73 		.ascii	"vt_systime\000"
 1025      79737469 
 1025      6D6500
 1026              	.LASF29:
 1027 0106 2E2E2F2E 		.ascii	"../../os/kernel/src/chvt.c\000"
 1027      2E2F6F73 
 1027      2F6B6572 
 1027      6E656C2F 
 1027      7372632F 
 1028              	.LASF7:
 1029 0121 6C6F6E67 		.ascii	"long long int\000"
 1029      206C6F6E 
 1029      6720696E 
 1029      7400
 1030              	.LASF19:
 1031 012f 76745F66 		.ascii	"vt_func\000"
 1031      756E6300 
 1032              	.LASF25:
 1033 0137 76746675 		.ascii	"vtfunc\000"
 1033      6E6300
 1034              	.LASF23:
 1035 013e 63686172 		.ascii	"char\000"
 1035      00
 1036              	.LASF33:
 1037 0143 63684462 		.ascii	"chDbgPanic\000"
 1037      6750616E 
 1037      696300
 1038              	.LASF20:
 1039 014e 76745F70 		.ascii	"vt_par\000"
 1039      617200
 1040              	.LASF3:
 1041 0155 73686F72 		.ascii	"short int\000"
 1041      7420696E 
 1041      7400
 1042              	.LASF17:
 1043 015f 76745F70 		.ascii	"vt_prev\000"
 1043      72657600 
 1044              	.LASF10:
 1045 0167 75696E74 		.ascii	"uint32_t\000"
 1045      33325F74 
 1045      00
 1046              	.LASF5:
 1047 0170 6C6F6E67 		.ascii	"long int\000"
 1047      20696E74 
 1047      00
 1048              	.LASF1:
 1049 0179 7369676E 		.ascii	"signed char\000"
 1049      65642063 
 1049      68617200 
 1050              	.LASF28:
 1051 0185 474E5520 		.ascii	"GNU C 4.8.4 20140526 (release) [ARM/embedded-4_8-br"
 1051      4320342E 
ARM GAS  /tmp/cchASicq.s 			page 21


 1051      382E3420 
 1051      32303134 
 1051      30353236 
 1052 01b8 616E6368 		.ascii	"anch revision 211358] -mcpu=cortex-m4 -mfloat-abi=h"
 1052      20726576 
 1052      6973696F 
 1052      6E203231 
 1052      31333538 
 1053 01eb 61726420 		.ascii	"ard -mfpu=fpv4-sp-d16 -mno-thumb-interwork -mthumb "
 1053      2D6D6670 
 1053      753D6670 
 1053      76342D73 
 1053      702D6431 
 1054 021e 2D676764 		.ascii	"-ggdb -O2 -fomit-frame-pointer -falign-functions=16"
 1054      62202D4F 
 1054      32202D66 
 1054      6F6D6974 
 1054      2D667261 
 1055 0251 202D6666 		.ascii	" -ffunction-sections -fdata-sections -fno-common -f"
 1055      756E6374 
 1055      696F6E2D 
 1055      73656374 
 1055      696F6E73 
 1056 0284 73696E67 		.ascii	"single-precision-constant\000"
 1056      6C652D70 
 1056      72656369 
 1056      73696F6E 
 1056      2D636F6E 
 1057              	.LASF22:
 1058 029e 56544C69 		.ascii	"VTList\000"
 1058      737400
 1059              	.LASF16:
 1060 02a5 76745F6E 		.ascii	"vt_next\000"
 1060      65787400 
 1061              	.LASF27:
 1062 02ad 63685654 		.ascii	"chVTResetI\000"
 1062      52657365 
 1062      744900
 1063              	.LASF11:
 1064 02b8 5F426F6F 		.ascii	"_Bool\000"
 1064      6C00
 1065              		.ident	"GCC: (GNU Tools for ARM Embedded Processors) 4.8.4 20140526 (release) [ARM/embedded-4_8-br
ARM GAS  /tmp/cchASicq.s 			page 22


DEFINED SYMBOLS
                            *ABS*:00000000 chvt.c
     /tmp/cchASicq.s:21     .text._vt_init:00000000 $t
     /tmp/cchASicq.s:27     .text._vt_init:00000000 _vt_init
     /tmp/cchASicq.s:52     .text._vt_init:00000014 $d
     /tmp/cchASicq.s:57     .text.chVTSetI:00000000 $t
     /tmp/cchASicq.s:63     .text.chVTSetI:00000000 chVTSetI
     /tmp/cchASicq.s:150    .text.chVTSetI:00000048 $d
     /tmp/cchASicq.s:156    .text.chVTResetI:00000000 $t
     /tmp/cchASicq.s:162    .text.chVTResetI:00000000 chVTResetI
     /tmp/cchASicq.s:222    .text.chVTResetI:00000038 $d
     /tmp/cchASicq.s:234    .bss.vtlist:00000000 vtlist
     /tmp/cchASicq.s:230    .bss.vtlist:00000000 $d
     /tmp/cchASicq.s:237    .rodata.str1.4:00000000 $d
                     .debug_frame:00000010 $d
     /tmp/cchASicq.s:56     .text._vt_init:00000018 $t
     /tmp/cchASicq.s:229    .text.chVTResetI:00000044 $t

UNDEFINED SYMBOLS
chDbgPanic
