ARM GAS  /tmp/cchASicq.s 			page 1


   1              		.syntax unified
   2              		.cpu cortex-m4
   3              		.eabi_attribute 27, 3
   4              		.eabi_attribute 28, 1
   5              		.fpu fpv4-sp-d16
   6              		.eabi_attribute 20, 1
   7              		.eabi_attribute 21, 1
   8              		.eabi_attribute 23, 3
   9              		.eabi_attribute 24, 1
  10              		.eabi_attribute 25, 1
  11              		.eabi_attribute 26, 1
  12              		.eabi_attribute 30, 2
  13              		.eabi_attribute 34, 1
  14              		.eabi_attribute 18, 4
  15              		.thumb
  16              		.file	"chvt.c"
  17              		.text
  18              	.Ltext0:
  19              		.cfi_sections	.debug_frame
  20              		.section	.text._vt_init,"ax",%progbits
  21              		.align	2
  22              		.p2align 4,,15
  23              		.global	_vt_init
  24              		.thumb
  25              		.thumb_func
  26              		.type	_vt_init, %function
  27              	_vt_init:
  28              	.LFB0:
  29              		.file 1 "../../os/kernel/src/chvt.c"
  30              		.loc 1 50 0
  31              		.cfi_startproc
  32              		@ args = 0, pretend = 0, frame = 0
  33              		@ frame_needed = 0, uses_anonymous_args = 0
  34              		@ link register save eliminated.
  35              		.loc 1 52 0
  36 0000 044B     		ldr	r3, .L2
  37              		.loc 1 53 0
  38 0002 4FF0FF31 		mov	r1, #-1
  39              		.loc 1 54 0
  40 0006 0022     		movs	r2, #0
  41              		.loc 1 52 0
  42 0008 5B60     		str	r3, [r3, #4]
  43 000a 1B60     		str	r3, [r3]
  44              		.loc 1 53 0
  45 000c 9960     		str	r1, [r3, #8]
  46              		.loc 1 54 0
  47 000e DA60     		str	r2, [r3, #12]
  48 0010 7047     		bx	lr
  49              	.L3:
  50 0012 00BF     		.align	2
  51              	.L2:
  52 0014 00000000 		.word	.LANCHOR0
  53              		.cfi_endproc
  54              	.LFE0:
  55              		.size	_vt_init, .-_vt_init
  56 0018 AFF30080 		.section	.text.chVTSetI,"ax",%progbits
  56      AFF30080 
ARM GAS  /tmp/cchASicq.s 			page 2


  57              		.align	2
  58              		.p2align 4,,15
  59              		.global	chVTSetI
  60              		.thumb
  61              		.thumb_func
  62              		.type	chVTSetI, %function
  63              	chVTSetI:
  64              	.LFB1:
  65              		.loc 1 76 0
  66              		.cfi_startproc
  67              		@ args = 0, pretend = 0, frame = 0
  68              		@ frame_needed = 0, uses_anonymous_args = 0
  69              	.LVL0:
  70 0000 F8B5     		push	{r3, r4, r5, r6, r7, lr}
  71              		.cfi_def_cfa_offset 24
  72              		.cfi_offset 3, -24
  73              		.cfi_offset 4, -20
  74              		.cfi_offset 5, -16
  75              		.cfi_offset 6, -12
  76              		.cfi_offset 7, -8
  77              		.cfi_offset 14, -4
  78              		.loc 1 80 0
  79 0002 0546     		mov	r5, r0
  80              		.loc 1 76 0
  81 0004 0C46     		mov	r4, r1
  82 0006 1646     		mov	r6, r2
  83 0008 1F46     		mov	r7, r3
  84              		.loc 1 80 0
  85 000a C8B1     		cbz	r0, .L5
  86              		.loc 1 80 0 is_stmt 0 discriminator 2
  87 000c C2B1     		cbz	r2, .L5
  88              		.loc 1 80 0 discriminator 1
  89 000e B9B1     		cbz	r1, .L5
  90              	.LVL1:
  91              	.L6:
  92              		.loc 1 85 0 is_stmt 1
  93 0010 0D49     		ldr	r1, .L17
  94              		.loc 1 83 0
  95 0012 2F61     		str	r7, [r5, #16]
  96              		.loc 1 85 0
  97 0014 0B68     		ldr	r3, [r1]
  98              	.LVL2:
  99              		.loc 1 84 0
 100 0016 EE60     		str	r6, [r5, #12]
 101              		.loc 1 86 0
 102 0018 9A68     		ldr	r2, [r3, #8]
 103 001a 9442     		cmp	r4, r2
 104 001c 04D9     		bls	.L7
 105              	.L8:
 106              		.loc 1 88 0
 107 001e 1B68     		ldr	r3, [r3]
 108              	.LVL3:
 109              		.loc 1 87 0
 110 0020 A41A     		subs	r4, r4, r2
 111              	.LVL4:
 112              		.loc 1 86 0
 113 0022 9A68     		ldr	r2, [r3, #8]
ARM GAS  /tmp/cchASicq.s 			page 3


 114 0024 A242     		cmp	r2, r4
 115 0026 FAD3     		bcc	.L8
 116              	.L7:
 117              		.loc 1 91 0
 118 0028 5A68     		ldr	r2, [r3, #4]
 119 002a 6A60     		str	r2, [r5, #4]
 120              		.loc 1 94 0
 121 002c 8B42     		cmp	r3, r1
 122              		.loc 1 91 0
 123 002e 2B60     		str	r3, [r5]
 124              		.loc 1 92 0
 125 0030 5D60     		str	r5, [r3, #4]
 126 0032 1560     		str	r5, [r2]
 127              		.loc 1 93 0
 128 0034 AC60     		str	r4, [r5, #8]
 129              		.loc 1 94 0
 130 0036 02D0     		beq	.L4
 131              		.loc 1 95 0
 132 0038 9A68     		ldr	r2, [r3, #8]
 133 003a 141B     		subs	r4, r2, r4
 134              	.LVL5:
 135 003c 9C60     		str	r4, [r3, #8]
 136              	.LVL6:
 137              	.L4:
 138 003e F8BD     		pop	{r3, r4, r5, r6, r7, pc}
 139              	.LVL7:
 140              	.L5:
 141              		.loc 1 80 0 discriminator 1
 142 0040 0248     		ldr	r0, .L17+4
 143              	.LVL8:
 144 0042 FFF7FEFF 		bl	chDbgPanic
 145              	.LVL9:
 146 0046 E3E7     		b	.L6
 147              	.L18:
 148              		.align	2
 149              	.L17:
 150 0048 00000000 		.word	.LANCHOR0
 151 004c 00000000 		.word	.LC0
 152              		.cfi_endproc
 153              	.LFE1:
 154              		.size	chVTSetI, .-chVTSetI
 155              		.section	.text.chVTResetI,"ax",%progbits
 156              		.align	2
 157              		.p2align 4,,15
 158              		.global	chVTResetI
 159              		.thumb
 160              		.thumb_func
 161              		.type	chVTResetI, %function
 162              	chVTResetI:
 163              	.LFB2:
 164              		.loc 1 106 0
 165              		.cfi_startproc
 166              		@ args = 0, pretend = 0, frame = 0
 167              		@ frame_needed = 0, uses_anonymous_args = 0
 168              	.LVL10:
 169 0000 10B5     		push	{r4, lr}
 170              		.cfi_def_cfa_offset 8
ARM GAS  /tmp/cchASicq.s 			page 4


 171              		.cfi_offset 4, -8
 172              		.cfi_offset 14, -4
 173              		.loc 1 109 0
 174 0002 0446     		mov	r4, r0
 175 0004 80B1     		cbz	r0, .L23
 176              	.LVL11:
 177              	.L20:
 178              		.loc 1 110 0
 179 0006 E368     		ldr	r3, [r4, #12]
 180 0008 93B1     		cbz	r3, .L24
 181              	.L21:
 182              		.loc 1 114 0
 183 000a 2368     		ldr	r3, [r4]
 184 000c 0A4A     		ldr	r2, .L25
 185 000e 9342     		cmp	r3, r2
 186 0010 03D0     		beq	.L22
 187              		.loc 1 115 0
 188 0012 9968     		ldr	r1, [r3, #8]
 189 0014 A268     		ldr	r2, [r4, #8]
 190 0016 0A44     		add	r2, r2, r1
 191 0018 9A60     		str	r2, [r3, #8]
 192              	.L22:
 193              		.loc 1 116 0
 194 001a 6268     		ldr	r2, [r4, #4]
 195 001c 1360     		str	r3, [r2]
 196              		.loc 1 117 0
 197 001e 2368     		ldr	r3, [r4]
 198              		.loc 1 118 0
 199 0020 0021     		movs	r1, #0
 200              		.loc 1 117 0
 201 0022 5A60     		str	r2, [r3, #4]
 202              		.loc 1 118 0
 203 0024 E160     		str	r1, [r4, #12]
 204 0026 10BD     		pop	{r4, pc}
 205              	.LVL12:
 206              	.L23:
 207              		.loc 1 109 0 discriminator 1
 208 0028 0448     		ldr	r0, .L25+4
 209              	.LVL13:
 210 002a FFF7FEFF 		bl	chDbgPanic
 211              	.LVL14:
 212 002e EAE7     		b	.L20
 213              	.L24:
 214              		.loc 1 110 0 discriminator 1
 215 0030 0348     		ldr	r0, .L25+8
 216 0032 FFF7FEFF 		bl	chDbgPanic
 217              	.LVL15:
 218 0036 E8E7     		b	.L21
 219              	.L26:
 220              		.align	2
 221              	.L25:
 222 0038 00000000 		.word	.LANCHOR0
 223 003c 10000000 		.word	.LC1
 224 0040 20000000 		.word	.LC2
 225              		.cfi_endproc
 226              	.LFE2:
 227              		.size	chVTResetI, .-chVTResetI
ARM GAS  /tmp/cchASicq.s 			page 5


 228              		.global	vtlist
 229 0044 AFF30080 		.section	.bss.vtlist,"aw",%nobits
 229      AFF30080 
 229      AFF30080 
 230              		.align	2
 231              		.set	.LANCHOR0,. + 0
 232              		.type	vtlist, %object
 233              		.size	vtlist, 16
 234              	vtlist:
 235 0000 00000000 		.space	16
 235      00000000 
 235      00000000 
 235      00000000 
 236              		.section	.rodata.str1.4,"aMS",%progbits,1
 237              		.align	2
 238              	.LC0:
 239 0000 22636856 		.ascii	"\"chVTSetI\"()\000"
 239      54536574 
 239      49222829 
 239      00
 240 000d 000000   		.space	3
 241              	.LC1:
 242 0010 22636856 		.ascii	"\"chVTResetI\"()\000"
 242      54526573 
 242      65744922 
 242      282900
 243 001f 00       		.space	1
 244              	.LC2:
 245 0020 63685654 		.ascii	"chVTResetI(), #1\000"
 245      52657365 
 245      74492829 
 245      2C202331 
 245      00
 246 0031 000000   		.text
 247              	.Letext0:
 248              		.file 2 "/opt/ARM/arm-none-eabi/include/machine/_default_types.h"
 249              		.file 3 "/opt/ARM/arm-none-eabi/include/stdint.h"
 250              		.file 4 "../../os/ports/GCC/ARMCMx/chtypes.h"
 251              		.file 5 "../../os/kernel/include/chvt.h"
 252              		.file 6 "../../os/kernel/include/chdebug.h"