ARM GAS  /tmp/ccuHojyg.s 			page 1


   1              		.syntax unified
   2              		.cpu cortex-m4
   3              		.eabi_attribute 27, 3
   4              		.eabi_attribute 28, 1
   5              		.fpu fpv4-sp-d16
   6              		.eabi_attribute 20, 1
   7              		.eabi_attribute 21, 1
   8              		.eabi_attribute 23, 3
   9              		.eabi_attribute 24, 1
  10              		.eabi_attribute 25, 1
  11              		.eabi_attribute 26, 1
  12              		.eabi_attribute 30, 2
  13              		.eabi_attribute 34, 1
  14              		.eabi_attribute 18, 4
  15              		.thumb
  16              		.file	"fonts.c"
  17              		.text
  18              	.Ltext0:
  19              		.cfi_sections	.debug_frame
  20              		.section	.text.matchfont,"ax",%progbits
  21              		.align	2
  22              		.p2align 4,,15
  23              		.thumb
  24              		.thumb_func
  25              		.type	matchfont, %function
  26              	matchfont:
  27              	.LFB118:
  28              		.file 1 "/home/makkmarci/devel/ugfx/src/gdisp/fonts.c"
  29              		.loc 1 28 0
  30              		.cfi_startproc
  31              		@ args = 0, pretend = 0, frame = 0
  32              		@ frame_needed = 0, uses_anonymous_args = 0
  33              		@ link register save eliminated.
  34              	.LVL0:
  35 0000 0378     		ldrb	r3, [r0]	@ zero_extendqisi2
  36 0002 0A78     		ldrb	r2, [r1]	@ zero_extendqisi2
  37              	.LVL1:
  38              	.L2:
  39              		.loc 1 30 0
  40 0004 83B1     		cbz	r3, .L4
  41              	.L15:
  42 0006 2A2B     		cmp	r3, #42
  43 0008 06D1     		bne	.L11
  44              	.L5:
  45              	.LVL2:
  46              		.loc 1 32 0
  47 000a AAB1     		cbz	r2, .L13
  48              		.loc 1 34 0
  49 000c 4378     		ldrb	r3, [r0, #1]	@ zero_extendqisi2
  50 000e 9342     		cmp	r3, r2
  51 0010 0FD0     		beq	.L14
  52 0012 4A78     		ldrb	r2, [r1, #1]	@ zero_extendqisi2
  53              		.loc 1 37 0
  54 0014 0131     		adds	r1, r1, #1
  55              	.LVL3:
  56 0016 F8E7     		b	.L5
  57              	.L11:
ARM GAS  /tmp/ccuHojyg.s 			page 2


  58              		.loc 1 42 0
  59 0018 9342     		cmp	r3, r2
  60 001a 13D1     		bne	.L10
  61              	.LVL4:
  62 001c 4378     		ldrb	r3, [r0, #1]	@ zero_extendqisi2
  63 001e 4A78     		ldrb	r2, [r1, #1]	@ zero_extendqisi2
  64              		.loc 1 44 0
  65 0020 0130     		adds	r0, r0, #1
  66              	.LVL5:
  67              		.loc 1 45 0
  68 0022 0131     		adds	r1, r1, #1
  69              	.LVL6:
  70              		.loc 1 30 0
  71 0024 002B     		cmp	r3, #0
  72 0026 EED1     		bne	.L15
  73              	.L4:
  74              		.loc 1 40 0
  75 0028 D2F10100 		rsbs	r0, r2, #1
  76              	.LVL7:
  77 002c 38BF     		it	cc
  78 002e 0020     		movcc	r0, #0
  79 0030 7047     		bx	lr
  80              	.LVL8:
  81              	.L14:
  82              		.loc 1 35 0
  83 0032 0130     		adds	r0, r0, #1
  84              	.LVL9:
  85 0034 1346     		mov	r3, r2
  86 0036 E5E7     		b	.L2
  87              	.L13:
  88              		.loc 1 33 0
  89 0038 4078     		ldrb	r0, [r0, #1]	@ zero_extendqisi2
  90              	.LVL10:
  91 003a D0F10100 		rsbs	r0, r0, #1
  92 003e 38BF     		it	cc
  93 0040 0020     		movcc	r0, #0
  94 0042 7047     		bx	lr
  95              	.LVL11:
  96              	.L10:
  97              		.loc 1 43 0
  98 0044 0020     		movs	r0, #0
  99              	.LVL12:
 100              		.loc 1 49 0
 101 0046 7047     		bx	lr
 102              		.cfi_endproc
 103              	.LFE118:
 104              		.size	matchfont, .-matchfont
 105 0048 AFF30080 		.section	.text.gdispOpenFont,"ax",%progbits
 105      AFF30080 
 106              		.align	2
 107              		.p2align 4,,15
 108              		.global	gdispOpenFont
 109              		.thumb
 110              		.thumb_func
 111              		.type	gdispOpenFont, %function
 112              	gdispOpenFont:
 113              	.LFB119:
ARM GAS  /tmp/ccuHojyg.s 			page 3


 114              		.loc 1 51 0
 115              		.cfi_startproc
 116              		@ args = 0, pretend = 0, frame = 0
 117              		@ frame_needed = 0, uses_anonymous_args = 0
 118              	.LVL13:
 119 0000 70B5     		push	{r4, r5, r6, lr}
 120              		.cfi_def_cfa_offset 16
 121              		.cfi_offset 4, -16
 122              		.cfi_offset 5, -12
 123              		.cfi_offset 6, -8
 124              		.cfi_offset 14, -4
 125              		.loc 1 51 0
 126 0002 0646     		mov	r6, r0
 127              		.loc 1 56 0
 128 0004 FFF7FEFF 		bl	mf_get_font_list
 129              	.LVL14:
 130 0008 0446     		mov	r4, r0
 131 000a 10B9     		cbnz	r0, .L19
 132 000c 0AE0     		b	.L17
 133              	.LVL15:
 134              	.L35:
 135 000e 2468     		ldr	r4, [r4]
 136              	.LVL16:
 137 0010 44B1     		cbz	r4, .L17
 138              	.L19:
 139              		.loc 1 57 0
 140 0012 6568     		ldr	r5, [r4, #4]
 141 0014 3046     		mov	r0, r6
 142 0016 2968     		ldr	r1, [r5]
 143 0018 FFF7FEFF 		bl	matchfont
 144              	.LVL17:
 145 001c 0028     		cmp	r0, #0
 146 001e F6D0     		beq	.L35
 147              		.loc 1 69 0
 148 0020 2846     		mov	r0, r5
 149 0022 70BD     		pop	{r4, r5, r6, pc}
 150              	.LVL18:
 151              	.L17:
 152              		.loc 1 62 0
 153 0024 FFF7FEFF 		bl	mf_get_font_list
 154              	.LVL19:
 155 0028 0446     		mov	r4, r0
 156 002a 38B9     		cbnz	r0, .L21
 157              	.LVL20:
 158              	.L20:
 159              		.loc 1 68 0
 160 002c FFF7FEFF 		bl	mf_get_font_list
 161              	.LVL21:
 162 0030 4568     		ldr	r5, [r0, #4]
 163              		.loc 1 69 0
 164 0032 2846     		mov	r0, r5
 165 0034 70BD     		pop	{r4, r5, r6, pc}
 166              	.LVL22:
 167              	.L36:
 168              		.loc 1 62 0
 169 0036 2468     		ldr	r4, [r4]
 170              	.LVL23:
ARM GAS  /tmp/ccuHojyg.s 			page 4


 171 0038 002C     		cmp	r4, #0
 172 003a F7D0     		beq	.L20
 173              	.L21:
 174              		.loc 1 63 0
 175 003c 6568     		ldr	r5, [r4, #4]
 176 003e 3046     		mov	r0, r6
 177 0040 6968     		ldr	r1, [r5, #4]
 178 0042 FFF7FEFF 		bl	matchfont
 179              	.LVL24:
 180 0046 0028     		cmp	r0, #0
 181 0048 F5D0     		beq	.L36
 182              		.loc 1 69 0
 183 004a 2846     		mov	r0, r5
 184 004c 70BD     		pop	{r4, r5, r6, pc}
 185              		.cfi_endproc
 186              	.LFE119:
 187              		.size	gdispOpenFont, .-gdispOpenFont
 188 004e 00BF     		.section	.text.gdispCloseFont,"ax",%progbits
 189              		.align	2
 190              		.p2align 4,,15
 191              		.global	gdispCloseFont
 192              		.thumb
 193              		.thumb_func
 194              		.type	gdispCloseFont, %function
 195              	gdispCloseFont:
 196              	.LFB120:
 197              		.loc 1 71 0
 198              		.cfi_startproc
 199              		@ args = 0, pretend = 0, frame = 0
 200              		@ frame_needed = 0, uses_anonymous_args = 0
 201              		@ link register save eliminated.
 202              	.LVL25:
 203              		.loc 1 72 0
 204 0000 90F90F20 		ldrsb	r2, [r0, #15]
 205 0004 002A     		cmp	r2, #0
 206 0006 00DB     		blt	.L39
 207 0008 7047     		bx	lr
 208              	.L39:
 209              	.LVL26:
 210              	.LBB2:
 211              		.loc 1 77 0
 212 000a 0022     		movs	r2, #0
 213 000c 8261     		str	r2, [r0, #24]
 214              		.loc 1 80 0
 215 000e FFF7FEBF 		b	chHeapFree
 216              	.LVL27:
 217              	.LBE2:
 218              		.cfi_endproc
 219              	.LFE120:
 220              		.size	gdispCloseFont, .-gdispCloseFont
 221 0012 00BFAFF3 		.section	.text.gdispScaleFont,"ax",%progbits
 221      0080AFF3 
 221      0080AFF3 
 221      0080
 222              		.align	2
 223              		.p2align 4,,15
 224              		.global	gdispScaleFont
ARM GAS  /tmp/ccuHojyg.s 			page 5


 225              		.thumb
 226              		.thumb_func
 227              		.type	gdispScaleFont, %function
 228              	gdispScaleFont:
 229              	.LFB121:
 230              		.loc 1 85 0
 231              		.cfi_startproc
 232              		@ args = 0, pretend = 0, frame = 0
 233              		@ frame_needed = 0, uses_anonymous_args = 0
 234              	.LVL28:
 235 0000 F8B5     		push	{r3, r4, r5, r6, r7, lr}
 236              		.cfi_def_cfa_offset 24
 237              		.cfi_offset 3, -24
 238              		.cfi_offset 4, -20
 239              		.cfi_offset 5, -16
 240              		.cfi_offset 6, -12
 241              		.cfi_offset 7, -8
 242              		.cfi_offset 14, -4
 243              		.loc 1 85 0
 244 0002 0746     		mov	r7, r0
 245 0004 0E46     		mov	r6, r1
 246              		.loc 1 86 0
 247 0006 0020     		movs	r0, #0
 248              	.LVL29:
 249 0008 2421     		movs	r1, #36
 250              	.LVL30:
 251              		.loc 1 85 0
 252 000a 1546     		mov	r5, r2
 253              		.loc 1 86 0
 254 000c FFF7FEFF 		bl	chHeapAlloc
 255              	.LVL31:
 256              		.loc 1 87 0
 257 0010 3946     		mov	r1, r7
 258              		.loc 1 86 0
 259 0012 0446     		mov	r4, r0
 260              	.LVL32:
 261              		.loc 1 87 0
 262 0014 3246     		mov	r2, r6
 263 0016 2B46     		mov	r3, r5
 264 0018 FFF7FEFF 		bl	mf_scale_font
 265              	.LVL33:
 266              		.loc 1 89 0
 267 001c 2046     		mov	r0, r4
 268 001e F8BD     		pop	{r3, r4, r5, r6, r7, pc}
 269              		.cfi_endproc
 270              	.LFE121:
 271              		.size	gdispScaleFont, .-gdispScaleFont
 272              		.section	.text.gdispGetFontName,"ax",%progbits
 273              		.align	2
 274              		.p2align 4,,15
 275              		.global	gdispGetFontName
 276              		.thumb
 277              		.thumb_func
 278              		.type	gdispGetFontName, %function
 279              	gdispGetFontName:
 280              	.LFB122:
 281              		.loc 1 91 0
ARM GAS  /tmp/ccuHojyg.s 			page 6


 282              		.cfi_startproc
 283              		@ args = 0, pretend = 0, frame = 0
 284              		@ frame_needed = 0, uses_anonymous_args = 0
 285              		@ link register save eliminated.
 286              	.LVL34:
 287              		.loc 1 93 0
 288 0000 4068     		ldr	r0, [r0, #4]
 289              	.LVL35:
 290 0002 7047     		bx	lr
 291              		.cfi_endproc
 292              	.LFE122:
 293              		.size	gdispGetFontName, .-gdispGetFontName
 294 0004 AFF30080 		.text
 294      AFF30080 
 294      AFF30080 
 295              	.Letext0:
 296              		.file 2 "/opt/ARM/lib/gcc/arm-none-eabi/4.8.4/include/stddef.h"
 297              		.file 3 "/opt/ARM/arm-none-eabi/include/machine/_default_types.h"
 298              		.file 4 "/opt/ARM/arm-none-eabi/include/stdint.h"
 299              		.file 5 "../../os/ports/GCC/ARMCMx/chtypes.h"
 300              		.file 6 "../../os/kernel/include/chlists.h"
 301              		.file 7 "../../os/kernel/include/chthreads.h"
 302              		.file 8 "../../os/ports/GCC/ARMCMx/chcore_v7m.h"
 303              		.file 9 "../../os/kernel/include/chmtx.h"
 304              		.file 10 "../../os/kernel/include/chmemcore.h"
 305              		.file 11 "../../os/kernel/include/chheap.h"
 306              		.file 12 "/home/makkmarci/devel/ugfx/src/gdisp/sys_defs.h"
 307              		.file 13 "/home/makkmarci/devel/ugfx/src/gdisp/mcufont/mf_font.h"
 308              		.file 14 "/home/makkmarci/devel/ugfx/src/gdisp/mcufont/mf_encoding.h"
 309              		.file 15 "/home/makkmarci/devel/ugfx/src/gdisp/mcufont/mf_scaledfont.h"
 310              		.file 16 "../../os/ports/common/ARMCMx/CMSIS/include/core_cm4.h"