ARM GAS  /tmp/ccuHojyg.s 			page 1


   1              		.syntax unified
   2              		.cpu cortex-m4
   3              		.eabi_attribute 27, 3
   4              		.eabi_attribute 28, 1
   5              		.fpu fpv4-sp-d16
   6              		.eabi_attribute 20, 1
   7              		.eabi_attribute 21, 1
   8              		.eabi_attribute 23, 3
   9              		.eabi_attribute 24, 1
  10              		.eabi_attribute 25, 1
  11              		.eabi_attribute 26, 1
  12              		.eabi_attribute 30, 2
  13              		.eabi_attribute 34, 1
  14              		.eabi_attribute 18, 4
  15              		.thumb
  16              		.file	"fonts.c"
  17              		.text
  18              	.Ltext0:
  19              		.cfi_sections	.debug_frame
  20              		.section	.text.matchfont,"ax",%progbits
  21              		.align	2
  22              		.p2align 4,,15
  23              		.thumb
  24              		.thumb_func
  25              		.type	matchfont, %function
  26              	matchfont:
  27              	.LFB118:
  28              		.file 1 "/home/makkmarci/devel/ugfx/src/gdisp/fonts.c"
  29              		.loc 1 28 0
  30              		.cfi_startproc
  31              		@ args = 0, pretend = 0, frame = 0
  32              		@ frame_needed = 0, uses_anonymous_args = 0
  33              		@ link register save eliminated.
  34              	.LVL0:
  35 0000 0378     		ldrb	r3, [r0]	@ zero_extendqisi2
  36 0002 0A78     		ldrb	r2, [r1]	@ zero_extendqisi2
  37              	.LVL1:
  38              	.L2:
  39              		.loc 1 30 0
  40 0004 83B1     		cbz	r3, .L4
  41              	.L15:
  42 0006 2A2B     		cmp	r3, #42
  43 0008 06D1     		bne	.L11
  44              	.L5:
  45              	.LVL2:
  46              		.loc 1 32 0
  47 000a AAB1     		cbz	r2, .L13
  48              		.loc 1 34 0
  49 000c 4378     		ldrb	r3, [r0, #1]	@ zero_extendqisi2
  50 000e 9342     		cmp	r3, r2
  51 0010 0FD0     		beq	.L14
  52 0012 4A78     		ldrb	r2, [r1, #1]	@ zero_extendqisi2
  53              		.loc 1 37 0
  54 0014 0131     		adds	r1, r1, #1
  55              	.LVL3:
  56 0016 F8E7     		b	.L5
  57              	.L11:
ARM GAS  /tmp/ccuHojyg.s 			page 2


  58              		.loc 1 42 0
  59 0018 9342     		cmp	r3, r2
  60 001a 13D1     		bne	.L10
  61              	.LVL4:
  62 001c 4378     		ldrb	r3, [r0, #1]	@ zero_extendqisi2
  63 001e 4A78     		ldrb	r2, [r1, #1]	@ zero_extendqisi2
  64              		.loc 1 44 0
  65 0020 0130     		adds	r0, r0, #1
  66              	.LVL5:
  67              		.loc 1 45 0
  68 0022 0131     		adds	r1, r1, #1
  69              	.LVL6:
  70              		.loc 1 30 0
  71 0024 002B     		cmp	r3, #0
  72 0026 EED1     		bne	.L15
  73              	.L4:
  74              		.loc 1 40 0
  75 0028 D2F10100 		rsbs	r0, r2, #1
  76              	.LVL7:
  77 002c 38BF     		it	cc
  78 002e 0020     		movcc	r0, #0
  79 0030 7047     		bx	lr
  80              	.LVL8:
  81              	.L14:
  82              		.loc 1 35 0
  83 0032 0130     		adds	r0, r0, #1
  84              	.LVL9:
  85 0034 1346     		mov	r3, r2
  86 0036 E5E7     		b	.L2
  87              	.L13:
  88              		.loc 1 33 0
  89 0038 4078     		ldrb	r0, [r0, #1]	@ zero_extendqisi2
  90              	.LVL10:
  91 003a D0F10100 		rsbs	r0, r0, #1
  92 003e 38BF     		it	cc
  93 0040 0020     		movcc	r0, #0
  94 0042 7047     		bx	lr
  95              	.LVL11:
  96              	.L10:
  97              		.loc 1 43 0
  98 0044 0020     		movs	r0, #0
  99              	.LVL12:
 100              		.loc 1 49 0
 101 0046 7047     		bx	lr
 102              		.cfi_endproc
 103              	.LFE118:
 104              		.size	matchfont, .-matchfont
 105 0048 AFF30080 		.section	.text.gdispOpenFont,"ax",%progbits
 105      AFF30080 
 106              		.align	2
 107              		.p2align 4,,15
 108              		.global	gdispOpenFont
 109              		.thumb
 110              		.thumb_func
 111              		.type	gdispOpenFont, %function
 112              	gdispOpenFont:
 113              	.LFB119:
ARM GAS  /tmp/ccuHojyg.s 			page 3


 114              		.loc 1 51 0
 115              		.cfi_startproc
 116              		@ args = 0, pretend = 0, frame = 0
 117              		@ frame_needed = 0, uses_anonymous_args = 0
 118              	.LVL13:
 119 0000 70B5     		push	{r4, r5, r6, lr}
 120              		.cfi_def_cfa_offset 16
 121              		.cfi_offset 4, -16
 122              		.cfi_offset 5, -12
 123              		.cfi_offset 6, -8
 124              		.cfi_offset 14, -4
 125              		.loc 1 51 0
 126 0002 0646     		mov	r6, r0
 127              		.loc 1 56 0
 128 0004 FFF7FEFF 		bl	mf_get_font_list
 129              	.LVL14:
 130 0008 0446     		mov	r4, r0
 131 000a 10B9     		cbnz	r0, .L19
 132 000c 0AE0     		b	.L17
 133              	.LVL15:
 134              	.L35:
 135 000e 2468     		ldr	r4, [r4]
 136              	.LVL16:
 137 0010 44B1     		cbz	r4, .L17
 138              	.L19:
 139              		.loc 1 57 0
 140 0012 6568     		ldr	r5, [r4, #4]
 141 0014 3046     		mov	r0, r6
 142 0016 2968     		ldr	r1, [r5]
 143 0018 FFF7FEFF 		bl	matchfont
 144              	.LVL17:
 145 001c 0028     		cmp	r0, #0
 146 001e F6D0     		beq	.L35
 147              		.loc 1 69 0
 148 0020 2846     		mov	r0, r5
 149 0022 70BD     		pop	{r4, r5, r6, pc}
 150              	.LVL18:
 151              	.L17:
 152              		.loc 1 62 0
 153 0024 FFF7FEFF 		bl	mf_get_font_list
 154              	.LVL19:
 155 0028 0446     		mov	r4, r0
 156 002a 38B9     		cbnz	r0, .L21
 157              	.LVL20:
 158              	.L20:
 159              		.loc 1 68 0
 160 002c FFF7FEFF 		bl	mf_get_font_list
 161              	.LVL21:
 162 0030 4568     		ldr	r5, [r0, #4]
 163              		.loc 1 69 0
 164 0032 2846     		mov	r0, r5
 165 0034 70BD     		pop	{r4, r5, r6, pc}
 166              	.LVL22:
 167              	.L36:
 168              		.loc 1 62 0
 169 0036 2468     		ldr	r4, [r4]
 170              	.LVL23:
ARM GAS  /tmp/ccuHojyg.s 			page 4


 171 0038 002C     		cmp	r4, #0
 172 003a F7D0     		beq	.L20
 173              	.L21:
 174              		.loc 1 63 0
 175 003c 6568     		ldr	r5, [r4, #4]
 176 003e 3046     		mov	r0, r6
 177 0040 6968     		ldr	r1, [r5, #4]
 178 0042 FFF7FEFF 		bl	matchfont
 179              	.LVL24:
 180 0046 0028     		cmp	r0, #0
 181 0048 F5D0     		beq	.L36
 182              		.loc 1 69 0
 183 004a 2846     		mov	r0, r5
 184 004c 70BD     		pop	{r4, r5, r6, pc}
 185              		.cfi_endproc
 186              	.LFE119:
 187              		.size	gdispOpenFont, .-gdispOpenFont
 188 004e 00BF     		.section	.text.gdispCloseFont,"ax",%progbits
 189              		.align	2
 190              		.p2align 4,,15
 191              		.global	gdispCloseFont
 192              		.thumb
 193              		.thumb_func
 194              		.type	gdispCloseFont, %function
 195              	gdispCloseFont:
 196              	.LFB120:
 197              		.loc 1 71 0
 198              		.cfi_startproc
 199              		@ args = 0, pretend = 0, frame = 0
 200              		@ frame_needed = 0, uses_anonymous_args = 0
 201              		@ link register save eliminated.
 202              	.LVL25:
 203              		.loc 1 72 0
 204 0000 90F90F20 		ldrsb	r2, [r0, #15]
 205 0004 002A     		cmp	r2, #0
 206 0006 00DB     		blt	.L39
 207 0008 7047     		bx	lr
 208              	.L39:
 209              	.LVL26:
 210              	.LBB2:
 211              		.loc 1 77 0
 212 000a 0022     		movs	r2, #0
 213 000c 8261     		str	r2, [r0, #24]
 214              		.loc 1 80 0
 215 000e FFF7FEBF 		b	chHeapFree
 216              	.LVL27:
 217              	.LBE2:
 218              		.cfi_endproc
 219              	.LFE120:
 220              		.size	gdispCloseFont, .-gdispCloseFont
 221 0012 00BFAFF3 		.section	.text.gdispScaleFont,"ax",%progbits
 221      0080AFF3 
 221      0080AFF3 
 221      0080
 222              		.align	2
 223              		.p2align 4,,15
 224              		.global	gdispScaleFont
ARM GAS  /tmp/ccuHojyg.s 			page 5


 225              		.thumb
 226              		.thumb_func
 227              		.type	gdispScaleFont, %function
 228              	gdispScaleFont:
 229              	.LFB121:
 230              		.loc 1 85 0
 231              		.cfi_startproc
 232              		@ args = 0, pretend = 0, frame = 0
 233              		@ frame_needed = 0, uses_anonymous_args = 0
 234              	.LVL28:
 235 0000 F8B5     		push	{r3, r4, r5, r6, r7, lr}
 236              		.cfi_def_cfa_offset 24
 237              		.cfi_offset 3, -24
 238              		.cfi_offset 4, -20
 239              		.cfi_offset 5, -16
 240              		.cfi_offset 6, -12
 241              		.cfi_offset 7, -8
 242              		.cfi_offset 14, -4
 243              		.loc 1 85 0
 244 0002 0746     		mov	r7, r0
 245 0004 0E46     		mov	r6, r1
 246              		.loc 1 86 0
 247 0006 0020     		movs	r0, #0
 248              	.LVL29:
 249 0008 2421     		movs	r1, #36
 250              	.LVL30:
 251              		.loc 1 85 0
 252 000a 1546     		mov	r5, r2
 253              		.loc 1 86 0
 254 000c FFF7FEFF 		bl	chHeapAlloc
 255              	.LVL31:
 256              		.loc 1 87 0
 257 0010 3946     		mov	r1, r7
 258              		.loc 1 86 0
 259 0012 0446     		mov	r4, r0
 260              	.LVL32:
 261              		.loc 1 87 0
 262 0014 3246     		mov	r2, r6
 263 0016 2B46     		mov	r3, r5
 264 0018 FFF7FEFF 		bl	mf_scale_font
 265              	.LVL33:
 266              		.loc 1 89 0
 267 001c 2046     		mov	r0, r4
 268 001e F8BD     		pop	{r3, r4, r5, r6, r7, pc}
 269              		.cfi_endproc
 270              	.LFE121:
 271              		.size	gdispScaleFont, .-gdispScaleFont
 272              		.section	.text.gdispGetFontName,"ax",%progbits
 273              		.align	2
 274              		.p2align 4,,15
 275              		.global	gdispGetFontName
 276              		.thumb
 277              		.thumb_func
 278              		.type	gdispGetFontName, %function
 279              	gdispGetFontName:
 280              	.LFB122:
 281              		.loc 1 91 0
ARM GAS  /tmp/ccuHojyg.s 			page 6


 282              		.cfi_startproc
 283              		@ args = 0, pretend = 0, frame = 0
 284              		@ frame_needed = 0, uses_anonymous_args = 0
 285              		@ link register save eliminated.
 286              	.LVL34:
 287              		.loc 1 93 0
 288 0000 4068     		ldr	r0, [r0, #4]
 289              	.LVL35:
 290 0002 7047     		bx	lr
 291              		.cfi_endproc
 292              	.LFE122:
 293              		.size	gdispGetFontName, .-gdispGetFontName
 294 0004 AFF30080 		.text
 294      AFF30080 
 294      AFF30080 
 295              	.Letext0:
 296              		.file 2 "/opt/ARM/lib/gcc/arm-none-eabi/4.8.4/include/stddef.h"
 297              		.file 3 "/opt/ARM/arm-none-eabi/include/machine/_default_types.h"
 298              		.file 4 "/opt/ARM/arm-none-eabi/include/stdint.h"
 299              		.file 5 "../../os/ports/GCC/ARMCMx/chtypes.h"
 300              		.file 6 "../../os/kernel/include/chlists.h"
 301              		.file 7 "../../os/kernel/include/chthreads.h"
 302              		.file 8 "../../os/ports/GCC/ARMCMx/chcore_v7m.h"
 303              		.file 9 "../../os/kernel/include/chmtx.h"
 304              		.file 10 "../../os/kernel/include/chmemcore.h"
 305              		.file 11 "../../os/kernel/include/chheap.h"
 306              		.file 12 "/home/makkmarci/devel/ugfx/src/gdisp/sys_defs.h"
 307              		.file 13 "/home/makkmarci/devel/ugfx/src/gdisp/mcufont/mf_font.h"
 308              		.file 14 "/home/makkmarci/devel/ugfx/src/gdisp/mcufont/mf_encoding.h"
 309              		.file 15 "/home/makkmarci/devel/ugfx/src/gdisp/mcufont/mf_scaledfont.h"
 310              		.file 16 "../../os/ports/common/ARMCMx/CMSIS/include/core_cm4.h"
 311              		.section	.debug_info,"",%progbits
 312              	.Ldebug_info0:
 313 0000 73090000 		.4byte	0x973
 314 0004 0400     		.2byte	0x4
 315 0006 00000000 		.4byte	.Ldebug_abbrev0
 316 000a 04       		.byte	0x4
 317 000b 01       		.uleb128 0x1
 318 000c 52030000 		.4byte	.LASF109
 319 0010 01       		.byte	0x1
 320 0011 5F020000 		.4byte	.LASF110
 321 0015 21050000 		.4byte	.LASF111
 322 0019 00000000 		.4byte	.Ldebug_ranges0+0
 323 001d 00000000 		.4byte	0
 324 0021 00000000 		.4byte	.Ldebug_line0
 325 0025 02       		.uleb128 0x2
 326 0026 04       		.byte	0x4
 327 0027 05       		.byte	0x5
 328 0028 696E7400 		.ascii	"int\000"
 329 002c 03       		.uleb128 0x3
 330 002d 07000000 		.4byte	.LASF2
 331 0031 02       		.byte	0x2
 332 0032 D4       		.byte	0xd4
 333 0033 37000000 		.4byte	0x37
 334 0037 04       		.uleb128 0x4
 335 0038 04       		.byte	0x4
 336 0039 07       		.byte	0x7
ARM GAS  /tmp/ccuHojyg.s 			page 7


 337 003a 5B010000 		.4byte	.LASF0
 338 003e 04       		.uleb128 0x4
 339 003f 01       		.byte	0x1
 340 0040 06       		.byte	0x6
 341 0041 A3000000 		.4byte	.LASF1
 342 0045 03       		.uleb128 0x3
 343 0046 1E000000 		.4byte	.LASF3
 344 004a 03       		.byte	0x3
 345 004b 1C       		.byte	0x1c
 346 004c 50000000 		.4byte	0x50
 347 0050 04       		.uleb128 0x4
 348 0051 01       		.byte	0x1
 349 0052 08       		.byte	0x8
 350 0053 FC020000 		.4byte	.LASF4
 351 0057 03       		.uleb128 0x3
 352 0058 40010000 		.4byte	.LASF5
 353 005c 03       		.byte	0x3
 354 005d 25       		.byte	0x25
 355 005e 62000000 		.4byte	0x62
 356 0062 04       		.uleb128 0x4
 357 0063 02       		.byte	0x2
 358 0064 05       		.byte	0x5
 359 0065 20030000 		.4byte	.LASF6
 360 0069 04       		.uleb128 0x4
 361 006a 02       		.byte	0x2
 362 006b 07       		.byte	0x7
 363 006c 92010000 		.4byte	.LASF7
 364 0070 03       		.uleb128 0x3
 365 0071 E2040000 		.4byte	.LASF8
 366 0075 03       		.byte	0x3
 367 0076 37       		.byte	0x37
 368 0077 7B000000 		.4byte	0x7b
 369 007b 04       		.uleb128 0x4
 370 007c 04       		.byte	0x4
 371 007d 05       		.byte	0x5
 372 007e 09010000 		.4byte	.LASF9
 373 0082 03       		.uleb128 0x3
 374 0083 2C010000 		.4byte	.LASF10
 375 0087 03       		.byte	0x3
 376 0088 38       		.byte	0x38
 377 0089 8D000000 		.4byte	0x8d
 378 008d 04       		.uleb128 0x4
 379 008e 04       		.byte	0x4
 380 008f 07       		.byte	0x7
 381 0090 AF040000 		.4byte	.LASF11
 382 0094 04       		.uleb128 0x4
 383 0095 08       		.byte	0x8
 384 0096 05       		.byte	0x5
 385 0097 95000000 		.4byte	.LASF12
 386 009b 03       		.uleb128 0x3
 387 009c A6020000 		.4byte	.LASF13
 388 00a0 03       		.byte	0x3
 389 00a1 4E       		.byte	0x4e
 390 00a2 A6000000 		.4byte	0xa6
 391 00a6 04       		.uleb128 0x4
 392 00a7 08       		.byte	0x8
 393 00a8 07       		.byte	0x7
ARM GAS  /tmp/ccuHojyg.s 			page 8


 394 00a9 35000000 		.4byte	.LASF14
 395 00ad 03       		.uleb128 0x3
 396 00ae A5050000 		.4byte	.LASF15
 397 00b2 04       		.byte	0x4
 398 00b3 2A       		.byte	0x2a
 399 00b4 45000000 		.4byte	0x45
 400 00b8 03       		.uleb128 0x3
 401 00b9 8D000000 		.4byte	.LASF16
 402 00bd 04       		.byte	0x4
 403 00be 35       		.byte	0x35
 404 00bf 57000000 		.4byte	0x57
 405 00c3 03       		.uleb128 0x3
 406 00c4 F4020000 		.4byte	.LASF17
 407 00c8 04       		.byte	0x4
 408 00c9 41       		.byte	0x41
 409 00ca 70000000 		.4byte	0x70
 410 00ce 03       		.uleb128 0x3
 411 00cf 99040000 		.4byte	.LASF18
 412 00d3 04       		.byte	0x4
 413 00d4 42       		.byte	0x42
 414 00d5 82000000 		.4byte	0x82
 415 00d9 03       		.uleb128 0x3
 416 00da 15000000 		.4byte	.LASF19
 417 00de 04       		.byte	0x4
 418 00df 4E       		.byte	0x4e
 419 00e0 9B000000 		.4byte	0x9b
 420 00e4 03       		.uleb128 0x3
 421 00e5 BD000000 		.4byte	.LASF20
 422 00e9 05       		.byte	0x5
 423 00ea 2B       		.byte	0x2b
 424 00eb EF000000 		.4byte	0xef
 425 00ef 04       		.uleb128 0x4
 426 00f0 01       		.byte	0x1
 427 00f1 02       		.byte	0x2
 428 00f2 EE020000 		.4byte	.LASF21
 429 00f6 03       		.uleb128 0x3
 430 00f7 D3010000 		.4byte	.LASF22
 431 00fb 05       		.byte	0x5
 432 00fc 2C       		.byte	0x2c
 433 00fd AD000000 		.4byte	0xad
 434 0101 03       		.uleb128 0x3
 435 0102 12010000 		.4byte	.LASF23
 436 0106 05       		.byte	0x5
 437 0107 2D       		.byte	0x2d
 438 0108 AD000000 		.4byte	0xad
 439 010c 03       		.uleb128 0x3
 440 010d CA020000 		.4byte	.LASF24
 441 0111 05       		.byte	0x5
 442 0112 2E       		.byte	0x2e
 443 0113 AD000000 		.4byte	0xad
 444 0117 03       		.uleb128 0x3
 445 0118 F1000000 		.4byte	.LASF25
 446 011c 05       		.byte	0x5
 447 011d 2F       		.byte	0x2f
 448 011e AD000000 		.4byte	0xad
 449 0122 03       		.uleb128 0x3
 450 0123 E6020000 		.4byte	.LASF26
ARM GAS  /tmp/ccuHojyg.s 			page 9


 451 0127 05       		.byte	0x5
 452 0128 30       		.byte	0x30
 453 0129 CE000000 		.4byte	0xce
 454 012d 03       		.uleb128 0x3
 455 012e E0020000 		.4byte	.LASF27
 456 0132 05       		.byte	0x5
 457 0133 31       		.byte	0x31
 458 0134 C3000000 		.4byte	0xc3
 459 0138 03       		.uleb128 0x3
 460 0139 E7010000 		.4byte	.LASF28
 461 013d 05       		.byte	0x5
 462 013e 33       		.byte	0x33
 463 013f CE000000 		.4byte	0xce
 464 0143 03       		.uleb128 0x3
 465 0144 CD040000 		.4byte	.LASF29
 466 0148 05       		.byte	0x5
 467 0149 35       		.byte	0x35
 468 014a CE000000 		.4byte	0xce
 469 014e 03       		.uleb128 0x3
 470 014f 71040000 		.4byte	.LASF30
 471 0153 06       		.byte	0x6
 472 0154 2A       		.byte	0x2a
 473 0155 59010000 		.4byte	0x159
 474 0159 05       		.uleb128 0x5
 475 015a 71040000 		.4byte	.LASF30
 476 015e 4C       		.byte	0x4c
 477 015f 07       		.byte	0x7
 478 0160 5E       		.byte	0x5e
 479 0161 62020000 		.4byte	0x262
 480 0165 06       		.uleb128 0x6
 481 0166 43030000 		.4byte	.LASF31
 482 016a 07       		.byte	0x7
 483 016b 5F       		.byte	0x5f
 484 016c 83020000 		.4byte	0x283
 485 0170 00       		.byte	0
 486 0171 06       		.uleb128 0x6
 487 0172 D9020000 		.4byte	.LASF32
 488 0176 07       		.byte	0x7
 489 0177 61       		.byte	0x61
 490 0178 83020000 		.4byte	0x283
 491 017c 04       		.byte	0x4
 492 017d 06       		.uleb128 0x6
 493 017e 7E000000 		.4byte	.LASF33
 494 0182 07       		.byte	0x7
 495 0183 63       		.byte	0x63
 496 0184 22010000 		.4byte	0x122
 497 0188 08       		.byte	0x8
 498 0189 06       		.uleb128 0x6
 499 018a F4050000 		.4byte	.LASF34
 500 018e 07       		.byte	0x7
 501 018f 64       		.byte	0x64
 502 0190 18040000 		.4byte	0x418
 503 0194 0C       		.byte	0xc
 504 0195 06       		.uleb128 0x6
 505 0196 1B010000 		.4byte	.LASF35
 506 019a 07       		.byte	0x7
 507 019b 66       		.byte	0x66
ARM GAS  /tmp/ccuHojyg.s 			page 10


 508 019c 83020000 		.4byte	0x283
 509 01a0 10       		.byte	0x10
 510 01a1 06       		.uleb128 0x6
 511 01a2 3C020000 		.4byte	.LASF36
 512 01a6 07       		.byte	0x7
 513 01a7 67       		.byte	0x67
 514 01a8 83020000 		.4byte	0x283
 515 01ac 14       		.byte	0x14
 516 01ad 06       		.uleb128 0x6
 517 01ae C2050000 		.4byte	.LASF37
 518 01b2 07       		.byte	0x7
 519 01b3 6E       		.byte	0x6e
 520 01b4 83050000 		.4byte	0x583
 521 01b8 18       		.byte	0x18
 522 01b9 06       		.uleb128 0x6
 523 01ba 50010000 		.4byte	.LASF38
 524 01be 07       		.byte	0x7
 525 01bf 74       		.byte	0x74
 526 01c0 95050000 		.4byte	0x595
 527 01c4 1C       		.byte	0x1c
 528 01c5 06       		.uleb128 0x6
 529 01c6 2A030000 		.4byte	.LASF39
 530 01ca 07       		.byte	0x7
 531 01cb 79       		.byte	0x79
 532 01cc 01010000 		.4byte	0x101
 533 01d0 20       		.byte	0x20
 534 01d1 06       		.uleb128 0x6
 535 01d2 4A030000 		.4byte	.LASF40
 536 01d6 07       		.byte	0x7
 537 01d7 7D       		.byte	0x7d
 538 01d8 F6000000 		.4byte	0xf6
 539 01dc 21       		.byte	0x21
 540 01dd 06       		.uleb128 0x6
 541 01de 8C020000 		.4byte	.LASF41
 542 01e2 07       		.byte	0x7
 543 01e3 82       		.byte	0x82
 544 01e4 0C010000 		.4byte	0x10c
 545 01e8 22       		.byte	0x22
 546 01e9 06       		.uleb128 0x6
 547 01ea 32030000 		.4byte	.LASF42
 548 01ee 07       		.byte	0x7
 549 01ef 88       		.byte	0x88
 550 01f0 17010000 		.4byte	0x117
 551 01f4 23       		.byte	0x23
 552 01f5 06       		.uleb128 0x6
 553 01f6 68010000 		.4byte	.LASF43
 554 01fa 07       		.byte	0x7
 555 01fb 8F       		.byte	0x8f
 556 01fc 40040000 		.4byte	0x440
 557 0200 24       		.byte	0x24
 558 0201 07       		.uleb128 0x7
 559 0202 705F7500 		.ascii	"p_u\000"
 560 0206 07       		.byte	0x7
 561 0207 B4       		.byte	0xb4
 562 0208 4E050000 		.4byte	0x54e
 563 020c 28       		.byte	0x28
 564 020d 06       		.uleb128 0x6
ARM GAS  /tmp/ccuHojyg.s 			page 11


 565 020e FA050000 		.4byte	.LASF44
 566 0212 07       		.byte	0x7
 567 0213 B9       		.byte	0xb9
 568 0214 A9020000 		.4byte	0x2a9
 569 0218 2C       		.byte	0x2c
 570 0219 06       		.uleb128 0x6
 571 021a 6F010000 		.4byte	.LASF45
 572 021e 07       		.byte	0x7
 573 021f BF       		.byte	0xbf
 574 0220 89020000 		.4byte	0x289
 575 0224 30       		.byte	0x30
 576 0225 06       		.uleb128 0x6
 577 0226 C9050000 		.4byte	.LASF46
 578 022a 07       		.byte	0x7
 579 022b C3       		.byte	0xc3
 580 022c 2D010000 		.4byte	0x12d
 581 0230 38       		.byte	0x38
 582 0231 06       		.uleb128 0x6
 583 0232 8E040000 		.4byte	.LASF47
 584 0236 07       		.byte	0x7
 585 0237 C9       		.byte	0xc9
 586 0238 38010000 		.4byte	0x138
 587 023c 3C       		.byte	0x3c
 588 023d 06       		.uleb128 0x6
 589 023e 16030000 		.4byte	.LASF48
 590 0242 07       		.byte	0x7
 591 0243 D0       		.byte	0xd0
 592 0244 9B050000 		.4byte	0x59b
 593 0248 40       		.byte	0x40
 594 0249 06       		.uleb128 0x6
 595 024a D7040000 		.4byte	.LASF49
 596 024e 07       		.byte	0x7
 597 024f D4       		.byte	0xd4
 598 0250 22010000 		.4byte	0x122
 599 0254 44       		.byte	0x44
 600 0255 06       		.uleb128 0x6
 601 0256 B5000000 		.4byte	.LASF50
 602 025a 07       		.byte	0x7
 603 025b DA       		.byte	0xda
 604 025c BF020000 		.4byte	0x2bf
 605 0260 48       		.byte	0x48
 606 0261 00       		.byte	0
 607 0262 08       		.uleb128 0x8
 608 0263 08       		.byte	0x8
 609 0264 06       		.byte	0x6
 610 0265 61       		.byte	0x61
 611 0266 83020000 		.4byte	0x283
 612 026a 06       		.uleb128 0x6
 613 026b 43030000 		.4byte	.LASF31
 614 026f 06       		.byte	0x6
 615 0270 62       		.byte	0x62
 616 0271 83020000 		.4byte	0x283
 617 0275 00       		.byte	0
 618 0276 06       		.uleb128 0x6
 619 0277 D9020000 		.4byte	.LASF32
 620 027b 06       		.byte	0x6
 621 027c 64       		.byte	0x64
ARM GAS  /tmp/ccuHojyg.s 			page 12


 622 027d 83020000 		.4byte	0x283
 623 0281 04       		.byte	0x4
 624 0282 00       		.byte	0
 625 0283 09       		.uleb128 0x9
 626 0284 04       		.byte	0x4
 627 0285 4E010000 		.4byte	0x14e
 628 0289 03       		.uleb128 0x3
 629 028a 52020000 		.4byte	.LASF51
 630 028e 06       		.byte	0x6
 631 028f 66       		.byte	0x66
 632 0290 62020000 		.4byte	0x262
 633 0294 08       		.uleb128 0x8
 634 0295 04       		.byte	0x4
 635 0296 06       		.byte	0x6
 636 0297 6B       		.byte	0x6b
 637 0298 A9020000 		.4byte	0x2a9
 638 029c 06       		.uleb128 0x6
 639 029d 43030000 		.4byte	.LASF31
 640 02a1 06       		.byte	0x6
 641 02a2 6D       		.byte	0x6d
 642 02a3 83020000 		.4byte	0x283
 643 02a7 00       		.byte	0
 644 02a8 00       		.byte	0
 645 02a9 03       		.uleb128 0x3
 646 02aa DB010000 		.4byte	.LASF52
 647 02ae 06       		.byte	0x6
 648 02af 70       		.byte	0x70
 649 02b0 94020000 		.4byte	0x294
 650 02b4 03       		.uleb128 0x3
 651 02b5 37010000 		.4byte	.LASF53
 652 02b9 08       		.byte	0x8
 653 02ba E5       		.byte	0xe5
 654 02bb BF020000 		.4byte	0x2bf
 655 02bf 0A       		.uleb128 0xa
 656 02c0 04       		.byte	0x4
 657 02c1 03       		.uleb128 0x3
 658 02c2 F3010000 		.4byte	.LASF54
 659 02c6 08       		.byte	0x8
 660 02c7 EB       		.byte	0xeb
 661 02c8 D9000000 		.4byte	0xd9
 662 02cc 0B       		.uleb128 0xb
 663 02cd 00000000 		.4byte	.LASF55
 664 02d1 64       		.byte	0x64
 665 02d2 08       		.byte	0x8
 666 02d3 0C01     		.2byte	0x10c
 667 02d5 18040000 		.4byte	0x418
 668 02d9 0C       		.uleb128 0xc
 669 02da 73313600 		.ascii	"s16\000"
 670 02de 08       		.byte	0x8
 671 02df 0E01     		.2byte	0x10e
 672 02e1 B4020000 		.4byte	0x2b4
 673 02e5 00       		.byte	0
 674 02e6 0C       		.uleb128 0xc
 675 02e7 73313700 		.ascii	"s17\000"
 676 02eb 08       		.byte	0x8
 677 02ec 0F01     		.2byte	0x10f
 678 02ee B4020000 		.4byte	0x2b4
ARM GAS  /tmp/ccuHojyg.s 			page 13


 679 02f2 04       		.byte	0x4
 680 02f3 0C       		.uleb128 0xc
 681 02f4 73313800 		.ascii	"s18\000"
 682 02f8 08       		.byte	0x8
 683 02f9 1001     		.2byte	0x110
 684 02fb B4020000 		.4byte	0x2b4
 685 02ff 08       		.byte	0x8
 686 0300 0C       		.uleb128 0xc
 687 0301 73313900 		.ascii	"s19\000"
 688 0305 08       		.byte	0x8
 689 0306 1101     		.2byte	0x111
 690 0308 B4020000 		.4byte	0x2b4
 691 030c 0C       		.byte	0xc
 692 030d 0C       		.uleb128 0xc
 693 030e 73323000 		.ascii	"s20\000"
 694 0312 08       		.byte	0x8
 695 0313 1201     		.2byte	0x112
 696 0315 B4020000 		.4byte	0x2b4
 697 0319 10       		.byte	0x10
 698 031a 0C       		.uleb128 0xc
 699 031b 73323100 		.ascii	"s21\000"
 700 031f 08       		.byte	0x8
 701 0320 1301     		.2byte	0x113
 702 0322 B4020000 		.4byte	0x2b4
 703 0326 14       		.byte	0x14
 704 0327 0C       		.uleb128 0xc
 705 0328 73323200 		.ascii	"s22\000"
 706 032c 08       		.byte	0x8
 707 032d 1401     		.2byte	0x114
 708 032f B4020000 		.4byte	0x2b4
 709 0333 18       		.byte	0x18
 710 0334 0C       		.uleb128 0xc
 711 0335 73323300 		.ascii	"s23\000"
 712 0339 08       		.byte	0x8
 713 033a 1501     		.2byte	0x115
 714 033c B4020000 		.4byte	0x2b4
 715 0340 1C       		.byte	0x1c
 716 0341 0C       		.uleb128 0xc
 717 0342 73323400 		.ascii	"s24\000"
 718 0346 08       		.byte	0x8
 719 0347 1601     		.2byte	0x116
 720 0349 B4020000 		.4byte	0x2b4
 721 034d 20       		.byte	0x20
 722 034e 0C       		.uleb128 0xc
 723 034f 73323500 		.ascii	"s25\000"
 724 0353 08       		.byte	0x8
 725 0354 1701     		.2byte	0x117
 726 0356 B4020000 		.4byte	0x2b4
 727 035a 24       		.byte	0x24
 728 035b 0C       		.uleb128 0xc
 729 035c 73323600 		.ascii	"s26\000"
 730 0360 08       		.byte	0x8
 731 0361 1801     		.2byte	0x118
 732 0363 B4020000 		.4byte	0x2b4
 733 0367 28       		.byte	0x28
 734 0368 0C       		.uleb128 0xc
 735 0369 73323700 		.ascii	"s27\000"
ARM GAS  /tmp/ccuHojyg.s 			page 14


 736 036d 08       		.byte	0x8
 737 036e 1901     		.2byte	0x119
 738 0370 B4020000 		.4byte	0x2b4
 739 0374 2C       		.byte	0x2c
 740 0375 0C       		.uleb128 0xc
 741 0376 73323800 		.ascii	"s28\000"
 742 037a 08       		.byte	0x8
 743 037b 1A01     		.2byte	0x11a
 744 037d B4020000 		.4byte	0x2b4
 745 0381 30       		.byte	0x30
 746 0382 0C       		.uleb128 0xc
 747 0383 73323900 		.ascii	"s29\000"
 748 0387 08       		.byte	0x8
 749 0388 1B01     		.2byte	0x11b
 750 038a B4020000 		.4byte	0x2b4
 751 038e 34       		.byte	0x34
 752 038f 0C       		.uleb128 0xc
 753 0390 73333000 		.ascii	"s30\000"
 754 0394 08       		.byte	0x8
 755 0395 1C01     		.2byte	0x11c
 756 0397 B4020000 		.4byte	0x2b4
 757 039b 38       		.byte	0x38
 758 039c 0C       		.uleb128 0xc
 759 039d 73333100 		.ascii	"s31\000"
 760 03a1 08       		.byte	0x8
 761 03a2 1D01     		.2byte	0x11d
 762 03a4 B4020000 		.4byte	0x2b4
 763 03a8 3C       		.byte	0x3c
 764 03a9 0C       		.uleb128 0xc
 765 03aa 723400   		.ascii	"r4\000"
 766 03ad 08       		.byte	0x8
 767 03ae 1F01     		.2byte	0x11f
 768 03b0 B4020000 		.4byte	0x2b4
 769 03b4 40       		.byte	0x40
 770 03b5 0C       		.uleb128 0xc
 771 03b6 723500   		.ascii	"r5\000"
 772 03b9 08       		.byte	0x8
 773 03ba 2001     		.2byte	0x120
 774 03bc B4020000 		.4byte	0x2b4
 775 03c0 44       		.byte	0x44
 776 03c1 0C       		.uleb128 0xc
 777 03c2 723600   		.ascii	"r6\000"
 778 03c5 08       		.byte	0x8
 779 03c6 2101     		.2byte	0x121
 780 03c8 B4020000 		.4byte	0x2b4
 781 03cc 48       		.byte	0x48
 782 03cd 0C       		.uleb128 0xc
 783 03ce 723700   		.ascii	"r7\000"
 784 03d1 08       		.byte	0x8
 785 03d2 2201     		.2byte	0x122
 786 03d4 B4020000 		.4byte	0x2b4
 787 03d8 4C       		.byte	0x4c
 788 03d9 0C       		.uleb128 0xc
 789 03da 723800   		.ascii	"r8\000"
 790 03dd 08       		.byte	0x8
 791 03de 2301     		.2byte	0x123
 792 03e0 B4020000 		.4byte	0x2b4
ARM GAS  /tmp/ccuHojyg.s 			page 15


 793 03e4 50       		.byte	0x50
 794 03e5 0C       		.uleb128 0xc
 795 03e6 723900   		.ascii	"r9\000"
 796 03e9 08       		.byte	0x8
 797 03ea 2401     		.2byte	0x124
 798 03ec B4020000 		.4byte	0x2b4
 799 03f0 54       		.byte	0x54
 800 03f1 0C       		.uleb128 0xc
 801 03f2 72313000 		.ascii	"r10\000"
 802 03f6 08       		.byte	0x8
 803 03f7 2501     		.2byte	0x125
 804 03f9 B4020000 		.4byte	0x2b4
 805 03fd 58       		.byte	0x58
 806 03fe 0C       		.uleb128 0xc
 807 03ff 72313100 		.ascii	"r11\000"
 808 0403 08       		.byte	0x8
 809 0404 2601     		.2byte	0x126
 810 0406 B4020000 		.4byte	0x2b4
 811 040a 5C       		.byte	0x5c
 812 040b 0C       		.uleb128 0xc
 813 040c 6C7200   		.ascii	"lr\000"
 814 040f 08       		.byte	0x8
 815 0410 2701     		.2byte	0x127
 816 0412 B4020000 		.4byte	0x2b4
 817 0416 60       		.byte	0x60
 818 0417 00       		.byte	0
 819 0418 0B       		.uleb128 0xb
 820 0419 19050000 		.4byte	.LASF56
 821 041d 04       		.byte	0x4
 822 041e 08       		.byte	0x8
 823 041f 3101     		.2byte	0x131
 824 0421 33040000 		.4byte	0x433
 825 0425 0C       		.uleb128 0xc
 826 0426 72313300 		.ascii	"r13\000"
 827 042a 08       		.byte	0x8
 828 042b 3201     		.2byte	0x132
 829 042d 33040000 		.4byte	0x433
 830 0431 00       		.byte	0
 831 0432 00       		.byte	0
 832 0433 09       		.uleb128 0x9
 833 0434 04       		.byte	0x4
 834 0435 CC020000 		.4byte	0x2cc
 835 0439 04       		.uleb128 0x4
 836 043a 04       		.byte	0x4
 837 043b 07       		.byte	0x7
 838 043c 12020000 		.4byte	.LASF57
 839 0440 0D       		.uleb128 0xd
 840 0441 43010000 		.4byte	0x143
 841 0445 05       		.uleb128 0x5
 842 0446 26020000 		.4byte	.LASF58
 843 044a 10       		.byte	0x10
 844 044b 09       		.byte	0x9
 845 044c 2C       		.byte	0x2c
 846 044d 76040000 		.4byte	0x476
 847 0451 06       		.uleb128 0x6
 848 0452 C4000000 		.4byte	.LASF59
 849 0456 09       		.byte	0x9
ARM GAS  /tmp/ccuHojyg.s 			page 16


 850 0457 2D       		.byte	0x2d
 851 0458 89020000 		.4byte	0x289
 852 045c 00       		.byte	0
 853 045d 06       		.uleb128 0x6
 854 045e EC050000 		.4byte	.LASF60
 855 0462 09       		.byte	0x9
 856 0463 2F       		.byte	0x2f
 857 0464 83020000 		.4byte	0x283
 858 0468 08       		.byte	0x8
 859 0469 06       		.uleb128 0x6
 860 046a C6040000 		.4byte	.LASF61
 861 046e 09       		.byte	0x9
 862 046f 31       		.byte	0x31
 863 0470 76040000 		.4byte	0x476
 864 0474 0C       		.byte	0xc
 865 0475 00       		.byte	0
 866 0476 09       		.uleb128 0x9
 867 0477 04       		.byte	0x4
 868 0478 45040000 		.4byte	0x445
 869 047c 03       		.uleb128 0x3
 870 047d 26020000 		.4byte	.LASF58
 871 0481 09       		.byte	0x9
 872 0482 33       		.byte	0x33
 873 0483 45040000 		.4byte	0x445
 874 0487 03       		.uleb128 0x3
 875 0488 28000000 		.4byte	.LASF62
 876 048c 0A       		.byte	0xa
 877 048d 2C       		.byte	0x2c
 878 048e 92040000 		.4byte	0x492
 879 0492 09       		.uleb128 0x9
 880 0493 04       		.byte	0x4
 881 0494 98040000 		.4byte	0x498
 882 0498 0E       		.uleb128 0xe
 883 0499 BF020000 		.4byte	0x2bf
 884 049d A7040000 		.4byte	0x4a7
 885 04a1 0F       		.uleb128 0xf
 886 04a2 2C000000 		.4byte	0x2c
 887 04a6 00       		.byte	0
 888 04a7 03       		.uleb128 0x3
 889 04a8 9B020000 		.4byte	.LASF63
 890 04ac 0B       		.byte	0xb
 891 04ad 34       		.byte	0x34
 892 04ae B2040000 		.4byte	0x4b2
 893 04b2 05       		.uleb128 0x5
 894 04b3 04060000 		.4byte	.LASF64
 895 04b7 20       		.byte	0x20
 896 04b8 0B       		.byte	0xb
 897 04b9 47       		.byte	0x47
 898 04ba E3040000 		.4byte	0x4e3
 899 04be 06       		.uleb128 0x6
 900 04bf E6000000 		.4byte	.LASF65
 901 04c3 0B       		.byte	0xb
 902 04c4 48       		.byte	0x48
 903 04c5 87040000 		.4byte	0x487
 904 04c9 00       		.byte	0
 905 04ca 06       		.uleb128 0x6
 906 04cb 55000000 		.4byte	.LASF66
ARM GAS  /tmp/ccuHojyg.s 			page 17


 907 04cf 0B       		.byte	0xb
 908 04d0 4A       		.byte	0x4a
 909 04d1 02050000 		.4byte	0x502
 910 04d5 08       		.byte	0x8
 911 04d6 06       		.uleb128 0x6
 912 04d7 AF000000 		.4byte	.LASF67
 913 04db 0B       		.byte	0xb
 914 04dc 4C       		.byte	0x4c
 915 04dd 7C040000 		.4byte	0x47c
 916 04e1 10       		.byte	0x10
 917 04e2 00       		.byte	0
 918 04e3 10       		.uleb128 0x10
 919 04e4 04       		.byte	0x4
 920 04e5 0B       		.byte	0xb
 921 04e6 3C       		.byte	0x3c
 922 04e7 02050000 		.4byte	0x502
 923 04eb 11       		.uleb128 0x11
 924 04ec 79000000 		.4byte	.LASF68
 925 04f0 0B       		.byte	0xb
 926 04f1 3D       		.byte	0x3d
 927 04f2 23050000 		.4byte	0x523
 928 04f6 11       		.uleb128 0x11
 929 04f7 AA040000 		.4byte	.LASF69
 930 04fb 0B       		.byte	0xb
 931 04fc 3E       		.byte	0x3e
 932 04fd 29050000 		.4byte	0x529
 933 0501 00       		.byte	0
 934 0502 12       		.uleb128 0x12
 935 0503 0A030000 		.4byte	.LASF112
 936 0507 08       		.byte	0x8
 937 0508 0B       		.byte	0xb
 938 0509 39       		.byte	0x39
 939 050a 23050000 		.4byte	0x523
 940 050e 11       		.uleb128 0x11
 941 050f 4A010000 		.4byte	.LASF70
 942 0513 0B       		.byte	0xb
 943 0514 3A       		.byte	0x3a
 944 0515 C1020000 		.4byte	0x2c1
 945 0519 13       		.uleb128 0x13
 946 051a 6800     		.ascii	"h\000"
 947 051c 0B       		.byte	0xb
 948 051d 41       		.byte	0x41
 949 051e 2F050000 		.4byte	0x52f
 950 0522 00       		.byte	0
 951 0523 09       		.uleb128 0x9
 952 0524 04       		.byte	0x4
 953 0525 02050000 		.4byte	0x502
 954 0529 09       		.uleb128 0x9
 955 052a 04       		.byte	0x4
 956 052b A7040000 		.4byte	0x4a7
 957 052f 08       		.uleb128 0x8
 958 0530 08       		.byte	0x8
 959 0531 0B       		.byte	0xb
 960 0532 3B       		.byte	0x3b
 961 0533 4E050000 		.4byte	0x54e
 962 0537 07       		.uleb128 0x7
 963 0538 7500     		.ascii	"u\000"
ARM GAS  /tmp/ccuHojyg.s 			page 18


 964 053a 0B       		.byte	0xb
 965 053b 3F       		.byte	0x3f
 966 053c E3040000 		.4byte	0x4e3
 967 0540 00       		.byte	0
 968 0541 06       		.uleb128 0x6
 969 0542 8D010000 		.4byte	.LASF71
 970 0546 0B       		.byte	0xb
 971 0547 40       		.byte	0x40
 972 0548 2C000000 		.4byte	0x2c
 973 054c 04       		.byte	0x4
 974 054d 00       		.byte	0
 975 054e 10       		.uleb128 0x10
 976 054f 04       		.byte	0x4
 977 0550 07       		.byte	0x7
 978 0551 96       		.byte	0x96
 979 0552 83050000 		.4byte	0x583
 980 0556 11       		.uleb128 0x11
 981 0557 0E000000 		.4byte	.LASF72
 982 055b 07       		.byte	0x7
 983 055c 9D       		.byte	0x9d
 984 055d 2D010000 		.4byte	0x12d
 985 0561 11       		.uleb128 0x11
 986 0562 4C000000 		.4byte	.LASF73
 987 0566 07       		.byte	0x7
 988 0567 A4       		.byte	0xa4
 989 0568 2D010000 		.4byte	0x12d
 990 056c 11       		.uleb128 0x11
 991 056d BB050000 		.4byte	.LASF74
 992 0571 07       		.byte	0x7
 993 0572 AB       		.byte	0xab
 994 0573 BF020000 		.4byte	0x2bf
 995 0577 11       		.uleb128 0x11
 996 0578 3C030000 		.4byte	.LASF75
 997 057c 07       		.byte	0x7
 998 057d B2       		.byte	0xb2
 999 057e 38010000 		.4byte	0x138
 1000 0582 00       		.byte	0
 1001 0583 09       		.uleb128 0x9
 1002 0584 04       		.byte	0x4
 1003 0585 89050000 		.4byte	0x589
 1004 0589 14       		.uleb128 0x14
 1005 058a 8E050000 		.4byte	0x58e
 1006 058e 04       		.uleb128 0x4
 1007 058f 01       		.byte	0x1
 1008 0590 08       		.byte	0x8
 1009 0591 C1040000 		.4byte	.LASF76
 1010 0595 09       		.uleb128 0x9
 1011 0596 04       		.byte	0x4
 1012 0597 C1020000 		.4byte	0x2c1
 1013 059b 09       		.uleb128 0x9
 1014 059c 04       		.byte	0x4
 1015 059d 7C040000 		.4byte	0x47c
 1016 05a1 0D       		.uleb128 0xd
 1017 05a2 C3000000 		.4byte	0xc3
 1018 05a6 03       		.uleb128 0x3
 1019 05a7 D2020000 		.4byte	.LASF77
 1020 05ab 0C       		.byte	0xc
ARM GAS  /tmp/ccuHojyg.s 			page 19


 1021 05ac 3E       		.byte	0x3e
 1022 05ad B1050000 		.4byte	0x5b1
 1023 05b1 09       		.uleb128 0x9
 1024 05b2 04       		.byte	0x4
 1025 05b3 B7050000 		.4byte	0x5b7
 1026 05b7 14       		.uleb128 0x14
 1027 05b8 BC050000 		.4byte	0x5bc
 1028 05bc 05       		.uleb128 0x5
 1029 05bd FE010000 		.4byte	.LASF78
 1030 05c1 1C       		.byte	0x1c
 1031 05c2 0D       		.byte	0xd
 1032 05c3 1D       		.byte	0x1d
 1033 05c4 65060000 		.4byte	0x665
 1034 05c8 06       		.uleb128 0x6
 1035 05c9 84040000 		.4byte	.LASF79
 1036 05cd 0D       		.byte	0xd
 1037 05ce 20       		.byte	0x20
 1038 05cf 83050000 		.4byte	0x583
 1039 05d3 00       		.byte	0
 1040 05d4 06       		.uleb128 0x6
 1041 05d5 1B020000 		.4byte	.LASF80
 1042 05d9 0D       		.byte	0xd
 1043 05da 23       		.byte	0x23
 1044 05db 83050000 		.4byte	0x583
 1045 05df 04       		.byte	0x4
 1046 05e0 06       		.uleb128 0x6
 1047 05e1 87010000 		.4byte	.LASF81
 1048 05e5 0D       		.byte	0xd
 1049 05e6 26       		.byte	0x26
 1050 05e7 AD000000 		.4byte	0xad
 1051 05eb 08       		.byte	0x8
 1052 05ec 06       		.uleb128 0x6
 1053 05ed CF050000 		.4byte	.LASF82
 1054 05f1 0D       		.byte	0xd
 1055 05f2 27       		.byte	0x27
 1056 05f3 AD000000 		.4byte	0xad
 1057 05f7 09       		.byte	0x9
 1058 05f8 06       		.uleb128 0x6
 1059 05f9 97050000 		.4byte	.LASF83
 1060 05fd 0D       		.byte	0xd
 1061 05fe 2A       		.byte	0x2a
 1062 05ff AD000000 		.4byte	0xad
 1063 0603 0A       		.byte	0xa
 1064 0604 06       		.uleb128 0x6
 1065 0605 84050000 		.4byte	.LASF84
 1066 0609 0D       		.byte	0xd
 1067 060a 2B       		.byte	0x2b
 1068 060b AD000000 		.4byte	0xad
 1069 060f 0B       		.byte	0xb
 1070 0610 06       		.uleb128 0x6
 1071 0611 D6050000 		.4byte	.LASF85
 1072 0615 0D       		.byte	0xd
 1073 0616 2E       		.byte	0x2e
 1074 0617 AD000000 		.4byte	0xad
 1075 061b 0C       		.byte	0xc
 1076 061c 06       		.uleb128 0x6
 1077 061d E1050000 		.4byte	.LASF86
ARM GAS  /tmp/ccuHojyg.s 			page 20


 1078 0621 0D       		.byte	0xd
 1079 0622 2F       		.byte	0x2f
 1080 0623 AD000000 		.4byte	0xad
 1081 0627 0D       		.byte	0xd
 1082 0628 06       		.uleb128 0x6
 1083 0629 A5010000 		.4byte	.LASF87
 1084 062d 0D       		.byte	0xd
 1085 062e 32       		.byte	0x32
 1086 062f AD000000 		.4byte	0xad
 1087 0633 0E       		.byte	0xe
 1088 0634 06       		.uleb128 0x6
 1089 0635 AD050000 		.4byte	.LASF88
 1090 0639 0D       		.byte	0xd
 1091 063a 35       		.byte	0x35
 1092 063b AD000000 		.4byte	0xad
 1093 063f 0F       		.byte	0xf
 1094 0640 06       		.uleb128 0x6
 1095 0641 B1010000 		.4byte	.LASF89
 1096 0645 0D       		.byte	0xd
 1097 0646 38       		.byte	0x38
 1098 0647 65060000 		.4byte	0x665
 1099 064b 10       		.byte	0x10
 1100 064c 06       		.uleb128 0x6
 1101 064d 2C020000 		.4byte	.LASF90
 1102 0651 0D       		.byte	0xd
 1103 0652 3C       		.byte	0x3c
 1104 0653 B4060000 		.4byte	0x6b4
 1105 0657 14       		.byte	0x14
 1106 0658 06       		.uleb128 0x6
 1107 0659 EC040000 		.4byte	.LASF91
 1108 065d 0D       		.byte	0xd
 1109 065e 40       		.byte	0x40
 1110 065f E2060000 		.4byte	0x6e2
 1111 0663 18       		.byte	0x18
 1112 0664 00       		.byte	0
 1113 0665 03       		.uleb128 0x3
 1114 0666 85000000 		.4byte	.LASF92
 1115 066a 0E       		.byte	0xe
 1116 066b 16       		.byte	0x16
 1117 066c 8E050000 		.4byte	0x58e
 1118 0670 03       		.uleb128 0x3
 1119 0671 05050000 		.4byte	.LASF93
 1120 0675 0D       		.byte	0xd
 1121 0676 19       		.byte	0x19
 1122 0677 7B060000 		.4byte	0x67b
 1123 067b 09       		.uleb128 0x9
 1124 067c 04       		.byte	0x4
 1125 067d 81060000 		.4byte	0x681
 1126 0681 15       		.uleb128 0x15
 1127 0682 A0060000 		.4byte	0x6a0
 1128 0686 0F       		.uleb128 0xf
 1129 0687 B8000000 		.4byte	0xb8
 1130 068b 0F       		.uleb128 0xf
 1131 068c B8000000 		.4byte	0xb8
 1132 0690 0F       		.uleb128 0xf
 1133 0691 AD000000 		.4byte	0xad
 1134 0695 0F       		.uleb128 0xf
ARM GAS  /tmp/ccuHojyg.s 			page 21


 1135 0696 AD000000 		.4byte	0xad
 1136 069a 0F       		.uleb128 0xf
 1137 069b BF020000 		.4byte	0x2bf
 1138 069f 00       		.byte	0
 1139 06a0 0E       		.uleb128 0xe
 1140 06a1 AD000000 		.4byte	0xad
 1141 06a5 B4060000 		.4byte	0x6b4
 1142 06a9 0F       		.uleb128 0xf
 1143 06aa B1050000 		.4byte	0x5b1
 1144 06ae 0F       		.uleb128 0xf
 1145 06af 65060000 		.4byte	0x665
 1146 06b3 00       		.byte	0
 1147 06b4 09       		.uleb128 0x9
 1148 06b5 04       		.byte	0x4
 1149 06b6 A0060000 		.4byte	0x6a0
 1150 06ba 0E       		.uleb128 0xe
 1151 06bb AD000000 		.4byte	0xad
 1152 06bf E2060000 		.4byte	0x6e2
 1153 06c3 0F       		.uleb128 0xf
 1154 06c4 B1050000 		.4byte	0x5b1
 1155 06c8 0F       		.uleb128 0xf
 1156 06c9 B8000000 		.4byte	0xb8
 1157 06cd 0F       		.uleb128 0xf
 1158 06ce B8000000 		.4byte	0xb8
 1159 06d2 0F       		.uleb128 0xf
 1160 06d3 65060000 		.4byte	0x665
 1161 06d7 0F       		.uleb128 0xf
 1162 06d8 70060000 		.4byte	0x670
 1163 06dc 0F       		.uleb128 0xf
 1164 06dd BF020000 		.4byte	0x2bf
 1165 06e1 00       		.byte	0
 1166 06e2 09       		.uleb128 0x9
 1167 06e3 04       		.byte	0x4
 1168 06e4 BA060000 		.4byte	0x6ba
 1169 06e8 05       		.uleb128 0x5
 1170 06e9 D7000000 		.4byte	.LASF94
 1171 06ed 08       		.byte	0x8
 1172 06ee 0D       		.byte	0xd
 1173 06ef 4C       		.byte	0x4c
 1174 06f0 0D070000 		.4byte	0x70d
 1175 06f4 06       		.uleb128 0x6
 1176 06f5 79000000 		.4byte	.LASF68
 1177 06f9 0D       		.byte	0xd
 1178 06fa 4E       		.byte	0x4e
 1179 06fb 0D070000 		.4byte	0x70d
 1180 06ff 00       		.byte	0
 1181 0700 06       		.uleb128 0x6
 1182 0701 92050000 		.4byte	.LASF95
 1183 0705 0D       		.byte	0xd
 1184 0706 4F       		.byte	0x4f
 1185 0707 B1050000 		.4byte	0x5b1
 1186 070b 04       		.byte	0x4
 1187 070c 00       		.byte	0
 1188 070d 09       		.uleb128 0x9
 1189 070e 04       		.byte	0x4
 1190 070f 13070000 		.4byte	0x713
 1191 0713 14       		.uleb128 0x14
ARM GAS  /tmp/ccuHojyg.s 			page 22


 1192 0714 E8060000 		.4byte	0x6e8
 1193 0718 05       		.uleb128 0x5
 1194 0719 69000000 		.4byte	.LASF96
 1195 071d 24       		.byte	0x24
 1196 071e 0F       		.byte	0xf
 1197 071f 11       		.byte	0x11
 1198 0720 55070000 		.4byte	0x755
 1199 0724 06       		.uleb128 0x6
 1200 0725 92050000 		.4byte	.LASF95
 1201 0729 0F       		.byte	0xf
 1202 072a 13       		.byte	0x13
 1203 072b BC050000 		.4byte	0x5bc
 1204 072f 00       		.byte	0
 1205 0730 06       		.uleb128 0x6
 1206 0731 23010000 		.4byte	.LASF97
 1207 0735 0F       		.byte	0xf
 1208 0736 15       		.byte	0x15
 1209 0737 B1050000 		.4byte	0x5b1
 1210 073b 1C       		.byte	0x1c
 1211 073c 06       		.uleb128 0x6
 1212 073d C2020000 		.4byte	.LASF98
 1213 0741 0F       		.byte	0xf
 1214 0742 16       		.byte	0x16
 1215 0743 AD000000 		.4byte	0xad
 1216 0747 20       		.byte	0x20
 1217 0748 06       		.uleb128 0x6
 1218 0749 7A010000 		.4byte	.LASF99
 1219 074d 0F       		.byte	0xf
 1220 074e 17       		.byte	0x17
 1221 074f AD000000 		.4byte	0xad
 1222 0753 21       		.byte	0x21
 1223 0754 00       		.byte	0
 1224 0755 16       		.uleb128 0x16
 1225 0756 08020000 		.4byte	.LASF113
 1226 075a 01       		.byte	0x1
 1227 075b 1C       		.byte	0x1c
 1228 075c E4000000 		.4byte	0xe4
 1229 0760 00000000 		.4byte	.LFB118
 1230 0764 48000000 		.4byte	.LFE118-.LFB118
 1231 0768 01       		.uleb128 0x1
 1232 0769 9C       		.byte	0x9c
 1233 076a 8D070000 		.4byte	0x78d
 1234 076e 17       		.uleb128 0x17
 1235 076f 93020000 		.4byte	.LASF100
 1236 0773 01       		.byte	0x1
 1237 0774 1C       		.byte	0x1c
 1238 0775 83050000 		.4byte	0x583
 1239 0779 00000000 		.4byte	.LLST0
 1240 077d 17       		.uleb128 0x17
 1241 077e 82010000 		.4byte	.LASF101
 1242 0782 01       		.byte	0x1
 1243 0783 1C       		.byte	0x1c
 1244 0784 83050000 		.4byte	0x583
 1245 0788 41000000 		.4byte	.LLST1
 1246 078c 00       		.byte	0
 1247 078d 18       		.uleb128 0x18
 1248 078e 44020000 		.4byte	.LASF103
ARM GAS  /tmp/ccuHojyg.s 			page 23


 1249 0792 01       		.byte	0x1
 1250 0793 33       		.byte	0x33
 1251 0794 A6050000 		.4byte	0x5a6
 1252 0798 00000000 		.4byte	.LFB119
 1253 079c 4E000000 		.4byte	.LFE119-.LFB119
 1254 07a0 01       		.uleb128 0x1
 1255 07a1 9C       		.byte	0x9c
 1256 07a2 03080000 		.4byte	0x803
 1257 07a6 17       		.uleb128 0x17
 1258 07a7 82010000 		.4byte	.LASF101
 1259 07ab 01       		.byte	0x1
 1260 07ac 33       		.byte	0x33
 1261 07ad 83050000 		.4byte	0x583
 1262 07b1 A7000000 		.4byte	.LLST2
 1263 07b5 19       		.uleb128 0x19
 1264 07b6 667000   		.ascii	"fp\000"
 1265 07b9 01       		.byte	0x1
 1266 07ba 34       		.byte	0x34
 1267 07bb 0D070000 		.4byte	0x70d
 1268 07bf C5000000 		.4byte	.LLST3
 1269 07c3 1A       		.uleb128 0x1a
 1270 07c4 08000000 		.4byte	.LVL14
 1271 07c8 24090000 		.4byte	0x924
 1272 07cc 1B       		.uleb128 0x1b
 1273 07cd 1C000000 		.4byte	.LVL17
 1274 07d1 55070000 		.4byte	0x755
 1275 07d5 E0070000 		.4byte	0x7e0
 1276 07d9 1C       		.uleb128 0x1c
 1277 07da 01       		.uleb128 0x1
 1278 07db 50       		.byte	0x50
 1279 07dc 02       		.uleb128 0x2
 1280 07dd 76       		.byte	0x76
 1281 07de 00       		.sleb128 0
 1282 07df 00       		.byte	0
 1283 07e0 1A       		.uleb128 0x1a
 1284 07e1 28000000 		.4byte	.LVL19
 1285 07e5 24090000 		.4byte	0x924
 1286 07e9 1A       		.uleb128 0x1a
 1287 07ea 30000000 		.4byte	.LVL21
 1288 07ee 24090000 		.4byte	0x924
 1289 07f2 1D       		.uleb128 0x1d
 1290 07f3 46000000 		.4byte	.LVL24
 1291 07f7 55070000 		.4byte	0x755
 1292 07fb 1C       		.uleb128 0x1c
 1293 07fc 01       		.uleb128 0x1
 1294 07fd 50       		.byte	0x50
 1295 07fe 02       		.uleb128 0x2
 1296 07ff 76       		.byte	0x76
 1297 0800 00       		.sleb128 0
 1298 0801 00       		.byte	0
 1299 0802 00       		.byte	0
 1300 0803 1E       		.uleb128 0x1e
 1301 0804 C4010000 		.4byte	.LASF114
 1302 0808 01       		.byte	0x1
 1303 0809 47       		.byte	0x47
 1304 080a 00000000 		.4byte	.LFB120
 1305 080e 12000000 		.4byte	.LFE120-.LFB120
ARM GAS  /tmp/ccuHojyg.s 			page 24


 1306 0812 01       		.uleb128 0x1
 1307 0813 9C       		.byte	0x9c
 1308 0814 52080000 		.4byte	0x852
 1309 0818 17       		.uleb128 0x17
 1310 0819 92050000 		.4byte	.LASF95
 1311 081d 01       		.byte	0x1
 1312 081e 47       		.byte	0x47
 1313 081f A6050000 		.4byte	0x5a6
 1314 0823 F9000000 		.4byte	.LLST4
 1315 0827 1F       		.uleb128 0x1f
 1316 0828 0A000000 		.4byte	.LBB2
 1317 082c 08000000 		.4byte	.LBE2-.LBB2
 1318 0830 20       		.uleb128 0x20
 1319 0831 6B040000 		.4byte	.LASF102
 1320 0835 01       		.byte	0x1
 1321 0836 4A       		.byte	0x4a
 1322 0837 52080000 		.4byte	0x852
 1323 083b 1A010000 		.4byte	.LLST5
 1324 083f 21       		.uleb128 0x21
 1325 0840 12000000 		.4byte	.LVL27
 1326 0844 2F090000 		.4byte	0x92f
 1327 0848 1C       		.uleb128 0x1c
 1328 0849 01       		.uleb128 0x1
 1329 084a 50       		.byte	0x50
 1330 084b 03       		.uleb128 0x3
 1331 084c F3       		.byte	0xf3
 1332 084d 01       		.uleb128 0x1
 1333 084e 50       		.byte	0x50
 1334 084f 00       		.byte	0
 1335 0850 00       		.byte	0
 1336 0851 00       		.byte	0
 1337 0852 09       		.uleb128 0x9
 1338 0853 04       		.byte	0x4
 1339 0854 BC050000 		.4byte	0x5bc
 1340 0858 18       		.uleb128 0x18
 1341 0859 64050000 		.4byte	.LASF104
 1342 085d 01       		.byte	0x1
 1343 085e 54       		.byte	0x54
 1344 085f A6050000 		.4byte	0x5a6
 1345 0863 00000000 		.4byte	.LFB121
 1346 0867 20000000 		.4byte	.LFE121-.LFB121
 1347 086b 01       		.uleb128 0x1
 1348 086c 9C       		.byte	0x9c
 1349 086d E9080000 		.4byte	0x8e9
 1350 0871 17       		.uleb128 0x17
 1351 0872 92050000 		.4byte	.LASF95
 1352 0876 01       		.byte	0x1
 1353 0877 54       		.byte	0x54
 1354 0878 A6050000 		.4byte	0x5a6
 1355 087c 3B010000 		.4byte	.LLST6
 1356 0880 17       		.uleb128 0x17
 1357 0881 FD040000 		.4byte	.LASF105
 1358 0885 01       		.byte	0x1
 1359 0886 54       		.byte	0x54
 1360 0887 AD000000 		.4byte	0xad
 1361 088b 59010000 		.4byte	.LLST7
 1362 088f 17       		.uleb128 0x17
ARM GAS  /tmp/ccuHojyg.s 			page 25


 1363 0890 B3050000 		.4byte	.LASF106
 1364 0894 01       		.byte	0x1
 1365 0895 54       		.byte	0x54
 1366 0896 AD000000 		.4byte	0xad
 1367 089a 7A010000 		.4byte	.LLST8
 1368 089e 20       		.uleb128 0x20
 1369 089f A2040000 		.4byte	.LASF107
 1370 08a3 01       		.byte	0x1
 1371 08a4 56       		.byte	0x56
 1372 08a5 E9080000 		.4byte	0x8e9
 1373 08a9 9B010000 		.4byte	.LLST9
 1374 08ad 1B       		.uleb128 0x1b
 1375 08ae 10000000 		.4byte	.LVL31
 1376 08b2 40090000 		.4byte	0x940
 1377 08b6 C6080000 		.4byte	0x8c6
 1378 08ba 1C       		.uleb128 0x1c
 1379 08bb 01       		.uleb128 0x1
 1380 08bc 51       		.byte	0x51
 1381 08bd 02       		.uleb128 0x2
 1382 08be 08       		.byte	0x8
 1383 08bf 24       		.byte	0x24
 1384 08c0 1C       		.uleb128 0x1c
 1385 08c1 01       		.uleb128 0x1
 1386 08c2 50       		.byte	0x50
 1387 08c3 01       		.uleb128 0x1
 1388 08c4 30       		.byte	0x30
 1389 08c5 00       		.byte	0
 1390 08c6 1D       		.uleb128 0x1d
 1391 08c7 1C000000 		.4byte	.LVL33
 1392 08cb 5A090000 		.4byte	0x95a
 1393 08cf 1C       		.uleb128 0x1c
 1394 08d0 01       		.uleb128 0x1
 1395 08d1 53       		.byte	0x53
 1396 08d2 02       		.uleb128 0x2
 1397 08d3 75       		.byte	0x75
 1398 08d4 00       		.sleb128 0
 1399 08d5 1C       		.uleb128 0x1c
 1400 08d6 01       		.uleb128 0x1
 1401 08d7 52       		.byte	0x52
 1402 08d8 02       		.uleb128 0x2
 1403 08d9 76       		.byte	0x76
 1404 08da 00       		.sleb128 0
 1405 08db 1C       		.uleb128 0x1c
 1406 08dc 01       		.uleb128 0x1
 1407 08dd 51       		.byte	0x51
 1408 08de 02       		.uleb128 0x2
 1409 08df 77       		.byte	0x77
 1410 08e0 00       		.sleb128 0
 1411 08e1 1C       		.uleb128 0x1c
 1412 08e2 01       		.uleb128 0x1
 1413 08e3 50       		.byte	0x50
 1414 08e4 02       		.uleb128 0x2
 1415 08e5 74       		.byte	0x74
 1416 08e6 00       		.sleb128 0
 1417 08e7 00       		.byte	0
 1418 08e8 00       		.byte	0
 1419 08e9 09       		.uleb128 0x9
ARM GAS  /tmp/ccuHojyg.s 			page 26


 1420 08ea 04       		.byte	0x4
 1421 08eb 18070000 		.4byte	0x718
 1422 08ef 18       		.uleb128 0x18
 1423 08f0 B1020000 		.4byte	.LASF108
 1424 08f4 01       		.byte	0x1
 1425 08f5 5B       		.byte	0x5b
 1426 08f6 83050000 		.4byte	0x583
 1427 08fa 00000000 		.4byte	.LFB122
 1428 08fe 04000000 		.4byte	.LFE122-.LFB122
 1429 0902 01       		.uleb128 0x1
 1430 0903 9C       		.byte	0x9c
 1431 0904 18090000 		.4byte	0x918
 1432 0908 17       		.uleb128 0x17
 1433 0909 92050000 		.4byte	.LASF95
 1434 090d 01       		.byte	0x1
 1435 090e 5B       		.byte	0x5b
 1436 090f A6050000 		.4byte	0x5a6
 1437 0913 B9010000 		.4byte	.LLST10
 1438 0917 00       		.byte	0
 1439 0918 22       		.uleb128 0x22
 1440 0919 5C000000 		.4byte	.LASF115
 1441 091d 10       		.byte	0x10
 1442 091e 9806     		.2byte	0x698
 1443 0920 A1050000 		.4byte	0x5a1
 1444 0924 23       		.uleb128 0x23
 1445 0925 73050000 		.4byte	.LASF116
 1446 0929 0D       		.byte	0xd
 1447 092a 7B       		.byte	0x7b
 1448 092b 0D070000 		.4byte	0x70d
 1449 092f 24       		.uleb128 0x24
 1450 0930 CC000000 		.4byte	.LASF117
 1451 0934 0B       		.byte	0xb
 1452 0935 5A       		.byte	0x5a
 1453 0936 40090000 		.4byte	0x940
 1454 093a 0F       		.uleb128 0xf
 1455 093b BF020000 		.4byte	0x2bf
 1456 093f 00       		.byte	0
 1457 0940 25       		.uleb128 0x25
 1458 0941 78040000 		.4byte	.LASF118
 1459 0945 0B       		.byte	0xb
 1460 0946 59       		.byte	0x59
 1461 0947 BF020000 		.4byte	0x2bf
 1462 094b 5A090000 		.4byte	0x95a
 1463 094f 0F       		.uleb128 0xf
 1464 0950 29050000 		.4byte	0x529
 1465 0954 0F       		.uleb128 0xf
 1466 0955 2C000000 		.4byte	0x2c
 1467 0959 00       		.byte	0
 1468 095a 26       		.uleb128 0x26
 1469 095b FB000000 		.4byte	.LASF119
 1470 095f 0F       		.byte	0xf
 1471 0960 1A       		.byte	0x1a
 1472 0961 0F       		.uleb128 0xf
 1473 0962 E9080000 		.4byte	0x8e9
 1474 0966 0F       		.uleb128 0xf
 1475 0967 B1050000 		.4byte	0x5b1
 1476 096b 0F       		.uleb128 0xf
ARM GAS  /tmp/ccuHojyg.s 			page 27


 1477 096c AD000000 		.4byte	0xad
 1478 0970 0F       		.uleb128 0xf
 1479 0971 AD000000 		.4byte	0xad
 1480 0975 00       		.byte	0
 1481 0976 00       		.byte	0
 1482              		.section	.debug_abbrev,"",%progbits
 1483              	.Ldebug_abbrev0:
 1484 0000 01       		.uleb128 0x1
 1485 0001 11       		.uleb128 0x11
 1486 0002 01       		.byte	0x1
 1487 0003 25       		.uleb128 0x25
 1488 0004 0E       		.uleb128 0xe
 1489 0005 13       		.uleb128 0x13
 1490 0006 0B       		.uleb128 0xb
 1491 0007 03       		.uleb128 0x3
 1492 0008 0E       		.uleb128 0xe
 1493 0009 1B       		.uleb128 0x1b
 1494 000a 0E       		.uleb128 0xe
 1495 000b 55       		.uleb128 0x55
 1496 000c 17       		.uleb128 0x17
 1497 000d 11       		.uleb128 0x11
 1498 000e 01       		.uleb128 0x1
 1499 000f 10       		.uleb128 0x10
 1500 0010 17       		.uleb128 0x17
 1501 0011 00       		.byte	0
 1502 0012 00       		.byte	0
 1503 0013 02       		.uleb128 0x2
 1504 0014 24       		.uleb128 0x24
 1505 0015 00       		.byte	0
 1506 0016 0B       		.uleb128 0xb
 1507 0017 0B       		.uleb128 0xb
 1508 0018 3E       		.uleb128 0x3e
 1509 0019 0B       		.uleb128 0xb
 1510 001a 03       		.uleb128 0x3
 1511 001b 08       		.uleb128 0x8
 1512 001c 00       		.byte	0
 1513 001d 00       		.byte	0
 1514 001e 03       		.uleb128 0x3
 1515 001f 16       		.uleb128 0x16
 1516 0020 00       		.byte	0
 1517 0021 03       		.uleb128 0x3
 1518 0022 0E       		.uleb128 0xe
 1519 0023 3A       		.uleb128 0x3a
 1520 0024 0B       		.uleb128 0xb
 1521 0025 3B       		.uleb128 0x3b
 1522 0026 0B       		.uleb128 0xb
 1523 0027 49       		.uleb128 0x49
 1524 0028 13       		.uleb128 0x13
 1525 0029 00       		.byte	0
 1526 002a 00       		.byte	0
 1527 002b 04       		.uleb128 0x4
 1528 002c 24       		.uleb128 0x24
 1529 002d 00       		.byte	0
 1530 002e 0B       		.uleb128 0xb
 1531 002f 0B       		.uleb128 0xb
 1532 0030 3E       		.uleb128 0x3e
 1533 0031 0B       		.uleb128 0xb
ARM GAS  /tmp/ccuHojyg.s 			page 28


 1534 0032 03       		.uleb128 0x3
 1535 0033 0E       		.uleb128 0xe
 1536 0034 00       		.byte	0
 1537 0035 00       		.byte	0
 1538 0036 05       		.uleb128 0x5
 1539 0037 13       		.uleb128 0x13
 1540 0038 01       		.byte	0x1
 1541 0039 03       		.uleb128 0x3
 1542 003a 0E       		.uleb128 0xe
 1543 003b 0B       		.uleb128 0xb
 1544 003c 0B       		.uleb128 0xb
 1545 003d 3A       		.uleb128 0x3a
 1546 003e 0B       		.uleb128 0xb
 1547 003f 3B       		.uleb128 0x3b
 1548 0040 0B       		.uleb128 0xb
 1549 0041 01       		.uleb128 0x1
 1550 0042 13       		.uleb128 0x13
 1551 0043 00       		.byte	0
 1552 0044 00       		.byte	0
 1553 0045 06       		.uleb128 0x6
 1554 0046 0D       		.uleb128 0xd
 1555 0047 00       		.byte	0
 1556 0048 03       		.uleb128 0x3
 1557 0049 0E       		.uleb128 0xe
 1558 004a 3A       		.uleb128 0x3a
 1559 004b 0B       		.uleb128 0xb
 1560 004c 3B       		.uleb128 0x3b
 1561 004d 0B       		.uleb128 0xb
 1562 004e 49       		.uleb128 0x49
 1563 004f 13       		.uleb128 0x13
 1564 0050 38       		.uleb128 0x38
 1565 0051 0B       		.uleb128 0xb
 1566 0052 00       		.byte	0
 1567 0053 00       		.byte	0
 1568 0054 07       		.uleb128 0x7
 1569 0055 0D       		.uleb128 0xd
 1570 0056 00       		.byte	0
 1571 0057 03       		.uleb128 0x3
 1572 0058 08       		.uleb128 0x8
 1573 0059 3A       		.uleb128 0x3a
 1574 005a 0B       		.uleb128 0xb
 1575 005b 3B       		.uleb128 0x3b
 1576 005c 0B       		.uleb128 0xb
 1577 005d 49       		.uleb128 0x49
 1578 005e 13       		.uleb128 0x13
 1579 005f 38       		.uleb128 0x38
 1580 0060 0B       		.uleb128 0xb
 1581 0061 00       		.byte	0
 1582 0062 00       		.byte	0
 1583 0063 08       		.uleb128 0x8
 1584 0064 13       		.uleb128 0x13
 1585 0065 01       		.byte	0x1
 1586 0066 0B       		.uleb128 0xb
 1587 0067 0B       		.uleb128 0xb
 1588 0068 3A       		.uleb128 0x3a
 1589 0069 0B       		.uleb128 0xb
 1590 006a 3B       		.uleb128 0x3b
ARM GAS  /tmp/ccuHojyg.s 			page 29


 1591 006b 0B       		.uleb128 0xb
 1592 006c 01       		.uleb128 0x1
 1593 006d 13       		.uleb128 0x13
 1594 006e 00       		.byte	0
 1595 006f 00       		.byte	0
 1596 0070 09       		.uleb128 0x9
 1597 0071 0F       		.uleb128 0xf
 1598 0072 00       		.byte	0
 1599 0073 0B       		.uleb128 0xb
 1600 0074 0B       		.uleb128 0xb
 1601 0075 49       		.uleb128 0x49
 1602 0076 13       		.uleb128 0x13
 1603 0077 00       		.byte	0
 1604 0078 00       		.byte	0
 1605 0079 0A       		.uleb128 0xa
 1606 007a 0F       		.uleb128 0xf
 1607 007b 00       		.byte	0
 1608 007c 0B       		.uleb128 0xb
 1609 007d 0B       		.uleb128 0xb
 1610 007e 00       		.byte	0
 1611 007f 00       		.byte	0
 1612 0080 0B       		.uleb128 0xb
 1613 0081 13       		.uleb128 0x13
 1614 0082 01       		.byte	0x1
 1615 0083 03       		.uleb128 0x3
 1616 0084 0E       		.uleb128 0xe
 1617 0085 0B       		.uleb128 0xb
 1618 0086 0B       		.uleb128 0xb
 1619 0087 3A       		.uleb128 0x3a
 1620 0088 0B       		.uleb128 0xb
 1621 0089 3B       		.uleb128 0x3b
 1622 008a 05       		.uleb128 0x5
 1623 008b 01       		.uleb128 0x1
 1624 008c 13       		.uleb128 0x13
 1625 008d 00       		.byte	0
 1626 008e 00       		.byte	0
 1627 008f 0C       		.uleb128 0xc
 1628 0090 0D       		.uleb128 0xd
 1629 0091 00       		.byte	0
 1630 0092 03       		.uleb128 0x3
 1631 0093 08       		.uleb128 0x8
 1632 0094 3A       		.uleb128 0x3a
 1633 0095 0B       		.uleb128 0xb
 1634 0096 3B       		.uleb128 0x3b
 1635 0097 05       		.uleb128 0x5
 1636 0098 49       		.uleb128 0x49
 1637 0099 13       		.uleb128 0x13
 1638 009a 38       		.uleb128 0x38
 1639 009b 0B       		.uleb128 0xb
 1640 009c 00       		.byte	0
 1641 009d 00       		.byte	0
 1642 009e 0D       		.uleb128 0xd
 1643 009f 35       		.uleb128 0x35
 1644 00a0 00       		.byte	0
 1645 00a1 49       		.uleb128 0x49
 1646 00a2 13       		.uleb128 0x13
 1647 00a3 00       		.byte	0
ARM GAS  /tmp/ccuHojyg.s 			page 30


 1648 00a4 00       		.byte	0
 1649 00a5 0E       		.uleb128 0xe
 1650 00a6 15       		.uleb128 0x15
 1651 00a7 01       		.byte	0x1
 1652 00a8 27       		.uleb128 0x27
 1653 00a9 19       		.uleb128 0x19
 1654 00aa 49       		.uleb128 0x49
 1655 00ab 13       		.uleb128 0x13
 1656 00ac 01       		.uleb128 0x1
 1657 00ad 13       		.uleb128 0x13
 1658 00ae 00       		.byte	0
 1659 00af 00       		.byte	0
 1660 00b0 0F       		.uleb128 0xf
 1661 00b1 05       		.uleb128 0x5
 1662 00b2 00       		.byte	0
 1663 00b3 49       		.uleb128 0x49
 1664 00b4 13       		.uleb128 0x13
 1665 00b5 00       		.byte	0
 1666 00b6 00       		.byte	0
 1667 00b7 10       		.uleb128 0x10
 1668 00b8 17       		.uleb128 0x17
 1669 00b9 01       		.byte	0x1
 1670 00ba 0B       		.uleb128 0xb
 1671 00bb 0B       		.uleb128 0xb
 1672 00bc 3A       		.uleb128 0x3a
 1673 00bd 0B       		.uleb128 0xb
 1674 00be 3B       		.uleb128 0x3b
 1675 00bf 0B       		.uleb128 0xb
 1676 00c0 01       		.uleb128 0x1
 1677 00c1 13       		.uleb128 0x13
 1678 00c2 00       		.byte	0
 1679 00c3 00       		.byte	0
 1680 00c4 11       		.uleb128 0x11
 1681 00c5 0D       		.uleb128 0xd
 1682 00c6 00       		.byte	0
 1683 00c7 03       		.uleb128 0x3
 1684 00c8 0E       		.uleb128 0xe
 1685 00c9 3A       		.uleb128 0x3a
 1686 00ca 0B       		.uleb128 0xb
 1687 00cb 3B       		.uleb128 0x3b
 1688 00cc 0B       		.uleb128 0xb
 1689 00cd 49       		.uleb128 0x49
 1690 00ce 13       		.uleb128 0x13
 1691 00cf 00       		.byte	0
 1692 00d0 00       		.byte	0
 1693 00d1 12       		.uleb128 0x12
 1694 00d2 17       		.uleb128 0x17
 1695 00d3 01       		.byte	0x1
 1696 00d4 03       		.uleb128 0x3
 1697 00d5 0E       		.uleb128 0xe
 1698 00d6 0B       		.uleb128 0xb
 1699 00d7 0B       		.uleb128 0xb
 1700 00d8 3A       		.uleb128 0x3a
 1701 00d9 0B       		.uleb128 0xb
 1702 00da 3B       		.uleb128 0x3b
 1703 00db 0B       		.uleb128 0xb
 1704 00dc 01       		.uleb128 0x1
ARM GAS  /tmp/ccuHojyg.s 			page 31


 1705 00dd 13       		.uleb128 0x13
 1706 00de 00       		.byte	0
 1707 00df 00       		.byte	0
 1708 00e0 13       		.uleb128 0x13
 1709 00e1 0D       		.uleb128 0xd
 1710 00e2 00       		.byte	0
 1711 00e3 03       		.uleb128 0x3
 1712 00e4 08       		.uleb128 0x8
 1713 00e5 3A       		.uleb128 0x3a
 1714 00e6 0B       		.uleb128 0xb
 1715 00e7 3B       		.uleb128 0x3b
 1716 00e8 0B       		.uleb128 0xb
 1717 00e9 49       		.uleb128 0x49
 1718 00ea 13       		.uleb128 0x13
 1719 00eb 00       		.byte	0
 1720 00ec 00       		.byte	0
 1721 00ed 14       		.uleb128 0x14
 1722 00ee 26       		.uleb128 0x26
 1723 00ef 00       		.byte	0
 1724 00f0 49       		.uleb128 0x49
 1725 00f1 13       		.uleb128 0x13
 1726 00f2 00       		.byte	0
 1727 00f3 00       		.byte	0
 1728 00f4 15       		.uleb128 0x15
 1729 00f5 15       		.uleb128 0x15
 1730 00f6 01       		.byte	0x1
 1731 00f7 27       		.uleb128 0x27
 1732 00f8 19       		.uleb128 0x19
 1733 00f9 01       		.uleb128 0x1
 1734 00fa 13       		.uleb128 0x13
 1735 00fb 00       		.byte	0
 1736 00fc 00       		.byte	0
 1737 00fd 16       		.uleb128 0x16
 1738 00fe 2E       		.uleb128 0x2e
 1739 00ff 01       		.byte	0x1
 1740 0100 03       		.uleb128 0x3
 1741 0101 0E       		.uleb128 0xe
 1742 0102 3A       		.uleb128 0x3a
 1743 0103 0B       		.uleb128 0xb
 1744 0104 3B       		.uleb128 0x3b
 1745 0105 0B       		.uleb128 0xb
 1746 0106 27       		.uleb128 0x27
 1747 0107 19       		.uleb128 0x19
 1748 0108 49       		.uleb128 0x49
 1749 0109 13       		.uleb128 0x13
 1750 010a 11       		.uleb128 0x11
 1751 010b 01       		.uleb128 0x1
 1752 010c 12       		.uleb128 0x12
 1753 010d 06       		.uleb128 0x6
 1754 010e 40       		.uleb128 0x40
 1755 010f 18       		.uleb128 0x18
 1756 0110 9742     		.uleb128 0x2117
 1757 0112 19       		.uleb128 0x19
 1758 0113 01       		.uleb128 0x1
 1759 0114 13       		.uleb128 0x13
 1760 0115 00       		.byte	0
 1761 0116 00       		.byte	0
ARM GAS  /tmp/ccuHojyg.s 			page 32


 1762 0117 17       		.uleb128 0x17
 1763 0118 05       		.uleb128 0x5
 1764 0119 00       		.byte	0
 1765 011a 03       		.uleb128 0x3
 1766 011b 0E       		.uleb128 0xe
 1767 011c 3A       		.uleb128 0x3a
 1768 011d 0B       		.uleb128 0xb
 1769 011e 3B       		.uleb128 0x3b
 1770 011f 0B       		.uleb128 0xb
 1771 0120 49       		.uleb128 0x49
 1772 0121 13       		.uleb128 0x13
 1773 0122 02       		.uleb128 0x2
 1774 0123 17       		.uleb128 0x17
 1775 0124 00       		.byte	0
 1776 0125 00       		.byte	0
 1777 0126 18       		.uleb128 0x18
 1778 0127 2E       		.uleb128 0x2e
 1779 0128 01       		.byte	0x1
 1780 0129 3F       		.uleb128 0x3f
 1781 012a 19       		.uleb128 0x19
 1782 012b 03       		.uleb128 0x3
 1783 012c 0E       		.uleb128 0xe
 1784 012d 3A       		.uleb128 0x3a
 1785 012e 0B       		.uleb128 0xb
 1786 012f 3B       		.uleb128 0x3b
 1787 0130 0B       		.uleb128 0xb
 1788 0131 27       		.uleb128 0x27
 1789 0132 19       		.uleb128 0x19
 1790 0133 49       		.uleb128 0x49
 1791 0134 13       		.uleb128 0x13
 1792 0135 11       		.uleb128 0x11
 1793 0136 01       		.uleb128 0x1
 1794 0137 12       		.uleb128 0x12
 1795 0138 06       		.uleb128 0x6
 1796 0139 40       		.uleb128 0x40
 1797 013a 18       		.uleb128 0x18
 1798 013b 9742     		.uleb128 0x2117
 1799 013d 19       		.uleb128 0x19
 1800 013e 01       		.uleb128 0x1
 1801 013f 13       		.uleb128 0x13
 1802 0140 00       		.byte	0
 1803 0141 00       		.byte	0
 1804 0142 19       		.uleb128 0x19
 1805 0143 34       		.uleb128 0x34
 1806 0144 00       		.byte	0
 1807 0145 03       		.uleb128 0x3
 1808 0146 08       		.uleb128 0x8
 1809 0147 3A       		.uleb128 0x3a
 1810 0148 0B       		.uleb128 0xb
 1811 0149 3B       		.uleb128 0x3b
 1812 014a 0B       		.uleb128 0xb
 1813 014b 49       		.uleb128 0x49
 1814 014c 13       		.uleb128 0x13
 1815 014d 02       		.uleb128 0x2
 1816 014e 17       		.uleb128 0x17
 1817 014f 00       		.byte	0
 1818 0150 00       		.byte	0
ARM GAS  /tmp/ccuHojyg.s 			page 33


 1819 0151 1A       		.uleb128 0x1a
 1820 0152 898201   		.uleb128 0x4109
 1821 0155 00       		.byte	0
 1822 0156 11       		.uleb128 0x11
 1823 0157 01       		.uleb128 0x1
 1824 0158 31       		.uleb128 0x31
 1825 0159 13       		.uleb128 0x13
 1826 015a 00       		.byte	0
 1827 015b 00       		.byte	0
 1828 015c 1B       		.uleb128 0x1b
 1829 015d 898201   		.uleb128 0x4109
 1830 0160 01       		.byte	0x1
 1831 0161 11       		.uleb128 0x11
 1832 0162 01       		.uleb128 0x1
 1833 0163 31       		.uleb128 0x31
 1834 0164 13       		.uleb128 0x13
 1835 0165 01       		.uleb128 0x1
 1836 0166 13       		.uleb128 0x13
 1837 0167 00       		.byte	0
 1838 0168 00       		.byte	0
 1839 0169 1C       		.uleb128 0x1c
 1840 016a 8A8201   		.uleb128 0x410a
 1841 016d 00       		.byte	0
 1842 016e 02       		.uleb128 0x2
 1843 016f 18       		.uleb128 0x18
 1844 0170 9142     		.uleb128 0x2111
 1845 0172 18       		.uleb128 0x18
 1846 0173 00       		.byte	0
 1847 0174 00       		.byte	0
 1848 0175 1D       		.uleb128 0x1d
 1849 0176 898201   		.uleb128 0x4109
 1850 0179 01       		.byte	0x1
 1851 017a 11       		.uleb128 0x11
 1852 017b 01       		.uleb128 0x1
 1853 017c 31       		.uleb128 0x31
 1854 017d 13       		.uleb128 0x13
 1855 017e 00       		.byte	0
 1856 017f 00       		.byte	0
 1857 0180 1E       		.uleb128 0x1e
 1858 0181 2E       		.uleb128 0x2e
 1859 0182 01       		.byte	0x1
 1860 0183 3F       		.uleb128 0x3f
 1861 0184 19       		.uleb128 0x19
 1862 0185 03       		.uleb128 0x3
 1863 0186 0E       		.uleb128 0xe
 1864 0187 3A       		.uleb128 0x3a
 1865 0188 0B       		.uleb128 0xb
 1866 0189 3B       		.uleb128 0x3b
 1867 018a 0B       		.uleb128 0xb
 1868 018b 27       		.uleb128 0x27
 1869 018c 19       		.uleb128 0x19
 1870 018d 11       		.uleb128 0x11
 1871 018e 01       		.uleb128 0x1
 1872 018f 12       		.uleb128 0x12
 1873 0190 06       		.uleb128 0x6
 1874 0191 40       		.uleb128 0x40
 1875 0192 18       		.uleb128 0x18
ARM GAS  /tmp/ccuHojyg.s 			page 34


 1876 0193 9742     		.uleb128 0x2117
 1877 0195 19       		.uleb128 0x19
 1878 0196 01       		.uleb128 0x1
 1879 0197 13       		.uleb128 0x13
 1880 0198 00       		.byte	0
 1881 0199 00       		.byte	0
 1882 019a 1F       		.uleb128 0x1f
 1883 019b 0B       		.uleb128 0xb
 1884 019c 01       		.byte	0x1
 1885 019d 11       		.uleb128 0x11
 1886 019e 01       		.uleb128 0x1
 1887 019f 12       		.uleb128 0x12
 1888 01a0 06       		.uleb128 0x6
 1889 01a1 00       		.byte	0
 1890 01a2 00       		.byte	0
 1891 01a3 20       		.uleb128 0x20
 1892 01a4 34       		.uleb128 0x34
 1893 01a5 00       		.byte	0
 1894 01a6 03       		.uleb128 0x3
 1895 01a7 0E       		.uleb128 0xe
 1896 01a8 3A       		.uleb128 0x3a
 1897 01a9 0B       		.uleb128 0xb
 1898 01aa 3B       		.uleb128 0x3b
 1899 01ab 0B       		.uleb128 0xb
 1900 01ac 49       		.uleb128 0x49
 1901 01ad 13       		.uleb128 0x13
 1902 01ae 02       		.uleb128 0x2
 1903 01af 17       		.uleb128 0x17
 1904 01b0 00       		.byte	0
 1905 01b1 00       		.byte	0
 1906 01b2 21       		.uleb128 0x21
 1907 01b3 898201   		.uleb128 0x4109
 1908 01b6 01       		.byte	0x1
 1909 01b7 11       		.uleb128 0x11
 1910 01b8 01       		.uleb128 0x1
 1911 01b9 9542     		.uleb128 0x2115
 1912 01bb 19       		.uleb128 0x19
 1913 01bc 31       		.uleb128 0x31
 1914 01bd 13       		.uleb128 0x13
 1915 01be 00       		.byte	0
 1916 01bf 00       		.byte	0
 1917 01c0 22       		.uleb128 0x22
 1918 01c1 34       		.uleb128 0x34
 1919 01c2 00       		.byte	0
 1920 01c3 03       		.uleb128 0x3
 1921 01c4 0E       		.uleb128 0xe
 1922 01c5 3A       		.uleb128 0x3a
 1923 01c6 0B       		.uleb128 0xb
 1924 01c7 3B       		.uleb128 0x3b
 1925 01c8 05       		.uleb128 0x5
 1926 01c9 49       		.uleb128 0x49
 1927 01ca 13       		.uleb128 0x13
 1928 01cb 3F       		.uleb128 0x3f
 1929 01cc 19       		.uleb128 0x19
 1930 01cd 3C       		.uleb128 0x3c
 1931 01ce 19       		.uleb128 0x19
 1932 01cf 00       		.byte	0
ARM GAS  /tmp/ccuHojyg.s 			page 35


 1933 01d0 00       		.byte	0
 1934 01d1 23       		.uleb128 0x23
 1935 01d2 2E       		.uleb128 0x2e
 1936 01d3 00       		.byte	0
 1937 01d4 3F       		.uleb128 0x3f
 1938 01d5 19       		.uleb128 0x19
 1939 01d6 03       		.uleb128 0x3
 1940 01d7 0E       		.uleb128 0xe
 1941 01d8 3A       		.uleb128 0x3a
 1942 01d9 0B       		.uleb128 0xb
 1943 01da 3B       		.uleb128 0x3b
 1944 01db 0B       		.uleb128 0xb
 1945 01dc 27       		.uleb128 0x27
 1946 01dd 19       		.uleb128 0x19
 1947 01de 49       		.uleb128 0x49
 1948 01df 13       		.uleb128 0x13
 1949 01e0 3C       		.uleb128 0x3c
 1950 01e1 19       		.uleb128 0x19
 1951 01e2 00       		.byte	0
 1952 01e3 00       		.byte	0
 1953 01e4 24       		.uleb128 0x24
 1954 01e5 2E       		.uleb128 0x2e
 1955 01e6 01       		.byte	0x1
 1956 01e7 3F       		.uleb128 0x3f
 1957 01e8 19       		.uleb128 0x19
 1958 01e9 03       		.uleb128 0x3
 1959 01ea 0E       		.uleb128 0xe
 1960 01eb 3A       		.uleb128 0x3a
 1961 01ec 0B       		.uleb128 0xb
 1962 01ed 3B       		.uleb128 0x3b
 1963 01ee 0B       		.uleb128 0xb
 1964 01ef 27       		.uleb128 0x27
 1965 01f0 19       		.uleb128 0x19
 1966 01f1 3C       		.uleb128 0x3c
 1967 01f2 19       		.uleb128 0x19
 1968 01f3 01       		.uleb128 0x1
 1969 01f4 13       		.uleb128 0x13
 1970 01f5 00       		.byte	0
 1971 01f6 00       		.byte	0
 1972 01f7 25       		.uleb128 0x25
 1973 01f8 2E       		.uleb128 0x2e
 1974 01f9 01       		.byte	0x1
 1975 01fa 3F       		.uleb128 0x3f
 1976 01fb 19       		.uleb128 0x19
 1977 01fc 03       		.uleb128 0x3
 1978 01fd 0E       		.uleb128 0xe
 1979 01fe 3A       		.uleb128 0x3a
 1980 01ff 0B       		.uleb128 0xb
 1981 0200 3B       		.uleb128 0x3b
 1982 0201 0B       		.uleb128 0xb
 1983 0202 27       		.uleb128 0x27
 1984 0203 19       		.uleb128 0x19
 1985 0204 49       		.uleb128 0x49
 1986 0205 13       		.uleb128 0x13
 1987 0206 3C       		.uleb128 0x3c
 1988 0207 19       		.uleb128 0x19
 1989 0208 01       		.uleb128 0x1
ARM GAS  /tmp/ccuHojyg.s 			page 36


 1990 0209 13       		.uleb128 0x13
 1991 020a 00       		.byte	0
 1992 020b 00       		.byte	0
 1993 020c 26       		.uleb128 0x26
 1994 020d 2E       		.uleb128 0x2e
 1995 020e 01       		.byte	0x1
 1996 020f 3F       		.uleb128 0x3f
 1997 0210 19       		.uleb128 0x19
 1998 0211 03       		.uleb128 0x3
 1999 0212 0E       		.uleb128 0xe
 2000 0213 3A       		.uleb128 0x3a
 2001 0214 0B       		.uleb128 0xb
 2002 0215 3B       		.uleb128 0x3b
 2003 0216 0B       		.uleb128 0xb
 2004 0217 27       		.uleb128 0x27
 2005 0218 19       		.uleb128 0x19
 2006 0219 3C       		.uleb128 0x3c
 2007 021a 19       		.uleb128 0x19
 2008 021b 00       		.byte	0
 2009 021c 00       		.byte	0
 2010 021d 00       		.byte	0
 2011              		.section	.debug_loc,"",%progbits
 2012              	.Ldebug_loc0:
 2013              	.LLST0:
 2014 0000 00000000 		.4byte	.LVL0
 2015 0004 1C000000 		.4byte	.LVL4
 2016 0008 0100     		.2byte	0x1
 2017 000a 50       		.byte	0x50
 2018 000b 1C000000 		.4byte	.LVL4
 2019 000f 22000000 		.4byte	.LVL5
 2020 0013 0300     		.2byte	0x3
 2021 0015 70       		.byte	0x70
 2022 0016 01       		.sleb128 1
 2023 0017 9F       		.byte	0x9f
 2024 0018 22000000 		.4byte	.LVL5
 2025 001c 2C000000 		.4byte	.LVL7
 2026 0020 0100     		.2byte	0x1
 2027 0022 50       		.byte	0x50
 2028 0023 32000000 		.4byte	.LVL8
 2029 0027 3A000000 		.4byte	.LVL10
 2030 002b 0100     		.2byte	0x1
 2031 002d 50       		.byte	0x50
 2032 002e 44000000 		.4byte	.LVL11
 2033 0032 46000000 		.4byte	.LVL12
 2034 0036 0100     		.2byte	0x1
 2035 0038 50       		.byte	0x50
 2036 0039 00000000 		.4byte	0
 2037 003d 00000000 		.4byte	0
 2038              	.LLST1:
 2039 0041 00000000 		.4byte	.LVL0
 2040 0045 04000000 		.4byte	.LVL1
 2041 0049 0100     		.2byte	0x1
 2042 004b 51       		.byte	0x51
 2043 004c 04000000 		.4byte	.LVL1
 2044 0050 0A000000 		.4byte	.LVL2
 2045 0054 0100     		.2byte	0x1
 2046 0056 51       		.byte	0x51
ARM GAS  /tmp/ccuHojyg.s 			page 37


 2047 0057 0A000000 		.4byte	.LVL2
 2048 005b 16000000 		.4byte	.LVL3
 2049 005f 0300     		.2byte	0x3
 2050 0061 71       		.byte	0x71
 2051 0062 01       		.sleb128 1
 2052 0063 9F       		.byte	0x9f
 2053 0064 16000000 		.4byte	.LVL3
 2054 0068 1C000000 		.4byte	.LVL4
 2055 006c 0100     		.2byte	0x1
 2056 006e 51       		.byte	0x51
 2057 006f 1C000000 		.4byte	.LVL4
 2058 0073 24000000 		.4byte	.LVL6
 2059 0077 0300     		.2byte	0x3
 2060 0079 71       		.byte	0x71
 2061 007a 01       		.sleb128 1
 2062 007b 9F       		.byte	0x9f
 2063 007c 24000000 		.4byte	.LVL6
 2064 0080 32000000 		.4byte	.LVL8
 2065 0084 0100     		.2byte	0x1
 2066 0086 51       		.byte	0x51
 2067 0087 32000000 		.4byte	.LVL8
 2068 008b 44000000 		.4byte	.LVL11
 2069 008f 0300     		.2byte	0x3
 2070 0091 71       		.byte	0x71
 2071 0092 01       		.sleb128 1
 2072 0093 9F       		.byte	0x9f
 2073 0094 44000000 		.4byte	.LVL11
 2074 0098 48000000 		.4byte	.LFE118
 2075 009c 0100     		.2byte	0x1
 2076 009e 51       		.byte	0x51
 2077 009f 00000000 		.4byte	0
 2078 00a3 00000000 		.4byte	0
 2079              	.LLST2:
 2080 00a7 00000000 		.4byte	.LVL13
 2081 00ab 07000000 		.4byte	.LVL14-1
 2082 00af 0100     		.2byte	0x1
 2083 00b1 50       		.byte	0x50
 2084 00b2 07000000 		.4byte	.LVL14-1
 2085 00b6 4E000000 		.4byte	.LFE119
 2086 00ba 0100     		.2byte	0x1
 2087 00bc 56       		.byte	0x56
 2088 00bd 00000000 		.4byte	0
 2089 00c1 00000000 		.4byte	0
 2090              	.LLST3:
 2091 00c5 08000000 		.4byte	.LVL14
 2092 00c9 0E000000 		.4byte	.LVL15
 2093 00cd 0100     		.2byte	0x1
 2094 00cf 50       		.byte	0x50
 2095 00d0 0E000000 		.4byte	.LVL15
 2096 00d4 28000000 		.4byte	.LVL19
 2097 00d8 0100     		.2byte	0x1
 2098 00da 54       		.byte	0x54
 2099 00db 28000000 		.4byte	.LVL19
 2100 00df 2C000000 		.4byte	.LVL20
 2101 00e3 0100     		.2byte	0x1
 2102 00e5 50       		.byte	0x50
 2103 00e6 2C000000 		.4byte	.LVL20
ARM GAS  /tmp/ccuHojyg.s 			page 38


 2104 00ea 4E000000 		.4byte	.LFE119
 2105 00ee 0100     		.2byte	0x1
 2106 00f0 54       		.byte	0x54
 2107 00f1 00000000 		.4byte	0
 2108 00f5 00000000 		.4byte	0
 2109              	.LLST4:
 2110 00f9 00000000 		.4byte	.LVL25
 2111 00fd 11000000 		.4byte	.LVL27-1
 2112 0101 0100     		.2byte	0x1
 2113 0103 50       		.byte	0x50
 2114 0104 11000000 		.4byte	.LVL27-1
 2115 0108 12000000 		.4byte	.LFE120
 2116 010c 0400     		.2byte	0x4
 2117 010e F3       		.byte	0xf3
 2118 010f 01       		.uleb128 0x1
 2119 0110 50       		.byte	0x50
 2120 0111 9F       		.byte	0x9f
 2121 0112 00000000 		.4byte	0
 2122 0116 00000000 		.4byte	0
 2123              	.LLST5:
 2124 011a 0A000000 		.4byte	.LVL26
 2125 011e 11000000 		.4byte	.LVL27-1
 2126 0122 0100     		.2byte	0x1
 2127 0124 50       		.byte	0x50
 2128 0125 11000000 		.4byte	.LVL27-1
 2129 0129 12000000 		.4byte	.LFE120
 2130 012d 0400     		.2byte	0x4
 2131 012f F3       		.byte	0xf3
 2132 0130 01       		.uleb128 0x1
 2133 0131 50       		.byte	0x50
 2134 0132 9F       		.byte	0x9f
 2135 0133 00000000 		.4byte	0
 2136 0137 00000000 		.4byte	0
 2137              	.LLST6:
 2138 013b 00000000 		.4byte	.LVL28
 2139 013f 08000000 		.4byte	.LVL29
 2140 0143 0100     		.2byte	0x1
 2141 0145 50       		.byte	0x50
 2142 0146 08000000 		.4byte	.LVL29
 2143 014a 20000000 		.4byte	.LFE121
 2144 014e 0100     		.2byte	0x1
 2145 0150 57       		.byte	0x57
 2146 0151 00000000 		.4byte	0
 2147 0155 00000000 		.4byte	0
 2148              	.LLST7:
 2149 0159 00000000 		.4byte	.LVL28
 2150 015d 0A000000 		.4byte	.LVL30
 2151 0161 0100     		.2byte	0x1
 2152 0163 51       		.byte	0x51
 2153 0164 0A000000 		.4byte	.LVL30
 2154 0168 20000000 		.4byte	.LFE121
 2155 016c 0400     		.2byte	0x4
 2156 016e F3       		.byte	0xf3
 2157 016f 01       		.uleb128 0x1
 2158 0170 51       		.byte	0x51
 2159 0171 9F       		.byte	0x9f
 2160 0172 00000000 		.4byte	0
ARM GAS  /tmp/ccuHojyg.s 			page 39


 2161 0176 00000000 		.4byte	0
 2162              	.LLST8:
 2163 017a 00000000 		.4byte	.LVL28
 2164 017e 0F000000 		.4byte	.LVL31-1
 2165 0182 0100     		.2byte	0x1
 2166 0184 52       		.byte	0x52
 2167 0185 0F000000 		.4byte	.LVL31-1
 2168 0189 20000000 		.4byte	.LFE121
 2169 018d 0400     		.2byte	0x4
 2170 018f F3       		.byte	0xf3
 2171 0190 01       		.uleb128 0x1
 2172 0191 52       		.byte	0x52
 2173 0192 9F       		.byte	0x9f
 2174 0193 00000000 		.4byte	0
 2175 0197 00000000 		.4byte	0
 2176              	.LLST9:
 2177 019b 14000000 		.4byte	.LVL32
 2178 019f 1B000000 		.4byte	.LVL33-1
 2179 01a3 0100     		.2byte	0x1
 2180 01a5 50       		.byte	0x50
 2181 01a6 1B000000 		.4byte	.LVL33-1
 2182 01aa 20000000 		.4byte	.LFE121
 2183 01ae 0100     		.2byte	0x1
 2184 01b0 54       		.byte	0x54
 2185 01b1 00000000 		.4byte	0
 2186 01b5 00000000 		.4byte	0
 2187              	.LLST10:
 2188 01b9 00000000 		.4byte	.LVL34
 2189 01bd 02000000 		.4byte	.LVL35
 2190 01c1 0100     		.2byte	0x1
 2191 01c3 50       		.byte	0x50
 2192 01c4 02000000 		.4byte	.LVL35
 2193 01c8 04000000 		.4byte	.LFE122
 2194 01cc 0400     		.2byte	0x4
 2195 01ce F3       		.byte	0xf3
 2196 01cf 01       		.uleb128 0x1
 2197 01d0 50       		.byte	0x50
 2198 01d1 9F       		.byte	0x9f
 2199 01d2 00000000 		.4byte	0
 2200 01d6 00000000 		.4byte	0
 2201              		.section	.debug_aranges,"",%progbits
 2202 0000 3C000000 		.4byte	0x3c
 2203 0004 0200     		.2byte	0x2
 2204 0006 00000000 		.4byte	.Ldebug_info0
 2205 000a 04       		.byte	0x4
 2206 000b 00       		.byte	0
 2207 000c 0000     		.2byte	0
 2208 000e 0000     		.2byte	0
 2209 0010 00000000 		.4byte	.LFB118
 2210 0014 48000000 		.4byte	.LFE118-.LFB118
 2211 0018 00000000 		.4byte	.LFB119
 2212 001c 4E000000 		.4byte	.LFE119-.LFB119
 2213 0020 00000000 		.4byte	.LFB120
 2214 0024 12000000 		.4byte	.LFE120-.LFB120
 2215 0028 00000000 		.4byte	.LFB121
 2216 002c 20000000 		.4byte	.LFE121-.LFB121
 2217 0030 00000000 		.4byte	.LFB122
ARM GAS  /tmp/ccuHojyg.s 			page 40


 2218 0034 04000000 		.4byte	.LFE122-.LFB122
 2219 0038 00000000 		.4byte	0
 2220 003c 00000000 		.4byte	0
 2221              		.section	.debug_ranges,"",%progbits
 2222              	.Ldebug_ranges0:
 2223 0000 00000000 		.4byte	.LFB118
 2224 0004 48000000 		.4byte	.LFE118
 2225 0008 00000000 		.4byte	.LFB119
 2226 000c 4E000000 		.4byte	.LFE119
 2227 0010 00000000 		.4byte	.LFB120
 2228 0014 12000000 		.4byte	.LFE120
 2229 0018 00000000 		.4byte	.LFB121
 2230 001c 20000000 		.4byte	.LFE121
 2231 0020 00000000 		.4byte	.LFB122
 2232 0024 04000000 		.4byte	.LFE122
 2233 0028 00000000 		.4byte	0
 2234 002c 00000000 		.4byte	0
 2235              		.section	.debug_line,"",%progbits
 2236              	.Ldebug_line0:
 2237 0000 9B020000 		.section	.debug_str,"MS",%progbits,1
 2237      02001802 
 2237      00000201 
 2237      FB0E0D00 
 2237      01010101 
 2238              	.LASF55:
 2239 0000 696E7463 		.ascii	"intctx\000"
 2239      747800
 2240              	.LASF2:
 2241 0007 73697A65 		.ascii	"size_t\000"
 2241      5F7400
 2242              	.LASF72:
 2243 000e 7264796D 		.ascii	"rdymsg\000"
 2243      736700
 2244              	.LASF19:
 2245 0015 75696E74 		.ascii	"uint64_t\000"
 2245      36345F74 
 2245      00
 2246              	.LASF3:
 2247 001e 5F5F7569 		.ascii	"__uint8_t\000"
 2247      6E74385F 
 2247      7400
 2248              	.LASF62:
 2249 0028 6D656D67 		.ascii	"memgetfunc_t\000"
 2249      65746675 
 2249      6E635F74 
 2249      00
 2250              	.LASF14:
 2251 0035 6C6F6E67 		.ascii	"long long unsigned int\000"
 2251      206C6F6E 
 2251      6720756E 
 2251      7369676E 
 2251      65642069 
 2252              	.LASF73:
 2253 004c 65786974 		.ascii	"exitcode\000"
 2253      636F6465 
 2253      00
 2254              	.LASF66:
ARM GAS  /tmp/ccuHojyg.s 			page 41


 2255 0055 685F6672 		.ascii	"h_free\000"
 2255      656500
 2256              	.LASF115:
 2257 005c 49544D5F 		.ascii	"ITM_RxBuffer\000"
 2257      52784275 
 2257      66666572 
 2257      00
 2258              	.LASF96:
 2259 0069 6D665F73 		.ascii	"mf_scaledfont_s\000"
 2259      63616C65 
 2259      64666F6E 
 2259      745F7300 
 2260              	.LASF68:
 2261 0079 6E657874 		.ascii	"next\000"
 2261      00
 2262              	.LASF33:
 2263 007e 705F7072 		.ascii	"p_prio\000"
 2263      696F00
 2264              	.LASF92:
 2265 0085 6D665F63 		.ascii	"mf_char\000"
 2265      68617200 
 2266              	.LASF16:
 2267 008d 696E7431 		.ascii	"int16_t\000"
 2267      365F7400 
 2268              	.LASF12:
 2269 0095 6C6F6E67 		.ascii	"long long int\000"
 2269      206C6F6E 
 2269      6720696E 
 2269      7400
 2270              	.LASF1:
 2271 00a3 7369676E 		.ascii	"signed char\000"
 2271      65642063 
 2271      68617200 
 2272              	.LASF67:
 2273 00af 685F6D74 		.ascii	"h_mtx\000"
 2273      7800
 2274              	.LASF50:
 2275 00b5 705F6D70 		.ascii	"p_mpool\000"
 2275      6F6F6C00 
 2276              	.LASF20:
 2277 00bd 626F6F6C 		.ascii	"bool_t\000"
 2277      5F7400
 2278              	.LASF59:
 2279 00c4 6D5F7175 		.ascii	"m_queue\000"
 2279      65756500 
 2280              	.LASF117:
 2281 00cc 63684865 		.ascii	"chHeapFree\000"
 2281      61704672 
 2281      656500
 2282              	.LASF94:
 2283 00d7 6D665F66 		.ascii	"mf_font_list_s\000"
 2283      6F6E745F 
 2283      6C697374 
 2283      5F7300
 2284              	.LASF65:
 2285 00e6 685F7072 		.ascii	"h_provider\000"
 2285      6F766964 
ARM GAS  /tmp/ccuHojyg.s 			page 42


 2285      657200
 2286              	.LASF25:
 2287 00f1 74736C69 		.ascii	"tslices_t\000"
 2287      6365735F 
 2287      7400
 2288              	.LASF119:
 2289 00fb 6D665F73 		.ascii	"mf_scale_font\000"
 2289      63616C65 
 2289      5F666F6E 
 2289      7400
 2290              	.LASF9:
 2291 0109 6C6F6E67 		.ascii	"long int\000"
 2291      20696E74 
 2291      00
 2292              	.LASF23:
 2293 0112 74737461 		.ascii	"tstate_t\000"
 2293      74655F74 
 2293      00
 2294              	.LASF35:
 2295 011b 705F6E65 		.ascii	"p_newer\000"
 2295      77657200 
 2296              	.LASF97:
 2297 0123 62617365 		.ascii	"basefont\000"
 2297      666F6E74 
 2297      00
 2298              	.LASF10:
 2299 012c 5F5F7569 		.ascii	"__uint32_t\000"
 2299      6E743332 
 2299      5F7400
 2300              	.LASF53:
 2301 0137 72656761 		.ascii	"regarm_t\000"
 2301      726D5F74 
 2301      00
 2302              	.LASF5:
 2303 0140 5F5F696E 		.ascii	"__int16_t\000"
 2303      7431365F 
 2303      7400
 2304              	.LASF70:
 2305 014a 616C6967 		.ascii	"align\000"
 2305      6E00
 2306              	.LASF38:
 2307 0150 705F7374 		.ascii	"p_stklimit\000"
 2307      6B6C696D 
 2307      697400
 2308              	.LASF0:
 2309 015b 756E7369 		.ascii	"unsigned int\000"
 2309      676E6564 
 2309      20696E74 
 2309      00
 2310              	.LASF43:
 2311 0168 705F7469 		.ascii	"p_time\000"
 2311      6D6500
 2312              	.LASF45:
 2313 016f 705F6D73 		.ascii	"p_msgqueue\000"
 2313      67717565 
 2313      756500
 2314              	.LASF99:
ARM GAS  /tmp/ccuHojyg.s 			page 43


 2315 017a 795F7363 		.ascii	"y_scale\000"
 2315      616C6500 
 2316              	.LASF101:
 2317 0182 6E616D65 		.ascii	"name\000"
 2317      00
 2318              	.LASF81:
 2319 0187 77696474 		.ascii	"width\000"
 2319      6800
 2320              	.LASF71:
 2321 018d 73697A65 		.ascii	"size\000"
 2321      00
 2322              	.LASF7:
 2323 0192 73686F72 		.ascii	"short unsigned int\000"
 2323      7420756E 
 2323      7369676E 
 2323      65642069 
 2323      6E7400
 2324              	.LASF87:
 2325 01a5 6C696E65 		.ascii	"line_height\000"
 2325      5F686569 
 2325      67687400 
 2326              	.LASF89:
 2327 01b1 66616C6C 		.ascii	"fallback_character\000"
 2327      6261636B 
 2327      5F636861 
 2327      72616374 
 2327      657200
 2328              	.LASF114:
 2329 01c4 67646973 		.ascii	"gdispCloseFont\000"
 2329      70436C6F 
 2329      7365466F 
 2329      6E7400
 2330              	.LASF22:
 2331 01d3 746D6F64 		.ascii	"tmode_t\000"
 2331      655F7400 
 2332              	.LASF52:
 2333 01db 54687265 		.ascii	"ThreadsList\000"
 2333      6164734C 
 2333      69737400 
 2334              	.LASF28:
 2335 01e7 6576656E 		.ascii	"eventmask_t\000"
 2335      746D6173 
 2335      6B5F7400 
 2336              	.LASF54:
 2337 01f3 73746B61 		.ascii	"stkalign_t\000"
 2337      6C69676E 
 2337      5F7400
 2338              	.LASF78:
 2339 01fe 6D665F66 		.ascii	"mf_font_s\000"
 2339      6F6E745F 
 2339      7300
 2340              	.LASF113:
 2341 0208 6D617463 		.ascii	"matchfont\000"
 2341      68666F6E 
 2341      7400
 2342              	.LASF57:
 2343 0212 73697A65 		.ascii	"sizetype\000"
ARM GAS  /tmp/ccuHojyg.s 			page 44


 2343      74797065 
 2343      00
 2344              	.LASF80:
 2345 021b 73686F72 		.ascii	"short_name\000"
 2345      745F6E61 
 2345      6D6500
 2346              	.LASF58:
 2347 0226 4D757465 		.ascii	"Mutex\000"
 2347      7800
 2348              	.LASF90:
 2349 022c 63686172 		.ascii	"character_width\000"
 2349      61637465 
 2349      725F7769 
 2349      64746800 
 2350              	.LASF36:
 2351 023c 705F6F6C 		.ascii	"p_older\000"
 2351      64657200 
 2352              	.LASF103:
 2353 0244 67646973 		.ascii	"gdispOpenFont\000"
 2353      704F7065 
 2353      6E466F6E 
 2353      7400
 2354              	.LASF51:
 2355 0252 54687265 		.ascii	"ThreadsQueue\000"
 2355      61647351 
 2355      75657565 
 2355      00
 2356              	.LASF110:
 2357 025f 2F686F6D 		.ascii	"/home/makkmarci/devel/ugfx/src/gdisp/fonts.c\000"
 2357      652F6D61 
 2357      6B6B6D61 
 2357      7263692F 
 2357      64657665 
 2358              	.LASF41:
 2359 028c 705F7265 		.ascii	"p_refs\000"
 2359      667300
 2360              	.LASF100:
 2361 0293 70617474 		.ascii	"pattern\000"
 2361      65726E00 
 2362              	.LASF63:
 2363 029b 4D656D6F 		.ascii	"MemoryHeap\000"
 2363      72794865 
 2363      617000
 2364              	.LASF13:
 2365 02a6 5F5F7569 		.ascii	"__uint64_t\000"
 2365      6E743634 
 2365      5F7400
 2366              	.LASF108:
 2367 02b1 67646973 		.ascii	"gdispGetFontName\000"
 2367      70476574 
 2367      466F6E74 
 2367      4E616D65 
 2367      00
 2368              	.LASF98:
 2369 02c2 785F7363 		.ascii	"x_scale\000"
 2369      616C6500 
 2370              	.LASF24:
ARM GAS  /tmp/ccuHojyg.s 			page 45


 2371 02ca 74726566 		.ascii	"trefs_t\000"
 2371      735F7400 
 2372              	.LASF77:
 2373 02d2 666F6E74 		.ascii	"font_t\000"
 2373      5F7400
 2374              	.LASF32:
 2375 02d9 705F7072 		.ascii	"p_prev\000"
 2375      657600
 2376              	.LASF27:
 2377 02e0 6D73675F 		.ascii	"msg_t\000"
 2377      7400
 2378              	.LASF26:
 2379 02e6 74707269 		.ascii	"tprio_t\000"
 2379      6F5F7400 
 2380              	.LASF21:
 2381 02ee 5F426F6F 		.ascii	"_Bool\000"
 2381      6C00
 2382              	.LASF17:
 2383 02f4 696E7433 		.ascii	"int32_t\000"
 2383      325F7400 
 2384              	.LASF4:
 2385 02fc 756E7369 		.ascii	"unsigned char\000"
 2385      676E6564 
 2385      20636861 
 2385      7200
 2386              	.LASF112:
 2387 030a 68656170 		.ascii	"heap_header\000"
 2387      5F686561 
 2387      64657200 
 2388              	.LASF48:
 2389 0316 705F6D74 		.ascii	"p_mtxlist\000"
 2389      786C6973 
 2389      7400
 2390              	.LASF6:
 2391 0320 73686F72 		.ascii	"short int\000"
 2391      7420696E 
 2391      7400
 2392              	.LASF39:
 2393 032a 705F7374 		.ascii	"p_state\000"
 2393      61746500 
 2394              	.LASF42:
 2395 0332 705F7072 		.ascii	"p_preempt\000"
 2395      65656D70 
 2395      7400
 2396              	.LASF75:
 2397 033c 65776D61 		.ascii	"ewmask\000"
 2397      736B00
 2398              	.LASF31:
 2399 0343 705F6E65 		.ascii	"p_next\000"
 2399      787400
 2400              	.LASF40:
 2401 034a 705F666C 		.ascii	"p_flags\000"
 2401      61677300 
 2402              	.LASF109:
 2403 0352 474E5520 		.ascii	"GNU C 4.8.4 20140526 (release) [ARM/embedded-4_8-br"
 2403      4320342E 
 2403      382E3420 
ARM GAS  /tmp/ccuHojyg.s 			page 46


 2403      32303134 
 2403      30353236 
 2404 0385 616E6368 		.ascii	"anch revision 211358] -mcpu=cortex-m4 -mfloat-abi=h"
 2404      20726576 
 2404      6973696F 
 2404      6E203231 
 2404      31333538 
 2405 03b8 61726420 		.ascii	"ard -mfpu=fpv4-sp-d16 -mno-thumb-interwork -mthumb "
 2405      2D6D6670 
 2405      753D6670 
 2405      76342D73 
 2405      702D6431 
 2406 03eb 2D676764 		.ascii	"-ggdb -O2 -fomit-frame-pointer -falign-functions=16"
 2406      62202D4F 
 2406      32202D66 
 2406      6F6D6974 
 2406      2D667261 
 2407 041e 202D6666 		.ascii	" -ffunction-sections -fdata-sections -fno-common -f"
 2407      756E6374 
 2407      696F6E2D 
 2407      73656374 
 2407      696F6E73 
 2408 0451 73696E67 		.ascii	"single-precision-constant\000"
 2408      6C652D70 
 2408      72656369 
 2408      73696F6E 
 2408      2D636F6E 
 2409              	.LASF102:
 2410 046b 64666F6E 		.ascii	"dfont\000"
 2410      7400
 2411              	.LASF30:
 2412 0471 54687265 		.ascii	"Thread\000"
 2412      616400
 2413              	.LASF118:
 2414 0478 63684865 		.ascii	"chHeapAlloc\000"
 2414      6170416C 
 2414      6C6F6300 
 2415              	.LASF79:
 2416 0484 66756C6C 		.ascii	"full_name\000"
 2416      5F6E616D 
 2416      6500
 2417              	.LASF47:
 2418 048e 705F6570 		.ascii	"p_epending\000"
 2418      656E6469 
 2418      6E6700
 2419              	.LASF18:
 2420 0499 75696E74 		.ascii	"uint32_t\000"
 2420      33325F74 
 2420      00
 2421              	.LASF107:
 2422 04a2 6E657766 		.ascii	"newfont\000"
 2422      6F6E7400 
 2423              	.LASF69:
 2424 04aa 68656170 		.ascii	"heap\000"
 2424      00
 2425              	.LASF11:
 2426 04af 6C6F6E67 		.ascii	"long unsigned int\000"
ARM GAS  /tmp/ccuHojyg.s 			page 47


 2426      20756E73 
 2426      69676E65 
 2426      6420696E 
 2426      7400
 2427              	.LASF76:
 2428 04c1 63686172 		.ascii	"char\000"
 2428      00
 2429              	.LASF61:
 2430 04c6 6D5F6E65 		.ascii	"m_next\000"
 2430      787400
 2431              	.LASF29:
 2432 04cd 73797374 		.ascii	"systime_t\000"
 2432      696D655F 
 2432      7400
 2433              	.LASF49:
 2434 04d7 705F7265 		.ascii	"p_realprio\000"
 2434      616C7072 
 2434      696F00
 2435              	.LASF8:
 2436 04e2 5F5F696E 		.ascii	"__int32_t\000"
 2436      7433325F 
 2436      7400
 2437              	.LASF91:
 2438 04ec 72656E64 		.ascii	"render_character\000"
 2438      65725F63 
 2438      68617261 
 2438      63746572 
 2438      00
 2439              	.LASF105:
 2440 04fd 7363616C 		.ascii	"scale_x\000"
 2440      655F7800 
 2441              	.LASF93:
 2442 0505 6D665F70 		.ascii	"mf_pixel_callback_t\000"
 2442      6978656C 
 2442      5F63616C 
 2442      6C626163 
 2442      6B5F7400 
 2443              	.LASF56:
 2444 0519 636F6E74 		.ascii	"context\000"
 2444      65787400 
 2445              	.LASF111:
 2446 0521 2F686F6D 		.ascii	"/home/makkmarci/devel/ChibiOS_2.6.5/projects/STM32F"
 2446      652F6D61 
 2446      6B6B6D61 
 2446      7263692F 
 2446      64657665 
 2447 0554 345F4368 		.ascii	"4_ChibiOS_uGFX/\000"
 2447      6962694F 
 2447      535F7547 
 2447      46582F00 
 2448              	.LASF104:
 2449 0564 67646973 		.ascii	"gdispScaleFont\000"
 2449      70536361 
 2449      6C65466F 
 2449      6E7400
 2450              	.LASF116:
 2451 0573 6D665F67 		.ascii	"mf_get_font_list\000"
ARM GAS  /tmp/ccuHojyg.s 			page 48


 2451      65745F66 
 2451      6F6E745F 
 2451      6C697374 
 2451      00
 2452              	.LASF84:
 2453 0584 6D61785F 		.ascii	"max_x_advance\000"
 2453      785F6164 
 2453      76616E63 
 2453      6500
 2454              	.LASF95:
 2455 0592 666F6E74 		.ascii	"font\000"
 2455      00
 2456              	.LASF83:
 2457 0597 6D696E5F 		.ascii	"min_x_advance\000"
 2457      785F6164 
 2457      76616E63 
 2457      6500
 2458              	.LASF15:
 2459 05a5 75696E74 		.ascii	"uint8_t\000"
 2459      385F7400 
 2460              	.LASF88:
 2461 05ad 666C6167 		.ascii	"flags\000"
 2461      7300
 2462              	.LASF106:
 2463 05b3 7363616C 		.ascii	"scale_y\000"
 2463      655F7900 
 2464              	.LASF74:
 2465 05bb 77746F62 		.ascii	"wtobjp\000"
 2465      6A7000
 2466              	.LASF37:
 2467 05c2 705F6E61 		.ascii	"p_name\000"
 2467      6D6500
 2468              	.LASF46:
 2469 05c9 705F6D73 		.ascii	"p_msg\000"
 2469      6700
 2470              	.LASF82:
 2471 05cf 68656967 		.ascii	"height\000"
 2471      687400
 2472              	.LASF85:
 2473 05d6 62617365 		.ascii	"baseline_x\000"
 2473      6C696E65 
 2473      5F7800
 2474              	.LASF86:
 2475 05e1 62617365 		.ascii	"baseline_y\000"
 2475      6C696E65 
 2475      5F7900
 2476              	.LASF60:
 2477 05ec 6D5F6F77 		.ascii	"m_owner\000"
 2477      6E657200 
 2478              	.LASF34:
 2479 05f4 705F6374 		.ascii	"p_ctx\000"
 2479      7800
 2480              	.LASF44:
 2481 05fa 705F7761 		.ascii	"p_waiting\000"
 2481      6974696E 
 2481      6700
 2482              	.LASF64:
ARM GAS  /tmp/ccuHojyg.s 			page 49


 2483 0604 6D656D6F 		.ascii	"memory_heap\000"
 2483      72795F68 
 2483      65617000 
 2484              		.ident	"GCC: (GNU Tools for ARM Embedded Processors) 4.8.4 20140526 (release) [ARM/embedded-4_8-br
ARM GAS  /tmp/ccuHojyg.s 			page 50


DEFINED SYMBOLS
                            *ABS*:00000000 fonts.c
     /tmp/ccuHojyg.s:21     .text.matchfont:00000000 $t
     /tmp/ccuHojyg.s:26     .text.matchfont:00000000 matchfont
     /tmp/ccuHojyg.s:106    .text.gdispOpenFont:00000000 $t
     /tmp/ccuHojyg.s:112    .text.gdispOpenFont:00000000 gdispOpenFont
     /tmp/ccuHojyg.s:189    .text.gdispCloseFont:00000000 $t
     /tmp/ccuHojyg.s:195    .text.gdispCloseFont:00000000 gdispCloseFont
     /tmp/ccuHojyg.s:222    .text.gdispScaleFont:00000000 $t
     /tmp/ccuHojyg.s:228    .text.gdispScaleFont:00000000 gdispScaleFont
     /tmp/ccuHojyg.s:273    .text.gdispGetFontName:00000000 $t
     /tmp/ccuHojyg.s:279    .text.gdispGetFontName:00000000 gdispGetFontName
                     .debug_frame:00000010 $d

UNDEFINED SYMBOLS
mf_get_font_list
chHeapFree
chHeapAlloc
mf_scale_font
