ARM GAS  /tmp/cc9aHiQU.s 			page 1


   1              		.syntax unified
   2              		.cpu cortex-m4
   3              		.eabi_attribute 27, 1
   4              		.eabi_attribute 28, 1
   5              		.fpu fpv4-sp-d16
   6              		.eabi_attribute 20, 1
   7              		.eabi_attribute 21, 1
   8              		.eabi_attribute 23, 3
   9              		.eabi_attribute 24, 1
  10              		.eabi_attribute 25, 1
  11              		.eabi_attribute 26, 1
  12              		.eabi_attribute 30, 6
  13              		.eabi_attribute 34, 1
  14              		.eabi_attribute 18, 4
  15              		.thumb
  16              		.file	"gdisp_fonts.c"
  17              		.text
  18              	.Ltext0:
  19              		.cfi_sections	.debug_frame
  20              		.section	.text.matchfont,"ax",%progbits
  21              		.align	2
  22              		.p2align 4,,15
  23              		.thumb
  24              		.thumb_func
  25              		.type	matchfont, %function
  26              	matchfont:
  27              	.LFB111:
  28              		.file 1 "/home/makkmarci/workspace/ugfx/src/gdisp/gdisp_fonts.c"
  29              		.loc 1 20 0
  30              		.cfi_startproc
  31              		@ args = 0, pretend = 0, frame = 8
  32              		@ frame_needed = 0, uses_anonymous_args = 0
  33              		@ link register save eliminated.
  34 0000 82B0     		sub	sp, sp, #8
  35              		.cfi_def_cfa_offset 8
  36 0002 0190     		str	r0, [sp, #4]
  37 0004 0091     		str	r1, [sp]
  38              	.L11:
  39              		.loc 1 22 0
  40 0006 019B     		ldr	r3, [sp, #4]
  41 0008 1B78     		ldrb	r3, [r3]	@ zero_extendqisi2
  42 000a 002B     		cmp	r3, #0
  43 000c 1DD0     		beq	.L3
  44 000e 2A2B     		cmp	r3, #42
  45 0010 23D1     		bne	.L12
  46              		.loc 1 24 0
  47 0012 009B     		ldr	r3, [sp]
  48 0014 1B78     		ldrb	r3, [r3]	@ zero_extendqisi2
  49 0016 002B     		cmp	r3, #0
  50 0018 08D1     		bne	.L5
  51              		.loc 1 25 0
  52 001a 019B     		ldr	r3, [sp, #4]
  53 001c 0133     		adds	r3, r3, #1
  54 001e 1B78     		ldrb	r3, [r3]	@ zero_extendqisi2
  55 0020 002B     		cmp	r3, #0
  56 0022 0CBF     		ite	eq
  57 0024 0123     		moveq	r3, #1
ARM GAS  /tmp/cc9aHiQU.s 			page 2


  58 0026 0023     		movne	r3, #0
  59 0028 DBB2     		uxtb	r3, r3
  60 002a 26E0     		b	.L6
  61              	.L5:
  62              		.loc 1 26 0
  63 002c 019B     		ldr	r3, [sp, #4]
  64 002e 0133     		adds	r3, r3, #1
  65 0030 1A78     		ldrb	r2, [r3]	@ zero_extendqisi2
  66 0032 009B     		ldr	r3, [sp]
  67 0034 1B78     		ldrb	r3, [r3]	@ zero_extendqisi2
  68 0036 9A42     		cmp	r2, r3
  69 0038 03D1     		bne	.L7
  70              		.loc 1 27 0
  71 003a 019B     		ldr	r3, [sp, #4]
  72 003c 0133     		adds	r3, r3, #1
  73 003e 0193     		str	r3, [sp, #4]
  74              		.loc 1 30 0
  75 0040 1AE0     		b	.L9
  76              	.L7:
  77              		.loc 1 29 0
  78 0042 009B     		ldr	r3, [sp]
  79 0044 0133     		adds	r3, r3, #1
  80 0046 0093     		str	r3, [sp]
  81              		.loc 1 30 0
  82 0048 16E0     		b	.L9
  83              	.L3:
  84              		.loc 1 32 0
  85 004a 009B     		ldr	r3, [sp]
  86 004c 1B78     		ldrb	r3, [r3]	@ zero_extendqisi2
  87 004e 002B     		cmp	r3, #0
  88 0050 0CBF     		ite	eq
  89 0052 0123     		moveq	r3, #1
  90 0054 0023     		movne	r3, #0
  91 0056 DBB2     		uxtb	r3, r3
  92 0058 0FE0     		b	.L6
  93              	.L12:
  94              		.loc 1 34 0
  95 005a 009B     		ldr	r3, [sp]
  96 005c 1A78     		ldrb	r2, [r3]	@ zero_extendqisi2
  97 005e 019B     		ldr	r3, [sp, #4]
  98 0060 1B78     		ldrb	r3, [r3]	@ zero_extendqisi2
  99 0062 9A42     		cmp	r2, r3
 100 0064 01D0     		beq	.L10
 101              		.loc 1 35 0
 102 0066 0023     		movs	r3, #0
 103 0068 07E0     		b	.L6
 104              	.L10:
 105              		.loc 1 36 0
 106 006a 019B     		ldr	r3, [sp, #4]
 107 006c 0133     		adds	r3, r3, #1
 108 006e 0193     		str	r3, [sp, #4]
 109              		.loc 1 37 0
 110 0070 009B     		ldr	r3, [sp]
 111 0072 0133     		adds	r3, r3, #1
 112 0074 0093     		str	r3, [sp]
 113              		.loc 1 38 0
 114 0076 00BF     		nop
ARM GAS  /tmp/cc9aHiQU.s 			page 3


 115              	.L9:
 116              		.loc 1 40 0 discriminator 1
 117 0078 C5E7     		b	.L11
 118              	.L6:
 119              		.loc 1 41 0
 120 007a 1846     		mov	r0, r3
 121 007c 02B0     		add	sp, sp, #8
 122              		.cfi_def_cfa_offset 0
 123              		@ sp needed
 124 007e 7047     		bx	lr
 125              		.cfi_endproc
 126              	.LFE111:
 127              		.size	matchfont, .-matchfont
 128              		.section	.text.gdispOpenFont,"ax",%progbits
 129              		.align	2
 130              		.p2align 4,,15
 131              		.global	gdispOpenFont
 132              		.thumb
 133              		.thumb_func
 134              		.type	gdispOpenFont, %function
 135              	gdispOpenFont:
 136              	.LFB112:
 137              		.loc 1 43 0
 138              		.cfi_startproc
 139              		@ args = 0, pretend = 0, frame = 16
 140              		@ frame_needed = 0, uses_anonymous_args = 0
 141 0000 00B5     		push	{lr}
 142              		.cfi_def_cfa_offset 4
 143              		.cfi_offset 14, -4
 144 0002 85B0     		sub	sp, sp, #20
 145              		.cfi_def_cfa_offset 24
 146 0004 0190     		str	r0, [sp, #4]
 147              		.loc 1 48 0
 148 0006 FFF7FEFF 		bl	mf_get_font_list
 149 000a 0390     		str	r0, [sp, #12]
 150 000c 0FE0     		b	.L14
 151              	.L17:
 152              		.loc 1 49 0
 153 000e 039B     		ldr	r3, [sp, #12]
 154 0010 5B68     		ldr	r3, [r3, #4]
 155 0012 1B68     		ldr	r3, [r3]
 156 0014 0198     		ldr	r0, [sp, #4]
 157 0016 1946     		mov	r1, r3
 158 0018 FFF7FEFF 		bl	matchfont
 159 001c 0346     		mov	r3, r0
 160 001e 002B     		cmp	r3, #0
 161 0020 02D0     		beq	.L15
 162              		.loc 1 50 0
 163 0022 039B     		ldr	r3, [sp, #12]
 164 0024 5B68     		ldr	r3, [r3, #4]
 165 0026 20E0     		b	.L16
 166              	.L15:
 167              		.loc 1 48 0 discriminator 2
 168 0028 039B     		ldr	r3, [sp, #12]
 169 002a 1B68     		ldr	r3, [r3]
 170 002c 0393     		str	r3, [sp, #12]
 171              	.L14:
ARM GAS  /tmp/cc9aHiQU.s 			page 4


 172              		.loc 1 48 0 is_stmt 0 discriminator 1
 173 002e 039B     		ldr	r3, [sp, #12]
 174 0030 002B     		cmp	r3, #0
 175 0032 ECD1     		bne	.L17
 176              		.loc 1 54 0 is_stmt 1
 177 0034 FFF7FEFF 		bl	mf_get_font_list
 178 0038 0390     		str	r0, [sp, #12]
 179 003a 0FE0     		b	.L18
 180              	.L20:
 181              		.loc 1 55 0
 182 003c 039B     		ldr	r3, [sp, #12]
 183 003e 5B68     		ldr	r3, [r3, #4]
 184 0040 5B68     		ldr	r3, [r3, #4]
 185 0042 0198     		ldr	r0, [sp, #4]
 186 0044 1946     		mov	r1, r3
 187 0046 FFF7FEFF 		bl	matchfont
 188 004a 0346     		mov	r3, r0
 189 004c 002B     		cmp	r3, #0
 190 004e 02D0     		beq	.L19
 191              		.loc 1 56 0
 192 0050 039B     		ldr	r3, [sp, #12]
 193 0052 5B68     		ldr	r3, [r3, #4]
 194 0054 09E0     		b	.L16
 195              	.L19:
 196              		.loc 1 54 0 discriminator 2
 197 0056 039B     		ldr	r3, [sp, #12]
 198 0058 1B68     		ldr	r3, [r3]
 199 005a 0393     		str	r3, [sp, #12]
 200              	.L18:
 201              		.loc 1 54 0 is_stmt 0 discriminator 1
 202 005c 039B     		ldr	r3, [sp, #12]
 203 005e 002B     		cmp	r3, #0
 204 0060 ECD1     		bne	.L20
 205              		.loc 1 60 0 is_stmt 1
 206 0062 FFF7FEFF 		bl	mf_get_font_list
 207 0066 0346     		mov	r3, r0
 208 0068 5B68     		ldr	r3, [r3, #4]
 209              	.L16:
 210              		.loc 1 61 0
 211 006a 1846     		mov	r0, r3
 212 006c 05B0     		add	sp, sp, #20
 213              		.cfi_def_cfa_offset 4
 214              		@ sp needed
 215 006e 5DF804FB 		ldr	pc, [sp], #4
 216              		.cfi_endproc
 217              	.LFE112:
 218              		.size	gdispOpenFont, .-gdispOpenFont
 219 0072 00BFAFF3 		.section	.text.gdispCloseFont,"ax",%progbits
 219      0080AFF3 
 219      0080AFF3 
 219      0080
 220              		.align	2
 221              		.p2align 4,,15
 222              		.global	gdispCloseFont
 223              		.thumb
 224              		.thumb_func
 225              		.type	gdispCloseFont, %function
ARM GAS  /tmp/cc9aHiQU.s 			page 5


 226              	gdispCloseFont:
 227              	.LFB113:
 228              		.loc 1 63 0
 229              		.cfi_startproc
 230              		@ args = 0, pretend = 0, frame = 16
 231              		@ frame_needed = 0, uses_anonymous_args = 0
 232 0000 00B5     		push	{lr}
 233              		.cfi_def_cfa_offset 4
 234              		.cfi_offset 14, -4
 235 0002 85B0     		sub	sp, sp, #20
 236              		.cfi_def_cfa_offset 24
 237 0004 0190     		str	r0, [sp, #4]
 238              		.loc 1 64 0
 239 0006 019B     		ldr	r3, [sp, #4]
 240 0008 DB7B     		ldrb	r3, [r3, #15]	@ zero_extendqisi2
 241 000a DBB2     		uxtb	r3, r3
 242 000c 5BB2     		sxtb	r3, r3
 243 000e 002B     		cmp	r3, #0
 244 0010 07DA     		bge	.L21
 245              	.LBB2:
 246              		.loc 1 66 0
 247 0012 019B     		ldr	r3, [sp, #4]
 248 0014 0393     		str	r3, [sp, #12]
 249              		.loc 1 69 0
 250 0016 039B     		ldr	r3, [sp, #12]
 251 0018 0022     		movs	r2, #0
 252 001a 9A61     		str	r2, [r3, #24]
 253              		.loc 1 72 0
 254 001c 0398     		ldr	r0, [sp, #12]
 255 001e FFF7FEFF 		bl	chHeapFree
 256              	.L21:
 257              	.LBE2:
 258              		.loc 1 74 0
 259 0022 05B0     		add	sp, sp, #20
 260              		.cfi_def_cfa_offset 4
 261              		@ sp needed
 262 0024 5DF804FB 		ldr	pc, [sp], #4
 263              		.cfi_endproc
 264              	.LFE113:
 265              		.size	gdispCloseFont, .-gdispCloseFont
 266 0028 AFF30080 		.section	.text.gdispScaleFont,"ax",%progbits
 266      AFF30080 
 267              		.align	2
 268              		.p2align 4,,15
 269              		.global	gdispScaleFont
 270              		.thumb
 271              		.thumb_func
 272              		.type	gdispScaleFont, %function
 273              	gdispScaleFont:
 274              	.LFB114:
 275              		.loc 1 77 0
 276              		.cfi_startproc
 277              		@ args = 0, pretend = 0, frame = 16
 278              		@ frame_needed = 0, uses_anonymous_args = 0
 279 0000 00B5     		push	{lr}
 280              		.cfi_def_cfa_offset 4
 281              		.cfi_offset 14, -4
ARM GAS  /tmp/cc9aHiQU.s 			page 6


 282 0002 85B0     		sub	sp, sp, #20
 283              		.cfi_def_cfa_offset 24
 284 0004 0190     		str	r0, [sp, #4]
 285 0006 0B46     		mov	r3, r1
 286 0008 8DF80330 		strb	r3, [sp, #3]
 287 000c 1346     		mov	r3, r2
 288 000e 8DF80230 		strb	r3, [sp, #2]
 289              		.loc 1 78 0
 290 0012 0020     		movs	r0, #0
 291 0014 2421     		movs	r1, #36
 292 0016 FFF7FEFF 		bl	chHeapAlloc
 293 001a 0390     		str	r0, [sp, #12]
 294              		.loc 1 79 0
 295 001c 9DF80320 		ldrb	r2, [sp, #3]	@ zero_extendqisi2
 296 0020 9DF80230 		ldrb	r3, [sp, #2]	@ zero_extendqisi2
 297 0024 0398     		ldr	r0, [sp, #12]
 298 0026 0199     		ldr	r1, [sp, #4]
 299 0028 FFF7FEFF 		bl	mf_scale_font
 300              		.loc 1 80 0
 301 002c 039B     		ldr	r3, [sp, #12]
 302              		.loc 1 81 0
 303 002e 1846     		mov	r0, r3
 304 0030 05B0     		add	sp, sp, #20
 305              		.cfi_def_cfa_offset 4
 306              		@ sp needed
 307 0032 5DF804FB 		ldr	pc, [sp], #4
 308              		.cfi_endproc
 309              	.LFE114:
 310              		.size	gdispScaleFont, .-gdispScaleFont
 311 0036 00BFAFF3 		.section	.text.gdispGetFontName,"ax",%progbits
 311      0080AFF3 
 311      0080
 312              		.align	2
 313              		.p2align 4,,15
 314              		.global	gdispGetFontName
 315              		.thumb
 316              		.thumb_func
 317              		.type	gdispGetFontName, %function
 318              	gdispGetFontName:
 319              	.LFB115:
 320              		.loc 1 83 0
 321              		.cfi_startproc
 322              		@ args = 0, pretend = 0, frame = 8
 323              		@ frame_needed = 0, uses_anonymous_args = 0
 324              		@ link register save eliminated.
 325 0000 82B0     		sub	sp, sp, #8
 326              		.cfi_def_cfa_offset 8
 327 0002 0190     		str	r0, [sp, #4]
 328              		.loc 1 84 0
 329 0004 019B     		ldr	r3, [sp, #4]
 330 0006 5B68     		ldr	r3, [r3, #4]
 331              		.loc 1 85 0
 332 0008 1846     		mov	r0, r3
 333 000a 02B0     		add	sp, sp, #8
 334              		.cfi_def_cfa_offset 0
 335              		@ sp needed
 336 000c 7047     		bx	lr
ARM GAS  /tmp/cc9aHiQU.s 			page 7


 337              		.cfi_endproc
 338              	.LFE115:
 339              		.size	gdispGetFontName, .-gdispGetFontName
 340 000e 00BF     		.text
 341              	.Letext0:
 342              		.file 2 "/opt/gcc-arm-none-eabi/arm-none-eabi/include/machine/_default_types.h"
 343              		.file 3 "/opt/gcc-arm-none-eabi/arm-none-eabi/include/stdint.h"
 344              		.file 4 "/home/makkmarci/workspace/ChibiOS_2.6.8/os/ports/GCC/ARMCMx/chtypes.h"
 345              		.file 5 "/home/makkmarci/workspace/ugfx/src/gdisp/gdisp.h"
 346              		.file 6 "/home/makkmarci/workspace/ugfx/src/gdisp/mcufont/mf_font.h"
 347              		.file 7 "/home/makkmarci/workspace/ugfx/src/gdisp/mcufont/mf_encoding.h"
 348              		.file 8 "/home/makkmarci/workspace/ugfx/src/gdisp/mcufont/mf_scaledfont.h"
 349              		.file 9 "/home/makkmarci/workspace/ChibiOS_2.6.8/os/ports/common/ARMCMx/CMSIS/include/core_cm4.h"