ARM GAS  /tmp/cczWCdZx.s 			page 1


   1              		.syntax unified
   2              		.cpu cortex-m4
   3              		.eabi_attribute 27, 1
   4              		.eabi_attribute 28, 1
   5              		.fpu fpv4-sp-d16
   6              		.eabi_attribute 20, 1
   7              		.eabi_attribute 21, 1
   8              		.eabi_attribute 23, 3
   9              		.eabi_attribute 24, 1
  10              		.eabi_attribute 25, 1
  11              		.eabi_attribute 26, 1
  12              		.eabi_attribute 30, 6
  13              		.eabi_attribute 34, 1
  14              		.eabi_attribute 18, 4
  15              		.thumb
  16              		.file	"gdisp_lld_SSD1289.c"
  17              		.text
  18              	.Ltext0:
  19              		.cfi_sections	.debug_frame
  20              		.global	GDISPVMT_OnlyOne
  21              		.section	.rodata.GDISPVMT_OnlyOne,"a",%progbits
  22              		.align	2
  23              		.type	GDISPVMT_OnlyOne, %object
  24              		.size	GDISPVMT_OnlyOne, 96
  25              	GDISPVMT_OnlyOne:
  26 0000 6700     		.short	103
  27 0002 0000     		.short	0
  28 0004 60000000 		.word	96
  29 0008 00000000 		.word	_gdispInitDriver
  30 000c 00000000 		.word	_gdispPostInitDriver
  31 0010 00000000 		.word	_gdispDeInitDriver
  32 0014 00000000 		.word	gdisp_lld_init
  33 0018 00000000 		.word	0
  34 001c 00000000 		.word	gdisp_lld_write_start
  35 0020 00000000 		.word	gdisp_lld_write_pos
  36 0024 00000000 		.word	gdisp_lld_write_color
  37 0028 00000000 		.word	gdisp_lld_write_stop
  38 002c 00000000 		.word	gdisp_lld_read_start
  39 0030 00000000 		.word	gdisp_lld_read_color
  40 0034 00000000 		.word	gdisp_lld_read_stop
  41 0038 00000000 		.word	0
  42 003c 00000000 		.word	0
  43 0040 00000000 		.word	gdisp_lld_fill_area
  44 0044 00000000 		.word	gdisp_lld_blit_area
  45 0048 00000000 		.word	0
  46 004c 00000000 		.word	0
  47 0050 00000000 		.word	gdisp_lld_control
  48 0054 00000000 		.word	0
  49 0058 00000000 		.word	0
  50 005c 00000000 		.word	0
  51              		.section	.rodata.pwmcfg,"a",%progbits
  52              		.align	2
  53              		.type	pwmcfg, %object
  54              		.size	pwmcfg, 52
  55              	pwmcfg:
  56 0000 A0860100 		.word	100000
  57 0004 6400     		.short	100
ARM GAS  /tmp/cczWCdZx.s 			page 2


  58 0006 0000     		.space	2
  59 0008 00000000 		.word	0
  60 000c 00000000 		.word	0
  61 0010 00000000 		.word	0
  62 0014 00000000 		.word	0
  63 0018 00000000 		.word	0
  64 001c 01000000 		.word	1
  65 0020 00000000 		.word	0
  66 0024 00000000 		.word	0
  67 0028 00000000 		.word	0
  68 002c 00000000 		.word	0
  69 0030 00000000 		.word	0
  70              		.section	.rodata
  71              		.align	2
  72              	.LC0:
  73 0000 000C0240 		.word	1073875968
  74 0004 B3CF0000 		.word	53171
  75 0008 00000000 		.word	0
  76              		.align	2
  77              	.LC1:
  78 000c 00100240 		.word	1073876992
  79 0010 80FF0000 		.word	65408
  80 0014 00000000 		.word	0
  81              		.section	.text.init_board,"ax",%progbits
  82              		.align	2
  83              		.p2align 4,,15
  84              		.thumb
  85              		.thumb_func
  86              		.type	init_board, %function
  87              	init_board:
  88              	.LFB111:
  89              		.file 1 "/home/makkmarci/workspace/ugfx/drivers/gdisp/SSD1289/board_SSD1289.h"
  90              		.loc 1 41 0
  91              		.cfi_startproc
  92              		@ args = 0, pretend = 0, frame = 32
  93              		@ frame_needed = 0, uses_anonymous_args = 0
  94 0000 00B5     		push	{lr}
  95              		.cfi_def_cfa_offset 4
  96              		.cfi_offset 14, -4
  97 0002 89B0     		sub	sp, sp, #36
  98              		.cfi_def_cfa_offset 40
  99 0004 0190     		str	r0, [sp, #4]
 100              		.loc 1 44 0
 101 0006 019B     		ldr	r3, [sp, #4]
 102 0008 0022     		movs	r2, #0
 103 000a 9A61     		str	r2, [r3, #24]
 104              		.loc 1 46 0
 105 000c 019B     		ldr	r3, [sp, #4]
 106 000e 5B7F     		ldrb	r3, [r3, #29]	@ zero_extendqisi2
 107 0010 002B     		cmp	r3, #0
 108 0012 4AD1     		bne	.L1
 109              	.LBB2:
 110              		.loc 1 65 0
 111 0014 264A     		ldr	r2, .L5
 112 0016 264B     		ldr	r3, .L5
 113 0018 9B6B     		ldr	r3, [r3, #56]
 114 001a 43F00103 		orr	r3, r3, #1
ARM GAS  /tmp/cczWCdZx.s 			page 3


 115 001e 9363     		str	r3, [r2, #56]
 116              		.loc 1 68 0
 117 0020 2448     		ldr	r0, .L5+4
 118 0022 0021     		movs	r1, #0
 119 0024 0022     		movs	r2, #0
 120 0026 0023     		movs	r3, #0
 121 0028 FFF7FEFF 		bl	dmaStreamAllocate
 122 002c 0346     		mov	r3, r0
 123 002e 002B     		cmp	r3, #0
 124 0030 01D0     		beq	.L4
 125              		.loc 1 68 0 is_stmt 0 discriminator 1
 126 0032 FFF7FEFF 		bl	port_halt
 127              	.L4:
 128              		.loc 1 69 0 is_stmt 1
 129 0036 204B     		ldr	r3, .L5+8
 130 0038 D3F8A830 		ldr	r3, [r3, #168]
 131 003c 1F4A     		ldr	r2, .L5+12
 132 003e DA60     		str	r2, [r3, #12]
 133              		.loc 1 70 0
 134 0040 1D4B     		ldr	r3, .L5+8
 135 0042 D3F8A830 		ldr	r3, [r3, #168]
 136 0046 4FF42252 		mov	r2, #10368
 137 004a 1A60     		str	r2, [r3]
 138              		.loc 1 79 0
 139 004c 1C4A     		ldr	r2, .L5+16
 140 004e 05AB     		add	r3, sp, #20
 141 0050 07CA     		ldmia	r2, {r0, r1, r2}
 142 0052 83E80700 		stmia	r3, {r0, r1, r2}
 143              		.loc 1 82 0
 144 0056 1B4A     		ldr	r2, .L5+20
 145 0058 02AB     		add	r3, sp, #8
 146 005a 07CA     		ldmia	r2, {r0, r1, r2}
 147 005c 83E80700 		stmia	r3, {r0, r1, r2}
 148              		.loc 1 85 0
 149 0060 05AB     		add	r3, sp, #20
 150 0062 1846     		mov	r0, r3
 151 0064 40F20261 		movw	r1, #1538
 152 0068 FFF7FEFF 		bl	palSetBusMode
 153              		.loc 1 86 0
 154 006c 02AB     		add	r3, sp, #8
 155 006e 1846     		mov	r0, r3
 156 0070 40F20261 		movw	r1, #1538
 157 0074 FFF7FEFF 		bl	palSetBusMode
 158              		.loc 1 89 0
 159 0078 4FF02043 		mov	r3, #-1610612736
 160 007c 124A     		ldr	r2, .L5+24
 161 007e 5A60     		str	r2, [r3, #4]
 162              		.loc 1 93 0
 163 0080 4FF02043 		mov	r3, #-1610612736
 164 0084 41F21102 		movw	r2, #4113
 165 0088 1A60     		str	r2, [r3]
 166              		.loc 1 97 0
 167 008a 1048     		ldr	r0, .L5+28
 168 008c 1049     		ldr	r1, .L5+32
 169 008e FFF7FEFF 		bl	pwmStart
 170              		.loc 1 98 0
 171 0092 1048     		ldr	r0, .L5+36
ARM GAS  /tmp/cczWCdZx.s 			page 4


 172 0094 0121     		movs	r1, #1
 173 0096 4FF48172 		mov	r2, #258
 174 009a FFF7FEFF 		bl	_pal_lld_setgroupmode
 175              		.loc 1 99 0
 176 009e 0B48     		ldr	r0, .L5+28
 177 00a0 0221     		movs	r1, #2
 178 00a2 6422     		movs	r2, #100
 179 00a4 FFF7FEFF 		bl	pwmEnableChannel
 180              		.loc 1 100 0
 181 00a8 00BF     		nop
 182              	.L1:
 183              	.LBE2:
 184              		.loc 1 102 0
 185 00aa 09B0     		add	sp, sp, #36
 186              		.cfi_def_cfa_offset 4
 187              		@ sp needed
 188 00ac 5DF804FB 		ldr	pc, [sp], #4
 189              	.L6:
 190              		.align	2
 191              	.L5:
 192 00b0 00380240 		.word	1073887232
 193 00b4 A8000000 		.word	_stm32_dma_streams+168
 194 00b8 00000000 		.word	_stm32_dma_streams
 195 00bc 00000260 		.word	1610743808
 196 00c0 00000000 		.word	.LC0
 197 00c4 0C000000 		.word	.LC1
 198 00c8 05050100 		.word	66821
 199 00cc 00000000 		.word	PWMD3
 200 00d0 00000000 		.word	pwmcfg
 201 00d4 00040240 		.word	1073873920
 202              		.cfi_endproc
 203              	.LFE111:
 204              		.size	init_board, .-init_board
 205 00d8 AFF30080 		.section	.text.post_init_board,"ax",%progbits
 205      AFF30080 
 206              		.align	2
 207              		.p2align 4,,15
 208              		.thumb
 209              		.thumb_func
 210              		.type	post_init_board, %function
 211              	post_init_board:
 212              	.LFB112:
 213              		.loc 1 104 0
 214              		.cfi_startproc
 215              		@ args = 0, pretend = 0, frame = 8
 216              		@ frame_needed = 0, uses_anonymous_args = 0
 217              		@ link register save eliminated.
 218 0000 82B0     		sub	sp, sp, #8
 219              		.cfi_def_cfa_offset 8
 220 0002 0190     		str	r0, [sp, #4]
 221              		.loc 1 106 0
 222 0004 02B0     		add	sp, sp, #8
 223              		.cfi_def_cfa_offset 0
 224              		@ sp needed
 225 0006 7047     		bx	lr
 226              		.cfi_endproc
 227              	.LFE112:
ARM GAS  /tmp/cczWCdZx.s 			page 5


 228              		.size	post_init_board, .-post_init_board
 229 0008 AFF30080 		.section	.text.setpin_reset,"ax",%progbits
 229      AFF30080 
 230              		.align	2
 231              		.p2align 4,,15
 232              		.thumb
 233              		.thumb_func
 234              		.type	setpin_reset, %function
 235              	setpin_reset:
 236              	.LFB113:
 237              		.loc 1 108 0
 238              		.cfi_startproc
 239              		@ args = 0, pretend = 0, frame = 8
 240              		@ frame_needed = 0, uses_anonymous_args = 0
 241              		@ link register save eliminated.
 242 0000 82B0     		sub	sp, sp, #8
 243              		.cfi_def_cfa_offset 8
 244 0002 0190     		str	r0, [sp, #4]
 245 0004 0B46     		mov	r3, r1
 246 0006 8DF80330 		strb	r3, [sp, #3]
 247              		.loc 1 111 0
 248 000a 02B0     		add	sp, sp, #8
 249              		.cfi_def_cfa_offset 0
 250              		@ sp needed
 251 000c 7047     		bx	lr
 252              		.cfi_endproc
 253              	.LFE113:
 254              		.size	setpin_reset, .-setpin_reset
 255 000e 00BF     		.section	.text.set_backlight,"ax",%progbits
 256              		.align	2
 257              		.p2align 4,,15
 258              		.thumb
 259              		.thumb_func
 260              		.type	set_backlight, %function
 261              	set_backlight:
 262              	.LFB114:
 263              		.loc 1 113 0
 264              		.cfi_startproc
 265              		@ args = 0, pretend = 0, frame = 8
 266              		@ frame_needed = 0, uses_anonymous_args = 0
 267 0000 00B5     		push	{lr}
 268              		.cfi_def_cfa_offset 4
 269              		.cfi_offset 14, -4
 270 0002 83B0     		sub	sp, sp, #12
 271              		.cfi_def_cfa_offset 16
 272 0004 0190     		str	r0, [sp, #4]
 273 0006 0B46     		mov	r3, r1
 274 0008 8DF80330 		strb	r3, [sp, #3]
 275              		.loc 1 115 0
 276 000c 9DF80330 		ldrb	r3, [sp, #3]	@ zero_extendqisi2
 277 0010 9BB2     		uxth	r3, r3
 278 0012 0448     		ldr	r0, .L10
 279 0014 0221     		movs	r1, #2
 280 0016 1A46     		mov	r2, r3
 281 0018 FFF7FEFF 		bl	pwmEnableChannel
 282              		.loc 1 116 0
 283 001c 03B0     		add	sp, sp, #12
ARM GAS  /tmp/cczWCdZx.s 			page 6


 284              		.cfi_def_cfa_offset 4
 285              		@ sp needed
 286 001e 5DF804FB 		ldr	pc, [sp], #4
 287              	.L11:
 288 0022 00BF     		.align	2
 289              	.L10:
 290 0024 00000000 		.word	PWMD3
 291              		.cfi_endproc
 292              	.LFE114:
 293              		.size	set_backlight, .-set_backlight
 294 0028 AFF30080 		.section	.text.acquire_bus,"ax",%progbits
 294      AFF30080 
 295              		.align	2
 296              		.p2align 4,,15
 297              		.thumb
 298              		.thumb_func
 299              		.type	acquire_bus, %function
 300              	acquire_bus:
 301              	.LFB115:
 302              		.loc 1 118 0
 303              		.cfi_startproc
 304              		@ args = 0, pretend = 0, frame = 8
 305              		@ frame_needed = 0, uses_anonymous_args = 0
 306              		@ link register save eliminated.
 307 0000 82B0     		sub	sp, sp, #8
 308              		.cfi_def_cfa_offset 8
 309 0002 0190     		str	r0, [sp, #4]
 310              		.loc 1 120 0
 311 0004 02B0     		add	sp, sp, #8
 312              		.cfi_def_cfa_offset 0
 313              		@ sp needed
 314 0006 7047     		bx	lr
 315              		.cfi_endproc
 316              	.LFE115:
 317              		.size	acquire_bus, .-acquire_bus
 318 0008 AFF30080 		.section	.text.release_bus,"ax",%progbits
 318      AFF30080 
 319              		.align	2
 320              		.p2align 4,,15
 321              		.thumb
 322              		.thumb_func
 323              		.type	release_bus, %function
 324              	release_bus:
 325              	.LFB116:
 326              		.loc 1 122 0
 327              		.cfi_startproc
 328              		@ args = 0, pretend = 0, frame = 8
 329              		@ frame_needed = 0, uses_anonymous_args = 0
 330              		@ link register save eliminated.
 331 0000 82B0     		sub	sp, sp, #8
 332              		.cfi_def_cfa_offset 8
 333 0002 0190     		str	r0, [sp, #4]
 334              		.loc 1 124 0
 335 0004 02B0     		add	sp, sp, #8
 336              		.cfi_def_cfa_offset 0
 337              		@ sp needed
 338 0006 7047     		bx	lr
ARM GAS  /tmp/cczWCdZx.s 			page 7


 339              		.cfi_endproc
 340              	.LFE116:
 341              		.size	release_bus, .-release_bus
 342 0008 AFF30080 		.section	.text.write_index,"ax",%progbits
 342      AFF30080 
 343              		.align	2
 344              		.p2align 4,,15
 345              		.thumb
 346              		.thumb_func
 347              		.type	write_index, %function
 348              	write_index:
 349              	.LFB117:
 350              		.loc 1 126 0
 351              		.cfi_startproc
 352              		@ args = 0, pretend = 0, frame = 8
 353              		@ frame_needed = 0, uses_anonymous_args = 0
 354              		@ link register save eliminated.
 355 0000 82B0     		sub	sp, sp, #8
 356              		.cfi_def_cfa_offset 8
 357 0002 0190     		str	r0, [sp, #4]
 358 0004 0B46     		mov	r3, r1
 359 0006 ADF80230 		strh	r3, [sp, #2]	@ movhi
 360              		.loc 1 128 0
 361 000a 4FF0C042 		mov	r2, #1610612736
 362 000e BDF80230 		ldrh	r3, [sp, #2]	@ movhi
 363 0012 1380     		strh	r3, [r2]	@ movhi
 364              		.loc 1 129 0
 365 0014 02B0     		add	sp, sp, #8
 366              		.cfi_def_cfa_offset 0
 367              		@ sp needed
 368 0016 7047     		bx	lr
 369              		.cfi_endproc
 370              	.LFE117:
 371              		.size	write_index, .-write_index
 372 0018 AFF30080 		.section	.text.write_data,"ax",%progbits
 372      AFF30080 
 373              		.align	2
 374              		.p2align 4,,15
 375              		.thumb
 376              		.thumb_func
 377              		.type	write_data, %function
 378              	write_data:
 379              	.LFB118:
 380              		.loc 1 131 0
 381              		.cfi_startproc
 382              		@ args = 0, pretend = 0, frame = 8
 383              		@ frame_needed = 0, uses_anonymous_args = 0
 384              		@ link register save eliminated.
 385 0000 82B0     		sub	sp, sp, #8
 386              		.cfi_def_cfa_offset 8
 387 0002 0190     		str	r0, [sp, #4]
 388 0004 0B46     		mov	r3, r1
 389 0006 ADF80230 		strh	r3, [sp, #2]	@ movhi
 390              		.loc 1 133 0
 391 000a 034A     		ldr	r2, .L16
 392 000c BDF80230 		ldrh	r3, [sp, #2]	@ movhi
 393 0010 1380     		strh	r3, [r2]	@ movhi
ARM GAS  /tmp/cczWCdZx.s 			page 8


 394              		.loc 1 134 0
 395 0012 02B0     		add	sp, sp, #8
 396              		.cfi_def_cfa_offset 0
 397              		@ sp needed
 398 0014 7047     		bx	lr
 399              	.L17:
 400 0016 00BF     		.align	2
 401              	.L16:
 402 0018 00000260 		.word	1610743808
 403              		.cfi_endproc
 404              	.LFE118:
 405              		.size	write_data, .-write_data
 406 001c AFF30080 		.section	.text.setreadmode,"ax",%progbits
 407              		.align	2
 408              		.p2align 4,,15
 409              		.thumb
 410              		.thumb_func
 411              		.type	setreadmode, %function
 412              	setreadmode:
 413              	.LFB119:
 414              		.loc 1 136 0
 415              		.cfi_startproc
 416              		@ args = 0, pretend = 0, frame = 8
 417              		@ frame_needed = 0, uses_anonymous_args = 0
 418              		@ link register save eliminated.
 419 0000 82B0     		sub	sp, sp, #8
 420              		.cfi_def_cfa_offset 8
 421 0002 0190     		str	r0, [sp, #4]
 422              		.loc 1 138 0
 423 0004 4FF02043 		mov	r3, #-1610612736
 424 0008 014A     		ldr	r2, .L19
 425 000a 5A60     		str	r2, [r3, #4]
 426              		.loc 1 139 0
 427 000c 02B0     		add	sp, sp, #8
 428              		.cfi_def_cfa_offset 0
 429              		@ sp needed
 430 000e 7047     		bx	lr
 431              	.L20:
 432              		.align	2
 433              	.L19:
 434 0010 08080100 		.word	67592
 435              		.cfi_endproc
 436              	.LFE119:
 437              		.size	setreadmode, .-setreadmode
 438 0014 AFF30080 		.section	.text.setwritemode,"ax",%progbits
 438      AFF30080 
 438      AFF30080 
 439              		.align	2
 440              		.p2align 4,,15
 441              		.thumb
 442              		.thumb_func
 443              		.type	setwritemode, %function
 444              	setwritemode:
 445              	.LFB120:
 446              		.loc 1 141 0
 447              		.cfi_startproc
 448              		@ args = 0, pretend = 0, frame = 8
ARM GAS  /tmp/cczWCdZx.s 			page 9


 449              		@ frame_needed = 0, uses_anonymous_args = 0
 450              		@ link register save eliminated.
 451 0000 82B0     		sub	sp, sp, #8
 452              		.cfi_def_cfa_offset 8
 453 0002 0190     		str	r0, [sp, #4]
 454              		.loc 1 143 0
 455 0004 4FF02043 		mov	r3, #-1610612736
 456 0008 014A     		ldr	r2, .L22
 457 000a 5A60     		str	r2, [r3, #4]
 458              		.loc 1 144 0
 459 000c 02B0     		add	sp, sp, #8
 460              		.cfi_def_cfa_offset 0
 461              		@ sp needed
 462 000e 7047     		bx	lr
 463              	.L23:
 464              		.align	2
 465              	.L22:
 466 0010 01040100 		.word	66561
 467              		.cfi_endproc
 468              	.LFE120:
 469              		.size	setwritemode, .-setwritemode
 470 0014 AFF30080 		.section	.text.read_data,"ax",%progbits
 470      AFF30080 
 470      AFF30080 
 471              		.align	2
 472              		.p2align 4,,15
 473              		.thumb
 474              		.thumb_func
 475              		.type	read_data, %function
 476              	read_data:
 477              	.LFB121:
 478              		.loc 1 146 0
 479              		.cfi_startproc
 480              		@ args = 0, pretend = 0, frame = 8
 481              		@ frame_needed = 0, uses_anonymous_args = 0
 482              		@ link register save eliminated.
 483 0000 82B0     		sub	sp, sp, #8
 484              		.cfi_def_cfa_offset 8
 485 0002 0190     		str	r0, [sp, #4]
 486              		.loc 1 148 0
 487 0004 024B     		ldr	r3, .L26
 488 0006 1B88     		ldrh	r3, [r3]	@ movhi
 489 0008 9BB2     		uxth	r3, r3
 490              		.loc 1 149 0
 491 000a 1846     		mov	r0, r3
 492 000c 02B0     		add	sp, sp, #8
 493              		.cfi_def_cfa_offset 0
 494              		@ sp needed
 495 000e 7047     		bx	lr
 496              	.L27:
 497              		.align	2
 498              	.L26:
 499 0010 00000260 		.word	1610743808
 500              		.cfi_endproc
 501              	.LFE121:
 502              		.size	read_data, .-read_data
 503 0014 AFF30080 		.section	.text.dma_with_noinc,"ax",%progbits
ARM GAS  /tmp/cczWCdZx.s 			page 10


 503      AFF30080 
 503      AFF30080 
 504              		.align	2
 505              		.p2align 4,,15
 506              		.thumb
 507              		.thumb_func
 508              		.type	dma_with_noinc, %function
 509              	dma_with_noinc:
 510              	.LFB122:
 511              		.loc 1 152 0
 512              		.cfi_startproc
 513              		@ args = 0, pretend = 0, frame = 16
 514              		@ frame_needed = 0, uses_anonymous_args = 0
 515              		@ link register save eliminated.
 516 0000 84B0     		sub	sp, sp, #16
 517              		.cfi_def_cfa_offset 16
 518 0002 0390     		str	r0, [sp, #12]
 519 0004 0291     		str	r1, [sp, #8]
 520 0006 0192     		str	r2, [sp, #4]
 521              		.loc 1 154 0
 522 0008 264B     		ldr	r3, .L33
 523 000a D3F8A830 		ldr	r3, [r3, #168]
 524 000e 029A     		ldr	r2, [sp, #8]
 525 0010 9A60     		str	r2, [r3, #8]
 526              		.loc 1 155 0
 527 0012 244B     		ldr	r3, .L33
 528 0014 D3F8A830 		ldr	r3, [r3, #168]
 529 0018 4FF42252 		mov	r2, #10368
 530 001c 1A60     		str	r2, [r3]
 531              		.loc 1 156 0
 532 001e 3CE0     		b	.L29
 533              	.L32:
 534              		.loc 1 157 0
 535 0020 204B     		ldr	r3, .L33
 536 0022 D3F8A830 		ldr	r3, [r3, #168]
 537 0026 019A     		ldr	r2, [sp, #4]
 538 0028 4FF6FF71 		movw	r1, #65535
 539 002c 8A42     		cmp	r2, r1
 540 002e A8BF     		it	ge
 541 0030 0A46     		movge	r2, r1
 542 0032 5A60     		str	r2, [r3, #4]
 543              		.loc 1 158 0
 544 0034 1B4B     		ldr	r3, .L33
 545 0036 D3F8A830 		ldr	r3, [r3, #168]
 546 003a 1A4A     		ldr	r2, .L33
 547 003c D2F8A820 		ldr	r2, [r2, #168]
 548 0040 1268     		ldr	r2, [r2]
 549 0042 42F00102 		orr	r2, r2, #1
 550 0046 1A60     		str	r2, [r3]
 551              		.loc 1 159 0
 552 0048 00BF     		nop
 553              	.L30:
 554              		.loc 1 159 0 is_stmt 0 discriminator 1
 555 004a 164B     		ldr	r3, .L33
 556 004c D3F8A830 		ldr	r3, [r3, #168]
 557 0050 5B68     		ldr	r3, [r3, #4]
 558 0052 002B     		cmp	r3, #0
ARM GAS  /tmp/cczWCdZx.s 			page 11


 559 0054 F9D1     		bne	.L30
 560              		.loc 1 159 0 discriminator 2
 561 0056 134B     		ldr	r3, .L33
 562 0058 D3F8A830 		ldr	r3, [r3, #168]
 563 005c 114A     		ldr	r2, .L33
 564 005e D2F8A820 		ldr	r2, [r2, #168]
 565 0062 1268     		ldr	r2, [r2]
 566 0064 22F01F02 		bic	r2, r2, #31
 567 0068 1A60     		str	r2, [r3]
 568 006a 00BF     		nop
 569              	.L31:
 570              		.loc 1 159 0 discriminator 4
 571 006c 0D4B     		ldr	r3, .L33
 572 006e D3F8A830 		ldr	r3, [r3, #168]
 573 0072 1B68     		ldr	r3, [r3]
 574 0074 03F00103 		and	r3, r3, #1
 575 0078 002B     		cmp	r3, #0
 576 007a F7D1     		bne	.L31
 577              		.loc 1 159 0 discriminator 5
 578 007c 094B     		ldr	r3, .L33
 579 007e D3F8AC30 		ldr	r3, [r3, #172]
 580 0082 084A     		ldr	r2, .L33
 581 0084 92F8B020 		ldrb	r2, [r2, #176]	@ zero_extendqisi2
 582 0088 1146     		mov	r1, r2
 583 008a 3D22     		movs	r2, #61
 584 008c 8A40     		lsls	r2, r2, r1
 585 008e 1A60     		str	r2, [r3]
 586              		.loc 1 156 0 is_stmt 1 discriminator 5
 587 0090 019B     		ldr	r3, [sp, #4]
 588 0092 A3F57F43 		sub	r3, r3, #65280
 589 0096 FF3B     		subs	r3, r3, #255
 590 0098 0193     		str	r3, [sp, #4]
 591              	.L29:
 592              		.loc 1 156 0 is_stmt 0 discriminator 1
 593 009a 019B     		ldr	r3, [sp, #4]
 594 009c 002B     		cmp	r3, #0
 595 009e BFDC     		bgt	.L32
 596              		.loc 1 161 0 is_stmt 1
 597 00a0 04B0     		add	sp, sp, #16
 598              		.cfi_def_cfa_offset 0
 599              		@ sp needed
 600 00a2 7047     		bx	lr
 601              	.L34:
 602              		.align	2
 603              	.L33:
 604 00a4 00000000 		.word	_stm32_dma_streams
 605              		.cfi_endproc
 606              	.LFE122:
 607              		.size	dma_with_noinc, .-dma_with_noinc
 608 00a8 AFF30080 		.section	.text.dma_with_inc,"ax",%progbits
 608      AFF30080 
 609              		.align	2
 610              		.p2align 4,,15
 611              		.thumb
 612              		.thumb_func
 613              		.type	dma_with_inc, %function
 614              	dma_with_inc:
ARM GAS  /tmp/cczWCdZx.s 			page 12


 615              	.LFB123:
 616              		.loc 1 163 0
 617              		.cfi_startproc
 618              		@ args = 0, pretend = 0, frame = 16
 619              		@ frame_needed = 0, uses_anonymous_args = 0
 620              		@ link register save eliminated.
 621 0000 84B0     		sub	sp, sp, #16
 622              		.cfi_def_cfa_offset 16
 623 0002 0390     		str	r0, [sp, #12]
 624 0004 0291     		str	r1, [sp, #8]
 625 0006 0192     		str	r2, [sp, #4]
 626              		.loc 1 165 0
 627 0008 264B     		ldr	r3, .L40
 628 000a D3F8A830 		ldr	r3, [r3, #168]
 629 000e 029A     		ldr	r2, [sp, #8]
 630 0010 9A60     		str	r2, [r3, #8]
 631              		.loc 1 166 0
 632 0012 244B     		ldr	r3, .L40
 633 0014 D3F8A830 		ldr	r3, [r3, #168]
 634 0018 4FF42A52 		mov	r2, #10880
 635 001c 1A60     		str	r2, [r3]
 636              		.loc 1 167 0
 637 001e 3CE0     		b	.L36
 638              	.L39:
 639              		.loc 1 168 0
 640 0020 204B     		ldr	r3, .L40
 641 0022 D3F8A830 		ldr	r3, [r3, #168]
 642 0026 019A     		ldr	r2, [sp, #4]
 643 0028 4FF6FF71 		movw	r1, #65535
 644 002c 8A42     		cmp	r2, r1
 645 002e A8BF     		it	ge
 646 0030 0A46     		movge	r2, r1
 647 0032 5A60     		str	r2, [r3, #4]
 648              		.loc 1 169 0
 649 0034 1B4B     		ldr	r3, .L40
 650 0036 D3F8A830 		ldr	r3, [r3, #168]
 651 003a 1A4A     		ldr	r2, .L40
 652 003c D2F8A820 		ldr	r2, [r2, #168]
 653 0040 1268     		ldr	r2, [r2]
 654 0042 42F00102 		orr	r2, r2, #1
 655 0046 1A60     		str	r2, [r3]
 656              		.loc 1 170 0
 657 0048 00BF     		nop
 658              	.L37:
 659              		.loc 1 170 0 is_stmt 0 discriminator 1
 660 004a 164B     		ldr	r3, .L40
 661 004c D3F8A830 		ldr	r3, [r3, #168]
 662 0050 5B68     		ldr	r3, [r3, #4]
 663 0052 002B     		cmp	r3, #0
 664 0054 F9D1     		bne	.L37
 665              		.loc 1 170 0 discriminator 2
 666 0056 134B     		ldr	r3, .L40
 667 0058 D3F8A830 		ldr	r3, [r3, #168]
 668 005c 114A     		ldr	r2, .L40
 669 005e D2F8A820 		ldr	r2, [r2, #168]
 670 0062 1268     		ldr	r2, [r2]
 671 0064 22F01F02 		bic	r2, r2, #31
ARM GAS  /tmp/cczWCdZx.s 			page 13


 672 0068 1A60     		str	r2, [r3]
 673 006a 00BF     		nop
 674              	.L38:
 675              		.loc 1 170 0 discriminator 4
 676 006c 0D4B     		ldr	r3, .L40
 677 006e D3F8A830 		ldr	r3, [r3, #168]
 678 0072 1B68     		ldr	r3, [r3]
 679 0074 03F00103 		and	r3, r3, #1
 680 0078 002B     		cmp	r3, #0
 681 007a F7D1     		bne	.L38
 682              		.loc 1 170 0 discriminator 5
 683 007c 094B     		ldr	r3, .L40
 684 007e D3F8AC30 		ldr	r3, [r3, #172]
 685 0082 084A     		ldr	r2, .L40
 686 0084 92F8B020 		ldrb	r2, [r2, #176]	@ zero_extendqisi2
 687 0088 1146     		mov	r1, r2
 688 008a 3D22     		movs	r2, #61
 689 008c 8A40     		lsls	r2, r2, r1
 690 008e 1A60     		str	r2, [r3]
 691              		.loc 1 167 0 is_stmt 1 discriminator 5
 692 0090 019B     		ldr	r3, [sp, #4]
 693 0092 A3F57F43 		sub	r3, r3, #65280
 694 0096 FF3B     		subs	r3, r3, #255
 695 0098 0193     		str	r3, [sp, #4]
 696              	.L36:
 697              		.loc 1 167 0 is_stmt 0 discriminator 1
 698 009a 019B     		ldr	r3, [sp, #4]
 699 009c 002B     		cmp	r3, #0
 700 009e BFDC     		bgt	.L39
 701              		.loc 1 172 0 is_stmt 1
 702 00a0 04B0     		add	sp, sp, #16
 703              		.cfi_def_cfa_offset 0
 704              		@ sp needed
 705 00a2 7047     		bx	lr
 706              	.L41:
 707              		.align	2
 708              	.L40:
 709 00a4 00000000 		.word	_stm32_dma_streams
 710              		.cfi_endproc
 711              	.LFE123:
 712              		.size	dma_with_inc, .-dma_with_inc
 713 00a8 AFF30080 		.section	.text.set_cursor,"ax",%progbits
 713      AFF30080 
 714              		.align	2
 715              		.p2align 4,,15
 716              		.thumb
 717              		.thumb_func
 718              		.type	set_cursor, %function
 719              	set_cursor:
 720              	.LFB124:
 721              		.file 2 "/home/makkmarci/workspace/ugfx/drivers/gdisp/SSD1289/gdisp_lld_SSD1289.c"
 722              		.loc 2 49 0
 723              		.cfi_startproc
 724              		@ args = 0, pretend = 0, frame = 8
 725              		@ frame_needed = 0, uses_anonymous_args = 0
 726 0000 00B5     		push	{lr}
 727              		.cfi_def_cfa_offset 4
ARM GAS  /tmp/cczWCdZx.s 			page 14


 728              		.cfi_offset 14, -4
 729 0002 83B0     		sub	sp, sp, #12
 730              		.cfi_def_cfa_offset 16
 731 0004 0190     		str	r0, [sp, #4]
 732              		.loc 2 55 0
 733 0006 019B     		ldr	r3, [sp, #4]
 734 0008 9B89     		ldrh	r3, [r3, #12]
 735 000a B42B     		cmp	r3, #180
 736 000c 40D0     		beq	.L44
 737 000e B3F5877F 		cmp	r3, #270
 738 0012 60D0     		beq	.L45
 739 0014 5A2B     		cmp	r3, #90
 740 0016 1BD0     		beq	.L46
 741              		.loc 2 58 0
 742 0018 0198     		ldr	r0, [sp, #4]
 743 001a 4E21     		movs	r1, #78
 744 001c FFF7FEFF 		bl	write_index
 745 0020 019B     		ldr	r3, [sp, #4]
 746 0022 1B8F     		ldrh	r3, [r3, #56]
 747 0024 9BB2     		uxth	r3, r3
 748 0026 DBB2     		uxtb	r3, r3
 749 0028 9BB2     		uxth	r3, r3
 750 002a 0198     		ldr	r0, [sp, #4]
 751 002c 1946     		mov	r1, r3
 752 002e FFF7FEFF 		bl	write_data
 753              		.loc 2 59 0
 754 0032 0198     		ldr	r0, [sp, #4]
 755 0034 4F21     		movs	r1, #79
 756 0036 FFF7FEFF 		bl	write_index
 757 003a 019B     		ldr	r3, [sp, #4]
 758 003c 5B8F     		ldrh	r3, [r3, #58]
 759 003e 9BB2     		uxth	r3, r3
 760 0040 C3F30803 		ubfx	r3, r3, #0, #9
 761 0044 9BB2     		uxth	r3, r3
 762 0046 0198     		ldr	r0, [sp, #4]
 763 0048 1946     		mov	r1, r3
 764 004a FFF7FEFF 		bl	write_data
 765              		.loc 2 60 0
 766 004e 61E0     		b	.L47
 767              	.L46:
 768              		.loc 2 62 0
 769 0050 0198     		ldr	r0, [sp, #4]
 770 0052 4E21     		movs	r1, #78
 771 0054 FFF7FEFF 		bl	write_index
 772 0058 019B     		ldr	r3, [sp, #4]
 773 005a 5B8F     		ldrh	r3, [r3, #58]
 774 005c 9BB2     		uxth	r3, r3
 775 005e DBB2     		uxtb	r3, r3
 776 0060 9BB2     		uxth	r3, r3
 777 0062 0198     		ldr	r0, [sp, #4]
 778 0064 1946     		mov	r1, r3
 779 0066 FFF7FEFF 		bl	write_data
 780              		.loc 2 63 0
 781 006a 0198     		ldr	r0, [sp, #4]
 782 006c 4F21     		movs	r1, #79
 783 006e FFF7FEFF 		bl	write_index
 784 0072 019B     		ldr	r3, [sp, #4]
ARM GAS  /tmp/cczWCdZx.s 			page 15


 785 0074 1B8F     		ldrh	r3, [r3, #56]
 786 0076 9BB2     		uxth	r3, r3
 787 0078 C3F59F73 		rsb	r3, r3, #318
 788 007c 0133     		adds	r3, r3, #1
 789 007e 9BB2     		uxth	r3, r3
 790 0080 C3F30803 		ubfx	r3, r3, #0, #9
 791 0084 9BB2     		uxth	r3, r3
 792 0086 0198     		ldr	r0, [sp, #4]
 793 0088 1946     		mov	r1, r3
 794 008a FFF7FEFF 		bl	write_data
 795              		.loc 2 64 0
 796 008e 41E0     		b	.L47
 797              	.L44:
 798              		.loc 2 66 0
 799 0090 0198     		ldr	r0, [sp, #4]
 800 0092 4E21     		movs	r1, #78
 801 0094 FFF7FEFF 		bl	write_index
 802 0098 019B     		ldr	r3, [sp, #4]
 803 009a 1B8F     		ldrh	r3, [r3, #56]
 804 009c 9BB2     		uxth	r3, r3
 805 009e C3F1EF03 		rsb	r3, r3, #239
 806 00a2 9BB2     		uxth	r3, r3
 807 00a4 DBB2     		uxtb	r3, r3
 808 00a6 9BB2     		uxth	r3, r3
 809 00a8 0198     		ldr	r0, [sp, #4]
 810 00aa 1946     		mov	r1, r3
 811 00ac FFF7FEFF 		bl	write_data
 812              		.loc 2 67 0
 813 00b0 0198     		ldr	r0, [sp, #4]
 814 00b2 4F21     		movs	r1, #79
 815 00b4 FFF7FEFF 		bl	write_index
 816 00b8 019B     		ldr	r3, [sp, #4]
 817 00ba 5B8F     		ldrh	r3, [r3, #58]
 818 00bc 9BB2     		uxth	r3, r3
 819 00be C3F59F73 		rsb	r3, r3, #318
 820 00c2 0133     		adds	r3, r3, #1
 821 00c4 9BB2     		uxth	r3, r3
 822 00c6 C3F30803 		ubfx	r3, r3, #0, #9
 823 00ca 9BB2     		uxth	r3, r3
 824 00cc 0198     		ldr	r0, [sp, #4]
 825 00ce 1946     		mov	r1, r3
 826 00d0 FFF7FEFF 		bl	write_data
 827              		.loc 2 68 0
 828 00d4 1EE0     		b	.L47
 829              	.L45:
 830              		.loc 2 70 0
 831 00d6 0198     		ldr	r0, [sp, #4]
 832 00d8 4E21     		movs	r1, #78
 833 00da FFF7FEFF 		bl	write_index
 834 00de 019B     		ldr	r3, [sp, #4]
 835 00e0 5B8F     		ldrh	r3, [r3, #58]
 836 00e2 9BB2     		uxth	r3, r3
 837 00e4 C3F1EF03 		rsb	r3, r3, #239
 838 00e8 9BB2     		uxth	r3, r3
 839 00ea DBB2     		uxtb	r3, r3
 840 00ec 9BB2     		uxth	r3, r3
 841 00ee 0198     		ldr	r0, [sp, #4]
ARM GAS  /tmp/cczWCdZx.s 			page 16


 842 00f0 1946     		mov	r1, r3
 843 00f2 FFF7FEFF 		bl	write_data
 844              		.loc 2 71 0
 845 00f6 0198     		ldr	r0, [sp, #4]
 846 00f8 4F21     		movs	r1, #79
 847 00fa FFF7FEFF 		bl	write_index
 848 00fe 019B     		ldr	r3, [sp, #4]
 849 0100 1B8F     		ldrh	r3, [r3, #56]
 850 0102 9BB2     		uxth	r3, r3
 851 0104 C3F30803 		ubfx	r3, r3, #0, #9
 852 0108 9BB2     		uxth	r3, r3
 853 010a 0198     		ldr	r0, [sp, #4]
 854 010c 1946     		mov	r1, r3
 855 010e FFF7FEFF 		bl	write_data
 856              		.loc 2 72 0
 857 0112 00BF     		nop
 858              	.L47:
 859              		.loc 2 74 0
 860 0114 0198     		ldr	r0, [sp, #4]
 861 0116 2221     		movs	r1, #34
 862 0118 FFF7FEFF 		bl	write_index
 863              		.loc 2 75 0
 864 011c 03B0     		add	sp, sp, #12
 865              		.cfi_def_cfa_offset 4
 866              		@ sp needed
 867 011e 5DF804FB 		ldr	pc, [sp], #4
 868              		.cfi_endproc
 869              	.LFE124:
 870              		.size	set_cursor, .-set_cursor
 871 0122 00BFAFF3 		.section	.text.set_viewport,"ax",%progbits
 871      0080AFF3 
 871      0080AFF3 
 871      0080
 872              		.align	2
 873              		.p2align 4,,15
 874              		.thumb
 875              		.thumb_func
 876              		.type	set_viewport, %function
 877              	set_viewport:
 878              	.LFB125:
 879              		.loc 2 77 0
 880              		.cfi_startproc
 881              		@ args = 0, pretend = 0, frame = 8
 882              		@ frame_needed = 0, uses_anonymous_args = 0
 883 0000 00B5     		push	{lr}
 884              		.cfi_def_cfa_offset 4
 885              		.cfi_offset 14, -4
 886 0002 83B0     		sub	sp, sp, #12
 887              		.cfi_def_cfa_offset 16
 888 0004 0190     		str	r0, [sp, #4]
 889              		.loc 2 87 0
 890 0006 019B     		ldr	r3, [sp, #4]
 891 0008 9B89     		ldrh	r3, [r3, #12]
 892 000a B42B     		cmp	r3, #180
 893 000c 00F08580 		beq	.L50
 894 0010 B3F5877F 		cmp	r3, #270
 895 0014 00F0CB80 		beq	.L51
ARM GAS  /tmp/cczWCdZx.s 			page 17


 896 0018 5A2B     		cmp	r3, #90
 897 001a 3CD0     		beq	.L52
 898              		.loc 2 90 0
 899 001c 0198     		ldr	r0, [sp, #4]
 900 001e 4421     		movs	r1, #68
 901 0020 FFF7FEFF 		bl	write_index
 902 0024 019B     		ldr	r3, [sp, #4]
 903 0026 1B8F     		ldrh	r3, [r3, #56]
 904 0028 1AB2     		sxth	r2, r3
 905 002a 019B     		ldr	r3, [sp, #4]
 906 002c 9B8F     		ldrh	r3, [r3, #60]
 907 002e 1BB2     		sxth	r3, r3
 908 0030 1344     		add	r3, r3, r2
 909 0032 013B     		subs	r3, r3, #1
 910 0034 1B02     		lsls	r3, r3, #8
 911 0036 9AB2     		uxth	r2, r3
 912 0038 019B     		ldr	r3, [sp, #4]
 913 003a 1B8F     		ldrh	r3, [r3, #56]
 914 003c DBB2     		uxtb	r3, r3
 915 003e 9BB2     		uxth	r3, r3
 916 0040 1343     		orrs	r3, r3, r2
 917 0042 9BB2     		uxth	r3, r3
 918 0044 9BB2     		uxth	r3, r3
 919 0046 0198     		ldr	r0, [sp, #4]
 920 0048 1946     		mov	r1, r3
 921 004a FFF7FEFF 		bl	write_data
 922              		.loc 2 91 0
 923 004e 0198     		ldr	r0, [sp, #4]
 924 0050 4521     		movs	r1, #69
 925 0052 FFF7FEFF 		bl	write_index
 926 0056 019B     		ldr	r3, [sp, #4]
 927 0058 5B8F     		ldrh	r3, [r3, #58]
 928 005a 9BB2     		uxth	r3, r3
 929 005c C3F30803 		ubfx	r3, r3, #0, #9
 930 0060 9BB2     		uxth	r3, r3
 931 0062 0198     		ldr	r0, [sp, #4]
 932 0064 1946     		mov	r1, r3
 933 0066 FFF7FEFF 		bl	write_data
 934              		.loc 2 92 0
 935 006a 0198     		ldr	r0, [sp, #4]
 936 006c 4621     		movs	r1, #70
 937 006e FFF7FEFF 		bl	write_index
 938 0072 019B     		ldr	r3, [sp, #4]
 939 0074 5B8F     		ldrh	r3, [r3, #58]
 940 0076 9AB2     		uxth	r2, r3
 941 0078 019B     		ldr	r3, [sp, #4]
 942 007a DB8F     		ldrh	r3, [r3, #62]
 943 007c 9BB2     		uxth	r3, r3
 944 007e 1344     		add	r3, r3, r2
 945 0080 9BB2     		uxth	r3, r3
 946 0082 013B     		subs	r3, r3, #1
 947 0084 9BB2     		uxth	r3, r3
 948 0086 C3F30803 		ubfx	r3, r3, #0, #9
 949 008a 9BB2     		uxth	r3, r3
 950 008c 0198     		ldr	r0, [sp, #4]
 951 008e 1946     		mov	r1, r3
 952 0090 FFF7FEFF 		bl	write_data
ARM GAS  /tmp/cczWCdZx.s 			page 18


 953              		.loc 2 93 0
 954 0094 D0E0     		b	.L48
 955              	.L52:
 956              		.loc 2 95 0
 957 0096 0198     		ldr	r0, [sp, #4]
 958 0098 4421     		movs	r1, #68
 959 009a FFF7FEFF 		bl	write_index
 960 009e 019B     		ldr	r3, [sp, #4]
 961 00a0 5B8F     		ldrh	r3, [r3, #58]
 962 00a2 1AB2     		sxth	r2, r3
 963 00a4 019B     		ldr	r3, [sp, #4]
 964 00a6 DB8F     		ldrh	r3, [r3, #62]
 965 00a8 1BB2     		sxth	r3, r3
 966 00aa 1344     		add	r3, r3, r2
 967 00ac 013B     		subs	r3, r3, #1
 968 00ae 1B02     		lsls	r3, r3, #8
 969 00b0 9AB2     		uxth	r2, r3
 970 00b2 019B     		ldr	r3, [sp, #4]
 971 00b4 5B8F     		ldrh	r3, [r3, #58]
 972 00b6 DBB2     		uxtb	r3, r3
 973 00b8 9BB2     		uxth	r3, r3
 974 00ba 1343     		orrs	r3, r3, r2
 975 00bc 9BB2     		uxth	r3, r3
 976 00be 9BB2     		uxth	r3, r3
 977 00c0 0198     		ldr	r0, [sp, #4]
 978 00c2 1946     		mov	r1, r3
 979 00c4 FFF7FEFF 		bl	write_data
 980              		.loc 2 96 0
 981 00c8 0198     		ldr	r0, [sp, #4]
 982 00ca 4521     		movs	r1, #69
 983 00cc FFF7FEFF 		bl	write_index
 984 00d0 019B     		ldr	r3, [sp, #4]
 985 00d2 1B8F     		ldrh	r3, [r3, #56]
 986 00d4 9AB2     		uxth	r2, r3
 987 00d6 019B     		ldr	r3, [sp, #4]
 988 00d8 9B8F     		ldrh	r3, [r3, #60]
 989 00da 9BB2     		uxth	r3, r3
 990 00dc 1344     		add	r3, r3, r2
 991 00de 9BB2     		uxth	r3, r3
 992 00e0 C3F5A073 		rsb	r3, r3, #320
 993 00e4 9BB2     		uxth	r3, r3
 994 00e6 C3F30803 		ubfx	r3, r3, #0, #9
 995 00ea 9BB2     		uxth	r3, r3
 996 00ec 0198     		ldr	r0, [sp, #4]
 997 00ee 1946     		mov	r1, r3
 998 00f0 FFF7FEFF 		bl	write_data
 999              		.loc 2 97 0
 1000 00f4 0198     		ldr	r0, [sp, #4]
 1001 00f6 4621     		movs	r1, #70
 1002 00f8 FFF7FEFF 		bl	write_index
 1003 00fc 019B     		ldr	r3, [sp, #4]
 1004 00fe 1B8F     		ldrh	r3, [r3, #56]
 1005 0100 9BB2     		uxth	r3, r3
 1006 0102 C3F59F73 		rsb	r3, r3, #318
 1007 0106 0133     		adds	r3, r3, #1
 1008 0108 9BB2     		uxth	r3, r3
 1009 010a C3F30803 		ubfx	r3, r3, #0, #9
ARM GAS  /tmp/cczWCdZx.s 			page 19


 1010 010e 9BB2     		uxth	r3, r3
 1011 0110 0198     		ldr	r0, [sp, #4]
 1012 0112 1946     		mov	r1, r3
 1013 0114 FFF7FEFF 		bl	write_data
 1014              		.loc 2 98 0
 1015 0118 8EE0     		b	.L48
 1016              	.L50:
 1017              		.loc 2 100 0
 1018 011a 0198     		ldr	r0, [sp, #4]
 1019 011c 4421     		movs	r1, #68
 1020 011e FFF7FEFF 		bl	write_index
 1021 0122 019B     		ldr	r3, [sp, #4]
 1022 0124 1B8F     		ldrh	r3, [r3, #56]
 1023 0126 1BB2     		sxth	r3, r3
 1024 0128 C3F1EF03 		rsb	r3, r3, #239
 1025 012c 1B02     		lsls	r3, r3, #8
 1026 012e 99B2     		uxth	r1, r3
 1027 0130 019B     		ldr	r3, [sp, #4]
 1028 0132 1B8F     		ldrh	r3, [r3, #56]
 1029 0134 9AB2     		uxth	r2, r3
 1030 0136 019B     		ldr	r3, [sp, #4]
 1031 0138 9B8F     		ldrh	r3, [r3, #60]
 1032 013a 9BB2     		uxth	r3, r3
 1033 013c 1344     		add	r3, r3, r2
 1034 013e 9BB2     		uxth	r3, r3
 1035 0140 C3F1F003 		rsb	r3, r3, #240
 1036 0144 9BB2     		uxth	r3, r3
 1037 0146 9BB2     		uxth	r3, r3
 1038 0148 DBB2     		uxtb	r3, r3
 1039 014a 9BB2     		uxth	r3, r3
 1040 014c 0A46     		mov	r2, r1	@ movhi
 1041 014e 1343     		orrs	r3, r3, r2
 1042 0150 9BB2     		uxth	r3, r3
 1043 0152 9BB2     		uxth	r3, r3
 1044 0154 0198     		ldr	r0, [sp, #4]
 1045 0156 1946     		mov	r1, r3
 1046 0158 FFF7FEFF 		bl	write_data
 1047              		.loc 2 101 0
 1048 015c 0198     		ldr	r0, [sp, #4]
 1049 015e 4521     		movs	r1, #69
 1050 0160 FFF7FEFF 		bl	write_index
 1051 0164 019B     		ldr	r3, [sp, #4]
 1052 0166 5B8F     		ldrh	r3, [r3, #58]
 1053 0168 9AB2     		uxth	r2, r3
 1054 016a 019B     		ldr	r3, [sp, #4]
 1055 016c DB8F     		ldrh	r3, [r3, #62]
 1056 016e 9BB2     		uxth	r3, r3
 1057 0170 1344     		add	r3, r3, r2
 1058 0172 9BB2     		uxth	r3, r3
 1059 0174 C3F5A073 		rsb	r3, r3, #320
 1060 0178 9BB2     		uxth	r3, r3
 1061 017a C3F30803 		ubfx	r3, r3, #0, #9
 1062 017e 9BB2     		uxth	r3, r3
 1063 0180 0198     		ldr	r0, [sp, #4]
 1064 0182 1946     		mov	r1, r3
 1065 0184 FFF7FEFF 		bl	write_data
 1066              		.loc 2 102 0
ARM GAS  /tmp/cczWCdZx.s 			page 20


 1067 0188 0198     		ldr	r0, [sp, #4]
 1068 018a 4621     		movs	r1, #70
 1069 018c FFF7FEFF 		bl	write_index
 1070 0190 019B     		ldr	r3, [sp, #4]
 1071 0192 5B8F     		ldrh	r3, [r3, #58]
 1072 0194 9BB2     		uxth	r3, r3
 1073 0196 C3F59F73 		rsb	r3, r3, #318
 1074 019a 0133     		adds	r3, r3, #1
 1075 019c 9BB2     		uxth	r3, r3
 1076 019e C3F30803 		ubfx	r3, r3, #0, #9
 1077 01a2 9BB2     		uxth	r3, r3
 1078 01a4 0198     		ldr	r0, [sp, #4]
 1079 01a6 1946     		mov	r1, r3
 1080 01a8 FFF7FEFF 		bl	write_data
 1081              		.loc 2 103 0
 1082 01ac 44E0     		b	.L48
 1083              	.L51:
 1084              		.loc 2 105 0
 1085 01ae 0198     		ldr	r0, [sp, #4]
 1086 01b0 4421     		movs	r1, #68
 1087 01b2 FFF7FEFF 		bl	write_index
 1088 01b6 019B     		ldr	r3, [sp, #4]
 1089 01b8 5B8F     		ldrh	r3, [r3, #58]
 1090 01ba 1BB2     		sxth	r3, r3
 1091 01bc C3F1EF03 		rsb	r3, r3, #239
 1092 01c0 1B02     		lsls	r3, r3, #8
 1093 01c2 99B2     		uxth	r1, r3
 1094 01c4 019B     		ldr	r3, [sp, #4]
 1095 01c6 5B8F     		ldrh	r3, [r3, #58]
 1096 01c8 9AB2     		uxth	r2, r3
 1097 01ca 019B     		ldr	r3, [sp, #4]
 1098 01cc DB8F     		ldrh	r3, [r3, #62]
 1099 01ce 9BB2     		uxth	r3, r3
 1100 01d0 1344     		add	r3, r3, r2
 1101 01d2 9BB2     		uxth	r3, r3
 1102 01d4 C3F1F003 		rsb	r3, r3, #240
 1103 01d8 9BB2     		uxth	r3, r3
 1104 01da 9BB2     		uxth	r3, r3
 1105 01dc DBB2     		uxtb	r3, r3
 1106 01de 9BB2     		uxth	r3, r3
 1107 01e0 0A46     		mov	r2, r1	@ movhi
 1108 01e2 1343     		orrs	r3, r3, r2
 1109 01e4 9BB2     		uxth	r3, r3
 1110 01e6 9BB2     		uxth	r3, r3
 1111 01e8 0198     		ldr	r0, [sp, #4]
 1112 01ea 1946     		mov	r1, r3
 1113 01ec FFF7FEFF 		bl	write_data
 1114              		.loc 2 106 0
 1115 01f0 0198     		ldr	r0, [sp, #4]
 1116 01f2 4521     		movs	r1, #69
 1117 01f4 FFF7FEFF 		bl	write_index
 1118 01f8 019B     		ldr	r3, [sp, #4]
 1119 01fa 1B8F     		ldrh	r3, [r3, #56]
 1120 01fc 9BB2     		uxth	r3, r3
 1121 01fe C3F30803 		ubfx	r3, r3, #0, #9
 1122 0202 9BB2     		uxth	r3, r3
 1123 0204 0198     		ldr	r0, [sp, #4]
ARM GAS  /tmp/cczWCdZx.s 			page 21


 1124 0206 1946     		mov	r1, r3
 1125 0208 FFF7FEFF 		bl	write_data
 1126              		.loc 2 107 0
 1127 020c 0198     		ldr	r0, [sp, #4]
 1128 020e 4621     		movs	r1, #70
 1129 0210 FFF7FEFF 		bl	write_index
 1130 0214 019B     		ldr	r3, [sp, #4]
 1131 0216 1B8F     		ldrh	r3, [r3, #56]
 1132 0218 9AB2     		uxth	r2, r3
 1133 021a 019B     		ldr	r3, [sp, #4]
 1134 021c 9B8F     		ldrh	r3, [r3, #60]
 1135 021e 9BB2     		uxth	r3, r3
 1136 0220 1344     		add	r3, r3, r2
 1137 0222 9BB2     		uxth	r3, r3
 1138 0224 013B     		subs	r3, r3, #1
 1139 0226 9BB2     		uxth	r3, r3
 1140 0228 C3F30803 		ubfx	r3, r3, #0, #9
 1141 022c 9BB2     		uxth	r3, r3
 1142 022e 0198     		ldr	r0, [sp, #4]
 1143 0230 1946     		mov	r1, r3
 1144 0232 FFF7FEFF 		bl	write_data
 1145              		.loc 2 108 0
 1146 0236 00BF     		nop
 1147              	.L48:
 1148              		.loc 2 110 0
 1149 0238 03B0     		add	sp, sp, #12
 1150              		.cfi_def_cfa_offset 4
 1151              		@ sp needed
 1152 023a 5DF804FB 		ldr	pc, [sp], #4
 1153              		.cfi_endproc
 1154              	.LFE125:
 1155              		.size	set_viewport, .-set_viewport
 1156 023e 00BF     		.section	.text.gdisp_lld_init,"ax",%progbits
 1157              		.align	2
 1158              		.p2align 4,,15
 1159              		.global	gdisp_lld_init
 1160              		.thumb
 1161              		.thumb_func
 1162              		.type	gdisp_lld_init, %function
 1163              	gdisp_lld_init:
 1164              	.LFB126:
 1165              		.loc 2 120 0
 1166              		.cfi_startproc
 1167              		@ args = 0, pretend = 0, frame = 8
 1168              		@ frame_needed = 0, uses_anonymous_args = 0
 1169 0000 00B5     		push	{lr}
 1170              		.cfi_def_cfa_offset 4
 1171              		.cfi_offset 14, -4
 1172 0002 83B0     		sub	sp, sp, #12
 1173              		.cfi_def_cfa_offset 16
 1174 0004 0190     		str	r0, [sp, #4]
 1175              		.loc 2 122 0
 1176 0006 019B     		ldr	r3, [sp, #4]
 1177 0008 0022     		movs	r2, #0
 1178 000a 5A61     		str	r2, [r3, #20]
 1179              		.loc 2 125 0
 1180 000c 0198     		ldr	r0, [sp, #4]
ARM GAS  /tmp/cczWCdZx.s 			page 22


 1181 000e FFF7FEFF 		bl	init_board
 1182              		.loc 2 128 0
 1183 0012 0198     		ldr	r0, [sp, #4]
 1184 0014 0121     		movs	r1, #1
 1185 0016 FFF7FEFF 		bl	setpin_reset
 1186              		.loc 2 129 0
 1187 001a 1420     		movs	r0, #20
 1188 001c FFF7FEFF 		bl	gfxSleepMilliseconds
 1189              		.loc 2 130 0
 1190 0020 0198     		ldr	r0, [sp, #4]
 1191 0022 0021     		movs	r1, #0
 1192 0024 FFF7FEFF 		bl	setpin_reset
 1193              		.loc 2 131 0
 1194 0028 1420     		movs	r0, #20
 1195 002a FFF7FEFF 		bl	gfxSleepMilliseconds
 1196              		.loc 2 134 0
 1197 002e 0198     		ldr	r0, [sp, #4]
 1198 0030 FFF7FEFF 		bl	acquire_bus
 1199              		.loc 2 136 0
 1200 0034 0198     		ldr	r0, [sp, #4]
 1201 0036 0021     		movs	r1, #0
 1202 0038 FFF7FEFF 		bl	write_index
 1203 003c 0198     		ldr	r0, [sp, #4]
 1204 003e 0121     		movs	r1, #1
 1205 0040 FFF7FEFF 		bl	write_data
 1206 0044 0520     		movs	r0, #5
 1207 0046 FFF7FEFF 		bl	gfxSleepMicroseconds
 1208              		.loc 2 137 0
 1209 004a 0198     		ldr	r0, [sp, #4]
 1210 004c 0321     		movs	r1, #3
 1211 004e FFF7FEFF 		bl	write_index
 1212 0052 0198     		ldr	r0, [sp, #4]
 1213 0054 4AF6A401 		movw	r1, #43172
 1214 0058 FFF7FEFF 		bl	write_data
 1215 005c 0520     		movs	r0, #5
 1216 005e FFF7FEFF 		bl	gfxSleepMicroseconds
 1217              		.loc 2 138 0
 1218 0062 0198     		ldr	r0, [sp, #4]
 1219 0064 0C21     		movs	r1, #12
 1220 0066 FFF7FEFF 		bl	write_index
 1221 006a 0198     		ldr	r0, [sp, #4]
 1222 006c 0021     		movs	r1, #0
 1223 006e FFF7FEFF 		bl	write_data
 1224 0072 0520     		movs	r0, #5
 1225 0074 FFF7FEFF 		bl	gfxSleepMicroseconds
 1226              		.loc 2 139 0
 1227 0078 0198     		ldr	r0, [sp, #4]
 1228 007a 0D21     		movs	r1, #13
 1229 007c FFF7FEFF 		bl	write_index
 1230 0080 0198     		ldr	r0, [sp, #4]
 1231 0082 40F60C01 		movw	r1, #2060
 1232 0086 FFF7FEFF 		bl	write_data
 1233 008a 0520     		movs	r0, #5
 1234 008c FFF7FEFF 		bl	gfxSleepMicroseconds
 1235              		.loc 2 140 0
 1236 0090 0198     		ldr	r0, [sp, #4]
 1237 0092 0E21     		movs	r1, #14
ARM GAS  /tmp/cczWCdZx.s 			page 23


 1238 0094 FFF7FEFF 		bl	write_index
 1239 0098 0198     		ldr	r0, [sp, #4]
 1240 009a 4FF42C51 		mov	r1, #11008
 1241 009e FFF7FEFF 		bl	write_data
 1242 00a2 0520     		movs	r0, #5
 1243 00a4 FFF7FEFF 		bl	gfxSleepMicroseconds
 1244              		.loc 2 141 0
 1245 00a8 0198     		ldr	r0, [sp, #4]
 1246 00aa 1E21     		movs	r1, #30
 1247 00ac FFF7FEFF 		bl	write_index
 1248 00b0 0198     		ldr	r0, [sp, #4]
 1249 00b2 B021     		movs	r1, #176
 1250 00b4 FFF7FEFF 		bl	write_data
 1251 00b8 0520     		movs	r0, #5
 1252 00ba FFF7FEFF 		bl	gfxSleepMicroseconds
 1253              		.loc 2 142 0
 1254 00be 0198     		ldr	r0, [sp, #4]
 1255 00c0 0121     		movs	r1, #1
 1256 00c2 FFF7FEFF 		bl	write_index
 1257 00c6 0198     		ldr	r0, [sp, #4]
 1258 00c8 42F63F31 		movw	r1, #11071
 1259 00cc FFF7FEFF 		bl	write_data
 1260 00d0 0520     		movs	r0, #5
 1261 00d2 FFF7FEFF 		bl	gfxSleepMicroseconds
 1262              		.loc 2 143 0
 1263 00d6 0198     		ldr	r0, [sp, #4]
 1264 00d8 0221     		movs	r1, #2
 1265 00da FFF7FEFF 		bl	write_index
 1266 00de 0198     		ldr	r0, [sp, #4]
 1267 00e0 4FF4C061 		mov	r1, #1536
 1268 00e4 FFF7FEFF 		bl	write_data
 1269 00e8 0520     		movs	r0, #5
 1270 00ea FFF7FEFF 		bl	gfxSleepMicroseconds
 1271              		.loc 2 144 0
 1272 00ee 0198     		ldr	r0, [sp, #4]
 1273 00f0 1021     		movs	r1, #16
 1274 00f2 FFF7FEFF 		bl	write_index
 1275 00f6 0198     		ldr	r0, [sp, #4]
 1276 00f8 0021     		movs	r1, #0
 1277 00fa FFF7FEFF 		bl	write_data
 1278 00fe 0520     		movs	r0, #5
 1279 0100 FFF7FEFF 		bl	gfxSleepMicroseconds
 1280              		.loc 2 145 0
 1281 0104 0198     		ldr	r0, [sp, #4]
 1282 0106 1121     		movs	r1, #17
 1283 0108 FFF7FEFF 		bl	write_index
 1284 010c 0198     		ldr	r0, [sp, #4]
 1285 010e 46F27001 		movw	r1, #24688
 1286 0112 FFF7FEFF 		bl	write_data
 1287 0116 0520     		movs	r0, #5
 1288 0118 FFF7FEFF 		bl	gfxSleepMicroseconds
 1289              		.loc 2 146 0
 1290 011c 0198     		ldr	r0, [sp, #4]
 1291 011e 0521     		movs	r1, #5
 1292 0120 FFF7FEFF 		bl	write_index
 1293 0124 0198     		ldr	r0, [sp, #4]
 1294 0126 0021     		movs	r1, #0
ARM GAS  /tmp/cczWCdZx.s 			page 24


 1295 0128 FFF7FEFF 		bl	write_data
 1296 012c 0520     		movs	r0, #5
 1297 012e FFF7FEFF 		bl	gfxSleepMicroseconds
 1298              		.loc 2 147 0
 1299 0132 0198     		ldr	r0, [sp, #4]
 1300 0134 0621     		movs	r1, #6
 1301 0136 FFF7FEFF 		bl	write_index
 1302 013a 0198     		ldr	r0, [sp, #4]
 1303 013c 0021     		movs	r1, #0
 1304 013e FFF7FEFF 		bl	write_data
 1305 0142 0520     		movs	r0, #5
 1306 0144 FFF7FEFF 		bl	gfxSleepMicroseconds
 1307              		.loc 2 148 0
 1308 0148 0198     		ldr	r0, [sp, #4]
 1309 014a 1621     		movs	r1, #22
 1310 014c FFF7FEFF 		bl	write_index
 1311 0150 0198     		ldr	r0, [sp, #4]
 1312 0152 4EF61C71 		movw	r1, #61212
 1313 0156 FFF7FEFF 		bl	write_data
 1314 015a 0520     		movs	r0, #5
 1315 015c FFF7FEFF 		bl	gfxSleepMicroseconds
 1316              		.loc 2 149 0
 1317 0160 0198     		ldr	r0, [sp, #4]
 1318 0162 1721     		movs	r1, #23
 1319 0164 FFF7FEFF 		bl	write_index
 1320 0168 0198     		ldr	r0, [sp, #4]
 1321 016a 0321     		movs	r1, #3
 1322 016c FFF7FEFF 		bl	write_data
 1323 0170 0520     		movs	r0, #5
 1324 0172 FFF7FEFF 		bl	gfxSleepMicroseconds
 1325              		.loc 2 150 0
 1326 0176 0198     		ldr	r0, [sp, #4]
 1327 0178 0721     		movs	r1, #7
 1328 017a FFF7FEFF 		bl	write_index
 1329 017e 0198     		ldr	r0, [sp, #4]
 1330 0180 40F23311 		movw	r1, #307
 1331 0184 FFF7FEFF 		bl	write_data
 1332 0188 0520     		movs	r0, #5
 1333 018a FFF7FEFF 		bl	gfxSleepMicroseconds
 1334              		.loc 2 151 0
 1335 018e 0198     		ldr	r0, [sp, #4]
 1336 0190 0B21     		movs	r1, #11
 1337 0192 FFF7FEFF 		bl	write_index
 1338 0196 0198     		ldr	r0, [sp, #4]
 1339 0198 0021     		movs	r1, #0
 1340 019a FFF7FEFF 		bl	write_data
 1341 019e 0520     		movs	r0, #5
 1342 01a0 FFF7FEFF 		bl	gfxSleepMicroseconds
 1343              		.loc 2 152 0
 1344 01a4 0198     		ldr	r0, [sp, #4]
 1345 01a6 0F21     		movs	r1, #15
 1346 01a8 FFF7FEFF 		bl	write_index
 1347 01ac 0198     		ldr	r0, [sp, #4]
 1348 01ae 0021     		movs	r1, #0
 1349 01b0 FFF7FEFF 		bl	write_data
 1350 01b4 0520     		movs	r0, #5
 1351 01b6 FFF7FEFF 		bl	gfxSleepMicroseconds
ARM GAS  /tmp/cczWCdZx.s 			page 25


 1352              		.loc 2 153 0
 1353 01ba 0198     		ldr	r0, [sp, #4]
 1354 01bc 4121     		movs	r1, #65
 1355 01be FFF7FEFF 		bl	write_index
 1356 01c2 0198     		ldr	r0, [sp, #4]
 1357 01c4 0021     		movs	r1, #0
 1358 01c6 FFF7FEFF 		bl	write_data
 1359 01ca 0520     		movs	r0, #5
 1360 01cc FFF7FEFF 		bl	gfxSleepMicroseconds
 1361              		.loc 2 154 0
 1362 01d0 0198     		ldr	r0, [sp, #4]
 1363 01d2 4221     		movs	r1, #66
 1364 01d4 FFF7FEFF 		bl	write_index
 1365 01d8 0198     		ldr	r0, [sp, #4]
 1366 01da 0021     		movs	r1, #0
 1367 01dc FFF7FEFF 		bl	write_data
 1368 01e0 0520     		movs	r0, #5
 1369 01e2 FFF7FEFF 		bl	gfxSleepMicroseconds
 1370              		.loc 2 155 0
 1371 01e6 0198     		ldr	r0, [sp, #4]
 1372 01e8 4821     		movs	r1, #72
 1373 01ea FFF7FEFF 		bl	write_index
 1374 01ee 0198     		ldr	r0, [sp, #4]
 1375 01f0 0021     		movs	r1, #0
 1376 01f2 FFF7FEFF 		bl	write_data
 1377 01f6 0520     		movs	r0, #5
 1378 01f8 FFF7FEFF 		bl	gfxSleepMicroseconds
 1379              		.loc 2 156 0
 1380 01fc 0198     		ldr	r0, [sp, #4]
 1381 01fe 4921     		movs	r1, #73
 1382 0200 FFF7FEFF 		bl	write_index
 1383 0204 0198     		ldr	r0, [sp, #4]
 1384 0206 40F23F11 		movw	r1, #319
 1385 020a FFF7FEFF 		bl	write_data
 1386 020e 0520     		movs	r0, #5
 1387 0210 FFF7FEFF 		bl	gfxSleepMicroseconds
 1388              		.loc 2 157 0
 1389 0214 0198     		ldr	r0, [sp, #4]
 1390 0216 4A21     		movs	r1, #74
 1391 0218 FFF7FEFF 		bl	write_index
 1392 021c 0198     		ldr	r0, [sp, #4]
 1393 021e 0021     		movs	r1, #0
 1394 0220 FFF7FEFF 		bl	write_data
 1395 0224 0520     		movs	r0, #5
 1396 0226 FFF7FEFF 		bl	gfxSleepMicroseconds
 1397              		.loc 2 158 0
 1398 022a 0198     		ldr	r0, [sp, #4]
 1399 022c 4B21     		movs	r1, #75
 1400 022e FFF7FEFF 		bl	write_index
 1401 0232 0198     		ldr	r0, [sp, #4]
 1402 0234 0021     		movs	r1, #0
 1403 0236 FFF7FEFF 		bl	write_data
 1404 023a 0520     		movs	r0, #5
 1405 023c FFF7FEFF 		bl	gfxSleepMicroseconds
 1406              		.loc 2 159 0
 1407 0240 0198     		ldr	r0, [sp, #4]
 1408 0242 4421     		movs	r1, #68
ARM GAS  /tmp/cczWCdZx.s 			page 26


 1409 0244 FFF7FEFF 		bl	write_index
 1410 0248 0198     		ldr	r0, [sp, #4]
 1411 024a 4FF46F41 		mov	r1, #61184
 1412 024e FFF7FEFF 		bl	write_data
 1413 0252 0520     		movs	r0, #5
 1414 0254 FFF7FEFF 		bl	gfxSleepMicroseconds
 1415              		.loc 2 160 0
 1416 0258 0198     		ldr	r0, [sp, #4]
 1417 025a 4521     		movs	r1, #69
 1418 025c FFF7FEFF 		bl	write_index
 1419 0260 0198     		ldr	r0, [sp, #4]
 1420 0262 0021     		movs	r1, #0
 1421 0264 FFF7FEFF 		bl	write_data
 1422 0268 0520     		movs	r0, #5
 1423 026a FFF7FEFF 		bl	gfxSleepMicroseconds
 1424              		.loc 2 161 0
 1425 026e 0198     		ldr	r0, [sp, #4]
 1426 0270 4621     		movs	r1, #70
 1427 0272 FFF7FEFF 		bl	write_index
 1428 0276 0198     		ldr	r0, [sp, #4]
 1429 0278 40F23F11 		movw	r1, #319
 1430 027c FFF7FEFF 		bl	write_data
 1431 0280 0520     		movs	r0, #5
 1432 0282 FFF7FEFF 		bl	gfxSleepMicroseconds
 1433              		.loc 2 162 0
 1434 0286 0198     		ldr	r0, [sp, #4]
 1435 0288 3021     		movs	r1, #48
 1436 028a FFF7FEFF 		bl	write_index
 1437 028e 0198     		ldr	r0, [sp, #4]
 1438 0290 40F20771 		movw	r1, #1799
 1439 0294 FFF7FEFF 		bl	write_data
 1440 0298 0520     		movs	r0, #5
 1441 029a FFF7FEFF 		bl	gfxSleepMicroseconds
 1442              		.loc 2 163 0
 1443 029e 0198     		ldr	r0, [sp, #4]
 1444 02a0 3121     		movs	r1, #49
 1445 02a2 FFF7FEFF 		bl	write_index
 1446 02a6 0198     		ldr	r0, [sp, #4]
 1447 02a8 4FF40171 		mov	r1, #516
 1448 02ac FFF7FEFF 		bl	write_data
 1449 02b0 0520     		movs	r0, #5
 1450 02b2 FFF7FEFF 		bl	gfxSleepMicroseconds
 1451              		.loc 2 164 0
 1452 02b6 0198     		ldr	r0, [sp, #4]
 1453 02b8 3221     		movs	r1, #50
 1454 02ba FFF7FEFF 		bl	write_index
 1455 02be 0198     		ldr	r0, [sp, #4]
 1456 02c0 4FF40171 		mov	r1, #516
 1457 02c4 FFF7FEFF 		bl	write_data
 1458 02c8 0520     		movs	r0, #5
 1459 02ca FFF7FEFF 		bl	gfxSleepMicroseconds
 1460              		.loc 2 165 0
 1461 02ce 0198     		ldr	r0, [sp, #4]
 1462 02d0 3321     		movs	r1, #51
 1463 02d2 FFF7FEFF 		bl	write_index
 1464 02d6 0198     		ldr	r0, [sp, #4]
 1465 02d8 40F20251 		movw	r1, #1282
ARM GAS  /tmp/cczWCdZx.s 			page 27


 1466 02dc FFF7FEFF 		bl	write_data
 1467 02e0 0520     		movs	r0, #5
 1468 02e2 FFF7FEFF 		bl	gfxSleepMicroseconds
 1469              		.loc 2 166 0
 1470 02e6 0198     		ldr	r0, [sp, #4]
 1471 02e8 3421     		movs	r1, #52
 1472 02ea FFF7FEFF 		bl	write_index
 1473 02ee 0198     		ldr	r0, [sp, #4]
 1474 02f0 40F20751 		movw	r1, #1287
 1475 02f4 FFF7FEFF 		bl	write_data
 1476 02f8 0520     		movs	r0, #5
 1477 02fa FFF7FEFF 		bl	gfxSleepMicroseconds
 1478              		.loc 2 167 0
 1479 02fe 0198     		ldr	r0, [sp, #4]
 1480 0300 3521     		movs	r1, #53
 1481 0302 FFF7FEFF 		bl	write_index
 1482 0306 0198     		ldr	r0, [sp, #4]
 1483 0308 4FF40171 		mov	r1, #516
 1484 030c FFF7FEFF 		bl	write_data
 1485 0310 0520     		movs	r0, #5
 1486 0312 FFF7FEFF 		bl	gfxSleepMicroseconds
 1487              		.loc 2 168 0
 1488 0316 0198     		ldr	r0, [sp, #4]
 1489 0318 3621     		movs	r1, #54
 1490 031a FFF7FEFF 		bl	write_index
 1491 031e 0198     		ldr	r0, [sp, #4]
 1492 0320 4FF40171 		mov	r1, #516
 1493 0324 FFF7FEFF 		bl	write_data
 1494 0328 0520     		movs	r0, #5
 1495 032a FFF7FEFF 		bl	gfxSleepMicroseconds
 1496              		.loc 2 169 0
 1497 032e 0198     		ldr	r0, [sp, #4]
 1498 0330 3721     		movs	r1, #55
 1499 0332 FFF7FEFF 		bl	write_index
 1500 0336 0198     		ldr	r0, [sp, #4]
 1501 0338 40F20251 		movw	r1, #1282
 1502 033c FFF7FEFF 		bl	write_data
 1503 0340 0520     		movs	r0, #5
 1504 0342 FFF7FEFF 		bl	gfxSleepMicroseconds
 1505              		.loc 2 170 0
 1506 0346 0198     		ldr	r0, [sp, #4]
 1507 0348 3A21     		movs	r1, #58
 1508 034a FFF7FEFF 		bl	write_index
 1509 034e 0198     		ldr	r0, [sp, #4]
 1510 0350 40F20231 		movw	r1, #770
 1511 0354 FFF7FEFF 		bl	write_data
 1512 0358 0520     		movs	r0, #5
 1513 035a FFF7FEFF 		bl	gfxSleepMicroseconds
 1514              		.loc 2 171 0
 1515 035e 0198     		ldr	r0, [sp, #4]
 1516 0360 3B21     		movs	r1, #59
 1517 0362 FFF7FEFF 		bl	write_index
 1518 0366 0198     		ldr	r0, [sp, #4]
 1519 0368 40F20231 		movw	r1, #770
 1520 036c FFF7FEFF 		bl	write_data
 1521 0370 0520     		movs	r0, #5
 1522 0372 FFF7FEFF 		bl	gfxSleepMicroseconds
ARM GAS  /tmp/cczWCdZx.s 			page 28


 1523              		.loc 2 172 0
 1524 0376 0198     		ldr	r0, [sp, #4]
 1525 0378 2321     		movs	r1, #35
 1526 037a FFF7FEFF 		bl	write_index
 1527 037e 0198     		ldr	r0, [sp, #4]
 1528 0380 0021     		movs	r1, #0
 1529 0382 FFF7FEFF 		bl	write_data
 1530 0386 0520     		movs	r0, #5
 1531 0388 FFF7FEFF 		bl	gfxSleepMicroseconds
 1532              		.loc 2 173 0
 1533 038c 0198     		ldr	r0, [sp, #4]
 1534 038e 2421     		movs	r1, #36
 1535 0390 FFF7FEFF 		bl	write_index
 1536 0394 0198     		ldr	r0, [sp, #4]
 1537 0396 0021     		movs	r1, #0
 1538 0398 FFF7FEFF 		bl	write_data
 1539 039c 0520     		movs	r0, #5
 1540 039e FFF7FEFF 		bl	gfxSleepMicroseconds
 1541              		.loc 2 174 0
 1542 03a2 0198     		ldr	r0, [sp, #4]
 1543 03a4 2521     		movs	r1, #37
 1544 03a6 FFF7FEFF 		bl	write_index
 1545 03aa 0198     		ldr	r0, [sp, #4]
 1546 03ac 4FF40041 		mov	r1, #32768
 1547 03b0 FFF7FEFF 		bl	write_data
 1548 03b4 0520     		movs	r0, #5
 1549 03b6 FFF7FEFF 		bl	gfxSleepMicroseconds
 1550              		.loc 2 175 0
 1551 03ba 0198     		ldr	r0, [sp, #4]
 1552 03bc 4F21     		movs	r1, #79
 1553 03be FFF7FEFF 		bl	write_index
 1554 03c2 0198     		ldr	r0, [sp, #4]
 1555 03c4 0021     		movs	r1, #0
 1556 03c6 FFF7FEFF 		bl	write_data
 1557 03ca 0520     		movs	r0, #5
 1558 03cc FFF7FEFF 		bl	gfxSleepMicroseconds
 1559              		.loc 2 176 0
 1560 03d0 0198     		ldr	r0, [sp, #4]
 1561 03d2 4E21     		movs	r1, #78
 1562 03d4 FFF7FEFF 		bl	write_index
 1563 03d8 0198     		ldr	r0, [sp, #4]
 1564 03da 0021     		movs	r1, #0
 1565 03dc FFF7FEFF 		bl	write_data
 1566 03e0 0520     		movs	r0, #5
 1567 03e2 FFF7FEFF 		bl	gfxSleepMicroseconds
 1568              		.loc 2 179 0
 1569 03e6 0198     		ldr	r0, [sp, #4]
 1570 03e8 FFF7FEFF 		bl	post_init_board
 1571              		.loc 2 182 0
 1572 03ec 0198     		ldr	r0, [sp, #4]
 1573 03ee FFF7FEFF 		bl	release_bus
 1574              		.loc 2 185 0
 1575 03f2 0198     		ldr	r0, [sp, #4]
 1576 03f4 6421     		movs	r1, #100
 1577 03f6 FFF7FEFF 		bl	set_backlight
 1578              		.loc 2 188 0
 1579 03fa 019B     		ldr	r3, [sp, #4]
ARM GAS  /tmp/cczWCdZx.s 			page 29


 1580 03fc F022     		movs	r2, #240
 1581 03fe 1A81     		strh	r2, [r3, #8]	@ movhi
 1582              		.loc 2 189 0
 1583 0400 019B     		ldr	r3, [sp, #4]
 1584 0402 4FF4A072 		mov	r2, #320
 1585 0406 5A81     		strh	r2, [r3, #10]	@ movhi
 1586              		.loc 2 190 0
 1587 0408 019B     		ldr	r3, [sp, #4]
 1588 040a 0022     		movs	r2, #0
 1589 040c 9A81     		strh	r2, [r3, #12]	@ movhi
 1590              		.loc 2 191 0
 1591 040e 019B     		ldr	r3, [sp, #4]
 1592 0410 0322     		movs	r2, #3
 1593 0412 9A73     		strb	r2, [r3, #14]
 1594              		.loc 2 192 0
 1595 0414 019B     		ldr	r3, [sp, #4]
 1596 0416 6422     		movs	r2, #100
 1597 0418 DA73     		strb	r2, [r3, #15]
 1598              		.loc 2 193 0
 1599 041a 019B     		ldr	r3, [sp, #4]
 1600 041c 3222     		movs	r2, #50
 1601 041e 1A74     		strb	r2, [r3, #16]
 1602              		.loc 2 194 0
 1603 0420 0123     		movs	r3, #1
 1604              		.loc 2 195 0
 1605 0422 1846     		mov	r0, r3
 1606 0424 03B0     		add	sp, sp, #12
 1607              		.cfi_def_cfa_offset 4
 1608              		@ sp needed
 1609 0426 5DF804FB 		ldr	pc, [sp], #4
 1610              		.cfi_endproc
 1611              	.LFE126:
 1612              		.size	gdisp_lld_init, .-gdisp_lld_init
 1613 042a 00BFAFF3 		.section	.text.gdisp_lld_write_start,"ax",%progbits
 1613      0080
 1614              		.align	2
 1615              		.p2align 4,,15
 1616              		.global	gdisp_lld_write_start
 1617              		.thumb
 1618              		.thumb_func
 1619              		.type	gdisp_lld_write_start, %function
 1620              	gdisp_lld_write_start:
 1621              	.LFB127:
 1622              		.loc 2 198 0
 1623              		.cfi_startproc
 1624              		@ args = 0, pretend = 0, frame = 8
 1625              		@ frame_needed = 0, uses_anonymous_args = 0
 1626 0000 00B5     		push	{lr}
 1627              		.cfi_def_cfa_offset 4
 1628              		.cfi_offset 14, -4
 1629 0002 83B0     		sub	sp, sp, #12
 1630              		.cfi_def_cfa_offset 16
 1631 0004 0190     		str	r0, [sp, #4]
 1632              		.loc 2 199 0
 1633 0006 0198     		ldr	r0, [sp, #4]
 1634 0008 FFF7FEFF 		bl	acquire_bus
 1635              		.loc 2 200 0
ARM GAS  /tmp/cczWCdZx.s 			page 30


 1636 000c 0198     		ldr	r0, [sp, #4]
 1637 000e FFF7FEFF 		bl	set_viewport
 1638              		.loc 2 204 0
 1639 0012 03B0     		add	sp, sp, #12
 1640              		.cfi_def_cfa_offset 4
 1641              		@ sp needed
 1642 0014 5DF804FB 		ldr	pc, [sp], #4
 1643              		.cfi_endproc
 1644              	.LFE127:
 1645              		.size	gdisp_lld_write_start, .-gdisp_lld_write_start
 1646 0018 AFF30080 		.section	.text.gdisp_lld_write_color,"ax",%progbits
 1646      AFF30080 
 1647              		.align	2
 1648              		.p2align 4,,15
 1649              		.global	gdisp_lld_write_color
 1650              		.thumb
 1651              		.thumb_func
 1652              		.type	gdisp_lld_write_color, %function
 1653              	gdisp_lld_write_color:
 1654              	.LFB128:
 1655              		.loc 2 205 0
 1656              		.cfi_startproc
 1657              		@ args = 0, pretend = 0, frame = 8
 1658              		@ frame_needed = 0, uses_anonymous_args = 0
 1659 0000 00B5     		push	{lr}
 1660              		.cfi_def_cfa_offset 4
 1661              		.cfi_offset 14, -4
 1662 0002 83B0     		sub	sp, sp, #12
 1663              		.cfi_def_cfa_offset 16
 1664 0004 0190     		str	r0, [sp, #4]
 1665              		.loc 2 206 0
 1666 0006 019B     		ldr	r3, [sp, #4]
 1667 0008 B3F84830 		ldrh	r3, [r3, #72]
 1668 000c 0198     		ldr	r0, [sp, #4]
 1669 000e 1946     		mov	r1, r3
 1670 0010 FFF7FEFF 		bl	write_data
 1671              		.loc 2 207 0
 1672 0014 03B0     		add	sp, sp, #12
 1673              		.cfi_def_cfa_offset 4
 1674              		@ sp needed
 1675 0016 5DF804FB 		ldr	pc, [sp], #4
 1676              		.cfi_endproc
 1677              	.LFE128:
 1678              		.size	gdisp_lld_write_color, .-gdisp_lld_write_color
 1679 001a 00BFAFF3 		.section	.text.gdisp_lld_write_stop,"ax",%progbits
 1679      0080
 1680              		.align	2
 1681              		.p2align 4,,15
 1682              		.global	gdisp_lld_write_stop
 1683              		.thumb
 1684              		.thumb_func
 1685              		.type	gdisp_lld_write_stop, %function
 1686              	gdisp_lld_write_stop:
 1687              	.LFB129:
 1688              		.loc 2 208 0
 1689              		.cfi_startproc
 1690              		@ args = 0, pretend = 0, frame = 8
ARM GAS  /tmp/cczWCdZx.s 			page 31


 1691              		@ frame_needed = 0, uses_anonymous_args = 0
 1692 0000 00B5     		push	{lr}
 1693              		.cfi_def_cfa_offset 4
 1694              		.cfi_offset 14, -4
 1695 0002 83B0     		sub	sp, sp, #12
 1696              		.cfi_def_cfa_offset 16
 1697 0004 0190     		str	r0, [sp, #4]
 1698              		.loc 2 209 0
 1699 0006 0198     		ldr	r0, [sp, #4]
 1700 0008 FFF7FEFF 		bl	release_bus
 1701              		.loc 2 210 0
 1702 000c 03B0     		add	sp, sp, #12
 1703              		.cfi_def_cfa_offset 4
 1704              		@ sp needed
 1705 000e 5DF804FB 		ldr	pc, [sp], #4
 1706              		.cfi_endproc
 1707              	.LFE129:
 1708              		.size	gdisp_lld_write_stop, .-gdisp_lld_write_stop
 1709 0012 00BFAFF3 		.section	.text.gdisp_lld_write_pos,"ax",%progbits
 1709      0080AFF3 
 1709      0080AFF3 
 1709      0080
 1710              		.align	2
 1711              		.p2align 4,,15
 1712              		.global	gdisp_lld_write_pos
 1713              		.thumb
 1714              		.thumb_func
 1715              		.type	gdisp_lld_write_pos, %function
 1716              	gdisp_lld_write_pos:
 1717              	.LFB130:
 1718              		.loc 2 212 0
 1719              		.cfi_startproc
 1720              		@ args = 0, pretend = 0, frame = 8
 1721              		@ frame_needed = 0, uses_anonymous_args = 0
 1722 0000 00B5     		push	{lr}
 1723              		.cfi_def_cfa_offset 4
 1724              		.cfi_offset 14, -4
 1725 0002 83B0     		sub	sp, sp, #12
 1726              		.cfi_def_cfa_offset 16
 1727 0004 0190     		str	r0, [sp, #4]
 1728              		.loc 2 213 0
 1729 0006 0198     		ldr	r0, [sp, #4]
 1730 0008 FFF7FEFF 		bl	set_cursor
 1731              		.loc 2 214 0
 1732 000c 03B0     		add	sp, sp, #12
 1733              		.cfi_def_cfa_offset 4
 1734              		@ sp needed
 1735 000e 5DF804FB 		ldr	pc, [sp], #4
 1736              		.cfi_endproc
 1737              	.LFE130:
 1738              		.size	gdisp_lld_write_pos, .-gdisp_lld_write_pos
 1739 0012 00BFAFF3 		.section	.text.gdisp_lld_read_start,"ax",%progbits
 1739      0080AFF3 
 1739      0080AFF3 
 1739      0080
 1740              		.align	2
 1741              		.p2align 4,,15
ARM GAS  /tmp/cczWCdZx.s 			page 32


 1742              		.global	gdisp_lld_read_start
 1743              		.thumb
 1744              		.thumb_func
 1745              		.type	gdisp_lld_read_start, %function
 1746              	gdisp_lld_read_start:
 1747              	.LFB131:
 1748              		.loc 2 219 0
 1749              		.cfi_startproc
 1750              		@ args = 0, pretend = 0, frame = 16
 1751              		@ frame_needed = 0, uses_anonymous_args = 0
 1752 0000 00B5     		push	{lr}
 1753              		.cfi_def_cfa_offset 4
 1754              		.cfi_offset 14, -4
 1755 0002 85B0     		sub	sp, sp, #20
 1756              		.cfi_def_cfa_offset 24
 1757 0004 0190     		str	r0, [sp, #4]
 1758              		.loc 2 220 0
 1759 0006 0198     		ldr	r0, [sp, #4]
 1760 0008 FFF7FEFF 		bl	acquire_bus
 1761              		.loc 2 221 0
 1762 000c 0198     		ldr	r0, [sp, #4]
 1763 000e FFF7FEFF 		bl	set_viewport
 1764              		.loc 2 222 0
 1765 0012 0198     		ldr	r0, [sp, #4]
 1766 0014 FFF7FEFF 		bl	set_cursor
 1767              		.loc 2 223 0
 1768 0018 0198     		ldr	r0, [sp, #4]
 1769 001a FFF7FEFF 		bl	setreadmode
 1770              	.LBB3:
 1771              		.loc 2 224 0
 1772 001e 0198     		ldr	r0, [sp, #4]
 1773 0020 FFF7FEFF 		bl	read_data
 1774 0024 0346     		mov	r3, r0
 1775 0026 ADF80E30 		strh	r3, [sp, #14]	@ movhi
 1776 002a BDF80E30 		ldrh	r3, [sp, #14]	@ movhi
 1777              	.LBE3:
 1778              		.loc 2 225 0
 1779 002e 05B0     		add	sp, sp, #20
 1780              		.cfi_def_cfa_offset 4
 1781              		@ sp needed
 1782 0030 5DF804FB 		ldr	pc, [sp], #4
 1783              		.cfi_endproc
 1784              	.LFE131:
 1785              		.size	gdisp_lld_read_start, .-gdisp_lld_read_start
 1786 0034 AFF30080 		.section	.text.gdisp_lld_read_color,"ax",%progbits
 1786      AFF30080 
 1786      AFF30080 
 1787              		.align	2
 1788              		.p2align 4,,15
 1789              		.global	gdisp_lld_read_color
 1790              		.thumb
 1791              		.thumb_func
 1792              		.type	gdisp_lld_read_color, %function
 1793              	gdisp_lld_read_color:
 1794              	.LFB132:
 1795              		.loc 2 226 0
 1796              		.cfi_startproc
ARM GAS  /tmp/cczWCdZx.s 			page 33


 1797              		@ args = 0, pretend = 0, frame = 16
 1798              		@ frame_needed = 0, uses_anonymous_args = 0
 1799 0000 00B5     		push	{lr}
 1800              		.cfi_def_cfa_offset 4
 1801              		.cfi_offset 14, -4
 1802 0002 85B0     		sub	sp, sp, #20
 1803              		.cfi_def_cfa_offset 24
 1804 0004 0190     		str	r0, [sp, #4]
 1805              		.loc 2 229 0
 1806 0006 0198     		ldr	r0, [sp, #4]
 1807 0008 FFF7FEFF 		bl	read_data
 1808 000c 0346     		mov	r3, r0
 1809 000e ADF80E30 		strh	r3, [sp, #14]	@ movhi
 1810              		.loc 2 230 0
 1811 0012 BDF80E30 		ldrh	r3, [sp, #14]
 1812              		.loc 2 231 0
 1813 0016 1846     		mov	r0, r3
 1814 0018 05B0     		add	sp, sp, #20
 1815              		.cfi_def_cfa_offset 4
 1816              		@ sp needed
 1817 001a 5DF804FB 		ldr	pc, [sp], #4
 1818              		.cfi_endproc
 1819              	.LFE132:
 1820              		.size	gdisp_lld_read_color, .-gdisp_lld_read_color
 1821 001e 00BF     		.section	.text.gdisp_lld_read_stop,"ax",%progbits
 1822              		.align	2
 1823              		.p2align 4,,15
 1824              		.global	gdisp_lld_read_stop
 1825              		.thumb
 1826              		.thumb_func
 1827              		.type	gdisp_lld_read_stop, %function
 1828              	gdisp_lld_read_stop:
 1829              	.LFB133:
 1830              		.loc 2 232 0
 1831              		.cfi_startproc
 1832              		@ args = 0, pretend = 0, frame = 8
 1833              		@ frame_needed = 0, uses_anonymous_args = 0
 1834 0000 00B5     		push	{lr}
 1835              		.cfi_def_cfa_offset 4
 1836              		.cfi_offset 14, -4
 1837 0002 83B0     		sub	sp, sp, #12
 1838              		.cfi_def_cfa_offset 16
 1839 0004 0190     		str	r0, [sp, #4]
 1840              		.loc 2 233 0
 1841 0006 0198     		ldr	r0, [sp, #4]
 1842 0008 FFF7FEFF 		bl	setwritemode
 1843              		.loc 2 234 0
 1844 000c 0198     		ldr	r0, [sp, #4]
 1845 000e FFF7FEFF 		bl	release_bus
 1846              		.loc 2 235 0
 1847 0012 03B0     		add	sp, sp, #12
 1848              		.cfi_def_cfa_offset 4
 1849              		@ sp needed
 1850 0014 5DF804FB 		ldr	pc, [sp], #4
 1851              		.cfi_endproc
 1852              	.LFE133:
 1853              		.size	gdisp_lld_read_stop, .-gdisp_lld_read_stop
ARM GAS  /tmp/cczWCdZx.s 			page 34


 1854 0018 AFF30080 		.section	.text.gdisp_lld_fill_area,"ax",%progbits
 1854      AFF30080 
 1855              		.align	2
 1856              		.p2align 4,,15
 1857              		.global	gdisp_lld_fill_area
 1858              		.thumb
 1859              		.thumb_func
 1860              		.type	gdisp_lld_fill_area, %function
 1861              	gdisp_lld_fill_area:
 1862              	.LFB134:
 1863              		.loc 2 239 0
 1864              		.cfi_startproc
 1865              		@ args = 0, pretend = 0, frame = 16
 1866              		@ frame_needed = 0, uses_anonymous_args = 0
 1867 0000 00B5     		push	{lr}
 1868              		.cfi_def_cfa_offset 4
 1869              		.cfi_offset 14, -4
 1870 0002 85B0     		sub	sp, sp, #20
 1871              		.cfi_def_cfa_offset 24
 1872 0004 0190     		str	r0, [sp, #4]
 1873              		.loc 2 246 0
 1874 0006 019B     		ldr	r3, [sp, #4]
 1875 0008 B3F84830 		ldrh	r3, [r3, #72]
 1876 000c ADF80E30 		strh	r3, [sp, #14]	@ movhi
 1877              		.loc 2 247 0
 1878 0010 0198     		ldr	r0, [sp, #4]
 1879 0012 FFF7FEFF 		bl	acquire_bus
 1880              		.loc 2 248 0
 1881 0016 0198     		ldr	r0, [sp, #4]
 1882 0018 FFF7FEFF 		bl	set_viewport
 1883              		.loc 2 249 0
 1884 001c 0198     		ldr	r0, [sp, #4]
 1885 001e FFF7FEFF 		bl	set_cursor
 1886              		.loc 2 250 0
 1887 0022 019B     		ldr	r3, [sp, #4]
 1888 0024 9B8F     		ldrh	r3, [r3, #60]
 1889 0026 1BB2     		sxth	r3, r3
 1890 0028 019A     		ldr	r2, [sp, #4]
 1891 002a D28F     		ldrh	r2, [r2, #62]
 1892 002c 12B2     		sxth	r2, r2
 1893 002e 02FB03F3 		mul	r3, r2, r3
 1894 0032 0DF10E02 		add	r2, sp, #14
 1895 0036 0198     		ldr	r0, [sp, #4]
 1896 0038 1146     		mov	r1, r2
 1897 003a 1A46     		mov	r2, r3
 1898 003c FFF7FEFF 		bl	dma_with_noinc
 1899              		.loc 2 251 0
 1900 0040 0198     		ldr	r0, [sp, #4]
 1901 0042 FFF7FEFF 		bl	release_bus
 1902              		.loc 2 252 0
 1903 0046 05B0     		add	sp, sp, #20
 1904              		.cfi_def_cfa_offset 4
 1905              		@ sp needed
 1906 0048 5DF804FB 		ldr	pc, [sp], #4
 1907              		.cfi_endproc
 1908              	.LFE134:
 1909              		.size	gdisp_lld_fill_area, .-gdisp_lld_fill_area
ARM GAS  /tmp/cczWCdZx.s 			page 35


 1910 004c AFF30080 		.section	.text.gdisp_lld_blit_area,"ax",%progbits
 1911              		.align	2
 1912              		.p2align 4,,15
 1913              		.global	gdisp_lld_blit_area
 1914              		.thumb
 1915              		.thumb_func
 1916              		.type	gdisp_lld_blit_area, %function
 1917              	gdisp_lld_blit_area:
 1918              	.LFB135:
 1919              		.loc 2 260 0
 1920              		.cfi_startproc
 1921              		@ args = 0, pretend = 0, frame = 16
 1922              		@ frame_needed = 0, uses_anonymous_args = 0
 1923 0000 00B5     		push	{lr}
 1924              		.cfi_def_cfa_offset 4
 1925              		.cfi_offset 14, -4
 1926 0002 85B0     		sub	sp, sp, #20
 1927              		.cfi_def_cfa_offset 24
 1928 0004 0190     		str	r0, [sp, #4]
 1929              		.loc 2 264 0
 1930 0006 019B     		ldr	r3, [sp, #4]
 1931 0008 DA6C     		ldr	r2, [r3, #76]
 1932 000a 019B     		ldr	r3, [sp, #4]
 1933 000c B3F84030 		ldrh	r3, [r3, #64]
 1934 0010 1BB2     		sxth	r3, r3
 1935 0012 0199     		ldr	r1, [sp, #4]
 1936 0014 B1F84210 		ldrh	r1, [r1, #66]
 1937 0018 09B2     		sxth	r1, r1
 1938 001a 0198     		ldr	r0, [sp, #4]
 1939 001c B0F84400 		ldrh	r0, [r0, #68]
 1940 0020 00B2     		sxth	r0, r0
 1941 0022 00FB01F1 		mul	r1, r0, r1
 1942 0026 0B44     		add	r3, r3, r1
 1943 0028 5B00     		lsls	r3, r3, #1
 1944 002a 1344     		add	r3, r3, r2
 1945 002c 0393     		str	r3, [sp, #12]
 1946              		.loc 2 266 0
 1947 002e 0198     		ldr	r0, [sp, #4]
 1948 0030 FFF7FEFF 		bl	acquire_bus
 1949              		.loc 2 267 0
 1950 0034 0198     		ldr	r0, [sp, #4]
 1951 0036 FFF7FEFF 		bl	set_viewport
 1952              		.loc 2 268 0
 1953 003a 0198     		ldr	r0, [sp, #4]
 1954 003c FFF7FEFF 		bl	set_cursor
 1955              		.loc 2 269 0
 1956 0040 019B     		ldr	r3, [sp, #4]
 1957 0042 B3F84420 		ldrh	r2, [r3, #68]
 1958 0046 019B     		ldr	r3, [sp, #4]
 1959 0048 9B8F     		ldrh	r3, [r3, #60]
 1960 004a 12B2     		sxth	r2, r2
 1961 004c 1BB2     		sxth	r3, r3
 1962 004e 9A42     		cmp	r2, r3
 1963 0050 0DD1     		bne	.L66
 1964              		.loc 2 270 0
 1965 0052 019B     		ldr	r3, [sp, #4]
 1966 0054 9B8F     		ldrh	r3, [r3, #60]
ARM GAS  /tmp/cczWCdZx.s 			page 36


 1967 0056 1BB2     		sxth	r3, r3
 1968 0058 019A     		ldr	r2, [sp, #4]
 1969 005a D28F     		ldrh	r2, [r2, #62]
 1970 005c 12B2     		sxth	r2, r2
 1971 005e 02FB03F3 		mul	r3, r2, r3
 1972 0062 0198     		ldr	r0, [sp, #4]
 1973 0064 0399     		ldr	r1, [sp, #12]
 1974 0066 1A46     		mov	r2, r3
 1975 0068 FFF7FEFF 		bl	dma_with_inc
 1976 006c 1FE0     		b	.L67
 1977              	.L66:
 1978              		.loc 2 272 0
 1979 006e 019B     		ldr	r3, [sp, #4]
 1980 0070 DB8F     		ldrh	r3, [r3, #62]	@ movhi
 1981 0072 ADF80A30 		strh	r3, [sp, #10]	@ movhi
 1982 0076 16E0     		b	.L68
 1983              	.L69:
 1984              		.loc 2 273 0 discriminator 3
 1985 0078 019B     		ldr	r3, [sp, #4]
 1986 007a DB8F     		ldrh	r3, [r3, #62]
 1987 007c 1BB2     		sxth	r3, r3
 1988 007e 0198     		ldr	r0, [sp, #4]
 1989 0080 0399     		ldr	r1, [sp, #12]
 1990 0082 1A46     		mov	r2, r3
 1991 0084 FFF7FEFF 		bl	dma_with_inc
 1992              		.loc 2 272 0 discriminator 3
 1993 0088 BDF80A30 		ldrh	r3, [sp, #10]
 1994 008c 9BB2     		uxth	r3, r3
 1995 008e 013B     		subs	r3, r3, #1
 1996 0090 9BB2     		uxth	r3, r3
 1997 0092 ADF80A30 		strh	r3, [sp, #10]	@ movhi
 1998 0096 019B     		ldr	r3, [sp, #4]
 1999 0098 B3F84430 		ldrh	r3, [r3, #68]
 2000 009c 1BB2     		sxth	r3, r3
 2001 009e 5B00     		lsls	r3, r3, #1
 2002 00a0 039A     		ldr	r2, [sp, #12]
 2003 00a2 1344     		add	r3, r3, r2
 2004 00a4 0393     		str	r3, [sp, #12]
 2005              	.L68:
 2006              		.loc 2 272 0 is_stmt 0 discriminator 1
 2007 00a6 BDF90A30 		ldrsh	r3, [sp, #10]
 2008 00aa 002B     		cmp	r3, #0
 2009 00ac E4D1     		bne	.L69
 2010              	.L67:
 2011              		.loc 2 275 0 is_stmt 1
 2012 00ae 0198     		ldr	r0, [sp, #4]
 2013 00b0 FFF7FEFF 		bl	release_bus
 2014              		.loc 2 276 0
 2015 00b4 05B0     		add	sp, sp, #20
 2016              		.cfi_def_cfa_offset 4
 2017              		@ sp needed
 2018 00b6 5DF804FB 		ldr	pc, [sp], #4
 2019              		.cfi_endproc
 2020              	.LFE135:
 2021              		.size	gdisp_lld_blit_area, .-gdisp_lld_blit_area
 2022 00ba 00BFAFF3 		.section	.text.gdisp_lld_control,"ax",%progbits
 2022      0080
ARM GAS  /tmp/cczWCdZx.s 			page 37


 2023              		.align	2
 2024              		.p2align 4,,15
 2025              		.global	gdisp_lld_control
 2026              		.thumb
 2027              		.thumb_func
 2028              		.type	gdisp_lld_control, %function
 2029              	gdisp_lld_control:
 2030              	.LFB136:
 2031              		.loc 2 280 0
 2032              		.cfi_startproc
 2033              		@ args = 0, pretend = 0, frame = 8
 2034              		@ frame_needed = 0, uses_anonymous_args = 0
 2035 0000 00B5     		push	{lr}
 2036              		.cfi_def_cfa_offset 4
 2037              		.cfi_offset 14, -4
 2038 0002 83B0     		sub	sp, sp, #12
 2039              		.cfi_def_cfa_offset 16
 2040 0004 0190     		str	r0, [sp, #4]
 2041              		.loc 2 281 0
 2042 0006 019B     		ldr	r3, [sp, #4]
 2043 0008 1B8F     		ldrh	r3, [r3, #56]
 2044 000a 1BB2     		sxth	r3, r3
 2045 000c 012B     		cmp	r3, #1
 2046 000e 6DD0     		beq	.L72
 2047 0010 022B     		cmp	r3, #2
 2048 0012 00F0E580 		beq	.L73
 2049 0016 002B     		cmp	r3, #0
 2050 0018 00D0     		beq	.L74
 2051              		.loc 2 363 0
 2052 001a F5E0     		b	.L70
 2053              	.L74:
 2054              		.loc 2 283 0
 2055 001c 019B     		ldr	r3, [sp, #4]
 2056 001e 9A7B     		ldrb	r2, [r3, #14]	@ zero_extendqisi2
 2057 0020 019B     		ldr	r3, [sp, #4]
 2058 0022 DB6C     		ldr	r3, [r3, #76]
 2059 0024 DBB2     		uxtb	r3, r3
 2060 0026 9A42     		cmp	r2, r3
 2061 0028 00D1     		bne	.L75
 2062              		.loc 2 284 0
 2063 002a EDE0     		b	.L70
 2064              	.L75:
 2065              		.loc 2 285 0
 2066 002c 019B     		ldr	r3, [sp, #4]
 2067 002e DB6C     		ldr	r3, [r3, #76]
 2068 0030 DBB2     		uxtb	r3, r3
 2069 0032 012B     		cmp	r3, #1
 2070 0034 45D0     		beq	.L78
 2071 0036 032B     		cmp	r3, #3
 2072 0038 29D0     		beq	.L79
 2073 003a 002B     		cmp	r3, #0
 2074 003c 00D0     		beq	.L80
 2075              		.loc 2 307 0
 2076 003e E3E0     		b	.L70
 2077              	.L80:
 2078              		.loc 2 287 0
 2079 0040 0198     		ldr	r0, [sp, #4]
ARM GAS  /tmp/cczWCdZx.s 			page 38


 2080 0042 FFF7FEFF 		bl	acquire_bus
 2081              		.loc 2 288 0
 2082 0046 0198     		ldr	r0, [sp, #4]
 2083 0048 1021     		movs	r1, #16
 2084 004a FFF7FEFF 		bl	write_index
 2085 004e 0198     		ldr	r0, [sp, #4]
 2086 0050 0021     		movs	r1, #0
 2087 0052 FFF7FEFF 		bl	write_data
 2088              		.loc 2 289 0
 2089 0056 0198     		ldr	r0, [sp, #4]
 2090 0058 0721     		movs	r1, #7
 2091 005a FFF7FEFF 		bl	write_index
 2092 005e 0198     		ldr	r0, [sp, #4]
 2093 0060 0021     		movs	r1, #0
 2094 0062 FFF7FEFF 		bl	write_data
 2095              		.loc 2 290 0
 2096 0066 0198     		ldr	r0, [sp, #4]
 2097 0068 0021     		movs	r1, #0
 2098 006a FFF7FEFF 		bl	write_index
 2099 006e 0198     		ldr	r0, [sp, #4]
 2100 0070 0021     		movs	r1, #0
 2101 0072 FFF7FEFF 		bl	write_data
 2102              		.loc 2 291 0
 2103 0076 0198     		ldr	r0, [sp, #4]
 2104 0078 1021     		movs	r1, #16
 2105 007a FFF7FEFF 		bl	write_index
 2106 007e 0198     		ldr	r0, [sp, #4]
 2107 0080 0121     		movs	r1, #1
 2108 0082 FFF7FEFF 		bl	write_data
 2109              		.loc 2 292 0
 2110 0086 0198     		ldr	r0, [sp, #4]
 2111 0088 FFF7FEFF 		bl	release_bus
 2112              		.loc 2 293 0
 2113 008c 28E0     		b	.L81
 2114              	.L79:
 2115              		.loc 2 295 0
 2116 008e 0198     		ldr	r0, [sp, #4]
 2117 0090 FFF7FEFF 		bl	acquire_bus
 2118              		.loc 2 296 0
 2119 0094 0198     		ldr	r0, [sp, #4]
 2120 0096 1021     		movs	r1, #16
 2121 0098 FFF7FEFF 		bl	write_index
 2122 009c 0198     		ldr	r0, [sp, #4]
 2123 009e 0021     		movs	r1, #0
 2124 00a0 FFF7FEFF 		bl	write_data
 2125              		.loc 2 297 0
 2126 00a4 0198     		ldr	r0, [sp, #4]
 2127 00a6 0021     		movs	r1, #0
 2128 00a8 FFF7FEFF 		bl	write_index
 2129 00ac 0198     		ldr	r0, [sp, #4]
 2130 00ae 0121     		movs	r1, #1
 2131 00b0 FFF7FEFF 		bl	write_data
 2132              		.loc 2 298 0
 2133 00b4 0520     		movs	r0, #5
 2134 00b6 FFF7FEFF 		bl	gfxSleepMicroseconds
 2135              		.loc 2 299 0
 2136 00ba 0198     		ldr	r0, [sp, #4]
ARM GAS  /tmp/cczWCdZx.s 			page 39


 2137 00bc FFF7FEFF 		bl	release_bus
 2138              		.loc 2 300 0
 2139 00c0 0EE0     		b	.L81
 2140              	.L78:
 2141              		.loc 2 302 0
 2142 00c2 0198     		ldr	r0, [sp, #4]
 2143 00c4 FFF7FEFF 		bl	acquire_bus
 2144              		.loc 2 303 0
 2145 00c8 0198     		ldr	r0, [sp, #4]
 2146 00ca 1021     		movs	r1, #16
 2147 00cc FFF7FEFF 		bl	write_index
 2148 00d0 0198     		ldr	r0, [sp, #4]
 2149 00d2 0121     		movs	r1, #1
 2150 00d4 FFF7FEFF 		bl	write_data
 2151              		.loc 2 304 0
 2152 00d8 0198     		ldr	r0, [sp, #4]
 2153 00da FFF7FEFF 		bl	release_bus
 2154              		.loc 2 305 0
 2155 00de 00BF     		nop
 2156              	.L81:
 2157              		.loc 2 309 0
 2158 00e0 019B     		ldr	r3, [sp, #4]
 2159 00e2 DB6C     		ldr	r3, [r3, #76]
 2160 00e4 DAB2     		uxtb	r2, r3
 2161 00e6 019B     		ldr	r3, [sp, #4]
 2162 00e8 9A73     		strb	r2, [r3, #14]
 2163              		.loc 2 310 0
 2164 00ea 8DE0     		b	.L70
 2165              	.L72:
 2166              		.loc 2 313 0
 2167 00ec 019B     		ldr	r3, [sp, #4]
 2168 00ee 9A89     		ldrh	r2, [r3, #12]
 2169 00f0 019B     		ldr	r3, [sp, #4]
 2170 00f2 DB6C     		ldr	r3, [r3, #76]
 2171 00f4 9BB2     		uxth	r3, r3
 2172 00f6 9A42     		cmp	r2, r3
 2173 00f8 00D1     		bne	.L82
 2174              		.loc 2 314 0 discriminator 3
 2175 00fa 85E0     		b	.L70
 2176              	.L82:
 2177              		.loc 2 315 0
 2178 00fc 019B     		ldr	r3, [sp, #4]
 2179 00fe DB6C     		ldr	r3, [r3, #76]
 2180 0100 9BB2     		uxth	r3, r3
 2181 0102 5A2B     		cmp	r3, #90
 2182 0104 21D0     		beq	.L84
 2183 0106 5A2B     		cmp	r3, #90
 2184 0108 02DC     		bgt	.L85
 2185 010a 002B     		cmp	r3, #0
 2186 010c 06D0     		beq	.L86
 2187              		.loc 2 349 0
 2188 010e 7BE0     		b	.L70
 2189              	.L85:
 2190              		.loc 2 315 0
 2191 0110 B42B     		cmp	r3, #180
 2192 0112 31D0     		beq	.L87
 2193 0114 B3F5877F 		cmp	r3, #270
ARM GAS  /tmp/cczWCdZx.s 			page 40


 2194 0118 45D0     		beq	.L88
 2195              		.loc 2 349 0
 2196 011a 75E0     		b	.L70
 2197              	.L86:
 2198              		.loc 2 317 0
 2199 011c 0198     		ldr	r0, [sp, #4]
 2200 011e FFF7FEFF 		bl	acquire_bus
 2201              		.loc 2 319 0
 2202 0122 0198     		ldr	r0, [sp, #4]
 2203 0124 1121     		movs	r1, #17
 2204 0126 FFF7FEFF 		bl	write_index
 2205 012a 0198     		ldr	r0, [sp, #4]
 2206 012c 46F27001 		movw	r1, #24688
 2207 0130 FFF7FEFF 		bl	write_data
 2208              		.loc 2 320 0
 2209 0134 0198     		ldr	r0, [sp, #4]
 2210 0136 FFF7FEFF 		bl	release_bus
 2211              		.loc 2 321 0
 2212 013a 019B     		ldr	r3, [sp, #4]
 2213 013c 4FF4A072 		mov	r2, #320
 2214 0140 5A81     		strh	r2, [r3, #10]	@ movhi
 2215              		.loc 2 322 0
 2216 0142 019B     		ldr	r3, [sp, #4]
 2217 0144 F022     		movs	r2, #240
 2218 0146 1A81     		strh	r2, [r3, #8]	@ movhi
 2219              		.loc 2 323 0
 2220 0148 44E0     		b	.L89
 2221              	.L84:
 2222              		.loc 2 325 0
 2223 014a 0198     		ldr	r0, [sp, #4]
 2224 014c FFF7FEFF 		bl	acquire_bus
 2225              		.loc 2 327 0
 2226 0150 0198     		ldr	r0, [sp, #4]
 2227 0152 1121     		movs	r1, #17
 2228 0154 FFF7FEFF 		bl	write_index
 2229 0158 0198     		ldr	r0, [sp, #4]
 2230 015a 46F25801 		movw	r1, #24664
 2231 015e FFF7FEFF 		bl	write_data
 2232              		.loc 2 328 0
 2233 0162 0198     		ldr	r0, [sp, #4]
 2234 0164 FFF7FEFF 		bl	release_bus
 2235              		.loc 2 329 0
 2236 0168 019B     		ldr	r3, [sp, #4]
 2237 016a F022     		movs	r2, #240
 2238 016c 5A81     		strh	r2, [r3, #10]	@ movhi
 2239              		.loc 2 330 0
 2240 016e 019B     		ldr	r3, [sp, #4]
 2241 0170 4FF4A072 		mov	r2, #320
 2242 0174 1A81     		strh	r2, [r3, #8]	@ movhi
 2243              		.loc 2 331 0
 2244 0176 2DE0     		b	.L89
 2245              	.L87:
 2246              		.loc 2 333 0
 2247 0178 0198     		ldr	r0, [sp, #4]
 2248 017a FFF7FEFF 		bl	acquire_bus
 2249              		.loc 2 335 0
 2250 017e 0198     		ldr	r0, [sp, #4]
ARM GAS  /tmp/cczWCdZx.s 			page 41


 2251 0180 1121     		movs	r1, #17
 2252 0182 FFF7FEFF 		bl	write_index
 2253 0186 0198     		ldr	r0, [sp, #4]
 2254 0188 46F24001 		movw	r1, #24640
 2255 018c FFF7FEFF 		bl	write_data
 2256              		.loc 2 336 0
 2257 0190 0198     		ldr	r0, [sp, #4]
 2258 0192 FFF7FEFF 		bl	release_bus
 2259              		.loc 2 337 0
 2260 0196 019B     		ldr	r3, [sp, #4]
 2261 0198 4FF4A072 		mov	r2, #320
 2262 019c 5A81     		strh	r2, [r3, #10]	@ movhi
 2263              		.loc 2 338 0
 2264 019e 019B     		ldr	r3, [sp, #4]
 2265 01a0 F022     		movs	r2, #240
 2266 01a2 1A81     		strh	r2, [r3, #8]	@ movhi
 2267              		.loc 2 339 0
 2268 01a4 16E0     		b	.L89
 2269              	.L88:
 2270              		.loc 2 341 0
 2271 01a6 0198     		ldr	r0, [sp, #4]
 2272 01a8 FFF7FEFF 		bl	acquire_bus
 2273              		.loc 2 343 0
 2274 01ac 0198     		ldr	r0, [sp, #4]
 2275 01ae 1121     		movs	r1, #17
 2276 01b0 FFF7FEFF 		bl	write_index
 2277 01b4 0198     		ldr	r0, [sp, #4]
 2278 01b6 46F26801 		movw	r1, #24680
 2279 01ba FFF7FEFF 		bl	write_data
 2280              		.loc 2 344 0
 2281 01be 0198     		ldr	r0, [sp, #4]
 2282 01c0 FFF7FEFF 		bl	release_bus
 2283              		.loc 2 345 0
 2284 01c4 019B     		ldr	r3, [sp, #4]
 2285 01c6 F022     		movs	r2, #240
 2286 01c8 5A81     		strh	r2, [r3, #10]	@ movhi
 2287              		.loc 2 346 0
 2288 01ca 019B     		ldr	r3, [sp, #4]
 2289 01cc 4FF4A072 		mov	r2, #320
 2290 01d0 1A81     		strh	r2, [r3, #8]	@ movhi
 2291              		.loc 2 347 0
 2292 01d2 00BF     		nop
 2293              	.L89:
 2294              		.loc 2 351 0
 2295 01d4 019B     		ldr	r3, [sp, #4]
 2296 01d6 DB6C     		ldr	r3, [r3, #76]
 2297 01d8 9AB2     		uxth	r2, r3
 2298 01da 019B     		ldr	r3, [sp, #4]
 2299 01dc 9A81     		strh	r2, [r3, #12]	@ movhi
 2300              		.loc 2 352 0
 2301 01de 13E0     		b	.L70
 2302              	.L73:
 2303              		.loc 2 355 0
 2304 01e0 019B     		ldr	r3, [sp, #4]
 2305 01e2 DB6C     		ldr	r3, [r3, #76]
 2306 01e4 642B     		cmp	r3, #100
 2307 01e6 02D9     		bls	.L90
ARM GAS  /tmp/cczWCdZx.s 			page 42


 2308              		.loc 2 356 0
 2309 01e8 019B     		ldr	r3, [sp, #4]
 2310 01ea 6422     		movs	r2, #100
 2311 01ec DA64     		str	r2, [r3, #76]
 2312              	.L90:
 2313              		.loc 2 357 0
 2314 01ee 019B     		ldr	r3, [sp, #4]
 2315 01f0 DB6C     		ldr	r3, [r3, #76]
 2316 01f2 DBB2     		uxtb	r3, r3
 2317 01f4 0198     		ldr	r0, [sp, #4]
 2318 01f6 1946     		mov	r1, r3
 2319 01f8 FFF7FEFF 		bl	set_backlight
 2320              		.loc 2 358 0
 2321 01fc 019B     		ldr	r3, [sp, #4]
 2322 01fe DB6C     		ldr	r3, [r3, #76]
 2323 0200 DAB2     		uxtb	r2, r3
 2324 0202 019B     		ldr	r3, [sp, #4]
 2325 0204 DA73     		strb	r2, [r3, #15]
 2326              		.loc 2 359 0
 2327 0206 00BF     		nop
 2328              	.L70:
 2329              		.loc 2 365 0
 2330 0208 03B0     		add	sp, sp, #12
 2331              		.cfi_def_cfa_offset 4
 2332              		@ sp needed
 2333 020a 5DF804FB 		ldr	pc, [sp], #4
 2334              		.cfi_endproc
 2335              	.LFE136:
 2336              		.size	gdisp_lld_control, .-gdisp_lld_control
 2337 020e 00BF     		.text
 2338              	.Letext0:
 2339              		.file 3 "/opt/gcc-arm-none-eabi/arm-none-eabi/include/machine/_default_types.h"
 2340              		.file 4 "/opt/gcc-arm-none-eabi/arm-none-eabi/include/stdint.h"
 2341              		.file 5 "/home/makkmarci/workspace/ChibiOS_2.6.8/os/ports/GCC/ARMCMx/chtypes.h"
 2342              		.file 6 "/home/makkmarci/workspace/ChibiOS_2.6.8/os/kernel/include/chlists.h"
 2343              		.file 7 "/home/makkmarci/workspace/ChibiOS_2.6.8/os/kernel/include/chthreads.h"
 2344              		.file 8 "/home/makkmarci/workspace/ChibiOS_2.6.8/os/ports/GCC/ARMCMx/chcore_v7m.h"
 2345              		.file 9 "/home/makkmarci/workspace/ChibiOS_2.6.8/os/kernel/include/chmtx.h"
 2346              		.file 10 "/home/makkmarci/workspace/ChibiOS_2.6.8/os/hal/platforms/STM32F4xx/stm32f4xx.h"
 2347              		.file 11 "/home/makkmarci/workspace/ChibiOS_2.6.8/os/hal/platforms/STM32F4xx/stm32_dma.h"
 2348              		.file 12 "/home/makkmarci/workspace/ChibiOS_2.6.8/os/hal/platforms/STM32/GPIOv2/pal_lld.h"
 2349              		.file 13 "/home/makkmarci/workspace/ChibiOS_2.6.8/os/hal/include/pal.h"
 2350              		.file 14 "/home/makkmarci/workspace/ChibiOS_2.6.8/os/hal/platforms/STM32/TIMv1/stm32_tim.h"
 2351              		.file 15 "/home/makkmarci/workspace/ChibiOS_2.6.8/os/hal/include/pwm.h"
 2352              		.file 16 "/home/makkmarci/workspace/ChibiOS_2.6.8/os/hal/platforms/STM32/TIMv1/pwm_lld.h"
 2353              		.file 17 "/home/makkmarci/workspace/ugfx/src/gos/gos_chibios.h"
 2354              		.file 18 "/home/makkmarci/workspace/ugfx/src/gdisp/gdisp.h"
 2355              		.file 19 "/home/makkmarci/workspace/ugfx/src/gdisp/gdisp_driver.h"
 2356              		.file 20 "/home/makkmarci/workspace/ugfx/src/gdisp/gdisp_colors.h"
 2357              		.file 21 "/home/makkmarci/workspace/ugfx/src/gdriver/gdriver.h"
 2358              		.file 22 "/home/makkmarci/workspace/ChibiOS_2.6.8/os/ports/common/ARMCMx/CMSIS/include/core_cm4.h"
 2359              		.section	.debug_info,"",%progbits
 2360              	.Ldebug_info0:
 2361 0000 76150000 		.4byte	0x1576
 2362 0004 0400     		.2byte	0x4
 2363 0006 00000000 		.4byte	.Ldebug_abbrev0
 2364 000a 04       		.byte	0x4
ARM GAS  /tmp/cczWCdZx.s 			page 43


 2365 000b 01       		.uleb128 0x1
 2366 000c 40030000 		.4byte	.LASF260
 2367 0010 01       		.byte	0x1
 2368 0011 19050000 		.4byte	.LASF261
 2369 0015 00000000 		.4byte	.Ldebug_ranges0+0
 2370 0019 00000000 		.4byte	0
 2371 001d 00000000 		.4byte	.Ldebug_line0
 2372 0021 02       		.uleb128 0x2
 2373 0022 04       		.byte	0x4
 2374 0023 05       		.byte	0x5
 2375 0024 696E7400 		.ascii	"int\000"
 2376 0028 03       		.uleb128 0x3
 2377 0029 04       		.byte	0x4
 2378 002a 07       		.byte	0x7
 2379 002b D7060000 		.4byte	.LASF0
 2380 002f 03       		.uleb128 0x3
 2381 0030 01       		.byte	0x1
 2382 0031 06       		.byte	0x6
 2383 0032 0B020000 		.4byte	.LASF1
 2384 0036 04       		.uleb128 0x4
 2385 0037 18010000 		.4byte	.LASF3
 2386 003b 03       		.byte	0x3
 2387 003c 1D       		.byte	0x1d
 2388 003d 41000000 		.4byte	0x41
 2389 0041 03       		.uleb128 0x3
 2390 0042 01       		.byte	0x1
 2391 0043 08       		.byte	0x8
 2392 0044 61020000 		.4byte	.LASF2
 2393 0048 04       		.uleb128 0x4
 2394 0049 9C080000 		.4byte	.LASF4
 2395 004d 03       		.byte	0x3
 2396 004e 29       		.byte	0x29
 2397 004f 53000000 		.4byte	0x53
 2398 0053 03       		.uleb128 0x3
 2399 0054 02       		.byte	0x2
 2400 0055 05       		.byte	0x5
 2401 0056 7A090000 		.4byte	.LASF5
 2402 005a 04       		.uleb128 0x4
 2403 005b 17030000 		.4byte	.LASF6
 2404 005f 03       		.byte	0x3
 2405 0060 2B       		.byte	0x2b
 2406 0061 65000000 		.4byte	0x65
 2407 0065 03       		.uleb128 0x3
 2408 0066 02       		.byte	0x2
 2409 0067 07       		.byte	0x7
 2410 0068 740A0000 		.4byte	.LASF7
 2411 006c 04       		.uleb128 0x4
 2412 006d CC0A0000 		.4byte	.LASF8
 2413 0071 03       		.byte	0x3
 2414 0072 3F       		.byte	0x3f
 2415 0073 77000000 		.4byte	0x77
 2416 0077 03       		.uleb128 0x3
 2417 0078 04       		.byte	0x4
 2418 0079 05       		.byte	0x5
 2419 007a 7B010000 		.4byte	.LASF9
 2420 007e 04       		.uleb128 0x4
 2421 007f FA050000 		.4byte	.LASF10
ARM GAS  /tmp/cczWCdZx.s 			page 44


 2422 0083 03       		.byte	0x3
 2423 0084 41       		.byte	0x41
 2424 0085 89000000 		.4byte	0x89
 2425 0089 03       		.uleb128 0x3
 2426 008a 04       		.byte	0x4
 2427 008b 07       		.byte	0x7
 2428 008c 76050000 		.4byte	.LASF11
 2429 0090 03       		.uleb128 0x3
 2430 0091 08       		.byte	0x8
 2431 0092 05       		.byte	0x5
 2432 0093 19060000 		.4byte	.LASF12
 2433 0097 04       		.uleb128 0x4
 2434 0098 6B050000 		.4byte	.LASF13
 2435 009c 03       		.byte	0x3
 2436 009d 5B       		.byte	0x5b
 2437 009e A2000000 		.4byte	0xa2
 2438 00a2 03       		.uleb128 0x3
 2439 00a3 08       		.byte	0x8
 2440 00a4 07       		.byte	0x7
 2441 00a5 09080000 		.4byte	.LASF14
 2442 00a9 04       		.uleb128 0x4
 2443 00aa 21020000 		.4byte	.LASF15
 2444 00ae 04       		.byte	0x4
 2445 00af 15       		.byte	0x15
 2446 00b0 36000000 		.4byte	0x36
 2447 00b4 04       		.uleb128 0x4
 2448 00b5 B0090000 		.4byte	.LASF16
 2449 00b9 04       		.byte	0x4
 2450 00ba 20       		.byte	0x20
 2451 00bb 48000000 		.4byte	0x48
 2452 00bf 04       		.uleb128 0x4
 2453 00c0 31080000 		.4byte	.LASF17
 2454 00c4 04       		.byte	0x4
 2455 00c5 21       		.byte	0x21
 2456 00c6 5A000000 		.4byte	0x5a
 2457 00ca 04       		.uleb128 0x4
 2458 00cb 6E000000 		.4byte	.LASF18
 2459 00cf 04       		.byte	0x4
 2460 00d0 2C       		.byte	0x2c
 2461 00d1 6C000000 		.4byte	0x6c
 2462 00d5 04       		.uleb128 0x4
 2463 00d6 250A0000 		.4byte	.LASF19
 2464 00da 04       		.byte	0x4
 2465 00db 2D       		.byte	0x2d
 2466 00dc 7E000000 		.4byte	0x7e
 2467 00e0 04       		.uleb128 0x4
 2468 00e1 8C090000 		.4byte	.LASF20
 2469 00e5 04       		.byte	0x4
 2470 00e6 39       		.byte	0x39
 2471 00e7 97000000 		.4byte	0x97
 2472 00eb 04       		.uleb128 0x4
 2473 00ec 4E090000 		.4byte	.LASF21
 2474 00f0 04       		.byte	0x4
 2475 00f1 4B       		.byte	0x4b
 2476 00f2 28000000 		.4byte	0x28
 2477 00f6 04       		.uleb128 0x4
 2478 00f7 C7090000 		.4byte	.LASF22
ARM GAS  /tmp/cczWCdZx.s 			page 45


 2479 00fb 05       		.byte	0x5
 2480 00fc 2B       		.byte	0x2b
 2481 00fd 01010000 		.4byte	0x101
 2482 0101 03       		.uleb128 0x3
 2483 0102 01       		.byte	0x1
 2484 0103 02       		.byte	0x2
 2485 0104 AF020000 		.4byte	.LASF23
 2486 0108 04       		.uleb128 0x4
 2487 0109 DF080000 		.4byte	.LASF24
 2488 010d 05       		.byte	0x5
 2489 010e 2C       		.byte	0x2c
 2490 010f A9000000 		.4byte	0xa9
 2491 0113 04       		.uleb128 0x4
 2492 0114 9D010000 		.4byte	.LASF25
 2493 0118 05       		.byte	0x5
 2494 0119 2D       		.byte	0x2d
 2495 011a A9000000 		.4byte	0xa9
 2496 011e 04       		.uleb128 0x4
 2497 011f F1090000 		.4byte	.LASF26
 2498 0123 05       		.byte	0x5
 2499 0124 2E       		.byte	0x2e
 2500 0125 A9000000 		.4byte	0xa9
 2501 0129 04       		.uleb128 0x4
 2502 012a 52080000 		.4byte	.LASF27
 2503 012e 05       		.byte	0x5
 2504 012f 2F       		.byte	0x2f
 2505 0130 A9000000 		.4byte	0xa9
 2506 0134 04       		.uleb128 0x4
 2507 0135 3D000000 		.4byte	.LASF28
 2508 0139 05       		.byte	0x5
 2509 013a 30       		.byte	0x30
 2510 013b D5000000 		.4byte	0xd5
 2511 013f 04       		.uleb128 0x4
 2512 0140 47080000 		.4byte	.LASF29
 2513 0144 05       		.byte	0x5
 2514 0145 31       		.byte	0x31
 2515 0146 CA000000 		.4byte	0xca
 2516 014a 04       		.uleb128 0x4
 2517 014b 30020000 		.4byte	.LASF30
 2518 014f 05       		.byte	0x5
 2519 0150 33       		.byte	0x33
 2520 0151 D5000000 		.4byte	0xd5
 2521 0155 04       		.uleb128 0x4
 2522 0156 0E000000 		.4byte	.LASF31
 2523 015a 05       		.byte	0x5
 2524 015b 35       		.byte	0x35
 2525 015c D5000000 		.4byte	0xd5
 2526 0160 04       		.uleb128 0x4
 2527 0161 D3090000 		.4byte	.LASF32
 2528 0165 06       		.byte	0x6
 2529 0166 2A       		.byte	0x2a
 2530 0167 6B010000 		.4byte	0x16b
 2531 016b 05       		.uleb128 0x5
 2532 016c D3090000 		.4byte	.LASF32
 2533 0170 4C       		.byte	0x4c
 2534 0171 07       		.byte	0x7
 2535 0172 5E       		.byte	0x5e
ARM GAS  /tmp/cczWCdZx.s 			page 46


 2536 0173 74020000 		.4byte	0x274
 2537 0177 06       		.uleb128 0x6
 2538 0178 84010000 		.4byte	.LASF33
 2539 017c 07       		.byte	0x7
 2540 017d 5F       		.byte	0x5f
 2541 017e 95020000 		.4byte	0x295
 2542 0182 00       		.byte	0
 2543 0183 06       		.uleb128 0x6
 2544 0184 8B010000 		.4byte	.LASF34
 2545 0188 07       		.byte	0x7
 2546 0189 61       		.byte	0x61
 2547 018a 95020000 		.4byte	0x295
 2548 018e 04       		.byte	0x4
 2549 018f 06       		.uleb128 0x6
 2550 0190 10030000 		.4byte	.LASF35
 2551 0194 07       		.byte	0x7
 2552 0195 63       		.byte	0x63
 2553 0196 34010000 		.4byte	0x134
 2554 019a 08       		.byte	0x8
 2555 019b 06       		.uleb128 0x6
 2556 019c 37000000 		.4byte	.LASF36
 2557 01a0 07       		.byte	0x7
 2558 01a1 64       		.byte	0x64
 2559 01a2 2A040000 		.4byte	0x42a
 2560 01a6 0C       		.byte	0xc
 2561 01a7 06       		.uleb128 0x6
 2562 01a8 58010000 		.4byte	.LASF37
 2563 01ac 07       		.byte	0x7
 2564 01ad 66       		.byte	0x66
 2565 01ae 95020000 		.4byte	0x295
 2566 01b2 10       		.byte	0x10
 2567 01b3 06       		.uleb128 0x6
 2568 01b4 29080000 		.4byte	.LASF38
 2569 01b8 07       		.byte	0x7
 2570 01b9 67       		.byte	0x67
 2571 01ba 95020000 		.4byte	0x295
 2572 01be 14       		.byte	0x14
 2573 01bf 06       		.uleb128 0x6
 2574 01c0 180B0000 		.4byte	.LASF39
 2575 01c4 07       		.byte	0x7
 2576 01c5 6E       		.byte	0x6e
 2577 01c6 D3040000 		.4byte	0x4d3
 2578 01ca 18       		.byte	0x18
 2579 01cb 06       		.uleb128 0x6
 2580 01cc B70A0000 		.4byte	.LASF40
 2581 01d0 07       		.byte	0x7
 2582 01d1 74       		.byte	0x74
 2583 01d2 E5040000 		.4byte	0x4e5
 2584 01d6 1C       		.byte	0x1c
 2585 01d7 06       		.uleb128 0x6
 2586 01d8 3F0B0000 		.4byte	.LASF41
 2587 01dc 07       		.byte	0x7
 2588 01dd 79       		.byte	0x79
 2589 01de 13010000 		.4byte	0x113
 2590 01e2 20       		.byte	0x20
 2591 01e3 06       		.uleb128 0x6
 2592 01e4 C5060000 		.4byte	.LASF42
ARM GAS  /tmp/cczWCdZx.s 			page 47


 2593 01e8 07       		.byte	0x7
 2594 01e9 7D       		.byte	0x7d
 2595 01ea 08010000 		.4byte	0x108
 2596 01ee 21       		.byte	0x21
 2597 01ef 06       		.uleb128 0x6
 2598 01f0 16070000 		.4byte	.LASF43
 2599 01f4 07       		.byte	0x7
 2600 01f5 82       		.byte	0x82
 2601 01f6 1E010000 		.4byte	0x11e
 2602 01fa 22       		.byte	0x22
 2603 01fb 06       		.uleb128 0x6
 2604 01fc 17020000 		.4byte	.LASF44
 2605 0200 07       		.byte	0x7
 2606 0201 88       		.byte	0x88
 2607 0202 29010000 		.4byte	0x129
 2608 0206 23       		.byte	0x23
 2609 0207 06       		.uleb128 0x6
 2610 0208 90070000 		.4byte	.LASF45
 2611 020c 07       		.byte	0x7
 2612 020d 8F       		.byte	0x8f
 2613 020e 57040000 		.4byte	0x457
 2614 0212 24       		.byte	0x24
 2615 0213 07       		.uleb128 0x7
 2616 0214 705F7500 		.ascii	"p_u\000"
 2617 0218 07       		.byte	0x7
 2618 0219 B4       		.byte	0xb4
 2619 021a 9E040000 		.4byte	0x49e
 2620 021e 28       		.byte	0x28
 2621 021f 06       		.uleb128 0x6
 2622 0220 B5060000 		.4byte	.LASF46
 2623 0224 07       		.byte	0x7
 2624 0225 B9       		.byte	0xb9
 2625 0226 BB020000 		.4byte	0x2bb
 2626 022a 2C       		.byte	0x2c
 2627 022b 06       		.uleb128 0x6
 2628 022c 4D000000 		.4byte	.LASF47
 2629 0230 07       		.byte	0x7
 2630 0231 BF       		.byte	0xbf
 2631 0232 9B020000 		.4byte	0x29b
 2632 0236 30       		.byte	0x30
 2633 0237 06       		.uleb128 0x6
 2634 0238 390B0000 		.4byte	.LASF48
 2635 023c 07       		.byte	0x7
 2636 023d C3       		.byte	0xc3
 2637 023e 3F010000 		.4byte	0x13f
 2638 0242 38       		.byte	0x38
 2639 0243 06       		.uleb128 0x6
 2640 0244 C6040000 		.4byte	.LASF49
 2641 0248 07       		.byte	0x7
 2642 0249 C9       		.byte	0xc9
 2643 024a 4A010000 		.4byte	0x14a
 2644 024e 3C       		.byte	0x3c
 2645 024f 06       		.uleb128 0x6
 2646 0250 A6010000 		.4byte	.LASF50
 2647 0254 07       		.byte	0x7
 2648 0255 D0       		.byte	0xd0
 2649 0256 EB040000 		.4byte	0x4eb
ARM GAS  /tmp/cczWCdZx.s 			page 48


 2650 025a 40       		.byte	0x40
 2651 025b 06       		.uleb128 0x6
 2652 025c D5070000 		.4byte	.LASF51
 2653 0260 07       		.byte	0x7
 2654 0261 D4       		.byte	0xd4
 2655 0262 34010000 		.4byte	0x134
 2656 0266 44       		.byte	0x44
 2657 0267 06       		.uleb128 0x6
 2658 0268 F1060000 		.4byte	.LASF52
 2659 026c 07       		.byte	0x7
 2660 026d DA       		.byte	0xda
 2661 026e D1020000 		.4byte	0x2d1
 2662 0272 48       		.byte	0x48
 2663 0273 00       		.byte	0
 2664 0274 08       		.uleb128 0x8
 2665 0275 08       		.byte	0x8
 2666 0276 06       		.byte	0x6
 2667 0277 61       		.byte	0x61
 2668 0278 95020000 		.4byte	0x295
 2669 027c 06       		.uleb128 0x6
 2670 027d 84010000 		.4byte	.LASF33
 2671 0281 06       		.byte	0x6
 2672 0282 62       		.byte	0x62
 2673 0283 95020000 		.4byte	0x295
 2674 0287 00       		.byte	0
 2675 0288 06       		.uleb128 0x6
 2676 0289 8B010000 		.4byte	.LASF34
 2677 028d 06       		.byte	0x6
 2678 028e 64       		.byte	0x64
 2679 028f 95020000 		.4byte	0x295
 2680 0293 04       		.byte	0x4
 2681 0294 00       		.byte	0
 2682 0295 09       		.uleb128 0x9
 2683 0296 04       		.byte	0x4
 2684 0297 60010000 		.4byte	0x160
 2685 029b 04       		.uleb128 0x4
 2686 029c 2E0A0000 		.4byte	.LASF53
 2687 02a0 06       		.byte	0x6
 2688 02a1 66       		.byte	0x66
 2689 02a2 74020000 		.4byte	0x274
 2690 02a6 08       		.uleb128 0x8
 2691 02a7 04       		.byte	0x4
 2692 02a8 06       		.byte	0x6
 2693 02a9 6B       		.byte	0x6b
 2694 02aa BB020000 		.4byte	0x2bb
 2695 02ae 06       		.uleb128 0x6
 2696 02af 84010000 		.4byte	.LASF33
 2697 02b3 06       		.byte	0x6
 2698 02b4 6D       		.byte	0x6d
 2699 02b5 95020000 		.4byte	0x295
 2700 02b9 00       		.byte	0
 2701 02ba 00       		.byte	0
 2702 02bb 04       		.uleb128 0x4
 2703 02bc 33070000 		.4byte	.LASF54
 2704 02c0 06       		.byte	0x6
 2705 02c1 70       		.byte	0x70
 2706 02c2 A6020000 		.4byte	0x2a6
ARM GAS  /tmp/cczWCdZx.s 			page 49


 2707 02c6 04       		.uleb128 0x4
 2708 02c7 B0010000 		.4byte	.LASF55
 2709 02cb 08       		.byte	0x8
 2710 02cc E5       		.byte	0xe5
 2711 02cd D1020000 		.4byte	0x2d1
 2712 02d1 0A       		.uleb128 0xa
 2713 02d2 04       		.byte	0x4
 2714 02d3 04       		.uleb128 0x4
 2715 02d4 55040000 		.4byte	.LASF56
 2716 02d8 08       		.byte	0x8
 2717 02d9 EB       		.byte	0xeb
 2718 02da E0000000 		.4byte	0xe0
 2719 02de 0B       		.uleb128 0xb
 2720 02df BF040000 		.4byte	.LASF57
 2721 02e3 64       		.byte	0x64
 2722 02e4 08       		.byte	0x8
 2723 02e5 0C01     		.2byte	0x10c
 2724 02e7 2A040000 		.4byte	0x42a
 2725 02eb 0C       		.uleb128 0xc
 2726 02ec 73313600 		.ascii	"s16\000"
 2727 02f0 08       		.byte	0x8
 2728 02f1 0E01     		.2byte	0x10e
 2729 02f3 C6020000 		.4byte	0x2c6
 2730 02f7 00       		.byte	0
 2731 02f8 0C       		.uleb128 0xc
 2732 02f9 73313700 		.ascii	"s17\000"
 2733 02fd 08       		.byte	0x8
 2734 02fe 0F01     		.2byte	0x10f
 2735 0300 C6020000 		.4byte	0x2c6
 2736 0304 04       		.byte	0x4
 2737 0305 0C       		.uleb128 0xc
 2738 0306 73313800 		.ascii	"s18\000"
 2739 030a 08       		.byte	0x8
 2740 030b 1001     		.2byte	0x110
 2741 030d C6020000 		.4byte	0x2c6
 2742 0311 08       		.byte	0x8
 2743 0312 0C       		.uleb128 0xc
 2744 0313 73313900 		.ascii	"s19\000"
 2745 0317 08       		.byte	0x8
 2746 0318 1101     		.2byte	0x111
 2747 031a C6020000 		.4byte	0x2c6
 2748 031e 0C       		.byte	0xc
 2749 031f 0C       		.uleb128 0xc
 2750 0320 73323000 		.ascii	"s20\000"
 2751 0324 08       		.byte	0x8
 2752 0325 1201     		.2byte	0x112
 2753 0327 C6020000 		.4byte	0x2c6
 2754 032b 10       		.byte	0x10
 2755 032c 0C       		.uleb128 0xc
 2756 032d 73323100 		.ascii	"s21\000"
 2757 0331 08       		.byte	0x8
 2758 0332 1301     		.2byte	0x113
 2759 0334 C6020000 		.4byte	0x2c6
 2760 0338 14       		.byte	0x14
 2761 0339 0C       		.uleb128 0xc
 2762 033a 73323200 		.ascii	"s22\000"
 2763 033e 08       		.byte	0x8
ARM GAS  /tmp/cczWCdZx.s 			page 50


 2764 033f 1401     		.2byte	0x114
 2765 0341 C6020000 		.4byte	0x2c6
 2766 0345 18       		.byte	0x18
 2767 0346 0C       		.uleb128 0xc
 2768 0347 73323300 		.ascii	"s23\000"
 2769 034b 08       		.byte	0x8
 2770 034c 1501     		.2byte	0x115
 2771 034e C6020000 		.4byte	0x2c6
 2772 0352 1C       		.byte	0x1c
 2773 0353 0C       		.uleb128 0xc
 2774 0354 73323400 		.ascii	"s24\000"
 2775 0358 08       		.byte	0x8
 2776 0359 1601     		.2byte	0x116
 2777 035b C6020000 		.4byte	0x2c6
 2778 035f 20       		.byte	0x20
 2779 0360 0C       		.uleb128 0xc
 2780 0361 73323500 		.ascii	"s25\000"
 2781 0365 08       		.byte	0x8
 2782 0366 1701     		.2byte	0x117
 2783 0368 C6020000 		.4byte	0x2c6
 2784 036c 24       		.byte	0x24
 2785 036d 0C       		.uleb128 0xc
 2786 036e 73323600 		.ascii	"s26\000"
 2787 0372 08       		.byte	0x8
 2788 0373 1801     		.2byte	0x118
 2789 0375 C6020000 		.4byte	0x2c6
 2790 0379 28       		.byte	0x28
 2791 037a 0C       		.uleb128 0xc
 2792 037b 73323700 		.ascii	"s27\000"
 2793 037f 08       		.byte	0x8
 2794 0380 1901     		.2byte	0x119
 2795 0382 C6020000 		.4byte	0x2c6
 2796 0386 2C       		.byte	0x2c
 2797 0387 0C       		.uleb128 0xc
 2798 0388 73323800 		.ascii	"s28\000"
 2799 038c 08       		.byte	0x8
 2800 038d 1A01     		.2byte	0x11a
 2801 038f C6020000 		.4byte	0x2c6
 2802 0393 30       		.byte	0x30
 2803 0394 0C       		.uleb128 0xc
 2804 0395 73323900 		.ascii	"s29\000"
 2805 0399 08       		.byte	0x8
 2806 039a 1B01     		.2byte	0x11b
 2807 039c C6020000 		.4byte	0x2c6
 2808 03a0 34       		.byte	0x34
 2809 03a1 0C       		.uleb128 0xc
 2810 03a2 73333000 		.ascii	"s30\000"
 2811 03a6 08       		.byte	0x8
 2812 03a7 1C01     		.2byte	0x11c
 2813 03a9 C6020000 		.4byte	0x2c6
 2814 03ad 38       		.byte	0x38
 2815 03ae 0C       		.uleb128 0xc
 2816 03af 73333100 		.ascii	"s31\000"
 2817 03b3 08       		.byte	0x8
 2818 03b4 1D01     		.2byte	0x11d
 2819 03b6 C6020000 		.4byte	0x2c6
 2820 03ba 3C       		.byte	0x3c
ARM GAS  /tmp/cczWCdZx.s 			page 51


 2821 03bb 0C       		.uleb128 0xc
 2822 03bc 723400   		.ascii	"r4\000"
 2823 03bf 08       		.byte	0x8
 2824 03c0 1F01     		.2byte	0x11f
 2825 03c2 C6020000 		.4byte	0x2c6
 2826 03c6 40       		.byte	0x40
 2827 03c7 0C       		.uleb128 0xc
 2828 03c8 723500   		.ascii	"r5\000"
 2829 03cb 08       		.byte	0x8
 2830 03cc 2001     		.2byte	0x120
 2831 03ce C6020000 		.4byte	0x2c6
 2832 03d2 44       		.byte	0x44
 2833 03d3 0C       		.uleb128 0xc
 2834 03d4 723600   		.ascii	"r6\000"
 2835 03d7 08       		.byte	0x8
 2836 03d8 2101     		.2byte	0x121
 2837 03da C6020000 		.4byte	0x2c6
 2838 03de 48       		.byte	0x48
 2839 03df 0C       		.uleb128 0xc
 2840 03e0 723700   		.ascii	"r7\000"
 2841 03e3 08       		.byte	0x8
 2842 03e4 2201     		.2byte	0x122
 2843 03e6 C6020000 		.4byte	0x2c6
 2844 03ea 4C       		.byte	0x4c
 2845 03eb 0C       		.uleb128 0xc
 2846 03ec 723800   		.ascii	"r8\000"
 2847 03ef 08       		.byte	0x8
 2848 03f0 2301     		.2byte	0x123
 2849 03f2 C6020000 		.4byte	0x2c6
 2850 03f6 50       		.byte	0x50
 2851 03f7 0C       		.uleb128 0xc
 2852 03f8 723900   		.ascii	"r9\000"
 2853 03fb 08       		.byte	0x8
 2854 03fc 2401     		.2byte	0x124
 2855 03fe C6020000 		.4byte	0x2c6
 2856 0402 54       		.byte	0x54
 2857 0403 0C       		.uleb128 0xc
 2858 0404 72313000 		.ascii	"r10\000"
 2859 0408 08       		.byte	0x8
 2860 0409 2501     		.2byte	0x125
 2861 040b C6020000 		.4byte	0x2c6
 2862 040f 58       		.byte	0x58
 2863 0410 0C       		.uleb128 0xc
 2864 0411 72313100 		.ascii	"r11\000"
 2865 0415 08       		.byte	0x8
 2866 0416 2601     		.2byte	0x126
 2867 0418 C6020000 		.4byte	0x2c6
 2868 041c 5C       		.byte	0x5c
 2869 041d 0C       		.uleb128 0xc
 2870 041e 6C7200   		.ascii	"lr\000"
 2871 0421 08       		.byte	0x8
 2872 0422 2701     		.2byte	0x127
 2873 0424 C6020000 		.4byte	0x2c6
 2874 0428 60       		.byte	0x60
 2875 0429 00       		.byte	0
 2876 042a 0B       		.uleb128 0xb
 2877 042b 3C020000 		.4byte	.LASF58
ARM GAS  /tmp/cczWCdZx.s 			page 52


 2878 042f 04       		.byte	0x4
 2879 0430 08       		.byte	0x8
 2880 0431 3101     		.2byte	0x131
 2881 0433 45040000 		.4byte	0x445
 2882 0437 0C       		.uleb128 0xc
 2883 0438 72313300 		.ascii	"r13\000"
 2884 043c 08       		.byte	0x8
 2885 043d 3201     		.2byte	0x132
 2886 043f 45040000 		.4byte	0x445
 2887 0443 00       		.byte	0
 2888 0444 00       		.byte	0
 2889 0445 09       		.uleb128 0x9
 2890 0446 04       		.byte	0x4
 2891 0447 DE020000 		.4byte	0x2de
 2892 044b 0D       		.uleb128 0xd
 2893 044c D5000000 		.4byte	0xd5
 2894 0450 03       		.uleb128 0x3
 2895 0451 04       		.byte	0x4
 2896 0452 07       		.byte	0x7
 2897 0453 05000000 		.4byte	.LASF59
 2898 0457 0D       		.uleb128 0xd
 2899 0458 55010000 		.4byte	0x155
 2900 045c 05       		.uleb128 0x5
 2901 045d 05060000 		.4byte	.LASF60
 2902 0461 10       		.byte	0x10
 2903 0462 09       		.byte	0x9
 2904 0463 2C       		.byte	0x2c
 2905 0464 8D040000 		.4byte	0x48d
 2906 0468 06       		.uleb128 0x6
 2907 0469 27060000 		.4byte	.LASF61
 2908 046d 09       		.byte	0x9
 2909 046e 2D       		.byte	0x2d
 2910 046f 9B020000 		.4byte	0x29b
 2911 0473 00       		.byte	0
 2912 0474 06       		.uleb128 0x6
 2913 0475 02010000 		.4byte	.LASF62
 2914 0479 09       		.byte	0x9
 2915 047a 2F       		.byte	0x2f
 2916 047b 95020000 		.4byte	0x295
 2917 047f 08       		.byte	0x8
 2918 0480 06       		.uleb128 0x6
 2919 0481 320B0000 		.4byte	.LASF63
 2920 0485 09       		.byte	0x9
 2921 0486 31       		.byte	0x31
 2922 0487 8D040000 		.4byte	0x48d
 2923 048b 0C       		.byte	0xc
 2924 048c 00       		.byte	0
 2925 048d 09       		.uleb128 0x9
 2926 048e 04       		.byte	0x4
 2927 048f 5C040000 		.4byte	0x45c
 2928 0493 04       		.uleb128 0x4
 2929 0494 05060000 		.4byte	.LASF60
 2930 0498 09       		.byte	0x9
 2931 0499 33       		.byte	0x33
 2932 049a 5C040000 		.4byte	0x45c
 2933 049e 0E       		.uleb128 0xe
 2934 049f 04       		.byte	0x4
ARM GAS  /tmp/cczWCdZx.s 			page 53


 2935 04a0 07       		.byte	0x7
 2936 04a1 96       		.byte	0x96
 2937 04a2 D3040000 		.4byte	0x4d3
 2938 04a6 0F       		.uleb128 0xf
 2939 04a7 620A0000 		.4byte	.LASF64
 2940 04ab 07       		.byte	0x7
 2941 04ac 9D       		.byte	0x9d
 2942 04ad 3F010000 		.4byte	0x13f
 2943 04b1 0F       		.uleb128 0xf
 2944 04b2 0A010000 		.4byte	.LASF65
 2945 04b6 07       		.byte	0x7
 2946 04b7 A4       		.byte	0xa4
 2947 04b8 3F010000 		.4byte	0x13f
 2948 04bc 0F       		.uleb128 0xf
 2949 04bd 39030000 		.4byte	.LASF66
 2950 04c1 07       		.byte	0x7
 2951 04c2 AB       		.byte	0xab
 2952 04c3 D1020000 		.4byte	0x2d1
 2953 04c7 0F       		.uleb128 0xf
 2954 04c8 2B010000 		.4byte	.LASF67
 2955 04cc 07       		.byte	0x7
 2956 04cd B2       		.byte	0xb2
 2957 04ce 4A010000 		.4byte	0x14a
 2958 04d2 00       		.byte	0
 2959 04d3 09       		.uleb128 0x9
 2960 04d4 04       		.byte	0x4
 2961 04d5 D9040000 		.4byte	0x4d9
 2962 04d9 10       		.uleb128 0x10
 2963 04da DE040000 		.4byte	0x4de
 2964 04de 03       		.uleb128 0x3
 2965 04df 01       		.byte	0x1
 2966 04e0 08       		.byte	0x8
 2967 04e1 ED020000 		.4byte	.LASF68
 2968 04e5 09       		.uleb128 0x9
 2969 04e6 04       		.byte	0x4
 2970 04e7 D3020000 		.4byte	0x2d3
 2971 04eb 09       		.uleb128 0x9
 2972 04ec 04       		.byte	0x4
 2973 04ed 93040000 		.4byte	0x493
 2974 04f1 11       		.uleb128 0x11
 2975 04f2 D5000000 		.4byte	0xd5
 2976 04f6 01050000 		.4byte	0x501
 2977 04fa 12       		.uleb128 0x12
 2978 04fb 50040000 		.4byte	0x450
 2979 04ff 07       		.byte	0x7
 2980 0500 00       		.byte	0
 2981 0501 11       		.uleb128 0x11
 2982 0502 D5000000 		.4byte	0xd5
 2983 0506 11050000 		.4byte	0x511
 2984 050a 12       		.uleb128 0x12
 2985 050b 50040000 		.4byte	0x450
 2986 050f 01       		.byte	0x1
 2987 0510 00       		.byte	0
 2988 0511 11       		.uleb128 0x11
 2989 0512 D5000000 		.4byte	0xd5
 2990 0516 21050000 		.4byte	0x521
 2991 051a 12       		.uleb128 0x12
ARM GAS  /tmp/cczWCdZx.s 			page 54


 2992 051b 50040000 		.4byte	0x450
 2993 051f 03       		.byte	0x3
 2994 0520 00       		.byte	0
 2995 0521 0D       		.uleb128 0xd
 2996 0522 BF000000 		.4byte	0xbf
 2997 0526 0D       		.uleb128 0xd
 2998 0527 CA000000 		.4byte	0xca
 2999 052b 13       		.uleb128 0x13
 3000 052c 18       		.byte	0x18
 3001 052d 0A       		.byte	0xa
 3002 052e B102     		.2byte	0x2b1
 3003 0530 82050000 		.4byte	0x582
 3004 0534 0C       		.uleb128 0xc
 3005 0535 435200   		.ascii	"CR\000"
 3006 0538 0A       		.byte	0xa
 3007 0539 B302     		.2byte	0x2b3
 3008 053b 4B040000 		.4byte	0x44b
 3009 053f 00       		.byte	0
 3010 0540 14       		.uleb128 0x14
 3011 0541 F70A0000 		.4byte	.LASF69
 3012 0545 0A       		.byte	0xa
 3013 0546 B402     		.2byte	0x2b4
 3014 0548 4B040000 		.4byte	0x44b
 3015 054c 04       		.byte	0x4
 3016 054d 0C       		.uleb128 0xc
 3017 054e 50415200 		.ascii	"PAR\000"
 3018 0552 0A       		.byte	0xa
 3019 0553 B502     		.2byte	0x2b5
 3020 0555 4B040000 		.4byte	0x44b
 3021 0559 08       		.byte	0x8
 3022 055a 14       		.uleb128 0x14
 3023 055b 3B090000 		.4byte	.LASF70
 3024 055f 0A       		.byte	0xa
 3025 0560 B602     		.2byte	0x2b6
 3026 0562 4B040000 		.4byte	0x44b
 3027 0566 0C       		.byte	0xc
 3028 0567 14       		.uleb128 0x14
 3029 0568 00000000 		.4byte	.LASF71
 3030 056c 0A       		.byte	0xa
 3031 056d B702     		.2byte	0x2b7
 3032 056f 4B040000 		.4byte	0x44b
 3033 0573 10       		.byte	0x10
 3034 0574 0C       		.uleb128 0xc
 3035 0575 46435200 		.ascii	"FCR\000"
 3036 0579 0A       		.byte	0xa
 3037 057a B802     		.2byte	0x2b8
 3038 057c 4B040000 		.4byte	0x44b
 3039 0580 14       		.byte	0x14
 3040 0581 00       		.byte	0
 3041 0582 15       		.uleb128 0x15
 3042 0583 7D070000 		.4byte	.LASF72
 3043 0587 0A       		.byte	0xa
 3044 0588 B902     		.2byte	0x2b9
 3045 058a 2B050000 		.4byte	0x52b
 3046 058e 13       		.uleb128 0x13
 3047 058f 20       		.byte	0x20
 3048 0590 0A       		.byte	0xa
ARM GAS  /tmp/cczWCdZx.s 			page 55


 3049 0591 4E03     		.2byte	0x34e
 3050 0593 A5050000 		.4byte	0x5a5
 3051 0597 14       		.uleb128 0x14
 3052 0598 E4060000 		.4byte	.LASF73
 3053 059c 0A       		.byte	0xa
 3054 059d 5003     		.2byte	0x350
 3055 059f A5050000 		.4byte	0x5a5
 3056 05a3 00       		.byte	0
 3057 05a4 00       		.byte	0
 3058 05a5 0D       		.uleb128 0xd
 3059 05a6 F1040000 		.4byte	0x4f1
 3060 05aa 15       		.uleb128 0x15
 3061 05ab 870A0000 		.4byte	.LASF74
 3062 05af 0A       		.byte	0xa
 3063 05b0 5103     		.2byte	0x351
 3064 05b2 8E050000 		.4byte	0x58e
 3065 05b6 13       		.uleb128 0x13
 3066 05b7 90       		.byte	0x90
 3067 05b8 0A       		.byte	0xa
 3068 05b9 5804     		.2byte	0x458
 3069 05bb 5F070000 		.4byte	0x75f
 3070 05bf 0C       		.uleb128 0xc
 3071 05c0 435200   		.ascii	"CR\000"
 3072 05c3 0A       		.byte	0xa
 3073 05c4 5A04     		.2byte	0x45a
 3074 05c6 4B040000 		.4byte	0x44b
 3075 05ca 00       		.byte	0
 3076 05cb 14       		.uleb128 0x14
 3077 05cc EA050000 		.4byte	.LASF75
 3078 05d0 0A       		.byte	0xa
 3079 05d1 5B04     		.2byte	0x45b
 3080 05d3 4B040000 		.4byte	0x44b
 3081 05d7 04       		.byte	0x4
 3082 05d8 14       		.uleb128 0x14
 3083 05d9 F6040000 		.4byte	.LASF76
 3084 05dd 0A       		.byte	0xa
 3085 05de 5C04     		.2byte	0x45c
 3086 05e0 4B040000 		.4byte	0x44b
 3087 05e4 08       		.byte	0x8
 3088 05e5 0C       		.uleb128 0xc
 3089 05e6 43495200 		.ascii	"CIR\000"
 3090 05ea 0A       		.byte	0xa
 3091 05eb 5D04     		.2byte	0x45d
 3092 05ed 4B040000 		.4byte	0x44b
 3093 05f1 0C       		.byte	0xc
 3094 05f2 14       		.uleb128 0x14
 3095 05f3 F9020000 		.4byte	.LASF77
 3096 05f7 0A       		.byte	0xa
 3097 05f8 5E04     		.2byte	0x45e
 3098 05fa 4B040000 		.4byte	0x44b
 3099 05fe 10       		.byte	0x10
 3100 05ff 14       		.uleb128 0x14
 3101 0600 32090000 		.4byte	.LASF78
 3102 0604 0A       		.byte	0xa
 3103 0605 5F04     		.2byte	0x45f
 3104 0607 4B040000 		.4byte	0x44b
 3105 060b 14       		.byte	0x14
ARM GAS  /tmp/cczWCdZx.s 			page 56


 3106 060c 14       		.uleb128 0x14
 3107 060d BD070000 		.4byte	.LASF79
 3108 0611 0A       		.byte	0xa
 3109 0612 6004     		.2byte	0x460
 3110 0614 4B040000 		.4byte	0x44b
 3111 0618 18       		.byte	0x18
 3112 0619 14       		.uleb128 0x14
 3113 061a 4D020000 		.4byte	.LASF80
 3114 061e 0A       		.byte	0xa
 3115 061f 6104     		.2byte	0x461
 3116 0621 D5000000 		.4byte	0xd5
 3117 0625 1C       		.byte	0x1c
 3118 0626 14       		.uleb128 0x14
 3119 0627 EB070000 		.4byte	.LASF81
 3120 062b 0A       		.byte	0xa
 3121 062c 6204     		.2byte	0x462
 3122 062e 4B040000 		.4byte	0x44b
 3123 0632 20       		.byte	0x20
 3124 0633 14       		.uleb128 0x14
 3125 0634 55060000 		.4byte	.LASF82
 3126 0638 0A       		.byte	0xa
 3127 0639 6304     		.2byte	0x463
 3128 063b 4B040000 		.4byte	0x44b
 3129 063f 24       		.byte	0x24
 3130 0640 14       		.uleb128 0x14
 3131 0641 57020000 		.4byte	.LASF83
 3132 0645 0A       		.byte	0xa
 3133 0646 6404     		.2byte	0x464
 3134 0648 01050000 		.4byte	0x501
 3135 064c 28       		.byte	0x28
 3136 064d 14       		.uleb128 0x14
 3137 064e ED080000 		.4byte	.LASF84
 3138 0652 0A       		.byte	0xa
 3139 0653 6504     		.2byte	0x465
 3140 0655 4B040000 		.4byte	0x44b
 3141 0659 30       		.byte	0x30
 3142 065a 14       		.uleb128 0x14
 3143 065b 22030000 		.4byte	.LASF85
 3144 065f 0A       		.byte	0xa
 3145 0660 6604     		.2byte	0x466
 3146 0662 4B040000 		.4byte	0x44b
 3147 0666 34       		.byte	0x34
 3148 0667 14       		.uleb128 0x14
 3149 0668 24090000 		.4byte	.LASF86
 3150 066c 0A       		.byte	0xa
 3151 066d 6704     		.2byte	0x467
 3152 066f 4B040000 		.4byte	0x44b
 3153 0673 38       		.byte	0x38
 3154 0674 14       		.uleb128 0x14
 3155 0675 B5020000 		.4byte	.LASF87
 3156 0679 0A       		.byte	0xa
 3157 067a 6804     		.2byte	0x468
 3158 067c D5000000 		.4byte	0xd5
 3159 0680 3C       		.byte	0x3c
 3160 0681 14       		.uleb128 0x14
 3161 0682 F4070000 		.4byte	.LASF88
 3162 0686 0A       		.byte	0xa
ARM GAS  /tmp/cczWCdZx.s 			page 57


 3163 0687 6904     		.2byte	0x469
 3164 0689 4B040000 		.4byte	0x44b
 3165 068d 40       		.byte	0x40
 3166 068e 14       		.uleb128 0x14
 3167 068f B9010000 		.4byte	.LASF89
 3168 0693 0A       		.byte	0xa
 3169 0694 6A04     		.2byte	0x46a
 3170 0696 4B040000 		.4byte	0x44b
 3171 069a 44       		.byte	0x44
 3172 069b 14       		.uleb128 0x14
 3173 069c 6F020000 		.4byte	.LASF90
 3174 06a0 0A       		.byte	0xa
 3175 06a1 6B04     		.2byte	0x46b
 3176 06a3 01050000 		.4byte	0x501
 3177 06a7 48       		.byte	0x48
 3178 06a8 14       		.uleb128 0x14
 3179 06a9 CE010000 		.4byte	.LASF91
 3180 06ad 0A       		.byte	0xa
 3181 06ae 6C04     		.2byte	0x46c
 3182 06b0 4B040000 		.4byte	0x44b
 3183 06b4 50       		.byte	0x50
 3184 06b5 14       		.uleb128 0x14
 3185 06b6 32010000 		.4byte	.LASF92
 3186 06ba 0A       		.byte	0xa
 3187 06bb 6D04     		.2byte	0x46d
 3188 06bd 4B040000 		.4byte	0x44b
 3189 06c1 54       		.byte	0x54
 3190 06c2 14       		.uleb128 0x14
 3191 06c3 80080000 		.4byte	.LASF93
 3192 06c7 0A       		.byte	0xa
 3193 06c8 6E04     		.2byte	0x46e
 3194 06ca 4B040000 		.4byte	0x44b
 3195 06ce 58       		.byte	0x58
 3196 06cf 14       		.uleb128 0x14
 3197 06d0 79020000 		.4byte	.LASF94
 3198 06d4 0A       		.byte	0xa
 3199 06d5 6F04     		.2byte	0x46f
 3200 06d7 D5000000 		.4byte	0xd5
 3201 06db 5C       		.byte	0x5c
 3202 06dc 14       		.uleb128 0x14
 3203 06dd 61070000 		.4byte	.LASF95
 3204 06e1 0A       		.byte	0xa
 3205 06e2 7004     		.2byte	0x470
 3206 06e4 4B040000 		.4byte	0x44b
 3207 06e8 60       		.byte	0x60
 3208 06e9 14       		.uleb128 0x14
 3209 06ea AB060000 		.4byte	.LASF96
 3210 06ee 0A       		.byte	0xa
 3211 06ef 7104     		.2byte	0x471
 3212 06f1 4B040000 		.4byte	0x44b
 3213 06f5 64       		.byte	0x64
 3214 06f6 14       		.uleb128 0x14
 3215 06f7 83020000 		.4byte	.LASF97
 3216 06fb 0A       		.byte	0xa
 3217 06fc 7204     		.2byte	0x472
 3218 06fe 01050000 		.4byte	0x501
 3219 0702 68       		.byte	0x68
ARM GAS  /tmp/cczWCdZx.s 			page 58


 3220 0703 14       		.uleb128 0x14
 3221 0704 8D040000 		.4byte	.LASF98
 3222 0708 0A       		.byte	0xa
 3223 0709 7304     		.2byte	0x473
 3224 070b 4B040000 		.4byte	0x44b
 3225 070f 70       		.byte	0x70
 3226 0710 0C       		.uleb128 0xc
 3227 0711 43535200 		.ascii	"CSR\000"
 3228 0715 0A       		.byte	0xa
 3229 0716 7404     		.2byte	0x474
 3230 0718 4B040000 		.4byte	0x44b
 3231 071c 74       		.byte	0x74
 3232 071d 14       		.uleb128 0x14
 3233 071e 8D020000 		.4byte	.LASF99
 3234 0722 0A       		.byte	0xa
 3235 0723 7504     		.2byte	0x475
 3236 0725 01050000 		.4byte	0x501
 3237 0729 78       		.byte	0x78
 3238 072a 14       		.uleb128 0x14
 3239 072b 2F060000 		.4byte	.LASF100
 3240 072f 0A       		.byte	0xa
 3241 0730 7604     		.2byte	0x476
 3242 0732 4B040000 		.4byte	0x44b
 3243 0736 80       		.byte	0x80
 3244 0737 14       		.uleb128 0x14
 3245 0738 18000000 		.4byte	.LASF101
 3246 073c 0A       		.byte	0xa
 3247 073d 7704     		.2byte	0x477
 3248 073f 4B040000 		.4byte	0x44b
 3249 0743 84       		.byte	0x84
 3250 0744 14       		.uleb128 0x14
 3251 0745 3B0A0000 		.4byte	.LASF102
 3252 0749 0A       		.byte	0xa
 3253 074a 7804     		.2byte	0x478
 3254 074c 4B040000 		.4byte	0x44b
 3255 0750 88       		.byte	0x88
 3256 0751 14       		.uleb128 0x14
 3257 0752 E4010000 		.4byte	.LASF103
 3258 0756 0A       		.byte	0xa
 3259 0757 7904     		.2byte	0x479
 3260 0759 4B040000 		.4byte	0x44b
 3261 075d 8C       		.byte	0x8c
 3262 075e 00       		.byte	0
 3263 075f 15       		.uleb128 0x15
 3264 0760 6E090000 		.4byte	.LASF104
 3265 0764 0A       		.byte	0xa
 3266 0765 7B04     		.2byte	0x47b
 3267 0767 B6050000 		.4byte	0x5b6
 3268 076b 08       		.uleb128 0x8
 3269 076c 0C       		.byte	0xc
 3270 076d 0B       		.byte	0xb
 3271 076e DA       		.byte	0xda
 3272 076f B0070000 		.4byte	0x7b0
 3273 0773 06       		.uleb128 0x6
 3274 0774 72040000 		.4byte	.LASF105
 3275 0778 0B       		.byte	0xb
 3276 0779 DB       		.byte	0xdb
ARM GAS  /tmp/cczWCdZx.s 			page 59


 3277 077a B0070000 		.4byte	0x7b0
 3278 077e 00       		.byte	0
 3279 077f 06       		.uleb128 0x6
 3280 0780 FC0A0000 		.4byte	.LASF106
 3281 0784 0B       		.byte	0xb
 3282 0785 DC       		.byte	0xdc
 3283 0786 B6070000 		.4byte	0x7b6
 3284 078a 04       		.byte	0x4
 3285 078b 06       		.uleb128 0x6
 3286 078c F2020000 		.4byte	.LASF107
 3287 0790 0B       		.byte	0xb
 3288 0791 DD       		.byte	0xdd
 3289 0792 A9000000 		.4byte	0xa9
 3290 0796 08       		.byte	0x8
 3291 0797 06       		.uleb128 0x6
 3292 0798 CD060000 		.4byte	.LASF108
 3293 079c 0B       		.byte	0xb
 3294 079d DF       		.byte	0xdf
 3295 079e A9000000 		.4byte	0xa9
 3296 07a2 09       		.byte	0x9
 3297 07a3 06       		.uleb128 0x6
 3298 07a4 66080000 		.4byte	.LASF109
 3299 07a8 0B       		.byte	0xb
 3300 07a9 E0       		.byte	0xe0
 3301 07aa A9000000 		.4byte	0xa9
 3302 07ae 0A       		.byte	0xa
 3303 07af 00       		.byte	0
 3304 07b0 09       		.uleb128 0x9
 3305 07b1 04       		.byte	0x4
 3306 07b2 82050000 		.4byte	0x582
 3307 07b6 09       		.uleb128 0x9
 3308 07b7 04       		.byte	0x4
 3309 07b8 4B040000 		.4byte	0x44b
 3310 07bc 04       		.uleb128 0x4
 3311 07bd B8050000 		.4byte	.LASF110
 3312 07c1 0B       		.byte	0xb
 3313 07c2 E1       		.byte	0xe1
 3314 07c3 6B070000 		.4byte	0x76b
 3315 07c7 08       		.uleb128 0x8
 3316 07c8 04       		.byte	0x4
 3317 07c9 0C       		.byte	0xc
 3318 07ca 96       		.byte	0x96
 3319 07cb E8070000 		.4byte	0x7e8
 3320 07cf 07       		.uleb128 0x7
 3321 07d0 73657400 		.ascii	"set\000"
 3322 07d4 0C       		.byte	0xc
 3323 07d5 97       		.byte	0x97
 3324 07d6 BF000000 		.4byte	0xbf
 3325 07da 00       		.byte	0
 3326 07db 06       		.uleb128 0x6
 3327 07dc F0040000 		.4byte	.LASF111
 3328 07e0 0C       		.byte	0xc
 3329 07e1 98       		.byte	0x98
 3330 07e2 BF000000 		.4byte	0xbf
 3331 07e6 02       		.byte	0x2
 3332 07e7 00       		.byte	0
 3333 07e8 0E       		.uleb128 0xe
ARM GAS  /tmp/cczWCdZx.s 			page 60


 3334 07e9 04       		.byte	0x4
 3335 07ea 0C       		.byte	0xc
 3336 07eb 94       		.byte	0x94
 3337 07ec 03080000 		.4byte	0x803
 3338 07f0 16       		.uleb128 0x16
 3339 07f1 5700     		.ascii	"W\000"
 3340 07f3 0C       		.byte	0xc
 3341 07f4 95       		.byte	0x95
 3342 07f5 D5000000 		.4byte	0xd5
 3343 07f9 16       		.uleb128 0x16
 3344 07fa 4800     		.ascii	"H\000"
 3345 07fc 0C       		.byte	0xc
 3346 07fd 99       		.byte	0x99
 3347 07fe C7070000 		.4byte	0x7c7
 3348 0802 00       		.byte	0
 3349 0803 08       		.uleb128 0x8
 3350 0804 28       		.byte	0x28
 3351 0805 0C       		.byte	0xc
 3352 0806 8C       		.byte	0x8c
 3353 0807 84080000 		.4byte	0x884
 3354 080b 06       		.uleb128 0x6
 3355 080c BF060000 		.4byte	.LASF112
 3356 0810 0C       		.byte	0xc
 3357 0811 8E       		.byte	0x8e
 3358 0812 4B040000 		.4byte	0x44b
 3359 0816 00       		.byte	0
 3360 0817 06       		.uleb128 0x6
 3361 0818 B6080000 		.4byte	.LASF113
 3362 081c 0C       		.byte	0xc
 3363 081d 8F       		.byte	0x8f
 3364 081e 4B040000 		.4byte	0x44b
 3365 0822 04       		.byte	0x4
 3366 0823 06       		.uleb128 0x6
 3367 0824 E2050000 		.4byte	.LASF114
 3368 0828 0C       		.byte	0xc
 3369 0829 90       		.byte	0x90
 3370 082a 4B040000 		.4byte	0x44b
 3371 082e 08       		.byte	0x8
 3372 082f 06       		.uleb128 0x6
 3373 0830 3C010000 		.4byte	.LASF115
 3374 0834 0C       		.byte	0xc
 3375 0835 91       		.byte	0x91
 3376 0836 4B040000 		.4byte	0x44b
 3377 083a 0C       		.byte	0xc
 3378 083b 07       		.uleb128 0x7
 3379 083c 49445200 		.ascii	"IDR\000"
 3380 0840 0C       		.byte	0xc
 3381 0841 92       		.byte	0x92
 3382 0842 4B040000 		.4byte	0x44b
 3383 0846 10       		.byte	0x10
 3384 0847 07       		.uleb128 0x7
 3385 0848 4F445200 		.ascii	"ODR\000"
 3386 084c 0C       		.byte	0xc
 3387 084d 93       		.byte	0x93
 3388 084e 4B040000 		.4byte	0x44b
 3389 0852 14       		.byte	0x14
 3390 0853 06       		.uleb128 0x6
ARM GAS  /tmp/cczWCdZx.s 			page 61


 3391 0854 CE090000 		.4byte	.LASF116
 3392 0858 0C       		.byte	0xc
 3393 0859 9A       		.byte	0x9a
 3394 085a 84080000 		.4byte	0x884
 3395 085e 18       		.byte	0x18
 3396 085f 06       		.uleb128 0x6
 3397 0860 CB050000 		.4byte	.LASF117
 3398 0864 0C       		.byte	0xc
 3399 0865 9B       		.byte	0x9b
 3400 0866 4B040000 		.4byte	0x44b
 3401 086a 1C       		.byte	0x1c
 3402 086b 06       		.uleb128 0x6
 3403 086c 61080000 		.4byte	.LASF118
 3404 0870 0C       		.byte	0xc
 3405 0871 9C       		.byte	0x9c
 3406 0872 4B040000 		.4byte	0x44b
 3407 0876 20       		.byte	0x20
 3408 0877 06       		.uleb128 0x6
 3409 0878 5C080000 		.4byte	.LASF119
 3410 087c 0C       		.byte	0xc
 3411 087d 9D       		.byte	0x9d
 3412 087e 4B040000 		.4byte	0x44b
 3413 0882 24       		.byte	0x24
 3414 0883 00       		.byte	0
 3415 0884 0D       		.uleb128 0xd
 3416 0885 E8070000 		.4byte	0x7e8
 3417 0889 04       		.uleb128 0x4
 3418 088a DA090000 		.4byte	.LASF120
 3419 088e 0C       		.byte	0xc
 3420 088f 9E       		.byte	0x9e
 3421 0890 03080000 		.4byte	0x803
 3422 0894 04       		.uleb128 0x4
 3423 0895 80040000 		.4byte	.LASF121
 3424 0899 0C       		.byte	0xc
 3425 089a F0       		.byte	0xf0
 3426 089b D5000000 		.4byte	0xd5
 3427 089f 04       		.uleb128 0x4
 3428 08a0 92010000 		.4byte	.LASF122
 3429 08a4 0C       		.byte	0xc
 3430 08a5 FD       		.byte	0xfd
 3431 08a6 AA080000 		.4byte	0x8aa
 3432 08aa 09       		.uleb128 0x9
 3433 08ab 04       		.byte	0x4
 3434 08ac 89080000 		.4byte	0x889
 3435 08b0 08       		.uleb128 0x8
 3436 08b1 0C       		.byte	0xc
 3437 08b2 0D       		.byte	0xd
 3438 08b3 85       		.byte	0x85
 3439 08b4 DD080000 		.4byte	0x8dd
 3440 08b8 06       		.uleb128 0x6
 3441 08b9 29020000 		.4byte	.LASF123
 3442 08bd 0D       		.byte	0xd
 3443 08be 89       		.byte	0x89
 3444 08bf 9F080000 		.4byte	0x89f
 3445 08c3 00       		.byte	0
 3446 08c4 06       		.uleb128 0x6
 3447 08c5 70060000 		.4byte	.LASF124
ARM GAS  /tmp/cczWCdZx.s 			page 62


 3448 08c9 0D       		.byte	0xd
 3449 08ca 8F       		.byte	0x8f
 3450 08cb 94080000 		.4byte	0x894
 3451 08cf 04       		.byte	0x4
 3452 08d0 06       		.uleb128 0x6
 3453 08d1 5A070000 		.4byte	.LASF125
 3454 08d5 0D       		.byte	0xd
 3455 08d6 93       		.byte	0x93
 3456 08d7 EB000000 		.4byte	0xeb
 3457 08db 08       		.byte	0x8
 3458 08dc 00       		.byte	0
 3459 08dd 04       		.uleb128 0x4
 3460 08de B9040000 		.4byte	.LASF126
 3461 08e2 0D       		.byte	0xd
 3462 08e3 94       		.byte	0x94
 3463 08e4 B0080000 		.4byte	0x8b0
 3464 08e8 13       		.uleb128 0x13
 3465 08e9 60       		.byte	0x60
 3466 08ea 0E       		.byte	0xe
 3467 08eb 9E01     		.2byte	0x19e
 3468 08ed 010A0000 		.4byte	0xa01
 3469 08f1 0C       		.uleb128 0xc
 3470 08f2 43523100 		.ascii	"CR1\000"
 3471 08f6 0E       		.byte	0xe
 3472 08f7 9F01     		.2byte	0x19f
 3473 08f9 4B040000 		.4byte	0x44b
 3474 08fd 00       		.byte	0
 3475 08fe 0C       		.uleb128 0xc
 3476 08ff 43523200 		.ascii	"CR2\000"
 3477 0903 0E       		.byte	0xe
 3478 0904 A001     		.2byte	0x1a0
 3479 0906 4B040000 		.4byte	0x44b
 3480 090a 04       		.byte	0x4
 3481 090b 14       		.uleb128 0x14
 3482 090c 6D080000 		.4byte	.LASF127
 3483 0910 0E       		.byte	0xe
 3484 0911 A101     		.2byte	0x1a1
 3485 0913 4B040000 		.4byte	0x44b
 3486 0917 08       		.byte	0x8
 3487 0918 14       		.uleb128 0x14
 3488 0919 97050000 		.4byte	.LASF128
 3489 091d 0E       		.byte	0xe
 3490 091e A201     		.2byte	0x1a2
 3491 0920 4B040000 		.4byte	0x44b
 3492 0924 0C       		.byte	0xc
 3493 0925 0C       		.uleb128 0xc
 3494 0926 535200   		.ascii	"SR\000"
 3495 0929 0E       		.byte	0xe
 3496 092a A301     		.2byte	0x1a3
 3497 092c 4B040000 		.4byte	0x44b
 3498 0930 10       		.byte	0x10
 3499 0931 0C       		.uleb128 0xc
 3500 0932 45475200 		.ascii	"EGR\000"
 3501 0936 0E       		.byte	0xe
 3502 0937 A401     		.2byte	0x1a4
 3503 0939 4B040000 		.4byte	0x44b
 3504 093d 14       		.byte	0x14
ARM GAS  /tmp/cczWCdZx.s 			page 63


 3505 093e 14       		.uleb128 0x14
 3506 093f CE020000 		.4byte	.LASF129
 3507 0943 0E       		.byte	0xe
 3508 0944 A501     		.2byte	0x1a5
 3509 0946 4B040000 		.4byte	0x44b
 3510 094a 18       		.byte	0x18
 3511 094b 14       		.uleb128 0x14
 3512 094c D4020000 		.4byte	.LASF130
 3513 0950 0E       		.byte	0xe
 3514 0951 A601     		.2byte	0x1a6
 3515 0953 4B040000 		.4byte	0x44b
 3516 0957 1C       		.byte	0x1c
 3517 0958 14       		.uleb128 0x14
 3518 0959 4D080000 		.4byte	.LASF131
 3519 095d 0E       		.byte	0xe
 3520 095e A701     		.2byte	0x1a7
 3521 0960 4B040000 		.4byte	0x44b
 3522 0964 20       		.byte	0x20
 3523 0965 0C       		.uleb128 0xc
 3524 0966 434E5400 		.ascii	"CNT\000"
 3525 096a 0E       		.byte	0xe
 3526 096b A801     		.2byte	0x1a8
 3527 096d 4B040000 		.4byte	0x44b
 3528 0971 24       		.byte	0x24
 3529 0972 0C       		.uleb128 0xc
 3530 0973 50534300 		.ascii	"PSC\000"
 3531 0977 0E       		.byte	0xe
 3532 0978 A901     		.2byte	0x1a9
 3533 097a 4B040000 		.4byte	0x44b
 3534 097e 28       		.byte	0x28
 3535 097f 0C       		.uleb128 0xc
 3536 0980 41525200 		.ascii	"ARR\000"
 3537 0984 0E       		.byte	0xe
 3538 0985 AA01     		.2byte	0x1aa
 3539 0987 4B040000 		.4byte	0x44b
 3540 098b 2C       		.byte	0x2c
 3541 098c 0C       		.uleb128 0xc
 3542 098d 52435200 		.ascii	"RCR\000"
 3543 0991 0E       		.byte	0xe
 3544 0992 AB01     		.2byte	0x1ab
 3545 0994 4B040000 		.4byte	0x44b
 3546 0998 30       		.byte	0x30
 3547 0999 0C       		.uleb128 0xc
 3548 099a 43435200 		.ascii	"CCR\000"
 3549 099e 0E       		.byte	0xe
 3550 099f AC01     		.2byte	0x1ac
 3551 09a1 010A0000 		.4byte	0xa01
 3552 09a5 34       		.byte	0x34
 3553 09a6 14       		.uleb128 0x14
 3554 09a7 200A0000 		.4byte	.LASF132
 3555 09ab 0E       		.byte	0xe
 3556 09ac AD01     		.2byte	0x1ad
 3557 09ae 4B040000 		.4byte	0x44b
 3558 09b2 44       		.byte	0x44
 3559 09b3 0C       		.uleb128 0xc
 3560 09b4 44435200 		.ascii	"DCR\000"
 3561 09b8 0E       		.byte	0xe
ARM GAS  /tmp/cczWCdZx.s 			page 64


 3562 09b9 AE01     		.2byte	0x1ae
 3563 09bb 4B040000 		.4byte	0x44b
 3564 09bf 48       		.byte	0x48
 3565 09c0 14       		.uleb128 0x14
 3566 09c1 C4000000 		.4byte	.LASF133
 3567 09c5 0E       		.byte	0xe
 3568 09c6 AF01     		.2byte	0x1af
 3569 09c8 4B040000 		.4byte	0x44b
 3570 09cc 4C       		.byte	0x4c
 3571 09cd 0C       		.uleb128 0xc
 3572 09ce 4F5200   		.ascii	"OR\000"
 3573 09d1 0E       		.byte	0xe
 3574 09d2 B001     		.2byte	0x1b0
 3575 09d4 4B040000 		.4byte	0x44b
 3576 09d8 50       		.byte	0x50
 3577 09d9 14       		.uleb128 0x14
 3578 09da DA020000 		.4byte	.LASF134
 3579 09de 0E       		.byte	0xe
 3580 09df B101     		.2byte	0x1b1
 3581 09e1 4B040000 		.4byte	0x44b
 3582 09e5 54       		.byte	0x54
 3583 09e6 14       		.uleb128 0x14
 3584 09e7 13010000 		.4byte	.LASF135
 3585 09eb 0E       		.byte	0xe
 3586 09ec B201     		.2byte	0x1b2
 3587 09ee 4B040000 		.4byte	0x44b
 3588 09f2 58       		.byte	0x58
 3589 09f3 14       		.uleb128 0x14
 3590 09f4 9C070000 		.4byte	.LASF136
 3591 09f8 0E       		.byte	0xe
 3592 09f9 B301     		.2byte	0x1b3
 3593 09fb 4B040000 		.4byte	0x44b
 3594 09ff 5C       		.byte	0x5c
 3595 0a00 00       		.byte	0
 3596 0a01 0D       		.uleb128 0xd
 3597 0a02 11050000 		.4byte	0x511
 3598 0a06 15       		.uleb128 0x15
 3599 0a07 D0050000 		.4byte	.LASF137
 3600 0a0b 0E       		.byte	0xe
 3601 0a0c B401     		.2byte	0x1b4
 3602 0a0e E8080000 		.4byte	0x8e8
 3603 0a12 09       		.uleb128 0x9
 3604 0a13 04       		.byte	0x4
 3605 0a14 060A0000 		.4byte	0xa06
 3606 0a18 17       		.uleb128 0x17
 3607 0a19 01       		.byte	0x1
 3608 0a1a 0F       		.byte	0xf
 3609 0a1b 55       		.byte	0x55
 3610 0a1c 330A0000 		.4byte	0xa33
 3611 0a20 18       		.uleb128 0x18
 3612 0a21 CE000000 		.4byte	.LASF138
 3613 0a25 00       		.sleb128 0
 3614 0a26 18       		.uleb128 0x18
 3615 0a27 20080000 		.4byte	.LASF139
 3616 0a2b 01       		.sleb128 1
 3617 0a2c 18       		.uleb128 0x18
 3618 0a2d 64090000 		.4byte	.LASF140
ARM GAS  /tmp/cczWCdZx.s 			page 65


 3619 0a31 02       		.sleb128 2
 3620 0a32 00       		.byte	0
 3621 0a33 04       		.uleb128 0x4
 3622 0a34 150A0000 		.4byte	.LASF141
 3623 0a38 0F       		.byte	0xf
 3624 0a39 59       		.byte	0x59
 3625 0a3a 180A0000 		.4byte	0xa18
 3626 0a3e 04       		.uleb128 0x4
 3627 0a3f 50070000 		.4byte	.LASF142
 3628 0a43 0F       		.byte	0xf
 3629 0a44 5E       		.byte	0x5e
 3630 0a45 490A0000 		.4byte	0xa49
 3631 0a49 0B       		.uleb128 0xb
 3632 0a4a 50070000 		.4byte	.LASF142
 3633 0a4e 14       		.byte	0x14
 3634 0a4f 10       		.byte	0x10
 3635 0a50 6F01     		.2byte	0x16f
 3636 0a52 980A0000 		.4byte	0xa98
 3637 0a56 14       		.uleb128 0x14
 3638 0a57 93000000 		.4byte	.LASF143
 3639 0a5b 10       		.byte	0x10
 3640 0a5c 7301     		.2byte	0x173
 3641 0a5e 330A0000 		.4byte	0xa33
 3642 0a62 00       		.byte	0
 3643 0a63 14       		.uleb128 0x14
 3644 0a64 8C000000 		.4byte	.LASF144
 3645 0a68 10       		.byte	0x10
 3646 0a69 7701     		.2byte	0x177
 3647 0a6b 760B0000 		.4byte	0xb76
 3648 0a6f 04       		.byte	0x4
 3649 0a70 14       		.uleb128 0x14
 3650 0a71 72080000 		.4byte	.LASF145
 3651 0a75 10       		.byte	0x10
 3652 0a76 7B01     		.2byte	0x17b
 3653 0a78 C60A0000 		.4byte	0xac6
 3654 0a7c 08       		.byte	0x8
 3655 0a7d 14       		.uleb128 0x14
 3656 0a7e DC050000 		.4byte	.LASF146
 3657 0a82 10       		.byte	0x10
 3658 0a83 8301     		.2byte	0x183
 3659 0a85 D5000000 		.4byte	0xd5
 3660 0a89 0C       		.byte	0xc
 3661 0a8a 0C       		.uleb128 0xc
 3662 0a8b 74696D00 		.ascii	"tim\000"
 3663 0a8f 10       		.byte	0x10
 3664 0a90 8701     		.2byte	0x187
 3665 0a92 120A0000 		.4byte	0xa12
 3666 0a96 10       		.byte	0x10
 3667 0a97 00       		.byte	0
 3668 0a98 04       		.uleb128 0x4
 3669 0a99 25070000 		.4byte	.LASF147
 3670 0a9d 0F       		.byte	0xf
 3671 0a9e 65       		.byte	0x65
 3672 0a9f A30A0000 		.4byte	0xaa3
 3673 0aa3 09       		.uleb128 0x9
 3674 0aa4 04       		.byte	0x4
 3675 0aa5 A90A0000 		.4byte	0xaa9
ARM GAS  /tmp/cczWCdZx.s 			page 66


 3676 0aa9 19       		.uleb128 0x19
 3677 0aaa B40A0000 		.4byte	0xab4
 3678 0aae 1A       		.uleb128 0x1a
 3679 0aaf B40A0000 		.4byte	0xab4
 3680 0ab3 00       		.byte	0
 3681 0ab4 09       		.uleb128 0x9
 3682 0ab5 04       		.byte	0x4
 3683 0ab6 3E0A0000 		.4byte	0xa3e
 3684 0aba 15       		.uleb128 0x15
 3685 0abb A8040000 		.4byte	.LASF148
 3686 0abf 10       		.byte	0x10
 3687 0ac0 2001     		.2byte	0x120
 3688 0ac2 D5000000 		.4byte	0xd5
 3689 0ac6 15       		.uleb128 0x15
 3690 0ac7 44020000 		.4byte	.LASF149
 3691 0acb 10       		.byte	0x10
 3692 0acc 2A01     		.2byte	0x12a
 3693 0ace BF000000 		.4byte	0xbf
 3694 0ad2 13       		.uleb128 0x13
 3695 0ad3 08       		.byte	0x8
 3696 0ad4 10       		.byte	0x10
 3697 0ad5 2F01     		.2byte	0x12f
 3698 0ad7 F60A0000 		.4byte	0xaf6
 3699 0adb 14       		.uleb128 0x14
 3700 0adc 9F090000 		.4byte	.LASF150
 3701 0ae0 10       		.byte	0x10
 3702 0ae1 3301     		.2byte	0x133
 3703 0ae3 BA0A0000 		.4byte	0xaba
 3704 0ae7 00       		.byte	0
 3705 0ae8 14       		.uleb128 0x14
 3706 0ae9 D9000000 		.4byte	.LASF151
 3707 0aed 10       		.byte	0x10
 3708 0aee 3901     		.2byte	0x139
 3709 0af0 980A0000 		.4byte	0xa98
 3710 0af4 04       		.byte	0x4
 3711 0af5 00       		.byte	0
 3712 0af6 15       		.uleb128 0x15
 3713 0af7 AE000000 		.4byte	.LASF152
 3714 0afb 10       		.byte	0x10
 3715 0afc 3B01     		.2byte	0x13b
 3716 0afe D20A0000 		.4byte	0xad2
 3717 0b02 13       		.uleb128 0x13
 3718 0b03 34       		.byte	0x34
 3719 0b04 10       		.byte	0x10
 3720 0b05 4001     		.2byte	0x140
 3721 0b07 5A0B0000 		.4byte	0xb5a
 3722 0b0b 14       		.uleb128 0x14
 3723 0b0c A1060000 		.4byte	.LASF153
 3724 0b10 10       		.byte	0x10
 3725 0b11 4601     		.2byte	0x146
 3726 0b13 D5000000 		.4byte	0xd5
 3727 0b17 00       		.byte	0
 3728 0b18 14       		.uleb128 0x14
 3729 0b19 72080000 		.4byte	.LASF145
 3730 0b1d 10       		.byte	0x10
 3731 0b1e 4C01     		.2byte	0x14c
 3732 0b20 C60A0000 		.4byte	0xac6
ARM GAS  /tmp/cczWCdZx.s 			page 67


 3733 0b24 04       		.byte	0x4
 3734 0b25 14       		.uleb128 0x14
 3735 0b26 D9000000 		.4byte	.LASF151
 3736 0b2a 10       		.byte	0x10
 3737 0b2b 5201     		.2byte	0x152
 3738 0b2d 980A0000 		.4byte	0xa98
 3739 0b31 08       		.byte	0x8
 3740 0b32 14       		.uleb128 0x14
 3741 0b33 0D070000 		.4byte	.LASF154
 3742 0b37 10       		.byte	0x10
 3743 0b38 5601     		.2byte	0x156
 3744 0b3a 5A0B0000 		.4byte	0xb5a
 3745 0b3e 0C       		.byte	0xc
 3746 0b3f 0C       		.uleb128 0xc
 3747 0b40 63723200 		.ascii	"cr2\000"
 3748 0b44 10       		.byte	0x10
 3749 0b45 5C01     		.2byte	0x15c
 3750 0b47 D5000000 		.4byte	0xd5
 3751 0b4b 2C       		.byte	0x2c
 3752 0b4c 14       		.uleb128 0x14
 3753 0b4d C9000000 		.4byte	.LASF155
 3754 0b51 10       		.byte	0x10
 3755 0b52 6901     		.2byte	0x169
 3756 0b54 D5000000 		.4byte	0xd5
 3757 0b58 30       		.byte	0x30
 3758 0b59 00       		.byte	0
 3759 0b5a 11       		.uleb128 0x11
 3760 0b5b F60A0000 		.4byte	0xaf6
 3761 0b5f 6A0B0000 		.4byte	0xb6a
 3762 0b63 12       		.uleb128 0x12
 3763 0b64 50040000 		.4byte	0x450
 3764 0b68 03       		.byte	0x3
 3765 0b69 00       		.byte	0
 3766 0b6a 15       		.uleb128 0x15
 3767 0b6b E7090000 		.4byte	.LASF156
 3768 0b6f 10       		.byte	0x10
 3769 0b70 6A01     		.2byte	0x16a
 3770 0b72 020B0000 		.4byte	0xb02
 3771 0b76 09       		.uleb128 0x9
 3772 0b77 04       		.byte	0x4
 3773 0b78 7C0B0000 		.4byte	0xb7c
 3774 0b7c 10       		.uleb128 0x10
 3775 0b7d 6A0B0000 		.4byte	0xb6a
 3776 0b81 04       		.uleb128 0x4
 3777 0b82 1B090000 		.4byte	.LASF157
 3778 0b86 11       		.byte	0x11
 3779 0b87 42       		.byte	0x42
 3780 0b88 93040000 		.4byte	0x493
 3781 0b8c 04       		.uleb128 0x4
 3782 0b8d 45000000 		.4byte	.LASF158
 3783 0b91 12       		.byte	0x12
 3784 0b92 27       		.byte	0x27
 3785 0b93 B4000000 		.4byte	0xb4
 3786 0b97 04       		.uleb128 0x4
 3787 0b98 79080000 		.4byte	.LASF159
 3788 0b9c 12       		.byte	0x12
 3789 0b9d 3E       		.byte	0x3e
ARM GAS  /tmp/cczWCdZx.s 			page 68


 3790 0b9e A20B0000 		.4byte	0xba2
 3791 0ba2 09       		.uleb128 0x9
 3792 0ba3 04       		.byte	0x4
 3793 0ba4 A80B0000 		.4byte	0xba8
 3794 0ba8 10       		.uleb128 0x10
 3795 0ba9 AD0B0000 		.4byte	0xbad
 3796 0bad 1B       		.uleb128 0x1b
 3797 0bae 68040000 		.4byte	.LASF262
 3798 0bb2 1C       		.uleb128 0x1c
 3799 0bb3 A4090000 		.4byte	.LASF167
 3800 0bb7 02       		.byte	0x2
 3801 0bb8 12       		.byte	0x12
 3802 0bb9 44       		.byte	0x44
 3803 0bba E80B0000 		.4byte	0xbe8
 3804 0bbe 18       		.uleb128 0x18
 3805 0bbf 2A030000 		.4byte	.LASF160
 3806 0bc3 00       		.sleb128 0
 3807 0bc4 18       		.uleb128 0x18
 3808 0bc5 A70A0000 		.4byte	.LASF161
 3809 0bc9 DA00     		.sleb128 90
 3810 0bcb 18       		.uleb128 0x18
 3811 0bcc 3F070000 		.4byte	.LASF162
 3812 0bd0 B401     		.sleb128 180
 3813 0bd2 18       		.uleb128 0x18
 3814 0bd3 C3080000 		.4byte	.LASF163
 3815 0bd7 8E02     		.sleb128 270
 3816 0bd9 18       		.uleb128 0x18
 3817 0bda 42010000 		.4byte	.LASF164
 3818 0bde E807     		.sleb128 1000
 3819 0be0 18       		.uleb128 0x18
 3820 0be1 010B0000 		.4byte	.LASF165
 3821 0be5 E907     		.sleb128 1001
 3822 0be7 00       		.byte	0
 3823 0be8 04       		.uleb128 0x4
 3824 0be9 02030000 		.4byte	.LASF166
 3825 0bed 12       		.byte	0x12
 3826 0bee 44       		.byte	0x44
 3827 0bef B20B0000 		.4byte	0xbb2
 3828 0bf3 1C       		.uleb128 0x1c
 3829 0bf4 E2000000 		.4byte	.LASF168
 3830 0bf8 01       		.byte	0x1
 3831 0bf9 12       		.byte	0x12
 3832 0bfa 48       		.byte	0x48
 3833 0bfb 180C0000 		.4byte	0xc18
 3834 0bff 18       		.uleb128 0x18
 3835 0c00 9C050000 		.4byte	.LASF169
 3836 0c04 00       		.sleb128 0
 3837 0c05 18       		.uleb128 0x18
 3838 0c06 F9090000 		.4byte	.LASF170
 3839 0c0a 01       		.sleb128 1
 3840 0c0b 18       		.uleb128 0x18
 3841 0c0c C6070000 		.4byte	.LASF171
 3842 0c10 02       		.sleb128 2
 3843 0c11 18       		.uleb128 0x18
 3844 0c12 F2050000 		.4byte	.LASF172
 3845 0c16 03       		.sleb128 3
 3846 0c17 00       		.byte	0
ARM GAS  /tmp/cczWCdZx.s 			page 69


 3847 0c18 04       		.uleb128 0x4
 3848 0c19 E4040000 		.4byte	.LASF173
 3849 0c1d 12       		.byte	0x12
 3850 0c1e 48       		.byte	0x48
 3851 0c1f F30B0000 		.4byte	0xbf3
 3852 0c23 04       		.uleb128 0x4
 3853 0c24 02020000 		.4byte	.LASF174
 3854 0c28 12       		.byte	0x12
 3855 0c29 4D       		.byte	0x4d
 3856 0c2a 2E0C0000 		.4byte	0xc2e
 3857 0c2e 0B       		.uleb128 0xb
 3858 0c2f 02020000 		.4byte	.LASF174
 3859 0c33 60       		.byte	0x60
 3860 0c34 13       		.byte	0x13
 3861 0c35 3C01     		.2byte	0x13c
 3862 0c37 EA0C0000 		.4byte	0xcea
 3863 0c3b 0C       		.uleb128 0xc
 3864 0c3c 6400     		.ascii	"d\000"
 3865 0c3e 13       		.byte	0x13
 3866 0c3f 3D01     		.2byte	0x13d
 3867 0c41 070D0000 		.4byte	0xd07
 3868 0c45 00       		.byte	0
 3869 0c46 0C       		.uleb128 0xc
 3870 0c47 6700     		.ascii	"g\000"
 3871 0c49 13       		.byte	0x13
 3872 0c4a 4701     		.2byte	0x147
 3873 0c4c E30D0000 		.4byte	0xde3
 3874 0c50 08       		.byte	0x8
 3875 0c51 14       		.uleb128 0x14
 3876 0c52 F4000000 		.4byte	.LASF175
 3877 0c56 13       		.byte	0x13
 3878 0c57 4901     		.2byte	0x149
 3879 0c59 D1020000 		.4byte	0x2d1
 3880 0c5d 14       		.byte	0x14
 3881 0c5e 14       		.uleb128 0x14
 3882 0c5f 2C090000 		.4byte	.LASF176
 3883 0c63 13       		.byte	0x13
 3884 0c64 4A01     		.2byte	0x14a
 3885 0c66 D1020000 		.4byte	0x2d1
 3886 0c6a 18       		.byte	0x18
 3887 0c6b 14       		.uleb128 0x14
 3888 0c6c 1F0B0000 		.4byte	.LASF177
 3889 0c70 13       		.byte	0x13
 3890 0c71 4C01     		.2byte	0x14c
 3891 0c73 A9000000 		.4byte	0xa9
 3892 0c77 1C       		.byte	0x1c
 3893 0c78 14       		.uleb128 0x14
 3894 0c79 8A080000 		.4byte	.LASF178
 3895 0c7d 13       		.byte	0x13
 3896 0c7e 4D01     		.2byte	0x14d
 3897 0c80 A9000000 		.4byte	0xa9
 3898 0c84 1D       		.byte	0x1d
 3899 0c85 14       		.uleb128 0x14
 3900 0c86 BF020000 		.4byte	.LASF179
 3901 0c8a 13       		.byte	0x13
 3902 0c8b 4E01     		.2byte	0x14e
 3903 0c8d BF000000 		.4byte	0xbf
ARM GAS  /tmp/cczWCdZx.s 			page 70


 3904 0c91 1E       		.byte	0x1e
 3905 0c92 14       		.uleb128 0x14
 3906 0c93 7C060000 		.4byte	.LASF180
 3907 0c97 13       		.byte	0x13
 3908 0c98 5501     		.2byte	0x155
 3909 0c9a 810B0000 		.4byte	0xb81
 3910 0c9e 20       		.byte	0x20
 3911 0c9f 14       		.uleb128 0x14
 3912 0ca0 0B060000 		.4byte	.LASF181
 3913 0ca4 13       		.byte	0x13
 3914 0ca5 5A01     		.2byte	0x15a
 3915 0ca7 8C0B0000 		.4byte	0xb8c
 3916 0cab 30       		.byte	0x30
 3917 0cac 14       		.uleb128 0x14
 3918 0cad FB040000 		.4byte	.LASF182
 3919 0cb1 13       		.byte	0x13
 3920 0cb2 5A01     		.2byte	0x15a
 3921 0cb4 8C0B0000 		.4byte	0xb8c
 3922 0cb8 32       		.byte	0x32
 3923 0cb9 14       		.uleb128 0x14
 3924 0cba 12060000 		.4byte	.LASF183
 3925 0cbe 13       		.byte	0x13
 3926 0cbf 5B01     		.2byte	0x15b
 3927 0cc1 8C0B0000 		.4byte	0xb8c
 3928 0cc5 34       		.byte	0x34
 3929 0cc6 14       		.uleb128 0x14
 3930 0cc7 75060000 		.4byte	.LASF184
 3931 0ccb 13       		.byte	0x13
 3932 0ccc 5B01     		.2byte	0x15b
 3933 0cce 8C0B0000 		.4byte	0xb8c
 3934 0cd2 36       		.byte	0x36
 3935 0cd3 0C       		.uleb128 0xc
 3936 0cd4 7000     		.ascii	"p\000"
 3937 0cd6 13       		.byte	0x13
 3938 0cd7 6601     		.2byte	0x166
 3939 0cd9 3F0E0000 		.4byte	0xe3f
 3940 0cdd 38       		.byte	0x38
 3941 0cde 0C       		.uleb128 0xc
 3942 0cdf 7400     		.ascii	"t\000"
 3943 0ce1 13       		.byte	0x13
 3944 0ce2 7201     		.2byte	0x172
 3945 0ce4 C10E0000 		.4byte	0xec1
 3946 0ce8 50       		.byte	0x50
 3947 0ce9 00       		.byte	0
 3948 0cea 15       		.uleb128 0x15
 3949 0ceb 40090000 		.4byte	.LASF185
 3950 0cef 14       		.byte	0x14
 3951 0cf0 9001     		.2byte	0x190
 3952 0cf2 BF000000 		.4byte	0xbf
 3953 0cf6 04       		.uleb128 0x4
 3954 0cf7 60040000 		.4byte	.LASF186
 3955 0cfb 12       		.byte	0x12
 3956 0cfc B2       		.byte	0xb2
 3957 0cfd EA0C0000 		.4byte	0xcea
 3958 0d01 09       		.uleb128 0x9
 3959 0d02 04       		.byte	0x4
 3960 0d03 230C0000 		.4byte	0xc23
ARM GAS  /tmp/cczWCdZx.s 			page 71


 3961 0d07 05       		.uleb128 0x5
 3962 0d08 EC000000 		.4byte	.LASF187
 3963 0d0c 08       		.byte	0x8
 3964 0d0d 15       		.byte	0x15
 3965 0d0e 3A       		.byte	0x3a
 3966 0d0f 2C0D0000 		.4byte	0xd2c
 3967 0d13 06       		.uleb128 0x6
 3968 0d14 58000000 		.4byte	.LASF188
 3969 0d18 15       		.byte	0x15
 3970 0d19 3B       		.byte	0x3b
 3971 0d1a 2C0D0000 		.4byte	0xd2c
 3972 0d1e 00       		.byte	0
 3973 0d1f 07       		.uleb128 0x7
 3974 0d20 766D7400 		.ascii	"vmt\000"
 3975 0d24 15       		.byte	0x15
 3976 0d25 3C       		.byte	0x3c
 3977 0d26 870D0000 		.4byte	0xd87
 3978 0d2a 04       		.byte	0x4
 3979 0d2b 00       		.byte	0
 3980 0d2c 09       		.uleb128 0x9
 3981 0d2d 04       		.byte	0x4
 3982 0d2e 070D0000 		.4byte	0xd07
 3983 0d32 05       		.uleb128 0x5
 3984 0d33 D60A0000 		.4byte	.LASF189
 3985 0d37 14       		.byte	0x14
 3986 0d38 15       		.byte	0x15
 3987 0d39 42       		.byte	0x42
 3988 0d3a 870D0000 		.4byte	0xd87
 3989 0d3e 06       		.uleb128 0x6
 3990 0d3f BF000000 		.4byte	.LASF190
 3991 0d43 15       		.byte	0x15
 3992 0d44 43       		.byte	0x43
 3993 0d45 BF000000 		.4byte	0xbf
 3994 0d49 00       		.byte	0
 3995 0d4a 06       		.uleb128 0x6
 3996 0d4b BF020000 		.4byte	.LASF179
 3997 0d4f 15       		.byte	0x15
 3998 0d50 44       		.byte	0x44
 3999 0d51 BF000000 		.4byte	0xbf
 4000 0d55 02       		.byte	0x2
 4001 0d56 06       		.uleb128 0x6
 4002 0d57 84090000 		.4byte	.LASF191
 4003 0d5b 15       		.byte	0x15
 4004 0d5c 45       		.byte	0x45
 4005 0d5d D5000000 		.4byte	0xd5
 4006 0d61 04       		.byte	0x4
 4007 0d62 06       		.uleb128 0x6
 4008 0d63 DA080000 		.4byte	.LASF192
 4009 0d67 15       		.byte	0x15
 4010 0d68 46       		.byte	0x46
 4011 0d69 C10D0000 		.4byte	0xdc1
 4012 0d6d 08       		.byte	0x8
 4013 0d6e 06       		.uleb128 0x6
 4014 0d6f 22010000 		.4byte	.LASF193
 4015 0d73 15       		.byte	0x15
 4016 0d74 4A       		.byte	0x4a
 4017 0d75 D20D0000 		.4byte	0xdd2
ARM GAS  /tmp/cczWCdZx.s 			page 72


 4018 0d79 0C       		.byte	0xc
 4019 0d7a 06       		.uleb128 0x6
 4020 0d7b 79040000 		.4byte	.LASF194
 4021 0d7f 15       		.byte	0x15
 4022 0d80 4B       		.byte	0x4b
 4023 0d81 D20D0000 		.4byte	0xdd2
 4024 0d85 10       		.byte	0x10
 4025 0d86 00       		.byte	0
 4026 0d87 09       		.uleb128 0x9
 4027 0d88 04       		.byte	0x4
 4028 0d89 8D0D0000 		.4byte	0xd8d
 4029 0d8d 10       		.uleb128 0x10
 4030 0d8e 320D0000 		.4byte	0xd32
 4031 0d92 04       		.uleb128 0x4
 4032 0d93 EC000000 		.4byte	.LASF187
 4033 0d97 15       		.byte	0x15
 4034 0d98 3D       		.byte	0x3d
 4035 0d99 070D0000 		.4byte	0xd07
 4036 0d9d 1D       		.uleb128 0x1d
 4037 0d9e F6000000 		.4byte	0xf6
 4038 0da2 BB0D0000 		.4byte	0xdbb
 4039 0da6 1A       		.uleb128 0x1a
 4040 0da7 BB0D0000 		.4byte	0xdbb
 4041 0dab 1A       		.uleb128 0x1a
 4042 0dac D1020000 		.4byte	0x2d1
 4043 0db0 1A       		.uleb128 0x1a
 4044 0db1 28000000 		.4byte	0x28
 4045 0db5 1A       		.uleb128 0x1a
 4046 0db6 28000000 		.4byte	0x28
 4047 0dba 00       		.byte	0
 4048 0dbb 09       		.uleb128 0x9
 4049 0dbc 04       		.byte	0x4
 4050 0dbd 920D0000 		.4byte	0xd92
 4051 0dc1 09       		.uleb128 0x9
 4052 0dc2 04       		.byte	0x4
 4053 0dc3 9D0D0000 		.4byte	0xd9d
 4054 0dc7 19       		.uleb128 0x19
 4055 0dc8 D20D0000 		.4byte	0xdd2
 4056 0dcc 1A       		.uleb128 0x1a
 4057 0dcd BB0D0000 		.4byte	0xdbb
 4058 0dd1 00       		.byte	0
 4059 0dd2 09       		.uleb128 0x9
 4060 0dd3 04       		.byte	0x4
 4061 0dd4 C70D0000 		.4byte	0xdc7
 4062 0dd8 04       		.uleb128 0x4
 4063 0dd9 D60A0000 		.4byte	.LASF189
 4064 0ddd 15       		.byte	0x15
 4065 0dde 4C       		.byte	0x4c
 4066 0ddf 320D0000 		.4byte	0xd32
 4067 0de3 0B       		.uleb128 0xb
 4068 0de4 3A080000 		.4byte	.LASF195
 4069 0de8 0A       		.byte	0xa
 4070 0de9 13       		.byte	0x13
 4071 0dea 4001     		.2byte	0x140
 4072 0dec 3F0E0000 		.4byte	0xe3f
 4073 0df0 14       		.uleb128 0x14
 4074 0df1 D4080000 		.4byte	.LASF196
ARM GAS  /tmp/cczWCdZx.s 			page 73


 4075 0df5 13       		.byte	0x13
 4076 0df6 4101     		.2byte	0x141
 4077 0df8 8C0B0000 		.4byte	0xb8c
 4078 0dfc 00       		.byte	0
 4079 0dfd 14       		.uleb128 0x14
 4080 0dfe 85000000 		.4byte	.LASF197
 4081 0e02 13       		.byte	0x13
 4082 0e03 4201     		.2byte	0x142
 4083 0e05 8C0B0000 		.4byte	0xb8c
 4084 0e09 02       		.byte	0x2
 4085 0e0a 14       		.uleb128 0x14
 4086 0e0b 97020000 		.4byte	.LASF198
 4087 0e0f 13       		.byte	0x13
 4088 0e10 4301     		.2byte	0x143
 4089 0e12 E80B0000 		.4byte	0xbe8
 4090 0e16 04       		.byte	0x4
 4091 0e17 14       		.uleb128 0x14
 4092 0e18 64000000 		.4byte	.LASF199
 4093 0e1c 13       		.byte	0x13
 4094 0e1d 4401     		.2byte	0x144
 4095 0e1f 180C0000 		.4byte	0xc18
 4096 0e23 06       		.byte	0x6
 4097 0e24 14       		.uleb128 0x14
 4098 0e25 BD090000 		.4byte	.LASF200
 4099 0e29 13       		.byte	0x13
 4100 0e2a 4501     		.2byte	0x145
 4101 0e2c A9000000 		.4byte	0xa9
 4102 0e30 07       		.byte	0x7
 4103 0e31 14       		.uleb128 0x14
 4104 0e32 62050000 		.4byte	.LASF201
 4105 0e36 13       		.byte	0x13
 4106 0e37 4601     		.2byte	0x146
 4107 0e39 A9000000 		.4byte	0xa9
 4108 0e3d 08       		.byte	0x8
 4109 0e3e 00       		.byte	0
 4110 0e3f 13       		.uleb128 0x13
 4111 0e40 18       		.byte	0x18
 4112 0e41 13       		.byte	0x13
 4113 0e42 5F01     		.2byte	0x15f
 4114 0e44 C10E0000 		.4byte	0xec1
 4115 0e48 0C       		.uleb128 0xc
 4116 0e49 7800     		.ascii	"x\000"
 4117 0e4b 13       		.byte	0x13
 4118 0e4c 6001     		.2byte	0x160
 4119 0e4e 8C0B0000 		.4byte	0xb8c
 4120 0e52 00       		.byte	0
 4121 0e53 0C       		.uleb128 0xc
 4122 0e54 7900     		.ascii	"y\000"
 4123 0e56 13       		.byte	0x13
 4124 0e57 6001     		.2byte	0x160
 4125 0e59 8C0B0000 		.4byte	0xb8c
 4126 0e5d 02       		.byte	0x2
 4127 0e5e 0C       		.uleb128 0xc
 4128 0e5f 637800   		.ascii	"cx\000"
 4129 0e62 13       		.byte	0x13
 4130 0e63 6101     		.2byte	0x161
 4131 0e65 8C0B0000 		.4byte	0xb8c
ARM GAS  /tmp/cczWCdZx.s 			page 74


 4132 0e69 04       		.byte	0x4
 4133 0e6a 0C       		.uleb128 0xc
 4134 0e6b 637900   		.ascii	"cy\000"
 4135 0e6e 13       		.byte	0x13
 4136 0e6f 6101     		.2byte	0x161
 4137 0e71 8C0B0000 		.4byte	0xb8c
 4138 0e75 06       		.byte	0x6
 4139 0e76 0C       		.uleb128 0xc
 4140 0e77 783100   		.ascii	"x1\000"
 4141 0e7a 13       		.byte	0x13
 4142 0e7b 6201     		.2byte	0x162
 4143 0e7d 8C0B0000 		.4byte	0xb8c
 4144 0e81 08       		.byte	0x8
 4145 0e82 0C       		.uleb128 0xc
 4146 0e83 793100   		.ascii	"y1\000"
 4147 0e86 13       		.byte	0x13
 4148 0e87 6201     		.2byte	0x162
 4149 0e89 8C0B0000 		.4byte	0xb8c
 4150 0e8d 0A       		.byte	0xa
 4151 0e8e 0C       		.uleb128 0xc
 4152 0e8f 783200   		.ascii	"x2\000"
 4153 0e92 13       		.byte	0x13
 4154 0e93 6301     		.2byte	0x163
 4155 0e95 8C0B0000 		.4byte	0xb8c
 4156 0e99 0C       		.byte	0xc
 4157 0e9a 0C       		.uleb128 0xc
 4158 0e9b 793200   		.ascii	"y2\000"
 4159 0e9e 13       		.byte	0x13
 4160 0e9f 6301     		.2byte	0x163
 4161 0ea1 8C0B0000 		.4byte	0xb8c
 4162 0ea5 0E       		.byte	0xe
 4163 0ea6 14       		.uleb128 0x14
 4164 0ea7 BD080000 		.4byte	.LASF202
 4165 0eab 13       		.byte	0x13
 4166 0eac 6401     		.2byte	0x164
 4167 0eae EA0C0000 		.4byte	0xcea
 4168 0eb2 10       		.byte	0x10
 4169 0eb3 0C       		.uleb128 0xc
 4170 0eb4 70747200 		.ascii	"ptr\000"
 4171 0eb8 13       		.byte	0x13
 4172 0eb9 6501     		.2byte	0x165
 4173 0ebb D1020000 		.4byte	0x2d1
 4174 0ebf 14       		.byte	0x14
 4175 0ec0 00       		.byte	0
 4176 0ec1 13       		.uleb128 0x13
 4177 0ec2 10       		.byte	0x10
 4178 0ec3 13       		.byte	0x13
 4179 0ec4 6C01     		.2byte	0x16c
 4180 0ec6 260F0000 		.4byte	0xf26
 4181 0eca 14       		.uleb128 0x14
 4182 0ecb 97070000 		.4byte	.LASF203
 4183 0ecf 13       		.byte	0x13
 4184 0ed0 6D01     		.2byte	0x16d
 4185 0ed2 970B0000 		.4byte	0xb97
 4186 0ed6 00       		.byte	0
 4187 0ed7 14       		.uleb128 0x14
 4188 0ed8 BD080000 		.4byte	.LASF202
ARM GAS  /tmp/cczWCdZx.s 			page 75


 4189 0edc 13       		.byte	0x13
 4190 0edd 6E01     		.2byte	0x16e
 4191 0edf EA0C0000 		.4byte	0xcea
 4192 0ee3 04       		.byte	0x4
 4193 0ee4 14       		.uleb128 0x14
 4194 0ee5 E9060000 		.4byte	.LASF204
 4195 0ee9 13       		.byte	0x13
 4196 0eea 6F01     		.2byte	0x16f
 4197 0eec EA0C0000 		.4byte	0xcea
 4198 0ef0 06       		.byte	0x6
 4199 0ef1 14       		.uleb128 0x14
 4200 0ef2 0B060000 		.4byte	.LASF181
 4201 0ef6 13       		.byte	0x13
 4202 0ef7 7001     		.2byte	0x170
 4203 0ef9 8C0B0000 		.4byte	0xb8c
 4204 0efd 08       		.byte	0x8
 4205 0efe 14       		.uleb128 0x14
 4206 0eff FB040000 		.4byte	.LASF182
 4207 0f03 13       		.byte	0x13
 4208 0f04 7001     		.2byte	0x170
 4209 0f06 8C0B0000 		.4byte	0xb8c
 4210 0f0a 0A       		.byte	0xa
 4211 0f0b 14       		.uleb128 0x14
 4212 0f0c 12060000 		.4byte	.LASF183
 4213 0f10 13       		.byte	0x13
 4214 0f11 7101     		.2byte	0x171
 4215 0f13 8C0B0000 		.4byte	0xb8c
 4216 0f17 0C       		.byte	0xc
 4217 0f18 14       		.uleb128 0x14
 4218 0f19 75060000 		.4byte	.LASF184
 4219 0f1d 13       		.byte	0x13
 4220 0f1e 7101     		.2byte	0x171
 4221 0f20 8C0B0000 		.4byte	0xb8c
 4222 0f24 0E       		.byte	0xe
 4223 0f25 00       		.byte	0
 4224 0f26 0B       		.uleb128 0xb
 4225 0f27 F9000000 		.4byte	.LASF205
 4226 0f2b 60       		.byte	0x60
 4227 0f2c 13       		.byte	0x13
 4228 0f2d 7A01     		.2byte	0x17a
 4229 0f2f 36100000 		.4byte	0x1036
 4230 0f33 0C       		.uleb128 0xc
 4231 0f34 6400     		.ascii	"d\000"
 4232 0f36 13       		.byte	0x13
 4233 0f37 7B01     		.2byte	0x17b
 4234 0f39 D80D0000 		.4byte	0xdd8
 4235 0f3d 00       		.byte	0
 4236 0f3e 14       		.uleb128 0x14
 4237 0f3f DA080000 		.4byte	.LASF192
 4238 0f43 13       		.byte	0x13
 4239 0f44 7E01     		.2byte	0x17e
 4240 0f46 45100000 		.4byte	0x1045
 4241 0f4a 14       		.byte	0x14
 4242 0f4b 14       		.uleb128 0x14
 4243 0f4c 79040000 		.4byte	.LASF194
 4244 0f50 13       		.byte	0x13
 4245 0f51 7F01     		.2byte	0x17f
ARM GAS  /tmp/cczWCdZx.s 			page 76


 4246 0f53 56100000 		.4byte	0x1056
 4247 0f57 18       		.byte	0x18
 4248 0f58 14       		.uleb128 0x14
 4249 0f59 040A0000 		.4byte	.LASF206
 4250 0f5d 13       		.byte	0x13
 4251 0f5e 8001     		.2byte	0x180
 4252 0f60 56100000 		.4byte	0x1056
 4253 0f64 1C       		.byte	0x1c
 4254 0f65 14       		.uleb128 0x14
 4255 0f66 C5020000 		.4byte	.LASF207
 4256 0f6a 13       		.byte	0x13
 4257 0f6b 8101     		.2byte	0x181
 4258 0f6d 56100000 		.4byte	0x1056
 4259 0f71 20       		.byte	0x20
 4260 0f72 14       		.uleb128 0x14
 4261 0f73 E10A0000 		.4byte	.LASF208
 4262 0f77 13       		.byte	0x13
 4263 0f78 8201     		.2byte	0x182
 4264 0f7a 56100000 		.4byte	0x1056
 4265 0f7e 24       		.byte	0x24
 4266 0f7f 14       		.uleb128 0x14
 4267 0f80 95090000 		.4byte	.LASF209
 4268 0f84 13       		.byte	0x13
 4269 0f85 8301     		.2byte	0x183
 4270 0f87 56100000 		.4byte	0x1056
 4271 0f8b 28       		.byte	0x28
 4272 0f8c 14       		.uleb128 0x14
 4273 0f8d 82060000 		.4byte	.LASF210
 4274 0f91 13       		.byte	0x13
 4275 0f92 8401     		.2byte	0x184
 4276 0f94 56100000 		.4byte	0x1056
 4277 0f98 2C       		.byte	0x2c
 4278 0f99 14       		.uleb128 0x14
 4279 0f9a 5E060000 		.4byte	.LASF211
 4280 0f9e 13       		.byte	0x13
 4281 0f9f 8501     		.2byte	0x185
 4282 0fa1 6B100000 		.4byte	0x106b
 4283 0fa5 30       		.byte	0x30
 4284 0fa6 14       		.uleb128 0x14
 4285 0fa7 5B090000 		.4byte	.LASF212
 4286 0fab 13       		.byte	0x13
 4287 0fac 8601     		.2byte	0x186
 4288 0fae 56100000 		.4byte	0x1056
 4289 0fb2 34       		.byte	0x34
 4290 0fb3 14       		.uleb128 0x14
 4291 0fb4 48090000 		.4byte	.LASF213
 4292 0fb8 13       		.byte	0x13
 4293 0fb9 8701     		.2byte	0x187
 4294 0fbb 56100000 		.4byte	0x1056
 4295 0fbf 38       		.byte	0x38
 4296 0fc0 14       		.uleb128 0x14
 4297 0fc1 F0040000 		.4byte	.LASF111
 4298 0fc5 13       		.byte	0x13
 4299 0fc6 8801     		.2byte	0x188
 4300 0fc8 56100000 		.4byte	0x1056
 4301 0fcc 3C       		.byte	0x3c
 4302 0fcd 14       		.uleb128 0x14
ARM GAS  /tmp/cczWCdZx.s 			page 77


 4303 0fce 92040000 		.4byte	.LASF214
 4304 0fd2 13       		.byte	0x13
 4305 0fd3 8901     		.2byte	0x189
 4306 0fd5 56100000 		.4byte	0x1056
 4307 0fd9 40       		.byte	0x40
 4308 0fda 14       		.uleb128 0x14
 4309 0fdb B8090000 		.4byte	.LASF215
 4310 0fdf 13       		.byte	0x13
 4311 0fe0 8A01     		.2byte	0x18a
 4312 0fe2 56100000 		.4byte	0x1056
 4313 0fe6 44       		.byte	0x44
 4314 0fe7 0C       		.uleb128 0xc
 4315 0fe8 67657400 		.ascii	"get\000"
 4316 0fec 13       		.byte	0x13
 4317 0fed 8B01     		.2byte	0x18b
 4318 0fef 6B100000 		.4byte	0x106b
 4319 0ff3 48       		.byte	0x48
 4320 0ff4 14       		.uleb128 0x14
 4321 0ff5 1D070000 		.4byte	.LASF216
 4322 0ff9 13       		.byte	0x13
 4323 0ffa 8C01     		.2byte	0x18c
 4324 0ffc 56100000 		.4byte	0x1056
 4325 1000 4C       		.byte	0x4c
 4326 1001 14       		.uleb128 0x14
 4327 1002 99060000 		.4byte	.LASF217
 4328 1006 13       		.byte	0x13
 4329 1007 8D01     		.2byte	0x18d
 4330 1009 56100000 		.4byte	0x1056
 4331 100d 50       		.byte	0x50
 4332 100e 14       		.uleb128 0x14
 4333 100f B7070000 		.4byte	.LASF218
 4334 1013 13       		.byte	0x13
 4335 1014 8E01     		.2byte	0x18e
 4336 1016 80100000 		.4byte	0x1080
 4337 101a 54       		.byte	0x54
 4338 101b 14       		.uleb128 0x14
 4339 101c 75070000 		.4byte	.LASF219
 4340 1020 13       		.byte	0x13
 4341 1021 8F01     		.2byte	0x18f
 4342 1023 56100000 		.4byte	0x1056
 4343 1027 58       		.byte	0x58
 4344 1028 14       		.uleb128 0x14
 4345 1029 75010000 		.4byte	.LASF220
 4346 102d 13       		.byte	0x13
 4347 102e 9001     		.2byte	0x190
 4348 1030 56100000 		.4byte	0x1056
 4349 1034 5C       		.byte	0x5c
 4350 1035 00       		.byte	0
 4351 1036 1D       		.uleb128 0x1d
 4352 1037 F6000000 		.4byte	0xf6
 4353 103b 45100000 		.4byte	0x1045
 4354 103f 1A       		.uleb128 0x1a
 4355 1040 010D0000 		.4byte	0xd01
 4356 1044 00       		.byte	0
 4357 1045 09       		.uleb128 0x9
 4358 1046 04       		.byte	0x4
 4359 1047 36100000 		.4byte	0x1036
ARM GAS  /tmp/cczWCdZx.s 			page 78


 4360 104b 19       		.uleb128 0x19
 4361 104c 56100000 		.4byte	0x1056
 4362 1050 1A       		.uleb128 0x1a
 4363 1051 010D0000 		.4byte	0xd01
 4364 1055 00       		.byte	0
 4365 1056 09       		.uleb128 0x9
 4366 1057 04       		.byte	0x4
 4367 1058 4B100000 		.4byte	0x104b
 4368 105c 1D       		.uleb128 0x1d
 4369 105d EA0C0000 		.4byte	0xcea
 4370 1061 6B100000 		.4byte	0x106b
 4371 1065 1A       		.uleb128 0x1a
 4372 1066 010D0000 		.4byte	0xd01
 4373 106a 00       		.byte	0
 4374 106b 09       		.uleb128 0x9
 4375 106c 04       		.byte	0x4
 4376 106d 5C100000 		.4byte	0x105c
 4377 1071 1D       		.uleb128 0x1d
 4378 1072 D1020000 		.4byte	0x2d1
 4379 1076 80100000 		.4byte	0x1080
 4380 107a 1A       		.uleb128 0x1a
 4381 107b 010D0000 		.4byte	0xd01
 4382 107f 00       		.byte	0
 4383 1080 09       		.uleb128 0x9
 4384 1081 04       		.byte	0x4
 4385 1082 71100000 		.4byte	0x1071
 4386 1086 15       		.uleb128 0x15
 4387 1087 F9000000 		.4byte	.LASF205
 4388 108b 13       		.byte	0x13
 4389 108c 9101     		.2byte	0x191
 4390 108e 260F0000 		.4byte	0xf26
 4391 1092 1E       		.uleb128 0x1e
 4392 1093 690A0000 		.4byte	.LASF223
 4393 1097 01       		.byte	0x1
 4394 1098 29       		.byte	0x29
 4395 1099 00000000 		.4byte	.LFB111
 4396 109d D8000000 		.4byte	.LFE111-.LFB111
 4397 10a1 01       		.uleb128 0x1
 4398 10a2 9C       		.byte	0x9c
 4399 10a3 DA100000 		.4byte	0x10da
 4400 10a7 1F       		.uleb128 0x1f
 4401 10a8 6700     		.ascii	"g\000"
 4402 10aa 01       		.byte	0x1
 4403 10ab 29       		.byte	0x29
 4404 10ac 010D0000 		.4byte	0xd01
 4405 10b0 02       		.uleb128 0x2
 4406 10b1 91       		.byte	0x91
 4407 10b2 5C       		.sleb128 -36
 4408 10b3 20       		.uleb128 0x20
 4409 10b4 14000000 		.4byte	.LBB2
 4410 10b8 96000000 		.4byte	.LBE2-.LBB2
 4411 10bc 21       		.uleb128 0x21
 4412 10bd C20A0000 		.4byte	.LASF221
 4413 10c1 01       		.byte	0x1
 4414 10c2 4F       		.byte	0x4f
 4415 10c3 DD080000 		.4byte	0x8dd
 4416 10c7 02       		.uleb128 0x2
ARM GAS  /tmp/cczWCdZx.s 			page 79


 4417 10c8 91       		.byte	0x91
 4418 10c9 6C       		.sleb128 -20
 4419 10ca 21       		.uleb128 0x21
 4420 10cb C70A0000 		.4byte	.LASF222
 4421 10cf 01       		.byte	0x1
 4422 10d0 52       		.byte	0x52
 4423 10d1 DD080000 		.4byte	0x8dd
 4424 10d5 02       		.uleb128 0x2
 4425 10d6 91       		.byte	0x91
 4426 10d7 60       		.sleb128 -32
 4427 10d8 00       		.byte	0
 4428 10d9 00       		.byte	0
 4429 10da 22       		.uleb128 0x22
 4430 10db A6080000 		.4byte	.LASF224
 4431 10df 01       		.byte	0x1
 4432 10e0 68       		.byte	0x68
 4433 10e1 00000000 		.4byte	.LFB112
 4434 10e5 08000000 		.4byte	.LFE112-.LFB112
 4435 10e9 01       		.uleb128 0x1
 4436 10ea 9C       		.byte	0x9c
 4437 10eb FC100000 		.4byte	0x10fc
 4438 10ef 1F       		.uleb128 0x1f
 4439 10f0 6700     		.ascii	"g\000"
 4440 10f2 01       		.byte	0x1
 4441 10f3 68       		.byte	0x68
 4442 10f4 010D0000 		.4byte	0xd01
 4443 10f8 02       		.uleb128 0x2
 4444 10f9 91       		.byte	0x91
 4445 10fa 7C       		.sleb128 -4
 4446 10fb 00       		.byte	0
 4447 10fc 22       		.uleb128 0x22
 4448 10fd 9A0A0000 		.4byte	.LASF225
 4449 1101 01       		.byte	0x1
 4450 1102 6C       		.byte	0x6c
 4451 1103 00000000 		.4byte	.LFB113
 4452 1107 0E000000 		.4byte	.LFE113-.LFB113
 4453 110b 01       		.uleb128 0x1
 4454 110c 9C       		.byte	0x9c
 4455 110d 2C110000 		.4byte	0x112c
 4456 1111 1F       		.uleb128 0x1f
 4457 1112 6700     		.ascii	"g\000"
 4458 1114 01       		.byte	0x1
 4459 1115 6C       		.byte	0x6c
 4460 1116 010D0000 		.4byte	0xd01
 4461 111a 02       		.uleb128 0x2
 4462 111b 91       		.byte	0x91
 4463 111c 7C       		.sleb128 -4
 4464 111d 23       		.uleb128 0x23
 4465 111e 93000000 		.4byte	.LASF143
 4466 1122 01       		.byte	0x1
 4467 1123 6C       		.byte	0x6c
 4468 1124 F6000000 		.4byte	0xf6
 4469 1128 02       		.uleb128 0x2
 4470 1129 91       		.byte	0x91
 4471 112a 7B       		.sleb128 -5
 4472 112b 00       		.byte	0
 4473 112c 1E       		.uleb128 0x1e
ARM GAS  /tmp/cczWCdZx.s 			page 80


 4474 112d D1040000 		.4byte	.LASF226
 4475 1131 01       		.byte	0x1
 4476 1132 71       		.byte	0x71
 4477 1133 00000000 		.4byte	.LFB114
 4478 1137 28000000 		.4byte	.LFE114-.LFB114
 4479 113b 01       		.uleb128 0x1
 4480 113c 9C       		.byte	0x9c
 4481 113d 5C110000 		.4byte	0x115c
 4482 1141 1F       		.uleb128 0x1f
 4483 1142 6700     		.ascii	"g\000"
 4484 1144 01       		.byte	0x1
 4485 1145 71       		.byte	0x71
 4486 1146 010D0000 		.4byte	0xd01
 4487 114a 02       		.uleb128 0x2
 4488 114b 91       		.byte	0x91
 4489 114c 74       		.sleb128 -12
 4490 114d 23       		.uleb128 0x23
 4491 114e 68060000 		.4byte	.LASF227
 4492 1152 01       		.byte	0x1
 4493 1153 71       		.byte	0x71
 4494 1154 A9000000 		.4byte	0xa9
 4495 1158 02       		.uleb128 0x2
 4496 1159 91       		.byte	0x91
 4497 115a 73       		.sleb128 -13
 4498 115b 00       		.byte	0
 4499 115c 22       		.uleb128 0x22
 4500 115d D8010000 		.4byte	.LASF228
 4501 1161 01       		.byte	0x1
 4502 1162 76       		.byte	0x76
 4503 1163 00000000 		.4byte	.LFB115
 4504 1167 08000000 		.4byte	.LFE115-.LFB115
 4505 116b 01       		.uleb128 0x1
 4506 116c 9C       		.byte	0x9c
 4507 116d 7E110000 		.4byte	0x117e
 4508 1171 1F       		.uleb128 0x1f
 4509 1172 6700     		.ascii	"g\000"
 4510 1174 01       		.byte	0x1
 4511 1175 76       		.byte	0x76
 4512 1176 010D0000 		.4byte	0xd01
 4513 117a 02       		.uleb128 0x2
 4514 117b 91       		.byte	0x91
 4515 117c 7C       		.sleb128 -4
 4516 117d 00       		.byte	0
 4517 117e 22       		.uleb128 0x22
 4518 117f 02050000 		.4byte	.LASF229
 4519 1183 01       		.byte	0x1
 4520 1184 7A       		.byte	0x7a
 4521 1185 00000000 		.4byte	.LFB116
 4522 1189 08000000 		.4byte	.LFE116-.LFB116
 4523 118d 01       		.uleb128 0x1
 4524 118e 9C       		.byte	0x9c
 4525 118f A0110000 		.4byte	0x11a0
 4526 1193 1F       		.uleb128 0x1f
 4527 1194 6700     		.ascii	"g\000"
 4528 1196 01       		.byte	0x1
 4529 1197 7A       		.byte	0x7a
 4530 1198 010D0000 		.4byte	0xd01
ARM GAS  /tmp/cczWCdZx.s 			page 81


 4531 119c 02       		.uleb128 0x2
 4532 119d 91       		.byte	0x91
 4533 119e 7C       		.sleb128 -4
 4534 119f 00       		.byte	0
 4535 11a0 22       		.uleb128 0x22
 4536 11a1 A3020000 		.4byte	.LASF230
 4537 11a5 01       		.byte	0x1
 4538 11a6 7E       		.byte	0x7e
 4539 11a7 00000000 		.4byte	.LFB117
 4540 11ab 18000000 		.4byte	.LFE117-.LFB117
 4541 11af 01       		.uleb128 0x1
 4542 11b0 9C       		.byte	0x9c
 4543 11b1 D0110000 		.4byte	0x11d0
 4544 11b5 1F       		.uleb128 0x1f
 4545 11b6 6700     		.ascii	"g\000"
 4546 11b8 01       		.byte	0x1
 4547 11b9 7E       		.byte	0x7e
 4548 11ba 010D0000 		.4byte	0xd01
 4549 11be 02       		.uleb128 0x2
 4550 11bf 91       		.byte	0x91
 4551 11c0 7C       		.sleb128 -4
 4552 11c1 23       		.uleb128 0x23
 4553 11c2 0E050000 		.4byte	.LASF231
 4554 11c6 01       		.byte	0x1
 4555 11c7 7E       		.byte	0x7e
 4556 11c8 BF000000 		.4byte	0xbf
 4557 11cc 02       		.uleb128 0x2
 4558 11cd 91       		.byte	0x91
 4559 11ce 7A       		.sleb128 -6
 4560 11cf 00       		.byte	0
 4561 11d0 22       		.uleb128 0x22
 4562 11d1 EC0A0000 		.4byte	.LASF232
 4563 11d5 01       		.byte	0x1
 4564 11d6 83       		.byte	0x83
 4565 11d7 00000000 		.4byte	.LFB118
 4566 11db 1C000000 		.4byte	.LFE118-.LFB118
 4567 11df 01       		.uleb128 0x1
 4568 11e0 9C       		.byte	0x9c
 4569 11e1 00120000 		.4byte	0x1200
 4570 11e5 1F       		.uleb128 0x1f
 4571 11e6 6700     		.ascii	"g\000"
 4572 11e8 01       		.byte	0x1
 4573 11e9 83       		.byte	0x83
 4574 11ea 010D0000 		.4byte	0xd01
 4575 11ee 02       		.uleb128 0x2
 4576 11ef 91       		.byte	0x91
 4577 11f0 7C       		.sleb128 -4
 4578 11f1 23       		.uleb128 0x23
 4579 11f2 2D0B0000 		.4byte	.LASF233
 4580 11f6 01       		.byte	0x1
 4581 11f7 83       		.byte	0x83
 4582 11f8 BF000000 		.4byte	0xbf
 4583 11fc 02       		.uleb128 0x2
 4584 11fd 91       		.byte	0x91
 4585 11fe 7A       		.sleb128 -6
 4586 11ff 00       		.byte	0
 4587 1200 22       		.uleb128 0x22
ARM GAS  /tmp/cczWCdZx.s 			page 82


 4588 1201 49060000 		.4byte	.LASF234
 4589 1205 01       		.byte	0x1
 4590 1206 88       		.byte	0x88
 4591 1207 00000000 		.4byte	.LFB119
 4592 120b 14000000 		.4byte	.LFE119-.LFB119
 4593 120f 01       		.uleb128 0x1
 4594 1210 9C       		.byte	0x9c
 4595 1211 22120000 		.4byte	0x1222
 4596 1215 1F       		.uleb128 0x1f
 4597 1216 6700     		.ascii	"g\000"
 4598 1218 01       		.byte	0x1
 4599 1219 88       		.byte	0x88
 4600 121a 010D0000 		.4byte	0xd01
 4601 121e 02       		.uleb128 0x2
 4602 121f 91       		.byte	0x91
 4603 1220 7C       		.sleb128 -4
 4604 1221 00       		.byte	0
 4605 1222 22       		.uleb128 0x22
 4606 1223 FC070000 		.4byte	.LASF235
 4607 1227 01       		.byte	0x1
 4608 1228 8D       		.byte	0x8d
 4609 1229 00000000 		.4byte	.LFB120
 4610 122d 14000000 		.4byte	.LFE120-.LFB120
 4611 1231 01       		.uleb128 0x1
 4612 1232 9C       		.byte	0x9c
 4613 1233 44120000 		.4byte	0x1244
 4614 1237 1F       		.uleb128 0x1f
 4615 1238 6700     		.ascii	"g\000"
 4616 123a 01       		.byte	0x1
 4617 123b 8D       		.byte	0x8d
 4618 123c 010D0000 		.4byte	0xd01
 4619 1240 02       		.uleb128 0x2
 4620 1241 91       		.byte	0x91
 4621 1242 7C       		.sleb128 -4
 4622 1243 00       		.byte	0
 4623 1244 24       		.uleb128 0x24
 4624 1245 6B070000 		.4byte	.LASF263
 4625 1249 01       		.byte	0x1
 4626 124a 92       		.byte	0x92
 4627 124b BF000000 		.4byte	0xbf
 4628 124f 00000000 		.4byte	.LFB121
 4629 1253 14000000 		.4byte	.LFE121-.LFB121
 4630 1257 01       		.uleb128 0x1
 4631 1258 9C       		.byte	0x9c
 4632 1259 6A120000 		.4byte	0x126a
 4633 125d 1F       		.uleb128 0x1f
 4634 125e 6700     		.ascii	"g\000"
 4635 1260 01       		.byte	0x1
 4636 1261 92       		.byte	0x92
 4637 1262 010D0000 		.4byte	0xd01
 4638 1266 02       		.uleb128 0x2
 4639 1267 91       		.byte	0x91
 4640 1268 7C       		.sleb128 -4
 4641 1269 00       		.byte	0
 4642 126a 22       		.uleb128 0x22
 4643 126b 88050000 		.4byte	.LASF236
 4644 126f 01       		.byte	0x1
ARM GAS  /tmp/cczWCdZx.s 			page 83


 4645 1270 98       		.byte	0x98
 4646 1271 00000000 		.4byte	.LFB122
 4647 1275 A8000000 		.4byte	.LFE122-.LFB122
 4648 1279 01       		.uleb128 0x1
 4649 127a 9C       		.byte	0x9c
 4650 127b A8120000 		.4byte	0x12a8
 4651 127f 1F       		.uleb128 0x1f
 4652 1280 6700     		.ascii	"g\000"
 4653 1282 01       		.byte	0x1
 4654 1283 98       		.byte	0x98
 4655 1284 010D0000 		.4byte	0xd01
 4656 1288 02       		.uleb128 0x2
 4657 1289 91       		.byte	0x91
 4658 128a 7C       		.sleb128 -4
 4659 128b 23       		.uleb128 0x23
 4660 128c B2040000 		.4byte	.LASF237
 4661 1290 01       		.byte	0x1
 4662 1291 98       		.byte	0x98
 4663 1292 A8120000 		.4byte	0x12a8
 4664 1296 02       		.uleb128 0x2
 4665 1297 91       		.byte	0x91
 4666 1298 78       		.sleb128 -8
 4667 1299 23       		.uleb128 0x23
 4668 129a 14050000 		.4byte	.LASF238
 4669 129e 01       		.byte	0x1
 4670 129f 98       		.byte	0x98
 4671 12a0 21000000 		.4byte	0x21
 4672 12a4 02       		.uleb128 0x2
 4673 12a5 91       		.byte	0x91
 4674 12a6 74       		.sleb128 -12
 4675 12a7 00       		.byte	0
 4676 12a8 09       		.uleb128 0x9
 4677 12a9 04       		.byte	0x4
 4678 12aa EA0C0000 		.4byte	0xcea
 4679 12ae 22       		.uleb128 0x22
 4680 12af C1010000 		.4byte	.LASF239
 4681 12b3 01       		.byte	0x1
 4682 12b4 A3       		.byte	0xa3
 4683 12b5 00000000 		.4byte	.LFB123
 4684 12b9 A8000000 		.4byte	.LFE123-.LFB123
 4685 12bd 01       		.uleb128 0x1
 4686 12be 9C       		.byte	0x9c
 4687 12bf EC120000 		.4byte	0x12ec
 4688 12c3 1F       		.uleb128 0x1f
 4689 12c4 6700     		.ascii	"g\000"
 4690 12c6 01       		.byte	0x1
 4691 12c7 A3       		.byte	0xa3
 4692 12c8 010D0000 		.4byte	0xd01
 4693 12cc 02       		.uleb128 0x2
 4694 12cd 91       		.byte	0x91
 4695 12ce 7C       		.sleb128 -4
 4696 12cf 23       		.uleb128 0x23
 4697 12d0 B2040000 		.4byte	.LASF237
 4698 12d4 01       		.byte	0x1
 4699 12d5 A3       		.byte	0xa3
 4700 12d6 A8120000 		.4byte	0x12a8
 4701 12da 02       		.uleb128 0x2
ARM GAS  /tmp/cczWCdZx.s 			page 84


 4702 12db 91       		.byte	0x91
 4703 12dc 78       		.sleb128 -8
 4704 12dd 23       		.uleb128 0x23
 4705 12de 14050000 		.4byte	.LASF238
 4706 12e2 01       		.byte	0x1
 4707 12e3 A3       		.byte	0xa3
 4708 12e4 21000000 		.4byte	0x21
 4709 12e8 02       		.uleb128 0x2
 4710 12e9 91       		.byte	0x91
 4711 12ea 74       		.sleb128 -12
 4712 12eb 00       		.byte	0
 4713 12ec 1E       		.uleb128 0x1e
 4714 12ed E0070000 		.4byte	.LASF240
 4715 12f1 02       		.byte	0x2
 4716 12f2 31       		.byte	0x31
 4717 12f3 00000000 		.4byte	.LFB124
 4718 12f7 22010000 		.4byte	.LFE124-.LFB124
 4719 12fb 01       		.uleb128 0x1
 4720 12fc 9C       		.byte	0x9c
 4721 12fd 0E130000 		.4byte	0x130e
 4722 1301 1F       		.uleb128 0x1f
 4723 1302 6700     		.ascii	"g\000"
 4724 1304 02       		.byte	0x2
 4725 1305 31       		.byte	0x31
 4726 1306 010D0000 		.4byte	0xd01
 4727 130a 02       		.uleb128 0x2
 4728 130b 91       		.byte	0x91
 4729 130c 74       		.sleb128 -12
 4730 130d 00       		.byte	0
 4731 130e 1E       		.uleb128 0x1e
 4732 130f E0020000 		.4byte	.LASF241
 4733 1313 02       		.byte	0x2
 4734 1314 4D       		.byte	0x4d
 4735 1315 00000000 		.4byte	.LFB125
 4736 1319 3E020000 		.4byte	.LFE125-.LFB125
 4737 131d 01       		.uleb128 0x1
 4738 131e 9C       		.byte	0x9c
 4739 131f 30130000 		.4byte	0x1330
 4740 1323 1F       		.uleb128 0x1f
 4741 1324 6700     		.ascii	"g\000"
 4742 1326 02       		.byte	0x2
 4743 1327 4D       		.byte	0x4d
 4744 1328 010D0000 		.4byte	0xd01
 4745 132c 02       		.uleb128 0x2
 4746 132d 91       		.byte	0x91
 4747 132e 74       		.sleb128 -12
 4748 132f 00       		.byte	0
 4749 1330 25       		.uleb128 0x25
 4750 1331 76000000 		.4byte	.LASF248
 4751 1335 02       		.byte	0x2
 4752 1336 78       		.byte	0x78
 4753 1337 F6000000 		.4byte	0xf6
 4754 133b 00000000 		.4byte	.LFB126
 4755 133f 2A040000 		.4byte	.LFE126-.LFB126
 4756 1343 01       		.uleb128 0x1
 4757 1344 9C       		.byte	0x9c
 4758 1345 56130000 		.4byte	0x1356
ARM GAS  /tmp/cczWCdZx.s 			page 85


 4759 1349 1F       		.uleb128 0x1f
 4760 134a 6700     		.ascii	"g\000"
 4761 134c 02       		.byte	0x2
 4762 134d 78       		.byte	0x78
 4763 134e 010D0000 		.4byte	0xd01
 4764 1352 02       		.uleb128 0x2
 4765 1353 91       		.byte	0x91
 4766 1354 74       		.sleb128 -12
 4767 1355 00       		.byte	0
 4768 1356 26       		.uleb128 0x26
 4769 1357 EC010000 		.4byte	.LASF242
 4770 135b 02       		.byte	0x2
 4771 135c C6       		.byte	0xc6
 4772 135d 00000000 		.4byte	.LFB127
 4773 1361 18000000 		.4byte	.LFE127-.LFB127
 4774 1365 01       		.uleb128 0x1
 4775 1366 9C       		.byte	0x9c
 4776 1367 78130000 		.4byte	0x1378
 4777 136b 1F       		.uleb128 0x1f
 4778 136c 6700     		.ascii	"g\000"
 4779 136e 02       		.byte	0x2
 4780 136f C6       		.byte	0xc6
 4781 1370 010D0000 		.4byte	0xd01
 4782 1374 02       		.uleb128 0x2
 4783 1375 91       		.byte	0x91
 4784 1376 74       		.sleb128 -12
 4785 1377 00       		.byte	0
 4786 1378 26       		.uleb128 0x26
 4787 1379 A1070000 		.4byte	.LASF243
 4788 137d 02       		.byte	0x2
 4789 137e CD       		.byte	0xcd
 4790 137f 00000000 		.4byte	.LFB128
 4791 1383 1A000000 		.4byte	.LFE128-.LFB128
 4792 1387 01       		.uleb128 0x1
 4793 1388 9C       		.byte	0x9c
 4794 1389 9A130000 		.4byte	0x139a
 4795 138d 1F       		.uleb128 0x1f
 4796 138e 6700     		.ascii	"g\000"
 4797 1390 02       		.byte	0x2
 4798 1391 CD       		.byte	0xcd
 4799 1392 010D0000 		.4byte	0xd01
 4800 1396 02       		.uleb128 0x2
 4801 1397 91       		.byte	0x91
 4802 1398 74       		.sleb128 -12
 4803 1399 00       		.byte	0
 4804 139a 26       		.uleb128 0x26
 4805 139b 4D0A0000 		.4byte	.LASF244
 4806 139f 02       		.byte	0x2
 4807 13a0 D0       		.byte	0xd0
 4808 13a1 00000000 		.4byte	.LFB129
 4809 13a5 12000000 		.4byte	.LFE129-.LFB129
 4810 13a9 01       		.uleb128 0x1
 4811 13aa 9C       		.byte	0x9c
 4812 13ab BC130000 		.4byte	0x13bc
 4813 13af 1F       		.uleb128 0x1f
 4814 13b0 6700     		.ascii	"g\000"
 4815 13b2 02       		.byte	0x2
ARM GAS  /tmp/cczWCdZx.s 			page 86


 4816 13b3 D0       		.byte	0xd0
 4817 13b4 010D0000 		.4byte	0xd01
 4818 13b8 02       		.uleb128 0x2
 4819 13b9 91       		.byte	0x91
 4820 13ba 74       		.sleb128 -12
 4821 13bb 00       		.byte	0
 4822 13bc 26       		.uleb128 0x26
 4823 13bd F9060000 		.4byte	.LASF245
 4824 13c1 02       		.byte	0x2
 4825 13c2 D4       		.byte	0xd4
 4826 13c3 00000000 		.4byte	.LFB130
 4827 13c7 12000000 		.4byte	.LFE130-.LFB130
 4828 13cb 01       		.uleb128 0x1
 4829 13cc 9C       		.byte	0x9c
 4830 13cd DE130000 		.4byte	0x13de
 4831 13d1 1F       		.uleb128 0x1f
 4832 13d2 6700     		.ascii	"g\000"
 4833 13d4 02       		.byte	0x2
 4834 13d5 D4       		.byte	0xd4
 4835 13d6 010D0000 		.4byte	0xd01
 4836 13da 02       		.uleb128 0x2
 4837 13db 91       		.byte	0x91
 4838 13dc 74       		.sleb128 -12
 4839 13dd 00       		.byte	0
 4840 13de 26       		.uleb128 0x26
 4841 13df 99000000 		.4byte	.LASF246
 4842 13e3 02       		.byte	0x2
 4843 13e4 DB       		.byte	0xdb
 4844 13e5 00000000 		.4byte	.LFB131
 4845 13e9 34000000 		.4byte	.LFE131-.LFB131
 4846 13ed 01       		.uleb128 0x1
 4847 13ee 9C       		.byte	0x9c
 4848 13ef 18140000 		.4byte	0x1418
 4849 13f3 1F       		.uleb128 0x1f
 4850 13f4 6700     		.ascii	"g\000"
 4851 13f6 02       		.byte	0x2
 4852 13f7 DB       		.byte	0xdb
 4853 13f8 010D0000 		.4byte	0xd01
 4854 13fc 02       		.uleb128 0x2
 4855 13fd 91       		.byte	0x91
 4856 13fe 6C       		.sleb128 -20
 4857 13ff 20       		.uleb128 0x20
 4858 1400 1E000000 		.4byte	.LBB3
 4859 1404 10000000 		.4byte	.LBE3-.LBB3
 4860 1408 21       		.uleb128 0x21
 4861 1409 E7080000 		.4byte	.LASF247
 4862 140d 02       		.byte	0x2
 4863 140e E0       		.byte	0xe0
 4864 140f 21050000 		.4byte	0x521
 4865 1413 02       		.uleb128 0x2
 4866 1414 91       		.byte	0x91
 4867 1415 76       		.sleb128 -10
 4868 1416 00       		.byte	0
 4869 1417 00       		.byte	0
 4870 1418 25       		.uleb128 0x25
 4871 1419 60010000 		.4byte	.LASF249
 4872 141d 02       		.byte	0x2
ARM GAS  /tmp/cczWCdZx.s 			page 87


 4873 141e E2       		.byte	0xe2
 4874 141f EA0C0000 		.4byte	0xcea
 4875 1423 00000000 		.4byte	.LFB132
 4876 1427 1E000000 		.4byte	.LFE132-.LFB132
 4877 142b 01       		.uleb128 0x1
 4878 142c 9C       		.byte	0x9c
 4879 142d 4C140000 		.4byte	0x144c
 4880 1431 1F       		.uleb128 0x1f
 4881 1432 6700     		.ascii	"g\000"
 4882 1434 02       		.byte	0x2
 4883 1435 E2       		.byte	0xe2
 4884 1436 010D0000 		.4byte	0xd01
 4885 143a 02       		.uleb128 0x2
 4886 143b 91       		.byte	0x91
 4887 143c 6C       		.sleb128 -20
 4888 143d 21       		.uleb128 0x21
 4889 143e 2D0B0000 		.4byte	.LASF233
 4890 1442 02       		.byte	0x2
 4891 1443 E3       		.byte	0xe3
 4892 1444 BF000000 		.4byte	0xbf
 4893 1448 02       		.uleb128 0x2
 4894 1449 91       		.byte	0x91
 4895 144a 76       		.sleb128 -10
 4896 144b 00       		.byte	0
 4897 144c 26       		.uleb128 0x26
 4898 144d 35060000 		.4byte	.LASF250
 4899 1451 02       		.byte	0x2
 4900 1452 E8       		.byte	0xe8
 4901 1453 00000000 		.4byte	.LFB133
 4902 1457 18000000 		.4byte	.LFE133-.LFB133
 4903 145b 01       		.uleb128 0x1
 4904 145c 9C       		.byte	0x9c
 4905 145d 6E140000 		.4byte	0x146e
 4906 1461 1F       		.uleb128 0x1f
 4907 1462 6700     		.ascii	"g\000"
 4908 1464 02       		.byte	0x2
 4909 1465 E8       		.byte	0xe8
 4910 1466 010D0000 		.4byte	0xd01
 4911 146a 02       		.uleb128 0x2
 4912 146b 91       		.byte	0x91
 4913 146c 74       		.sleb128 -12
 4914 146d 00       		.byte	0
 4915 146e 26       		.uleb128 0x26
 4916 146f 23000000 		.4byte	.LASF251
 4917 1473 02       		.byte	0x2
 4918 1474 EF       		.byte	0xef
 4919 1475 00000000 		.4byte	.LFB134
 4920 1479 4C000000 		.4byte	.LFE134-.LFB134
 4921 147d 01       		.uleb128 0x1
 4922 147e 9C       		.byte	0x9c
 4923 147f 9C140000 		.4byte	0x149c
 4924 1483 1F       		.uleb128 0x1f
 4925 1484 6700     		.ascii	"g\000"
 4926 1486 02       		.byte	0x2
 4927 1487 EF       		.byte	0xef
 4928 1488 010D0000 		.4byte	0xd01
 4929 148c 02       		.uleb128 0x2
ARM GAS  /tmp/cczWCdZx.s 			page 88


 4930 148d 91       		.byte	0x91
 4931 148e 6C       		.sleb128 -20
 4932 148f 27       		.uleb128 0x27
 4933 1490 6300     		.ascii	"c\000"
 4934 1492 02       		.byte	0x2
 4935 1493 F3       		.byte	0xf3
 4936 1494 BF000000 		.4byte	0xbf
 4937 1498 02       		.uleb128 0x2
 4938 1499 91       		.byte	0x91
 4939 149a 76       		.sleb128 -10
 4940 149b 00       		.byte	0
 4941 149c 28       		.uleb128 0x28
 4942 149d 07090000 		.4byte	.LASF252
 4943 14a1 02       		.byte	0x2
 4944 14a2 0401     		.2byte	0x104
 4945 14a4 00000000 		.4byte	.LFB135
 4946 14a8 BA000000 		.4byte	.LFE135-.LFB135
 4947 14ac 01       		.uleb128 0x1
 4948 14ad 9C       		.byte	0x9c
 4949 14ae DE140000 		.4byte	0x14de
 4950 14b2 29       		.uleb128 0x29
 4951 14b3 6700     		.ascii	"g\000"
 4952 14b5 02       		.byte	0x2
 4953 14b6 0401     		.2byte	0x104
 4954 14b8 010D0000 		.4byte	0xd01
 4955 14bc 02       		.uleb128 0x2
 4956 14bd 91       		.byte	0x91
 4957 14be 6C       		.sleb128 -20
 4958 14bf 2A       		.uleb128 0x2a
 4959 14c0 B2040000 		.4byte	.LASF237
 4960 14c4 02       		.byte	0x2
 4961 14c5 0501     		.2byte	0x105
 4962 14c7 DE140000 		.4byte	0x14de
 4963 14cb 02       		.uleb128 0x2
 4964 14cc 91       		.byte	0x91
 4965 14cd 74       		.sleb128 -12
 4966 14ce 2A       		.uleb128 0x2a
 4967 14cf DF040000 		.4byte	.LASF253
 4968 14d3 02       		.byte	0x2
 4969 14d4 0601     		.2byte	0x106
 4970 14d6 8C0B0000 		.4byte	0xb8c
 4971 14da 02       		.uleb128 0x2
 4972 14db 91       		.byte	0x91
 4973 14dc 72       		.sleb128 -14
 4974 14dd 00       		.byte	0
 4975 14de 09       		.uleb128 0x9
 4976 14df 04       		.byte	0x4
 4977 14e0 F60C0000 		.4byte	0xcf6
 4978 14e4 28       		.uleb128 0x28
 4979 14e5 F5080000 		.4byte	.LASF254
 4980 14e9 02       		.byte	0x2
 4981 14ea 1801     		.2byte	0x118
 4982 14ec 00000000 		.4byte	.LFB136
 4983 14f0 0E020000 		.4byte	.LFE136-.LFB136
 4984 14f4 01       		.uleb128 0x1
 4985 14f5 9C       		.byte	0x9c
 4986 14f6 08150000 		.4byte	0x1508
ARM GAS  /tmp/cczWCdZx.s 			page 89


 4987 14fa 29       		.uleb128 0x29
 4988 14fb 6700     		.ascii	"g\000"
 4989 14fd 02       		.byte	0x2
 4990 14fe 1801     		.2byte	0x118
 4991 1500 010D0000 		.4byte	0xd01
 4992 1504 02       		.uleb128 0x2
 4993 1505 91       		.byte	0x91
 4994 1506 74       		.sleb128 -12
 4995 1507 00       		.byte	0
 4996 1508 21       		.uleb128 0x21
 4997 1509 460A0000 		.4byte	.LASF255
 4998 150d 01       		.byte	0x1
 4999 150e 1B       		.byte	0x1b
 5000 150f 7C0B0000 		.4byte	0xb7c
 5001 1513 05       		.uleb128 0x5
 5002 1514 03       		.byte	0x3
 5003 1515 00000000 		.4byte	pwmcfg
 5004 1519 2B       		.uleb128 0x2b
 5005 151a 8C060000 		.4byte	.LASF256
 5006 151e 16       		.byte	0x16
 5007 151f 9806     		.2byte	0x698
 5008 1521 26050000 		.4byte	0x526
 5009 1525 11       		.uleb128 0x11
 5010 1526 BC070000 		.4byte	0x7bc
 5011 152a 35150000 		.4byte	0x1535
 5012 152e 12       		.uleb128 0x12
 5013 152f 50040000 		.4byte	0x450
 5014 1533 0F       		.byte	0xf
 5015 1534 00       		.byte	0
 5016 1535 2B       		.uleb128 0x2b
 5017 1536 A5050000 		.4byte	.LASF257
 5018 153a 0B       		.byte	0xb
 5019 153b BB01     		.2byte	0x1bb
 5020 153d 41150000 		.4byte	0x1541
 5021 1541 10       		.uleb128 0x10
 5022 1542 25150000 		.4byte	0x1525
 5023 1546 2B       		.uleb128 0x2b
 5024 1547 0F0A0000 		.4byte	.LASF258
 5025 154b 10       		.byte	0x10
 5026 154c BB01     		.2byte	0x1bb
 5027 154e 3E0A0000 		.4byte	0xa3e
 5028 1552 11       		.uleb128 0x11
 5029 1553 86100000 		.4byte	0x1086
 5030 1557 62150000 		.4byte	0x1562
 5031 155b 12       		.uleb128 0x12
 5032 155c 50040000 		.4byte	0x450
 5033 1560 00       		.byte	0
 5034 1561 00       		.byte	0
 5035 1562 2C       		.uleb128 0x2c
 5036 1563 97040000 		.4byte	.LASF259
 5037 1567 13       		.byte	0x13
 5038 1568 DB02     		.2byte	0x2db
 5039 156a 74150000 		.4byte	0x1574
 5040 156e 05       		.uleb128 0x5
 5041 156f 03       		.byte	0x3
 5042 1570 00000000 		.4byte	GDISPVMT_OnlyOne
 5043 1574 10       		.uleb128 0x10
ARM GAS  /tmp/cczWCdZx.s 			page 90


 5044 1575 52150000 		.4byte	0x1552
 5045 1579 00       		.byte	0
 5046              		.section	.debug_abbrev,"",%progbits
 5047              	.Ldebug_abbrev0:
 5048 0000 01       		.uleb128 0x1
 5049 0001 11       		.uleb128 0x11
 5050 0002 01       		.byte	0x1
 5051 0003 25       		.uleb128 0x25
 5052 0004 0E       		.uleb128 0xe
 5053 0005 13       		.uleb128 0x13
 5054 0006 0B       		.uleb128 0xb
 5055 0007 03       		.uleb128 0x3
 5056 0008 0E       		.uleb128 0xe
 5057 0009 55       		.uleb128 0x55
 5058 000a 17       		.uleb128 0x17
 5059 000b 11       		.uleb128 0x11
 5060 000c 01       		.uleb128 0x1
 5061 000d 10       		.uleb128 0x10
 5062 000e 17       		.uleb128 0x17
 5063 000f 00       		.byte	0
 5064 0010 00       		.byte	0
 5065 0011 02       		.uleb128 0x2
 5066 0012 24       		.uleb128 0x24
 5067 0013 00       		.byte	0
 5068 0014 0B       		.uleb128 0xb
 5069 0015 0B       		.uleb128 0xb
 5070 0016 3E       		.uleb128 0x3e
 5071 0017 0B       		.uleb128 0xb
 5072 0018 03       		.uleb128 0x3
 5073 0019 08       		.uleb128 0x8
 5074 001a 00       		.byte	0
 5075 001b 00       		.byte	0
 5076 001c 03       		.uleb128 0x3
 5077 001d 24       		.uleb128 0x24
 5078 001e 00       		.byte	0
 5079 001f 0B       		.uleb128 0xb
 5080 0020 0B       		.uleb128 0xb
 5081 0021 3E       		.uleb128 0x3e
 5082 0022 0B       		.uleb128 0xb
 5083 0023 03       		.uleb128 0x3
 5084 0024 0E       		.uleb128 0xe
 5085 0025 00       		.byte	0
 5086 0026 00       		.byte	0
 5087 0027 04       		.uleb128 0x4
 5088 0028 16       		.uleb128 0x16
 5089 0029 00       		.byte	0
 5090 002a 03       		.uleb128 0x3
 5091 002b 0E       		.uleb128 0xe
 5092 002c 3A       		.uleb128 0x3a
 5093 002d 0B       		.uleb128 0xb
 5094 002e 3B       		.uleb128 0x3b
 5095 002f 0B       		.uleb128 0xb
 5096 0030 49       		.uleb128 0x49
 5097 0031 13       		.uleb128 0x13
 5098 0032 00       		.byte	0
 5099 0033 00       		.byte	0
 5100 0034 05       		.uleb128 0x5
ARM GAS  /tmp/cczWCdZx.s 			page 91


 5101 0035 13       		.uleb128 0x13
 5102 0036 01       		.byte	0x1
 5103 0037 03       		.uleb128 0x3
 5104 0038 0E       		.uleb128 0xe
 5105 0039 0B       		.uleb128 0xb
 5106 003a 0B       		.uleb128 0xb
 5107 003b 3A       		.uleb128 0x3a
 5108 003c 0B       		.uleb128 0xb
 5109 003d 3B       		.uleb128 0x3b
 5110 003e 0B       		.uleb128 0xb
 5111 003f 01       		.uleb128 0x1
 5112 0040 13       		.uleb128 0x13
 5113 0041 00       		.byte	0
 5114 0042 00       		.byte	0
 5115 0043 06       		.uleb128 0x6
 5116 0044 0D       		.uleb128 0xd
 5117 0045 00       		.byte	0
 5118 0046 03       		.uleb128 0x3
 5119 0047 0E       		.uleb128 0xe
 5120 0048 3A       		.uleb128 0x3a
 5121 0049 0B       		.uleb128 0xb
 5122 004a 3B       		.uleb128 0x3b
 5123 004b 0B       		.uleb128 0xb
 5124 004c 49       		.uleb128 0x49
 5125 004d 13       		.uleb128 0x13
 5126 004e 38       		.uleb128 0x38
 5127 004f 0B       		.uleb128 0xb
 5128 0050 00       		.byte	0
 5129 0051 00       		.byte	0
 5130 0052 07       		.uleb128 0x7
 5131 0053 0D       		.uleb128 0xd
 5132 0054 00       		.byte	0
 5133 0055 03       		.uleb128 0x3
 5134 0056 08       		.uleb128 0x8
 5135 0057 3A       		.uleb128 0x3a
 5136 0058 0B       		.uleb128 0xb
 5137 0059 3B       		.uleb128 0x3b
 5138 005a 0B       		.uleb128 0xb
 5139 005b 49       		.uleb128 0x49
 5140 005c 13       		.uleb128 0x13
 5141 005d 38       		.uleb128 0x38
 5142 005e 0B       		.uleb128 0xb
 5143 005f 00       		.byte	0
 5144 0060 00       		.byte	0
 5145 0061 08       		.uleb128 0x8
 5146 0062 13       		.uleb128 0x13
 5147 0063 01       		.byte	0x1
 5148 0064 0B       		.uleb128 0xb
 5149 0065 0B       		.uleb128 0xb
 5150 0066 3A       		.uleb128 0x3a
 5151 0067 0B       		.uleb128 0xb
 5152 0068 3B       		.uleb128 0x3b
 5153 0069 0B       		.uleb128 0xb
 5154 006a 01       		.uleb128 0x1
 5155 006b 13       		.uleb128 0x13
 5156 006c 00       		.byte	0
 5157 006d 00       		.byte	0
ARM GAS  /tmp/cczWCdZx.s 			page 92


 5158 006e 09       		.uleb128 0x9
 5159 006f 0F       		.uleb128 0xf
 5160 0070 00       		.byte	0
 5161 0071 0B       		.uleb128 0xb
 5162 0072 0B       		.uleb128 0xb
 5163 0073 49       		.uleb128 0x49
 5164 0074 13       		.uleb128 0x13
 5165 0075 00       		.byte	0
 5166 0076 00       		.byte	0
 5167 0077 0A       		.uleb128 0xa
 5168 0078 0F       		.uleb128 0xf
 5169 0079 00       		.byte	0
 5170 007a 0B       		.uleb128 0xb
 5171 007b 0B       		.uleb128 0xb
 5172 007c 00       		.byte	0
 5173 007d 00       		.byte	0
 5174 007e 0B       		.uleb128 0xb
 5175 007f 13       		.uleb128 0x13
 5176 0080 01       		.byte	0x1
 5177 0081 03       		.uleb128 0x3
 5178 0082 0E       		.uleb128 0xe
 5179 0083 0B       		.uleb128 0xb
 5180 0084 0B       		.uleb128 0xb
 5181 0085 3A       		.uleb128 0x3a
 5182 0086 0B       		.uleb128 0xb
 5183 0087 3B       		.uleb128 0x3b
 5184 0088 05       		.uleb128 0x5
 5185 0089 01       		.uleb128 0x1
 5186 008a 13       		.uleb128 0x13
 5187 008b 00       		.byte	0
 5188 008c 00       		.byte	0
 5189 008d 0C       		.uleb128 0xc
 5190 008e 0D       		.uleb128 0xd
 5191 008f 00       		.byte	0
 5192 0090 03       		.uleb128 0x3
 5193 0091 08       		.uleb128 0x8
 5194 0092 3A       		.uleb128 0x3a
 5195 0093 0B       		.uleb128 0xb
 5196 0094 3B       		.uleb128 0x3b
 5197 0095 05       		.uleb128 0x5
 5198 0096 49       		.uleb128 0x49
 5199 0097 13       		.uleb128 0x13
 5200 0098 38       		.uleb128 0x38
 5201 0099 0B       		.uleb128 0xb
 5202 009a 00       		.byte	0
 5203 009b 00       		.byte	0
 5204 009c 0D       		.uleb128 0xd
 5205 009d 35       		.uleb128 0x35
 5206 009e 00       		.byte	0
 5207 009f 49       		.uleb128 0x49
 5208 00a0 13       		.uleb128 0x13
 5209 00a1 00       		.byte	0
 5210 00a2 00       		.byte	0
 5211 00a3 0E       		.uleb128 0xe
 5212 00a4 17       		.uleb128 0x17
 5213 00a5 01       		.byte	0x1
 5214 00a6 0B       		.uleb128 0xb
ARM GAS  /tmp/cczWCdZx.s 			page 93


 5215 00a7 0B       		.uleb128 0xb
 5216 00a8 3A       		.uleb128 0x3a
 5217 00a9 0B       		.uleb128 0xb
 5218 00aa 3B       		.uleb128 0x3b
 5219 00ab 0B       		.uleb128 0xb
 5220 00ac 01       		.uleb128 0x1
 5221 00ad 13       		.uleb128 0x13
 5222 00ae 00       		.byte	0
 5223 00af 00       		.byte	0
 5224 00b0 0F       		.uleb128 0xf
 5225 00b1 0D       		.uleb128 0xd
 5226 00b2 00       		.byte	0
 5227 00b3 03       		.uleb128 0x3
 5228 00b4 0E       		.uleb128 0xe
 5229 00b5 3A       		.uleb128 0x3a
 5230 00b6 0B       		.uleb128 0xb
 5231 00b7 3B       		.uleb128 0x3b
 5232 00b8 0B       		.uleb128 0xb
 5233 00b9 49       		.uleb128 0x49
 5234 00ba 13       		.uleb128 0x13
 5235 00bb 00       		.byte	0
 5236 00bc 00       		.byte	0
 5237 00bd 10       		.uleb128 0x10
 5238 00be 26       		.uleb128 0x26
 5239 00bf 00       		.byte	0
 5240 00c0 49       		.uleb128 0x49
 5241 00c1 13       		.uleb128 0x13
 5242 00c2 00       		.byte	0
 5243 00c3 00       		.byte	0
 5244 00c4 11       		.uleb128 0x11
 5245 00c5 01       		.uleb128 0x1
 5246 00c6 01       		.byte	0x1
 5247 00c7 49       		.uleb128 0x49
 5248 00c8 13       		.uleb128 0x13
 5249 00c9 01       		.uleb128 0x1
 5250 00ca 13       		.uleb128 0x13
 5251 00cb 00       		.byte	0
 5252 00cc 00       		.byte	0
 5253 00cd 12       		.uleb128 0x12
 5254 00ce 21       		.uleb128 0x21
 5255 00cf 00       		.byte	0
 5256 00d0 49       		.uleb128 0x49
 5257 00d1 13       		.uleb128 0x13
 5258 00d2 2F       		.uleb128 0x2f
 5259 00d3 0B       		.uleb128 0xb
 5260 00d4 00       		.byte	0
 5261 00d5 00       		.byte	0
 5262 00d6 13       		.uleb128 0x13
 5263 00d7 13       		.uleb128 0x13
 5264 00d8 01       		.byte	0x1
 5265 00d9 0B       		.uleb128 0xb
 5266 00da 0B       		.uleb128 0xb
 5267 00db 3A       		.uleb128 0x3a
 5268 00dc 0B       		.uleb128 0xb
 5269 00dd 3B       		.uleb128 0x3b
 5270 00de 05       		.uleb128 0x5
 5271 00df 01       		.uleb128 0x1
ARM GAS  /tmp/cczWCdZx.s 			page 94


 5272 00e0 13       		.uleb128 0x13
 5273 00e1 00       		.byte	0
 5274 00e2 00       		.byte	0
 5275 00e3 14       		.uleb128 0x14
 5276 00e4 0D       		.uleb128 0xd
 5277 00e5 00       		.byte	0
 5278 00e6 03       		.uleb128 0x3
 5279 00e7 0E       		.uleb128 0xe
 5280 00e8 3A       		.uleb128 0x3a
 5281 00e9 0B       		.uleb128 0xb
 5282 00ea 3B       		.uleb128 0x3b
 5283 00eb 05       		.uleb128 0x5
 5284 00ec 49       		.uleb128 0x49
 5285 00ed 13       		.uleb128 0x13
 5286 00ee 38       		.uleb128 0x38
 5287 00ef 0B       		.uleb128 0xb
 5288 00f0 00       		.byte	0
 5289 00f1 00       		.byte	0
 5290 00f2 15       		.uleb128 0x15
 5291 00f3 16       		.uleb128 0x16
 5292 00f4 00       		.byte	0
 5293 00f5 03       		.uleb128 0x3
 5294 00f6 0E       		.uleb128 0xe
 5295 00f7 3A       		.uleb128 0x3a
 5296 00f8 0B       		.uleb128 0xb
 5297 00f9 3B       		.uleb128 0x3b
 5298 00fa 05       		.uleb128 0x5
 5299 00fb 49       		.uleb128 0x49
 5300 00fc 13       		.uleb128 0x13
 5301 00fd 00       		.byte	0
 5302 00fe 00       		.byte	0
 5303 00ff 16       		.uleb128 0x16
 5304 0100 0D       		.uleb128 0xd
 5305 0101 00       		.byte	0
 5306 0102 03       		.uleb128 0x3
 5307 0103 08       		.uleb128 0x8
 5308 0104 3A       		.uleb128 0x3a
 5309 0105 0B       		.uleb128 0xb
 5310 0106 3B       		.uleb128 0x3b
 5311 0107 0B       		.uleb128 0xb
 5312 0108 49       		.uleb128 0x49
 5313 0109 13       		.uleb128 0x13
 5314 010a 00       		.byte	0
 5315 010b 00       		.byte	0
 5316 010c 17       		.uleb128 0x17
 5317 010d 04       		.uleb128 0x4
 5318 010e 01       		.byte	0x1
 5319 010f 0B       		.uleb128 0xb
 5320 0110 0B       		.uleb128 0xb
 5321 0111 3A       		.uleb128 0x3a
 5322 0112 0B       		.uleb128 0xb
 5323 0113 3B       		.uleb128 0x3b
 5324 0114 0B       		.uleb128 0xb
 5325 0115 01       		.uleb128 0x1
 5326 0116 13       		.uleb128 0x13
 5327 0117 00       		.byte	0
 5328 0118 00       		.byte	0
ARM GAS  /tmp/cczWCdZx.s 			page 95


 5329 0119 18       		.uleb128 0x18
 5330 011a 28       		.uleb128 0x28
 5331 011b 00       		.byte	0
 5332 011c 03       		.uleb128 0x3
 5333 011d 0E       		.uleb128 0xe
 5334 011e 1C       		.uleb128 0x1c
 5335 011f 0D       		.uleb128 0xd
 5336 0120 00       		.byte	0
 5337 0121 00       		.byte	0
 5338 0122 19       		.uleb128 0x19
 5339 0123 15       		.uleb128 0x15
 5340 0124 01       		.byte	0x1
 5341 0125 27       		.uleb128 0x27
 5342 0126 19       		.uleb128 0x19
 5343 0127 01       		.uleb128 0x1
 5344 0128 13       		.uleb128 0x13
 5345 0129 00       		.byte	0
 5346 012a 00       		.byte	0
 5347 012b 1A       		.uleb128 0x1a
 5348 012c 05       		.uleb128 0x5
 5349 012d 00       		.byte	0
 5350 012e 49       		.uleb128 0x49
 5351 012f 13       		.uleb128 0x13
 5352 0130 00       		.byte	0
 5353 0131 00       		.byte	0
 5354 0132 1B       		.uleb128 0x1b
 5355 0133 13       		.uleb128 0x13
 5356 0134 00       		.byte	0
 5357 0135 03       		.uleb128 0x3
 5358 0136 0E       		.uleb128 0xe
 5359 0137 3C       		.uleb128 0x3c
 5360 0138 19       		.uleb128 0x19
 5361 0139 00       		.byte	0
 5362 013a 00       		.byte	0
 5363 013b 1C       		.uleb128 0x1c
 5364 013c 04       		.uleb128 0x4
 5365 013d 01       		.byte	0x1
 5366 013e 03       		.uleb128 0x3
 5367 013f 0E       		.uleb128 0xe
 5368 0140 0B       		.uleb128 0xb
 5369 0141 0B       		.uleb128 0xb
 5370 0142 3A       		.uleb128 0x3a
 5371 0143 0B       		.uleb128 0xb
 5372 0144 3B       		.uleb128 0x3b
 5373 0145 0B       		.uleb128 0xb
 5374 0146 01       		.uleb128 0x1
 5375 0147 13       		.uleb128 0x13
 5376 0148 00       		.byte	0
 5377 0149 00       		.byte	0
 5378 014a 1D       		.uleb128 0x1d
 5379 014b 15       		.uleb128 0x15
 5380 014c 01       		.byte	0x1
 5381 014d 27       		.uleb128 0x27
 5382 014e 19       		.uleb128 0x19
 5383 014f 49       		.uleb128 0x49
 5384 0150 13       		.uleb128 0x13
 5385 0151 01       		.uleb128 0x1
ARM GAS  /tmp/cczWCdZx.s 			page 96


 5386 0152 13       		.uleb128 0x13
 5387 0153 00       		.byte	0
 5388 0154 00       		.byte	0
 5389 0155 1E       		.uleb128 0x1e
 5390 0156 2E       		.uleb128 0x2e
 5391 0157 01       		.byte	0x1
 5392 0158 03       		.uleb128 0x3
 5393 0159 0E       		.uleb128 0xe
 5394 015a 3A       		.uleb128 0x3a
 5395 015b 0B       		.uleb128 0xb
 5396 015c 3B       		.uleb128 0x3b
 5397 015d 0B       		.uleb128 0xb
 5398 015e 27       		.uleb128 0x27
 5399 015f 19       		.uleb128 0x19
 5400 0160 11       		.uleb128 0x11
 5401 0161 01       		.uleb128 0x1
 5402 0162 12       		.uleb128 0x12
 5403 0163 06       		.uleb128 0x6
 5404 0164 40       		.uleb128 0x40
 5405 0165 18       		.uleb128 0x18
 5406 0166 9642     		.uleb128 0x2116
 5407 0168 19       		.uleb128 0x19
 5408 0169 01       		.uleb128 0x1
 5409 016a 13       		.uleb128 0x13
 5410 016b 00       		.byte	0
 5411 016c 00       		.byte	0
 5412 016d 1F       		.uleb128 0x1f
 5413 016e 05       		.uleb128 0x5
 5414 016f 00       		.byte	0
 5415 0170 03       		.uleb128 0x3
 5416 0171 08       		.uleb128 0x8
 5417 0172 3A       		.uleb128 0x3a
 5418 0173 0B       		.uleb128 0xb
 5419 0174 3B       		.uleb128 0x3b
 5420 0175 0B       		.uleb128 0xb
 5421 0176 49       		.uleb128 0x49
 5422 0177 13       		.uleb128 0x13
 5423 0178 02       		.uleb128 0x2
 5424 0179 18       		.uleb128 0x18
 5425 017a 00       		.byte	0
 5426 017b 00       		.byte	0
 5427 017c 20       		.uleb128 0x20
 5428 017d 0B       		.uleb128 0xb
 5429 017e 01       		.byte	0x1
 5430 017f 11       		.uleb128 0x11
 5431 0180 01       		.uleb128 0x1
 5432 0181 12       		.uleb128 0x12
 5433 0182 06       		.uleb128 0x6
 5434 0183 00       		.byte	0
 5435 0184 00       		.byte	0
 5436 0185 21       		.uleb128 0x21
 5437 0186 34       		.uleb128 0x34
 5438 0187 00       		.byte	0
 5439 0188 03       		.uleb128 0x3
 5440 0189 0E       		.uleb128 0xe
 5441 018a 3A       		.uleb128 0x3a
 5442 018b 0B       		.uleb128 0xb
ARM GAS  /tmp/cczWCdZx.s 			page 97


 5443 018c 3B       		.uleb128 0x3b
 5444 018d 0B       		.uleb128 0xb
 5445 018e 49       		.uleb128 0x49
 5446 018f 13       		.uleb128 0x13
 5447 0190 02       		.uleb128 0x2
 5448 0191 18       		.uleb128 0x18
 5449 0192 00       		.byte	0
 5450 0193 00       		.byte	0
 5451 0194 22       		.uleb128 0x22
 5452 0195 2E       		.uleb128 0x2e
 5453 0196 01       		.byte	0x1
 5454 0197 03       		.uleb128 0x3
 5455 0198 0E       		.uleb128 0xe
 5456 0199 3A       		.uleb128 0x3a
 5457 019a 0B       		.uleb128 0xb
 5458 019b 3B       		.uleb128 0x3b
 5459 019c 0B       		.uleb128 0xb
 5460 019d 27       		.uleb128 0x27
 5461 019e 19       		.uleb128 0x19
 5462 019f 11       		.uleb128 0x11
 5463 01a0 01       		.uleb128 0x1
 5464 01a1 12       		.uleb128 0x12
 5465 01a2 06       		.uleb128 0x6
 5466 01a3 40       		.uleb128 0x40
 5467 01a4 18       		.uleb128 0x18
 5468 01a5 9742     		.uleb128 0x2117
 5469 01a7 19       		.uleb128 0x19
 5470 01a8 01       		.uleb128 0x1
 5471 01a9 13       		.uleb128 0x13
 5472 01aa 00       		.byte	0
 5473 01ab 00       		.byte	0
 5474 01ac 23       		.uleb128 0x23
 5475 01ad 05       		.uleb128 0x5
 5476 01ae 00       		.byte	0
 5477 01af 03       		.uleb128 0x3
 5478 01b0 0E       		.uleb128 0xe
 5479 01b1 3A       		.uleb128 0x3a
 5480 01b2 0B       		.uleb128 0xb
 5481 01b3 3B       		.uleb128 0x3b
 5482 01b4 0B       		.uleb128 0xb
 5483 01b5 49       		.uleb128 0x49
 5484 01b6 13       		.uleb128 0x13
 5485 01b7 02       		.uleb128 0x2
 5486 01b8 18       		.uleb128 0x18
 5487 01b9 00       		.byte	0
 5488 01ba 00       		.byte	0
 5489 01bb 24       		.uleb128 0x24
 5490 01bc 2E       		.uleb128 0x2e
 5491 01bd 01       		.byte	0x1
 5492 01be 03       		.uleb128 0x3
 5493 01bf 0E       		.uleb128 0xe
 5494 01c0 3A       		.uleb128 0x3a
 5495 01c1 0B       		.uleb128 0xb
 5496 01c2 3B       		.uleb128 0x3b
 5497 01c3 0B       		.uleb128 0xb
 5498 01c4 27       		.uleb128 0x27
 5499 01c5 19       		.uleb128 0x19
ARM GAS  /tmp/cczWCdZx.s 			page 98


 5500 01c6 49       		.uleb128 0x49
 5501 01c7 13       		.uleb128 0x13
 5502 01c8 11       		.uleb128 0x11
 5503 01c9 01       		.uleb128 0x1
 5504 01ca 12       		.uleb128 0x12
 5505 01cb 06       		.uleb128 0x6
 5506 01cc 40       		.uleb128 0x40
 5507 01cd 18       		.uleb128 0x18
 5508 01ce 9742     		.uleb128 0x2117
 5509 01d0 19       		.uleb128 0x19
 5510 01d1 01       		.uleb128 0x1
 5511 01d2 13       		.uleb128 0x13
 5512 01d3 00       		.byte	0
 5513 01d4 00       		.byte	0
 5514 01d5 25       		.uleb128 0x25
 5515 01d6 2E       		.uleb128 0x2e
 5516 01d7 01       		.byte	0x1
 5517 01d8 3F       		.uleb128 0x3f
 5518 01d9 19       		.uleb128 0x19
 5519 01da 03       		.uleb128 0x3
 5520 01db 0E       		.uleb128 0xe
 5521 01dc 3A       		.uleb128 0x3a
 5522 01dd 0B       		.uleb128 0xb
 5523 01de 3B       		.uleb128 0x3b
 5524 01df 0B       		.uleb128 0xb
 5525 01e0 27       		.uleb128 0x27
 5526 01e1 19       		.uleb128 0x19
 5527 01e2 49       		.uleb128 0x49
 5528 01e3 13       		.uleb128 0x13
 5529 01e4 11       		.uleb128 0x11
 5530 01e5 01       		.uleb128 0x1
 5531 01e6 12       		.uleb128 0x12
 5532 01e7 06       		.uleb128 0x6
 5533 01e8 40       		.uleb128 0x40
 5534 01e9 18       		.uleb128 0x18
 5535 01ea 9642     		.uleb128 0x2116
 5536 01ec 19       		.uleb128 0x19
 5537 01ed 01       		.uleb128 0x1
 5538 01ee 13       		.uleb128 0x13
 5539 01ef 00       		.byte	0
 5540 01f0 00       		.byte	0
 5541 01f1 26       		.uleb128 0x26
 5542 01f2 2E       		.uleb128 0x2e
 5543 01f3 01       		.byte	0x1
 5544 01f4 3F       		.uleb128 0x3f
 5545 01f5 19       		.uleb128 0x19
 5546 01f6 03       		.uleb128 0x3
 5547 01f7 0E       		.uleb128 0xe
 5548 01f8 3A       		.uleb128 0x3a
 5549 01f9 0B       		.uleb128 0xb
 5550 01fa 3B       		.uleb128 0x3b
 5551 01fb 0B       		.uleb128 0xb
 5552 01fc 27       		.uleb128 0x27
 5553 01fd 19       		.uleb128 0x19
 5554 01fe 11       		.uleb128 0x11
 5555 01ff 01       		.uleb128 0x1
 5556 0200 12       		.uleb128 0x12
ARM GAS  /tmp/cczWCdZx.s 			page 99


 5557 0201 06       		.uleb128 0x6
 5558 0202 40       		.uleb128 0x40
 5559 0203 18       		.uleb128 0x18
 5560 0204 9642     		.uleb128 0x2116
 5561 0206 19       		.uleb128 0x19
 5562 0207 01       		.uleb128 0x1
 5563 0208 13       		.uleb128 0x13
 5564 0209 00       		.byte	0
 5565 020a 00       		.byte	0
 5566 020b 27       		.uleb128 0x27
 5567 020c 34       		.uleb128 0x34
 5568 020d 00       		.byte	0
 5569 020e 03       		.uleb128 0x3
 5570 020f 08       		.uleb128 0x8
 5571 0210 3A       		.uleb128 0x3a
 5572 0211 0B       		.uleb128 0xb
 5573 0212 3B       		.uleb128 0x3b
 5574 0213 0B       		.uleb128 0xb
 5575 0214 49       		.uleb128 0x49
 5576 0215 13       		.uleb128 0x13
 5577 0216 02       		.uleb128 0x2
 5578 0217 18       		.uleb128 0x18
 5579 0218 00       		.byte	0
 5580 0219 00       		.byte	0
 5581 021a 28       		.uleb128 0x28
 5582 021b 2E       		.uleb128 0x2e
 5583 021c 01       		.byte	0x1
 5584 021d 3F       		.uleb128 0x3f
 5585 021e 19       		.uleb128 0x19
 5586 021f 03       		.uleb128 0x3
 5587 0220 0E       		.uleb128 0xe
 5588 0221 3A       		.uleb128 0x3a
 5589 0222 0B       		.uleb128 0xb
 5590 0223 3B       		.uleb128 0x3b
 5591 0224 05       		.uleb128 0x5
 5592 0225 27       		.uleb128 0x27
 5593 0226 19       		.uleb128 0x19
 5594 0227 11       		.uleb128 0x11
 5595 0228 01       		.uleb128 0x1
 5596 0229 12       		.uleb128 0x12
 5597 022a 06       		.uleb128 0x6
 5598 022b 40       		.uleb128 0x40
 5599 022c 18       		.uleb128 0x18
 5600 022d 9642     		.uleb128 0x2116
 5601 022f 19       		.uleb128 0x19
 5602 0230 01       		.uleb128 0x1
 5603 0231 13       		.uleb128 0x13
 5604 0232 00       		.byte	0
 5605 0233 00       		.byte	0
 5606 0234 29       		.uleb128 0x29
 5607 0235 05       		.uleb128 0x5
 5608 0236 00       		.byte	0
 5609 0237 03       		.uleb128 0x3
 5610 0238 08       		.uleb128 0x8
 5611 0239 3A       		.uleb128 0x3a
 5612 023a 0B       		.uleb128 0xb
 5613 023b 3B       		.uleb128 0x3b
ARM GAS  /tmp/cczWCdZx.s 			page 100


 5614 023c 05       		.uleb128 0x5
 5615 023d 49       		.uleb128 0x49
 5616 023e 13       		.uleb128 0x13
 5617 023f 02       		.uleb128 0x2
 5618 0240 18       		.uleb128 0x18
 5619 0241 00       		.byte	0
 5620 0242 00       		.byte	0
 5621 0243 2A       		.uleb128 0x2a
 5622 0244 34       		.uleb128 0x34
 5623 0245 00       		.byte	0
 5624 0246 03       		.uleb128 0x3
 5625 0247 0E       		.uleb128 0xe
 5626 0248 3A       		.uleb128 0x3a
 5627 0249 0B       		.uleb128 0xb
 5628 024a 3B       		.uleb128 0x3b
 5629 024b 05       		.uleb128 0x5
 5630 024c 49       		.uleb128 0x49
 5631 024d 13       		.uleb128 0x13
 5632 024e 02       		.uleb128 0x2
 5633 024f 18       		.uleb128 0x18
 5634 0250 00       		.byte	0
 5635 0251 00       		.byte	0
 5636 0252 2B       		.uleb128 0x2b
 5637 0253 34       		.uleb128 0x34
 5638 0254 00       		.byte	0
 5639 0255 03       		.uleb128 0x3
 5640 0256 0E       		.uleb128 0xe
 5641 0257 3A       		.uleb128 0x3a
 5642 0258 0B       		.uleb128 0xb
 5643 0259 3B       		.uleb128 0x3b
 5644 025a 05       		.uleb128 0x5
 5645 025b 49       		.uleb128 0x49
 5646 025c 13       		.uleb128 0x13
 5647 025d 3F       		.uleb128 0x3f
 5648 025e 19       		.uleb128 0x19
 5649 025f 3C       		.uleb128 0x3c
 5650 0260 19       		.uleb128 0x19
 5651 0261 00       		.byte	0
 5652 0262 00       		.byte	0
 5653 0263 2C       		.uleb128 0x2c
 5654 0264 34       		.uleb128 0x34
 5655 0265 00       		.byte	0
 5656 0266 03       		.uleb128 0x3
 5657 0267 0E       		.uleb128 0xe
 5658 0268 3A       		.uleb128 0x3a
 5659 0269 0B       		.uleb128 0xb
 5660 026a 3B       		.uleb128 0x3b
 5661 026b 05       		.uleb128 0x5
 5662 026c 49       		.uleb128 0x49
 5663 026d 13       		.uleb128 0x13
 5664 026e 3F       		.uleb128 0x3f
 5665 026f 19       		.uleb128 0x19
 5666 0270 02       		.uleb128 0x2
 5667 0271 18       		.uleb128 0x18
 5668 0272 00       		.byte	0
 5669 0273 00       		.byte	0
 5670 0274 00       		.byte	0
ARM GAS  /tmp/cczWCdZx.s 			page 101


 5671              		.section	.debug_aranges,"",%progbits
 5672 0000 E4000000 		.4byte	0xe4
 5673 0004 0200     		.2byte	0x2
 5674 0006 00000000 		.4byte	.Ldebug_info0
 5675 000a 04       		.byte	0x4
 5676 000b 00       		.byte	0
 5677 000c 0000     		.2byte	0
 5678 000e 0000     		.2byte	0
 5679 0010 00000000 		.4byte	.LFB111
 5680 0014 D8000000 		.4byte	.LFE111-.LFB111
 5681 0018 00000000 		.4byte	.LFB112
 5682 001c 08000000 		.4byte	.LFE112-.LFB112
 5683 0020 00000000 		.4byte	.LFB113
 5684 0024 0E000000 		.4byte	.LFE113-.LFB113
 5685 0028 00000000 		.4byte	.LFB114
 5686 002c 28000000 		.4byte	.LFE114-.LFB114
 5687 0030 00000000 		.4byte	.LFB115
 5688 0034 08000000 		.4byte	.LFE115-.LFB115
 5689 0038 00000000 		.4byte	.LFB116
 5690 003c 08000000 		.4byte	.LFE116-.LFB116
 5691 0040 00000000 		.4byte	.LFB117
 5692 0044 18000000 		.4byte	.LFE117-.LFB117
 5693 0048 00000000 		.4byte	.LFB118
 5694 004c 1C000000 		.4byte	.LFE118-.LFB118
 5695 0050 00000000 		.4byte	.LFB119
 5696 0054 14000000 		.4byte	.LFE119-.LFB119
 5697 0058 00000000 		.4byte	.LFB120
 5698 005c 14000000 		.4byte	.LFE120-.LFB120
 5699 0060 00000000 		.4byte	.LFB121
 5700 0064 14000000 		.4byte	.LFE121-.LFB121
 5701 0068 00000000 		.4byte	.LFB122
 5702 006c A8000000 		.4byte	.LFE122-.LFB122
 5703 0070 00000000 		.4byte	.LFB123
 5704 0074 A8000000 		.4byte	.LFE123-.LFB123
 5705 0078 00000000 		.4byte	.LFB124
 5706 007c 22010000 		.4byte	.LFE124-.LFB124
 5707 0080 00000000 		.4byte	.LFB125
 5708 0084 3E020000 		.4byte	.LFE125-.LFB125
 5709 0088 00000000 		.4byte	.LFB126
 5710 008c 2A040000 		.4byte	.LFE126-.LFB126
 5711 0090 00000000 		.4byte	.LFB127
 5712 0094 18000000 		.4byte	.LFE127-.LFB127
 5713 0098 00000000 		.4byte	.LFB128
 5714 009c 1A000000 		.4byte	.LFE128-.LFB128
 5715 00a0 00000000 		.4byte	.LFB129
 5716 00a4 12000000 		.4byte	.LFE129-.LFB129
 5717 00a8 00000000 		.4byte	.LFB130
 5718 00ac 12000000 		.4byte	.LFE130-.LFB130
 5719 00b0 00000000 		.4byte	.LFB131
 5720 00b4 34000000 		.4byte	.LFE131-.LFB131
 5721 00b8 00000000 		.4byte	.LFB132
 5722 00bc 1E000000 		.4byte	.LFE132-.LFB132
 5723 00c0 00000000 		.4byte	.LFB133
 5724 00c4 18000000 		.4byte	.LFE133-.LFB133
 5725 00c8 00000000 		.4byte	.LFB134
 5726 00cc 4C000000 		.4byte	.LFE134-.LFB134
 5727 00d0 00000000 		.4byte	.LFB135
ARM GAS  /tmp/cczWCdZx.s 			page 102


 5728 00d4 BA000000 		.4byte	.LFE135-.LFB135
 5729 00d8 00000000 		.4byte	.LFB136
 5730 00dc 0E020000 		.4byte	.LFE136-.LFB136
 5731 00e0 00000000 		.4byte	0
 5732 00e4 00000000 		.4byte	0
 5733              		.section	.debug_ranges,"",%progbits
 5734              	.Ldebug_ranges0:
 5735 0000 00000000 		.4byte	.LFB111
 5736 0004 D8000000 		.4byte	.LFE111
 5737 0008 00000000 		.4byte	.LFB112
 5738 000c 08000000 		.4byte	.LFE112
 5739 0010 00000000 		.4byte	.LFB113
 5740 0014 0E000000 		.4byte	.LFE113
 5741 0018 00000000 		.4byte	.LFB114
 5742 001c 28000000 		.4byte	.LFE114
 5743 0020 00000000 		.4byte	.LFB115
 5744 0024 08000000 		.4byte	.LFE115
 5745 0028 00000000 		.4byte	.LFB116
 5746 002c 08000000 		.4byte	.LFE116
 5747 0030 00000000 		.4byte	.LFB117
 5748 0034 18000000 		.4byte	.LFE117
 5749 0038 00000000 		.4byte	.LFB118
 5750 003c 1C000000 		.4byte	.LFE118
 5751 0040 00000000 		.4byte	.LFB119
 5752 0044 14000000 		.4byte	.LFE119
 5753 0048 00000000 		.4byte	.LFB120
 5754 004c 14000000 		.4byte	.LFE120
 5755 0050 00000000 		.4byte	.LFB121
 5756 0054 14000000 		.4byte	.LFE121
 5757 0058 00000000 		.4byte	.LFB122
 5758 005c A8000000 		.4byte	.LFE122
 5759 0060 00000000 		.4byte	.LFB123
 5760 0064 A8000000 		.4byte	.LFE123
 5761 0068 00000000 		.4byte	.LFB124
 5762 006c 22010000 		.4byte	.LFE124
 5763 0070 00000000 		.4byte	.LFB125
 5764 0074 3E020000 		.4byte	.LFE125
 5765 0078 00000000 		.4byte	.LFB126
 5766 007c 2A040000 		.4byte	.LFE126
 5767 0080 00000000 		.4byte	.LFB127
 5768 0084 18000000 		.4byte	.LFE127
 5769 0088 00000000 		.4byte	.LFB128
 5770 008c 1A000000 		.4byte	.LFE128
 5771 0090 00000000 		.4byte	.LFB129
 5772 0094 12000000 		.4byte	.LFE129
 5773 0098 00000000 		.4byte	.LFB130
 5774 009c 12000000 		.4byte	.LFE130
 5775 00a0 00000000 		.4byte	.LFB131
 5776 00a4 34000000 		.4byte	.LFE131
 5777 00a8 00000000 		.4byte	.LFB132
 5778 00ac 1E000000 		.4byte	.LFE132
 5779 00b0 00000000 		.4byte	.LFB133
 5780 00b4 18000000 		.4byte	.LFE133
 5781 00b8 00000000 		.4byte	.LFB134
 5782 00bc 4C000000 		.4byte	.LFE134
 5783 00c0 00000000 		.4byte	.LFB135
 5784 00c4 BA000000 		.4byte	.LFE135
ARM GAS  /tmp/cczWCdZx.s 			page 103


 5785 00c8 00000000 		.4byte	.LFB136
 5786 00cc 0E020000 		.4byte	.LFE136
 5787 00d0 00000000 		.4byte	0
 5788 00d4 00000000 		.4byte	0
 5789              		.section	.debug_line,"",%progbits
 5790              	.Ldebug_line0:
 5791 0000 61070000 		.section	.debug_str,"MS",%progbits,1
 5791      02002F04 
 5791      00000201 
 5791      FB0E0D00 
 5791      01010101 
 5792              	.LASF71:
 5793 0000 4D314152 		.ascii	"M1AR\000"
 5793      00
 5794              	.LASF59:
 5795 0005 73697A65 		.ascii	"sizetype\000"
 5795      74797065 
 5795      00
 5796              	.LASF31:
 5797 000e 73797374 		.ascii	"systime_t\000"
 5797      696D655F 
 5797      7400
 5798              	.LASF101:
 5799 0018 504C4C49 		.ascii	"PLLI2SCFGR\000"
 5799      32534346 
 5799      475200
 5800              	.LASF251:
 5801 0023 67646973 		.ascii	"gdisp_lld_fill_area\000"
 5801      705F6C6C 
 5801      645F6669 
 5801      6C6C5F61 
 5801      72656100 
 5802              	.LASF36:
 5803 0037 705F6374 		.ascii	"p_ctx\000"
 5803      7800
 5804              	.LASF28:
 5805 003d 74707269 		.ascii	"tprio_t\000"
 5805      6F5F7400 
 5806              	.LASF158:
 5807 0045 636F6F72 		.ascii	"coord_t\000"
 5807      645F7400 
 5808              	.LASF47:
 5809 004d 705F6D73 		.ascii	"p_msgqueue\000"
 5809      67717565 
 5809      756500
 5810              	.LASF188:
 5811 0058 64726976 		.ascii	"driverchain\000"
 5811      65726368 
 5811      61696E00 
 5812              	.LASF199:
 5813 0064 506F7765 		.ascii	"Powermode\000"
 5813      726D6F64 
 5813      6500
 5814              	.LASF18:
 5815 006e 696E7433 		.ascii	"int32_t\000"
 5815      325F7400 
 5816              	.LASF248:
ARM GAS  /tmp/cczWCdZx.s 			page 104


 5817 0076 67646973 		.ascii	"gdisp_lld_init\000"
 5817      705F6C6C 
 5817      645F696E 
 5817      697400
 5818              	.LASF197:
 5819 0085 48656967 		.ascii	"Height\000"
 5819      687400
 5820              	.LASF144:
 5821 008c 636F6E66 		.ascii	"config\000"
 5821      696700
 5822              	.LASF143:
 5823 0093 73746174 		.ascii	"state\000"
 5823      6500
 5824              	.LASF246:
 5825 0099 67646973 		.ascii	"gdisp_lld_read_start\000"
 5825      705F6C6C 
 5825      645F7265 
 5825      61645F73 
 5825      74617274 
 5826              	.LASF152:
 5827 00ae 50574D43 		.ascii	"PWMChannelConfig\000"
 5827      68616E6E 
 5827      656C436F 
 5827      6E666967 
 5827      00
 5828              	.LASF190:
 5829 00bf 74797065 		.ascii	"type\000"
 5829      00
 5830              	.LASF133:
 5831 00c4 444D4152 		.ascii	"DMAR\000"
 5831      00
 5832              	.LASF155:
 5833 00c9 64696572 		.ascii	"dier\000"
 5833      00
 5834              	.LASF138:
 5835 00ce 50574D5F 		.ascii	"PWM_UNINIT\000"
 5835      554E494E 
 5835      495400
 5836              	.LASF151:
 5837 00d9 63616C6C 		.ascii	"callback\000"
 5837      6261636B 
 5837      00
 5838              	.LASF168:
 5839 00e2 706F7765 		.ascii	"powermode\000"
 5839      726D6F64 
 5839      6500
 5840              	.LASF187:
 5841 00ec 47447269 		.ascii	"GDriver\000"
 5841      76657200 
 5842              	.LASF175:
 5843 00f4 70726976 		.ascii	"priv\000"
 5843      00
 5844              	.LASF205:
 5845 00f9 47444953 		.ascii	"GDISPVMT\000"
 5845      50564D54 
 5845      00
 5846              	.LASF62:
ARM GAS  /tmp/cczWCdZx.s 			page 105


 5847 0102 6D5F6F77 		.ascii	"m_owner\000"
 5847      6E657200 
 5848              	.LASF65:
 5849 010a 65786974 		.ascii	"exitcode\000"
 5849      636F6465 
 5849      00
 5850              	.LASF135:
 5851 0113 43435235 		.ascii	"CCR5\000"
 5851      00
 5852              	.LASF3:
 5853 0118 5F5F7569 		.ascii	"__uint8_t\000"
 5853      6E74385F 
 5853      7400
 5854              	.LASF193:
 5855 0122 706F7374 		.ascii	"postinit\000"
 5855      696E6974 
 5855      00
 5856              	.LASF67:
 5857 012b 65776D61 		.ascii	"ewmask\000"
 5857      736B00
 5858              	.LASF92:
 5859 0132 41484232 		.ascii	"AHB2LPENR\000"
 5859      4C50454E 
 5859      5200
 5860              	.LASF115:
 5861 013c 50555044 		.ascii	"PUPDR\000"
 5861      5200
 5862              	.LASF164:
 5863 0142 47444953 		.ascii	"GDISP_ROTATE_PORTRAIT\000"
 5863      505F524F 
 5863      54415445 
 5863      5F504F52 
 5863      54524149 
 5864              	.LASF37:
 5865 0158 705F6E65 		.ascii	"p_newer\000"
 5865      77657200 
 5866              	.LASF249:
 5867 0160 67646973 		.ascii	"gdisp_lld_read_color\000"
 5867      705F6C6C 
 5867      645F7265 
 5867      61645F63 
 5867      6F6C6F72 
 5868              	.LASF220:
 5869 0175 666C7573 		.ascii	"flush\000"
 5869      6800
 5870              	.LASF9:
 5871 017b 6C6F6E67 		.ascii	"long int\000"
 5871      20696E74 
 5871      00
 5872              	.LASF33:
 5873 0184 705F6E65 		.ascii	"p_next\000"
 5873      787400
 5874              	.LASF34:
 5875 018b 705F7072 		.ascii	"p_prev\000"
 5875      657600
 5876              	.LASF122:
 5877 0192 696F706F 		.ascii	"ioportid_t\000"
ARM GAS  /tmp/cczWCdZx.s 			page 106


 5877      72746964 
 5877      5F7400
 5878              	.LASF25:
 5879 019d 74737461 		.ascii	"tstate_t\000"
 5879      74655F74 
 5879      00
 5880              	.LASF50:
 5881 01a6 705F6D74 		.ascii	"p_mtxlist\000"
 5881      786C6973 
 5881      7400
 5882              	.LASF55:
 5883 01b0 72656761 		.ascii	"regarm_t\000"
 5883      726D5F74 
 5883      00
 5884              	.LASF89:
 5885 01b9 41504232 		.ascii	"APB2ENR\000"
 5885      454E5200 
 5886              	.LASF239:
 5887 01c1 646D615F 		.ascii	"dma_with_inc\000"
 5887      77697468 
 5887      5F696E63 
 5887      00
 5888              	.LASF91:
 5889 01ce 41484231 		.ascii	"AHB1LPENR\000"
 5889      4C50454E 
 5889      5200
 5890              	.LASF228:
 5891 01d8 61637175 		.ascii	"acquire_bus\000"
 5891      6972655F 
 5891      62757300 
 5892              	.LASF103:
 5893 01e4 44434B43 		.ascii	"DCKCFGR\000"
 5893      46475200 
 5894              	.LASF242:
 5895 01ec 67646973 		.ascii	"gdisp_lld_write_start\000"
 5895      705F6C6C 
 5895      645F7772 
 5895      6974655F 
 5895      73746172 
 5896              	.LASF174:
 5897 0202 47446973 		.ascii	"GDisplay\000"
 5897      706C6179 
 5897      00
 5898              	.LASF1:
 5899 020b 7369676E 		.ascii	"signed char\000"
 5899      65642063 
 5899      68617200 
 5900              	.LASF44:
 5901 0217 705F7072 		.ascii	"p_preempt\000"
 5901      65656D70 
 5901      7400
 5902              	.LASF15:
 5903 0221 75696E74 		.ascii	"uint8_t\000"
 5903      385F7400 
 5904              	.LASF123:
 5905 0229 706F7274 		.ascii	"portid\000"
 5905      696400
ARM GAS  /tmp/cczWCdZx.s 			page 107


 5906              	.LASF30:
 5907 0230 6576656E 		.ascii	"eventmask_t\000"
 5907      746D6173 
 5907      6B5F7400 
 5908              	.LASF58:
 5909 023c 636F6E74 		.ascii	"context\000"
 5909      65787400 
 5910              	.LASF149:
 5911 0244 70776D63 		.ascii	"pwmcnt_t\000"
 5911      6E745F74 
 5911      00
 5912              	.LASF80:
 5913 024d 52455345 		.ascii	"RESERVED0\000"
 5913      52564544 
 5913      3000
 5914              	.LASF83:
 5915 0257 52455345 		.ascii	"RESERVED1\000"
 5915      52564544 
 5915      3100
 5916              	.LASF2:
 5917 0261 756E7369 		.ascii	"unsigned char\000"
 5917      676E6564 
 5917      20636861 
 5917      7200
 5918              	.LASF90:
 5919 026f 52455345 		.ascii	"RESERVED3\000"
 5919      52564544 
 5919      3300
 5920              	.LASF94:
 5921 0279 52455345 		.ascii	"RESERVED4\000"
 5921      52564544 
 5921      3400
 5922              	.LASF97:
 5923 0283 52455345 		.ascii	"RESERVED5\000"
 5923      52564544 
 5923      3500
 5924              	.LASF99:
 5925 028d 52455345 		.ascii	"RESERVED6\000"
 5925      52564544 
 5925      3600
 5926              	.LASF198:
 5927 0297 4F726965 		.ascii	"Orientation\000"
 5927      6E746174 
 5927      696F6E00 
 5928              	.LASF230:
 5929 02a3 77726974 		.ascii	"write_index\000"
 5929      655F696E 
 5929      64657800 
 5930              	.LASF23:
 5931 02af 5F426F6F 		.ascii	"_Bool\000"
 5931      6C00
 5932              	.LASF87:
 5933 02b5 52455345 		.ascii	"RESERVED2\000"
 5933      52564544 
 5933      3200
 5934              	.LASF179:
 5935 02bf 666C6167 		.ascii	"flags\000"
ARM GAS  /tmp/cczWCdZx.s 			page 108


 5935      7300
 5936              	.LASF207:
 5937 02c5 77726974 		.ascii	"writepos\000"
 5937      65706F73 
 5937      00
 5938              	.LASF129:
 5939 02ce 43434D52 		.ascii	"CCMR1\000"
 5939      3100
 5940              	.LASF130:
 5941 02d4 43434D52 		.ascii	"CCMR2\000"
 5941      3200
 5942              	.LASF134:
 5943 02da 43434D52 		.ascii	"CCMR3\000"
 5943      3300
 5944              	.LASF241:
 5945 02e0 7365745F 		.ascii	"set_viewport\000"
 5945      76696577 
 5945      706F7274 
 5945      00
 5946              	.LASF68:
 5947 02ed 63686172 		.ascii	"char\000"
 5947      00
 5948              	.LASF107:
 5949 02f2 69736869 		.ascii	"ishift\000"
 5949      667400
 5950              	.LASF77:
 5951 02f9 41484231 		.ascii	"AHB1RSTR\000"
 5951      52535452 
 5951      00
 5952              	.LASF166:
 5953 0302 6F726965 		.ascii	"orientation_t\000"
 5953      6E746174 
 5953      696F6E5F 
 5953      7400
 5954              	.LASF35:
 5955 0310 705F7072 		.ascii	"p_prio\000"
 5955      696F00
 5956              	.LASF6:
 5957 0317 5F5F7569 		.ascii	"__uint16_t\000"
 5957      6E743136 
 5957      5F7400
 5958              	.LASF85:
 5959 0322 41484232 		.ascii	"AHB2ENR\000"
 5959      454E5200 
 5960              	.LASF160:
 5961 032a 47444953 		.ascii	"GDISP_ROTATE_0\000"
 5961      505F524F 
 5961      54415445 
 5961      5F3000
 5962              	.LASF66:
 5963 0339 77746F62 		.ascii	"wtobjp\000"
 5963      6A7000
 5964              	.LASF260:
 5965 0340 474E5520 		.ascii	"GNU C 4.9.3 20150303 (release) [ARM/embedded-4_9-br"
 5965      4320342E 
 5965      392E3320 
 5965      32303135 
ARM GAS  /tmp/cczWCdZx.s 			page 109


 5965      30333033 
 5966 0373 616E6368 		.ascii	"anch revision 221220] -mcpu=cortex-m4 -mfloat-abi=h"
 5966      20726576 
 5966      6973696F 
 5966      6E203232 
 5966      31323230 
 5967 03a6 61726420 		.ascii	"ard -mfpu=fpv4-sp-d16 -mno-thumb-interwork -mthumb "
 5967      2D6D6670 
 5967      753D6670 
 5967      76342D73 
 5967      702D6431 
 5968 03d9 2D676764 		.ascii	"-ggdb -fomit-frame-pointer -falign-functions=16 -ff"
 5968      62202D66 
 5968      6F6D6974 
 5968      2D667261 
 5968      6D652D70 
 5969 040c 756E6374 		.ascii	"unction-sections -fdata-sections -fno-common -fsing"
 5969      696F6E2D 
 5969      73656374 
 5969      696F6E73 
 5969      202D6664 
 5970 043f 6C652D70 		.ascii	"le-precision-constant\000"
 5970      72656369 
 5970      73696F6E 
 5970      2D636F6E 
 5970      7374616E 
 5971              	.LASF56:
 5972 0455 73746B61 		.ascii	"stkalign_t\000"
 5972      6C69676E 
 5972      5F7400
 5973              	.LASF186:
 5974 0460 70697865 		.ascii	"pixel_t\000"
 5974      6C5F7400 
 5975              	.LASF262:
 5976 0468 6D665F66 		.ascii	"mf_font_s\000"
 5976      6F6E745F 
 5976      7300
 5977              	.LASF105:
 5978 0472 73747265 		.ascii	"stream\000"
 5978      616D00
 5979              	.LASF194:
 5980 0479 6465696E 		.ascii	"deinit\000"
 5980      697400
 5981              	.LASF121:
 5982 0480 696F706F 		.ascii	"ioportmask_t\000"
 5982      72746D61 
 5982      736B5F74 
 5982      00
 5983              	.LASF98:
 5984 048d 42444352 		.ascii	"BDCR\000"
 5984      00
 5985              	.LASF214:
 5986 0492 66696C6C 		.ascii	"fill\000"
 5986      00
 5987              	.LASF259:
 5988 0497 47444953 		.ascii	"GDISPVMT_OnlyOne\000"
 5988      50564D54 
ARM GAS  /tmp/cczWCdZx.s 			page 110


 5988      5F4F6E6C 
 5988      794F6E65 
 5988      00
 5989              	.LASF148:
 5990 04a8 70776D6D 		.ascii	"pwmmode_t\000"
 5990      6F64655F 
 5990      7400
 5991              	.LASF237:
 5992 04b2 62756666 		.ascii	"buffer\000"
 5992      657200
 5993              	.LASF126:
 5994 04b9 494F4275 		.ascii	"IOBus\000"
 5994      7300
 5995              	.LASF57:
 5996 04bf 696E7463 		.ascii	"intctx\000"
 5996      747800
 5997              	.LASF49:
 5998 04c6 705F6570 		.ascii	"p_epending\000"
 5998      656E6469 
 5998      6E6700
 5999              	.LASF226:
 6000 04d1 7365745F 		.ascii	"set_backlight\000"
 6000      6261636B 
 6000      6C696768 
 6000      7400
 6001              	.LASF253:
 6002 04df 79636E74 		.ascii	"ycnt\000"
 6002      00
 6003              	.LASF173:
 6004 04e4 706F7765 		.ascii	"powermode_t\000"
 6004      726D6F64 
 6004      655F7400 
 6005              	.LASF111:
 6006 04f0 636C6561 		.ascii	"clear\000"
 6006      7200
 6007              	.LASF76:
 6008 04f6 43464752 		.ascii	"CFGR\000"
 6008      00
 6009              	.LASF182:
 6010 04fb 636C6970 		.ascii	"clipy0\000"
 6010      793000
 6011              	.LASF229:
 6012 0502 72656C65 		.ascii	"release_bus\000"
 6012      6173655F 
 6012      62757300 
 6013              	.LASF231:
 6014 050e 696E6465 		.ascii	"index\000"
 6014      7800
 6015              	.LASF238:
 6016 0514 61726561 		.ascii	"area\000"
 6016      00
 6017              	.LASF261:
 6018 0519 2F686F6D 		.ascii	"/home/makkmarci/workspace/ugfx/drivers/gdisp/SSD128"
 6018      652F6D61 
 6018      6B6B6D61 
 6018      7263692F 
 6018      776F726B 
ARM GAS  /tmp/cczWCdZx.s 			page 111


 6019 054c 392F6764 		.ascii	"9/gdisp_lld_SSD1289.c\000"
 6019      6973705F 
 6019      6C6C645F 
 6019      53534431 
 6019      3238392E 
 6020              	.LASF201:
 6021 0562 436F6E74 		.ascii	"Contrast\000"
 6021      72617374 
 6021      00
 6022              	.LASF13:
 6023 056b 5F5F7569 		.ascii	"__uint64_t\000"
 6023      6E743634 
 6023      5F7400
 6024              	.LASF11:
 6025 0576 6C6F6E67 		.ascii	"long unsigned int\000"
 6025      20756E73 
 6025      69676E65 
 6025      6420696E 
 6025      7400
 6026              	.LASF236:
 6027 0588 646D615F 		.ascii	"dma_with_noinc\000"
 6027      77697468 
 6027      5F6E6F69 
 6027      6E6300
 6028              	.LASF128:
 6029 0597 44494552 		.ascii	"DIER\000"
 6029      00
 6030              	.LASF169:
 6031 059c 706F7765 		.ascii	"powerOff\000"
 6031      724F6666 
 6031      00
 6032              	.LASF257:
 6033 05a5 5F73746D 		.ascii	"_stm32_dma_streams\000"
 6033      33325F64 
 6033      6D615F73 
 6033      74726561 
 6033      6D7300
 6034              	.LASF110:
 6035 05b8 73746D33 		.ascii	"stm32_dma_stream_t\000"
 6035      325F646D 
 6035      615F7374 
 6035      7265616D 
 6035      5F7400
 6036              	.LASF117:
 6037 05cb 4C434B52 		.ascii	"LCKR\000"
 6037      00
 6038              	.LASF137:
 6039 05d0 73746D33 		.ascii	"stm32_tim_t\000"
 6039      325F7469 
 6039      6D5F7400 
 6040              	.LASF146:
 6041 05dc 636C6F63 		.ascii	"clock\000"
 6041      6B00
 6042              	.LASF114:
 6043 05e2 4F535045 		.ascii	"OSPEEDR\000"
 6043      45445200 
 6044              	.LASF75:
ARM GAS  /tmp/cczWCdZx.s 			page 112


 6045 05ea 504C4C43 		.ascii	"PLLCFGR\000"
 6045      46475200 
 6046              	.LASF172:
 6047 05f2 706F7765 		.ascii	"powerOn\000"
 6047      724F6E00 
 6048              	.LASF10:
 6049 05fa 5F5F7569 		.ascii	"__uint32_t\000"
 6049      6E743332 
 6049      5F7400
 6050              	.LASF60:
 6051 0605 4D757465 		.ascii	"Mutex\000"
 6051      7800
 6052              	.LASF181:
 6053 060b 636C6970 		.ascii	"clipx0\000"
 6053      783000
 6054              	.LASF183:
 6055 0612 636C6970 		.ascii	"clipx1\000"
 6055      783100
 6056              	.LASF12:
 6057 0619 6C6F6E67 		.ascii	"long long int\000"
 6057      206C6F6E 
 6057      6720696E 
 6057      7400
 6058              	.LASF61:
 6059 0627 6D5F7175 		.ascii	"m_queue\000"
 6059      65756500 
 6060              	.LASF100:
 6061 062f 53534347 		.ascii	"SSCGR\000"
 6061      5200
 6062              	.LASF250:
 6063 0635 67646973 		.ascii	"gdisp_lld_read_stop\000"
 6063      705F6C6C 
 6063      645F7265 
 6063      61645F73 
 6063      746F7000 
 6064              	.LASF234:
 6065 0649 73657472 		.ascii	"setreadmode\000"
 6065      6561646D 
 6065      6F646500 
 6066              	.LASF82:
 6067 0655 41504232 		.ascii	"APB2RSTR\000"
 6067      52535452 
 6067      00
 6068              	.LASF211:
 6069 065e 72656164 		.ascii	"readcolor\000"
 6069      636F6C6F 
 6069      7200
 6070              	.LASF227:
 6071 0668 70657263 		.ascii	"percent\000"
 6071      656E7400 
 6072              	.LASF124:
 6073 0670 6D61736B 		.ascii	"mask\000"
 6073      00
 6074              	.LASF184:
 6075 0675 636C6970 		.ascii	"clipy1\000"
 6075      793100
 6076              	.LASF180:
ARM GAS  /tmp/cczWCdZx.s 			page 113


 6077 067c 6D757465 		.ascii	"mutex\000"
 6077      7800
 6078              	.LASF210:
 6079 0682 72656164 		.ascii	"readstart\000"
 6079      73746172 
 6079      7400
 6080              	.LASF256:
 6081 068c 49544D5F 		.ascii	"ITM_RxBuffer\000"
 6081      52784275 
 6081      66666572 
 6081      00
 6082              	.LASF217:
 6083 0699 636F6E74 		.ascii	"control\000"
 6083      726F6C00 
 6084              	.LASF153:
 6085 06a1 66726571 		.ascii	"frequency\000"
 6085      75656E63 
 6085      7900
 6086              	.LASF96:
 6087 06ab 41504232 		.ascii	"APB2LPENR\000"
 6087      4C50454E 
 6087      5200
 6088              	.LASF46:
 6089 06b5 705F7761 		.ascii	"p_waiting\000"
 6089      6974696E 
 6089      6700
 6090              	.LASF112:
 6091 06bf 4D4F4445 		.ascii	"MODER\000"
 6091      5200
 6092              	.LASF42:
 6093 06c5 705F666C 		.ascii	"p_flags\000"
 6093      61677300 
 6094              	.LASF108:
 6095 06cd 73656C66 		.ascii	"selfindex\000"
 6095      696E6465 
 6095      7800
 6096              	.LASF0:
 6097 06d7 756E7369 		.ascii	"unsigned int\000"
 6097      676E6564 
 6097      20696E74 
 6097      00
 6098              	.LASF73:
 6099 06e4 42544352 		.ascii	"BTCR\000"
 6099      00
 6100              	.LASF204:
 6101 06e9 6267636F 		.ascii	"bgcolor\000"
 6101      6C6F7200 
 6102              	.LASF52:
 6103 06f1 705F6D70 		.ascii	"p_mpool\000"
 6103      6F6F6C00 
 6104              	.LASF245:
 6105 06f9 67646973 		.ascii	"gdisp_lld_write_pos\000"
 6105      705F6C6C 
 6105      645F7772 
 6105      6974655F 
 6105      706F7300 
 6106              	.LASF154:
ARM GAS  /tmp/cczWCdZx.s 			page 114


 6107 070d 6368616E 		.ascii	"channels\000"
 6107      6E656C73 
 6107      00
 6108              	.LASF43:
 6109 0716 705F7265 		.ascii	"p_refs\000"
 6109      667300
 6110              	.LASF216:
 6111 071d 76736372 		.ascii	"vscroll\000"
 6111      6F6C6C00 
 6112              	.LASF147:
 6113 0725 70776D63 		.ascii	"pwmcallback_t\000"
 6113      616C6C62 
 6113      61636B5F 
 6113      7400
 6114              	.LASF54:
 6115 0733 54687265 		.ascii	"ThreadsList\000"
 6115      6164734C 
 6115      69737400 
 6116              	.LASF162:
 6117 073f 47444953 		.ascii	"GDISP_ROTATE_180\000"
 6117      505F524F 
 6117      54415445 
 6117      5F313830 
 6117      00
 6118              	.LASF142:
 6119 0750 50574D44 		.ascii	"PWMDriver\000"
 6119      72697665 
 6119      7200
 6120              	.LASF125:
 6121 075a 6F666673 		.ascii	"offset\000"
 6121      657400
 6122              	.LASF95:
 6123 0761 41504231 		.ascii	"APB1LPENR\000"
 6123      4C50454E 
 6123      5200
 6124              	.LASF263:
 6125 076b 72656164 		.ascii	"read_data\000"
 6125      5F646174 
 6125      6100
 6126              	.LASF219:
 6127 0775 73657463 		.ascii	"setclip\000"
 6127      6C697000 
 6128              	.LASF72:
 6129 077d 444D415F 		.ascii	"DMA_Stream_TypeDef\000"
 6129      53747265 
 6129      616D5F54 
 6129      79706544 
 6129      656600
 6130              	.LASF45:
 6131 0790 705F7469 		.ascii	"p_time\000"
 6131      6D6500
 6132              	.LASF203:
 6133 0797 666F6E74 		.ascii	"font\000"
 6133      00
 6134              	.LASF136:
 6135 079c 43435236 		.ascii	"CCR6\000"
 6135      00
ARM GAS  /tmp/cczWCdZx.s 			page 115


 6136              	.LASF243:
 6137 07a1 67646973 		.ascii	"gdisp_lld_write_color\000"
 6137      705F6C6C 
 6137      645F7772 
 6137      6974655F 
 6137      636F6C6F 
 6138              	.LASF218:
 6139 07b7 71756572 		.ascii	"query\000"
 6139      7900
 6140              	.LASF79:
 6141 07bd 41484233 		.ascii	"AHB3RSTR\000"
 6141      52535452 
 6141      00
 6142              	.LASF171:
 6143 07c6 706F7765 		.ascii	"powerDeepSleep\000"
 6143      72446565 
 6143      70536C65 
 6143      657000
 6144              	.LASF51:
 6145 07d5 705F7265 		.ascii	"p_realprio\000"
 6145      616C7072 
 6145      696F00
 6146              	.LASF240:
 6147 07e0 7365745F 		.ascii	"set_cursor\000"
 6147      63757273 
 6147      6F7200
 6148              	.LASF81:
 6149 07eb 41504231 		.ascii	"APB1RSTR\000"
 6149      52535452 
 6149      00
 6150              	.LASF88:
 6151 07f4 41504231 		.ascii	"APB1ENR\000"
 6151      454E5200 
 6152              	.LASF235:
 6153 07fc 73657477 		.ascii	"setwritemode\000"
 6153      72697465 
 6153      6D6F6465 
 6153      00
 6154              	.LASF14:
 6155 0809 6C6F6E67 		.ascii	"long long unsigned int\000"
 6155      206C6F6E 
 6155      6720756E 
 6155      7369676E 
 6155      65642069 
 6156              	.LASF139:
 6157 0820 50574D5F 		.ascii	"PWM_STOP\000"
 6157      53544F50 
 6157      00
 6158              	.LASF38:
 6159 0829 705F6F6C 		.ascii	"p_older\000"
 6159      64657200 
 6160              	.LASF17:
 6161 0831 75696E74 		.ascii	"uint16_t\000"
 6161      31365F74 
 6161      00
 6162              	.LASF195:
 6163 083a 47444953 		.ascii	"GDISPControl\000"
ARM GAS  /tmp/cczWCdZx.s 			page 116


 6163      50436F6E 
 6163      74726F6C 
 6163      00
 6164              	.LASF29:
 6165 0847 6D73675F 		.ascii	"msg_t\000"
 6165      7400
 6166              	.LASF131:
 6167 084d 43434552 		.ascii	"CCER\000"
 6167      00
 6168              	.LASF27:
 6169 0852 74736C69 		.ascii	"tslices_t\000"
 6169      6365735F 
 6169      7400
 6170              	.LASF119:
 6171 085c 41465248 		.ascii	"AFRH\000"
 6171      00
 6172              	.LASF118:
 6173 0861 4146524C 		.ascii	"AFRL\000"
 6173      00
 6174              	.LASF109:
 6175 0866 76656374 		.ascii	"vector\000"
 6175      6F7200
 6176              	.LASF127:
 6177 086d 534D4352 		.ascii	"SMCR\000"
 6177      00
 6178              	.LASF145:
 6179 0872 70657269 		.ascii	"period\000"
 6179      6F6400
 6180              	.LASF159:
 6181 0879 666F6E74 		.ascii	"font_t\000"
 6181      5F7400
 6182              	.LASF93:
 6183 0880 41484233 		.ascii	"AHB3LPENR\000"
 6183      4C50454E 
 6183      5200
 6184              	.LASF178:
 6185 088a 636F6E74 		.ascii	"controllerdisplay\000"
 6185      726F6C6C 
 6185      65726469 
 6185      73706C61 
 6185      7900
 6186              	.LASF4:
 6187 089c 5F5F696E 		.ascii	"__int16_t\000"
 6187      7431365F 
 6187      7400
 6188              	.LASF224:
 6189 08a6 706F7374 		.ascii	"post_init_board\000"
 6189      5F696E69 
 6189      745F626F 
 6189      61726400 
 6190              	.LASF113:
 6191 08b6 4F545950 		.ascii	"OTYPER\000"
 6191      455200
 6192              	.LASF202:
 6193 08bd 636F6C6F 		.ascii	"color\000"
 6193      7200
 6194              	.LASF163:
ARM GAS  /tmp/cczWCdZx.s 			page 117


 6195 08c3 47444953 		.ascii	"GDISP_ROTATE_270\000"
 6195      505F524F 
 6195      54415445 
 6195      5F323730 
 6195      00
 6196              	.LASF196:
 6197 08d4 57696474 		.ascii	"Width\000"
 6197      6800
 6198              	.LASF192:
 6199 08da 696E6974 		.ascii	"init\000"
 6199      00
 6200              	.LASF24:
 6201 08df 746D6F64 		.ascii	"tmode_t\000"
 6201      655F7400 
 6202              	.LASF247:
 6203 08e7 64756D6D 		.ascii	"dummy\000"
 6203      7900
 6204              	.LASF84:
 6205 08ed 41484231 		.ascii	"AHB1ENR\000"
 6205      454E5200 
 6206              	.LASF254:
 6207 08f5 67646973 		.ascii	"gdisp_lld_control\000"
 6207      705F6C6C 
 6207      645F636F 
 6207      6E74726F 
 6207      6C00
 6208              	.LASF252:
 6209 0907 67646973 		.ascii	"gdisp_lld_blit_area\000"
 6209      705F6C6C 
 6209      645F626C 
 6209      69745F61 
 6209      72656100 
 6210              	.LASF157:
 6211 091b 6766784D 		.ascii	"gfxMutex\000"
 6211      75746578 
 6211      00
 6212              	.LASF86:
 6213 0924 41484233 		.ascii	"AHB3ENR\000"
 6213      454E5200 
 6214              	.LASF176:
 6215 092c 626F6172 		.ascii	"board\000"
 6215      6400
 6216              	.LASF78:
 6217 0932 41484232 		.ascii	"AHB2RSTR\000"
 6217      52535452 
 6217      00
 6218              	.LASF70:
 6219 093b 4D304152 		.ascii	"M0AR\000"
 6219      00
 6220              	.LASF185:
 6221 0940 636F6C6F 		.ascii	"color_t\000"
 6221      725F7400 
 6222              	.LASF213:
 6223 0948 70697865 		.ascii	"pixel\000"
 6223      6C00
 6224              	.LASF21:
 6225 094e 75696E74 		.ascii	"uint_fast8_t\000"
ARM GAS  /tmp/cczWCdZx.s 			page 118


 6225      5F666173 
 6225      74385F74 
 6225      00
 6226              	.LASF212:
 6227 095b 72656164 		.ascii	"readstop\000"
 6227      73746F70 
 6227      00
 6228              	.LASF140:
 6229 0964 50574D5F 		.ascii	"PWM_READY\000"
 6229      52454144 
 6229      5900
 6230              	.LASF104:
 6231 096e 5243435F 		.ascii	"RCC_TypeDef\000"
 6231      54797065 
 6231      44656600 
 6232              	.LASF5:
 6233 097a 73686F72 		.ascii	"short int\000"
 6233      7420696E 
 6233      7400
 6234              	.LASF191:
 6235 0984 6F626A73 		.ascii	"objsize\000"
 6235      697A6500 
 6236              	.LASF20:
 6237 098c 75696E74 		.ascii	"uint64_t\000"
 6237      36345F74 
 6237      00
 6238              	.LASF209:
 6239 0995 77726974 		.ascii	"writestop\000"
 6239      6573746F 
 6239      7000
 6240              	.LASF150:
 6241 099f 6D6F6465 		.ascii	"mode\000"
 6241      00
 6242              	.LASF167:
 6243 09a4 6F726965 		.ascii	"orientation\000"
 6243      6E746174 
 6243      696F6E00 
 6244              	.LASF16:
 6245 09b0 696E7431 		.ascii	"int16_t\000"
 6245      365F7400 
 6246              	.LASF215:
 6247 09b8 626C6974 		.ascii	"blit\000"
 6247      00
 6248              	.LASF200:
 6249 09bd 4261636B 		.ascii	"Backlight\000"
 6249      6C696768 
 6249      7400
 6250              	.LASF22:
 6251 09c7 626F6F6C 		.ascii	"bool_t\000"
 6251      5F7400
 6252              	.LASF116:
 6253 09ce 42535252 		.ascii	"BSRR\000"
 6253      00
 6254              	.LASF32:
 6255 09d3 54687265 		.ascii	"Thread\000"
 6255      616400
 6256              	.LASF120:
ARM GAS  /tmp/cczWCdZx.s 			page 119


 6257 09da 4750494F 		.ascii	"GPIO_TypeDef\000"
 6257      5F547970 
 6257      65446566 
 6257      00
 6258              	.LASF156:
 6259 09e7 50574D43 		.ascii	"PWMConfig\000"
 6259      6F6E6669 
 6259      6700
 6260              	.LASF26:
 6261 09f1 74726566 		.ascii	"trefs_t\000"
 6261      735F7400 
 6262              	.LASF170:
 6263 09f9 706F7765 		.ascii	"powerSleep\000"
 6263      72536C65 
 6263      657000
 6264              	.LASF206:
 6265 0a04 77726974 		.ascii	"writestart\000"
 6265      65737461 
 6265      727400
 6266              	.LASF258:
 6267 0a0f 50574D44 		.ascii	"PWMD3\000"
 6267      3300
 6268              	.LASF141:
 6269 0a15 70776D73 		.ascii	"pwmstate_t\000"
 6269      74617465 
 6269      5F7400
 6270              	.LASF132:
 6271 0a20 42445452 		.ascii	"BDTR\000"
 6271      00
 6272              	.LASF19:
 6273 0a25 75696E74 		.ascii	"uint32_t\000"
 6273      33325F74 
 6273      00
 6274              	.LASF53:
 6275 0a2e 54687265 		.ascii	"ThreadsQueue\000"
 6275      61647351 
 6275      75657565 
 6275      00
 6276              	.LASF102:
 6277 0a3b 504C4C53 		.ascii	"PLLSAICFGR\000"
 6277      41494346 
 6277      475200
 6278              	.LASF255:
 6279 0a46 70776D63 		.ascii	"pwmcfg\000"
 6279      666700
 6280              	.LASF244:
 6281 0a4d 67646973 		.ascii	"gdisp_lld_write_stop\000"
 6281      705F6C6C 
 6281      645F7772 
 6281      6974655F 
 6281      73746F70 
 6282              	.LASF64:
 6283 0a62 7264796D 		.ascii	"rdymsg\000"
 6283      736700
 6284              	.LASF223:
 6285 0a69 696E6974 		.ascii	"init_board\000"
 6285      5F626F61 
ARM GAS  /tmp/cczWCdZx.s 			page 120


 6285      726400
 6286              	.LASF7:
 6287 0a74 73686F72 		.ascii	"short unsigned int\000"
 6287      7420756E 
 6287      7369676E 
 6287      65642069 
 6287      6E7400
 6288              	.LASF74:
 6289 0a87 46534D43 		.ascii	"FSMC_Bank1_TypeDef\000"
 6289      5F42616E 
 6289      6B315F54 
 6289      79706544 
 6289      656600
 6290              	.LASF225:
 6291 0a9a 73657470 		.ascii	"setpin_reset\000"
 6291      696E5F72 
 6291      65736574 
 6291      00
 6292              	.LASF161:
 6293 0aa7 47444953 		.ascii	"GDISP_ROTATE_90\000"
 6293      505F524F 
 6293      54415445 
 6293      5F393000 
 6294              	.LASF40:
 6295 0ab7 705F7374 		.ascii	"p_stklimit\000"
 6295      6B6C696D 
 6295      697400
 6296              	.LASF221:
 6297 0ac2 62757344 		.ascii	"busD\000"
 6297      00
 6298              	.LASF222:
 6299 0ac7 62757345 		.ascii	"busE\000"
 6299      00
 6300              	.LASF8:
 6301 0acc 5F5F696E 		.ascii	"__int32_t\000"
 6301      7433325F 
 6301      7400
 6302              	.LASF189:
 6303 0ad6 47447269 		.ascii	"GDriverVMT\000"
 6303      76657256 
 6303      4D5400
 6304              	.LASF208:
 6305 0ae1 77726974 		.ascii	"writecolor\000"
 6305      65636F6C 
 6305      6F7200
 6306              	.LASF232:
 6307 0aec 77726974 		.ascii	"write_data\000"
 6307      655F6461 
 6307      746100
 6308              	.LASF69:
 6309 0af7 4E445452 		.ascii	"NDTR\000"
 6309      00
 6310              	.LASF106:
 6311 0afc 69666372 		.ascii	"ifcr\000"
 6311      00
 6312              	.LASF165:
 6313 0b01 47444953 		.ascii	"GDISP_ROTATE_LANDSCAPE\000"
ARM GAS  /tmp/cczWCdZx.s 			page 121


 6313      505F524F 
 6313      54415445 
 6313      5F4C414E 
 6313      44534341 
 6314              	.LASF39:
 6315 0b18 705F6E61 		.ascii	"p_name\000"
 6315      6D6500
 6316              	.LASF177:
 6317 0b1f 73797374 		.ascii	"systemdisplay\000"
 6317      656D6469 
 6317      73706C61 
 6317      7900
 6318              	.LASF233:
 6319 0b2d 64617461 		.ascii	"data\000"
 6319      00
 6320              	.LASF63:
 6321 0b32 6D5F6E65 		.ascii	"m_next\000"
 6321      787400
 6322              	.LASF48:
 6323 0b39 705F6D73 		.ascii	"p_msg\000"
 6323      6700
 6324              	.LASF41:
 6325 0b3f 705F7374 		.ascii	"p_state\000"
 6325      61746500 
 6326              		.ident	"GCC: (GNU Tools for ARM Embedded Processors) 4.9.3 20150303 (release) [ARM/embedded-4_9-br
ARM GAS  /tmp/cczWCdZx.s 			page 122


DEFINED SYMBOLS
                            *ABS*:00000000 gdisp_lld_SSD1289.c
     /tmp/cczWCdZx.s:25     .rodata.GDISPVMT_OnlyOne:00000000 GDISPVMT_OnlyOne
     /tmp/cczWCdZx.s:22     .rodata.GDISPVMT_OnlyOne:00000000 $d
     /tmp/cczWCdZx.s:1163   .text.gdisp_lld_init:00000000 gdisp_lld_init
     /tmp/cczWCdZx.s:1620   .text.gdisp_lld_write_start:00000000 gdisp_lld_write_start
     /tmp/cczWCdZx.s:1716   .text.gdisp_lld_write_pos:00000000 gdisp_lld_write_pos
     /tmp/cczWCdZx.s:1653   .text.gdisp_lld_write_color:00000000 gdisp_lld_write_color
     /tmp/cczWCdZx.s:1686   .text.gdisp_lld_write_stop:00000000 gdisp_lld_write_stop
     /tmp/cczWCdZx.s:1746   .text.gdisp_lld_read_start:00000000 gdisp_lld_read_start
     /tmp/cczWCdZx.s:1793   .text.gdisp_lld_read_color:00000000 gdisp_lld_read_color
     /tmp/cczWCdZx.s:1828   .text.gdisp_lld_read_stop:00000000 gdisp_lld_read_stop
     /tmp/cczWCdZx.s:1861   .text.gdisp_lld_fill_area:00000000 gdisp_lld_fill_area
     /tmp/cczWCdZx.s:1917   .text.gdisp_lld_blit_area:00000000 gdisp_lld_blit_area
     /tmp/cczWCdZx.s:2029   .text.gdisp_lld_control:00000000 gdisp_lld_control
     /tmp/cczWCdZx.s:52     .rodata.pwmcfg:00000000 $d
     /tmp/cczWCdZx.s:55     .rodata.pwmcfg:00000000 pwmcfg
     /tmp/cczWCdZx.s:71     .rodata:00000000 $d
     /tmp/cczWCdZx.s:82     .text.init_board:00000000 $t
     /tmp/cczWCdZx.s:87     .text.init_board:00000000 init_board
     /tmp/cczWCdZx.s:192    .text.init_board:000000b0 $d
     /tmp/cczWCdZx.s:206    .text.post_init_board:00000000 $t
     /tmp/cczWCdZx.s:211    .text.post_init_board:00000000 post_init_board
     /tmp/cczWCdZx.s:230    .text.setpin_reset:00000000 $t
     /tmp/cczWCdZx.s:235    .text.setpin_reset:00000000 setpin_reset
     /tmp/cczWCdZx.s:256    .text.set_backlight:00000000 $t
     /tmp/cczWCdZx.s:261    .text.set_backlight:00000000 set_backlight
     /tmp/cczWCdZx.s:290    .text.set_backlight:00000024 $d
     /tmp/cczWCdZx.s:295    .text.acquire_bus:00000000 $t
     /tmp/cczWCdZx.s:300    .text.acquire_bus:00000000 acquire_bus
     /tmp/cczWCdZx.s:319    .text.release_bus:00000000 $t
     /tmp/cczWCdZx.s:324    .text.release_bus:00000000 release_bus
     /tmp/cczWCdZx.s:343    .text.write_index:00000000 $t
     /tmp/cczWCdZx.s:348    .text.write_index:00000000 write_index
     /tmp/cczWCdZx.s:373    .text.write_data:00000000 $t
     /tmp/cczWCdZx.s:378    .text.write_data:00000000 write_data
     /tmp/cczWCdZx.s:402    .text.write_data:00000018 $d
     /tmp/cczWCdZx.s:407    .text.setreadmode:00000000 $t
     /tmp/cczWCdZx.s:412    .text.setreadmode:00000000 setreadmode
     /tmp/cczWCdZx.s:434    .text.setreadmode:00000010 $d
     /tmp/cczWCdZx.s:439    .text.setwritemode:00000000 $t
     /tmp/cczWCdZx.s:444    .text.setwritemode:00000000 setwritemode
     /tmp/cczWCdZx.s:466    .text.setwritemode:00000010 $d
     /tmp/cczWCdZx.s:471    .text.read_data:00000000 $t
     /tmp/cczWCdZx.s:476    .text.read_data:00000000 read_data
     /tmp/cczWCdZx.s:499    .text.read_data:00000010 $d
     /tmp/cczWCdZx.s:504    .text.dma_with_noinc:00000000 $t
     /tmp/cczWCdZx.s:509    .text.dma_with_noinc:00000000 dma_with_noinc
     /tmp/cczWCdZx.s:604    .text.dma_with_noinc:000000a4 $d
     /tmp/cczWCdZx.s:609    .text.dma_with_inc:00000000 $t
     /tmp/cczWCdZx.s:614    .text.dma_with_inc:00000000 dma_with_inc
     /tmp/cczWCdZx.s:709    .text.dma_with_inc:000000a4 $d
     /tmp/cczWCdZx.s:714    .text.set_cursor:00000000 $t
     /tmp/cczWCdZx.s:719    .text.set_cursor:00000000 set_cursor
     /tmp/cczWCdZx.s:872    .text.set_viewport:00000000 $t
     /tmp/cczWCdZx.s:877    .text.set_viewport:00000000 set_viewport
     /tmp/cczWCdZx.s:1157   .text.gdisp_lld_init:00000000 $t
ARM GAS  /tmp/cczWCdZx.s 			page 123


     /tmp/cczWCdZx.s:1614   .text.gdisp_lld_write_start:00000000 $t
     /tmp/cczWCdZx.s:1647   .text.gdisp_lld_write_color:00000000 $t
     /tmp/cczWCdZx.s:1680   .text.gdisp_lld_write_stop:00000000 $t
     /tmp/cczWCdZx.s:1710   .text.gdisp_lld_write_pos:00000000 $t
     /tmp/cczWCdZx.s:1740   .text.gdisp_lld_read_start:00000000 $t
     /tmp/cczWCdZx.s:1787   .text.gdisp_lld_read_color:00000000 $t
     /tmp/cczWCdZx.s:1822   .text.gdisp_lld_read_stop:00000000 $t
     /tmp/cczWCdZx.s:1855   .text.gdisp_lld_fill_area:00000000 $t
     /tmp/cczWCdZx.s:1911   .text.gdisp_lld_blit_area:00000000 $t
     /tmp/cczWCdZx.s:2023   .text.gdisp_lld_control:00000000 $t
                     .debug_frame:00000010 $d
     /tmp/cczWCdZx.s:205    .text.init_board:000000d8 $t
     /tmp/cczWCdZx.s:294    .text.set_backlight:00000028 $t
     /tmp/cczWCdZx.s:406    .text.write_data:0000001c $t
     /tmp/cczWCdZx.s:438    .text.setreadmode:00000014 $t
     /tmp/cczWCdZx.s:470    .text.setwritemode:00000014 $t
     /tmp/cczWCdZx.s:503    .text.read_data:00000014 $t
     /tmp/cczWCdZx.s:608    .text.dma_with_noinc:000000a8 $t
     /tmp/cczWCdZx.s:713    .text.dma_with_inc:000000a8 $t

UNDEFINED SYMBOLS
_gdispInitDriver
_gdispPostInitDriver
_gdispDeInitDriver
dmaStreamAllocate
port_halt
palSetBusMode
pwmStart
_pal_lld_setgroupmode
pwmEnableChannel
_stm32_dma_streams
PWMD3
gfxSleepMilliseconds
gfxSleepMicroseconds
