ARM GAS  /tmp/ccebuEU3.s 			page 1


   1              		.syntax unified
   2              		.cpu cortex-m4
   3              		.eabi_attribute 27, 3
   4              		.eabi_attribute 28, 1
   5              		.fpu fpv4-sp-d16
   6              		.eabi_attribute 20, 1
   7              		.eabi_attribute 21, 1
   8              		.eabi_attribute 23, 3
   9              		.eabi_attribute 24, 1
  10              		.eabi_attribute 25, 1
  11              		.eabi_attribute 26, 1
  12              		.eabi_attribute 30, 2
  13              		.eabi_attribute 34, 1
  14              		.eabi_attribute 18, 4
  15              		.thumb
  16              		.file	"gdisp_lld_SSD1289.c"
  17              		.text
  18              	.Ltext0:
  19              		.cfi_sections	.debug_frame
  20              		.section	.text.set_cursor,"ax",%progbits
  21              		.align	2
  22              		.p2align 4,,15
  23              		.thumb
  24              		.thumb_func
  25              		.type	set_cursor, %function
  26              	set_cursor:
  27              	.LFB131:
  28              		.file 1 "/home/makkmarci/devel/ugfx/drivers/gdisp/SSD1289/gdisp_lld_SSD1289.c"
  29              		.loc 1 43 0
  30              		.cfi_startproc
  31              		@ args = 0, pretend = 0, frame = 0
  32              		@ frame_needed = 0, uses_anonymous_args = 0
  33              		@ link register save eliminated.
  34              	.LVL0:
  35              		.loc 1 49 0
  36 0000 8388     		ldrh	r3, [r0, #4]
  37 0002 B42B     		cmp	r3, #180
  38              		.loc 1 43 0
  39 0004 10B4     		push	{r4}
  40              		.cfi_def_cfa_offset 4
  41              		.cfi_offset 4, -4
  42              		.loc 1 49 0
  43 0006 3CD0     		beq	.L3
  44 0008 B3F5877F 		cmp	r3, #270
  45 000c 28D0     		beq	.L4
  46 000e 5A2B     		cmp	r3, #90
  47 0010 14D0     		beq	.L5
  48              	.LVL1:
  49              	.LBB362:
  50              	.LBB363:
  51              		.file 2 "/home/makkmarci/devel/ugfx/boards/addons/gdisp/board_SSD1289_stm32f4discovery.h"
  52              		.loc 2 128 0
  53 0012 4FF0C042 		mov	r2, #1610612736
  54 0016 4E23     		movs	r3, #78
  55 0018 1380     		strh	r3, [r2]	@ movhi
  56              	.LBE363:
  57              	.LBE362:
ARM GAS  /tmp/ccebuEU3.s 			page 2


  58              	.LBB364:
  59              	.LBB365:
  60              		.loc 2 133 0
  61 001a 244B     		ldr	r3, .L8
  62              	.LBE365:
  63              	.LBE364:
  64              		.loc 1 52 0
  65 001c 90F82010 		ldrb	r1, [r0, #32]	@ zero_extendqisi2
  66              	.LVL2:
  67              	.LBB367:
  68              	.LBB366:
  69              		.loc 2 133 0
  70 0020 1980     		strh	r1, [r3]	@ movhi
  71              	.LVL3:
  72              	.LBE366:
  73              	.LBE367:
  74              	.LBB368:
  75              	.LBB369:
  76              		.loc 2 128 0
  77 0022 4F21     		movs	r1, #79
  78              	.LVL4:
  79 0024 1180     		strh	r1, [r2]	@ movhi
  80              	.LBE369:
  81              	.LBE368:
  82              		.loc 1 53 0
  83 0026 428C     		ldrh	r2, [r0, #34]
  84 0028 C2F30802 		ubfx	r2, r2, #0, #9
  85              	.LVL5:
  86              	.LBB370:
  87              	.LBB371:
  88              		.loc 2 133 0
  89 002c 1A80     		strh	r2, [r3]	@ movhi
  90              	.LVL6:
  91              	.L6:
  92              	.LBE371:
  93              	.LBE370:
  94              	.LBB372:
  95              	.LBB373:
  96              		.loc 2 128 0
  97 002e 4FF0C043 		mov	r3, #1610612736
  98 0032 2222     		movs	r2, #34
  99 0034 1A80     		strh	r2, [r3]	@ movhi
 100              	.LBE373:
 101              	.LBE372:
 102              		.loc 1 69 0
 103 0036 5DF8044B 		ldr	r4, [sp], #4
 104 003a 7047     		bx	lr
 105              	.LVL7:
 106              	.L5:
 107              	.LBB374:
 108              	.LBB375:
 109              		.loc 2 128 0
 110 003c 4FF0C043 		mov	r3, #1610612736
 111 0040 4E22     		movs	r2, #78
 112 0042 1A80     		strh	r2, [r3]	@ movhi
 113              	.LBE375:
 114              	.LBE374:
ARM GAS  /tmp/ccebuEU3.s 			page 3


 115              	.LBB376:
 116              	.LBB377:
 117              		.loc 2 133 0
 118 0044 194A     		ldr	r2, .L8
 119              	.LBE377:
 120              	.LBE376:
 121              		.loc 1 56 0
 122 0046 90F82210 		ldrb	r1, [r0, #34]	@ zero_extendqisi2
 123              	.LVL8:
 124              	.LBB379:
 125              	.LBB378:
 126              		.loc 2 133 0
 127 004a 1180     		strh	r1, [r2]	@ movhi
 128              	.LVL9:
 129              	.LBE378:
 130              	.LBE379:
 131              	.LBB380:
 132              	.LBB381:
 133              		.loc 2 128 0
 134 004c 4F21     		movs	r1, #79
 135              	.LVL10:
 136 004e 1980     		strh	r1, [r3]	@ movhi
 137              	.LBE381:
 138              	.LBE380:
 139              		.loc 1 57 0
 140 0050 038C     		ldrh	r3, [r0, #32]
 141 0052 C3F59F73 		rsb	r3, r3, #318
 142 0056 0133     		adds	r3, r3, #1
 143 0058 C3F30803 		ubfx	r3, r3, #0, #9
 144              	.LVL11:
 145              	.LBB382:
 146              	.LBB383:
 147              		.loc 2 133 0
 148 005c 1380     		strh	r3, [r2]	@ movhi
 149 005e E6E7     		b	.L6
 150              	.LVL12:
 151              	.L4:
 152              	.LBE383:
 153              	.LBE382:
 154              	.LBB384:
 155              	.LBB385:
 156              		.loc 2 128 0
 157 0060 4FF0C042 		mov	r2, #1610612736
 158 0064 4E23     		movs	r3, #78
 159 0066 1380     		strh	r3, [r2]	@ movhi
 160              	.LBE385:
 161              	.LBE384:
 162              		.loc 1 64 0
 163 0068 448C     		ldrh	r4, [r0, #34]
 164              	.LBB386:
 165              	.LBB387:
 166              		.loc 2 133 0
 167 006a 104B     		ldr	r3, .L8
 168              	.LBE387:
 169              	.LBE386:
 170              		.loc 1 64 0
 171 006c C4F1EF04 		rsb	r4, r4, #239
ARM GAS  /tmp/ccebuEU3.s 			page 4


 172 0070 E4B2     		uxtb	r4, r4
 173              	.LVL13:
 174              	.LBB389:
 175              	.LBB390:
 176              		.loc 2 128 0
 177 0072 4F21     		movs	r1, #79
 178              	.LBE390:
 179              	.LBE389:
 180              	.LBB392:
 181              	.LBB388:
 182              		.loc 2 133 0
 183 0074 1C80     		strh	r4, [r3]	@ movhi
 184              	.LVL14:
 185              	.LBE388:
 186              	.LBE392:
 187              	.LBB393:
 188              	.LBB391:
 189              		.loc 2 128 0
 190 0076 1180     		strh	r1, [r2]	@ movhi
 191              	.LBE391:
 192              	.LBE393:
 193              		.loc 1 65 0
 194 0078 028C     		ldrh	r2, [r0, #32]
 195 007a C2F30802 		ubfx	r2, r2, #0, #9
 196              	.LVL15:
 197              	.LBB394:
 198              	.LBB395:
 199              		.loc 2 133 0
 200 007e 1A80     		strh	r2, [r3]	@ movhi
 201 0080 D5E7     		b	.L6
 202              	.LVL16:
 203              	.L3:
 204              	.LBE395:
 205              	.LBE394:
 206              	.LBB396:
 207              	.LBB397:
 208              		.loc 2 128 0
 209 0082 4FF0C043 		mov	r3, #1610612736
 210 0086 4E22     		movs	r2, #78
 211 0088 1A80     		strh	r2, [r3]	@ movhi
 212              	.LBE397:
 213              	.LBE396:
 214              		.loc 1 60 0
 215 008a 048C     		ldrh	r4, [r0, #32]
 216              	.LBB398:
 217              	.LBB399:
 218              		.loc 2 133 0
 219 008c 074A     		ldr	r2, .L8
 220              	.LBE399:
 221              	.LBE398:
 222              		.loc 1 60 0
 223 008e C4F1EF04 		rsb	r4, r4, #239
 224 0092 E4B2     		uxtb	r4, r4
 225              	.LVL17:
 226              	.LBB401:
 227              	.LBB402:
 228              		.loc 2 128 0
ARM GAS  /tmp/ccebuEU3.s 			page 5


 229 0094 4F21     		movs	r1, #79
 230              	.LBE402:
 231              	.LBE401:
 232              	.LBB404:
 233              	.LBB400:
 234              		.loc 2 133 0
 235 0096 1480     		strh	r4, [r2]	@ movhi
 236              	.LVL18:
 237              	.LBE400:
 238              	.LBE404:
 239              	.LBB405:
 240              	.LBB403:
 241              		.loc 2 128 0
 242 0098 1980     		strh	r1, [r3]	@ movhi
 243              	.LBE403:
 244              	.LBE405:
 245              		.loc 1 61 0
 246 009a 438C     		ldrh	r3, [r0, #34]
 247 009c C3F59F73 		rsb	r3, r3, #318
 248 00a0 0133     		adds	r3, r3, #1
 249 00a2 C3F30803 		ubfx	r3, r3, #0, #9
 250              	.LVL19:
 251              	.LBB406:
 252              	.LBB407:
 253              		.loc 2 133 0
 254 00a6 1380     		strh	r3, [r2]	@ movhi
 255 00a8 C1E7     		b	.L6
 256              	.L9:
 257 00aa 00BF     		.align	2
 258              	.L8:
 259 00ac 00000260 		.word	1610743808
 260              	.LBE407:
 261              	.LBE406:
 262              		.cfi_endproc
 263              	.LFE131:
 264              		.size	set_cursor, .-set_cursor
 265              		.section	.text.set_viewport,"ax",%progbits
 266              		.align	2
 267              		.p2align 4,,15
 268              		.thumb
 269              		.thumb_func
 270              		.type	set_viewport, %function
 271              	set_viewport:
 272              	.LFB132:
 273              		.loc 1 71 0
 274              		.cfi_startproc
 275              		@ args = 0, pretend = 0, frame = 0
 276              		@ frame_needed = 0, uses_anonymous_args = 0
 277              		@ link register save eliminated.
 278              	.LVL20:
 279              		.loc 1 81 0
 280 0000 8388     		ldrh	r3, [r0, #4]
 281 0002 B42B     		cmp	r3, #180
 282              		.loc 1 71 0
 283 0004 30B4     		push	{r4, r5}
 284              		.cfi_def_cfa_offset 8
 285              		.cfi_offset 4, -8
ARM GAS  /tmp/ccebuEU3.s 			page 6


 286              		.cfi_offset 5, -4
 287              	.LBB408:
 288              	.LBB409:
 289              		.loc 2 128 0
 290 0006 4FF0C042 		mov	r2, #1610612736
 291              	.LBE409:
 292              	.LBE408:
 293              		.loc 1 81 0
 294 000a 66D0     		beq	.L12
 295 000c B3F5877F 		cmp	r3, #270
 296 0010 42D0     		beq	.L13
 297 0012 5A2B     		cmp	r3, #90
 298              	.LBB411:
 299              	.LBB412:
 300              		.loc 2 128 0
 301 0014 4FF04403 		mov	r3, #68
 302 0018 1380     		strh	r3, [r2]	@ movhi
 303              	.LBE412:
 304              	.LBE411:
 305              		.loc 1 81 0
 306 001a 1CD0     		beq	.L14
 307              	.LVL21:
 308              		.loc 1 84 0
 309 001c 018C     		ldrh	r1, [r0, #32]
 310 001e B0F92440 		ldrsh	r4, [r0, #36]
 311              	.LBB413:
 312              	.LBB414:
 313              		.loc 2 133 0
 314 0022 404B     		ldr	r3, .L16
 315              	.LBE414:
 316              	.LBE413:
 317              		.loc 1 84 0
 318 0024 04FA81F4 		sxtah	r4, r4, r1
 319 0028 013C     		subs	r4, r4, #1
 320 002a C9B2     		uxtb	r1, r1
 321 002c 41EA0421 		orr	r1, r1, r4, lsl #8
 322 0030 89B2     		uxth	r1, r1
 323              	.LVL22:
 324              	.LBB416:
 325              	.LBB417:
 326              		.loc 2 128 0
 327 0032 4524     		movs	r4, #69
 328              	.LBE417:
 329              	.LBE416:
 330              	.LBB419:
 331              	.LBB415:
 332              		.loc 2 133 0
 333 0034 1980     		strh	r1, [r3]	@ movhi
 334              	.LVL23:
 335              	.LBE415:
 336              	.LBE419:
 337              	.LBB420:
 338              	.LBB418:
 339              		.loc 2 128 0
 340 0036 1480     		strh	r4, [r2]	@ movhi
 341              	.LBE418:
 342              	.LBE420:
ARM GAS  /tmp/ccebuEU3.s 			page 7


 343              		.loc 1 85 0
 344 0038 448C     		ldrh	r4, [r0, #34]
 345              	.LBB421:
 346              	.LBB422:
 347              		.loc 2 128 0
 348 003a 4621     		movs	r1, #70
 349              	.LVL24:
 350              	.LBE422:
 351              	.LBE421:
 352              		.loc 1 85 0
 353 003c C4F30804 		ubfx	r4, r4, #0, #9
 354              	.LVL25:
 355              	.LBB424:
 356              	.LBB425:
 357              		.loc 2 133 0
 358 0040 1C80     		strh	r4, [r3]	@ movhi
 359              	.LVL26:
 360              	.LBE425:
 361              	.LBE424:
 362              	.LBB426:
 363              	.LBB423:
 364              		.loc 2 128 0
 365 0042 1180     		strh	r1, [r2]	@ movhi
 366              	.LBE423:
 367              	.LBE426:
 368              		.loc 1 86 0
 369 0044 418C     		ldrh	r1, [r0, #34]
 370 0046 C28C     		ldrh	r2, [r0, #38]
 371 0048 0A44     		add	r2, r2, r1
 372 004a 013A     		subs	r2, r2, #1
 373 004c C2F30802 		ubfx	r2, r2, #0, #9
 374              	.LVL27:
 375              	.LBB427:
 376              	.LBB428:
 377              		.loc 2 133 0
 378 0050 1A80     		strh	r2, [r3]	@ movhi
 379              	.LBE428:
 380              	.LBE427:
 381              		.loc 1 104 0
 382 0052 30BC     		pop	{r4, r5}
 383              	.LVL28:
 384 0054 7047     		bx	lr
 385              	.LVL29:
 386              	.L14:
 387              		.loc 1 89 0
 388 0056 418C     		ldrh	r1, [r0, #34]
 389 0058 B0F92640 		ldrsh	r4, [r0, #38]
 390              	.LBB429:
 391              	.LBB430:
 392              		.loc 2 133 0
 393 005c 314B     		ldr	r3, .L16
 394              	.LBE430:
 395              	.LBE429:
 396              		.loc 1 89 0
 397 005e 04FA81F4 		sxtah	r4, r4, r1
 398 0062 013C     		subs	r4, r4, #1
 399 0064 C9B2     		uxtb	r1, r1
ARM GAS  /tmp/ccebuEU3.s 			page 8


 400 0066 41EA0421 		orr	r1, r1, r4, lsl #8
 401 006a 89B2     		uxth	r1, r1
 402              	.LVL30:
 403              	.LBB432:
 404              	.LBB433:
 405              		.loc 2 128 0
 406 006c 4524     		movs	r4, #69
 407              	.LBE433:
 408              	.LBE432:
 409              	.LBB435:
 410              	.LBB431:
 411              		.loc 2 133 0
 412 006e 1980     		strh	r1, [r3]	@ movhi
 413              	.LVL31:
 414              	.LBE431:
 415              	.LBE435:
 416              	.LBB436:
 417              	.LBB434:
 418              		.loc 2 128 0
 419 0070 1480     		strh	r4, [r2]	@ movhi
 420 0072 018C     		ldrh	r1, [r0, #32]
 421              	.LVL32:
 422 0074 848C     		ldrh	r4, [r0, #36]
 423 0076 0C44     		add	r4, r4, r1
 424              	.LBE434:
 425              	.LBE436:
 426              		.loc 1 90 0
 427 0078 C4F5A074 		rsb	r4, r4, #320
 428 007c C4F30804 		ubfx	r4, r4, #0, #9
 429              	.LVL33:
 430              	.LBB437:
 431              	.LBB438:
 432              		.loc 2 128 0
 433 0080 4621     		movs	r1, #70
 434              	.LBE438:
 435              	.LBE437:
 436              	.LBB440:
 437              	.LBB441:
 438              		.loc 2 133 0
 439 0082 1C80     		strh	r4, [r3]	@ movhi
 440              	.LVL34:
 441              	.LBE441:
 442              	.LBE440:
 443              	.LBB442:
 444              	.LBB439:
 445              		.loc 2 128 0
 446 0084 1180     		strh	r1, [r2]	@ movhi
 447              	.LBE439:
 448              	.LBE442:
 449              		.loc 1 91 0
 450 0086 028C     		ldrh	r2, [r0, #32]
 451 0088 C2F59F72 		rsb	r2, r2, #318
 452 008c 0132     		adds	r2, r2, #1
 453 008e C2F30802 		ubfx	r2, r2, #0, #9
 454              	.LVL35:
 455              	.LBB443:
 456              	.LBB444:
ARM GAS  /tmp/ccebuEU3.s 			page 9


 457              		.loc 2 133 0
 458 0092 1A80     		strh	r2, [r3]	@ movhi
 459              	.LBE444:
 460              	.LBE443:
 461              		.loc 1 104 0
 462 0094 30BC     		pop	{r4, r5}
 463              	.LVL36:
 464 0096 7047     		bx	lr
 465              	.LVL37:
 466              	.L13:
 467              	.LBB445:
 468              	.LBB446:
 469              		.loc 2 128 0
 470 0098 4423     		movs	r3, #68
 471 009a 1380     		strh	r3, [r2]	@ movhi
 472              	.LBE446:
 473              	.LBE445:
 474              		.loc 1 99 0
 475 009c 418C     		ldrh	r1, [r0, #34]
 476 009e C58C     		ldrh	r5, [r0, #38]
 477              	.LBB447:
 478              	.LBB448:
 479              		.loc 2 133 0
 480 00a0 204B     		ldr	r3, .L16
 481 00a2 0D44     		add	r5, r5, r1
 482              	.LBE448:
 483              	.LBE447:
 484              		.loc 1 99 0
 485 00a4 C5F1F005 		rsb	r5, r5, #240
 486 00a8 09B2     		sxth	r1, r1
 487 00aa EDB2     		uxtb	r5, r5
 488 00ac C1F1EF04 		rsb	r4, r1, #239
 489 00b0 45EA0424 		orr	r4, r5, r4, lsl #8
 490 00b4 A4B2     		uxth	r4, r4
 491              	.LVL38:
 492              	.LBB450:
 493              	.LBB451:
 494              		.loc 2 128 0
 495 00b6 4521     		movs	r1, #69
 496              	.LBE451:
 497              	.LBE450:
 498              	.LBB453:
 499              	.LBB449:
 500              		.loc 2 133 0
 501 00b8 1C80     		strh	r4, [r3]	@ movhi
 502              	.LVL39:
 503              	.LBE449:
 504              	.LBE453:
 505              	.LBB454:
 506              	.LBB452:
 507              		.loc 2 128 0
 508 00ba 1180     		strh	r1, [r2]	@ movhi
 509              	.LBE452:
 510              	.LBE454:
 511              		.loc 1 100 0
 512 00bc 048C     		ldrh	r4, [r0, #32]
 513              	.LVL40:
ARM GAS  /tmp/ccebuEU3.s 			page 10


 514              	.LBB455:
 515              	.LBB456:
 516              		.loc 2 128 0
 517 00be 4621     		movs	r1, #70
 518              	.LBE456:
 519              	.LBE455:
 520              		.loc 1 100 0
 521 00c0 C4F30804 		ubfx	r4, r4, #0, #9
 522              	.LVL41:
 523              	.LBB458:
 524              	.LBB459:
 525              		.loc 2 133 0
 526 00c4 1C80     		strh	r4, [r3]	@ movhi
 527              	.LVL42:
 528              	.LBE459:
 529              	.LBE458:
 530              	.LBB460:
 531              	.LBB457:
 532              		.loc 2 128 0
 533 00c6 1180     		strh	r1, [r2]	@ movhi
 534              	.LBE457:
 535              	.LBE460:
 536              		.loc 1 101 0
 537 00c8 018C     		ldrh	r1, [r0, #32]
 538 00ca 828C     		ldrh	r2, [r0, #36]
 539 00cc 0A44     		add	r2, r2, r1
 540 00ce 013A     		subs	r2, r2, #1
 541 00d0 C2F30802 		ubfx	r2, r2, #0, #9
 542              	.LVL43:
 543              	.LBB461:
 544              	.LBB462:
 545              		.loc 2 133 0
 546 00d4 1A80     		strh	r2, [r3]	@ movhi
 547              	.LBE462:
 548              	.LBE461:
 549              		.loc 1 104 0
 550 00d6 30BC     		pop	{r4, r5}
 551              	.LVL44:
 552 00d8 7047     		bx	lr
 553              	.LVL45:
 554              	.L12:
 555              	.LBB463:
 556              	.LBB410:
 557              		.loc 2 128 0
 558 00da 4423     		movs	r3, #68
 559 00dc 1380     		strh	r3, [r2]	@ movhi
 560              	.LBE410:
 561              	.LBE463:
 562              		.loc 1 94 0
 563 00de 018C     		ldrh	r1, [r0, #32]
 564 00e0 858C     		ldrh	r5, [r0, #36]
 565              	.LBB464:
 566              	.LBB465:
 567              		.loc 2 133 0
 568 00e2 104B     		ldr	r3, .L16
 569 00e4 0D44     		add	r5, r5, r1
 570              	.LBE465:
ARM GAS  /tmp/ccebuEU3.s 			page 11


 571              	.LBE464:
 572              		.loc 1 94 0
 573 00e6 C5F1F005 		rsb	r5, r5, #240
 574 00ea 09B2     		sxth	r1, r1
 575 00ec EDB2     		uxtb	r5, r5
 576 00ee C1F1EF04 		rsb	r4, r1, #239
 577 00f2 45EA0424 		orr	r4, r5, r4, lsl #8
 578 00f6 A4B2     		uxth	r4, r4
 579              	.LVL46:
 580              	.LBB467:
 581              	.LBB468:
 582              		.loc 2 128 0
 583 00f8 4521     		movs	r1, #69
 584              	.LBE468:
 585              	.LBE467:
 586              	.LBB470:
 587              	.LBB466:
 588              		.loc 2 133 0
 589 00fa 1C80     		strh	r4, [r3]	@ movhi
 590              	.LVL47:
 591              	.LBE466:
 592              	.LBE470:
 593              	.LBB471:
 594              	.LBB469:
 595              		.loc 2 128 0
 596 00fc 1180     		strh	r1, [r2]	@ movhi
 597 00fe 418C     		ldrh	r1, [r0, #34]
 598 0100 C48C     		ldrh	r4, [r0, #38]
 599              	.LVL48:
 600 0102 0C44     		add	r4, r4, r1
 601              	.LBE469:
 602              	.LBE471:
 603              		.loc 1 95 0
 604 0104 C4F5A074 		rsb	r4, r4, #320
 605 0108 C4F30804 		ubfx	r4, r4, #0, #9
 606              	.LVL49:
 607              	.LBB472:
 608              	.LBB473:
 609              		.loc 2 128 0
 610 010c 4621     		movs	r1, #70
 611              	.LBE473:
 612              	.LBE472:
 613              	.LBB475:
 614              	.LBB476:
 615              		.loc 2 133 0
 616 010e 1C80     		strh	r4, [r3]	@ movhi
 617              	.LVL50:
 618              	.LBE476:
 619              	.LBE475:
 620              	.LBB477:
 621              	.LBB474:
 622              		.loc 2 128 0
 623 0110 1180     		strh	r1, [r2]	@ movhi
 624              	.LBE474:
 625              	.LBE477:
 626              		.loc 1 96 0
 627 0112 428C     		ldrh	r2, [r0, #34]
ARM GAS  /tmp/ccebuEU3.s 			page 12


 628 0114 C2F59F72 		rsb	r2, r2, #318
 629 0118 0132     		adds	r2, r2, #1
 630 011a C2F30802 		ubfx	r2, r2, #0, #9
 631              	.LVL51:
 632              	.LBB478:
 633              	.LBB479:
 634              		.loc 2 133 0
 635 011e 1A80     		strh	r2, [r3]	@ movhi
 636              	.LBE479:
 637              	.LBE478:
 638              		.loc 1 104 0
 639 0120 30BC     		pop	{r4, r5}
 640              	.LVL52:
 641 0122 7047     		bx	lr
 642              	.L17:
 643              		.align	2
 644              	.L16:
 645 0124 00000260 		.word	1610743808
 646              		.cfi_endproc
 647              	.LFE132:
 648              		.size	set_viewport, .-set_viewport
 649 0128 AFF30080 		.section	.text.gdisp_lld_init,"ax",%progbits
 649      AFF30080 
 650              		.align	2
 651              		.p2align 4,,15
 652              		.global	gdisp_lld_init
 653              		.thumb
 654              		.thumb_func
 655              		.type	gdisp_lld_init, %function
 656              	gdisp_lld_init:
 657              	.LFB133:
 658              		.loc 1 114 0
 659              		.cfi_startproc
 660              		@ args = 0, pretend = 0, frame = 32
 661              		@ frame_needed = 0, uses_anonymous_args = 0
 662              	.LVL53:
 663 0000 2DE9F04F 		push	{r4, r5, r6, r7, r8, r9, r10, fp, lr}
 664              		.cfi_def_cfa_offset 36
 665              		.cfi_offset 4, -36
 666              		.cfi_offset 5, -32
 667              		.cfi_offset 6, -28
 668              		.cfi_offset 7, -24
 669              		.cfi_offset 8, -20
 670              		.cfi_offset 9, -16
 671              		.cfi_offset 10, -12
 672              		.cfi_offset 11, -8
 673              		.cfi_offset 14, -4
 674 0004 417D     		ldrb	r1, [r0, #21]	@ zero_extendqisi2
 675              		.loc 1 116 0
 676 0006 0023     		movs	r3, #0
 677              		.loc 1 114 0
 678 0008 89B0     		sub	sp, sp, #36
 679              		.cfi_def_cfa_offset 72
 680              		.loc 1 114 0
 681 000a 8046     		mov	r8, r0
 682              		.loc 1 116 0
 683 000c C360     		str	r3, [r0, #12]
ARM GAS  /tmp/ccebuEU3.s 			page 13


 684              	.LVL54:
 685              	.LBB649:
 686              	.LBB650:
 687              		.loc 2 44 0
 688 000e 0361     		str	r3, [r0, #16]
 689              		.loc 2 46 0
 690 0010 0029     		cmp	r1, #0
 691 0012 00F05381 		beq	.L25
 692              	.LVL55:
 693              	.L19:
 694              	.LBE650:
 695              	.LBE649:
 696              	.LBB653:
 697              	.LBB654:
 698              		.loc 2 128 0
 699 0016 4FF0C045 		mov	r5, #1610612736
 700              	.LBE654:
 701              	.LBE653:
 702              	.LBB657:
 703              	.LBB658:
 704              		.loc 2 133 0
 705 001a A64C     		ldr	r4, .L27
 706              	.LBE658:
 707              	.LBE657:
 708              		.loc 1 123 0
 709 001c 1420     		movs	r0, #20
 710              	.LBB661:
 711              	.LBB655:
 712              		.loc 2 128 0
 713 001e 0027     		movs	r7, #0
 714              	.LBE655:
 715              	.LBE661:
 716              		.loc 1 123 0
 717 0020 FFF7FEFF 		bl	gfxSleepMilliseconds
 718              	.LVL56:
 719              	.LBB662:
 720              	.LBB659:
 721              		.loc 2 133 0
 722 0024 4FF0010A 		mov	r10, #1
 723              	.LBE659:
 724              	.LBE662:
 725              		.loc 1 125 0
 726 0028 1420     		movs	r0, #20
 727 002a FFF7FEFF 		bl	gfxSleepMilliseconds
 728              	.LVL57:
 729              	.LBB663:
 730              	.LBB656:
 731              		.loc 2 128 0
 732 002e 2F80     		strh	r7, [r5]	@ movhi
 733              	.LVL58:
 734              	.LBE656:
 735              	.LBE663:
 736              		.loc 1 130 0
 737 0030 0520     		movs	r0, #5
 738              	.LBB664:
 739              	.LBB660:
 740              		.loc 2 133 0
ARM GAS  /tmp/ccebuEU3.s 			page 14


 741 0032 A4F800A0 		strh	r10, [r4]	@ movhi
 742              	.LBE660:
 743              	.LBE664:
 744              		.loc 1 130 0
 745 0036 FFF7FEFF 		bl	gfxSleepMicroseconds
 746              	.LVL59:
 747              	.LBB665:
 748              	.LBB666:
 749              		.loc 2 128 0
 750 003a 4FF0030B 		mov	fp, #3
 751              	.LBE666:
 752              	.LBE665:
 753              	.LBB668:
 754              	.LBB669:
 755              		.loc 2 133 0
 756 003e 4AF6A402 		movw	r2, #43172
 757              	.LBE669:
 758              	.LBE668:
 759              	.LBB671:
 760              	.LBB667:
 761              		.loc 2 128 0
 762 0042 A5F800B0 		strh	fp, [r5]	@ movhi
 763              	.LVL60:
 764              	.LBE667:
 765              	.LBE671:
 766              		.loc 1 131 0
 767 0046 0520     		movs	r0, #5
 768              	.LBB672:
 769              	.LBB670:
 770              		.loc 2 133 0
 771 0048 2280     		strh	r2, [r4]	@ movhi
 772              	.LBE670:
 773              	.LBE672:
 774              		.loc 1 131 0
 775 004a FFF7FEFF 		bl	gfxSleepMicroseconds
 776              	.LVL61:
 777              	.LBB673:
 778              	.LBB674:
 779              		.loc 2 128 0
 780 004e 0C22     		movs	r2, #12
 781 0050 2A80     		strh	r2, [r5]	@ movhi
 782              	.LVL62:
 783              	.LBE674:
 784              	.LBE673:
 785              		.loc 1 132 0
 786 0052 0520     		movs	r0, #5
 787              	.LBB675:
 788              	.LBB676:
 789              		.loc 2 133 0
 790 0054 2780     		strh	r7, [r4]	@ movhi
 791              	.LBE676:
 792              	.LBE675:
 793              		.loc 1 132 0
 794 0056 FFF7FEFF 		bl	gfxSleepMicroseconds
 795              	.LVL63:
 796              	.LBB677:
 797              	.LBB678:
ARM GAS  /tmp/ccebuEU3.s 			page 15


 798              		.loc 2 128 0
 799 005a 0D21     		movs	r1, #13
 800              	.LBE678:
 801              	.LBE677:
 802              	.LBB680:
 803              	.LBB681:
 804              		.loc 2 133 0
 805 005c 40F60C02 		movw	r2, #2060
 806              	.LBE681:
 807              	.LBE680:
 808              	.LBB683:
 809              	.LBB679:
 810              		.loc 2 128 0
 811 0060 2980     		strh	r1, [r5]	@ movhi
 812              	.LVL64:
 813              	.LBE679:
 814              	.LBE683:
 815              		.loc 1 133 0
 816 0062 0520     		movs	r0, #5
 817              	.LBB684:
 818              	.LBB682:
 819              		.loc 2 133 0
 820 0064 2280     		strh	r2, [r4]	@ movhi
 821              	.LBE682:
 822              	.LBE684:
 823              		.loc 1 133 0
 824 0066 FFF7FEFF 		bl	gfxSleepMicroseconds
 825              	.LVL65:
 826              	.LBB685:
 827              	.LBB686:
 828              		.loc 2 128 0
 829 006a 0E21     		movs	r1, #14
 830              	.LBE686:
 831              	.LBE685:
 832              	.LBB688:
 833              	.LBB689:
 834              		.loc 2 133 0
 835 006c 4FF42C52 		mov	r2, #11008
 836              	.LBE689:
 837              	.LBE688:
 838              	.LBB691:
 839              	.LBB687:
 840              		.loc 2 128 0
 841 0070 2980     		strh	r1, [r5]	@ movhi
 842              	.LVL66:
 843              	.LBE687:
 844              	.LBE691:
 845              		.loc 1 134 0
 846 0072 0520     		movs	r0, #5
 847              	.LBB692:
 848              	.LBB690:
 849              		.loc 2 133 0
 850 0074 2280     		strh	r2, [r4]	@ movhi
 851              	.LBE690:
 852              	.LBE692:
 853              		.loc 1 134 0
 854 0076 FFF7FEFF 		bl	gfxSleepMicroseconds
ARM GAS  /tmp/ccebuEU3.s 			page 16


 855              	.LVL67:
 856              	.LBB693:
 857              	.LBB694:
 858              		.loc 2 128 0
 859 007a 1E21     		movs	r1, #30
 860              	.LBE694:
 861              	.LBE693:
 862              	.LBB696:
 863              	.LBB697:
 864              		.loc 2 133 0
 865 007c B022     		movs	r2, #176
 866              	.LBE697:
 867              	.LBE696:
 868              	.LBB699:
 869              	.LBB695:
 870              		.loc 2 128 0
 871 007e 2980     		strh	r1, [r5]	@ movhi
 872              	.LVL68:
 873              	.LBE695:
 874              	.LBE699:
 875              		.loc 1 135 0
 876 0080 0520     		movs	r0, #5
 877              	.LBB700:
 878              	.LBB698:
 879              		.loc 2 133 0
 880 0082 2280     		strh	r2, [r4]	@ movhi
 881              	.LBE698:
 882              	.LBE700:
 883              		.loc 1 135 0
 884 0084 FFF7FEFF 		bl	gfxSleepMicroseconds
 885              	.LVL69:
 886              	.LBB701:
 887              	.LBB702:
 888              		.loc 2 133 0
 889 0088 42F63F32 		movw	r2, #11071
 890              	.LBE702:
 891              	.LBE701:
 892              	.LBB704:
 893              	.LBB705:
 894              		.loc 2 128 0
 895 008c A5F800A0 		strh	r10, [r5]	@ movhi
 896              	.LVL70:
 897              	.LBE705:
 898              	.LBE704:
 899              		.loc 1 136 0
 900 0090 0520     		movs	r0, #5
 901              	.LBB706:
 902              	.LBB703:
 903              		.loc 2 133 0
 904 0092 2280     		strh	r2, [r4]	@ movhi
 905              	.LBE703:
 906              	.LBE706:
 907              		.loc 1 136 0
 908 0094 FFF7FEFF 		bl	gfxSleepMicroseconds
 909              	.LVL71:
 910              	.LBB707:
 911              	.LBB708:
ARM GAS  /tmp/ccebuEU3.s 			page 17


 912              		.loc 2 128 0
 913 0098 0221     		movs	r1, #2
 914              	.LBE708:
 915              	.LBE707:
 916              	.LBB710:
 917              	.LBB711:
 918              		.loc 2 133 0
 919 009a 4FF4C062 		mov	r2, #1536
 920              	.LBE711:
 921              	.LBE710:
 922              	.LBB713:
 923              	.LBB709:
 924              		.loc 2 128 0
 925 009e 2980     		strh	r1, [r5]	@ movhi
 926              	.LVL72:
 927              	.LBE709:
 928              	.LBE713:
 929              		.loc 1 137 0
 930 00a0 0520     		movs	r0, #5
 931              	.LBB714:
 932              	.LBB712:
 933              		.loc 2 133 0
 934 00a2 2280     		strh	r2, [r4]	@ movhi
 935              	.LBE712:
 936              	.LBE714:
 937              		.loc 1 137 0
 938 00a4 0091     		str	r1, [sp]
 939 00a6 FFF7FEFF 		bl	gfxSleepMicroseconds
 940              	.LVL73:
 941              	.LBB715:
 942              	.LBB716:
 943              		.loc 2 128 0
 944 00aa 1022     		movs	r2, #16
 945 00ac 2A80     		strh	r2, [r5]	@ movhi
 946              	.LVL74:
 947              	.LBE716:
 948              	.LBE715:
 949              		.loc 1 138 0
 950 00ae 0520     		movs	r0, #5
 951              	.LBB717:
 952              	.LBB718:
 953              		.loc 2 133 0
 954 00b0 2780     		strh	r7, [r4]	@ movhi
 955              	.LBE718:
 956              	.LBE717:
 957              		.loc 1 138 0
 958 00b2 FFF7FEFF 		bl	gfxSleepMicroseconds
 959              	.LVL75:
 960              	.LBB719:
 961              	.LBB720:
 962              		.loc 2 128 0
 963 00b6 1120     		movs	r0, #17
 964              	.LBE720:
 965              	.LBE719:
 966              	.LBB722:
 967              	.LBB723:
 968              		.loc 2 133 0
ARM GAS  /tmp/ccebuEU3.s 			page 18


 969 00b8 46F27002 		movw	r2, #24688
 970              	.LBE723:
 971              	.LBE722:
 972              	.LBB725:
 973              	.LBB721:
 974              		.loc 2 128 0
 975 00bc 2880     		strh	r0, [r5]	@ movhi
 976              	.LVL76:
 977              	.LBE721:
 978              	.LBE725:
 979              		.loc 1 139 0
 980 00be 0520     		movs	r0, #5
 981              	.LBB726:
 982              	.LBB727:
 983              		.loc 2 128 0
 984 00c0 0646     		mov	r6, r0
 985              	.LBE727:
 986              	.LBE726:
 987              	.LBB729:
 988              	.LBB724:
 989              		.loc 2 133 0
 990 00c2 2280     		strh	r2, [r4]	@ movhi
 991              	.LBE724:
 992              	.LBE729:
 993              		.loc 1 139 0
 994 00c4 FFF7FEFF 		bl	gfxSleepMicroseconds
 995              	.LVL77:
 996              	.LBB730:
 997              	.LBB728:
 998              		.loc 2 128 0
 999 00c8 2E80     		strh	r6, [r5]	@ movhi
 1000              	.LVL78:
 1001              	.LBE728:
 1002              	.LBE730:
 1003              		.loc 1 140 0
 1004 00ca 3046     		mov	r0, r6
 1005              	.LBB731:
 1006              	.LBB732:
 1007              		.loc 2 133 0
 1008 00cc 2780     		strh	r7, [r4]	@ movhi
 1009              	.LBE732:
 1010              	.LBE731:
 1011              		.loc 1 140 0
 1012 00ce FFF7FEFF 		bl	gfxSleepMicroseconds
 1013              	.LVL79:
 1014              	.LBB733:
 1015              	.LBB734:
 1016              		.loc 2 128 0
 1017 00d2 0622     		movs	r2, #6
 1018 00d4 2A80     		strh	r2, [r5]	@ movhi
 1019              	.LVL80:
 1020              	.LBE734:
 1021              	.LBE733:
 1022              		.loc 1 141 0
 1023 00d6 3046     		mov	r0, r6
 1024              	.LBB735:
 1025              	.LBB736:
ARM GAS  /tmp/ccebuEU3.s 			page 19


 1026              		.loc 2 133 0
 1027 00d8 2780     		strh	r7, [r4]	@ movhi
 1028              	.LBE736:
 1029              	.LBE735:
 1030              		.loc 1 141 0
 1031 00da FFF7FEFF 		bl	gfxSleepMicroseconds
 1032              	.LVL81:
 1033              	.LBB737:
 1034              	.LBB738:
 1035              		.loc 2 133 0
 1036 00de 4EF61C72 		movw	r2, #61212
 1037              	.LBE738:
 1038              	.LBE737:
 1039              	.LBB740:
 1040              	.LBB741:
 1041              		.loc 2 128 0
 1042 00e2 1620     		movs	r0, #22
 1043 00e4 2880     		strh	r0, [r5]	@ movhi
 1044              	.LVL82:
 1045              	.LBE741:
 1046              	.LBE740:
 1047              		.loc 1 142 0
 1048 00e6 3046     		mov	r0, r6
 1049              	.LBB742:
 1050              	.LBB739:
 1051              		.loc 2 133 0
 1052 00e8 2280     		strh	r2, [r4]	@ movhi
 1053              	.LBE739:
 1054              	.LBE742:
 1055              		.loc 1 142 0
 1056 00ea FFF7FEFF 		bl	gfxSleepMicroseconds
 1057              	.LVL83:
 1058              	.LBB743:
 1059              	.LBB744:
 1060              		.loc 2 128 0
 1061 00ee 1722     		movs	r2, #23
 1062 00f0 2A80     		strh	r2, [r5]	@ movhi
 1063              	.LVL84:
 1064              	.LBE744:
 1065              	.LBE743:
 1066              		.loc 1 143 0
 1067 00f2 3046     		mov	r0, r6
 1068              	.LBB745:
 1069              	.LBB746:
 1070              		.loc 2 133 0
 1071 00f4 A4F800B0 		strh	fp, [r4]	@ movhi
 1072              	.LBE746:
 1073              	.LBE745:
 1074              		.loc 1 143 0
 1075 00f8 FFF7FEFF 		bl	gfxSleepMicroseconds
 1076              	.LVL85:
 1077              	.LBB747:
 1078              	.LBB748:
 1079              		.loc 2 133 0
 1080 00fc 40F23312 		movw	r2, #307
 1081              	.LBE748:
 1082              	.LBE747:
ARM GAS  /tmp/ccebuEU3.s 			page 20


 1083              	.LBB750:
 1084              	.LBB751:
 1085              		.loc 2 128 0
 1086 0100 0720     		movs	r0, #7
 1087 0102 2880     		strh	r0, [r5]	@ movhi
 1088              	.LVL86:
 1089              	.LBE751:
 1090              	.LBE750:
 1091              		.loc 1 144 0
 1092 0104 3046     		mov	r0, r6
 1093              	.LBB752:
 1094              	.LBB749:
 1095              		.loc 2 133 0
 1096 0106 2280     		strh	r2, [r4]	@ movhi
 1097              	.LBE749:
 1098              	.LBE752:
 1099              		.loc 1 144 0
 1100 0108 FFF7FEFF 		bl	gfxSleepMicroseconds
 1101              	.LVL87:
 1102              	.LBB753:
 1103              	.LBB754:
 1104              		.loc 2 128 0
 1105 010c 0B22     		movs	r2, #11
 1106 010e 2A80     		strh	r2, [r5]	@ movhi
 1107              	.LVL88:
 1108              	.LBE754:
 1109              	.LBE753:
 1110              		.loc 1 145 0
 1111 0110 3046     		mov	r0, r6
 1112              	.LBB755:
 1113              	.LBB756:
 1114              		.loc 2 133 0
 1115 0112 2780     		strh	r7, [r4]	@ movhi
 1116              	.LBE756:
 1117              	.LBE755:
 1118              		.loc 1 145 0
 1119 0114 FFF7FEFF 		bl	gfxSleepMicroseconds
 1120              	.LVL89:
 1121              	.LBB757:
 1122              	.LBB758:
 1123              		.loc 2 128 0
 1124 0118 0F22     		movs	r2, #15
 1125 011a 2A80     		strh	r2, [r5]	@ movhi
 1126              	.LVL90:
 1127              	.LBE758:
 1128              	.LBE757:
 1129              		.loc 1 146 0
 1130 011c 3046     		mov	r0, r6
 1131              	.LBB759:
 1132              	.LBB760:
 1133              		.loc 2 133 0
 1134 011e 2780     		strh	r7, [r4]	@ movhi
 1135              	.LBE760:
 1136              	.LBE759:
 1137              		.loc 1 146 0
 1138 0120 FFF7FEFF 		bl	gfxSleepMicroseconds
 1139              	.LVL91:
ARM GAS  /tmp/ccebuEU3.s 			page 21


 1140              	.LBB761:
 1141              	.LBB762:
 1142              		.loc 2 128 0
 1143 0124 4122     		movs	r2, #65
 1144 0126 2A80     		strh	r2, [r5]	@ movhi
 1145              	.LVL92:
 1146              	.LBE762:
 1147              	.LBE761:
 1148              		.loc 1 147 0
 1149 0128 3046     		mov	r0, r6
 1150              	.LBB763:
 1151              	.LBB764:
 1152              		.loc 2 133 0
 1153 012a 2780     		strh	r7, [r4]	@ movhi
 1154              	.LBE764:
 1155              	.LBE763:
 1156              		.loc 1 147 0
 1157 012c FFF7FEFF 		bl	gfxSleepMicroseconds
 1158              	.LVL93:
 1159              	.LBB765:
 1160              	.LBB766:
 1161              		.loc 2 128 0
 1162 0130 4222     		movs	r2, #66
 1163 0132 2A80     		strh	r2, [r5]	@ movhi
 1164              	.LVL94:
 1165              	.LBE766:
 1166              	.LBE765:
 1167              		.loc 1 148 0
 1168 0134 3046     		mov	r0, r6
 1169              	.LBB767:
 1170              	.LBB768:
 1171              		.loc 2 133 0
 1172 0136 2780     		strh	r7, [r4]	@ movhi
 1173              	.LBE768:
 1174              	.LBE767:
 1175              		.loc 1 148 0
 1176 0138 FFF7FEFF 		bl	gfxSleepMicroseconds
 1177              	.LVL95:
 1178              	.LBB769:
 1179              	.LBB770:
 1180              		.loc 2 128 0
 1181 013c 4822     		movs	r2, #72
 1182 013e 2A80     		strh	r2, [r5]	@ movhi
 1183              	.LVL96:
 1184              	.LBE770:
 1185              	.LBE769:
 1186              		.loc 1 149 0
 1187 0140 3046     		mov	r0, r6
 1188              	.LBB771:
 1189              	.LBB772:
 1190              		.loc 2 133 0
 1191 0142 2780     		strh	r7, [r4]	@ movhi
 1192              	.LBE772:
 1193              	.LBE771:
 1194              		.loc 1 149 0
 1195 0144 FFF7FEFF 		bl	gfxSleepMicroseconds
 1196              	.LVL97:
ARM GAS  /tmp/ccebuEU3.s 			page 22


 1197              	.LBB773:
 1198              	.LBB774:
 1199              		.loc 2 133 0
 1200 0148 40F23F19 		movw	r9, #319
 1201              	.LBE774:
 1202              	.LBE773:
 1203              	.LBB776:
 1204              	.LBB777:
 1205              		.loc 2 128 0
 1206 014c 4922     		movs	r2, #73
 1207 014e 2A80     		strh	r2, [r5]	@ movhi
 1208              	.LVL98:
 1209              	.LBE777:
 1210              	.LBE776:
 1211              		.loc 1 150 0
 1212 0150 3046     		mov	r0, r6
 1213              	.LBB778:
 1214              	.LBB775:
 1215              		.loc 2 133 0
 1216 0152 A4F80090 		strh	r9, [r4]	@ movhi
 1217              	.LBE775:
 1218              	.LBE778:
 1219              		.loc 1 150 0
 1220 0156 FFF7FEFF 		bl	gfxSleepMicroseconds
 1221              	.LVL99:
 1222              	.LBB779:
 1223              	.LBB780:
 1224              		.loc 2 128 0
 1225 015a 4A22     		movs	r2, #74
 1226 015c 2A80     		strh	r2, [r5]	@ movhi
 1227              	.LVL100:
 1228              	.LBE780:
 1229              	.LBE779:
 1230              		.loc 1 151 0
 1231 015e 3046     		mov	r0, r6
 1232              	.LBB781:
 1233              	.LBB782:
 1234              		.loc 2 133 0
 1235 0160 2780     		strh	r7, [r4]	@ movhi
 1236              	.LBE782:
 1237              	.LBE781:
 1238              		.loc 1 151 0
 1239 0162 FFF7FEFF 		bl	gfxSleepMicroseconds
 1240              	.LVL101:
 1241              	.LBB783:
 1242              	.LBB784:
 1243              		.loc 2 128 0
 1244 0166 4B22     		movs	r2, #75
 1245 0168 2A80     		strh	r2, [r5]	@ movhi
 1246              	.LVL102:
 1247              	.LBE784:
 1248              	.LBE783:
 1249              		.loc 1 152 0
 1250 016a 3046     		mov	r0, r6
 1251              	.LBB785:
 1252              	.LBB786:
 1253              		.loc 2 133 0
ARM GAS  /tmp/ccebuEU3.s 			page 23


 1254 016c 2780     		strh	r7, [r4]	@ movhi
 1255              	.LBE786:
 1256              	.LBE785:
 1257              		.loc 1 152 0
 1258 016e FFF7FEFF 		bl	gfxSleepMicroseconds
 1259              	.LVL103:
 1260              	.LBB787:
 1261              	.LBB788:
 1262              		.loc 2 133 0
 1263 0172 4FF46F42 		mov	r2, #61184
 1264              	.LBE788:
 1265              	.LBE787:
 1266              	.LBB790:
 1267              	.LBB791:
 1268              		.loc 2 128 0
 1269 0176 4420     		movs	r0, #68
 1270 0178 2880     		strh	r0, [r5]	@ movhi
 1271              	.LVL104:
 1272              	.LBE791:
 1273              	.LBE790:
 1274              		.loc 1 153 0
 1275 017a 3046     		mov	r0, r6
 1276              	.LBB792:
 1277              	.LBB789:
 1278              		.loc 2 133 0
 1279 017c 2280     		strh	r2, [r4]	@ movhi
 1280              	.LBE789:
 1281              	.LBE792:
 1282              		.loc 1 153 0
 1283 017e FFF7FEFF 		bl	gfxSleepMicroseconds
 1284              	.LVL105:
 1285              	.LBB793:
 1286              	.LBB794:
 1287              		.loc 2 128 0
 1288 0182 4522     		movs	r2, #69
 1289 0184 2A80     		strh	r2, [r5]	@ movhi
 1290              	.LVL106:
 1291              	.LBE794:
 1292              	.LBE793:
 1293              		.loc 1 154 0
 1294 0186 3046     		mov	r0, r6
 1295              	.LBB795:
 1296              	.LBB796:
 1297              		.loc 2 133 0
 1298 0188 2780     		strh	r7, [r4]	@ movhi
 1299              	.LBE796:
 1300              	.LBE795:
 1301              		.loc 1 154 0
 1302 018a FFF7FEFF 		bl	gfxSleepMicroseconds
 1303              	.LVL107:
 1304              	.LBB797:
 1305              	.LBB798:
 1306              		.loc 2 128 0
 1307 018e 4622     		movs	r2, #70
 1308 0190 2A80     		strh	r2, [r5]	@ movhi
 1309              	.LVL108:
 1310              	.LBE798:
ARM GAS  /tmp/ccebuEU3.s 			page 24


 1311              	.LBE797:
 1312              		.loc 1 155 0
 1313 0192 3046     		mov	r0, r6
 1314              	.LBB799:
 1315              	.LBB800:
 1316              		.loc 2 133 0
 1317 0194 A4F80090 		strh	r9, [r4]	@ movhi
 1318              	.LBE800:
 1319              	.LBE799:
 1320              		.loc 1 155 0
 1321 0198 FFF7FEFF 		bl	gfxSleepMicroseconds
 1322              	.LVL109:
 1323              	.LBB801:
 1324              	.LBB802:
 1325              		.loc 2 133 0
 1326 019c 40F20772 		movw	r2, #1799
 1327              	.LBE802:
 1328              	.LBE801:
 1329              	.LBB804:
 1330              	.LBB805:
 1331              		.loc 2 128 0
 1332 01a0 3020     		movs	r0, #48
 1333 01a2 2880     		strh	r0, [r5]	@ movhi
 1334              	.LVL110:
 1335              	.LBE805:
 1336              	.LBE804:
 1337              		.loc 1 156 0
 1338 01a4 3046     		mov	r0, r6
 1339              	.LBB806:
 1340              	.LBB803:
 1341              		.loc 2 133 0
 1342 01a6 2280     		strh	r2, [r4]	@ movhi
 1343              	.LBE803:
 1344              	.LBE806:
 1345              		.loc 1 156 0
 1346 01a8 FFF7FEFF 		bl	gfxSleepMicroseconds
 1347              	.LVL111:
 1348              	.LBB807:
 1349              	.LBB808:
 1350              		.loc 2 133 0
 1351 01ac 4FF40179 		mov	r9, #516
 1352              	.LBE808:
 1353              	.LBE807:
 1354              	.LBB810:
 1355              	.LBB811:
 1356              		.loc 2 128 0
 1357 01b0 3122     		movs	r2, #49
 1358 01b2 2A80     		strh	r2, [r5]	@ movhi
 1359              	.LVL112:
 1360              	.LBE811:
 1361              	.LBE810:
 1362              		.loc 1 157 0
 1363 01b4 3046     		mov	r0, r6
 1364              	.LBB812:
 1365              	.LBB809:
 1366              		.loc 2 133 0
 1367 01b6 A4F80090 		strh	r9, [r4]	@ movhi
ARM GAS  /tmp/ccebuEU3.s 			page 25


 1368              	.LBE809:
 1369              	.LBE812:
 1370              		.loc 1 157 0
 1371 01ba FFF7FEFF 		bl	gfxSleepMicroseconds
 1372              	.LVL113:
 1373              	.LBB813:
 1374              	.LBB814:
 1375              		.loc 2 128 0
 1376 01be 4FF03203 		mov	r3, #50	@ movhi
 1377 01c2 2B80     		strh	r3, [r5]	@ movhi
 1378              	.LVL114:
 1379              	.LBE814:
 1380              	.LBE813:
 1381              		.loc 1 158 0
 1382 01c4 3046     		mov	r0, r6
 1383              	.LBB815:
 1384              	.LBB816:
 1385              		.loc 2 133 0
 1386 01c6 A4F80090 		strh	r9, [r4]	@ movhi
 1387              	.LBE816:
 1388              	.LBE815:
 1389              		.loc 1 158 0
 1390 01ca FFF7FEFF 		bl	gfxSleepMicroseconds
 1391              	.LVL115:
 1392              	.LBB817:
 1393              	.LBB818:
 1394              		.loc 2 133 0
 1395 01ce 40F20252 		movw	r2, #1282
 1396              	.LBE818:
 1397              	.LBE817:
 1398              	.LBB820:
 1399              	.LBB821:
 1400              		.loc 2 128 0
 1401 01d2 3320     		movs	r0, #51
 1402 01d4 2880     		strh	r0, [r5]	@ movhi
 1403              	.LVL116:
 1404              	.LBE821:
 1405              	.LBE820:
 1406              	.LBB822:
 1407              	.LBB819:
 1408              		.loc 2 133 0
 1409 01d6 2280     		strh	r2, [r4]	@ movhi
 1410              	.LBE819:
 1411              	.LBE822:
 1412              		.loc 1 159 0
 1413 01d8 3046     		mov	r0, r6
 1414 01da 0192     		str	r2, [sp, #4]
 1415 01dc FFF7FEFF 		bl	gfxSleepMicroseconds
 1416              	.LVL117:
 1417              	.LBB823:
 1418              	.LBB824:
 1419              		.loc 2 133 0
 1420 01e0 40F2075E 		movw	lr, #1287
 1421              	.LBE824:
 1422              	.LBE823:
 1423              	.LBB826:
 1424              	.LBB827:
ARM GAS  /tmp/ccebuEU3.s 			page 26


 1425              		.loc 2 128 0
 1426 01e4 3420     		movs	r0, #52
 1427 01e6 2880     		strh	r0, [r5]	@ movhi
 1428              	.LVL118:
 1429              	.LBE827:
 1430              	.LBE826:
 1431              	.LBB828:
 1432              	.LBB825:
 1433              		.loc 2 133 0
 1434 01e8 A4F800E0 		strh	lr, [r4]	@ movhi
 1435              	.LBE825:
 1436              	.LBE828:
 1437              		.loc 1 160 0
 1438 01ec 3046     		mov	r0, r6
 1439 01ee FFF7FEFF 		bl	gfxSleepMicroseconds
 1440              	.LVL119:
 1441              	.LBB829:
 1442              	.LBB830:
 1443              		.loc 2 128 0
 1444 01f2 3520     		movs	r0, #53
 1445 01f4 2880     		strh	r0, [r5]	@ movhi
 1446              	.LVL120:
 1447              	.LBE830:
 1448              	.LBE829:
 1449              		.loc 1 161 0
 1450 01f6 3046     		mov	r0, r6
 1451              	.LBB831:
 1452              	.LBB832:
 1453              		.loc 2 133 0
 1454 01f8 A4F80090 		strh	r9, [r4]	@ movhi
 1455              	.LBE832:
 1456              	.LBE831:
 1457              		.loc 1 161 0
 1458 01fc FFF7FEFF 		bl	gfxSleepMicroseconds
 1459              	.LVL121:
 1460              	.LBB833:
 1461              	.LBB834:
 1462              		.loc 2 128 0
 1463 0200 3620     		movs	r0, #54
 1464 0202 2880     		strh	r0, [r5]	@ movhi
 1465              	.LVL122:
 1466              	.LBE834:
 1467              	.LBE833:
 1468              		.loc 1 162 0
 1469 0204 3046     		mov	r0, r6
 1470              	.LBB835:
 1471              	.LBB836:
 1472              		.loc 2 133 0
 1473 0206 A4F80090 		strh	r9, [r4]	@ movhi
 1474              	.LBE836:
 1475              	.LBE835:
 1476              		.loc 1 162 0
 1477 020a FFF7FEFF 		bl	gfxSleepMicroseconds
 1478              	.LVL123:
 1479              	.LBB837:
 1480              	.LBB838:
 1481              		.loc 2 133 0
ARM GAS  /tmp/ccebuEU3.s 			page 27


 1482 020e 019A     		ldr	r2, [sp, #4]
 1483              	.LBE838:
 1484              	.LBE837:
 1485              	.LBB840:
 1486              	.LBB841:
 1487              		.loc 2 128 0
 1488 0210 3720     		movs	r0, #55
 1489 0212 2880     		strh	r0, [r5]	@ movhi
 1490              	.LVL124:
 1491              	.LBE841:
 1492              	.LBE840:
 1493              		.loc 1 163 0
 1494 0214 3046     		mov	r0, r6
 1495              	.LBB842:
 1496              	.LBB839:
 1497              		.loc 2 133 0
 1498 0216 2280     		strh	r2, [r4]	@ movhi
 1499              	.LBE839:
 1500              	.LBE842:
 1501              		.loc 1 163 0
 1502 0218 FFF7FEFF 		bl	gfxSleepMicroseconds
 1503              	.LVL125:
 1504              	.LBB843:
 1505              	.LBB844:
 1506              		.loc 2 133 0
 1507 021c 40F20239 		movw	r9, #770
 1508              	.LBE844:
 1509              	.LBE843:
 1510              	.LBB846:
 1511              	.LBB847:
 1512              		.loc 2 128 0
 1513 0220 3A22     		movs	r2, #58
 1514 0222 2A80     		strh	r2, [r5]	@ movhi
 1515              	.LVL126:
 1516              	.LBE847:
 1517              	.LBE846:
 1518              		.loc 1 164 0
 1519 0224 3046     		mov	r0, r6
 1520              	.LBB848:
 1521              	.LBB845:
 1522              		.loc 2 133 0
 1523 0226 A4F80090 		strh	r9, [r4]	@ movhi
 1524              	.LBE845:
 1525              	.LBE848:
 1526              		.loc 1 164 0
 1527 022a FFF7FEFF 		bl	gfxSleepMicroseconds
 1528              	.LVL127:
 1529              	.LBB849:
 1530              	.LBB850:
 1531              		.loc 2 128 0
 1532 022e 3B22     		movs	r2, #59
 1533 0230 2A80     		strh	r2, [r5]	@ movhi
 1534              	.LVL128:
 1535              	.LBE850:
 1536              	.LBE849:
 1537              		.loc 1 165 0
 1538 0232 3046     		mov	r0, r6
ARM GAS  /tmp/ccebuEU3.s 			page 28


 1539              	.LBB851:
 1540              	.LBB852:
 1541              		.loc 2 133 0
 1542 0234 A4F80090 		strh	r9, [r4]	@ movhi
 1543              	.LBE852:
 1544              	.LBE851:
 1545              		.loc 1 165 0
 1546 0238 FFF7FEFF 		bl	gfxSleepMicroseconds
 1547              	.LVL129:
 1548              	.LBB853:
 1549              	.LBB854:
 1550              		.loc 2 128 0
 1551 023c 2322     		movs	r2, #35
 1552 023e 2A80     		strh	r2, [r5]	@ movhi
 1553              	.LVL130:
 1554              	.LBE854:
 1555              	.LBE853:
 1556              		.loc 1 166 0
 1557 0240 3046     		mov	r0, r6
 1558              	.LBB855:
 1559              	.LBB856:
 1560              		.loc 2 133 0
 1561 0242 2780     		strh	r7, [r4]	@ movhi
 1562              	.LBE856:
 1563              	.LBE855:
 1564              		.loc 1 166 0
 1565 0244 FFF7FEFF 		bl	gfxSleepMicroseconds
 1566              	.LVL131:
 1567              	.LBB857:
 1568              	.LBB858:
 1569              		.loc 2 128 0
 1570 0248 2422     		movs	r2, #36
 1571 024a 2A80     		strh	r2, [r5]	@ movhi
 1572              	.LVL132:
 1573              	.LBE858:
 1574              	.LBE857:
 1575              		.loc 1 167 0
 1576 024c 3046     		mov	r0, r6
 1577              	.LBB859:
 1578              	.LBB860:
 1579              		.loc 2 133 0
 1580 024e 2780     		strh	r7, [r4]	@ movhi
 1581              	.LBE860:
 1582              	.LBE859:
 1583              		.loc 1 167 0
 1584 0250 FFF7FEFF 		bl	gfxSleepMicroseconds
 1585              	.LVL133:
 1586              	.LBB861:
 1587              	.LBB862:
 1588              		.loc 2 133 0
 1589 0254 4FF40042 		mov	r2, #32768
 1590              	.LBE862:
 1591              	.LBE861:
 1592              	.LBB864:
 1593              	.LBB865:
 1594              		.loc 2 128 0
 1595 0258 2520     		movs	r0, #37
ARM GAS  /tmp/ccebuEU3.s 			page 29


 1596 025a 2880     		strh	r0, [r5]	@ movhi
 1597              	.LVL134:
 1598              	.LBE865:
 1599              	.LBE864:
 1600              		.loc 1 168 0
 1601 025c 3046     		mov	r0, r6
 1602              	.LBB866:
 1603              	.LBB863:
 1604              		.loc 2 133 0
 1605 025e 2280     		strh	r2, [r4]	@ movhi
 1606              	.LBE863:
 1607              	.LBE866:
 1608              		.loc 1 168 0
 1609 0260 FFF7FEFF 		bl	gfxSleepMicroseconds
 1610              	.LVL135:
 1611              	.LBB867:
 1612              	.LBB868:
 1613              		.loc 2 128 0
 1614 0264 4F22     		movs	r2, #79
 1615 0266 2A80     		strh	r2, [r5]	@ movhi
 1616              	.LVL136:
 1617              	.LBE868:
 1618              	.LBE867:
 1619              		.loc 1 169 0
 1620 0268 3046     		mov	r0, r6
 1621              	.LBB869:
 1622              	.LBB870:
 1623              		.loc 2 133 0
 1624 026a 2780     		strh	r7, [r4]	@ movhi
 1625              	.LBE870:
 1626              	.LBE869:
 1627              		.loc 1 169 0
 1628 026c FFF7FEFF 		bl	gfxSleepMicroseconds
 1629              	.LVL137:
 1630              	.LBB871:
 1631              	.LBB872:
 1632              		.loc 2 128 0
 1633 0270 4E22     		movs	r2, #78
 1634 0272 2A80     		strh	r2, [r5]	@ movhi
 1635              	.LVL138:
 1636              	.LBE872:
 1637              	.LBE871:
 1638              		.loc 1 170 0
 1639 0274 3046     		mov	r0, r6
 1640              	.LBB873:
 1641              	.LBB874:
 1642              		.loc 2 133 0
 1643 0276 2780     		strh	r7, [r4]	@ movhi
 1644              	.LBE874:
 1645              	.LBE873:
 1646              		.loc 1 170 0
 1647 0278 FFF7FEFF 		bl	gfxSleepMicroseconds
 1648              	.LVL139:
 1649              	.LBB875:
 1650              	.LBB876:
 1651              		.loc 2 115 0
 1652 027c 0099     		ldr	r1, [sp]
ARM GAS  /tmp/ccebuEU3.s 			page 30


 1653 027e 0E48     		ldr	r0, .L27+4
 1654 0280 6422     		movs	r2, #100
 1655 0282 FFF7FEFF 		bl	pwmEnableChannel
 1656              	.LVL140:
 1657              	.LBE876:
 1658              	.LBE875:
 1659              		.loc 1 182 0
 1660 0286 F024     		movs	r4, #240
 1661              		.loc 1 183 0
 1662 0288 4FF4A071 		mov	r1, #320
 1663              		.loc 1 186 0
 1664 028c 6422     		movs	r2, #100
 1665              		.loc 1 187 0
 1666 028e 4FF03203 		mov	r3, #50
 1667              		.loc 1 189 0
 1668 0292 5046     		mov	r0, r10
 1669              		.loc 1 184 0
 1670 0294 A8F80470 		strh	r7, [r8, #4]	@ movhi
 1671              		.loc 1 185 0
 1672 0298 88F806B0 		strb	fp, [r8, #6]
 1673              		.loc 1 187 0
 1674 029c 88F80830 		strb	r3, [r8, #8]
 1675              		.loc 1 182 0
 1676 02a0 A8F80040 		strh	r4, [r8]	@ movhi
 1677              		.loc 1 183 0
 1678 02a4 A8F80210 		strh	r1, [r8, #2]	@ movhi
 1679              		.loc 1 186 0
 1680 02a8 88F80720 		strb	r2, [r8, #7]
 1681              		.loc 1 189 0
 1682 02ac 09B0     		add	sp, sp, #36
 1683              		@ sp needed
 1684 02ae BDE8F08F 		pop	{r4, r5, r6, r7, r8, r9, r10, fp, pc}
 1685              	.LVL141:
 1686              	.L28:
 1687 02b2 00BF     		.align	2
 1688              	.L27:
 1689 02b4 00000260 		.word	1610743808
 1690 02b8 00000000 		.word	PWMD3
 1691              	.LVL142:
 1692              	.L25:
 1693              	.LBB877:
 1694              	.LBB652:
 1695              	.LBB651:
 1696              		.loc 2 65 0
 1697 02bc 224B     		ldr	r3, .L29
 1698              		.loc 2 68 0
 1699 02be 2348     		ldr	r0, .L29+4
 1700              	.LVL143:
 1701              		.loc 2 65 0
 1702 02c0 9A6B     		ldr	r2, [r3, #56]
 1703 02c2 42F00102 		orr	r2, r2, #1
 1704 02c6 9A63     		str	r2, [r3, #56]
 1705              		.loc 2 68 0
 1706 02c8 0A46     		mov	r2, r1
 1707 02ca 0B46     		mov	r3, r1
 1708 02cc FFF7FEFF 		bl	dmaStreamAllocate
 1709              	.LVL144:
ARM GAS  /tmp/ccebuEU3.s 			page 31


 1710 02d0 0028     		cmp	r0, #0
 1711 02d2 35D1     		bne	.L26
 1712              	.L21:
 1713              		.loc 2 79 0
 1714 02d4 1E4B     		ldr	r3, .L29+8
 1715              		.loc 2 69 0
 1716 02d6 1F4A     		ldr	r2, .L29+12
 1717 02d8 1F4F     		ldr	r7, .L29+16
 1718 02da D2F8A850 		ldr	r5, [r2, #168]
 1719              		.loc 2 79 0
 1720 02de 93E80700 		ldmia	r3, {r0, r1, r2}
 1721              		.loc 2 82 0
 1722 02e2 03F10C04 		add	r4, r3, #12
 1723              		.loc 2 70 0
 1724 02e6 4FF42256 		mov	r6, #10368
 1725              		.loc 2 79 0
 1726 02ea 02AB     		add	r3, sp, #8
 1727              		.loc 2 69 0
 1728 02ec EF60     		str	r7, [r5, #12]
 1729              		.loc 2 70 0
 1730 02ee 2E60     		str	r6, [r5]
 1731              		.loc 2 79 0
 1732 02f0 83E80700 		stmia	r3, {r0, r1, r2}
 1733              		.loc 2 82 0
 1734 02f4 94E80700 		ldmia	r4, {r0, r1, r2}
 1735 02f8 05AC     		add	r4, sp, #20
 1736 02fa 84E80700 		stmia	r4, {r0, r1, r2}
 1737              		.loc 2 85 0
 1738 02fe 1846     		mov	r0, r3
 1739 0300 40F20261 		movw	r1, #1538
 1740 0304 FFF7FEFF 		bl	palSetBusMode
 1741              	.LVL145:
 1742              		.loc 2 86 0
 1743 0308 2046     		mov	r0, r4
 1744 030a 40F20261 		movw	r1, #1538
 1745 030e FFF7FEFF 		bl	palSetBusMode
 1746              	.LVL146:
 1747              		.loc 2 89 0
 1748 0312 4FF02043 		mov	r3, #-1610612736
 1749 0316 114A     		ldr	r2, .L29+20
 1750 0318 5A60     		str	r2, [r3, #4]
 1751              		.loc 2 93 0
 1752 031a 41F21102 		movw	r2, #4113
 1753 031e 1A60     		str	r2, [r3]
 1754              		.loc 2 97 0
 1755 0320 0F48     		ldr	r0, .L29+24
 1756 0322 1049     		ldr	r1, .L29+28
 1757 0324 FFF7FEFF 		bl	pwmStart
 1758              	.LVL147:
 1759              		.loc 2 98 0
 1760 0328 0F48     		ldr	r0, .L29+32
 1761 032a 0121     		movs	r1, #1
 1762 032c 4FF48172 		mov	r2, #258
 1763 0330 FFF7FEFF 		bl	_pal_lld_setgroupmode
 1764              	.LVL148:
 1765              		.loc 2 99 0
 1766 0334 0A48     		ldr	r0, .L29+24
ARM GAS  /tmp/ccebuEU3.s 			page 32


 1767 0336 0221     		movs	r1, #2
 1768 0338 6422     		movs	r2, #100
 1769 033a FFF7FEFF 		bl	pwmEnableChannel
 1770              	.LVL149:
 1771 033e 6AE6     		b	.L19
 1772              	.L26:
 1773              		.loc 2 68 0
 1774 0340 FFF7FEFF 		bl	port_halt
 1775              	.LVL150:
 1776 0344 C6E7     		b	.L21
 1777              	.L30:
 1778 0346 00BF     		.align	2
 1779              	.L29:
 1780 0348 00380240 		.word	1073887232
 1781 034c A8000000 		.word	_stm32_dma_streams+168
 1782 0350 00000000 		.word	.LANCHOR0
 1783 0354 00000000 		.word	_stm32_dma_streams
 1784 0358 00000260 		.word	1610743808
 1785 035c 01040100 		.word	66561
 1786 0360 00000000 		.word	PWMD3
 1787 0364 00000000 		.word	.LANCHOR1
 1788 0368 00040240 		.word	1073873920
 1789              	.LBE651:
 1790              	.LBE652:
 1791              	.LBE877:
 1792              		.cfi_endproc
 1793              	.LFE133:
 1794              		.size	gdisp_lld_init, .-gdisp_lld_init
 1795 036c AFF30080 		.section	.text.gdisp_lld_write_start,"ax",%progbits
 1796              		.align	2
 1797              		.p2align 4,,15
 1798              		.global	gdisp_lld_write_start
 1799              		.thumb
 1800              		.thumb_func
 1801              		.type	gdisp_lld_write_start, %function
 1802              	gdisp_lld_write_start:
 1803              	.LFB134:
 1804              		.loc 1 192 0
 1805              		.cfi_startproc
 1806              		@ args = 0, pretend = 0, frame = 0
 1807              		@ frame_needed = 0, uses_anonymous_args = 0
 1808              		@ link register save eliminated.
 1809              	.LVL151:
 1810              		.loc 1 194 0
 1811 0000 FFF7FEBF 		b	set_viewport
 1812              	.LVL152:
 1813              		.cfi_endproc
 1814              	.LFE134:
 1815              		.size	gdisp_lld_write_start, .-gdisp_lld_write_start
 1816 0004 AFF30080 		.section	.text.gdisp_lld_write_color,"ax",%progbits
 1816      AFF30080 
 1816      AFF30080 
 1817              		.align	2
 1818              		.p2align 4,,15
 1819              		.global	gdisp_lld_write_color
 1820              		.thumb
 1821              		.thumb_func
ARM GAS  /tmp/ccebuEU3.s 			page 33


 1822              		.type	gdisp_lld_write_color, %function
 1823              	gdisp_lld_write_color:
 1824              	.LFB135:
 1825              		.loc 1 199 0
 1826              		.cfi_startproc
 1827              		@ args = 0, pretend = 0, frame = 0
 1828              		@ frame_needed = 0, uses_anonymous_args = 0
 1829              		@ link register save eliminated.
 1830              	.LVL153:
 1831              	.LBB878:
 1832              	.LBB879:
 1833              		.loc 2 133 0
 1834 0000 014B     		ldr	r3, .L33
 1835              	.LBE879:
 1836              	.LBE878:
 1837              		.loc 1 200 0
 1838 0002 028E     		ldrh	r2, [r0, #48]
 1839              	.LVL154:
 1840              	.LBB881:
 1841              	.LBB880:
 1842              		.loc 2 133 0
 1843 0004 1A80     		strh	r2, [r3]	@ movhi
 1844              	.LVL155:
 1845 0006 7047     		bx	lr
 1846              	.L34:
 1847              		.align	2
 1848              	.L33:
 1849 0008 00000260 		.word	1610743808
 1850              	.LBE880:
 1851              	.LBE881:
 1852              		.cfi_endproc
 1853              	.LFE135:
 1854              		.size	gdisp_lld_write_color, .-gdisp_lld_write_color
 1855 000c AFF30080 		.section	.text.gdisp_lld_write_stop,"ax",%progbits
 1856              		.align	2
 1857              		.p2align 4,,15
 1858              		.global	gdisp_lld_write_stop
 1859              		.thumb
 1860              		.thumb_func
 1861              		.type	gdisp_lld_write_stop, %function
 1862              	gdisp_lld_write_stop:
 1863              	.LFB136:
 1864              		.loc 1 202 0
 1865              		.cfi_startproc
 1866              		@ args = 0, pretend = 0, frame = 0
 1867              		@ frame_needed = 0, uses_anonymous_args = 0
 1868              		@ link register save eliminated.
 1869              	.LVL156:
 1870 0000 7047     		bx	lr
 1871              		.cfi_endproc
 1872              	.LFE136:
 1873              		.size	gdisp_lld_write_stop, .-gdisp_lld_write_stop
 1874 0002 00BFAFF3 		.section	.text.gdisp_lld_write_pos,"ax",%progbits
 1874      0080AFF3 
 1874      0080AFF3 
 1874      0080
 1875              		.align	2
ARM GAS  /tmp/ccebuEU3.s 			page 34


 1876              		.p2align 4,,15
 1877              		.global	gdisp_lld_write_pos
 1878              		.thumb
 1879              		.thumb_func
 1880              		.type	gdisp_lld_write_pos, %function
 1881              	gdisp_lld_write_pos:
 1882              	.LFB137:
 1883              		.loc 1 206 0
 1884              		.cfi_startproc
 1885              		@ args = 0, pretend = 0, frame = 0
 1886              		@ frame_needed = 0, uses_anonymous_args = 0
 1887              		@ link register save eliminated.
 1888              	.LVL157:
 1889              		.loc 1 207 0
 1890 0000 FFF7FEBF 		b	set_cursor
 1891              	.LVL158:
 1892              		.cfi_endproc
 1893              	.LFE137:
 1894              		.size	gdisp_lld_write_pos, .-gdisp_lld_write_pos
 1895 0004 AFF30080 		.section	.text.gdisp_lld_read_start,"ax",%progbits
 1895      AFF30080 
 1895      AFF30080 
 1896              		.align	2
 1897              		.p2align 4,,15
 1898              		.global	gdisp_lld_read_start
 1899              		.thumb
 1900              		.thumb_func
 1901              		.type	gdisp_lld_read_start, %function
 1902              	gdisp_lld_read_start:
 1903              	.LFB138:
 1904              		.loc 1 213 0
 1905              		.cfi_startproc
 1906              		@ args = 0, pretend = 0, frame = 8
 1907              		@ frame_needed = 0, uses_anonymous_args = 0
 1908              	.LVL159:
 1909 0000 10B5     		push	{r4, lr}
 1910              		.cfi_def_cfa_offset 8
 1911              		.cfi_offset 4, -8
 1912              		.cfi_offset 14, -4
 1913 0002 0446     		mov	r4, r0
 1914 0004 82B0     		sub	sp, sp, #8
 1915              		.cfi_def_cfa_offset 16
 1916              		.loc 1 215 0
 1917 0006 FFF7FEFF 		bl	set_viewport
 1918              	.LVL160:
 1919              		.loc 1 216 0
 1920 000a 2046     		mov	r0, r4
 1921 000c FFF7FEFF 		bl	set_cursor
 1922              	.LVL161:
 1923              	.LBB882:
 1924              	.LBB883:
 1925              		.loc 2 138 0
 1926 0010 4FF02042 		mov	r2, #-1610612736
 1927 0014 0549     		ldr	r1, .L38
 1928              	.LBE883:
 1929              	.LBE882:
 1930              	.LBB885:
ARM GAS  /tmp/ccebuEU3.s 			page 35


 1931              	.LBB886:
 1932              	.LBB887:
 1933              		.loc 2 148 0
 1934 0016 064B     		ldr	r3, .L38+4
 1935              	.LBE887:
 1936              	.LBE886:
 1937              	.LBE885:
 1938              	.LBB890:
 1939              	.LBB884:
 1940              		.loc 2 138 0
 1941 0018 5160     		str	r1, [r2, #4]
 1942              	.LVL162:
 1943              	.LBE884:
 1944              	.LBE890:
 1945              	.LBB891:
 1946              	.LBB889:
 1947              	.LBB888:
 1948              		.loc 2 148 0
 1949 001a 1B88     		ldrh	r3, [r3]
 1950 001c 9BB2     		uxth	r3, r3
 1951              	.LBE888:
 1952              	.LBE889:
 1953              		.loc 1 218 0
 1954 001e ADF80630 		strh	r3, [sp, #6]	@ movhi
 1955 0022 BDF80630 		ldrh	r3, [sp, #6]
 1956              	.LBE891:
 1957              		.loc 1 219 0
 1958 0026 02B0     		add	sp, sp, #8
 1959              		@ sp needed
 1960 0028 10BD     		pop	{r4, pc}
 1961              	.LVL163:
 1962              	.L39:
 1963 002a 00BF     		.align	2
 1964              	.L38:
 1965 002c 08080100 		.word	67592
 1966 0030 00000260 		.word	1610743808
 1967              		.cfi_endproc
 1968              	.LFE138:
 1969              		.size	gdisp_lld_read_start, .-gdisp_lld_read_start
 1970 0034 AFF30080 		.section	.text.gdisp_lld_read_color,"ax",%progbits
 1970      AFF30080 
 1970      AFF30080 
 1971              		.align	2
 1972              		.p2align 4,,15
 1973              		.global	gdisp_lld_read_color
 1974              		.thumb
 1975              		.thumb_func
 1976              		.type	gdisp_lld_read_color, %function
 1977              	gdisp_lld_read_color:
 1978              	.LFB139:
 1979              		.loc 1 220 0
 1980              		.cfi_startproc
 1981              		@ args = 0, pretend = 0, frame = 0
 1982              		@ frame_needed = 0, uses_anonymous_args = 0
 1983              		@ link register save eliminated.
 1984              	.LVL164:
 1985              	.LBB892:
ARM GAS  /tmp/ccebuEU3.s 			page 36


 1986              	.LBB893:
 1987              		.loc 2 148 0
 1988 0000 014B     		ldr	r3, .L41
 1989 0002 1888     		ldrh	r0, [r3]
 1990              	.LVL165:
 1991              	.LBE893:
 1992              	.LBE892:
 1993              		.loc 1 225 0
 1994 0004 80B2     		uxth	r0, r0
 1995 0006 7047     		bx	lr
 1996              	.L42:
 1997              		.align	2
 1998              	.L41:
 1999 0008 00000260 		.word	1610743808
 2000              		.cfi_endproc
 2001              	.LFE139:
 2002              		.size	gdisp_lld_read_color, .-gdisp_lld_read_color
 2003 000c AFF30080 		.section	.text.gdisp_lld_read_stop,"ax",%progbits
 2004              		.align	2
 2005              		.p2align 4,,15
 2006              		.global	gdisp_lld_read_stop
 2007              		.thumb
 2008              		.thumb_func
 2009              		.type	gdisp_lld_read_stop, %function
 2010              	gdisp_lld_read_stop:
 2011              	.LFB140:
 2012              		.loc 1 226 0
 2013              		.cfi_startproc
 2014              		@ args = 0, pretend = 0, frame = 0
 2015              		@ frame_needed = 0, uses_anonymous_args = 0
 2016              		@ link register save eliminated.
 2017              	.LVL166:
 2018              	.LBB894:
 2019              	.LBB895:
 2020              		.loc 2 143 0
 2021 0000 4FF02043 		mov	r3, #-1610612736
 2022 0004 014A     		ldr	r2, .L44
 2023 0006 5A60     		str	r2, [r3, #4]
 2024              	.LVL167:
 2025 0008 7047     		bx	lr
 2026              	.L45:
 2027 000a 00BF     		.align	2
 2028              	.L44:
 2029 000c 01040100 		.word	66561
 2030              	.LBE895:
 2031              	.LBE894:
 2032              		.cfi_endproc
 2033              	.LFE140:
 2034              		.size	gdisp_lld_read_stop, .-gdisp_lld_read_stop
 2035              		.section	.text.gdisp_lld_fill_area,"ax",%progbits
 2036              		.align	2
 2037              		.p2align 4,,15
 2038              		.global	gdisp_lld_fill_area
 2039              		.thumb
 2040              		.thumb_func
 2041              		.type	gdisp_lld_fill_area, %function
 2042              	gdisp_lld_fill_area:
ARM GAS  /tmp/ccebuEU3.s 			page 37


 2043              	.LFB141:
 2044              		.loc 1 233 0
 2045              		.cfi_startproc
 2046              		@ args = 0, pretend = 0, frame = 8
 2047              		@ frame_needed = 0, uses_anonymous_args = 0
 2048              	.LVL168:
 2049 0000 30B5     		push	{r4, r5, lr}
 2050              		.cfi_def_cfa_offset 12
 2051              		.cfi_offset 4, -12
 2052              		.cfi_offset 5, -8
 2053              		.cfi_offset 14, -4
 2054 0002 83B0     		sub	sp, sp, #12
 2055              		.cfi_def_cfa_offset 24
 2056              		.loc 1 236 0
 2057 0004 02AD     		add	r5, sp, #8
 2058 0006 038E     		ldrh	r3, [r0, #48]
 2059 0008 25F8023D 		strh	r3, [r5, #-2]!	@ movhi
 2060              	.LVL169:
 2061              		.loc 1 233 0
 2062 000c 0446     		mov	r4, r0
 2063              		.loc 1 238 0
 2064 000e FFF7FEFF 		bl	set_viewport
 2065              	.LVL170:
 2066              		.loc 1 239 0
 2067 0012 2046     		mov	r0, r4
 2068 0014 FFF7FEFF 		bl	set_cursor
 2069              	.LVL171:
 2070              		.loc 1 240 0
 2071 0018 A08C     		ldrh	r0, [r4, #36]
 2072 001a E18C     		ldrh	r1, [r4, #38]
 2073              	.LBB898:
 2074              	.LBB899:
 2075              		.loc 2 154 0
 2076 001c 164A     		ldr	r2, .L54
 2077              	.LBE899:
 2078              	.LBE898:
 2079              		.loc 1 240 0
 2080 001e 10FB01F1 		smulbb	r1, r0, r1
 2081              	.LVL172:
 2082              	.LBB901:
 2083              	.LBB900:
 2084              		.loc 2 154 0
 2085 0022 D2F8A830 		ldr	r3, [r2, #168]
 2086              		.loc 2 155 0
 2087 0026 4FF42250 		mov	r0, #10368
 2088              		.loc 2 156 0
 2089 002a 0029     		cmp	r1, #0
 2090              		.loc 2 154 0
 2091 002c 9D60     		str	r5, [r3, #8]
 2092              		.loc 2 155 0
 2093 002e 1860     		str	r0, [r3]
 2094              		.loc 2 156 0
 2095 0030 20DD     		ble	.L46
 2096 0032 92F8B000 		ldrb	r0, [r2, #176]	@ zero_extendqisi2
 2097 0036 D2F8AC50 		ldr	r5, [r2, #172]
 2098 003a 3D24     		movs	r4, #61
 2099              	.LVL173:
ARM GAS  /tmp/ccebuEU3.s 			page 38


 2100 003c 8440     		lsls	r4, r4, r0
 2101              		.loc 2 157 0
 2102 003e 4FF6FF70 		movw	r0, #65535
 2103              	.L53:
 2104 0042 8142     		cmp	r1, r0
 2105 0044 B4BF     		ite	lt
 2106 0046 0A46     		movlt	r2, r1
 2107 0048 0246     		movge	r2, r0
 2108 004a 5A60     		str	r2, [r3, #4]
 2109              		.loc 2 158 0
 2110 004c 1A68     		ldr	r2, [r3]
 2111 004e 42F00102 		orr	r2, r2, #1
 2112 0052 1A60     		str	r2, [r3]
 2113              	.L49:
 2114              		.loc 2 159 0
 2115 0054 5A68     		ldr	r2, [r3, #4]
 2116 0056 002A     		cmp	r2, #0
 2117 0058 FCD1     		bne	.L49
 2118 005a 1A68     		ldr	r2, [r3]
 2119 005c 22F01F02 		bic	r2, r2, #31
 2120 0060 1A60     		str	r2, [r3]
 2121              	.L51:
 2122 0062 1A68     		ldr	r2, [r3]
 2123 0064 D207     		lsls	r2, r2, #31
 2124 0066 FCD4     		bmi	.L51
 2125              		.loc 2 156 0
 2126 0068 A1F57F41 		sub	r1, r1, #65280
 2127              	.LVL174:
 2128 006c FF39     		subs	r1, r1, #255
 2129              	.LVL175:
 2130 006e 0029     		cmp	r1, #0
 2131              		.loc 2 159 0
 2132 0070 2C60     		str	r4, [r5]
 2133              		.loc 2 156 0
 2134 0072 E6DC     		bgt	.L53
 2135              	.L46:
 2136              	.LBE900:
 2137              	.LBE901:
 2138              		.loc 1 242 0
 2139 0074 03B0     		add	sp, sp, #12
 2140              		@ sp needed
 2141 0076 30BD     		pop	{r4, r5, pc}
 2142              	.LVL176:
 2143              	.L55:
 2144              		.align	2
 2145              	.L54:
 2146 0078 00000000 		.word	_stm32_dma_streams
 2147              		.cfi_endproc
 2148              	.LFE141:
 2149              		.size	gdisp_lld_fill_area, .-gdisp_lld_fill_area
 2150 007c AFF30080 		.section	.text.gdisp_lld_blit_area,"ax",%progbits
 2151              		.align	2
 2152              		.p2align 4,,15
 2153              		.global	gdisp_lld_blit_area
 2154              		.thumb
 2155              		.thumb_func
 2156              		.type	gdisp_lld_blit_area, %function
ARM GAS  /tmp/ccebuEU3.s 			page 39


 2157              	gdisp_lld_blit_area:
 2158              	.LFB142:
 2159              		.loc 1 250 0
 2160              		.cfi_startproc
 2161              		@ args = 0, pretend = 0, frame = 0
 2162              		@ frame_needed = 0, uses_anonymous_args = 0
 2163              	.LVL177:
 2164 0000 2DE9F041 		push	{r4, r5, r6, r7, r8, lr}
 2165              		.cfi_def_cfa_offset 24
 2166              		.cfi_offset 4, -24
 2167              		.cfi_offset 5, -20
 2168              		.cfi_offset 6, -16
 2169              		.cfi_offset 7, -12
 2170              		.cfi_offset 8, -8
 2171              		.cfi_offset 14, -4
 2172              		.loc 1 254 0
 2173 0004 818D     		ldrh	r1, [r0, #44]
 2174 0006 B0F92820 		ldrsh	r2, [r0, #40]
 2175 000a 468D     		ldrh	r6, [r0, #42]
 2176 000c 436B     		ldr	r3, [r0, #52]
 2177              		.loc 1 250 0
 2178 000e 0446     		mov	r4, r0
 2179              		.loc 1 254 0
 2180 0010 16FB0126 		smlabb	r6, r6, r1, r2
 2181 0014 03EB4606 		add	r6, r3, r6, lsl #1
 2182              	.LVL178:
 2183              		.loc 1 257 0
 2184 0018 FFF7FEFF 		bl	set_viewport
 2185              	.LVL179:
 2186              		.loc 1 258 0
 2187 001c 2046     		mov	r0, r4
 2188 001e FFF7FEFF 		bl	set_cursor
 2189              	.LVL180:
 2190              		.loc 1 259 0
 2191 0022 A18D     		ldrh	r1, [r4, #44]
 2192 0024 B4F92430 		ldrsh	r3, [r4, #36]
 2193 0028 0FFA81F8 		sxth	r8, r1
 2194 002c 4345     		cmp	r3, r8
 2195 002e 34D0     		beq	.L76
 2196              		.loc 1 262 0
 2197 0030 E58C     		ldrh	r5, [r4, #38]
 2198              	.LVL181:
 2199 0032 002D     		cmp	r5, #0
 2200 0034 2FD0     		beq	.L56
 2201 0036 304A     		ldr	r2, .L77
 2202 0038 92F8B000 		ldrb	r0, [r2, #176]	@ zero_extendqisi2
 2203 003c D2F8A830 		ldr	r3, [r2, #168]
 2204 0040 D2F8AC40 		ldr	r4, [r2, #172]
 2205              	.LVL182:
 2206 0044 2FB2     		sxth	r7, r5
 2207 0046 3D22     		movs	r2, #61
 2208              	.LBB906:
 2209              	.LBB907:
 2210              		.loc 2 168 0
 2211 0048 4FF6FF71 		movw	r1, #65535
 2212 004c 4FEA4808 		lsl	r8, r8, #1
 2213 0050 02FA00F0 		lsl	r0, r2, r0
ARM GAS  /tmp/ccebuEU3.s 			page 40


 2214 0054 8F42     		cmp	r7, r1
 2215 0056 B8BF     		it	lt
 2216 0058 3946     		movlt	r1, r7
 2217              		.loc 2 166 0
 2218 005a 4FF42A5C 		mov	ip, #10880
 2219              	.LVL183:
 2220              	.L72:
 2221              		.loc 2 167 0 discriminator 2
 2222 005e 002F     		cmp	r7, #0
 2223              		.loc 2 165 0 discriminator 2
 2224 0060 9E60     		str	r6, [r3, #8]
 2225              		.loc 2 166 0 discriminator 2
 2226 0062 C3F800C0 		str	ip, [r3]
 2227              		.loc 2 167 0 discriminator 2
 2228 0066 0FDD     		ble	.L71
 2229              	.LVL184:
 2230              		.loc 2 168 0
 2231 0068 5960     		str	r1, [r3, #4]
 2232              		.loc 2 169 0
 2233 006a 1A68     		ldr	r2, [r3]
 2234 006c 42F00102 		orr	r2, r2, #1
 2235 0070 1A60     		str	r2, [r3]
 2236              	.L68:
 2237              		.loc 2 170 0
 2238 0072 5A68     		ldr	r2, [r3, #4]
 2239 0074 002A     		cmp	r2, #0
 2240 0076 FCD1     		bne	.L68
 2241 0078 1A68     		ldr	r2, [r3]
 2242 007a 22F01F02 		bic	r2, r2, #31
 2243 007e 1A60     		str	r2, [r3]
 2244              	.L70:
 2245 0080 1A68     		ldr	r2, [r3]
 2246 0082 D207     		lsls	r2, r2, #31
 2247 0084 FCD4     		bmi	.L70
 2248 0086 2060     		str	r0, [r4]
 2249              	.L71:
 2250 0088 013D     		subs	r5, r5, #1
 2251              	.LVL185:
 2252 008a ADB2     		uxth	r5, r5
 2253              	.LVL186:
 2254              	.LBE907:
 2255              	.LBE906:
 2256              		.loc 1 262 0
 2257 008c 4644     		add	r6, r6, r8
 2258              	.LVL187:
 2259 008e 002D     		cmp	r5, #0
 2260 0090 E5D1     		bne	.L72
 2261 0092 BDE8F081 		pop	{r4, r5, r6, r7, r8, pc}
 2262              	.LVL188:
 2263              	.L56:
 2264 0096 BDE8F081 		pop	{r4, r5, r6, r7, r8, pc}
 2265              	.LVL189:
 2266              	.L76:
 2267              		.loc 1 260 0
 2268 009a E08C     		ldrh	r0, [r4, #38]
 2269              	.LBB908:
 2270              	.LBB909:
ARM GAS  /tmp/ccebuEU3.s 			page 41


 2271              		.loc 2 165 0
 2272 009c 164A     		ldr	r2, .L77
 2273              	.LBE909:
 2274              	.LBE908:
 2275              		.loc 1 260 0
 2276 009e 11FB00F1 		smulbb	r1, r1, r0
 2277              	.LVL190:
 2278              	.LBB911:
 2279              	.LBB910:
 2280              		.loc 2 165 0
 2281 00a2 D2F8A830 		ldr	r3, [r2, #168]
 2282              		.loc 2 166 0
 2283 00a6 4FF42A50 		mov	r0, #10880
 2284              		.loc 2 167 0
 2285 00aa 0029     		cmp	r1, #0
 2286              		.loc 2 165 0
 2287 00ac 9E60     		str	r6, [r3, #8]
 2288              		.loc 2 166 0
 2289 00ae 1860     		str	r0, [r3]
 2290              		.loc 2 167 0
 2291 00b0 F1DD     		ble	.L56
 2292 00b2 92F8B040 		ldrb	r4, [r2, #176]	@ zero_extendqisi2
 2293              	.LVL191:
 2294 00b6 D2F8AC00 		ldr	r0, [r2, #172]
 2295 00ba 3D25     		movs	r5, #61
 2296 00bc A540     		lsls	r5, r5, r4
 2297              		.loc 2 168 0
 2298 00be 4FF6FF74 		movw	r4, #65535
 2299              	.LVL192:
 2300              	.L64:
 2301 00c2 A142     		cmp	r1, r4
 2302 00c4 B4BF     		ite	lt
 2303 00c6 0A46     		movlt	r2, r1
 2304 00c8 2246     		movge	r2, r4
 2305 00ca 5A60     		str	r2, [r3, #4]
 2306              		.loc 2 169 0
 2307 00cc 1A68     		ldr	r2, [r3]
 2308 00ce 42F00102 		orr	r2, r2, #1
 2309 00d2 1A60     		str	r2, [r3]
 2310              	.L60:
 2311              		.loc 2 170 0
 2312 00d4 5A68     		ldr	r2, [r3, #4]
 2313 00d6 002A     		cmp	r2, #0
 2314 00d8 FCD1     		bne	.L60
 2315 00da 1A68     		ldr	r2, [r3]
 2316 00dc 22F01F02 		bic	r2, r2, #31
 2317 00e0 1A60     		str	r2, [r3]
 2318              	.L62:
 2319 00e2 1A68     		ldr	r2, [r3]
 2320 00e4 D607     		lsls	r6, r2, #31
 2321 00e6 FCD4     		bmi	.L62
 2322              		.loc 2 167 0
 2323 00e8 A1F57F41 		sub	r1, r1, #65280
 2324              	.LVL193:
 2325 00ec FF39     		subs	r1, r1, #255
 2326              	.LVL194:
 2327 00ee 0029     		cmp	r1, #0
ARM GAS  /tmp/ccebuEU3.s 			page 42


 2328              		.loc 2 170 0
 2329 00f0 0560     		str	r5, [r0]
 2330              		.loc 2 167 0
 2331 00f2 E6DC     		bgt	.L64
 2332 00f4 BDE8F081 		pop	{r4, r5, r6, r7, r8, pc}
 2333              	.L78:
 2334              		.align	2
 2335              	.L77:
 2336 00f8 00000000 		.word	_stm32_dma_streams
 2337              	.LBE910:
 2338              	.LBE911:
 2339              		.cfi_endproc
 2340              	.LFE142:
 2341              		.size	gdisp_lld_blit_area, .-gdisp_lld_blit_area
 2342 00fc AFF30080 		.section	.text.gdisp_lld_control,"ax",%progbits
 2343              		.align	2
 2344              		.p2align 4,,15
 2345              		.global	gdisp_lld_control
 2346              		.thumb
 2347              		.thumb_func
 2348              		.type	gdisp_lld_control, %function
 2349              	gdisp_lld_control:
 2350              	.LFB143:
 2351              		.loc 1 270 0
 2352              		.cfi_startproc
 2353              		@ args = 0, pretend = 0, frame = 0
 2354              		@ frame_needed = 0, uses_anonymous_args = 0
 2355              	.LVL195:
 2356 0000 F8B5     		push	{r3, r4, r5, r6, r7, lr}
 2357              		.cfi_def_cfa_offset 24
 2358              		.cfi_offset 3, -24
 2359              		.cfi_offset 4, -20
 2360              		.cfi_offset 5, -16
 2361              		.cfi_offset 6, -12
 2362              		.cfi_offset 7, -8
 2363              		.cfi_offset 14, -4
 2364              		.loc 1 271 0
 2365 0002 B0F92030 		ldrsh	r3, [r0, #32]
 2366 0006 012B     		cmp	r3, #1
 2367              		.loc 1 270 0
 2368 0008 0446     		mov	r4, r0
 2369              		.loc 1 271 0
 2370 000a 2BD0     		beq	.L81
 2371 000c 022B     		cmp	r3, #2
 2372 000e 1CD0     		beq	.L82
 2373 0010 03B1     		cbz	r3, .L98
 2374              	.L79:
 2375 0012 F8BD     		pop	{r3, r4, r5, r6, r7, pc}
 2376              	.L98:
 2377              		.loc 1 273 0
 2378 0014 90F83420 		ldrb	r2, [r0, #52]	@ zero_extendqisi2
 2379 0018 8179     		ldrb	r1, [r0, #6]	@ zero_extendqisi2
 2380 001a 9142     		cmp	r1, r2
 2381 001c F9D0     		beq	.L79
 2382              		.loc 1 275 0
 2383 001e 012A     		cmp	r2, #1
 2384 0020 3AD0     		beq	.L84
ARM GAS  /tmp/ccebuEU3.s 			page 43


 2385 0022 032A     		cmp	r2, #3
 2386 0024 51D0     		beq	.L85
 2387 0026 002A     		cmp	r2, #0
 2388 0028 F3D1     		bne	.L79
 2389              	.LVL196:
 2390              	.LBB912:
 2391              	.LBB913:
 2392              		.loc 2 128 0
 2393 002a 4FF0C040 		mov	r0, #1610612736
 2394              	.LVL197:
 2395              	.LBE913:
 2396              	.LBE912:
 2397              	.LBB916:
 2398              	.LBB917:
 2399              		.loc 2 133 0
 2400 002e 3649     		ldr	r1, .L102
 2401              	.LBE917:
 2402              	.LBE916:
 2403              	.LBB919:
 2404              	.LBB914:
 2405              		.loc 2 128 0
 2406 0030 1025     		movs	r5, #16
 2407              	.LBE914:
 2408              	.LBE919:
 2409              	.LBB920:
 2410              	.LBB921:
 2411 0032 0727     		movs	r7, #7
 2412              	.LBE921:
 2413              	.LBE920:
 2414              	.LBB923:
 2415              	.LBB924:
 2416              		.loc 2 133 0
 2417 0034 0126     		movs	r6, #1
 2418              	.LBE924:
 2419              	.LBE923:
 2420              	.LBB927:
 2421              	.LBB915:
 2422              		.loc 2 128 0
 2423 0036 0580     		strh	r5, [r0]	@ movhi
 2424              	.LVL198:
 2425              	.LBE915:
 2426              	.LBE927:
 2427              	.LBB928:
 2428              	.LBB925:
 2429              		.loc 2 133 0
 2430 0038 1346     		mov	r3, r2
 2431              	.LBE925:
 2432              	.LBE928:
 2433              	.LBB929:
 2434              	.LBB918:
 2435 003a 0A80     		strh	r2, [r1]	@ movhi
 2436              	.LVL199:
 2437              	.LBE918:
 2438              	.LBE929:
 2439              	.LBB930:
 2440              	.LBB922:
 2441              		.loc 2 128 0
ARM GAS  /tmp/ccebuEU3.s 			page 44


 2442 003c 0780     		strh	r7, [r0]	@ movhi
 2443              	.LVL200:
 2444              	.LBE922:
 2445              	.LBE930:
 2446              	.LBB931:
 2447              	.LBB932:
 2448              		.loc 2 133 0
 2449 003e 0A80     		strh	r2, [r1]	@ movhi
 2450              	.LVL201:
 2451              	.LBE932:
 2452              	.LBE931:
 2453              	.LBB933:
 2454              	.LBB934:
 2455              		.loc 2 128 0
 2456 0040 0280     		strh	r2, [r0]	@ movhi
 2457              	.LVL202:
 2458              	.LBE934:
 2459              	.LBE933:
 2460              	.LBB935:
 2461              	.LBB936:
 2462              		.loc 2 133 0
 2463 0042 0A80     		strh	r2, [r1]	@ movhi
 2464              	.LVL203:
 2465              	.LBE936:
 2466              	.LBE935:
 2467              	.LBB937:
 2468              	.LBB938:
 2469              		.loc 2 128 0
 2470 0044 0580     		strh	r5, [r0]	@ movhi
 2471              	.LVL204:
 2472              	.LBE938:
 2473              	.LBE937:
 2474              	.LBB939:
 2475              	.LBB926:
 2476              		.loc 2 133 0
 2477 0046 0E80     		strh	r6, [r1]	@ movhi
 2478              	.LVL205:
 2479 0048 2DE0     		b	.L87
 2480              	.LVL206:
 2481              	.L82:
 2482              	.LBE926:
 2483              	.LBE939:
 2484              		.loc 1 345 0
 2485 004a 426B     		ldr	r2, [r0, #52]
 2486 004c 642A     		cmp	r2, #100
 2487              		.loc 1 346 0
 2488 004e 86BF     		itte	hi
 2489 0050 6422     		movhi	r2, #100
 2490 0052 4263     		strhi	r2, [r0, #52]
 2491              	.LVL207:
 2492 0054 D2B2     		uxtbls	r2, r2
 2493              	.LBB940:
 2494              	.LBB941:
 2495              		.loc 2 115 0
 2496 0056 2D48     		ldr	r0, .L102+4
 2497              	.LVL208:
 2498 0058 0221     		movs	r1, #2
ARM GAS  /tmp/ccebuEU3.s 			page 45


 2499 005a FFF7FEFF 		bl	pwmEnableChannel
 2500              	.LVL209:
 2501              	.LBE941:
 2502              	.LBE940:
 2503              		.loc 1 348 0
 2504 005e 636B     		ldr	r3, [r4, #52]
 2505 0060 E371     		strb	r3, [r4, #7]
 2506 0062 F8BD     		pop	{r3, r4, r5, r6, r7, pc}
 2507              	.LVL210:
 2508              	.L81:
 2509              		.loc 1 303 0
 2510 0064 838E     		ldrh	r3, [r0, #52]
 2511 0066 8288     		ldrh	r2, [r0, #4]
 2512 0068 9A42     		cmp	r2, r3
 2513 006a D2D0     		beq	.L79
 2514              		.loc 1 305 0
 2515 006c 5A2B     		cmp	r3, #90
 2516 006e 3BD0     		beq	.L88
 2517 0070 1BDD     		ble	.L99
 2518 0072 B42B     		cmp	r3, #180
 2519 0074 41D0     		beq	.L91
 2520 0076 B3F5877F 		cmp	r3, #270
 2521 007a 3CD1     		bne	.L100
 2522              	.LVL211:
 2523              	.LBB942:
 2524              	.LBB943:
 2525              		.loc 2 133 0
 2526 007c 2248     		ldr	r0, .L102
 2527              	.LVL212:
 2528              	.LBE943:
 2529              	.LBE942:
 2530              	.LBB946:
 2531              	.LBB947:
 2532              		.loc 2 128 0
 2533 007e 4FF0C046 		mov	r6, #1610612736
 2534 0082 1127     		movs	r7, #17
 2535              	.LBE947:
 2536              	.LBE946:
 2537              	.LBB949:
 2538              	.LBB944:
 2539              		.loc 2 133 0
 2540 0084 46F26805 		movw	r5, #24680
 2541              	.LVL213:
 2542              	.L97:
 2543              	.LBE944:
 2544              	.LBE949:
 2545              		.loc 1 335 0
 2546 0088 F021     		movs	r1, #240
 2547              		.loc 1 336 0
 2548 008a 4FF4A072 		mov	r2, #320
 2549              	.LBB950:
 2550              	.LBB948:
 2551              		.loc 2 128 0
 2552 008e 3780     		strh	r7, [r6]	@ movhi
 2553              	.LVL214:
 2554              	.LBE948:
 2555              	.LBE950:
ARM GAS  /tmp/ccebuEU3.s 			page 46


 2556              	.LBB951:
 2557              	.LBB945:
 2558              		.loc 2 133 0
 2559 0090 0580     		strh	r5, [r0]	@ movhi
 2560              	.LVL215:
 2561              	.LBE945:
 2562              	.LBE951:
 2563              		.loc 1 335 0
 2564 0092 6180     		strh	r1, [r4, #2]	@ movhi
 2565              		.loc 1 336 0
 2566 0094 2280     		strh	r2, [r4]	@ movhi
 2567              		.loc 1 337 0
 2568 0096 16E0     		b	.L93
 2569              	.LVL216:
 2570              	.L84:
 2571              	.LBB952:
 2572              	.LBB953:
 2573              		.loc 2 128 0
 2574 0098 4FF0C043 		mov	r3, #1610612736
 2575              	.LBE953:
 2576              	.LBE952:
 2577              	.LBB955:
 2578              	.LBB956:
 2579              		.loc 2 133 0
 2580 009c 1A49     		ldr	r1, .L102
 2581              	.LBE956:
 2582              	.LBE955:
 2583              	.LBB958:
 2584              	.LBB954:
 2585              		.loc 2 128 0
 2586 009e 1020     		movs	r0, #16
 2587              	.LVL217:
 2588 00a0 1880     		strh	r0, [r3]	@ movhi
 2589              	.LVL218:
 2590              	.LBE954:
 2591              	.LBE958:
 2592              	.LBB959:
 2593              	.LBB957:
 2594              		.loc 2 133 0
 2595 00a2 1346     		mov	r3, r2
 2596 00a4 0A80     		strh	r2, [r1]	@ movhi
 2597              	.LVL219:
 2598              	.L87:
 2599              	.LBE957:
 2600              	.LBE959:
 2601              		.loc 1 299 0
 2602 00a6 A371     		strb	r3, [r4, #6]
 2603              		.loc 1 300 0
 2604 00a8 F8BD     		pop	{r3, r4, r5, r6, r7, pc}
 2605              	.LVL220:
 2606              	.L99:
 2607              		.loc 1 305 0
 2608 00aa 2BBB     		cbnz	r3, .L101
 2609              	.LVL221:
 2610              	.LBB960:
 2611              	.LBB961:
 2612              		.loc 2 133 0
ARM GAS  /tmp/ccebuEU3.s 			page 47


 2613 00ac 1648     		ldr	r0, .L102
 2614              	.LVL222:
 2615              	.LBE961:
 2616              	.LBE960:
 2617              	.LBB963:
 2618              	.LBB964:
 2619              		.loc 2 128 0
 2620 00ae 4FF0C046 		mov	r6, #1610612736
 2621 00b2 1127     		movs	r7, #17
 2622              	.LBE964:
 2623              	.LBE963:
 2624              	.LBB965:
 2625              	.LBB962:
 2626              		.loc 2 133 0
 2627 00b4 46F27005 		movw	r5, #24688
 2628              	.LVL223:
 2629              	.L96:
 2630              	.LBE962:
 2631              	.LBE965:
 2632              		.loc 1 327 0
 2633 00b8 4FF4A071 		mov	r1, #320
 2634              		.loc 1 328 0
 2635 00bc F022     		movs	r2, #240
 2636              	.LBB966:
 2637              	.LBB967:
 2638              		.loc 2 128 0
 2639 00be 3780     		strh	r7, [r6]	@ movhi
 2640              	.LVL224:
 2641              	.LBE967:
 2642              	.LBE966:
 2643              	.LBB970:
 2644              	.LBB971:
 2645              		.loc 2 133 0
 2646 00c0 0580     		strh	r5, [r0]	@ movhi
 2647              	.LVL225:
 2648              	.LBE971:
 2649              	.LBE970:
 2650              		.loc 1 327 0
 2651 00c2 6180     		strh	r1, [r4, #2]	@ movhi
 2652              		.loc 1 328 0
 2653 00c4 2280     		strh	r2, [r4]	@ movhi
 2654              	.LVL226:
 2655              	.L93:
 2656              		.loc 1 341 0
 2657 00c6 A380     		strh	r3, [r4, #4]	@ movhi
 2658              		.loc 1 342 0
 2659 00c8 F8BD     		pop	{r3, r4, r5, r6, r7, pc}
 2660              	.LVL227:
 2661              	.L85:
 2662              	.LBB974:
 2663              	.LBB975:
 2664              		.loc 2 128 0
 2665 00ca 4FF0C041 		mov	r1, #1610612736
 2666              	.LBE975:
 2667              	.LBE974:
 2668              	.LBB978:
 2669              	.LBB979:
ARM GAS  /tmp/ccebuEU3.s 			page 48


 2670              		.loc 2 133 0
 2671 00ce 0E4A     		ldr	r2, .L102
 2672              	.LBE979:
 2673              	.LBE978:
 2674              	.LBB981:
 2675              	.LBB976:
 2676              		.loc 2 128 0
 2677 00d0 1020     		movs	r0, #16
 2678              	.LVL228:
 2679              	.LBE976:
 2680              	.LBE981:
 2681              	.LBB982:
 2682              	.LBB983:
 2683              		.loc 2 133 0
 2684 00d2 0125     		movs	r5, #1
 2685              	.LBE983:
 2686              	.LBE982:
 2687              	.LBB985:
 2688              	.LBB977:
 2689              		.loc 2 128 0
 2690 00d4 0880     		strh	r0, [r1]	@ movhi
 2691              	.LVL229:
 2692              	.LBE977:
 2693              	.LBE985:
 2694              	.LBB986:
 2695              	.LBB980:
 2696              		.loc 2 133 0
 2697 00d6 1380     		strh	r3, [r2]	@ movhi
 2698              	.LVL230:
 2699              	.LBE980:
 2700              	.LBE986:
 2701              		.loc 1 288 0
 2702 00d8 0520     		movs	r0, #5
 2703              	.LBB987:
 2704              	.LBB988:
 2705              		.loc 2 128 0
 2706 00da 0B80     		strh	r3, [r1]	@ movhi
 2707              	.LVL231:
 2708              	.LBE988:
 2709              	.LBE987:
 2710              	.LBB989:
 2711              	.LBB984:
 2712              		.loc 2 133 0
 2713 00dc 1580     		strh	r5, [r2]	@ movhi
 2714              	.LBE984:
 2715              	.LBE989:
 2716              		.loc 1 288 0
 2717 00de FFF7FEFF 		bl	gfxSleepMicroseconds
 2718              	.LVL232:
 2719 00e2 94F83430 		ldrb	r3, [r4, #52]	@ zero_extendqisi2
 2720 00e6 DEE7     		b	.L87
 2721              	.LVL233:
 2722              	.L88:
 2723              	.LBB990:
 2724              	.LBB991:
 2725              		.loc 2 128 0
 2726 00e8 4FF0C046 		mov	r6, #1610612736
ARM GAS  /tmp/ccebuEU3.s 			page 49


 2727              	.LBE991:
 2728              	.LBE990:
 2729              	.LBB993:
 2730              	.LBB994:
 2731              		.loc 2 133 0
 2732 00ec 0648     		ldr	r0, .L102
 2733              	.LVL234:
 2734              	.LBE994:
 2735              	.LBE993:
 2736              	.LBB996:
 2737              	.LBB992:
 2738              		.loc 2 128 0
 2739 00ee 1127     		movs	r7, #17
 2740              	.LBE992:
 2741              	.LBE996:
 2742              	.LBB997:
 2743              	.LBB995:
 2744              		.loc 2 133 0
 2745 00f0 46F25805 		movw	r5, #24664
 2746 00f4 C8E7     		b	.L97
 2747              	.LVL235:
 2748              	.L100:
 2749 00f6 F8BD     		pop	{r3, r4, r5, r6, r7, pc}
 2750              	.L101:
 2751 00f8 F8BD     		pop	{r3, r4, r5, r6, r7, pc}
 2752              	.L91:
 2753              	.LVL236:
 2754              	.LBE995:
 2755              	.LBE997:
 2756              	.LBB998:
 2757              	.LBB968:
 2758              		.loc 2 128 0
 2759 00fa 4FF0C046 		mov	r6, #1610612736
 2760              	.LBE968:
 2761              	.LBE998:
 2762              	.LBB999:
 2763              	.LBB972:
 2764              		.loc 2 133 0
 2765 00fe 0248     		ldr	r0, .L102
 2766              	.LVL237:
 2767              	.LBE972:
 2768              	.LBE999:
 2769              	.LBB1000:
 2770              	.LBB969:
 2771              		.loc 2 128 0
 2772 0100 1127     		movs	r7, #17
 2773              	.LBE969:
 2774              	.LBE1000:
 2775              	.LBB1001:
 2776              	.LBB973:
 2777              		.loc 2 133 0
 2778 0102 46F24005 		movw	r5, #24640
 2779 0106 D7E7     		b	.L96
 2780              	.L103:
 2781              		.align	2
 2782              	.L102:
 2783 0108 00000260 		.word	1610743808
ARM GAS  /tmp/ccebuEU3.s 			page 50


 2784 010c 00000000 		.word	PWMD3
 2785              	.LBE973:
 2786              	.LBE1001:
 2787              		.cfi_endproc
 2788              	.LFE143:
 2789              		.size	gdisp_lld_control, .-gdisp_lld_control
 2790              		.section	.rodata
 2791              		.align	2
 2792              		.set	.LANCHOR0,. + 0
 2793              	.LC0:
 2794 0000 000C0240 		.word	1073875968
 2795 0004 B3CF0000 		.word	53171
 2796 0008 00000000 		.word	0
 2797              	.LC1:
 2798 000c 00100240 		.word	1073876992
 2799 0010 80FF0000 		.word	65408
 2800 0014 00000000 		.word	0
 2801              		.section	.rodata.pwmcfg,"a",%progbits
 2802              		.align	2
 2803              		.set	.LANCHOR1,. + 0
 2804              		.type	pwmcfg, %object
 2805              		.size	pwmcfg, 52
 2806              	pwmcfg:
 2807 0000 A0860100 		.word	100000
 2808 0004 6400     		.short	100
 2809 0006 0000     		.space	2
 2810 0008 00000000 		.word	0
 2811 000c 00000000 		.word	0
 2812 0010 00000000 		.word	0
 2813 0014 00000000 		.word	0
 2814 0018 00000000 		.word	0
 2815 001c 01000000 		.word	1
 2816 0020 00000000 		.word	0
 2817 0024 00000000 		.word	0
 2818 0028 00000000 		.word	0
 2819 002c 00000000 		.word	0
 2820 0030 00000000 		.word	0
 2821              		.text
 2822              	.Letext0:
 2823              		.file 3 "/opt/ARM/arm-none-eabi/include/machine/_default_types.h"
 2824              		.file 4 "/opt/ARM/arm-none-eabi/include/stdint.h"
 2825              		.file 5 "../../os/ports/GCC/ARMCMx/chtypes.h"
 2826              		.file 6 "../../os/hal/platforms/STM32F4xx/stm32f4xx.h"
 2827              		.file 7 "../../os/hal/platforms/STM32F4xx/stm32_dma.h"
 2828              		.file 8 "../../os/hal/platforms/STM32/GPIOv2/pal_lld.h"
 2829              		.file 9 "../../os/hal/include/pal.h"
 2830              		.file 10 "../../os/hal/include/pwm.h"
 2831              		.file 11 "../../os/hal/platforms/STM32/TIMv1/pwm_lld.h"
 2832              		.file 12 "../../os/hal/platforms/STM32/TIMv1/stm32_tim.h"
 2833              		.file 13 "/home/makkmarci/devel/ugfx/src/gos/chibios.h"
 2834              		.file 14 "/home/makkmarci/devel/ugfx/src/gdisp/sys_defs.h"
 2835              		.file 15 "/home/makkmarci/devel/ugfx/src/gdisp/driver.h"
 2836              		.file 16 "/home/makkmarci/devel/ugfx/src/gdisp/colors.h"
 2837              		.file 17 "../../os/ports/common/ARMCMx/CMSIS/include/core_cm4.h"
 2838              		.file 18 "../../os/ports/GCC/ARMCMx/chcore_v7m.h"