ARM GAS  /tmp/ccOGUWYP.s 			page 1


   1              		.syntax unified
   2              		.cpu cortex-m4
   3              		.eabi_attribute 27, 3
   4              		.eabi_attribute 28, 1
   5              		.fpu fpv4-sp-d16
   6              		.eabi_attribute 20, 1
   7              		.eabi_attribute 21, 1
   8              		.eabi_attribute 23, 3
   9              		.eabi_attribute 24, 1
  10              		.eabi_attribute 25, 1
  11              		.eabi_attribute 26, 1
  12              		.eabi_attribute 30, 2
  13              		.eabi_attribute 34, 1
  14              		.eabi_attribute 18, 4
  15              		.thumb
  16              		.file	"gdisp.c"
  17              		.text
  18              	.Ltext0:
  19              		.cfi_sections	.debug_frame
  20              		.section	.text.drawcharglyph,"ax",%progbits
  21              		.align	2
  22              		.p2align 4,,15
  23              		.thumb
  24              		.thumb_func
  25              		.type	drawcharglyph, %function
  26              	drawcharglyph:
  27              	.LFB133:
  28              		.file 1 "/home/makkmarci/devel/ugfx/src/gdisp/gdisp.c"
  29              		.loc 1 2836 0
  30              		.cfi_startproc
  31              		@ args = 0, pretend = 0, frame = 0
  32              		@ frame_needed = 0, uses_anonymous_args = 0
  33              	.LVL0:
  34 0000 70B5     		push	{r4, r5, r6, lr}
  35              		.cfi_def_cfa_offset 16
  36              		.cfi_offset 4, -16
  37              		.cfi_offset 5, -12
  38              		.cfi_offset 6, -8
  39              		.cfi_offset 14, -4
  40 0002 82B0     		sub	sp, sp, #8
  41              		.cfi_def_cfa_offset 24
  42              		.loc 1 2836 0
  43 0004 0646     		mov	r6, r0
  44 0006 0D46     		mov	r5, r1
  45              		.loc 1 2838 0
  46 0008 054C     		ldr	r4, .L2
  47 000a 986C     		ldr	r0, [r3, #72]
  48              	.LVL1:
  49 000c 0193     		str	r3, [sp, #4]
  50 000e 3146     		mov	r1, r6
  51              	.LVL2:
  52              		.loc 1 2836 0
  53 0010 1346     		mov	r3, r2
  54              	.LVL3:
  55              		.loc 1 2838 0
  56 0012 0094     		str	r4, [sp]
  57 0014 2A46     		mov	r2, r5
ARM GAS  /tmp/ccOGUWYP.s 			page 2


  58              	.LVL4:
  59 0016 FFF7FEFF 		bl	mf_render_character
  60              	.LVL5:
  61              		.loc 1 2840 0
  62 001a 02B0     		add	sp, sp, #8
  63              		@ sp needed
  64 001c 70BD     		pop	{r4, r5, r6, pc}
  65              	.L3:
  66 001e 00BF     		.align	2
  67              	.L2:
  68 0020 00000000 		.word	drawcharline
  69              		.cfi_endproc
  70              	.LFE133:
  71              		.size	drawcharglyph, .-drawcharglyph
  72 0024 AFF30080 		.section	.text.fillcharglyph,"ax",%progbits
  72      AFF30080 
  72      AFF30080 
  73              		.align	2
  74              		.p2align 4,,15
  75              		.thumb
  76              		.thumb_func
  77              		.type	fillcharglyph, %function
  78              	fillcharglyph:
  79              	.LFB134:
  80              		.loc 1 2843 0
  81              		.cfi_startproc
  82              		@ args = 0, pretend = 0, frame = 0
  83              		@ frame_needed = 0, uses_anonymous_args = 0
  84              	.LVL6:
  85 0000 70B5     		push	{r4, r5, r6, lr}
  86              		.cfi_def_cfa_offset 16
  87              		.cfi_offset 4, -16
  88              		.cfi_offset 5, -12
  89              		.cfi_offset 6, -8
  90              		.cfi_offset 14, -4
  91 0002 82B0     		sub	sp, sp, #8
  92              		.cfi_def_cfa_offset 24
  93              		.loc 1 2843 0
  94 0004 0646     		mov	r6, r0
  95 0006 0D46     		mov	r5, r1
  96              		.loc 1 2845 0
  97 0008 054C     		ldr	r4, .L5
  98 000a 986C     		ldr	r0, [r3, #72]
  99              	.LVL7:
 100 000c 0193     		str	r3, [sp, #4]
 101 000e 3146     		mov	r1, r6
 102              	.LVL8:
 103              		.loc 1 2843 0
 104 0010 1346     		mov	r3, r2
 105              	.LVL9:
 106              		.loc 1 2845 0
 107 0012 0094     		str	r4, [sp]
 108 0014 2A46     		mov	r2, r5
 109              	.LVL10:
 110 0016 FFF7FEFF 		bl	mf_render_character
 111              	.LVL11:
 112              		.loc 1 2847 0
ARM GAS  /tmp/ccOGUWYP.s 			page 3


 113 001a 02B0     		add	sp, sp, #8
 114              		@ sp needed
 115 001c 70BD     		pop	{r4, r5, r6, pc}
 116              	.L6:
 117 001e 00BF     		.align	2
 118              	.L5:
 119 0020 00000000 		.word	drawcharline
 120              		.cfi_endproc
 121              	.LFE134:
 122              		.size	fillcharglyph, .-fillcharglyph
 123 0024 AFF30080 		.section	.text.hline_clip,"ax",%progbits
 123      AFF30080 
 123      AFF30080 
 124              		.align	2
 125              		.p2align 4,,15
 126              		.thumb
 127              		.thumb_func
 128              		.type	hline_clip, %function
 129              	hline_clip:
 130              	.LFB115:
 131              		.loc 1 267 0
 132              		.cfi_startproc
 133              		@ args = 0, pretend = 0, frame = 0
 134              		@ frame_needed = 0, uses_anonymous_args = 0
 135              	.LVL12:
 136 0000 F8B5     		push	{r3, r4, r5, r6, r7, lr}
 137              		.cfi_def_cfa_offset 24
 138              		.cfi_offset 3, -24
 139              		.cfi_offset 4, -20
 140              		.cfi_offset 5, -16
 141              		.cfi_offset 6, -12
 142              		.cfi_offset 7, -8
 143              		.cfi_offset 14, -4
 144              		.loc 1 269 0
 145 0002 028F     		ldrh	r2, [r0, #56]
 146 0004 038E     		ldrh	r3, [r0, #48]
 147              		.loc 1 267 0
 148 0006 0446     		mov	r4, r0
 149              		.loc 1 269 0
 150 0008 19B2     		sxth	r1, r3
 151 000a 10B2     		sxth	r0, r2
 152              	.LVL13:
 153 000c 8842     		cmp	r0, r1
 154 000e 02DA     		bge	.L8
 155              		.loc 1 270 0
 156 0010 A386     		strh	r3, [r4, #52]	@ movhi
 157 0012 2286     		strh	r2, [r4, #48]	@ movhi
 158 0014 2387     		strh	r3, [r4, #56]	@ movhi
 159              	.L8:
 160              		.loc 1 279 0
 161 0016 658E     		ldrh	r5, [r4, #50]
 162 0018 B4F92A20 		ldrsh	r2, [r4, #42]
 163 001c 2BB2     		sxth	r3, r5
 164 001e 9A42     		cmp	r2, r3
 165 0020 20DC     		bgt	.L7
 166              		.loc 1 279 0 is_stmt 0 discriminator 2
 167 0022 B4F92E20 		ldrsh	r2, [r4, #46]
ARM GAS  /tmp/ccOGUWYP.s 			page 4


 168 0026 9A42     		cmp	r2, r3
 169 0028 1CDD     		ble	.L7
 170              	.LVL14:
 171              	.LBB16:
 172              	.LBB17:
 173              		.loc 1 280 0 is_stmt 1
 174 002a 268E     		ldrh	r6, [r4, #48]
 175 002c 238D     		ldrh	r3, [r4, #40]
 176 002e 31B2     		sxth	r1, r6
 177 0030 1AB2     		sxth	r2, r3
 178 0032 9142     		cmp	r1, r2
 179 0034 02DA     		bge	.L12
 180 0036 1E46     		mov	r6, r3
 181 0038 2386     		strh	r3, [r4, #48]	@ movhi
 182 003a 19B2     		sxth	r1, r3
 183              	.L12:
 184              		.loc 1 281 0
 185 003c 238F     		ldrh	r3, [r4, #56]
 186 003e A08D     		ldrh	r0, [r4, #44]
 187 0040 1AB2     		sxth	r2, r3
 188 0042 07B2     		sxth	r7, r0
 189 0044 BA42     		cmp	r2, r7
 190 0046 0EDA     		bge	.L17
 191              	.L13:
 192              		.loc 1 282 0
 193 0048 9142     		cmp	r1, r2
 194 004a 0BDC     		bgt	.L7
 195              		.loc 1 290 0
 196 004c 10D0     		beq	.L18
 197              		.loc 1 302 0
 198 004e C6F10106 		rsb	r6, r6, #1
 199 0052 3344     		add	r3, r3, r6
 200              		.loc 1 303 0
 201 0054 0122     		movs	r2, #1
 202              		.loc 1 302 0
 203 0056 A386     		strh	r3, [r4, #52]	@ movhi
 204              		.loc 1 303 0
 205 0058 E286     		strh	r2, [r4, #54]	@ movhi
 206              		.loc 1 304 0
 207 005a 2046     		mov	r0, r4
 208              	.LBE17:
 209              	.LBE16:
 210              		.loc 1 351 0
 211 005c BDE8F840 		pop	{r3, r4, r5, r6, r7, lr}
 212              	.LVL15:
 213              	.LBB26:
 214              	.LBB24:
 215              		.loc 1 304 0
 216 0060 FFF7FEBF 		b	gdisp_lld_fill_area
 217              	.LVL16:
 218              	.L7:
 219 0064 F8BD     		pop	{r3, r4, r5, r6, r7, pc}
 220              	.LVL17:
 221              	.L17:
 222              		.loc 1 281 0
 223 0066 431E     		subs	r3, r0, #1
 224 0068 9BB2     		uxth	r3, r3
ARM GAS  /tmp/ccOGUWYP.s 			page 5


 225 006a 2387     		strh	r3, [r4, #56]	@ movhi
 226 006c 1AB2     		sxth	r2, r3
 227 006e EBE7     		b	.L13
 228              	.L18:
 229              	.LVL18:
 230              	.LBB18:
 231              	.LBB19:
 232              		.loc 1 151 0
 233 0070 E38A     		ldrh	r3, [r4, #22]
 234 0072 03F00203 		and	r3, r3, #2
 235 0076 9BB2     		uxth	r3, r3
 236 0078 73B9     		cbnz	r3, .L15
 237              	.LVL19:
 238              	.LBB20:
 239              	.LBB21:
 240              		.loc 1 100 0
 241 007a 2188     		ldrh	r1, [r4]
 242 007c 6288     		ldrh	r2, [r4, #2]
 243              		.loc 1 99 0
 244 007e 6386     		strh	r3, [r4, #50]	@ movhi
 245 0080 2386     		strh	r3, [r4, #48]	@ movhi
 246              		.loc 1 100 0
 247 0082 A186     		strh	r1, [r4, #52]	@ movhi
 248 0084 E286     		strh	r2, [r4, #54]	@ movhi
 249              		.loc 1 101 0
 250 0086 2046     		mov	r0, r4
 251 0088 FFF7FEFF 		bl	gdisp_lld_write_start
 252              	.LVL20:
 253              		.loc 1 103 0
 254 008c E38A     		ldrh	r3, [r4, #22]
 255              		.loc 1 102 0
 256 008e 2686     		strh	r6, [r4, #48]	@ movhi
 257              		.loc 1 103 0
 258 0090 43F00203 		orr	r3, r3, #2
 259              		.loc 1 102 0
 260 0094 6586     		strh	r5, [r4, #50]	@ movhi
 261              		.loc 1 103 0
 262 0096 E382     		strh	r3, [r4, #22]	@ movhi
 263              	.LVL21:
 264              	.L15:
 265              	.LBE21:
 266              	.LBE20:
 267              		.loc 1 153 0
 268 0098 2046     		mov	r0, r4
 269 009a FFF7FEFF 		bl	gdisp_lld_write_pos
 270              	.LVL22:
 271              		.loc 1 154 0
 272 009e 2046     		mov	r0, r4
 273              	.LBE19:
 274              	.LBE18:
 275              	.LBE24:
 276              	.LBE26:
 277              		.loc 1 351 0
 278 00a0 BDE8F840 		pop	{r3, r4, r5, r6, r7, lr}
 279              	.LVL23:
 280              	.LBB27:
 281              	.LBB25:
ARM GAS  /tmp/ccOGUWYP.s 			page 6


 282              	.LBB23:
 283              	.LBB22:
 284              		.loc 1 154 0
 285 00a4 FFF7FEBF 		b	gdisp_lld_write_color
 286              	.LVL24:
 287              	.LBE22:
 288              	.LBE23:
 289              	.LBE25:
 290              	.LBE27:
 291              		.cfi_endproc
 292              	.LFE115:
 293              		.size	hline_clip, .-hline_clip
 294 00a8 AFF30080 		.section	.text.drawcharline,"ax",%progbits
 294      AFF30080 
 295              		.align	2
 296              		.p2align 4,,15
 297              		.thumb
 298              		.thumb_func
 299              		.type	drawcharline, %function
 300              	drawcharline:
 301              	.LFB132:
 302              		.loc 1 2793 0
 303              		.cfi_startproc
 304              		@ args = 4, pretend = 0, frame = 0
 305              		@ frame_needed = 0, uses_anonymous_args = 0
 306              		@ link register save eliminated.
 307              	.LVL25:
 308 0000 F0B4     		push	{r4, r5, r6, r7}
 309              		.cfi_def_cfa_offset 16
 310              		.cfi_offset 4, -16
 311              		.cfi_offset 5, -12
 312              		.cfi_offset 6, -8
 313              		.cfi_offset 7, -4
 314              		.loc 1 2793 0
 315 0002 049C     		ldr	r4, [sp, #16]
 316              		.loc 1 2795 0
 317 0004 B4F95250 		ldrsh	r5, [r4, #82]
 318 0008 8D42     		cmp	r5, r1
 319 000a 2ADC     		bgt	.L19
 320              		.loc 1 2795 0 is_stmt 0 discriminator 1
 321 000c B4F95650 		ldrsh	r5, [r4, #86]
 322 0010 8D42     		cmp	r5, r1
 323 0012 26DD     		ble	.L19
 324              	.LVL26:
 325              	.LBB30:
 326              	.LBB31:
 327              		.loc 1 2795 0
 328 0014 B4F95050 		ldrsh	r5, [r4, #80]
 329 0018 8618     		adds	r6, r0, r2
 330 001a AE42     		cmp	r6, r5
 331 001c 21DD     		ble	.L19
 332 001e B4F854C0 		ldrh	ip, [r4, #84]
 333 0022 0FFA8CF7 		sxth	r7, ip
 334 0026 B842     		cmp	r0, r7
 335 0028 1BDA     		bge	.L19
 336              		.loc 1 2797 0 is_stmt 1
 337 002a A842     		cmp	r0, r5
ARM GAS  /tmp/ccOGUWYP.s 			page 7


 338 002c 05DA     		bge	.L21
 339              		.loc 1 2798 0
 340 002e 521B     		subs	r2, r2, r5
 341              	.LVL27:
 342 0030 50FA82F2 		uxtab	r2, r0, r2
 343 0034 D2B2     		uxtb	r2, r2
 344              	.LVL28:
 345 0036 AE18     		adds	r6, r5, r2
 346 0038 2846     		mov	r0, r5
 347              	.LVL29:
 348              	.L21:
 349              		.loc 1 2801 0
 350 003a B742     		cmp	r7, r6
 351              		.loc 1 2802 0
 352 003c BCBF     		itt	lt
 353 003e C0EB0C02 		rsblt	r2, r0, ip
 354              	.LVL30:
 355 0042 D2B2     		uxtblt	r2, r2
 356              	.LVL31:
 357              		.loc 1 2803 0
 358 0044 802B     		cmp	r3, #128
 359 0046 0CD9     		bls	.L19
 360              		.loc 1 2804 0
 361 0048 431E     		subs	r3, r0, #1
 362              	.LVL32:
 363 004a 1A44     		add	r2, r2, r3
 364              	.LVL33:
 365 004c B4F84C30 		ldrh	r3, [r4, #76]
 366 0050 2086     		strh	r0, [r4, #48]	@ movhi
 367 0052 2287     		strh	r2, [r4, #56]	@ movhi
 368 0054 6186     		strh	r1, [r4, #50]	@ movhi
 369 0056 A4F84030 		strh	r3, [r4, #64]	@ movhi
 370              		.loc 1 2805 0
 371 005a 2046     		mov	r0, r4
 372              	.LVL34:
 373              	.LBE31:
 374              	.LBE30:
 375              		.loc 1 2808 0
 376 005c F0BC     		pop	{r4, r5, r6, r7}
 377              	.LVL35:
 378              	.LBB33:
 379              	.LBB32:
 380              		.loc 1 2805 0
 381 005e FFF7FEBF 		b	hline_clip
 382              	.LVL36:
 383              	.L19:
 384              	.LBE32:
 385              	.LBE33:
 386              		.loc 1 2808 0
 387 0062 F0BC     		pop	{r4, r5, r6, r7}
 388              	.LVL37:
 389 0064 7047     		bx	lr
 390              		.cfi_endproc
 391              	.LFE132:
 392              		.size	drawcharline, .-drawcharline
 393 0066 00BFAFF3 		.section	.text.vline_clip,"ax",%progbits
 393      0080AFF3 
ARM GAS  /tmp/ccOGUWYP.s 			page 8


 393      0080
 394              		.align	2
 395              		.p2align 4,,15
 396              		.thumb
 397              		.thumb_func
 398              		.type	vline_clip, %function
 399              	vline_clip:
 400              	.LFB116:
 401              		.loc 1 355 0
 402              		.cfi_startproc
 403              		@ args = 0, pretend = 0, frame = 0
 404              		@ frame_needed = 0, uses_anonymous_args = 0
 405              	.LVL38:
 406 0000 F8B5     		push	{r3, r4, r5, r6, r7, lr}
 407              		.cfi_def_cfa_offset 24
 408              		.cfi_offset 3, -24
 409              		.cfi_offset 4, -20
 410              		.cfi_offset 5, -16
 411              		.cfi_offset 6, -12
 412              		.cfi_offset 7, -8
 413              		.cfi_offset 14, -4
 414              		.loc 1 357 0
 415 0002 428F     		ldrh	r2, [r0, #58]
 416 0004 438E     		ldrh	r3, [r0, #50]
 417              		.loc 1 355 0
 418 0006 0446     		mov	r4, r0
 419              		.loc 1 357 0
 420 0008 19B2     		sxth	r1, r3
 421 000a 10B2     		sxth	r0, r2
 422              	.LVL39:
 423 000c 8842     		cmp	r0, r1
 424 000e 02DA     		bge	.L24
 425              		.loc 1 358 0
 426 0010 E386     		strh	r3, [r4, #54]	@ movhi
 427 0012 6286     		strh	r2, [r4, #50]	@ movhi
 428 0014 6387     		strh	r3, [r4, #58]	@ movhi
 429              	.L24:
 430              		.loc 1 367 0
 431 0016 258E     		ldrh	r5, [r4, #48]
 432 0018 B4F92820 		ldrsh	r2, [r4, #40]
 433 001c 2BB2     		sxth	r3, r5
 434 001e 9A42     		cmp	r2, r3
 435 0020 20DC     		bgt	.L23
 436              		.loc 1 367 0 is_stmt 0 discriminator 2
 437 0022 B4F92C20 		ldrsh	r2, [r4, #44]
 438 0026 9A42     		cmp	r2, r3
 439 0028 1CDD     		ble	.L23
 440              	.LVL40:
 441              	.LBB40:
 442              	.LBB41:
 443              		.loc 1 368 0 is_stmt 1
 444 002a 668E     		ldrh	r6, [r4, #50]
 445 002c 638D     		ldrh	r3, [r4, #42]
 446 002e 31B2     		sxth	r1, r6
 447 0030 1AB2     		sxth	r2, r3
 448 0032 9142     		cmp	r1, r2
 449 0034 02DA     		bge	.L28
ARM GAS  /tmp/ccOGUWYP.s 			page 9


 450 0036 1E46     		mov	r6, r3
 451 0038 6386     		strh	r3, [r4, #50]	@ movhi
 452 003a 19B2     		sxth	r1, r3
 453              	.L28:
 454              		.loc 1 369 0
 455 003c 638F     		ldrh	r3, [r4, #58]
 456 003e E08D     		ldrh	r0, [r4, #46]
 457 0040 1AB2     		sxth	r2, r3
 458 0042 07B2     		sxth	r7, r0
 459 0044 BA42     		cmp	r2, r7
 460 0046 0EDA     		bge	.L32
 461              	.L29:
 462              		.loc 1 370 0
 463 0048 9142     		cmp	r1, r2
 464 004a 0BDC     		bgt	.L23
 465              		.loc 1 378 0
 466 004c 10D0     		beq	.L33
 467              		.loc 1 390 0
 468 004e C6F10106 		rsb	r6, r6, #1
 469 0052 3344     		add	r3, r3, r6
 470              		.loc 1 391 0
 471 0054 0122     		movs	r2, #1
 472              		.loc 1 390 0
 473 0056 E386     		strh	r3, [r4, #54]	@ movhi
 474              		.loc 1 391 0
 475 0058 A286     		strh	r2, [r4, #52]	@ movhi
 476              		.loc 1 392 0
 477 005a 2046     		mov	r0, r4
 478              	.LBE41:
 479              	.LBE40:
 480              		.loc 1 436 0
 481 005c BDE8F840 		pop	{r3, r4, r5, r6, r7, lr}
 482              	.LVL41:
 483              	.LBB50:
 484              	.LBB48:
 485              		.loc 1 392 0
 486 0060 FFF7FEBF 		b	gdisp_lld_fill_area
 487              	.LVL42:
 488              	.L23:
 489 0064 F8BD     		pop	{r3, r4, r5, r6, r7, pc}
 490              	.LVL43:
 491              	.L32:
 492              		.loc 1 369 0
 493 0066 431E     		subs	r3, r0, #1
 494 0068 9BB2     		uxth	r3, r3
 495 006a 6387     		strh	r3, [r4, #58]	@ movhi
 496 006c 1AB2     		sxth	r2, r3
 497 006e EBE7     		b	.L29
 498              	.L33:
 499              	.LVL44:
 500              	.LBB42:
 501              	.LBB43:
 502              		.loc 1 151 0
 503 0070 E38A     		ldrh	r3, [r4, #22]
 504 0072 03F00203 		and	r3, r3, #2
 505 0076 9BB2     		uxth	r3, r3
 506 0078 73B9     		cbnz	r3, .L31
ARM GAS  /tmp/ccOGUWYP.s 			page 10


 507              	.LVL45:
 508              	.LBB44:
 509              	.LBB45:
 510              		.loc 1 100 0
 511 007a 2188     		ldrh	r1, [r4]
 512 007c 6288     		ldrh	r2, [r4, #2]
 513              		.loc 1 99 0
 514 007e 6386     		strh	r3, [r4, #50]	@ movhi
 515 0080 2386     		strh	r3, [r4, #48]	@ movhi
 516              		.loc 1 100 0
 517 0082 A186     		strh	r1, [r4, #52]	@ movhi
 518 0084 E286     		strh	r2, [r4, #54]	@ movhi
 519              		.loc 1 101 0
 520 0086 2046     		mov	r0, r4
 521 0088 FFF7FEFF 		bl	gdisp_lld_write_start
 522              	.LVL46:
 523              		.loc 1 103 0
 524 008c E38A     		ldrh	r3, [r4, #22]
 525              		.loc 1 102 0
 526 008e 2586     		strh	r5, [r4, #48]	@ movhi
 527              		.loc 1 103 0
 528 0090 43F00203 		orr	r3, r3, #2
 529              		.loc 1 102 0
 530 0094 6686     		strh	r6, [r4, #50]	@ movhi
 531              		.loc 1 103 0
 532 0096 E382     		strh	r3, [r4, #22]	@ movhi
 533              	.LVL47:
 534              	.L31:
 535              	.LBE45:
 536              	.LBE44:
 537              		.loc 1 153 0
 538 0098 2046     		mov	r0, r4
 539 009a FFF7FEFF 		bl	gdisp_lld_write_pos
 540              	.LVL48:
 541              		.loc 1 154 0
 542 009e 2046     		mov	r0, r4
 543              	.LBE43:
 544              	.LBE42:
 545              	.LBE48:
 546              	.LBE50:
 547              		.loc 1 436 0
 548 00a0 BDE8F840 		pop	{r3, r4, r5, r6, r7, lr}
 549              	.LVL49:
 550              	.LBB51:
 551              	.LBB49:
 552              	.LBB47:
 553              	.LBB46:
 554              		.loc 1 154 0
 555 00a4 FFF7FEBF 		b	gdisp_lld_write_color
 556              	.LVL50:
 557              	.LBE46:
 558              	.LBE47:
 559              	.LBE49:
 560              	.LBE51:
 561              		.cfi_endproc
 562              	.LFE116:
 563              		.size	vline_clip, .-vline_clip
ARM GAS  /tmp/ccOGUWYP.s 			page 11


 564 00a8 AFF30080 		.section	.text._gdispDeinit,"ax",%progbits
 564      AFF30080 
 565              		.align	2
 566              		.p2align 4,,15
 567              		.global	_gdispDeinit
 568              		.thumb
 569              		.thumb_func
 570              		.type	_gdispDeinit, %function
 571              	_gdispDeinit:
 572              	.LFB120:
 573              		.loc 1 631 0
 574              		.cfi_startproc
 575              		@ args = 0, pretend = 0, frame = 0
 576              		@ frame_needed = 0, uses_anonymous_args = 0
 577              		@ link register save eliminated.
 578 0000 7047     		bx	lr
 579              		.cfi_endproc
 580              	.LFE120:
 581              		.size	_gdispDeinit, .-_gdispDeinit
 582 0002 00BFAFF3 		.section	.text.gdispGetDisplay,"ax",%progbits
 582      0080AFF3 
 582      0080AFF3 
 582      0080
 583              		.align	2
 584              		.p2align 4,,15
 585              		.global	gdispGetDisplay
 586              		.thumb
 587              		.thumb_func
 588              		.type	gdispGetDisplay, %function
 589              	gdispGetDisplay:
 590              	.LFB121:
 591              		.loc 1 635 0
 592              		.cfi_startproc
 593              		@ args = 0, pretend = 0, frame = 0
 594              		@ frame_needed = 0, uses_anonymous_args = 0
 595              		@ link register save eliminated.
 596              	.LVL51:
 597              		.loc 1 637 0
 598 0000 024B     		ldr	r3, .L38
 599              		.loc 1 636 0
 600 0002 0028     		cmp	r0, #0
 601              		.loc 1 639 0
 602 0004 0CBF     		ite	eq
 603 0006 1846     		moveq	r0, r3
 604 0008 0020     		movne	r0, #0
 605              	.LVL52:
 606 000a 7047     		bx	lr
 607              	.L39:
 608              		.align	2
 609              	.L38:
 610 000c 00000000 		.word	.LANCHOR0
 611              		.cfi_endproc
 612              	.LFE121:
 613              		.size	gdispGetDisplay, .-gdispGetDisplay
 614              		.section	.text.gdispSetDisplay,"ax",%progbits
 615              		.align	2
 616              		.p2align 4,,15
ARM GAS  /tmp/ccOGUWYP.s 			page 12


 617              		.global	gdispSetDisplay
 618              		.thumb
 619              		.thumb_func
 620              		.type	gdispSetDisplay, %function
 621              	gdispSetDisplay:
 622              	.LFB122:
 623              		.loc 1 641 0
 624              		.cfi_startproc
 625              		@ args = 0, pretend = 0, frame = 0
 626              		@ frame_needed = 0, uses_anonymous_args = 0
 627              		@ link register save eliminated.
 628              	.LVL53:
 629              		.loc 1 642 0
 630 0000 08B1     		cbz	r0, .L40
 631              		.loc 1 642 0 is_stmt 0 discriminator 1
 632 0002 014B     		ldr	r3, .L45
 633 0004 1860     		str	r0, [r3]
 634              	.L40:
 635 0006 7047     		bx	lr
 636              	.L46:
 637              		.align	2
 638              	.L45:
 639 0008 00000000 		.word	.LANCHOR1
 640              		.cfi_endproc
 641              	.LFE122:
 642              		.size	gdispSetDisplay, .-gdispSetDisplay
 643 000c AFF30080 		.section	.text.gdispGFlush,"ax",%progbits
 644              		.align	2
 645              		.p2align 4,,15
 646              		.global	gdispGFlush
 647              		.thumb
 648              		.thumb_func
 649              		.type	gdispGFlush, %function
 650              	gdispGFlush:
 651              	.LFB123:
 652              		.loc 1 645 0 is_stmt 1
 653              		.cfi_startproc
 654              		@ args = 0, pretend = 0, frame = 0
 655              		@ frame_needed = 0, uses_anonymous_args = 0
 656              		@ link register save eliminated.
 657              	.LVL54:
 658 0000 7047     		bx	lr
 659              		.cfi_endproc
 660              	.LFE123:
 661              		.size	gdispGFlush, .-gdispGFlush
 662 0002 00BFAFF3 		.section	.text.gdispGDrawPixel,"ax",%progbits
 662      0080AFF3 
 662      0080AFF3 
 662      0080
 663              		.align	2
 664              		.p2align 4,,15
 665              		.global	gdispGDrawPixel
 666              		.thumb
 667              		.thumb_func
 668              		.type	gdispGDrawPixel, %function
 669              	gdispGDrawPixel:
 670              	.LFB124:
ARM GAS  /tmp/ccOGUWYP.s 			page 13


 671              		.loc 1 907 0
 672              		.cfi_startproc
 673              		@ args = 0, pretend = 0, frame = 0
 674              		@ frame_needed = 0, uses_anonymous_args = 0
 675              	.LVL55:
 676              		.loc 1 907 0
 677 0000 F8B5     		push	{r3, r4, r5, r6, r7, lr}
 678              		.cfi_def_cfa_offset 24
 679              		.cfi_offset 3, -24
 680              		.cfi_offset 4, -20
 681              		.cfi_offset 5, -16
 682              		.cfi_offset 6, -12
 683              		.cfi_offset 7, -8
 684              		.cfi_offset 14, -4
 685              		.loc 1 907 0
 686 0002 0446     		mov	r4, r0
 687              		.loc 1 908 0
 688 0004 1830     		adds	r0, r0, #24
 689              	.LVL56:
 690              		.loc 1 907 0
 691 0006 0D46     		mov	r5, r1
 692 0008 1F46     		mov	r7, r3
 693 000a 1646     		mov	r6, r2
 694              		.loc 1 908 0
 695 000c FFF7FEFF 		bl	chMtxLock
 696              	.LVL57:
 697              	.LBB60:
 698              	.LBB61:
 699              		.loc 1 184 0
 700 0010 B4F92830 		ldrsh	r3, [r4, #40]
 701              	.LBE61:
 702              	.LBE60:
 703              		.loc 1 911 0
 704 0014 A4F84070 		strh	r7, [r4, #64]	@ movhi
 705              	.LVL58:
 706              	.LBB73:
 707              	.LBB70:
 708              		.loc 1 184 0
 709 0018 AB42     		cmp	r3, r5
 710              	.LBE70:
 711              	.LBE73:
 712              		.loc 1 909 0
 713 001a 2586     		strh	r5, [r4, #48]	@ movhi
 714              		.loc 1 910 0
 715 001c 6686     		strh	r6, [r4, #50]	@ movhi
 716              	.LBB74:
 717              	.LBB71:
 718              		.loc 1 184 0
 719 001e 0BDC     		bgt	.L49
 720 0020 B4F92C30 		ldrsh	r3, [r4, #44]
 721 0024 AB42     		cmp	r3, r5
 722 0026 07DD     		ble	.L49
 723              	.LVL59:
 724              	.LBB62:
 725              	.LBB63:
 726 0028 B4F92A30 		ldrsh	r3, [r4, #42]
 727 002c B342     		cmp	r3, r6
ARM GAS  /tmp/ccOGUWYP.s 			page 14


 728 002e 03DC     		bgt	.L49
 729 0030 B4F92E30 		ldrsh	r3, [r4, #46]
 730 0034 B342     		cmp	r3, r6
 731 0036 0DDC     		bgt	.L55
 732              	.LVL60:
 733              	.L49:
 734              	.LBE63:
 735              	.LBE62:
 736              	.LBE71:
 737              	.LBE74:
 738              		.loc 1 913 0
 739 0038 E38A     		ldrh	r3, [r4, #22]
 740 003a 9B07     		lsls	r3, r3, #30
 741 003c 06D5     		bpl	.L51
 742              		.loc 1 913 0 is_stmt 0 discriminator 1
 743 003e 2046     		mov	r0, r4
 744 0040 FFF7FEFF 		bl	gdisp_lld_write_stop
 745              	.LVL61:
 746 0044 E38A     		ldrh	r3, [r4, #22]
 747 0046 23F00203 		bic	r3, r3, #2
 748 004a E382     		strh	r3, [r4, #22]	@ movhi
 749              	.L51:
 750              		.loc 1 915 0 is_stmt 1
 751 004c BDE8F840 		pop	{r3, r4, r5, r6, r7, lr}
 752              	.LVL62:
 753              		.loc 1 914 0
 754 0050 FFF7FEBF 		b	chMtxUnlock
 755              	.LVL63:
 756              	.L55:
 757              	.LBB75:
 758              	.LBB72:
 759              	.LBB69:
 760              	.LBB68:
 761              	.LBB64:
 762              	.LBB65:
 763              		.loc 1 151 0
 764 0054 E38A     		ldrh	r3, [r4, #22]
 765 0056 03F00203 		and	r3, r3, #2
 766 005a 9BB2     		uxth	r3, r3
 767 005c 73B9     		cbnz	r3, .L50
 768              	.LVL64:
 769              	.LBB66:
 770              	.LBB67:
 771              		.loc 1 100 0
 772 005e 2188     		ldrh	r1, [r4]
 773 0060 6288     		ldrh	r2, [r4, #2]
 774              		.loc 1 99 0
 775 0062 6386     		strh	r3, [r4, #50]	@ movhi
 776 0064 2386     		strh	r3, [r4, #48]	@ movhi
 777              		.loc 1 100 0
 778 0066 A186     		strh	r1, [r4, #52]	@ movhi
 779 0068 E286     		strh	r2, [r4, #54]	@ movhi
 780              		.loc 1 101 0
 781 006a 2046     		mov	r0, r4
 782 006c FFF7FEFF 		bl	gdisp_lld_write_start
 783              	.LVL65:
 784              		.loc 1 103 0
ARM GAS  /tmp/ccOGUWYP.s 			page 15


 785 0070 E38A     		ldrh	r3, [r4, #22]
 786              		.loc 1 102 0
 787 0072 2586     		strh	r5, [r4, #48]	@ movhi
 788              		.loc 1 103 0
 789 0074 43F00203 		orr	r3, r3, #2
 790              		.loc 1 102 0
 791 0078 6686     		strh	r6, [r4, #50]	@ movhi
 792              		.loc 1 103 0
 793 007a E382     		strh	r3, [r4, #22]	@ movhi
 794              	.LVL66:
 795              	.L50:
 796              	.LBE67:
 797              	.LBE66:
 798              		.loc 1 153 0
 799 007c 2046     		mov	r0, r4
 800 007e FFF7FEFF 		bl	gdisp_lld_write_pos
 801              	.LVL67:
 802              		.loc 1 154 0
 803 0082 2046     		mov	r0, r4
 804 0084 FFF7FEFF 		bl	gdisp_lld_write_color
 805              	.LVL68:
 806 0088 D6E7     		b	.L49
 807              	.LBE65:
 808              	.LBE64:
 809              	.LBE68:
 810              	.LBE69:
 811              	.LBE72:
 812              	.LBE75:
 813              		.cfi_endproc
 814              	.LFE124:
 815              		.size	gdispGDrawPixel, .-gdispGDrawPixel
 816 008a 00BFAFF3 		.section	.text.gdispGDrawLine,"ax",%progbits
 816      0080
 817              		.align	2
 818              		.p2align 4,,15
 819              		.global	gdispGDrawLine
 820              		.thumb
 821              		.thumb_func
 822              		.type	gdispGDrawLine, %function
 823              	gdispGDrawLine:
 824              	.LFB125:
 825              		.loc 1 917 0
 826              		.cfi_startproc
 827              		@ args = 8, pretend = 0, frame = 8
 828              		@ frame_needed = 0, uses_anonymous_args = 0
 829              	.LVL69:
 830 0000 2DE9F04F 		push	{r4, r5, r6, r7, r8, r9, r10, fp, lr}
 831              		.cfi_def_cfa_offset 36
 832              		.cfi_offset 4, -36
 833              		.cfi_offset 5, -32
 834              		.cfi_offset 6, -28
 835              		.cfi_offset 7, -24
 836              		.cfi_offset 8, -20
 837              		.cfi_offset 9, -16
 838              		.cfi_offset 10, -12
 839              		.cfi_offset 11, -8
 840              		.cfi_offset 14, -4
ARM GAS  /tmp/ccOGUWYP.s 			page 16


 841 0004 83B0     		sub	sp, sp, #12
 842              		.cfi_def_cfa_offset 48
 843              		.loc 1 917 0
 844 0006 0446     		mov	r4, r0
 845 0008 BDF93060 		ldrsh	r6, [sp, #48]
 846 000c BDF83490 		ldrh	r9, [sp, #52]
 847 0010 1746     		mov	r7, r2
 848              		.loc 1 918 0
 849 0012 1830     		adds	r0, r0, #24
 850              	.LVL70:
 851              		.loc 1 917 0
 852 0014 0D46     		mov	r5, r1
 853 0016 9846     		mov	r8, r3
 854              		.loc 1 918 0
 855 0018 FFF7FEFF 		bl	chMtxLock
 856              	.LVL71:
 857              	.LBB94:
 858              	.LBB95:
 859              		.loc 1 446 0
 860 001c B742     		cmp	r7, r6
 861              	.LBE95:
 862              	.LBE94:
 863              		.loc 1 923 0
 864 001e A4F84090 		strh	r9, [r4, #64]	@ movhi
 865              	.LVL72:
 866              		.loc 1 919 0
 867 0022 2586     		strh	r5, [r4, #48]	@ movhi
 868              		.loc 1 920 0
 869 0024 6786     		strh	r7, [r4, #50]	@ movhi
 870              		.loc 1 921 0
 871 0026 A4F83880 		strh	r8, [r4, #56]	@ movhi
 872              		.loc 1 922 0
 873 002a 6687     		strh	r6, [r4, #58]	@ movhi
 874              	.LBB122:
 875              	.LBB120:
 876              		.loc 1 446 0
 877 002c 00F0F580 		beq	.L81
 878              		.loc 1 452 0
 879 0030 4545     		cmp	r5, r8
 880 0032 00F0F680 		beq	.L82
 881              		.loc 1 465 0
 882 0036 5ADD     		ble	.L83
 883              		.loc 1 469 0
 884 0038 C8EB0508 		rsb	r8, r8, r5
 885              		.loc 1 472 0
 886 003c B742     		cmp	r7, r6
 887              		.loc 1 469 0
 888 003e 1FFA88F3 		uxth	r3, r8
 889              	.LVL73:
 890              		.loc 1 470 0
 891 0042 4FF6FF79 		movw	r9, #65535
 892              	.LVL74:
 893              		.loc 1 472 0
 894 0046 5ADC     		bgt	.L62
 895              	.LVL75:
 896              	.L86:
 897              		.loc 1 473 0
ARM GAS  /tmp/ccOGUWYP.s 			page 17


 898 0048 F61B     		subs	r6, r6, r7
 899 004a B6B2     		uxth	r6, r6
 900              	.LVL76:
 901              		.loc 1 480 0
 902 004c 0FFA83F8 		sxth	r8, r3
 903 0050 0FFA86FB 		sxth	fp, r6
 904 0054 D845     		cmp	r8, fp
 905              		.loc 1 474 0
 906 0056 4FF0010A 		mov	r10, #1
 907              	.LVL77:
 908              		.loc 1 480 0
 909 005a 5ADB     		blt	.L64
 910              	.LVL78:
 911              	.L87:
 912              		.loc 1 481 0
 913 005c 4FEA4B0B 		lsl	fp, fp, #1
 914              		.loc 1 482 0
 915 0060 1FFA8BF2 		uxth	r2, fp
 916 0064 9BB2     		uxth	r3, r3
 917 0066 D61A     		subs	r6, r2, r3
 918 0068 B6B2     		uxth	r6, r6
 919              		.loc 1 483 0
 920 006a F31A     		subs	r3, r6, r3
 921              		.loc 1 485 0
 922 006c B8F1000F 		cmp	r8, #0
 923              		.loc 1 483 0
 924 0070 1FFA83FB 		uxth	fp, r3
 925              		.loc 1 482 0
 926 0074 B6B2     		uxth	r6, r6
 927              	.LVL79:
 928              		.loc 1 485 0
 929 0076 2BDB     		blt	.L58
 930 0078 0027     		movs	r7, #0
 931 007a 0BE0     		b	.L71
 932              	.LVL80:
 933              	.L68:
 934              		.loc 1 493 0
 935 007c 638E     		ldrh	r3, [r4, #50]
 936 007e 0137     		adds	r7, r7, #1
 937              	.LVL81:
 938 0080 5344     		add	r3, r3, r10
 939 0082 6386     		strh	r3, [r4, #50]	@ movhi
 940              		.loc 1 485 0
 941 0084 3BB2     		sxth	r3, r7
 942              		.loc 1 491 0
 943 0086 5E44     		add	r6, r6, fp
 944              	.LVL82:
 945              		.loc 1 492 0
 946 0088 4D44     		add	r5, r5, r9
 947              		.loc 1 485 0
 948 008a 9845     		cmp	r8, r3
 949              		.loc 1 491 0
 950 008c B6B2     		uxth	r6, r6
 951              	.LVL83:
 952              		.loc 1 492 0
 953 008e 2586     		strh	r5, [r4, #48]	@ movhi
 954              		.loc 1 485 0
ARM GAS  /tmp/ccOGUWYP.s 			page 18


 955 0090 1EDB     		blt	.L58
 956              	.LVL84:
 957              	.L85:
 958 0092 258E     		ldrh	r5, [r4, #48]
 959              	.LVL85:
 960              	.L71:
 961              	.LBB96:
 962              	.LBB97:
 963              		.loc 1 184 0
 964 0094 B4F92810 		ldrsh	r1, [r4, #40]
 965 0098 2BB2     		sxth	r3, r5
 966 009a 9942     		cmp	r1, r3
 967 009c 0EDC     		bgt	.L66
 968 009e B4F92C10 		ldrsh	r1, [r4, #44]
 969 00a2 9942     		cmp	r1, r3
 970 00a4 0ADD     		ble	.L66
 971              	.LVL86:
 972              	.LBB98:
 973              	.LBB99:
 974 00a6 618E     		ldrh	r1, [r4, #50]
 975 00a8 B4F92A00 		ldrsh	r0, [r4, #42]
 976 00ac 0BB2     		sxth	r3, r1
 977 00ae 9842     		cmp	r0, r3
 978 00b0 04DC     		bgt	.L66
 979 00b2 B4F92E00 		ldrsh	r0, [r4, #46]
 980 00b6 9842     		cmp	r0, r3
 981 00b8 00F38B80 		bgt	.L84
 982              	.LVL87:
 983              	.L66:
 984              	.LBE99:
 985              	.LBE98:
 986              	.LBE97:
 987              	.LBE96:
 988              		.loc 1 487 0
 989 00bc 3004     		lsls	r0, r6, #16
 990 00be DDD5     		bpl	.L68
 991 00c0 0137     		adds	r7, r7, #1
 992              	.LVL88:
 993              		.loc 1 485 0
 994 00c2 3BB2     		sxth	r3, r7
 995              		.loc 1 488 0
 996 00c4 1644     		add	r6, r6, r2
 997              	.LVL89:
 998              		.loc 1 489 0
 999 00c6 4D44     		add	r5, r5, r9
 1000              		.loc 1 485 0
 1001 00c8 9845     		cmp	r8, r3
 1002              		.loc 1 488 0
 1003 00ca B6B2     		uxth	r6, r6
 1004              	.LVL90:
 1005              		.loc 1 489 0
 1006 00cc 2586     		strh	r5, [r4, #48]	@ movhi
 1007              	.LVL91:
 1008              		.loc 1 485 0
 1009 00ce E0DA     		bge	.L85
 1010              	.LVL92:
 1011              	.L58:
ARM GAS  /tmp/ccOGUWYP.s 			page 19


 1012              	.LBE120:
 1013              	.LBE122:
 1014              		.loc 1 925 0
 1015 00d0 E38A     		ldrh	r3, [r4, #22]
 1016 00d2 9B07     		lsls	r3, r3, #30
 1017 00d4 06D5     		bpl	.L77
 1018              		.loc 1 925 0 is_stmt 0 discriminator 1
 1019 00d6 2046     		mov	r0, r4
 1020 00d8 FFF7FEFF 		bl	gdisp_lld_write_stop
 1021              	.LVL93:
 1022 00dc E38A     		ldrh	r3, [r4, #22]
 1023 00de 23F00203 		bic	r3, r3, #2
 1024 00e2 E382     		strh	r3, [r4, #22]	@ movhi
 1025              	.L77:
 1026              		.loc 1 927 0 is_stmt 1
 1027 00e4 03B0     		add	sp, sp, #12
 1028              		@ sp needed
 1029 00e6 BDE8F04F 		pop	{r4, r5, r6, r7, r8, r9, r10, fp, lr}
 1030              	.LVL94:
 1031              		.loc 1 926 0
 1032 00ea FFF7FEBF 		b	chMtxUnlock
 1033              	.LVL95:
 1034              	.L83:
 1035              	.LBB123:
 1036              	.LBB121:
 1037              		.loc 1 466 0
 1038 00ee C5EB0808 		rsb	r8, r5, r8
 1039              		.loc 1 472 0
 1040 00f2 B742     		cmp	r7, r6
 1041              		.loc 1 466 0
 1042 00f4 1FFA88F3 		uxth	r3, r8
 1043              	.LVL96:
 1044              		.loc 1 467 0
 1045 00f8 4FF00109 		mov	r9, #1
 1046              	.LVL97:
 1047              		.loc 1 472 0
 1048 00fc A4DD     		ble	.L86
 1049              	.LVL98:
 1050              	.L62:
 1051              		.loc 1 476 0
 1052 00fe BE1B     		subs	r6, r7, r6
 1053 0100 B6B2     		uxth	r6, r6
 1054              	.LVL99:
 1055              		.loc 1 480 0
 1056 0102 0FFA83F8 		sxth	r8, r3
 1057 0106 0FFA86FB 		sxth	fp, r6
 1058 010a D845     		cmp	r8, fp
 1059              		.loc 1 477 0
 1060 010c 4FF6FF7A 		movw	r10, #65535
 1061              	.LVL100:
 1062              		.loc 1 480 0
 1063 0110 A4DA     		bge	.L87
 1064              	.LVL101:
 1065              	.L64:
 1066              		.loc 1 497 0
 1067 0112 4FEA4802 		lsl	r2, r8, #1
 1068              		.loc 1 498 0
ARM GAS  /tmp/ccOGUWYP.s 			page 20


 1069 0116 B6B2     		uxth	r6, r6
 1070 0118 92B2     		uxth	r2, r2
 1071 011a 931B     		subs	r3, r2, r6
 1072 011c 9BB2     		uxth	r3, r3
 1073              		.loc 1 499 0
 1074 011e 9E1B     		subs	r6, r3, r6
 1075              		.loc 1 501 0
 1076 0120 BBF1000F 		cmp	fp, #0
 1077              		.loc 1 499 0
 1078 0124 1FFA86FC 		uxth	ip, r6
 1079              		.loc 1 498 0
 1080 0128 9EB2     		uxth	r6, r3
 1081              	.LVL102:
 1082              		.loc 1 501 0
 1083 012a D1DB     		blt	.L58
 1084 012c B846     		mov	r8, r7
 1085 012e 0027     		movs	r7, #0
 1086 0130 0EE0     		b	.L76
 1087              	.LVL103:
 1088              	.L74:
 1089              		.loc 1 508 0
 1090 0132 238E     		ldrh	r3, [r4, #48]
 1091              		.loc 1 507 0
 1092 0134 6644     		add	r6, r6, ip
 1093              	.LVL104:
 1094              		.loc 1 509 0
 1095 0136 D044     		add	r8, r8, r10
 1096              		.loc 1 508 0
 1097 0138 4B44     		add	r3, r3, r9
 1098              		.loc 1 507 0
 1099 013a B6B2     		uxth	r6, r6
 1100              	.LVL105:
 1101              		.loc 1 509 0
 1102 013c A4F83280 		strh	r8, [r4, #50]	@ movhi
 1103              		.loc 1 508 0
 1104 0140 2386     		strh	r3, [r4, #48]	@ movhi
 1105              	.LVL106:
 1106              	.L75:
 1107 0142 0137     		adds	r7, r7, #1
 1108              	.LVL107:
 1109              		.loc 1 501 0
 1110 0144 3BB2     		sxth	r3, r7
 1111 0146 9B45     		cmp	fp, r3
 1112 0148 C2DB     		blt	.L58
 1113 014a 258E     		ldrh	r5, [r4, #48]
 1114 014c B4F83280 		ldrh	r8, [r4, #50]
 1115              	.LVL108:
 1116              	.L76:
 1117              	.LBB107:
 1118              	.LBB108:
 1119              		.loc 1 184 0
 1120 0150 B4F92810 		ldrsh	r1, [r4, #40]
 1121 0154 2BB2     		sxth	r3, r5
 1122 0156 9942     		cmp	r1, r3
 1123 0158 0DDC     		bgt	.L72
 1124 015a B4F92C10 		ldrsh	r1, [r4, #44]
 1125 015e 9942     		cmp	r1, r3
ARM GAS  /tmp/ccOGUWYP.s 			page 21


 1126 0160 09DD     		ble	.L72
 1127              	.LVL109:
 1128              	.LBB109:
 1129              	.LBB110:
 1130 0162 B4F92A10 		ldrsh	r1, [r4, #42]
 1131 0166 0FFA88F3 		sxth	r3, r8
 1132 016a 9942     		cmp	r1, r3
 1133 016c 03DC     		bgt	.L72
 1134 016e B4F92E10 		ldrsh	r1, [r4, #46]
 1135 0172 9942     		cmp	r1, r3
 1136 0174 07DC     		bgt	.L88
 1137              	.LVL110:
 1138              	.L72:
 1139              	.LBE110:
 1140              	.LBE109:
 1141              	.LBE108:
 1142              	.LBE107:
 1143              		.loc 1 503 0
 1144 0176 3104     		lsls	r1, r6, #16
 1145 0178 DBD5     		bpl	.L74
 1146              		.loc 1 504 0
 1147 017a 1644     		add	r6, r6, r2
 1148              	.LVL111:
 1149              		.loc 1 505 0
 1150 017c D044     		add	r8, r8, r10
 1151              		.loc 1 504 0
 1152 017e B6B2     		uxth	r6, r6
 1153              	.LVL112:
 1154              		.loc 1 505 0
 1155 0180 A4F83280 		strh	r8, [r4, #50]	@ movhi
 1156 0184 DDE7     		b	.L75
 1157              	.LVL113:
 1158              	.L88:
 1159              	.LBB118:
 1160              	.LBB117:
 1161              	.LBB116:
 1162              	.LBB115:
 1163              	.LBB111:
 1164              	.LBB112:
 1165              		.loc 1 151 0
 1166 0186 E38A     		ldrh	r3, [r4, #22]
 1167 0188 03F00203 		and	r3, r3, #2
 1168 018c 9BB2     		uxth	r3, r3
 1169 018e 9BB9     		cbnz	r3, .L73
 1170              	.LVL114:
 1171              	.LBB113:
 1172              	.LBB114:
 1173              		.loc 1 100 0
 1174 0190 2088     		ldrh	r0, [r4]
 1175 0192 6188     		ldrh	r1, [r4, #2]
 1176              		.loc 1 99 0
 1177 0194 6386     		strh	r3, [r4, #50]	@ movhi
 1178 0196 2386     		strh	r3, [r4, #48]	@ movhi
 1179              		.loc 1 100 0
 1180 0198 A086     		strh	r0, [r4, #52]	@ movhi
 1181 019a E186     		strh	r1, [r4, #54]	@ movhi
 1182              		.loc 1 101 0
ARM GAS  /tmp/ccOGUWYP.s 			page 22


 1183 019c 2046     		mov	r0, r4
 1184 019e 8DE80410 		stmia	sp, {r2, ip}
 1185 01a2 FFF7FEFF 		bl	gdisp_lld_write_start
 1186              	.LVL115:
 1187              		.loc 1 103 0
 1188 01a6 E38A     		ldrh	r3, [r4, #22]
 1189              		.loc 1 102 0
 1190 01a8 2586     		strh	r5, [r4, #48]	@ movhi
 1191              		.loc 1 103 0
 1192 01aa 9DE80410 		ldmia	sp, {r2, ip}
 1193 01ae 43F00203 		orr	r3, r3, #2
 1194              		.loc 1 102 0
 1195 01b2 A4F83280 		strh	r8, [r4, #50]	@ movhi
 1196              		.loc 1 103 0
 1197 01b6 E382     		strh	r3, [r4, #22]	@ movhi
 1198              	.LVL116:
 1199              	.L73:
 1200              	.LBE114:
 1201              	.LBE113:
 1202              		.loc 1 153 0
 1203 01b8 2046     		mov	r0, r4
 1204 01ba 8DE80410 		stmia	sp, {r2, ip}
 1205 01be FFF7FEFF 		bl	gdisp_lld_write_pos
 1206              	.LVL117:
 1207              		.loc 1 154 0
 1208 01c2 2046     		mov	r0, r4
 1209 01c4 FFF7FEFF 		bl	gdisp_lld_write_color
 1210              	.LVL118:
 1211 01c8 B4F83280 		ldrh	r8, [r4, #50]
 1212 01cc 9DE80410 		ldmia	sp, {r2, ip}
 1213 01d0 D1E7     		b	.L72
 1214              	.LVL119:
 1215              	.L84:
 1216              	.LBE112:
 1217              	.LBE111:
 1218              	.LBE115:
 1219              	.LBE116:
 1220              	.LBE117:
 1221              	.LBE118:
 1222              	.LBB119:
 1223              	.LBB106:
 1224              	.LBB105:
 1225              	.LBB104:
 1226              	.LBB100:
 1227              	.LBB101:
 1228              		.loc 1 151 0
 1229 01d2 E38A     		ldrh	r3, [r4, #22]
 1230 01d4 03F00203 		and	r3, r3, #2
 1231 01d8 9BB2     		uxth	r3, r3
 1232 01da A3B9     		cbnz	r3, .L67
 1233              	.LVL120:
 1234              	.LBB102:
 1235              	.LBB103:
 1236              		.loc 1 100 0
 1237 01dc 6088     		ldrh	r0, [r4, #2]
 1238 01de B4F800E0 		ldrh	lr, [r4]
 1239              		.loc 1 99 0
ARM GAS  /tmp/ccOGUWYP.s 			page 23


 1240 01e2 6386     		strh	r3, [r4, #50]	@ movhi
 1241 01e4 2386     		strh	r3, [r4, #48]	@ movhi
 1242              		.loc 1 100 0
 1243 01e6 E086     		strh	r0, [r4, #54]	@ movhi
 1244 01e8 A4F834E0 		strh	lr, [r4, #52]	@ movhi
 1245              		.loc 1 101 0
 1246 01ec 2046     		mov	r0, r4
 1247 01ee 0191     		str	r1, [sp, #4]
 1248 01f0 0092     		str	r2, [sp]
 1249 01f2 FFF7FEFF 		bl	gdisp_lld_write_start
 1250              	.LVL121:
 1251              		.loc 1 103 0
 1252 01f6 E38A     		ldrh	r3, [r4, #22]
 1253              		.loc 1 102 0
 1254 01f8 0199     		ldr	r1, [sp, #4]
 1255              		.loc 1 103 0
 1256 01fa 009A     		ldr	r2, [sp]
 1257              		.loc 1 102 0
 1258 01fc 2586     		strh	r5, [r4, #48]	@ movhi
 1259              		.loc 1 103 0
 1260 01fe 43F00203 		orr	r3, r3, #2
 1261              		.loc 1 102 0
 1262 0202 6186     		strh	r1, [r4, #50]	@ movhi
 1263              		.loc 1 103 0
 1264 0204 E382     		strh	r3, [r4, #22]	@ movhi
 1265              	.LVL122:
 1266              	.L67:
 1267              	.LBE103:
 1268              	.LBE102:
 1269              		.loc 1 153 0
 1270 0206 2046     		mov	r0, r4
 1271 0208 0092     		str	r2, [sp]
 1272 020a FFF7FEFF 		bl	gdisp_lld_write_pos
 1273              	.LVL123:
 1274              		.loc 1 154 0
 1275 020e 2046     		mov	r0, r4
 1276 0210 FFF7FEFF 		bl	gdisp_lld_write_color
 1277              	.LVL124:
 1278 0214 258E     		ldrh	r5, [r4, #48]
 1279 0216 009A     		ldr	r2, [sp]
 1280 0218 50E7     		b	.L66
 1281              	.LVL125:
 1282              	.L81:
 1283              	.LBE101:
 1284              	.LBE100:
 1285              	.LBE104:
 1286              	.LBE105:
 1287              	.LBE106:
 1288              	.LBE119:
 1289              		.loc 1 447 0
 1290 021a 2046     		mov	r0, r4
 1291 021c FFF7FEFF 		bl	hline_clip
 1292              	.LVL126:
 1293 0220 56E7     		b	.L58
 1294              	.L82:
 1295              		.loc 1 453 0
 1296 0222 2046     		mov	r0, r4
ARM GAS  /tmp/ccOGUWYP.s 			page 24


 1297 0224 FFF7FEFF 		bl	vline_clip
 1298              	.LVL127:
 1299 0228 52E7     		b	.L58
 1300              	.LBE121:
 1301              	.LBE123:
 1302              		.cfi_endproc
 1303              	.LFE125:
 1304              		.size	gdispGDrawLine, .-gdispGDrawLine
 1305 022a 00BFAFF3 		.section	.text.gdispGClear,"ax",%progbits
 1305      0080
 1306              		.align	2
 1307              		.p2align 4,,15
 1308              		.global	gdispGClear
 1309              		.thumb
 1310              		.thumb_func
 1311              		.type	gdispGClear, %function
 1312              	gdispGClear:
 1313              	.LFB126:
 1314              		.loc 1 929 0
 1315              		.cfi_startproc
 1316              		@ args = 0, pretend = 0, frame = 0
 1317              		@ frame_needed = 0, uses_anonymous_args = 0
 1318              	.LVL128:
 1319 0000 38B5     		push	{r3, r4, r5, lr}
 1320              		.cfi_def_cfa_offset 16
 1321              		.cfi_offset 3, -16
 1322              		.cfi_offset 4, -12
 1323              		.cfi_offset 5, -8
 1324              		.cfi_offset 14, -4
 1325              		.loc 1 929 0
 1326 0002 0446     		mov	r4, r0
 1327              		.loc 1 931 0
 1328 0004 1830     		adds	r0, r0, #24
 1329              	.LVL129:
 1330              		.loc 1 929 0
 1331 0006 0D46     		mov	r5, r1
 1332              		.loc 1 931 0
 1333 0008 FFF7FEFF 		bl	chMtxLock
 1334              	.LVL130:
 1335              		.loc 1 953 0
 1336 000c 0023     		movs	r3, #0
 1337              		.loc 1 954 0
 1338 000e 2188     		ldrh	r1, [r4]
 1339              		.loc 1 955 0
 1340 0010 6288     		ldrh	r2, [r4, #2]
 1341              		.loc 1 956 0
 1342 0012 A4F84050 		strh	r5, [r4, #64]	@ movhi
 1343              		.loc 1 954 0
 1344 0016 A186     		strh	r1, [r4, #52]	@ movhi
 1345              		.loc 1 955 0
 1346 0018 E286     		strh	r2, [r4, #54]	@ movhi
 1347              		.loc 1 953 0
 1348 001a 6386     		strh	r3, [r4, #50]	@ movhi
 1349 001c 2386     		strh	r3, [r4, #48]	@ movhi
 1350              		.loc 1 957 0
 1351 001e 2046     		mov	r0, r4
 1352 0020 FFF7FEFF 		bl	gdisp_lld_fill_area
ARM GAS  /tmp/ccOGUWYP.s 			page 25


 1353              	.LVL131:
 1354              		.loc 1 1010 0
 1355 0024 BDE83840 		pop	{r3, r4, r5, lr}
 1356              	.LVL132:
 1357              		.loc 1 959 0
 1358 0028 FFF7FEBF 		b	chMtxUnlock
 1359              	.LVL133:
 1360              		.cfi_endproc
 1361              	.LFE126:
 1362              		.size	gdispGClear, .-gdispGClear
 1363 002c AFF30080 		.section	.text.gdispGFillArea,"ax",%progbits
 1364              		.align	2
 1365              		.p2align 4,,15
 1366              		.global	gdispGFillArea
 1367              		.thumb
 1368              		.thumb_func
 1369              		.type	gdispGFillArea, %function
 1370              	gdispGFillArea:
 1371              	.LFB127:
 1372              		.loc 1 1012 0
 1373              		.cfi_startproc
 1374              		@ args = 8, pretend = 0, frame = 0
 1375              		@ frame_needed = 0, uses_anonymous_args = 0
 1376              	.LVL134:
 1377 0000 2DE9F047 		push	{r4, r5, r6, r7, r8, r9, r10, lr}
 1378              		.cfi_def_cfa_offset 32
 1379              		.cfi_offset 4, -32
 1380              		.cfi_offset 5, -28
 1381              		.cfi_offset 6, -24
 1382              		.cfi_offset 7, -20
 1383              		.cfi_offset 8, -16
 1384              		.cfi_offset 9, -12
 1385              		.cfi_offset 10, -8
 1386              		.cfi_offset 14, -4
 1387              		.loc 1 1012 0
 1388 0004 0446     		mov	r4, r0
 1389              		.loc 1 1013 0
 1390 0006 1830     		adds	r0, r0, #24
 1391              	.LVL135:
 1392              		.loc 1 1012 0
 1393 0008 0E46     		mov	r6, r1
 1394 000a 1746     		mov	r7, r2
 1395 000c 9946     		mov	r9, r3
 1396 000e BDF92080 		ldrsh	r8, [sp, #32]
 1397 0012 BDF824A0 		ldrh	r10, [sp, #36]
 1398              		.loc 1 1013 0
 1399 0016 FFF7FEFF 		bl	chMtxLock
 1400              	.LVL136:
 1401              		.loc 1 1019 0
 1402 001a 258D     		ldrh	r5, [r4, #40]
 1403              		.loc 1 1018 0
 1404 001c A4F840A0 		strh	r10, [r4, #64]	@ movhi
 1405              		.loc 1 1019 0
 1406 0020 29B2     		sxth	r1, r5
 1407 0022 8E42     		cmp	r6, r1
 1408              		.loc 1 1014 0
 1409 0024 2686     		strh	r6, [r4, #48]	@ movhi
ARM GAS  /tmp/ccOGUWYP.s 			page 26


 1410              		.loc 1 1015 0
 1411 0026 6786     		strh	r7, [r4, #50]	@ movhi
 1412              		.loc 1 1016 0
 1413 0028 A4F83490 		strh	r9, [r4, #52]	@ movhi
 1414              		.loc 1 1017 0
 1415 002c A4F83680 		strh	r8, [r4, #54]	@ movhi
 1416              		.loc 1 1019 0
 1417 0030 34DA     		bge	.L96
 1418              		.loc 1 1019 0 is_stmt 0 discriminator 1
 1419 0032 C5EB0909 		rsb	r9, r5, r9
 1420 0036 4E44     		add	r6, r6, r9
 1421 0038 B3B2     		uxth	r3, r6
 1422 003a A386     		strh	r3, [r4, #52]	@ movhi
 1423 003c 2586     		strh	r5, [r4, #48]	@ movhi
 1424              	.L91:
 1425              		.loc 1 1019 0 discriminator 2
 1426 003e 608D     		ldrh	r0, [r4, #42]
 1427 0040 02B2     		sxth	r2, r0
 1428 0042 9742     		cmp	r7, r2
 1429 0044 27DA     		bge	.L97
 1430              		.loc 1 1019 0 discriminator 1
 1431 0046 C0EB0808 		rsb	r8, r0, r8
 1432 004a B844     		add	r8, r8, r7
 1433 004c 1FFA88F8 		uxth	r8, r8
 1434 0050 A4F83680 		strh	r8, [r4, #54]	@ movhi
 1435 0054 6086     		strh	r0, [r4, #50]	@ movhi
 1436              	.L92:
 1437              		.loc 1 1019 0 discriminator 2
 1438 0056 A68D     		ldrh	r6, [r4, #44]
 1439 0058 1BB2     		sxth	r3, r3
 1440 005a 1944     		add	r1, r1, r3
 1441 005c 37B2     		sxth	r7, r6
 1442 005e B942     		cmp	r1, r7
 1443 0060 03DD     		ble	.L93
 1444              		.loc 1 1019 0 discriminator 1
 1445 0062 751B     		subs	r5, r6, r5
 1446 0064 ABB2     		uxth	r3, r5
 1447 0066 A386     		strh	r3, [r4, #52]	@ movhi
 1448 0068 1BB2     		sxth	r3, r3
 1449              	.L93:
 1450              		.loc 1 1019 0 discriminator 2
 1451 006a E18D     		ldrh	r1, [r4, #46]
 1452 006c 02FA88F8 		sxtah	r8, r2, r8
 1453 0070 0DB2     		sxth	r5, r1
 1454 0072 A845     		cmp	r8, r5
 1455 0074 C4BF     		itt	gt
 1456 0076 C0EB0100 		rsbgt	r0, r0, r1
 1457 007a E086     		strhgt	r0, [r4, #54]	@ movhi
 1458 007c 002B     		cmp	r3, #0
 1459 007e 06DD     		ble	.L95
 1460              		.loc 1 1019 0 discriminator 1
 1461 0080 B4F93630 		ldrsh	r3, [r4, #54]
 1462 0084 002B     		cmp	r3, #0
 1463 0086 02DD     		ble	.L95
 1464              	.LVL137:
 1465              	.LBB124:
 1466              	.LBB125:
ARM GAS  /tmp/ccOGUWYP.s 			page 27


 1467              		.loc 1 206 0 is_stmt 1
 1468 0088 2046     		mov	r0, r4
 1469 008a FFF7FEFF 		bl	gdisp_lld_fill_area
 1470              	.LVL138:
 1471              	.L95:
 1472              	.LBE125:
 1473              	.LBE124:
 1474              		.loc 1 1024 0
 1475 008e BDE8F047 		pop	{r4, r5, r6, r7, r8, r9, r10, lr}
 1476              	.LVL139:
 1477              		.loc 1 1023 0
 1478 0092 FFF7FEBF 		b	chMtxUnlock
 1479              	.LVL140:
 1480              	.L97:
 1481 0096 3846     		mov	r0, r7
 1482 0098 3AB2     		sxth	r2, r7
 1483 009a DCE7     		b	.L92
 1484              	.L96:
 1485 009c 3546     		mov	r5, r6
 1486 009e 4B46     		mov	r3, r9
 1487 00a0 31B2     		sxth	r1, r6
 1488 00a2 CCE7     		b	.L91
 1489              		.cfi_endproc
 1490              	.LFE127:
 1491              		.size	gdispGFillArea, .-gdispGFillArea
 1492 00a4 AFF30080 		.section	.text.gdispGBlitArea,"ax",%progbits
 1492      AFF30080 
 1492      AFF30080 
 1493              		.align	2
 1494              		.p2align 4,,15
 1495              		.global	gdispGBlitArea
 1496              		.thumb
 1497              		.thumb_func
 1498              		.type	gdispGBlitArea, %function
 1499              	gdispGBlitArea:
 1500              	.LFB128:
 1501              		.loc 1 1026 0
 1502              		.cfi_startproc
 1503              		@ args = 20, pretend = 0, frame = 8
 1504              		@ frame_needed = 0, uses_anonymous_args = 0
 1505              	.LVL141:
 1506 0000 2DE9F04F 		push	{r4, r5, r6, r7, r8, r9, r10, fp, lr}
 1507              		.cfi_def_cfa_offset 36
 1508              		.cfi_offset 4, -36
 1509              		.cfi_offset 5, -32
 1510              		.cfi_offset 6, -28
 1511              		.cfi_offset 7, -24
 1512              		.cfi_offset 8, -20
 1513              		.cfi_offset 9, -16
 1514              		.cfi_offset 10, -12
 1515              		.cfi_offset 11, -8
 1516              		.cfi_offset 14, -4
 1517 0004 83B0     		sub	sp, sp, #12
 1518              		.cfi_def_cfa_offset 48
 1519              		.loc 1 1026 0
 1520 0006 0446     		mov	r4, r0
 1521 0008 1D46     		mov	r5, r3
ARM GAS  /tmp/ccOGUWYP.s 			page 28


 1522              		.loc 1 1027 0
 1523 000a 1830     		adds	r0, r0, #24
 1524              	.LVL142:
 1525              		.loc 1 1026 0
 1526 000c 109B     		ldr	r3, [sp, #64]
 1527              	.LVL143:
 1528 000e 0193     		str	r3, [sp, #4]
 1529 0010 0E46     		mov	r6, r1
 1530 0012 1746     		mov	r7, r2
 1531 0014 BDF93080 		ldrsh	r8, [sp, #48]
 1532 0018 BDF93490 		ldrsh	r9, [sp, #52]
 1533 001c BDF938B0 		ldrsh	fp, [sp, #56]
 1534 0020 BDF93CA0 		ldrsh	r10, [sp, #60]
 1535              		.loc 1 1027 0
 1536 0024 FFF7FEFF 		bl	chMtxLock
 1537              	.LVL144:
 1538              		.loc 1 1035 0
 1539 0028 B4F92830 		ldrsh	r3, [r4, #40]
 1540 002c B342     		cmp	r3, r6
 1541 002e 0ADD     		ble	.L99
 1542              		.loc 1 1035 0 is_stmt 0 discriminator 1
 1543 0030 99B2     		uxth	r1, r3
 1544 0032 B6B2     		uxth	r6, r6
 1545 0034 8944     		add	r9, r9, r1
 1546 0036 6D1A     		subs	r5, r5, r1
 1547 0038 3544     		add	r5, r5, r6
 1548 003a C6EB0906 		rsb	r6, r6, r9
 1549 003e 0FFA86F9 		sxth	r9, r6
 1550 0042 2DB2     		sxth	r5, r5
 1551              	.LVL145:
 1552 0044 1E46     		mov	r6, r3
 1553              	.LVL146:
 1554              	.L99:
 1555              		.loc 1 1036 0 is_stmt 1
 1556 0046 B4F92A30 		ldrsh	r3, [r4, #42]
 1557 004a BB42     		cmp	r3, r7
 1558 004c 0BDD     		ble	.L100
 1559              		.loc 1 1036 0 is_stmt 0 discriminator 1
 1560 004e 99B2     		uxth	r1, r3
 1561 0050 01EB0B02 		add	r2, r1, fp
 1562 0054 C1EB0808 		rsb	r8, r1, r8
 1563 0058 B844     		add	r8, r8, r7
 1564 005a 921B     		subs	r2, r2, r6
 1565 005c 0FFA88F8 		sxth	r8, r8
 1566              	.LVL147:
 1567 0060 0FFA82FB 		sxth	fp, r2
 1568              	.LVL148:
 1569 0064 1F46     		mov	r7, r3
 1570              	.LVL149:
 1571              	.L100:
 1572              		.loc 1 1037 0 is_stmt 1
 1573 0066 A38D     		ldrh	r3, [r4, #44]
 1574 0068 7019     		adds	r0, r6, r5
 1575 006a 19B2     		sxth	r1, r3
 1576 006c 8842     		cmp	r0, r1
 1577 006e C8BF     		it	gt
 1578 0070 C6EB0305 		rsbgt	r5, r6, r3
ARM GAS  /tmp/ccOGUWYP.s 			page 29


 1579              	.LVL150:
 1580              		.loc 1 1038 0
 1581 0074 E38D     		ldrh	r3, [r4, #46]
 1582 0076 07EB0800 		add	r0, r7, r8
 1583 007a 19B2     		sxth	r1, r3
 1584              		.loc 1 1037 0
 1585 007c C8BF     		it	gt
 1586 007e 2DB2     		sxthgt	r5, r5
 1587              	.LVL151:
 1588              		.loc 1 1038 0
 1589 0080 8842     		cmp	r0, r1
 1590 0082 C8BF     		it	gt
 1591 0084 C7EB0308 		rsbgt	r8, r7, r3
 1592              	.LVL152:
 1593              		.loc 1 1039 0
 1594 0088 09EB0503 		add	r3, r9, r5
 1595              		.loc 1 1038 0
 1596 008c C8BF     		it	gt
 1597 008e 0FFA88F8 		sxthgt	r8, r8
 1598              	.LVL153:
 1599              		.loc 1 1039 0
 1600 0092 5345     		cmp	r3, r10
 1601 0094 C4BF     		itt	gt
 1602 0096 C9EB0A05 		rsbgt	r5, r9, r10
 1603              	.LVL154:
 1604 009a 2DB2     		sxthgt	r5, r5
 1605              	.LVL155:
 1606              		.loc 1 1040 0
 1607 009c 002D     		cmp	r5, #0
 1608 009e 12DD     		ble	.L106
 1609              		.loc 1 1040 0 is_stmt 0 discriminator 2
 1610 00a0 B8F1000F 		cmp	r8, #0
 1611 00a4 0FDD     		ble	.L106
 1612              		.loc 1 1057 0 is_stmt 1
 1613 00a6 019B     		ldr	r3, [sp, #4]
 1614              		.loc 1 1050 0
 1615 00a8 2686     		strh	r6, [r4, #48]	@ movhi
 1616              		.loc 1 1051 0
 1617 00aa 6786     		strh	r7, [r4, #50]	@ movhi
 1618              		.loc 1 1052 0
 1619 00ac A586     		strh	r5, [r4, #52]	@ movhi
 1620              		.loc 1 1053 0
 1621 00ae A4F83680 		strh	r8, [r4, #54]	@ movhi
 1622              		.loc 1 1054 0
 1623 00b2 A4F83890 		strh	r9, [r4, #56]	@ movhi
 1624              		.loc 1 1055 0
 1625 00b6 A4F83AB0 		strh	fp, [r4, #58]	@ movhi
 1626              		.loc 1 1056 0
 1627 00ba A4F83CA0 		strh	r10, [r4, #60]	@ movhi
 1628              		.loc 1 1057 0
 1629 00be 6364     		str	r3, [r4, #68]
 1630              		.loc 1 1058 0
 1631 00c0 2046     		mov	r0, r4
 1632 00c2 FFF7FEFF 		bl	gdisp_lld_blit_area
 1633              	.LVL156:
 1634              	.L106:
 1635              		.loc 1 1160 0
ARM GAS  /tmp/ccOGUWYP.s 			page 30


 1636 00c6 03B0     		add	sp, sp, #12
 1637              		@ sp needed
 1638 00c8 BDE8F04F 		pop	{r4, r5, r6, r7, r8, r9, r10, fp, lr}
 1639              	.LVL157:
 1640              		.loc 1 1060 0
 1641 00cc FFF7FEBF 		b	chMtxUnlock
 1642              	.LVL158:
 1643              		.cfi_endproc
 1644              	.LFE128:
 1645              		.size	gdispGBlitArea, .-gdispGBlitArea
 1646              		.section	.text.gdispGSetClip,"ax",%progbits
 1647              		.align	2
 1648              		.p2align 4,,15
 1649              		.global	gdispGSetClip
 1650              		.thumb
 1651              		.thumb_func
 1652              		.type	gdispGSetClip, %function
 1653              	gdispGSetClip:
 1654              	.LFB129:
 1655              		.loc 1 1163 0
 1656              		.cfi_startproc
 1657              		@ args = 4, pretend = 0, frame = 0
 1658              		@ frame_needed = 0, uses_anonymous_args = 0
 1659              	.LVL159:
 1660 0000 2DE9F843 		push	{r3, r4, r5, r6, r7, r8, r9, lr}
 1661              		.cfi_def_cfa_offset 32
 1662              		.cfi_offset 3, -32
 1663              		.cfi_offset 4, -28
 1664              		.cfi_offset 5, -24
 1665              		.cfi_offset 6, -20
 1666              		.cfi_offset 7, -16
 1667              		.cfi_offset 8, -12
 1668              		.cfi_offset 9, -8
 1669              		.cfi_offset 14, -4
 1670              		.loc 1 1163 0
 1671 0004 0D46     		mov	r5, r1
 1672 0006 0446     		mov	r4, r0
 1673              		.loc 1 1164 0
 1674 0008 1830     		adds	r0, r0, #24
 1675              	.LVL160:
 1676              		.loc 1 1163 0
 1677 000a 1646     		mov	r6, r2
 1678 000c 1F46     		mov	r7, r3
 1679 000e BDF92080 		ldrsh	r8, [sp, #32]
 1680              		.loc 1 1164 0
 1681 0012 FFF7FEFF 		bl	chMtxLock
 1682              	.LVL161:
 1683              		.loc 1 1186 0
 1684 0016 002D     		cmp	r5, #0
 1685 0018 2ADB     		blt	.L118
 1686              	.LVL162:
 1687              	.L108:
 1688              		.loc 1 1187 0
 1689 001a 002E     		cmp	r6, #0
 1690 001c 23DB     		blt	.L119
 1691              	.LVL163:
 1692              	.L109:
ARM GAS  /tmp/ccOGUWYP.s 			page 31


 1693              		.loc 1 1188 0
 1694 001e 002F     		cmp	r7, #0
 1695 0020 1DDD     		ble	.L111
 1696              		.loc 1 1188 0 is_stmt 0 discriminator 2
 1697 0022 B8F1000F 		cmp	r8, #0
 1698 0026 1ADD     		ble	.L111
 1699              		.loc 1 1188 0 discriminator 1
 1700 0028 2388     		ldrh	r3, [r4]
 1701 002a 1AB2     		sxth	r2, r3
 1702 002c 9542     		cmp	r5, r2
 1703 002e 16DA     		bge	.L111
 1704 0030 6188     		ldrh	r1, [r4, #2]
 1705 0032 08B2     		sxth	r0, r1
 1706 0034 8642     		cmp	r6, r0
 1707 0036 12DA     		bge	.L111
 1708              		.loc 1 1191 0 is_stmt 1
 1709 0038 2F44     		add	r7, r7, r5
 1710              	.LVL164:
 1711              		.loc 1 1192 0
 1712 003a B044     		add	r8, r8, r6
 1713              	.LVL165:
 1714              		.loc 1 1191 0
 1715 003c BFB2     		uxth	r7, r7
 1716              		.loc 1 1192 0
 1717 003e 1FFA88F8 		uxth	r8, r8
 1718              		.loc 1 1191 0
 1719 0042 0FFA87F9 		sxth	r9, r7
 1720              		.loc 1 1192 0
 1721 0046 0FFA88FC 		sxth	ip, r8
 1722              		.loc 1 1191 0
 1723 004a 4A45     		cmp	r2, r9
 1724 004c A8BF     		it	ge
 1725 004e 3B46     		movge	r3, r7
 1726              		.loc 1 1192 0
 1727 0050 6045     		cmp	r0, ip
 1728 0052 A8BF     		it	ge
 1729 0054 4146     		movge	r1, r8
 1730              		.loc 1 1189 0
 1731 0056 2585     		strh	r5, [r4, #40]	@ movhi
 1732              		.loc 1 1190 0
 1733 0058 6685     		strh	r6, [r4, #42]	@ movhi
 1734              		.loc 1 1191 0
 1735 005a A385     		strh	r3, [r4, #44]	@ movhi
 1736              		.loc 1 1192 0
 1737 005c E185     		strh	r1, [r4, #46]	@ movhi
 1738              	.L111:
 1739              		.loc 1 1196 0 discriminator 1
 1740 005e BDE8F843 		pop	{r3, r4, r5, r6, r7, r8, r9, lr}
 1741              	.LVL166:
 1742              		.loc 1 1188 0 discriminator 1
 1743 0062 FFF7FEBF 		b	chMtxUnlock
 1744              	.LVL167:
 1745              	.L119:
 1746              		.loc 1 1187 0 discriminator 1
 1747 0066 B044     		add	r8, r8, r6
 1748 0068 0FFA88F8 		sxth	r8, r8
 1749              	.LVL168:
ARM GAS  /tmp/ccOGUWYP.s 			page 32


 1750 006c 0026     		movs	r6, #0
 1751 006e D6E7     		b	.L109
 1752              	.LVL169:
 1753              	.L118:
 1754              		.loc 1 1186 0 discriminator 1
 1755 0070 2F44     		add	r7, r7, r5
 1756 0072 3FB2     		sxth	r7, r7
 1757              	.LVL170:
 1758 0074 0025     		movs	r5, #0
 1759 0076 D0E7     		b	.L108
 1760              		.cfi_endproc
 1761              	.LFE129:
 1762              		.size	gdispGSetClip, .-gdispGSetClip
 1763 0078 AFF30080 		.section	.text.gdispGControl,"ax",%progbits
 1763      AFF30080 
 1764              		.align	2
 1765              		.p2align 4,,15
 1766              		.global	gdispGControl
 1767              		.thumb
 1768              		.thumb_func
 1769              		.type	gdispGControl, %function
 1770              	gdispGControl:
 1771              	.LFB130:
 1772              		.loc 1 2353 0
 1773              		.cfi_startproc
 1774              		@ args = 0, pretend = 0, frame = 0
 1775              		@ frame_needed = 0, uses_anonymous_args = 0
 1776              	.LVL171:
 1777 0000 70B5     		push	{r4, r5, r6, lr}
 1778              		.cfi_def_cfa_offset 16
 1779              		.cfi_offset 4, -16
 1780              		.cfi_offset 5, -12
 1781              		.cfi_offset 6, -8
 1782              		.cfi_offset 14, -4
 1783              		.loc 1 2353 0
 1784 0002 0446     		mov	r4, r0
 1785 0004 0D46     		mov	r5, r1
 1786              		.loc 1 2358 0
 1787 0006 1830     		adds	r0, r0, #24
 1788              	.LVL172:
 1789              		.loc 1 2353 0
 1790 0008 1646     		mov	r6, r2
 1791              		.loc 1 2358 0
 1792 000a FFF7FEFF 		bl	chMtxLock
 1793              	.LVL173:
 1794              		.loc 1 2361 0
 1795 000e 012D     		cmp	r5, #1
 1796              		.loc 1 2359 0
 1797 0010 2586     		strh	r5, [r4, #48]	@ movhi
 1798              		.loc 1 2360 0
 1799 0012 6664     		str	r6, [r4, #68]
 1800              		.loc 1 2361 0
 1801 0014 06D0     		beq	.L130
 1802              		.loc 1 2373 0
 1803 0016 2046     		mov	r0, r4
 1804 0018 FFF7FEFF 		bl	gdisp_lld_control
 1805              	.LVL174:
ARM GAS  /tmp/ccOGUWYP.s 			page 33


 1806              		.loc 1 2405 0
 1807 001c BDE87040 		pop	{r4, r5, r6, lr}
 1808              	.LVL175:
 1809              		.loc 1 2404 0
 1810 0020 FFF7FEBF 		b	chMtxUnlock
 1811              	.LVL176:
 1812              	.L130:
 1813              		.loc 1 2362 0
 1814 0024 B6B2     		uxth	r6, r6
 1815              	.LVL177:
 1816 0026 B6F57A7F 		cmp	r6, #1000
 1817 002a 1AD0     		beq	.L123
 1818 002c 40F2E933 		movw	r3, #1001
 1819 0030 9E42     		cmp	r6, r3
 1820 0032 08D1     		bne	.L122
 1821              		.loc 1 2364 0
 1822 0034 B4F90020 		ldrsh	r2, [r4]
 1823 0038 B4F90230 		ldrsh	r3, [r4, #2]
 1824 003c 9A42     		cmp	r2, r3
 1825 003e B4BF     		ite	lt
 1826 0040 5A23     		movlt	r3, #90
 1827 0042 0023     		movge	r3, #0
 1828 0044 6364     		str	r3, [r4, #68]
 1829              	.LVL178:
 1830              	.L122:
 1831              		.loc 1 2373 0
 1832 0046 2046     		mov	r0, r4
 1833 0048 FFF7FEFF 		bl	gdisp_lld_control
 1834              	.LVL179:
 1835              		.loc 1 2396 0
 1836 004c 0023     		movs	r3, #0
 1837              		.loc 1 2398 0
 1838 004e 2188     		ldrh	r1, [r4]
 1839              		.loc 1 2399 0
 1840 0050 6288     		ldrh	r2, [r4, #2]
 1841              		.loc 1 2396 0
 1842 0052 2385     		strh	r3, [r4, #40]	@ movhi
 1843              		.loc 1 2397 0
 1844 0054 6385     		strh	r3, [r4, #42]	@ movhi
 1845              		.loc 1 2398 0
 1846 0056 A185     		strh	r1, [r4, #44]	@ movhi
 1847              		.loc 1 2399 0
 1848 0058 E285     		strh	r2, [r4, #46]	@ movhi
 1849              		.loc 1 2405 0
 1850 005a BDE87040 		pop	{r4, r5, r6, lr}
 1851              	.LVL180:
 1852              		.loc 1 2404 0
 1853 005e FFF7FEBF 		b	chMtxUnlock
 1854              	.LVL181:
 1855              	.L123:
 1856              		.loc 1 2367 0
 1857 0062 B4F90020 		ldrsh	r2, [r4]
 1858 0066 B4F90230 		ldrsh	r3, [r4, #2]
 1859 006a 9A42     		cmp	r2, r3
 1860 006c ACBF     		ite	ge
 1861 006e 5A23     		movge	r3, #90
 1862 0070 0023     		movlt	r3, #0
ARM GAS  /tmp/ccOGUWYP.s 			page 34


 1863 0072 6364     		str	r3, [r4, #68]
 1864              	.LVL182:
 1865              		.loc 1 2368 0
 1866 0074 E7E7     		b	.L122
 1867              		.cfi_endproc
 1868              	.LFE130:
 1869              		.size	gdispGControl, .-gdispGControl
 1870 0076 00BFAFF3 		.section	.text._gdispInit,"ax",%progbits
 1870      0080AFF3 
 1870      0080
 1871              		.align	2
 1872              		.p2align 4,,15
 1873              		.global	_gdispInit
 1874              		.thumb
 1875              		.thumb_func
 1876              		.type	_gdispInit, %function
 1877              	_gdispInit:
 1878              	.LFB119:
 1879              		.loc 1 570 0
 1880              		.cfi_startproc
 1881              		@ args = 0, pretend = 0, frame = 0
 1882              		@ frame_needed = 0, uses_anonymous_args = 0
 1883              	.LVL183:
 1884 0000 2DE9F043 		push	{r4, r5, r6, r7, r8, r9, lr}
 1885              		.cfi_def_cfa_offset 28
 1886              		.cfi_offset 4, -28
 1887              		.cfi_offset 5, -24
 1888              		.cfi_offset 6, -20
 1889              		.cfi_offset 7, -16
 1890              		.cfi_offset 8, -12
 1891              		.cfi_offset 9, -8
 1892              		.cfi_offset 14, -4
 1893              		.loc 1 585 0
 1894 0004 394C     		ldr	r4, .L138
 1895 0006 0025     		movs	r5, #0
 1896              		.loc 1 570 0
 1897 0008 83B0     		sub	sp, sp, #12
 1898              		.cfi_def_cfa_offset 40
 1899              		.loc 1 588 0
 1900 000a 04F11800 		add	r0, r4, #24
 1901              		.loc 1 585 0
 1902 000e 2575     		strb	r5, [r4, #20]
 1903              		.loc 1 586 0
 1904 0010 6575     		strb	r5, [r4, #21]
 1905              		.loc 1 588 0
 1906 0012 FFF7FEFF 		bl	chMtxInit
 1907              	.LVL184:
 1908              		.loc 1 589 0
 1909 0016 04F11800 		add	r0, r4, #24
 1910 001a FFF7FEFF 		bl	chMtxLock
 1911              	.LVL185:
 1912              		.loc 1 590 0
 1913 001e E582     		strh	r5, [r4, #22]	@ movhi
 1914              		.loc 1 591 0
 1915 0020 2046     		mov	r0, r4
 1916 0022 FFF7FEFF 		bl	gdisp_lld_init
 1917              	.LVL186:
ARM GAS  /tmp/ccOGUWYP.s 			page 35


 1918              		.loc 1 592 0
 1919 0026 FFF7FEFF 		bl	chMtxUnlock
 1920              	.LVL187:
 1921              		.loc 1 598 0
 1922 002a 2046     		mov	r0, r4
 1923 002c 0121     		movs	r1, #1
 1924 002e 5A22     		movs	r2, #90
 1925 0030 FFF7FEFF 		bl	gdispGControl
 1926              	.LVL188:
 1927              		.loc 1 601 0
 1928 0034 B4F90220 		ldrsh	r2, [r4, #2]
 1929 0038 B4F90030 		ldrsh	r3, [r4]
 1930 003c 0092     		str	r2, [sp]
 1931 003e 2946     		mov	r1, r5
 1932 0040 2A46     		mov	r2, r5
 1933 0042 2046     		mov	r0, r4
 1934 0044 FFF7FEFF 		bl	gdispGSetClip
 1935              	.LVL189:
 1936              		.loc 1 603 0
 1937 0048 2946     		mov	r1, r5
 1938 004a 2046     		mov	r0, r4
 1939 004c FFF7FEFF 		bl	gdispGClear
 1940              	.LVL190:
 1941              	.LBB128:
 1942              	.LBB129:
 1943              		.loc 1 544 0
 1944 0050 B4F90080 		ldrsh	r8, [r4]
 1945 0054 B8F1000F 		cmp	r8, #0
 1946 0058 4546     		mov	r5, r8
 1947 005a B8BF     		it	lt
 1948 005c 08F13F05 		addlt	r5, r8, #63
 1949 0060 C5F38F15 		ubfx	r5, r5, #6, #16
 1950              	.LVL191:
 1951              		.loc 1 545 0
 1952 0064 002D     		cmp	r5, #0
 1953 0066 37D1     		bne	.L137
 1954 0068 0125     		movs	r5, #1
 1955              	.LVL192:
 1956 006a 6FF00F09 		mvn	r9, #15
 1957 006e 6FF01F01 		mvn	r1, #31
 1958              	.L133:
 1959              	.LVL193:
 1960              		.loc 1 547 0
 1961 0072 B4F90220 		ldrsh	r2, [r4, #2]
 1962              		.loc 1 550 0
 1963 0076 1E4C     		ldr	r4, .L138+4
 1964              		.loc 1 547 0
 1965 0078 9144     		add	r9, r9, r2
 1966              	.LVL194:
 1967              		.loc 1 546 0
 1968 007a 8844     		add	r8, r8, r1
 1969              		.loc 1 547 0
 1970 007c 09EBD979 		add	r9, r9, r9, lsr #31
 1971              		.loc 1 546 0
 1972 0080 08EBD878 		add	r8, r8, r8, lsr #31
 1973 0084 C9F34F09 		ubfx	r9, r9, #1, #16
 1974 0088 C8F34F08 		ubfx	r8, r8, #1, #16
ARM GAS  /tmp/ccOGUWYP.s 			page 36


 1975 008c 04F18007 		add	r7, r4, #128
 1976              		.loc 1 551 0
 1977 0090 1F26     		movs	r6, #31
 1978              	.LVL195:
 1979              	.L135:
 1980 0092 E088     		ldrh	r0, [r4, #6]
 1981 0094 2188     		ldrh	r1, [r4]
 1982 0096 6288     		ldrh	r2, [r4, #2]
 1983 0098 A388     		ldrh	r3, [r4, #4]
 1984 009a 0196     		str	r6, [sp, #4]
 1985 009c 00FB05F0 		mul	r0, r0, r5
 1986 00a0 00B2     		sxth	r0, r0
 1987 00a2 05FB0181 		mla	r1, r5, r1, r8
 1988 00a6 05FB0292 		mla	r2, r5, r2, r9
 1989 00aa 03FB05F3 		mul	r3, r3, r5
 1990 00ae 0090     		str	r0, [sp]
 1991 00b0 09B2     		sxth	r1, r1
 1992 00b2 12B2     		sxth	r2, r2
 1993 00b4 1BB2     		sxth	r3, r3
 1994              		.loc 1 550 0
 1995 00b6 0834     		adds	r4, r4, #8
 1996              	.LVL196:
 1997              		.loc 1 551 0
 1998 00b8 0C48     		ldr	r0, .L138
 1999 00ba FFF7FEFF 		bl	gdispGFillArea
 2000              	.LVL197:
 2001              		.loc 1 550 0
 2002 00be BC42     		cmp	r4, r7
 2003 00c0 E7D3     		bcc	.L135
 2004              	.LVL198:
 2005              	.LBE129:
 2006              	.LBE128:
 2007              		.loc 1 614 0 discriminator 2
 2008 00c2 4FF47A70 		mov	r0, #1000
 2009 00c6 FFF7FEFF 		bl	gfxSleepMilliseconds
 2010              	.LVL199:
 2011              		.loc 1 616 0 discriminator 2
 2012 00ca 0848     		ldr	r0, .L138
 2013 00cc 0021     		movs	r1, #0
 2014              		.loc 1 628 0 discriminator 2
 2015 00ce 03B0     		add	sp, sp, #12
 2016              		@ sp needed
 2017 00d0 BDE8F043 		pop	{r4, r5, r6, r7, r8, r9, lr}
 2018              	.LVL200:
 2019              		.loc 1 616 0 discriminator 2
 2020 00d4 FFF7FEBF 		b	gdispGClear
 2021              	.LVL201:
 2022              	.L137:
 2023 00d8 2BB2     		sxth	r3, r5
 2024 00da C3EBC361 		rsb	r1, r3, r3, lsl #27
 2025 00de C3EB0373 		rsb	r3, r3, r3, lsl #28
 2026 00e2 ADB2     		uxth	r5, r5
 2027              	.LVL202:
 2028 00e4 4901     		lsls	r1, r1, #5
 2029 00e6 4FEA0319 		lsl	r9, r3, #4
 2030 00ea C2E7     		b	.L133
 2031              	.L139:
ARM GAS  /tmp/ccOGUWYP.s 			page 37


 2032              		.align	2
 2033              	.L138:
 2034 00ec 00000000 		.word	.LANCHOR0
 2035 00f0 00000000 		.word	.LANCHOR2
 2036              		.cfi_endproc
 2037              	.LFE119:
 2038              		.size	_gdispInit, .-_gdispInit
 2039 00f4 AFF30080 		.section	.text.gdispGDrawBox,"ax",%progbits
 2039      AFF30080 
 2039      AFF30080 
 2040              		.align	2
 2041              		.p2align 4,,15
 2042              		.global	gdispGDrawBox
 2043              		.thumb
 2044              		.thumb_func
 2045              		.type	gdispGDrawBox, %function
 2046              	gdispGDrawBox:
 2047              	.LFB131:
 2048              		.loc 1 2443 0
 2049              		.cfi_startproc
 2050              		@ args = 8, pretend = 0, frame = 0
 2051              		@ frame_needed = 0, uses_anonymous_args = 0
 2052              	.LVL203:
 2053 0000 2DE9F84F 		push	{r3, r4, r5, r6, r7, r8, r9, r10, fp, lr}
 2054              		.cfi_def_cfa_offset 40
 2055              		.cfi_offset 3, -40
 2056              		.cfi_offset 4, -36
 2057              		.cfi_offset 5, -32
 2058              		.cfi_offset 6, -28
 2059              		.cfi_offset 7, -24
 2060              		.cfi_offset 8, -20
 2061              		.cfi_offset 9, -16
 2062              		.cfi_offset 10, -12
 2063              		.cfi_offset 11, -8
 2064              		.cfi_offset 14, -4
 2065              		.loc 1 2444 0
 2066 0004 002B     		cmp	r3, #0
 2067              	.LVL204:
 2068              		.loc 1 2443 0
 2069 0006 1646     		mov	r6, r2
 2070 0008 0446     		mov	r4, r0
 2071 000a 0D46     		mov	r5, r1
 2072 000c BDF92820 		ldrsh	r2, [sp, #40]
 2073              	.LVL205:
 2074 0010 BDF82C80 		ldrh	r8, [sp, #44]
 2075              		.loc 1 2444 0
 2076 0014 4BDD     		ble	.L140
 2077              		.loc 1 2444 0 is_stmt 0 discriminator 2
 2078 0016 002A     		cmp	r2, #0
 2079 0018 49DD     		ble	.L140
 2080              		.loc 1 2445 0 is_stmt 1
 2081 001a 4F1E     		subs	r7, r1, #1
 2082 001c 1F44     		add	r7, r7, r3
 2083 001e 1FFA86F9 		uxth	r9, r6
 2084 0022 4A44     		add	r2, r2, r9
 2085 0024 3FB2     		sxth	r7, r7
 2086              	.LVL206:
ARM GAS  /tmp/ccOGUWYP.s 			page 38


 2087              		.loc 1 2447 0
 2088 0026 1830     		adds	r0, r0, #24
 2089              	.LVL207:
 2090              		.loc 1 2445 0
 2091 0028 1FFA82FA 		uxth	r10, r2
 2092              		.loc 1 2447 0
 2093 002c FFF7FEFF 		bl	chMtxLock
 2094              	.LVL208:
 2095              		.loc 1 2451 0
 2096 0030 7B1B     		subs	r3, r7, r5
 2097              		.loc 1 2445 0
 2098 0032 0AF1FF3B 		add	fp, r10, #-1
 2099              		.loc 1 2451 0
 2100 0036 022B     		cmp	r3, #2
 2101              		.loc 1 2445 0
 2102 0038 0FFA8BFB 		sxth	fp, fp
 2103              	.LVL209:
 2104              		.loc 1 2449 0
 2105 003c A4F84080 		strh	r8, [r4, #64]	@ movhi
 2106              		.loc 1 2452 0
 2107 0040 2586     		strh	r5, [r4, #48]	@ movhi
 2108 0042 6686     		strh	r6, [r4, #50]	@ movhi
 2109              		.loc 1 2451 0
 2110 0044 17DD     		ble	.L142
 2111              		.loc 1 2452 0
 2112 0046 2787     		strh	r7, [r4, #56]	@ movhi
 2113 0048 2046     		mov	r0, r4
 2114 004a FFF7FEFF 		bl	hline_clip
 2115              	.LVL210:
 2116              		.loc 1 2453 0
 2117 004e 5E45     		cmp	r6, fp
 2118 0050 0AD0     		beq	.L144
 2119              		.loc 1 2454 0
 2120 0052 2586     		strh	r5, [r4, #48]	@ movhi
 2121 0054 A4F832B0 		strh	fp, [r4, #50]	@ movhi
 2122 0058 2787     		strh	r7, [r4, #56]	@ movhi
 2123 005a 2046     		mov	r0, r4
 2124              		.loc 1 2455 0
 2125 005c C6EB0B06 		rsb	r6, r6, fp
 2126              		.loc 1 2454 0
 2127 0060 FFF7FEFF 		bl	hline_clip
 2128              	.LVL211:
 2129              		.loc 1 2455 0
 2130 0064 022E     		cmp	r6, #2
 2131 0066 24DC     		bgt	.L150
 2132              	.LVL212:
 2133              	.L144:
 2134              		.loc 1 2468 0
 2135 0068 E38A     		ldrh	r3, [r4, #22]
 2136 006a 9B07     		lsls	r3, r3, #30
 2137 006c 14D4     		bmi	.L151
 2138              	.L146:
 2139              		.loc 1 2470 0
 2140 006e BDE8F84F 		pop	{r3, r4, r5, r6, r7, r8, r9, r10, fp, lr}
 2141              	.LVL213:
 2142              		.loc 1 2469 0
 2143 0072 FFF7FEBF 		b	chMtxUnlock
ARM GAS  /tmp/ccOGUWYP.s 			page 39


 2144              	.LVL214:
 2145              	.L142:
 2146              		.loc 1 2462 0
 2147 0076 A4F83AB0 		strh	fp, [r4, #58]	@ movhi
 2148 007a 2046     		mov	r0, r4
 2149 007c FFF7FEFF 		bl	vline_clip
 2150              	.LVL215:
 2151              		.loc 1 2463 0
 2152 0080 BD42     		cmp	r5, r7
 2153 0082 F1D0     		beq	.L144
 2154              		.loc 1 2464 0
 2155 0084 2786     		strh	r7, [r4, #48]	@ movhi
 2156 0086 6686     		strh	r6, [r4, #50]	@ movhi
 2157 0088 A4F83AB0 		strh	fp, [r4, #58]	@ movhi
 2158 008c 2046     		mov	r0, r4
 2159 008e FFF7FEFF 		bl	vline_clip
 2160              	.LVL216:
 2161              		.loc 1 2468 0
 2162 0092 E38A     		ldrh	r3, [r4, #22]
 2163 0094 9B07     		lsls	r3, r3, #30
 2164 0096 EAD5     		bpl	.L146
 2165              	.LVL217:
 2166              	.L151:
 2167              		.loc 1 2468 0 is_stmt 0 discriminator 1
 2168 0098 2046     		mov	r0, r4
 2169 009a FFF7FEFF 		bl	gdisp_lld_write_stop
 2170              	.LVL218:
 2171 009e E38A     		ldrh	r3, [r4, #22]
 2172 00a0 23F00203 		bic	r3, r3, #2
 2173 00a4 E382     		strh	r3, [r4, #22]	@ movhi
 2174              		.loc 1 2470 0 is_stmt 1 discriminator 1
 2175 00a6 BDE8F84F 		pop	{r3, r4, r5, r6, r7, r8, r9, r10, fp, lr}
 2176              	.LVL219:
 2177              		.loc 1 2469 0 discriminator 1
 2178 00aa FFF7FEBF 		b	chMtxUnlock
 2179              	.LVL220:
 2180              	.L140:
 2181 00ae BDE8F88F 		pop	{r3, r4, r5, r6, r7, r8, r9, r10, fp, pc}
 2182              	.LVL221:
 2183              	.L150:
 2184              		.loc 1 2456 0
 2185 00b2 09F10109 		add	r9, r9, #1
 2186 00b6 AAF1020A 		sub	r10, r10, #2
 2187 00ba 0FFA89F9 		sxth	r9, r9
 2188              	.LVL222:
 2189 00be 0FFA8AFA 		sxth	r10, r10
 2190              	.LVL223:
 2191              		.loc 1 2457 0
 2192 00c2 2046     		mov	r0, r4
 2193 00c4 A4F83290 		strh	r9, [r4, #50]	@ movhi
 2194 00c8 A4F83AA0 		strh	r10, [r4, #58]	@ movhi
 2195 00cc 2586     		strh	r5, [r4, #48]	@ movhi
 2196 00ce FFF7FEFF 		bl	vline_clip
 2197              	.LVL224:
 2198              		.loc 1 2458 0
 2199 00d2 A4F83290 		strh	r9, [r4, #50]	@ movhi
 2200 00d6 A4F83AA0 		strh	r10, [r4, #58]	@ movhi
ARM GAS  /tmp/ccOGUWYP.s 			page 40


 2201 00da 2786     		strh	r7, [r4, #48]	@ movhi
 2202 00dc 2046     		mov	r0, r4
 2203 00de FFF7FEFF 		bl	vline_clip
 2204              	.LVL225:
 2205 00e2 C1E7     		b	.L144
 2206              		.cfi_endproc
 2207              	.LFE131:
 2208              		.size	gdispGDrawBox, .-gdispGDrawBox
 2209 00e4 AFF30080 		.section	.text.gdispGDrawChar,"ax",%progbits
 2209      AFF30080 
 2209      AFF30080 
 2210              		.align	2
 2211              		.p2align 4,,15
 2212              		.global	gdispGDrawChar
 2213              		.thumb
 2214              		.thumb_func
 2215              		.type	gdispGDrawChar, %function
 2216              	gdispGDrawChar:
 2217              	.LFB135:
 2218              		.loc 1 2849 0
 2219              		.cfi_startproc
 2220              		@ args = 8, pretend = 0, frame = 0
 2221              		@ frame_needed = 0, uses_anonymous_args = 0
 2222              	.LVL226:
 2223 0000 2DE9F043 		push	{r4, r5, r6, r7, r8, r9, lr}
 2224              		.cfi_def_cfa_offset 28
 2225              		.cfi_offset 4, -28
 2226              		.cfi_offset 5, -24
 2227              		.cfi_offset 6, -20
 2228              		.cfi_offset 7, -16
 2229              		.cfi_offset 8, -12
 2230              		.cfi_offset 9, -8
 2231              		.cfi_offset 14, -4
 2232 0004 83B0     		sub	sp, sp, #12
 2233              		.cfi_def_cfa_offset 40
 2234              		.loc 1 2849 0
 2235 0006 0446     		mov	r4, r0
 2236 0008 0A9D     		ldr	r5, [sp, #40]
 2237 000a BDF82C90 		ldrh	r9, [sp, #44]
 2238 000e 1746     		mov	r7, r2
 2239 0010 0E46     		mov	r6, r1
 2240 0012 9846     		mov	r8, r3
 2241              		.loc 1 2850 0
 2242 0014 1830     		adds	r0, r0, #24
 2243              	.LVL227:
 2244 0016 FFF7FEFF 		bl	chMtxLock
 2245              	.LVL228:
 2246              		.loc 1 2854 0
 2247 001a 4146     		mov	r1, r8
 2248              		.loc 1 2851 0
 2249 001c A564     		str	r5, [r4, #72]
 2250              		.loc 1 2852 0
 2251 001e A4F85060 		strh	r6, [r4, #80]	@ movhi
 2252              		.loc 1 2853 0
 2253 0022 A4F85270 		strh	r7, [r4, #82]	@ movhi
 2254              		.loc 1 2854 0
 2255 0026 2846     		mov	r0, r5
ARM GAS  /tmp/ccOGUWYP.s 			page 41


 2256 0028 FFF7FEFF 		bl	mf_character_width
 2257              	.LVL229:
 2258 002c 2A7B     		ldrb	r2, [r5, #12]	@ zero_extendqisi2
 2259              		.loc 1 2857 0
 2260 002e 0194     		str	r4, [sp, #4]
 2261              		.loc 1 2854 0
 2262 0030 3244     		add	r2, r2, r6
 2263 0032 1044     		add	r0, r0, r2
 2264 0034 A4F85400 		strh	r0, [r4, #84]	@ movhi
 2265              		.loc 1 2855 0
 2266 0038 6A7A     		ldrb	r2, [r5, #9]	@ zero_extendqisi2
 2267              		.loc 1 2857 0
 2268 003a 0E4B     		ldr	r3, .L157
 2269 003c 0093     		str	r3, [sp]
 2270              		.loc 1 2855 0
 2271 003e 3A44     		add	r2, r2, r7
 2272              		.loc 1 2857 0
 2273 0040 4346     		mov	r3, r8
 2274              		.loc 1 2855 0
 2275 0042 A4F85620 		strh	r2, [r4, #86]	@ movhi
 2276              		.loc 1 2857 0
 2277 0046 3146     		mov	r1, r6
 2278              		.loc 1 2856 0
 2279 0048 A4F84C90 		strh	r9, [r4, #76]	@ movhi
 2280              		.loc 1 2857 0
 2281 004c 2846     		mov	r0, r5
 2282 004e 3A46     		mov	r2, r7
 2283 0050 FFF7FEFF 		bl	mf_render_character
 2284              	.LVL230:
 2285              		.loc 1 2858 0
 2286 0054 E38A     		ldrh	r3, [r4, #22]
 2287 0056 9B07     		lsls	r3, r3, #30
 2288 0058 06D5     		bpl	.L153
 2289              		.loc 1 2858 0 is_stmt 0 discriminator 1
 2290 005a 2046     		mov	r0, r4
 2291 005c FFF7FEFF 		bl	gdisp_lld_write_stop
 2292              	.LVL231:
 2293 0060 E38A     		ldrh	r3, [r4, #22]
 2294 0062 23F00203 		bic	r3, r3, #2
 2295 0066 E382     		strh	r3, [r4, #22]	@ movhi
 2296              	.L153:
 2297              		.loc 1 2860 0 is_stmt 1
 2298 0068 03B0     		add	sp, sp, #12
 2299              		@ sp needed
 2300 006a BDE8F043 		pop	{r4, r5, r6, r7, r8, r9, lr}
 2301              	.LVL232:
 2302              		.loc 1 2859 0
 2303 006e FFF7FEBF 		b	chMtxUnlock
 2304              	.LVL233:
 2305              	.L158:
 2306 0072 00BF     		.align	2
 2307              	.L157:
 2308 0074 00000000 		.word	drawcharline
 2309              		.cfi_endproc
 2310              	.LFE135:
 2311              		.size	gdispGDrawChar, .-gdispGDrawChar
 2312 0078 AFF30080 		.section	.text.gdispGFillChar,"ax",%progbits
ARM GAS  /tmp/ccOGUWYP.s 			page 42


 2312      AFF30080 
 2313              		.align	2
 2314              		.p2align 4,,15
 2315              		.global	gdispGFillChar
 2316              		.thumb
 2317              		.thumb_func
 2318              		.type	gdispGFillChar, %function
 2319              	gdispGFillChar:
 2320              	.LFB136:
 2321              		.loc 1 2862 0
 2322              		.cfi_startproc
 2323              		@ args = 12, pretend = 0, frame = 8
 2324              		@ frame_needed = 0, uses_anonymous_args = 0
 2325              	.LVL234:
 2326 0000 2DE9F04F 		push	{r4, r5, r6, r7, r8, r9, r10, fp, lr}
 2327              		.cfi_def_cfa_offset 36
 2328              		.cfi_offset 4, -36
 2329              		.cfi_offset 5, -32
 2330              		.cfi_offset 6, -28
 2331              		.cfi_offset 7, -24
 2332              		.cfi_offset 8, -20
 2333              		.cfi_offset 9, -16
 2334              		.cfi_offset 10, -12
 2335              		.cfi_offset 11, -8
 2336              		.cfi_offset 14, -4
 2337 0004 85B0     		sub	sp, sp, #20
 2338              		.cfi_def_cfa_offset 56
 2339              		.loc 1 2862 0
 2340 0006 0446     		mov	r4, r0
 2341 0008 0E9F     		ldr	r7, [sp, #56]
 2342 000a 0393     		str	r3, [sp, #12]
 2343              		.loc 1 2863 0
 2344 000c 1830     		adds	r0, r0, #24
 2345              	.LVL235:
 2346              		.loc 1 2862 0
 2347 000e 0D46     		mov	r5, r1
 2348 0010 1646     		mov	r6, r2
 2349 0012 BDF83C90 		ldrh	r9, [sp, #60]
 2350 0016 BDF84080 		ldrh	r8, [sp, #64]
 2351              		.loc 1 2863 0
 2352 001a FFF7FEFF 		bl	chMtxLock
 2353              	.LVL236:
 2354              		.loc 1 2864 0
 2355 001e 0399     		ldr	r1, [sp, #12]
 2356 0020 3846     		mov	r0, r7
 2357 0022 FFF7FEFF 		bl	mf_character_width
 2358              	.LVL237:
 2359 0026 3A7B     		ldrb	r2, [r7, #12]	@ zero_extendqisi2
 2360              		.loc 1 2874 0
 2361 0028 218D     		ldrh	r1, [r4, #40]
 2362              		.loc 1 2864 0
 2363 002a 1044     		add	r0, r0, r2
 2364 002c 80B2     		uxth	r0, r0
 2365 002e 82B2     		uxth	r2, r0
 2366 0030 A286     		strh	r2, [r4, #52]	@ movhi
 2367              		.loc 1 2865 0
 2368 0032 7B7A     		ldrb	r3, [r7, #9]	@ zero_extendqisi2
ARM GAS  /tmp/ccOGUWYP.s 			page 43


 2369              		.loc 1 2871 0
 2370 0034 A4F84C90 		strh	r9, [r4, #76]	@ movhi
 2371              		.loc 1 2869 0
 2372 0038 1FFA85FA 		uxth	r10, r5
 2373 003c 00EB0A0B 		add	fp, r0, r10
 2374              		.loc 1 2870 0
 2375 0040 1FFA86FC 		uxth	ip, r6
 2376              		.loc 1 2874 0
 2377 0044 0FFA81F9 		sxth	r9, r1
 2378              		.loc 1 2869 0
 2379 0048 A4F854B0 		strh	fp, [r4, #84]	@ movhi
 2380              		.loc 1 2874 0
 2381 004c 4D45     		cmp	r5, r9
 2382              		.loc 1 2870 0
 2383 004e 0CEB030B 		add	fp, ip, r3
 2384              		.loc 1 2865 0
 2385 0052 E386     		strh	r3, [r4, #54]	@ movhi
 2386              		.loc 1 2866 0
 2387 0054 A764     		str	r7, [r4, #72]
 2388              		.loc 1 2867 0
 2389 0056 2586     		strh	r5, [r4, #48]	@ movhi
 2390 0058 A4F85050 		strh	r5, [r4, #80]	@ movhi
 2391              		.loc 1 2868 0
 2392 005c 6686     		strh	r6, [r4, #50]	@ movhi
 2393 005e A4F85260 		strh	r6, [r4, #82]	@ movhi
 2394              		.loc 1 2872 0
 2395 0062 A4F84080 		strh	r8, [r4, #64]	@ movhi
 2396 0066 A4F84E80 		strh	r8, [r4, #78]	@ movhi
 2397              		.loc 1 2870 0
 2398 006a A4F856B0 		strh	fp, [r4, #86]	@ movhi
 2399              		.loc 1 2874 0
 2400 006e 4DDA     		bge	.L166
 2401              		.loc 1 2874 0 is_stmt 0 discriminator 1
 2402 0070 C1EB0A02 		rsb	r2, r1, r10
 2403 0074 0244     		add	r2, r2, r0
 2404 0076 92B2     		uxth	r2, r2
 2405 0078 A286     		strh	r2, [r4, #52]	@ movhi
 2406 007a 2186     		strh	r1, [r4, #48]	@ movhi
 2407              	.L160:
 2408              		.loc 1 2874 0 discriminator 2
 2409 007c 608D     		ldrh	r0, [r4, #42]
 2410 007e 0FFA80F8 		sxth	r8, r0
 2411 0082 4645     		cmp	r6, r8
 2412 0084 3EDA     		bge	.L167
 2413              		.loc 1 2874 0 discriminator 1
 2414 0086 1B1A     		subs	r3, r3, r0
 2415 0088 6344     		add	r3, r3, ip
 2416 008a 9BB2     		uxth	r3, r3
 2417 008c E386     		strh	r3, [r4, #54]	@ movhi
 2418 008e 6086     		strh	r0, [r4, #50]	@ movhi
 2419              	.L161:
 2420              		.loc 1 2874 0 discriminator 2
 2421 0090 B4F82CC0 		ldrh	ip, [r4, #44]
 2422 0094 12B2     		sxth	r2, r2
 2423 0096 9144     		add	r9, r9, r2
 2424 0098 0FFA8CFA 		sxth	r10, ip
 2425 009c D145     		cmp	r9, r10
ARM GAS  /tmp/ccOGUWYP.s 			page 44


 2426 009e 04DD     		ble	.L162
 2427              		.loc 1 2874 0 discriminator 1
 2428 00a0 C1EB0C02 		rsb	r2, r1, ip
 2429 00a4 92B2     		uxth	r2, r2
 2430 00a6 A286     		strh	r2, [r4, #52]	@ movhi
 2431 00a8 12B2     		sxth	r2, r2
 2432              	.L162:
 2433              		.loc 1 2874 0 discriminator 2
 2434 00aa E18D     		ldrh	r1, [r4, #46]
 2435 00ac 08FA83F3 		sxtah	r3, r8, r3
 2436 00b0 0FFA81FC 		sxth	ip, r1
 2437 00b4 6345     		cmp	r3, ip
 2438 00b6 C4BF     		itt	gt
 2439 00b8 C0EB0100 		rsbgt	r0, r0, r1
 2440 00bc E086     		strhgt	r0, [r4, #54]	@ movhi
 2441 00be 002A     		cmp	r2, #0
 2442 00c0 11DD     		ble	.L164
 2443              		.loc 1 2874 0 discriminator 1
 2444 00c2 B4F93630 		ldrsh	r3, [r4, #54]
 2445 00c6 002B     		cmp	r3, #0
 2446 00c8 0DDD     		ble	.L164
 2447              	.LVL238:
 2448              	.LBB130:
 2449              	.LBB131:
 2450              		.loc 1 206 0 is_stmt 1
 2451 00ca 2046     		mov	r0, r4
 2452 00cc FFF7FEFF 		bl	gdisp_lld_fill_area
 2453              	.LVL239:
 2454              	.LBE131:
 2455              	.LBE130:
 2456              		.loc 1 2876 0
 2457 00d0 DFF840E0 		ldr	lr, .L171
 2458 00d4 0194     		str	r4, [sp, #4]
 2459 00d6 3846     		mov	r0, r7
 2460 00d8 2946     		mov	r1, r5
 2461 00da 3246     		mov	r2, r6
 2462 00dc 039B     		ldr	r3, [sp, #12]
 2463 00de CDF800E0 		str	lr, [sp]
 2464 00e2 FFF7FEFF 		bl	mf_render_character
 2465              	.LVL240:
 2466              	.L164:
 2467              		.loc 1 2878 0
 2468 00e6 E38A     		ldrh	r3, [r4, #22]
 2469 00e8 9B07     		lsls	r3, r3, #30
 2470 00ea 06D5     		bpl	.L165
 2471              		.loc 1 2878 0 is_stmt 0 discriminator 1
 2472 00ec 2046     		mov	r0, r4
 2473 00ee FFF7FEFF 		bl	gdisp_lld_write_stop
 2474              	.LVL241:
 2475 00f2 E38A     		ldrh	r3, [r4, #22]
 2476 00f4 23F00203 		bic	r3, r3, #2
 2477 00f8 E382     		strh	r3, [r4, #22]	@ movhi
 2478              	.L165:
 2479              		.loc 1 2880 0 is_stmt 1
 2480 00fa 05B0     		add	sp, sp, #20
 2481              		@ sp needed
 2482 00fc BDE8F04F 		pop	{r4, r5, r6, r7, r8, r9, r10, fp, lr}
ARM GAS  /tmp/ccOGUWYP.s 			page 45


 2483              	.LVL242:
 2484              		.loc 1 2879 0
 2485 0100 FFF7FEBF 		b	chMtxUnlock
 2486              	.LVL243:
 2487              	.L167:
 2488 0104 3046     		mov	r0, r6
 2489 0106 0FFA86F8 		sxth	r8, r6
 2490 010a C1E7     		b	.L161
 2491              	.L166:
 2492 010c 2946     		mov	r1, r5
 2493 010e 0FFA85F9 		sxth	r9, r5
 2494 0112 B3E7     		b	.L160
 2495              	.L172:
 2496              		.align	2
 2497              	.L171:
 2498 0114 00000000 		.word	drawcharline
 2499              		.cfi_endproc
 2500              	.LFE136:
 2501              		.size	gdispGFillChar, .-gdispGFillChar
 2502 0118 AFF30080 		.section	.text.gdispGDrawString,"ax",%progbits
 2502      AFF30080 
 2503              		.align	2
 2504              		.p2align 4,,15
 2505              		.global	gdispGDrawString
 2506              		.thumb
 2507              		.thumb_func
 2508              		.type	gdispGDrawString, %function
 2509              	gdispGDrawString:
 2510              	.LFB137:
 2511              		.loc 1 2882 0
 2512              		.cfi_startproc
 2513              		@ args = 8, pretend = 0, frame = 0
 2514              		@ frame_needed = 0, uses_anonymous_args = 0
 2515              	.LVL244:
 2516 0000 2DE9F043 		push	{r4, r5, r6, r7, r8, r9, lr}
 2517              		.cfi_def_cfa_offset 28
 2518              		.cfi_offset 4, -28
 2519              		.cfi_offset 5, -24
 2520              		.cfi_offset 6, -20
 2521              		.cfi_offset 7, -16
 2522              		.cfi_offset 8, -12
 2523              		.cfi_offset 9, -8
 2524              		.cfi_offset 14, -4
 2525 0004 85B0     		sub	sp, sp, #20
 2526              		.cfi_def_cfa_offset 48
 2527              		.loc 1 2882 0
 2528 0006 0446     		mov	r4, r0
 2529 0008 0C9D     		ldr	r5, [sp, #48]
 2530 000a BDF83490 		ldrh	r9, [sp, #52]
 2531              		.loc 1 2883 0
 2532 000e 1830     		adds	r0, r0, #24
 2533              	.LVL245:
 2534              		.loc 1 2882 0
 2535 0010 1646     		mov	r6, r2
 2536 0012 8846     		mov	r8, r1
 2537 0014 1F46     		mov	r7, r3
 2538              		.loc 1 2883 0
ARM GAS  /tmp/ccOGUWYP.s 			page 46


 2539 0016 FFF7FEFF 		bl	chMtxLock
 2540              	.LVL246:
 2541              		.loc 1 2887 0
 2542 001a 0022     		movs	r2, #0
 2543 001c 1346     		mov	r3, r2
 2544              		.loc 1 2885 0
 2545 001e A4F85080 		strh	r8, [r4, #80]	@ movhi
 2546              		.loc 1 2887 0
 2547 0022 3946     		mov	r1, r7
 2548              		.loc 1 2884 0
 2549 0024 A564     		str	r5, [r4, #72]
 2550              		.loc 1 2886 0
 2551 0026 A4F85260 		strh	r6, [r4, #82]	@ movhi
 2552              		.loc 1 2887 0
 2553 002a 2846     		mov	r0, r5
 2554 002c FFF7FEFF 		bl	mf_get_string_width
 2555              	.LVL247:
 2556 0030 1FFA88F8 		uxth	r8, r8
 2557 0034 4044     		add	r0, r0, r8
 2558 0036 A4F85400 		strh	r0, [r4, #84]	@ movhi
 2559              		.loc 1 2888 0
 2560 003a 6B7A     		ldrb	r3, [r5, #9]	@ zero_extendqisi2
 2561              		.loc 1 2889 0
 2562 003c A4F84C90 		strh	r9, [r4, #76]	@ movhi
 2563              		.loc 1 2888 0
 2564 0040 3344     		add	r3, r3, r6
 2565 0042 A4F85630 		strh	r3, [r4, #86]	@ movhi
 2566              		.loc 1 2891 0
 2567 0046 2B7B     		ldrb	r3, [r5, #12]	@ zero_extendqisi2
 2568 0048 DFF838E0 		ldr	lr, .L178
 2569 004c 0097     		str	r7, [sp]
 2570 004e 08EB0301 		add	r1, r8, r3
 2571 0052 0023     		movs	r3, #0
 2572 0054 0193     		str	r3, [sp, #4]
 2573 0056 0394     		str	r4, [sp, #12]
 2574 0058 3246     		mov	r2, r6
 2575 005a 09B2     		sxth	r1, r1
 2576 005c 2846     		mov	r0, r5
 2577 005e CDF808E0 		str	lr, [sp, #8]
 2578 0062 FFF7FEFF 		bl	mf_render_aligned
 2579              	.LVL248:
 2580              		.loc 1 2892 0
 2581 0066 E38A     		ldrh	r3, [r4, #22]
 2582 0068 9B07     		lsls	r3, r3, #30
 2583 006a 06D5     		bpl	.L174
 2584              		.loc 1 2892 0 is_stmt 0 discriminator 1
 2585 006c 2046     		mov	r0, r4
 2586 006e FFF7FEFF 		bl	gdisp_lld_write_stop
 2587              	.LVL249:
 2588 0072 E38A     		ldrh	r3, [r4, #22]
 2589 0074 23F00203 		bic	r3, r3, #2
 2590 0078 E382     		strh	r3, [r4, #22]	@ movhi
 2591              	.L174:
 2592              		.loc 1 2894 0 is_stmt 1
 2593 007a 05B0     		add	sp, sp, #20
 2594              		@ sp needed
 2595 007c BDE8F043 		pop	{r4, r5, r6, r7, r8, r9, lr}
ARM GAS  /tmp/ccOGUWYP.s 			page 47


 2596              	.LVL250:
 2597              		.loc 1 2893 0
 2598 0080 FFF7FEBF 		b	chMtxUnlock
 2599              	.LVL251:
 2600              	.L179:
 2601              		.align	2
 2602              	.L178:
 2603 0084 00000000 		.word	drawcharglyph
 2604              		.cfi_endproc
 2605              	.LFE137:
 2606              		.size	gdispGDrawString, .-gdispGDrawString
 2607 0088 AFF30080 		.section	.text.gdispGFillString,"ax",%progbits
 2607      AFF30080 
 2608              		.align	2
 2609              		.p2align 4,,15
 2610              		.global	gdispGFillString
 2611              		.thumb
 2612              		.thumb_func
 2613              		.type	gdispGFillString, %function
 2614              	gdispGFillString:
 2615              	.LFB138:
 2616              		.loc 1 2896 0
 2617              		.cfi_startproc
 2618              		@ args = 12, pretend = 0, frame = 8
 2619              		@ frame_needed = 0, uses_anonymous_args = 0
 2620              	.LVL252:
 2621 0000 2DE9F04F 		push	{r4, r5, r6, r7, r8, r9, r10, fp, lr}
 2622              		.cfi_def_cfa_offset 36
 2623              		.cfi_offset 4, -36
 2624              		.cfi_offset 5, -32
 2625              		.cfi_offset 6, -28
 2626              		.cfi_offset 7, -24
 2627              		.cfi_offset 8, -20
 2628              		.cfi_offset 9, -16
 2629              		.cfi_offset 10, -12
 2630              		.cfi_offset 11, -8
 2631              		.cfi_offset 14, -4
 2632 0004 87B0     		sub	sp, sp, #28
 2633              		.cfi_def_cfa_offset 64
 2634              		.loc 1 2896 0
 2635 0006 0446     		mov	r4, r0
 2636 0008 109F     		ldr	r7, [sp, #64]
 2637 000a BDF844A0 		ldrh	r10, [sp, #68]
 2638 000e BDF84880 		ldrh	r8, [sp, #72]
 2639 0012 CDF810A0 		str	r10, [sp, #16]
 2640              		.loc 1 2897 0
 2641 0016 1830     		adds	r0, r0, #24
 2642              	.LVL253:
 2643              		.loc 1 2896 0
 2644 0018 0E46     		mov	r6, r1
 2645 001a 1546     		mov	r5, r2
 2646 001c 9946     		mov	r9, r3
 2647              		.loc 1 2897 0
 2648 001e FFF7FEFF 		bl	chMtxLock
 2649              	.LVL254:
 2650              		.loc 1 2898 0
 2651 0022 0022     		movs	r2, #0
ARM GAS  /tmp/ccOGUWYP.s 			page 48


 2652 0024 1346     		mov	r3, r2
 2653 0026 4946     		mov	r1, r9
 2654 0028 3846     		mov	r0, r7
 2655 002a FFF7FEFF 		bl	mf_get_string_width
 2656              	.LVL255:
 2657              		.loc 1 2903 0
 2658 002e 1FFA86FB 		uxth	fp, r6
 2659              		.loc 1 2898 0
 2660 0032 A086     		strh	r0, [r4, #52]	@ movhi
 2661              		.loc 1 2903 0
 2662 0034 1FFA80FC 		uxth	ip, r0
 2663              		.loc 1 2899 0
 2664 0038 7A7A     		ldrb	r2, [r7, #9]	@ zero_extendqisi2
 2665              		.loc 1 2908 0
 2666 003a 238D     		ldrh	r3, [r4, #40]
 2667              		.loc 1 2906 0
 2668 003c A4F84080 		strh	r8, [r4, #64]	@ movhi
 2669              		.loc 1 2903 0
 2670 0040 0CEB0B0A 		add	r10, ip, fp
 2671 0044 CDF814A0 		str	r10, [sp, #20]
 2672              		.loc 1 2904 0
 2673 0048 A9B2     		uxth	r1, r5
 2674              		.loc 1 2905 0
 2675 004a DDF810A0 		ldr	r10, [sp, #16]
 2676 004e A4F84CA0 		strh	r10, [r4, #76]	@ movhi
 2677              		.loc 1 2904 0
 2678 0052 01EB020A 		add	r10, r1, r2
 2679 0056 CDF810A0 		str	r10, [sp, #16]
 2680              		.loc 1 2906 0
 2681 005a A4F84E80 		strh	r8, [r4, #78]	@ movhi
 2682              		.loc 1 2903 0
 2683 005e DDF814A0 		ldr	r10, [sp, #20]
 2684 0062 A4F854A0 		strh	r10, [r4, #84]	@ movhi
 2685              		.loc 1 2908 0
 2686 0066 0FFA83F8 		sxth	r8, r3
 2687              		.loc 1 2904 0
 2688 006a DDF810A0 		ldr	r10, [sp, #16]
 2689              		.loc 1 2899 0
 2690 006e E286     		strh	r2, [r4, #54]	@ movhi
 2691              		.loc 1 2908 0
 2692 0070 4645     		cmp	r6, r8
 2693              		.loc 1 2900 0
 2694 0072 A764     		str	r7, [r4, #72]
 2695              		.loc 1 2901 0
 2696 0074 2686     		strh	r6, [r4, #48]	@ movhi
 2697 0076 A4F85060 		strh	r6, [r4, #80]	@ movhi
 2698              		.loc 1 2902 0
 2699 007a 6586     		strh	r5, [r4, #50]	@ movhi
 2700 007c A4F85250 		strh	r5, [r4, #82]	@ movhi
 2701              		.loc 1 2904 0
 2702 0080 A4F856A0 		strh	r10, [r4, #86]	@ movhi
 2703              		.loc 1 2908 0
 2704 0084 4EDA     		bge	.L187
 2705              		.loc 1 2908 0 is_stmt 0 discriminator 1
 2706 0086 C3EB0B00 		rsb	r0, r3, fp
 2707 008a 6044     		add	r0, r0, ip
 2708 008c 80B2     		uxth	r0, r0
ARM GAS  /tmp/ccOGUWYP.s 			page 49


 2709 008e 2386     		strh	r3, [r4, #48]	@ movhi
 2710 0090 A086     		strh	r0, [r4, #52]	@ movhi
 2711              	.L181:
 2712              		.loc 1 2908 0 discriminator 2
 2713 0092 668D     		ldrh	r6, [r4, #42]
 2714 0094 0FFA86FC 		sxth	ip, r6
 2715 0098 6545     		cmp	r5, ip
 2716 009a 3FDA     		bge	.L188
 2717              		.loc 1 2908 0 discriminator 1
 2718 009c 921B     		subs	r2, r2, r6
 2719 009e 0A44     		add	r2, r2, r1
 2720 00a0 92B2     		uxth	r2, r2
 2721 00a2 E286     		strh	r2, [r4, #54]	@ movhi
 2722 00a4 6686     		strh	r6, [r4, #50]	@ movhi
 2723              	.L182:
 2724              		.loc 1 2908 0 discriminator 2
 2725 00a6 A18D     		ldrh	r1, [r4, #44]
 2726 00a8 00B2     		sxth	r0, r0
 2727 00aa 8044     		add	r8, r8, r0
 2728 00ac 0FFA81FA 		sxth	r10, r1
 2729 00b0 D045     		cmp	r8, r10
 2730 00b2 03DD     		ble	.L183
 2731              		.loc 1 2908 0 discriminator 1
 2732 00b4 C81A     		subs	r0, r1, r3
 2733 00b6 80B2     		uxth	r0, r0
 2734 00b8 A086     		strh	r0, [r4, #52]	@ movhi
 2735 00ba 00B2     		sxth	r0, r0
 2736              	.L183:
 2737              		.loc 1 2908 0 discriminator 2
 2738 00bc E38D     		ldrh	r3, [r4, #46]
 2739 00be 0CFA82F2 		sxtah	r2, ip, r2
 2740 00c2 19B2     		sxth	r1, r3
 2741 00c4 8A42     		cmp	r2, r1
 2742 00c6 C4BF     		itt	gt
 2743 00c8 C6EB0306 		rsbgt	r6, r6, r3
 2744 00cc E686     		strhgt	r6, [r4, #54]	@ movhi
 2745 00ce 0028     		cmp	r0, #0
 2746 00d0 15DD     		ble	.L185
 2747              		.loc 1 2908 0 discriminator 1
 2748 00d2 B4F93630 		ldrsh	r3, [r4, #54]
 2749 00d6 002B     		cmp	r3, #0
 2750 00d8 11DD     		ble	.L185
 2751              	.LVL256:
 2752              	.LBB132:
 2753              	.LBB133:
 2754              		.loc 1 206 0 is_stmt 1
 2755 00da 2046     		mov	r0, r4
 2756 00dc FFF7FEFF 		bl	gdisp_lld_fill_area
 2757              	.LVL257:
 2758              	.LBE133:
 2759              	.LBE132:
 2760              		.loc 1 2910 0
 2761 00e0 3B7B     		ldrb	r3, [r7, #12]	@ zero_extendqisi2
 2762 00e2 124E     		ldr	r6, .L192
 2763 00e4 CDF80090 		str	r9, [sp]
 2764 00e8 0BEB0301 		add	r1, fp, r3
 2765 00ec 0023     		movs	r3, #0
ARM GAS  /tmp/ccOGUWYP.s 			page 50


 2766 00ee 0394     		str	r4, [sp, #12]
 2767 00f0 2A46     		mov	r2, r5
 2768 00f2 09B2     		sxth	r1, r1
 2769 00f4 3846     		mov	r0, r7
 2770 00f6 0193     		str	r3, [sp, #4]
 2771 00f8 0296     		str	r6, [sp, #8]
 2772 00fa FFF7FEFF 		bl	mf_render_aligned
 2773              	.LVL258:
 2774              	.L185:
 2775              		.loc 1 2913 0
 2776 00fe E38A     		ldrh	r3, [r4, #22]
 2777 0100 9B07     		lsls	r3, r3, #30
 2778 0102 06D5     		bpl	.L186
 2779              		.loc 1 2913 0 is_stmt 0 discriminator 1
 2780 0104 2046     		mov	r0, r4
 2781 0106 FFF7FEFF 		bl	gdisp_lld_write_stop
 2782              	.LVL259:
 2783 010a E38A     		ldrh	r3, [r4, #22]
 2784 010c 23F00203 		bic	r3, r3, #2
 2785 0110 E382     		strh	r3, [r4, #22]	@ movhi
 2786              	.L186:
 2787              		.loc 1 2915 0 is_stmt 1
 2788 0112 07B0     		add	sp, sp, #28
 2789              		@ sp needed
 2790 0114 BDE8F04F 		pop	{r4, r5, r6, r7, r8, r9, r10, fp, lr}
 2791              	.LVL260:
 2792              		.loc 1 2914 0
 2793 0118 FFF7FEBF 		b	chMtxUnlock
 2794              	.LVL261:
 2795              	.L188:
 2796 011c 2E46     		mov	r6, r5
 2797 011e 0FFA85FC 		sxth	ip, r5
 2798 0122 C0E7     		b	.L182
 2799              	.L187:
 2800 0124 3346     		mov	r3, r6
 2801 0126 0FFA86F8 		sxth	r8, r6
 2802 012a B2E7     		b	.L181
 2803              	.L193:
 2804              		.align	2
 2805              	.L192:
 2806 012c 00000000 		.word	fillcharglyph
 2807              		.cfi_endproc
 2808              	.LFE138:
 2809              		.size	gdispGFillString, .-gdispGFillString
 2810              		.section	.text.gdispGDrawStringBox,"ax",%progbits
 2811              		.align	2
 2812              		.p2align 4,,15
 2813              		.global	gdispGDrawStringBox
 2814              		.thumb
 2815              		.thumb_func
 2816              		.type	gdispGDrawStringBox, %function
 2817              	gdispGDrawStringBox:
 2818              	.LFB139:
 2819              		.loc 1 2917 0
 2820              		.cfi_startproc
 2821              		@ args = 20, pretend = 0, frame = 8
 2822              		@ frame_needed = 0, uses_anonymous_args = 0
ARM GAS  /tmp/ccOGUWYP.s 			page 51


 2823              	.LVL262:
 2824 0000 2DE9F04F 		push	{r4, r5, r6, r7, r8, r9, r10, fp, lr}
 2825              		.cfi_def_cfa_offset 36
 2826              		.cfi_offset 4, -36
 2827              		.cfi_offset 5, -32
 2828              		.cfi_offset 6, -28
 2829              		.cfi_offset 7, -24
 2830              		.cfi_offset 8, -20
 2831              		.cfi_offset 9, -16
 2832              		.cfi_offset 10, -12
 2833              		.cfi_offset 11, -8
 2834              		.cfi_offset 14, -4
 2835 0004 87B0     		sub	sp, sp, #28
 2836              		.cfi_def_cfa_offset 64
 2837              		.loc 1 2917 0
 2838 0006 0446     		mov	r4, r0
 2839 0008 0F46     		mov	r7, r1
 2840              		.loc 1 2918 0
 2841 000a 1830     		adds	r0, r0, #24
 2842              	.LVL263:
 2843              		.loc 1 2917 0
 2844 000c 9B46     		mov	fp, r3
 2845 000e 119B     		ldr	r3, [sp, #68]
 2846              	.LVL264:
 2847 0010 BDF94090 		ldrsh	r9, [sp, #64]
 2848 0014 129D     		ldr	r5, [sp, #72]
 2849 0016 BDF84CA0 		ldrh	r10, [sp, #76]
 2850 001a 9DF85060 		ldrb	r6, [sp, #80]	@ zero_extendqisi2
 2851 001e 0593     		str	r3, [sp, #20]
 2852 0020 9046     		mov	r8, r2
 2853              		.loc 1 2918 0
 2854 0022 FFF7FEFF 		bl	chMtxLock
 2855              	.LVL265:
 2856              		.loc 1 2922 0
 2857 0026 B8B2     		uxth	r0, r7
 2858              		.loc 1 2923 0
 2859 0028 1FFA88F2 		uxth	r2, r8
 2860              		.loc 1 2922 0
 2861 002c 00EB0B01 		add	r1, r0, fp
 2862              		.loc 1 2923 0
 2863 0030 02EB090E 		add	lr, r2, r9
 2864              		.loc 1 2922 0
 2865 0034 09B2     		sxth	r1, r1
 2866              		.loc 1 2927 0
 2867 0036 012E     		cmp	r6, #1
 2868              		.loc 1 2919 0
 2869 0038 A564     		str	r5, [r4, #72]
 2870              		.loc 1 2920 0
 2871 003a A4F85070 		strh	r7, [r4, #80]	@ movhi
 2872              		.loc 1 2921 0
 2873 003e A4F85280 		strh	r8, [r4, #82]	@ movhi
 2874              		.loc 1 2924 0
 2875 0042 A4F84CA0 		strh	r10, [r4, #76]	@ movhi
 2876              		.loc 1 2923 0
 2877 0046 A4F856E0 		strh	lr, [r4, #86]	@ movhi
 2878              		.loc 1 2922 0
 2879 004a A4F85410 		strh	r1, [r4, #84]	@ movhi
ARM GAS  /tmp/ccOGUWYP.s 			page 52


 2880              		.loc 1 2927 0
 2881 004e 2BD0     		beq	.L196
 2882 0050 022E     		cmp	r6, #2
 2883 0052 25D1     		bne	.L206
 2884              	.LVL266:
 2885              	.L197:
 2886              		.loc 1 2938 0
 2887 0054 6B7A     		ldrb	r3, [r5, #9]	@ zero_extendqisi2
 2888              		.loc 1 2940 0
 2889 0056 0598     		ldr	r0, [sp, #20]
 2890 0058 174F     		ldr	r7, .L207
 2891 005a 0090     		str	r0, [sp]
 2892              	.LVL267:
 2893              		.loc 1 2938 0
 2894 005c 09F10109 		add	r9, r9, #1
 2895              	.LVL268:
 2896 0060 C3EB0909 		rsb	r9, r3, r9
 2897 0064 09EBD979 		add	r9, r9, r9, lsr #31
 2898              		.loc 1 2940 0
 2899 0068 4FF0000E 		mov	lr, #0
 2900              		.loc 1 2938 0
 2901 006c 02EB6902 		add	r2, r2, r9, asr #1
 2902              	.LVL269:
 2903              		.loc 1 2940 0
 2904 0070 3346     		mov	r3, r6
 2905              	.LVL270:
 2906 0072 0394     		str	r4, [sp, #12]
 2907 0074 12B2     		sxth	r2, r2
 2908 0076 2846     		mov	r0, r5
 2909 0078 CDF804E0 		str	lr, [sp, #4]
 2910 007c 0297     		str	r7, [sp, #8]
 2911 007e FFF7FEFF 		bl	mf_render_aligned
 2912              	.LVL271:
 2913              		.loc 1 2942 0
 2914 0082 E38A     		ldrh	r3, [r4, #22]
 2915 0084 9B07     		lsls	r3, r3, #30
 2916 0086 06D5     		bpl	.L198
 2917              		.loc 1 2942 0 is_stmt 0 discriminator 1
 2918 0088 2046     		mov	r0, r4
 2919 008a FFF7FEFF 		bl	gdisp_lld_write_stop
 2920              	.LVL272:
 2921 008e E38A     		ldrh	r3, [r4, #22]
 2922 0090 23F00203 		bic	r3, r3, #2
 2923 0094 E382     		strh	r3, [r4, #22]	@ movhi
 2924              	.L198:
 2925              		.loc 1 2944 0 is_stmt 1
 2926 0096 07B0     		add	sp, sp, #28
 2927              		@ sp needed
 2928 0098 BDE8F04F 		pop	{r4, r5, r6, r7, r8, r9, r10, fp, lr}
 2929              	.LVL273:
 2930              		.loc 1 2943 0
 2931 009c FFF7FEBF 		b	chMtxUnlock
 2932              	.LVL274:
 2933              	.L206:
 2934              		.loc 1 2935 0
 2935 00a0 297B     		ldrb	r1, [r5, #12]	@ zero_extendqisi2
 2936 00a2 0144     		add	r1, r1, r0
ARM GAS  /tmp/ccOGUWYP.s 			page 53


 2937 00a4 09B2     		sxth	r1, r1
 2938              	.LVL275:
 2939              		.loc 1 2936 0
 2940 00a6 D5E7     		b	.L197
 2941              	.LVL276:
 2942              	.L196:
 2943              		.loc 1 2929 0
 2944 00a8 0BF1010B 		add	fp, fp, #1
 2945 00ac 0BEBDB7B 		add	fp, fp, fp, lsr #31
 2946 00b0 00EB6B01 		add	r1, r0, fp, asr #1
 2947 00b4 09B2     		sxth	r1, r1
 2948              	.LVL277:
 2949              		.loc 1 2930 0
 2950 00b6 CDE7     		b	.L197
 2951              	.L208:
 2952              		.align	2
 2953              	.L207:
 2954 00b8 00000000 		.word	drawcharglyph
 2955              		.cfi_endproc
 2956              	.LFE139:
 2957              		.size	gdispGDrawStringBox, .-gdispGDrawStringBox
 2958 00bc AFF30080 		.section	.text.gdispGFillStringBox,"ax",%progbits
 2959              		.align	2
 2960              		.p2align 4,,15
 2961              		.global	gdispGFillStringBox
 2962              		.thumb
 2963              		.thumb_func
 2964              		.type	gdispGFillStringBox, %function
 2965              	gdispGFillStringBox:
 2966              	.LFB140:
 2967              		.loc 1 2946 0
 2968              		.cfi_startproc
 2969              		@ args = 24, pretend = 0, frame = 24
 2970              		@ frame_needed = 0, uses_anonymous_args = 0
 2971              	.LVL278:
 2972 0000 2DE9F04F 		push	{r4, r5, r6, r7, r8, r9, r10, fp, lr}
 2973              		.cfi_def_cfa_offset 36
 2974              		.cfi_offset 4, -36
 2975              		.cfi_offset 5, -32
 2976              		.cfi_offset 6, -28
 2977              		.cfi_offset 7, -24
 2978              		.cfi_offset 8, -20
 2979              		.cfi_offset 9, -16
 2980              		.cfi_offset 10, -12
 2981              		.cfi_offset 11, -8
 2982              		.cfi_offset 14, -4
 2983 0004 8BB0     		sub	sp, sp, #44
 2984              		.cfi_def_cfa_offset 80
 2985              		.loc 1 2946 0
 2986 0006 9A46     		mov	r10, r3
 2987 0008 169E     		ldr	r6, [sp, #88]
 2988 000a 159B     		ldr	r3, [sp, #84]
 2989              	.LVL279:
 2990 000c 0993     		str	r3, [sp, #36]
 2991 000e 0446     		mov	r4, r0
 2992 0010 0D46     		mov	r5, r1
 2993 0012 BDF86030 		ldrh	r3, [sp, #96]
ARM GAS  /tmp/ccOGUWYP.s 			page 54


 2994 0016 BDF85C10 		ldrh	r1, [sp, #92]
 2995              	.LVL280:
 2996 001a 0696     		str	r6, [sp, #24]
 2997              		.loc 1 2947 0
 2998 001c 1830     		adds	r0, r0, #24
 2999              	.LVL281:
 3000              		.loc 1 2946 0
 3001 001e 9DF86460 		ldrb	r6, [sp, #100]	@ zero_extendqisi2
 3002 0022 BDF95080 		ldrsh	r8, [sp, #80]
 3003 0026 0896     		str	r6, [sp, #32]
 3004              		.loc 1 2947 0
 3005 0028 0591     		str	r1, [sp, #20]
 3006              		.loc 1 2946 0
 3007 002a 1646     		mov	r6, r2
 3008              		.loc 1 2947 0
 3009 002c 0493     		str	r3, [sp, #16]
 3010              		.loc 1 2953 0
 3011 002e 1FFA85F9 		uxth	r9, r5
 3012              		.loc 1 2947 0
 3013 0032 FFF7FEFF 		bl	chMtxLock
 3014              	.LVL282:
 3015              		.loc 1 2953 0
 3016 0036 1FFA8AFC 		uxth	ip, r10
 3017 003a 0CEB0902 		add	r2, ip, r9
 3018 003e 12B2     		sxth	r2, r2
 3019              		.loc 1 2958 0
 3020 0040 278D     		ldrh	r7, [r4, #40]
 3021              		.loc 1 2953 0
 3022 0042 0792     		str	r2, [sp, #28]
 3023              		.loc 1 2950 0
 3024 0044 069A     		ldr	r2, [sp, #24]
 3025              		.loc 1 2955 0
 3026 0046 0599     		ldr	r1, [sp, #20]
 3027              		.loc 1 2956 0
 3028 0048 049B     		ldr	r3, [sp, #16]
 3029              		.loc 1 2950 0
 3030 004a A264     		str	r2, [r4, #72]
 3031              		.loc 1 2954 0
 3032 004c 1FFA86FB 		uxth	fp, r6
 3033 0050 1FFA88F0 		uxth	r0, r8
 3034              		.loc 1 2958 0
 3035 0054 3AB2     		sxth	r2, r7
 3036              		.loc 1 2955 0
 3037 0056 A4F84C10 		strh	r1, [r4, #76]	@ movhi
 3038              		.loc 1 2956 0
 3039 005a A4F84030 		strh	r3, [r4, #64]	@ movhi
 3040              		.loc 1 2954 0
 3041 005e 00EB0B01 		add	r1, r0, fp
 3042              		.loc 1 2956 0
 3043 0062 A4F84E30 		strh	r3, [r4, #78]	@ movhi
 3044              		.loc 1 2958 0
 3045 0066 9542     		cmp	r5, r2
 3046              		.loc 1 2953 0
 3047 0068 079B     		ldr	r3, [sp, #28]
 3048              		.loc 1 2948 0
 3049 006a A4F834A0 		strh	r10, [r4, #52]	@ movhi
 3050              		.loc 1 2949 0
ARM GAS  /tmp/ccOGUWYP.s 			page 55


 3051 006e A4F83680 		strh	r8, [r4, #54]	@ movhi
 3052              		.loc 1 2951 0
 3053 0072 2586     		strh	r5, [r4, #48]	@ movhi
 3054 0074 A4F85050 		strh	r5, [r4, #80]	@ movhi
 3055              		.loc 1 2952 0
 3056 0078 6686     		strh	r6, [r4, #50]	@ movhi
 3057 007a A4F85260 		strh	r6, [r4, #82]	@ movhi
 3058              		.loc 1 2954 0
 3059 007e A4F85610 		strh	r1, [r4, #86]	@ movhi
 3060              		.loc 1 2953 0
 3061 0082 A4F85430 		strh	r3, [r4, #84]	@ movhi
 3062              		.loc 1 2958 0
 3063 0086 5BDA     		bge	.L219
 3064              		.loc 1 2958 0 is_stmt 0 discriminator 1
 3065 0088 C7EB0905 		rsb	r5, r7, r9
 3066 008c 6544     		add	r5, r5, ip
 3067 008e ADB2     		uxth	r5, r5
 3068 0090 2786     		strh	r7, [r4, #48]	@ movhi
 3069 0092 A586     		strh	r5, [r4, #52]	@ movhi
 3070              	.L210:
 3071              		.loc 1 2958 0 discriminator 2
 3072 0094 618D     		ldrh	r1, [r4, #42]
 3073 0096 0BB2     		sxth	r3, r1
 3074 0098 9E42     		cmp	r6, r3
 3075 009a 4DDA     		bge	.L220
 3076              		.loc 1 2958 0 discriminator 1
 3077 009c C1EB0B06 		rsb	r6, r1, fp
 3078 00a0 3044     		add	r0, r0, r6
 3079 00a2 80B2     		uxth	r0, r0
 3080 00a4 6186     		strh	r1, [r4, #50]	@ movhi
 3081 00a6 E086     		strh	r0, [r4, #54]	@ movhi
 3082              	.L211:
 3083              		.loc 1 2958 0 discriminator 2
 3084 00a8 A68D     		ldrh	r6, [r4, #44]
 3085 00aa 2DB2     		sxth	r5, r5
 3086 00ac 2A44     		add	r2, r2, r5
 3087 00ae 0FFA86FC 		sxth	ip, r6
 3088 00b2 6245     		cmp	r2, ip
 3089 00b4 03DD     		ble	.L212
 3090              		.loc 1 2958 0 discriminator 1
 3091 00b6 F71B     		subs	r7, r6, r7
 3092 00b8 BDB2     		uxth	r5, r7
 3093 00ba A586     		strh	r5, [r4, #52]	@ movhi
 3094 00bc 2DB2     		sxth	r5, r5
 3095              	.L212:
 3096              		.loc 1 2958 0 discriminator 2
 3097 00be E28D     		ldrh	r2, [r4, #46]
 3098 00c0 03FA80F3 		sxtah	r3, r3, r0
 3099 00c4 16B2     		sxth	r6, r2
 3100 00c6 B342     		cmp	r3, r6
 3101 00c8 C4BF     		itt	gt
 3102 00ca C1EB0201 		rsbgt	r1, r1, r2
 3103 00ce E186     		strhgt	r1, [r4, #54]	@ movhi
 3104 00d0 002D     		cmp	r5, #0
 3105 00d2 22DD     		ble	.L214
 3106              		.loc 1 2958 0 discriminator 1
 3107 00d4 B4F93630 		ldrsh	r3, [r4, #54]
ARM GAS  /tmp/ccOGUWYP.s 			page 56


 3108 00d8 002B     		cmp	r3, #0
 3109 00da 1EDD     		ble	.L214
 3110              	.LVL283:
 3111              	.LBB134:
 3112              	.LBB135:
 3113              		.loc 1 206 0 is_stmt 1
 3114 00dc 2046     		mov	r0, r4
 3115 00de FFF7FEFF 		bl	gdisp_lld_fill_area
 3116              	.LVL284:
 3117              	.LBE135:
 3118              	.LBE134:
 3119              		.loc 1 2964 0
 3120 00e2 089E     		ldr	r6, [sp, #32]
 3121 00e4 012E     		cmp	r6, #1
 3122 00e6 35D0     		beq	.L216
 3123 00e8 022E     		cmp	r6, #2
 3124 00ea 2DD1     		bne	.L228
 3125              	.LVL285:
 3126              	.L217:
 3127              		.loc 1 2975 0
 3128 00ec 069E     		ldr	r6, [sp, #24]
 3129              		.loc 1 2978 0
 3130 00ee 1F4D     		ldr	r5, .L229
 3131              		.loc 1 2975 0
 3132 00f0 737A     		ldrb	r3, [r6, #9]	@ zero_extendqisi2
 3133              		.loc 1 2978 0
 3134 00f2 099E     		ldr	r6, [sp, #36]
 3135 00f4 0096     		str	r6, [sp]
 3136              	.LVL286:
 3137              		.loc 1 2975 0
 3138 00f6 08F10108 		add	r8, r8, #1
 3139              	.LVL287:
 3140 00fa C3EB0808 		rsb	r8, r3, r8
 3141 00fe 08EBD878 		add	r8, r8, r8, lsr #31
 3142 0102 0BEB6802 		add	r2, fp, r8, asr #1
 3143              		.loc 1 2978 0
 3144 0106 0026     		movs	r6, #0
 3145 0108 0394     		str	r4, [sp, #12]
 3146 010a 0799     		ldr	r1, [sp, #28]
 3147 010c 089B     		ldr	r3, [sp, #32]
 3148              	.LVL288:
 3149 010e 0698     		ldr	r0, [sp, #24]
 3150 0110 0196     		str	r6, [sp, #4]
 3151 0112 12B2     		sxth	r2, r2
 3152 0114 0295     		str	r5, [sp, #8]
 3153 0116 FFF7FEFF 		bl	mf_render_aligned
 3154              	.LVL289:
 3155              	.L214:
 3156              		.loc 1 2981 0
 3157 011a E38A     		ldrh	r3, [r4, #22]
 3158 011c 9B07     		lsls	r3, r3, #30
 3159 011e 06D5     		bpl	.L218
 3160              		.loc 1 2981 0 is_stmt 0 discriminator 1
 3161 0120 2046     		mov	r0, r4
 3162 0122 FFF7FEFF 		bl	gdisp_lld_write_stop
 3163              	.LVL290:
 3164 0126 E38A     		ldrh	r3, [r4, #22]
ARM GAS  /tmp/ccOGUWYP.s 			page 57


 3165 0128 23F00203 		bic	r3, r3, #2
 3166 012c E382     		strh	r3, [r4, #22]	@ movhi
 3167              	.L218:
 3168              		.loc 1 2983 0 is_stmt 1
 3169 012e 0BB0     		add	sp, sp, #44
 3170              		@ sp needed
 3171 0130 BDE8F04F 		pop	{r4, r5, r6, r7, r8, r9, r10, fp, lr}
 3172              	.LVL291:
 3173              		.loc 1 2982 0
 3174 0134 FFF7FEBF 		b	chMtxUnlock
 3175              	.LVL292:
 3176              	.L220:
 3177 0138 3146     		mov	r1, r6
 3178 013a 33B2     		sxth	r3, r6
 3179 013c 4046     		mov	r0, r8
 3180 013e B3E7     		b	.L211
 3181              	.L219:
 3182 0140 2F46     		mov	r7, r5
 3183 0142 2AB2     		sxth	r2, r5
 3184 0144 5546     		mov	r5, r10
 3185 0146 A5E7     		b	.L210
 3186              	.LVL293:
 3187              	.L228:
 3188              		.loc 1 2972 0
 3189 0148 069E     		ldr	r6, [sp, #24]
 3190 014a 337B     		ldrb	r3, [r6, #12]	@ zero_extendqisi2
 3191 014c 4B44     		add	r3, r3, r9
 3192 014e 1BB2     		sxth	r3, r3
 3193 0150 0793     		str	r3, [sp, #28]
 3194              	.LVL294:
 3195              		.loc 1 2973 0
 3196 0152 CBE7     		b	.L217
 3197              	.LVL295:
 3198              	.L216:
 3199              		.loc 1 2966 0
 3200 0154 0AF1010A 		add	r10, r10, #1
 3201 0158 0AEBDA7A 		add	r10, r10, r10, lsr #31
 3202 015c 09EB6A0A 		add	r10, r9, r10, asr #1
 3203 0160 0FFA8AFA 		sxth	r10, r10
 3204 0164 CDF81CA0 		str	r10, [sp, #28]
 3205              	.LVL296:
 3206              		.loc 1 2967 0
 3207 0168 C0E7     		b	.L217
 3208              	.L230:
 3209 016a 00BF     		.align	2
 3210              	.L229:
 3211 016c 00000000 		.word	fillcharglyph
 3212              		.cfi_endproc
 3213              	.LFE140:
 3214              		.size	gdispGFillStringBox, .-gdispGFillStringBox
 3215              		.section	.text.gdispGetFontMetric,"ax",%progbits
 3216              		.align	2
 3217              		.p2align 4,,15
 3218              		.global	gdispGetFontMetric
 3219              		.thumb
 3220              		.thumb_func
 3221              		.type	gdispGetFontMetric, %function
ARM GAS  /tmp/ccOGUWYP.s 			page 58


 3222              	gdispGetFontMetric:
 3223              	.LFB141:
 3224              		.loc 1 2985 0
 3225              		.cfi_startproc
 3226              		@ args = 0, pretend = 0, frame = 0
 3227              		@ frame_needed = 0, uses_anonymous_args = 0
 3228              		@ link register save eliminated.
 3229              	.LVL297:
 3230              		.loc 1 2987 0
 3231 0000 0529     		cmp	r1, #5
 3232 0002 04D8     		bhi	.L239
 3233 0004 DFE801F0 		tbb	[pc, r1]
 3234              	.L234:
 3235 0008 09       		.byte	(.L233-.L234)/2
 3236 0009 0C       		.byte	(.L235-.L234)/2
 3237 000a 12       		.byte	(.L236-.L234)/2
 3238 000b 03       		.byte	(.L239-.L234)/2
 3239 000c 06       		.byte	(.L237-.L234)/2
 3240 000d 15       		.byte	(.L238-.L234)/2
 3241              		.p2align 1
 3242              	.L239:
 3243              		.loc 1 2991 0
 3244 000e 0020     		movs	r0, #0
 3245              	.LVL298:
 3246              		.loc 1 2996 0
 3247 0010 00B2     		sxth	r0, r0
 3248 0012 7047     		bx	lr
 3249              	.LVL299:
 3250              	.L237:
 3251              		.loc 1 2992 0
 3252 0014 807A     		ldrb	r0, [r0, #10]	@ zero_extendqisi2
 3253              	.LVL300:
 3254              		.loc 1 2996 0
 3255 0016 00B2     		sxth	r0, r0
 3256 0018 7047     		bx	lr
 3257              	.LVL301:
 3258              	.L233:
 3259              		.loc 1 2988 0
 3260 001a 407A     		ldrb	r0, [r0, #9]	@ zero_extendqisi2
 3261              	.LVL302:
 3262              		.loc 1 2996 0
 3263 001c 00B2     		sxth	r0, r0
 3264 001e 7047     		bx	lr
 3265              	.LVL303:
 3266              	.L235:
 3267              		.loc 1 2989 0
 3268 0020 427A     		ldrb	r2, [r0, #9]	@ zero_extendqisi2
 3269 0022 437B     		ldrb	r3, [r0, #13]	@ zero_extendqisi2
 3270 0024 D01A     		subs	r0, r2, r3
 3271              	.LVL304:
 3272 0026 80B2     		uxth	r0, r0
 3273              		.loc 1 2996 0
 3274 0028 00B2     		sxth	r0, r0
 3275 002a 7047     		bx	lr
 3276              	.LVL305:
 3277              	.L236:
 3278              		.loc 1 2990 0
ARM GAS  /tmp/ccOGUWYP.s 			page 59


 3279 002c 807B     		ldrb	r0, [r0, #14]	@ zero_extendqisi2
 3280              	.LVL306:
 3281              		.loc 1 2996 0
 3282 002e 00B2     		sxth	r0, r0
 3283 0030 7047     		bx	lr
 3284              	.LVL307:
 3285              	.L238:
 3286              		.loc 1 2993 0
 3287 0032 C07A     		ldrb	r0, [r0, #11]	@ zero_extendqisi2
 3288              	.LVL308:
 3289              		.loc 1 2996 0
 3290 0034 00B2     		sxth	r0, r0
 3291 0036 7047     		bx	lr
 3292              		.cfi_endproc
 3293              	.LFE141:
 3294              		.size	gdispGetFontMetric, .-gdispGetFontMetric
 3295 0038 AFF30080 		.section	.text.gdispGetCharWidth,"ax",%progbits
 3295      AFF30080 
 3296              		.align	2
 3297              		.p2align 4,,15
 3298              		.global	gdispGetCharWidth
 3299              		.thumb
 3300              		.thumb_func
 3301              		.type	gdispGetCharWidth, %function
 3302              	gdispGetCharWidth:
 3303              	.LFB142:
 3304              		.loc 1 2998 0
 3305              		.cfi_startproc
 3306              		@ args = 0, pretend = 0, frame = 0
 3307              		@ frame_needed = 0, uses_anonymous_args = 0
 3308              	.LVL309:
 3309 0000 08B5     		push	{r3, lr}
 3310              		.cfi_def_cfa_offset 8
 3311              		.cfi_offset 3, -8
 3312              		.cfi_offset 14, -4
 3313              		.loc 1 2998 0
 3314 0002 0346     		mov	r3, r0
 3315              		.loc 1 3000 0
 3316 0004 0846     		mov	r0, r1
 3317              	.LVL310:
 3318 0006 1946     		mov	r1, r3
 3319              	.LVL311:
 3320 0008 FFF7FEFF 		bl	mf_character_width
 3321              	.LVL312:
 3322              		.loc 1 3001 0
 3323 000c 00B2     		sxth	r0, r0
 3324 000e 08BD     		pop	{r3, pc}
 3325              		.cfi_endproc
 3326              	.LFE142:
 3327              		.size	gdispGetCharWidth, .-gdispGetCharWidth
 3328              		.section	.text.gdispGetStringWidth,"ax",%progbits
 3329              		.align	2
 3330              		.p2align 4,,15
 3331              		.global	gdispGetStringWidth
 3332              		.thumb
 3333              		.thumb_func
 3334              		.type	gdispGetStringWidth, %function
ARM GAS  /tmp/ccOGUWYP.s 			page 60


 3335              	gdispGetStringWidth:
 3336              	.LFB143:
 3337              		.loc 1 3003 0
 3338              		.cfi_startproc
 3339              		@ args = 0, pretend = 0, frame = 0
 3340              		@ frame_needed = 0, uses_anonymous_args = 0
 3341              		@ link register save eliminated.
 3342              	.LVL313:
 3343 0000 10B4     		push	{r4}
 3344              		.cfi_def_cfa_offset 4
 3345              		.cfi_offset 4, -4
 3346              		.loc 1 3005 0
 3347 0002 0022     		movs	r2, #0
 3348              		.loc 1 3003 0
 3349 0004 0446     		mov	r4, r0
 3350              		.loc 1 3005 0
 3351 0006 1346     		mov	r3, r2
 3352 0008 0846     		mov	r0, r1
 3353              	.LVL314:
 3354 000a 2146     		mov	r1, r4
 3355              	.LVL315:
 3356              		.loc 1 3006 0
 3357 000c 5DF8044B 		ldr	r4, [sp], #4
 3358              	.LVL316:
 3359              		.loc 1 3005 0
 3360 0010 FFF7FEBF 		b	mf_get_string_width
 3361              	.LVL317:
 3362              		.cfi_endproc
 3363              	.LFE143:
 3364              		.size	gdispGetStringWidth, .-gdispGetStringWidth
 3365 0014 AFF30080 		.section	.text.gdispBlendColor,"ax",%progbits
 3365      AFF30080 
 3365      AFF30080 
 3366              		.align	2
 3367              		.p2align 4,,15
 3368              		.global	gdispBlendColor
 3369              		.thumb
 3370              		.thumb_func
 3371              		.type	gdispBlendColor, %function
 3372              	gdispBlendColor:
 3373              	.LFB144:
 3374              		.loc 1 3010 0
 3375              		.cfi_startproc
 3376              		@ args = 0, pretend = 0, frame = 0
 3377              		@ frame_needed = 0, uses_anonymous_args = 0
 3378              		@ link register save eliminated.
 3379              	.LVL318:
 3380 0000 F0B4     		push	{r4, r5, r6, r7}
 3381              		.cfi_def_cfa_offset 16
 3382              		.cfi_offset 4, -16
 3383              		.cfi_offset 5, -12
 3384              		.cfi_offset 6, -8
 3385              		.cfi_offset 7, -4
 3386              		.loc 1 3016 0
 3387 0002 00F4FC67 		and	r7, r0, #2016
 3388              		.loc 1 3011 0
 3389 0006 531C     		adds	r3, r2, #1
ARM GAS  /tmp/ccOGUWYP.s 			page 61


 3390              	.LVL319:
 3391              		.loc 1 3020 0
 3392 0008 01F4FC6C 		and	ip, r1, #2016
 3393              		.loc 1 3015 0
 3394 000c 00F47845 		and	r5, r0, #63488
 3395              		.loc 1 3016 0
 3396 0010 FF10     		asrs	r7, r7, #3
 3397              		.loc 1 3012 0
 3398 0012 C2F58072 		rsb	r2, r2, #256
 3399              	.LVL320:
 3400              		.loc 1 3016 0
 3401 0016 07FB03F7 		mul	r7, r7, r3
 3402              		.loc 1 3012 0
 3403 001a 92B2     		uxth	r2, r2
 3404              	.LVL321:
 3405              		.loc 1 3017 0
 3406 001c C600     		lsls	r6, r0, #3
 3407              		.loc 1 3019 0
 3408 001e 01F47844 		and	r4, r1, #63488
 3409              		.loc 1 3020 0
 3410 0022 4FEAEC0C 		asr	ip, ip, #3
 3411              		.loc 1 3015 0
 3412 0026 2D12     		asrs	r5, r5, #8
 3413              		.loc 1 3020 0
 3414 0028 0CFB0270 		mla	r0, ip, r2, r7
 3415              	.LVL322:
 3416              		.loc 1 3015 0
 3417 002c 05FB03F5 		mul	r5, r5, r3
 3418              	.LVL323:
 3419              		.loc 1 3017 0
 3420 0030 F6B2     		uxtb	r6, r6
 3421              		.loc 1 3019 0
 3422 0032 2412     		asrs	r4, r4, #8
 3423              		.loc 1 3021 0
 3424 0034 C900     		lsls	r1, r1, #3
 3425              	.LVL324:
 3426              		.loc 1 3019 0
 3427 0036 04FB0254 		mla	r4, r4, r2, r5
 3428              		.loc 1 3017 0
 3429 003a 06FB03F3 		mul	r3, r6, r3
 3430              	.LVL325:
 3431              		.loc 1 3027 0
 3432 003e 4009     		lsrs	r0, r0, #5
 3433              		.loc 1 3021 0
 3434 0040 C9B2     		uxtb	r1, r1
 3435              		.loc 1 3027 0
 3436 0042 04F47844 		and	r4, r4, #63488
 3437 0046 00F4FC60 		and	r0, r0, #2016
 3438              		.loc 1 3021 0
 3439 004a 01FB0232 		mla	r2, r1, r2, r3
 3440              	.LVL326:
 3441              		.loc 1 3027 0
 3442 004e 2043     		orrs	r0, r0, r4
 3443 0050 C2F3C422 		ubfx	r2, r2, #11, #5
 3444              	.LVL327:
 3445              		.loc 1 3028 0
 3446 0054 1043     		orrs	r0, r0, r2
ARM GAS  /tmp/ccOGUWYP.s 			page 62


 3447 0056 F0BC     		pop	{r4, r5, r6, r7}
 3448 0058 7047     		bx	lr
 3449              		.cfi_endproc
 3450              	.LFE144:
 3451              		.size	gdispBlendColor, .-gdispBlendColor
 3452 005a 00BFAFF3 		.section	.text.gdispContrastColor,"ax",%progbits
 3452      0080
 3453              		.align	2
 3454              		.p2align 4,,15
 3455              		.global	gdispContrastColor
 3456              		.thumb
 3457              		.thumb_func
 3458              		.type	gdispContrastColor, %function
 3459              	gdispContrastColor:
 3460              	.LFB145:
 3461              		.loc 1 3030 0
 3462              		.cfi_startproc
 3463              		@ args = 0, pretend = 0, frame = 0
 3464              		@ frame_needed = 0, uses_anonymous_args = 0
 3465              		@ link register save eliminated.
 3466              	.LVL328:
 3467              		.loc 1 3033 0
 3468 0000 00F47843 		and	r3, r0, #63488
 3469              		.loc 1 3034 0
 3470 0004 00F4FC61 		and	r1, r0, #2016
 3471              		.loc 1 3033 0
 3472 0008 B3F5004F 		cmp	r3, #32768
 3473              		.loc 1 3035 0
 3474 000c 4FEAC000 		lsl	r0, r0, #3
 3475              	.LVL329:
 3476              		.loc 1 3033 0
 3477 0010 94BF     		ite	ls
 3478 0012 4FF47843 		movls	r3, #63488
 3479 0016 0023     		movhi	r3, #0
 3480              		.loc 1 3035 0
 3481 0018 C2B2     		uxtb	r2, r0
 3482              		.loc 1 3034 0
 3483 001a B1F5806F 		cmp	r1, #1024
 3484 001e 94BF     		ite	ls
 3485 0020 4FF4FC60 		movls	r0, #2016
 3486 0024 0020     		movhi	r0, #0
 3487              		.loc 1 3035 0
 3488 0026 812A     		cmp	r2, #129
 3489              		.loc 1 3037 0
 3490 0028 40EA0300 		orr	r0, r0, r3
 3491              		.loc 1 3035 0
 3492 002c B4BF     		ite	lt
 3493 002e 1F23     		movlt	r3, #31
 3494 0030 0023     		movge	r3, #0
 3495              		.loc 1 3038 0
 3496 0032 1843     		orrs	r0, r0, r3
 3497 0034 7047     		bx	lr
 3498              		.cfi_endproc
 3499              	.LFE145:
 3500              		.size	gdispContrastColor, .-gdispContrastColor
 3501              		.global	GDISP
 3502 0036 00BFAFF3 		.section	.data.GDISP,"aw",%progbits
ARM GAS  /tmp/ccOGUWYP.s 			page 63


 3502      0080AFF3 
 3502      0080
 3503              		.align	2
 3504              		.set	.LANCHOR1,. + 0
 3505              		.type	GDISP, %object
 3506              		.size	GDISP, 4
 3507              	GDISP:
 3508 0000 00000000 		.word	GDisplayArray
 3509              		.section	.rodata.blks.7903,"a",%progbits
 3510              		.align	2
 3511              		.set	.LANCHOR2,. + 0
 3512              		.type	blks.7903, %object
 3513              		.size	blks.7903, 128
 3514              	blks.7903:
 3515 0000 0200     		.short	2
 3516 0002 0600     		.short	6
 3517 0004 0100     		.short	1
 3518 0006 0A00     		.short	10
 3519 0008 0300     		.short	3
 3520 000a 0B00     		.short	11
 3521 000c 0400     		.short	4
 3522 000e 0100     		.short	1
 3523 0010 0600     		.short	6
 3524 0012 0600     		.short	6
 3525 0014 0100     		.short	1
 3526 0016 0600     		.short	6
 3527 0018 0800     		.short	8
 3528 001a 0000     		.short	0
 3529 001c 0100     		.short	1
 3530 001e 0C00     		.short	12
 3531 0020 0900     		.short	9
 3532 0022 0000     		.short	0
 3533 0024 0600     		.short	6
 3534 0026 0100     		.short	1
 3535 0028 0900     		.short	9
 3536 002a 0B00     		.short	11
 3537 002c 0600     		.short	6
 3538 002e 0100     		.short	1
 3539 0030 0E00     		.short	14
 3540 0032 0600     		.short	6
 3541 0034 0100     		.short	1
 3542 0036 0500     		.short	5
 3543 0038 0C00     		.short	12
 3544 003a 0600     		.short	6
 3545 003c 0200     		.short	2
 3546 003e 0100     		.short	1
 3547 0040 1000     		.short	16
 3548 0042 0000     		.short	0
 3549 0044 0100     		.short	1
 3550 0046 0C00     		.short	12
 3551 0048 1100     		.short	17
 3552 004a 0000     		.short	0
 3553 004c 0600     		.short	6
 3554 004e 0100     		.short	1
 3555 0050 1100     		.short	17
 3556 0052 0600     		.short	6
 3557 0054 0300     		.short	3
ARM GAS  /tmp/ccOGUWYP.s 			page 64


 3558 0056 0100     		.short	1
 3559 0058 1600     		.short	22
 3560 005a 0600     		.short	6
 3561 005c 0700     		.short	7
 3562 005e 0100     		.short	1
 3563 0060 1800     		.short	24
 3564 0062 0000     		.short	0
 3565 0064 0100     		.short	1
 3566 0066 0600     		.short	6
 3567 0068 1600     		.short	22
 3568 006a 0700     		.short	7
 3569 006c 0100     		.short	1
 3570 006e 0500     		.short	5
 3571 0070 1C00     		.short	28
 3572 0072 0000     		.short	0
 3573 0074 0100     		.short	1
 3574 0076 0600     		.short	6
 3575 0078 1A00     		.short	26
 3576 007a 0700     		.short	7
 3577 007c 0100     		.short	1
 3578 007e 0500     		.short	5
 3579              		.section	.bss.GDisplayArray,"aw",%nobits
 3580              		.align	2
 3581              		.set	.LANCHOR0,. + 0
 3582              		.type	GDisplayArray, %object
 3583              		.size	GDisplayArray, 88
 3584              	GDisplayArray:
 3585 0000 00000000 		.space	88
 3585      00000000 
 3585      00000000 
 3585      00000000 
 3585      00000000 
 3586              		.text
 3587              	.Letext0:
 3588              		.file 2 "/opt/ARM/arm-none-eabi/include/machine/_default_types.h"
 3589              		.file 3 "/opt/ARM/arm-none-eabi/include/stdint.h"
 3590              		.file 4 "../../os/ports/GCC/ARMCMx/chtypes.h"
 3591              		.file 5 "../../os/kernel/include/chlists.h"
 3592              		.file 6 "../../os/kernel/include/chthreads.h"
 3593              		.file 7 "../../os/ports/GCC/ARMCMx/chcore_v7m.h"
 3594              		.file 8 "../../os/kernel/include/chmtx.h"
 3595              		.file 9 "/home/makkmarci/devel/ugfx/src/gos/chibios.h"
 3596              		.file 10 "/home/makkmarci/devel/ugfx/src/gdisp/sys_defs.h"
 3597              		.file 11 "/home/makkmarci/devel/ugfx/src/gdisp/mcufont/mf_font.h"
 3598              		.file 12 "/home/makkmarci/devel/ugfx/src/gdisp/driver.h"
 3599              		.file 13 "/home/makkmarci/devel/ugfx/src/gdisp/colors.h"
 3600              		.file 14 "/home/makkmarci/devel/ugfx/src/gdisp/mcufont/mf_encoding.h"
 3601              		.file 15 "/home/makkmarci/devel/ugfx/src/gdisp/mcufont/mf_justify.h"
 3602              		.file 16 "../../os/ports/common/ARMCMx/CMSIS/include/core_cm4.h"