ARM GAS  /tmp/ccITYBx4.s 			page 1


   1              		.syntax unified
   2              		.cpu cortex-m4
   3              		.eabi_attribute 27, 1
   4              		.eabi_attribute 28, 1
   5              		.fpu fpv4-sp-d16
   6              		.eabi_attribute 20, 1
   7              		.eabi_attribute 21, 1
   8              		.eabi_attribute 23, 3
   9              		.eabi_attribute 24, 1
  10              		.eabi_attribute 25, 1
  11              		.eabi_attribute 26, 1
  12              		.eabi_attribute 30, 6
  13              		.eabi_attribute 34, 1
  14              		.eabi_attribute 18, 4
  15              		.thumb
  16              		.file	"gdisp_image.c"
  17              		.text
  18              	.Ltext0:
  19              		.cfi_sections	.debug_frame
  20              		.section	.data.ImageHandlers,"aw",%progbits
  21              		.align	2
  22              		.type	ImageHandlers, %object
  23              		.size	ImageHandlers, 20
  24              	ImageHandlers:
  25 0000 00000000 		.word	gdispImageOpen_BMP
  26 0004 00000000 		.word	gdispImageClose_BMP
  27 0008 00000000 		.word	gdispImageCache_BMP
  28 000c 00000000 		.word	gdispGImageDraw_BMP
  29 0010 00000000 		.word	gdispImageNext_BMP
  30              		.section	.text.gdispImageOpen,"ax",%progbits
  31              		.align	2
  32              		.p2align 4,,15
  33              		.global	gdispImageOpen
  34              		.thumb
  35              		.thumb_func
  36              		.type	gdispImageOpen, %function
  37              	gdispImageOpen:
  38              	.LFB111:
  39              		.file 1 "/home/makkmarci/workspace/ugfx/src/gdisp/gdisp_image.c"
  40              		.loc 1 95 0
  41              		.cfi_startproc
  42              		@ args = 0, pretend = 0, frame = 8
  43              		@ frame_needed = 0, uses_anonymous_args = 0
  44 0000 00B5     		push	{lr}
  45              		.cfi_def_cfa_offset 4
  46              		.cfi_offset 14, -4
  47 0002 83B0     		sub	sp, sp, #12
  48              		.cfi_def_cfa_offset 16
  49 0004 0190     		str	r0, [sp, #4]
  50              		.loc 1 96 0
  51 0006 019B     		ldr	r3, [sp, #4]
  52 0008 DB68     		ldr	r3, [r3, #12]
  53 000a 0198     		ldr	r0, [sp, #4]
  54 000c 1946     		mov	r1, r3
  55 000e FFF7FEFF 		bl	gdispImageOpenGFile
  56 0012 0346     		mov	r3, r0
  57              		.loc 1 97 0
ARM GAS  /tmp/ccITYBx4.s 			page 2


  58 0014 1846     		mov	r0, r3
  59 0016 03B0     		add	sp, sp, #12
  60              		.cfi_def_cfa_offset 4
  61              		@ sp needed
  62 0018 5DF804FB 		ldr	pc, [sp], #4
  63              		.cfi_endproc
  64              	.LFE111:
  65              		.size	gdispImageOpen, .-gdispImageOpen
  66 001c AFF30080 		.section	.rodata
  67              		.align	2
  68              	.LC0:
  69 0000 726200   		.ascii	"rb\000"
  70 0003 00       		.section	.text.gdispImageSetMemoryReader,"ax",%progbits
  71              		.align	2
  72              		.p2align 4,,15
  73              		.global	gdispImageSetMemoryReader
  74              		.thumb
  75              		.thumb_func
  76              		.type	gdispImageSetMemoryReader, %function
  77              	gdispImageSetMemoryReader:
  78              	.LFB112:
  79              		.loc 1 102 0
  80              		.cfi_startproc
  81              		@ args = 0, pretend = 0, frame = 8
  82              		@ frame_needed = 0, uses_anonymous_args = 0
  83 0000 00B5     		push	{lr}
  84              		.cfi_def_cfa_offset 4
  85              		.cfi_offset 14, -4
  86 0002 83B0     		sub	sp, sp, #12
  87              		.cfi_def_cfa_offset 16
  88 0004 0190     		str	r0, [sp, #4]
  89 0006 0091     		str	r1, [sp]
  90              		.loc 1 103 0
  91 0008 0098     		ldr	r0, [sp]
  92 000a 0849     		ldr	r1, .L5
  93 000c FFF7FEFF 		bl	gfileOpenMemory
  94 0010 0246     		mov	r2, r0
  95 0012 019B     		ldr	r3, [sp, #4]
  96 0014 DA60     		str	r2, [r3, #12]
  97              		.loc 1 104 0
  98 0016 019B     		ldr	r3, [sp, #4]
  99 0018 DB68     		ldr	r3, [r3, #12]
 100 001a 002B     		cmp	r3, #0
 101 001c 14BF     		ite	ne
 102 001e 0123     		movne	r3, #1
 103 0020 0023     		moveq	r3, #0
 104 0022 DBB2     		uxtb	r3, r3
 105              		.loc 1 105 0
 106 0024 1846     		mov	r0, r3
 107 0026 03B0     		add	sp, sp, #12
 108              		.cfi_def_cfa_offset 4
 109              		@ sp needed
 110 0028 5DF804FB 		ldr	pc, [sp], #4
 111              	.L6:
 112              		.align	2
 113              	.L5:
 114 002c 00000000 		.word	.LC0
ARM GAS  /tmp/ccITYBx4.s 			page 3


 115              		.cfi_endproc
 116              	.LFE112:
 117              		.size	gdispImageSetMemoryReader, .-gdispImageSetMemoryReader
 118              		.section	.text.gdispImageInit,"ax",%progbits
 119              		.align	2
 120              		.p2align 4,,15
 121              		.global	gdispImageInit
 122              		.thumb
 123              		.thumb_func
 124              		.type	gdispImageInit, %function
 125              	gdispImageInit:
 126              	.LFB113:
 127              		.loc 1 126 0
 128              		.cfi_startproc
 129              		@ args = 0, pretend = 0, frame = 8
 130              		@ frame_needed = 0, uses_anonymous_args = 0
 131              		@ link register save eliminated.
 132 0000 82B0     		sub	sp, sp, #8
 133              		.cfi_def_cfa_offset 8
 134 0002 0190     		str	r0, [sp, #4]
 135              		.loc 1 127 0
 136 0004 019B     		ldr	r3, [sp, #4]
 137 0006 0022     		movs	r2, #0
 138 0008 1A80     		strh	r2, [r3]	@ movhi
 139              		.loc 1 128 0
 140 000a 02B0     		add	sp, sp, #8
 141              		.cfi_def_cfa_offset 0
 142              		@ sp needed
 143 000c 7047     		bx	lr
 144              		.cfi_endproc
 145              	.LFE113:
 146              		.size	gdispImageInit, .-gdispImageInit
 147 000e 00BF     		.section	.text.gdispImageOpenGFile,"ax",%progbits
 148              		.align	2
 149              		.p2align 4,,15
 150              		.global	gdispImageOpenGFile
 151              		.thumb
 152              		.thumb_func
 153              		.type	gdispImageOpenGFile, %function
 154              	gdispImageOpenGFile:
 155              	.LFB114:
 156              		.loc 1 130 0
 157              		.cfi_startproc
 158              		@ args = 0, pretend = 0, frame = 16
 159              		@ frame_needed = 0, uses_anonymous_args = 0
 160 0000 00B5     		push	{lr}
 161              		.cfi_def_cfa_offset 4
 162              		.cfi_offset 14, -4
 163 0002 85B0     		sub	sp, sp, #20
 164              		.cfi_def_cfa_offset 24
 165 0004 0190     		str	r0, [sp, #4]
 166 0006 0091     		str	r1, [sp]
 167              		.loc 1 133 0
 168 0008 009B     		ldr	r3, [sp]
 169 000a 002B     		cmp	r3, #0
 170 000c 02D1     		bne	.L9
 171              		.loc 1 134 0
ARM GAS  /tmp/ccITYBx4.s 			page 4


 172 000e 48F20503 		movw	r3, #32773
 173 0012 4CE0     		b	.L10
 174              	.L9:
 175              		.loc 1 135 0
 176 0014 019B     		ldr	r3, [sp, #4]
 177 0016 009A     		ldr	r2, [sp]
 178 0018 DA60     		str	r2, [r3, #12]
 179              		.loc 1 136 0
 180 001a 019B     		ldr	r3, [sp, #4]
 181 001c 4FF6FF72 		movw	r2, #65535
 182 0020 9A80     		strh	r2, [r3, #4]	@ movhi
 183              		.loc 1 137 0
 184 0022 019B     		ldr	r3, [sp, #4]
 185 0024 244A     		ldr	r2, .L16
 186 0026 1A61     		str	r2, [r3, #16]
 187 0028 22E0     		b	.L11
 188              	.L15:
 189              		.loc 1 138 0
 190 002a 019B     		ldr	r3, [sp, #4]
 191 002c 1B69     		ldr	r3, [r3, #16]
 192 002e 1B68     		ldr	r3, [r3]
 193 0030 0198     		ldr	r0, [sp, #4]
 194 0032 9847     		blx	r3
 195 0034 0346     		mov	r3, r0
 196 0036 ADF80E30 		strh	r3, [sp, #14]	@ movhi
 197              		.loc 1 139 0
 198 003a BDF80E30 		ldrh	r3, [sp, #14]
 199 003e 48F20102 		movw	r2, #32769
 200 0042 9342     		cmp	r3, r2
 201 0044 08D0     		beq	.L12
 202              		.loc 1 140 0
 203 0046 BDF80E30 		ldrh	r3, [sp, #14]
 204 004a 1BB2     		sxth	r3, r3
 205 004c 002B     		cmp	r3, #0
 206 004e 00DA     		bge	.L13
 207              		.loc 1 141 0
 208 0050 1AE0     		b	.L14
 209              	.L13:
 210              		.loc 1 144 0
 211 0052 BDF80E30 		ldrh	r3, [sp, #14]
 212 0056 2AE0     		b	.L10
 213              	.L12:
 214              		.loc 1 148 0 discriminator 2
 215 0058 019B     		ldr	r3, [sp, #4]
 216 005a DB68     		ldr	r3, [r3, #12]
 217 005c 1846     		mov	r0, r3
 218 005e 0021     		movs	r1, #0
 219 0060 FFF7FEFF 		bl	gfileSetPos
 220              		.loc 1 137 0 discriminator 2
 221 0064 019B     		ldr	r3, [sp, #4]
 222 0066 1B69     		ldr	r3, [r3, #16]
 223 0068 03F11402 		add	r2, r3, #20
 224 006c 019B     		ldr	r3, [sp, #4]
 225 006e 1A61     		str	r2, [r3, #16]
 226              	.L11:
 227              		.loc 1 137 0 is_stmt 0 discriminator 1
 228 0070 019B     		ldr	r3, [sp, #4]
ARM GAS  /tmp/ccITYBx4.s 			page 5


 229 0072 1B69     		ldr	r3, [r3, #16]
 230 0074 114A     		ldr	r2, .L16+4
 231 0076 9342     		cmp	r3, r2
 232 0078 D7D3     		bcc	.L15
 233              		.loc 1 151 0 is_stmt 1
 234 007a 48F20103 		movw	r3, #32769
 235 007e ADF80E30 		strh	r3, [sp, #14]	@ movhi
 236              		.loc 1 152 0
 237 0082 019B     		ldr	r3, [sp, #4]
 238 0084 0022     		movs	r2, #0
 239 0086 1A80     		strh	r2, [r3]	@ movhi
 240              	.L14:
 241              		.loc 1 155 0
 242 0088 019B     		ldr	r3, [sp, #4]
 243 008a DB68     		ldr	r3, [r3, #12]
 244 008c 1846     		mov	r0, r3
 245 008e FFF7FEFF 		bl	gfileClose
 246              		.loc 1 156 0
 247 0092 019B     		ldr	r3, [sp, #4]
 248 0094 0022     		movs	r2, #0
 249 0096 DA60     		str	r2, [r3, #12]
 250              		.loc 1 157 0
 251 0098 019B     		ldr	r3, [sp, #4]
 252 009a 0022     		movs	r2, #0
 253 009c 5A80     		strh	r2, [r3, #2]	@ movhi
 254              		.loc 1 158 0
 255 009e 019B     		ldr	r3, [sp, #4]
 256 00a0 0022     		movs	r2, #0
 257 00a2 1A61     		str	r2, [r3, #16]
 258              		.loc 1 159 0
 259 00a4 019B     		ldr	r3, [sp, #4]
 260 00a6 0022     		movs	r2, #0
 261 00a8 5A61     		str	r2, [r3, #20]
 262              		.loc 1 160 0
 263 00aa BDF80E30 		ldrh	r3, [sp, #14]
 264              	.L10:
 265              		.loc 1 161 0
 266 00ae 1846     		mov	r0, r3
 267 00b0 05B0     		add	sp, sp, #20
 268              		.cfi_def_cfa_offset 4
 269              		@ sp needed
 270 00b2 5DF804FB 		ldr	pc, [sp], #4
 271              	.L17:
 272 00b6 00BF     		.align	2
 273              	.L16:
 274 00b8 00000000 		.word	ImageHandlers
 275 00bc 14000000 		.word	ImageHandlers+20
 276              		.cfi_endproc
 277              	.LFE114:
 278              		.size	gdispImageOpenGFile, .-gdispImageOpenGFile
 279              		.section	.text.gdispImageClose,"ax",%progbits
 280              		.align	2
 281              		.p2align 4,,15
 282              		.global	gdispImageClose
 283              		.thumb
 284              		.thumb_func
 285              		.type	gdispImageClose, %function
ARM GAS  /tmp/ccITYBx4.s 			page 6


 286              	gdispImageClose:
 287              	.LFB115:
 288              		.loc 1 163 0
 289              		.cfi_startproc
 290              		@ args = 0, pretend = 0, frame = 8
 291              		@ frame_needed = 0, uses_anonymous_args = 0
 292 0000 00B5     		push	{lr}
 293              		.cfi_def_cfa_offset 4
 294              		.cfi_offset 14, -4
 295 0002 83B0     		sub	sp, sp, #12
 296              		.cfi_def_cfa_offset 16
 297 0004 0190     		str	r0, [sp, #4]
 298              		.loc 1 164 0
 299 0006 019B     		ldr	r3, [sp, #4]
 300 0008 1B69     		ldr	r3, [r3, #16]
 301 000a 002B     		cmp	r3, #0
 302 000c 04D0     		beq	.L19
 303              		.loc 1 165 0
 304 000e 019B     		ldr	r3, [sp, #4]
 305 0010 1B69     		ldr	r3, [r3, #16]
 306 0012 5B68     		ldr	r3, [r3, #4]
 307 0014 0198     		ldr	r0, [sp, #4]
 308 0016 9847     		blx	r3
 309              	.L19:
 310              		.loc 1 166 0
 311 0018 019B     		ldr	r3, [sp, #4]
 312 001a DB68     		ldr	r3, [r3, #12]
 313 001c 1846     		mov	r0, r3
 314 001e FFF7FEFF 		bl	gfileClose
 315              		.loc 1 167 0
 316 0022 019B     		ldr	r3, [sp, #4]
 317 0024 0022     		movs	r2, #0
 318 0026 1A80     		strh	r2, [r3]	@ movhi
 319              		.loc 1 168 0
 320 0028 019B     		ldr	r3, [sp, #4]
 321 002a 0022     		movs	r2, #0
 322 002c 5A80     		strh	r2, [r3, #2]	@ movhi
 323              		.loc 1 169 0
 324 002e 019B     		ldr	r3, [sp, #4]
 325 0030 0022     		movs	r2, #0
 326 0032 1A61     		str	r2, [r3, #16]
 327              		.loc 1 170 0
 328 0034 019B     		ldr	r3, [sp, #4]
 329 0036 0022     		movs	r2, #0
 330 0038 5A61     		str	r2, [r3, #20]
 331              		.loc 1 171 0
 332 003a 03B0     		add	sp, sp, #12
 333              		.cfi_def_cfa_offset 4
 334              		@ sp needed
 335 003c 5DF804FB 		ldr	pc, [sp], #4
 336              		.cfi_endproc
 337              	.LFE115:
 338              		.size	gdispImageClose, .-gdispImageClose
 339              		.section	.text.gdispImageIsOpen,"ax",%progbits
 340              		.align	2
 341              		.p2align 4,,15
 342              		.global	gdispImageIsOpen
ARM GAS  /tmp/ccITYBx4.s 			page 7


 343              		.thumb
 344              		.thumb_func
 345              		.type	gdispImageIsOpen, %function
 346              	gdispImageIsOpen:
 347              	.LFB116:
 348              		.loc 1 173 0
 349              		.cfi_startproc
 350              		@ args = 0, pretend = 0, frame = 8
 351              		@ frame_needed = 0, uses_anonymous_args = 0
 352              		@ link register save eliminated.
 353 0000 82B0     		sub	sp, sp, #8
 354              		.cfi_def_cfa_offset 8
 355 0002 0190     		str	r0, [sp, #4]
 356              		.loc 1 174 0
 357 0004 019B     		ldr	r3, [sp, #4]
 358 0006 1B88     		ldrh	r3, [r3]
 359 0008 002B     		cmp	r3, #0
 360 000a 05D0     		beq	.L21
 361              		.loc 1 174 0 is_stmt 0 discriminator 1
 362 000c 019B     		ldr	r3, [sp, #4]
 363 000e 1B69     		ldr	r3, [r3, #16]
 364 0010 002B     		cmp	r3, #0
 365 0012 01D0     		beq	.L21
 366              		.loc 1 174 0 discriminator 3
 367 0014 0123     		movs	r3, #1
 368 0016 00E0     		b	.L22
 369              	.L21:
 370              		.loc 1 174 0 discriminator 4
 371 0018 0023     		movs	r3, #0
 372              	.L22:
 373              		.loc 1 174 0 discriminator 6
 374 001a 03F00103 		and	r3, r3, #1
 375 001e DBB2     		uxtb	r3, r3
 376              		.loc 1 175 0 is_stmt 1 discriminator 6
 377 0020 1846     		mov	r0, r3
 378 0022 02B0     		add	sp, sp, #8
 379              		.cfi_def_cfa_offset 0
 380              		@ sp needed
 381 0024 7047     		bx	lr
 382              		.cfi_endproc
 383              	.LFE116:
 384              		.size	gdispImageIsOpen, .-gdispImageIsOpen
 385 0026 00BFAFF3 		.section	.text.gdispImageSetBgColor,"ax",%progbits
 385      0080AFF3 
 385      0080
 386              		.align	2
 387              		.p2align 4,,15
 388              		.global	gdispImageSetBgColor
 389              		.thumb
 390              		.thumb_func
 391              		.type	gdispImageSetBgColor, %function
 392              	gdispImageSetBgColor:
 393              	.LFB117:
 394              		.loc 1 177 0
 395              		.cfi_startproc
 396              		@ args = 0, pretend = 0, frame = 8
 397              		@ frame_needed = 0, uses_anonymous_args = 0
ARM GAS  /tmp/ccITYBx4.s 			page 8


 398              		@ link register save eliminated.
 399 0000 82B0     		sub	sp, sp, #8
 400              		.cfi_def_cfa_offset 8
 401 0002 0190     		str	r0, [sp, #4]
 402 0004 0B46     		mov	r3, r1
 403 0006 ADF80230 		strh	r3, [sp, #2]	@ movhi
 404              		.loc 1 178 0
 405 000a 019B     		ldr	r3, [sp, #4]
 406 000c BDF80220 		ldrh	r2, [sp, #2]	@ movhi
 407 0010 9A80     		strh	r2, [r3, #4]	@ movhi
 408              		.loc 1 179 0
 409 0012 02B0     		add	sp, sp, #8
 410              		.cfi_def_cfa_offset 0
 411              		@ sp needed
 412 0014 7047     		bx	lr
 413              		.cfi_endproc
 414              	.LFE117:
 415              		.size	gdispImageSetBgColor, .-gdispImageSetBgColor
 416 0016 00BFAFF3 		.section	.text.gdispImageCache,"ax",%progbits
 416      0080AFF3 
 416      0080
 417              		.align	2
 418              		.p2align 4,,15
 419              		.global	gdispImageCache
 420              		.thumb
 421              		.thumb_func
 422              		.type	gdispImageCache, %function
 423              	gdispImageCache:
 424              	.LFB118:
 425              		.loc 1 181 0
 426              		.cfi_startproc
 427              		@ args = 0, pretend = 0, frame = 8
 428              		@ frame_needed = 0, uses_anonymous_args = 0
 429 0000 00B5     		push	{lr}
 430              		.cfi_def_cfa_offset 4
 431              		.cfi_offset 14, -4
 432 0002 83B0     		sub	sp, sp, #12
 433              		.cfi_def_cfa_offset 16
 434 0004 0190     		str	r0, [sp, #4]
 435              		.loc 1 182 0
 436 0006 019B     		ldr	r3, [sp, #4]
 437 0008 1B69     		ldr	r3, [r3, #16]
 438 000a 002B     		cmp	r3, #0
 439 000c 02D1     		bne	.L26
 440              		.loc 1 182 0 is_stmt 0 discriminator 1
 441 000e 48F20103 		movw	r3, #32769
 442 0012 05E0     		b	.L27
 443              	.L26:
 444              		.loc 1 183 0 is_stmt 1
 445 0014 019B     		ldr	r3, [sp, #4]
 446 0016 1B69     		ldr	r3, [r3, #16]
 447 0018 9B68     		ldr	r3, [r3, #8]
 448 001a 0198     		ldr	r0, [sp, #4]
 449 001c 9847     		blx	r3
 450 001e 0346     		mov	r3, r0
 451              	.L27:
 452              		.loc 1 184 0
ARM GAS  /tmp/ccITYBx4.s 			page 9


 453 0020 1846     		mov	r0, r3
 454 0022 03B0     		add	sp, sp, #12
 455              		.cfi_def_cfa_offset 4
 456              		@ sp needed
 457 0024 5DF804FB 		ldr	pc, [sp], #4
 458              		.cfi_endproc
 459              	.LFE118:
 460              		.size	gdispImageCache, .-gdispImageCache
 461 0028 AFF30080 		.section	.text.gdispGImageDraw,"ax",%progbits
 461      AFF30080 
 462              		.align	2
 463              		.p2align 4,,15
 464              		.global	gdispGImageDraw
 465              		.thumb
 466              		.thumb_func
 467              		.type	gdispGImageDraw, %function
 468              	gdispGImageDraw:
 469              	.LFB119:
 470              		.loc 1 186 0
 471              		.cfi_startproc
 472              		@ args = 16, pretend = 0, frame = 16
 473              		@ frame_needed = 0, uses_anonymous_args = 0
 474 0000 30B5     		push	{r4, r5, lr}
 475              		.cfi_def_cfa_offset 12
 476              		.cfi_offset 4, -12
 477              		.cfi_offset 5, -8
 478              		.cfi_offset 14, -4
 479 0002 89B0     		sub	sp, sp, #36
 480              		.cfi_def_cfa_offset 48
 481 0004 0790     		str	r0, [sp, #28]
 482 0006 0691     		str	r1, [sp, #24]
 483 0008 1146     		mov	r1, r2
 484 000a 1A46     		mov	r2, r3
 485 000c 0B46     		mov	r3, r1	@ movhi
 486 000e ADF81630 		strh	r3, [sp, #22]	@ movhi
 487 0012 1346     		mov	r3, r2	@ movhi
 488 0014 ADF81430 		strh	r3, [sp, #20]	@ movhi
 489              		.loc 1 187 0
 490 0018 069B     		ldr	r3, [sp, #24]
 491 001a 1B69     		ldr	r3, [r3, #16]
 492 001c 002B     		cmp	r3, #0
 493 001e 02D1     		bne	.L29
 494              		.loc 1 187 0 is_stmt 0 discriminator 1
 495 0020 48F20103 		movw	r3, #32769
 496 0024 17E0     		b	.L30
 497              	.L29:
 498              		.loc 1 188 0 is_stmt 1
 499 0026 069B     		ldr	r3, [sp, #24]
 500 0028 1B69     		ldr	r3, [r3, #16]
 501 002a DC68     		ldr	r4, [r3, #12]
 502 002c BDF91620 		ldrsh	r2, [sp, #22]
 503 0030 BDF91450 		ldrsh	r5, [sp, #20]
 504 0034 BDF93030 		ldrsh	r3, [sp, #48]
 505 0038 0093     		str	r3, [sp]
 506 003a BDF93430 		ldrsh	r3, [sp, #52]
 507 003e 0193     		str	r3, [sp, #4]
 508 0040 BDF93830 		ldrsh	r3, [sp, #56]
ARM GAS  /tmp/ccITYBx4.s 			page 10


 509 0044 0293     		str	r3, [sp, #8]
 510 0046 BDF93C30 		ldrsh	r3, [sp, #60]
 511 004a 0393     		str	r3, [sp, #12]
 512 004c 0798     		ldr	r0, [sp, #28]
 513 004e 0699     		ldr	r1, [sp, #24]
 514 0050 2B46     		mov	r3, r5
 515 0052 A047     		blx	r4
 516 0054 0346     		mov	r3, r0
 517              	.L30:
 518              		.loc 1 189 0
 519 0056 1846     		mov	r0, r3
 520 0058 09B0     		add	sp, sp, #36
 521              		.cfi_def_cfa_offset 12
 522              		@ sp needed
 523 005a 30BD     		pop	{r4, r5, pc}
 524              		.cfi_endproc
 525              	.LFE119:
 526              		.size	gdispGImageDraw, .-gdispGImageDraw
 527 005c AFF30080 		.section	.text.gdispImageNext,"ax",%progbits
 528              		.align	2
 529              		.p2align 4,,15
 530              		.global	gdispImageNext
 531              		.thumb
 532              		.thumb_func
 533              		.type	gdispImageNext, %function
 534              	gdispImageNext:
 535              	.LFB120:
 536              		.loc 1 191 0
 537              		.cfi_startproc
 538              		@ args = 0, pretend = 0, frame = 8
 539              		@ frame_needed = 0, uses_anonymous_args = 0
 540 0000 00B5     		push	{lr}
 541              		.cfi_def_cfa_offset 4
 542              		.cfi_offset 14, -4
 543 0002 83B0     		sub	sp, sp, #12
 544              		.cfi_def_cfa_offset 16
 545 0004 0190     		str	r0, [sp, #4]
 546              		.loc 1 192 0
 547 0006 019B     		ldr	r3, [sp, #4]
 548 0008 1B69     		ldr	r3, [r3, #16]
 549 000a 002B     		cmp	r3, #0
 550 000c 02D1     		bne	.L32
 551              		.loc 1 192 0 is_stmt 0 discriminator 1
 552 000e 48F20103 		movw	r3, #32769
 553 0012 05E0     		b	.L33
 554              	.L32:
 555              		.loc 1 193 0 is_stmt 1
 556 0014 019B     		ldr	r3, [sp, #4]
 557 0016 1B69     		ldr	r3, [r3, #16]
 558 0018 1B69     		ldr	r3, [r3, #16]
 559 001a 0198     		ldr	r0, [sp, #4]
 560 001c 9847     		blx	r3
 561 001e 0346     		mov	r3, r0
 562              	.L33:
 563              		.loc 1 194 0
 564 0020 1846     		mov	r0, r3
 565 0022 03B0     		add	sp, sp, #12
ARM GAS  /tmp/ccITYBx4.s 			page 11


 566              		.cfi_def_cfa_offset 4
 567              		@ sp needed
 568 0024 5DF804FB 		ldr	pc, [sp], #4
 569              		.cfi_endproc
 570              	.LFE120:
 571              		.size	gdispImageNext, .-gdispImageNext
 572 0028 AFF30080 		.section	.text.gdispImageAlloc,"ax",%progbits
 572      AFF30080 
 573              		.align	2
 574              		.p2align 4,,15
 575              		.global	gdispImageAlloc
 576              		.thumb
 577              		.thumb_func
 578              		.type	gdispImageAlloc, %function
 579              	gdispImageAlloc:
 580              	.LFB121:
 581              		.loc 1 197 0
 582              		.cfi_startproc
 583              		@ args = 0, pretend = 0, frame = 8
 584              		@ frame_needed = 0, uses_anonymous_args = 0
 585 0000 00B5     		push	{lr}
 586              		.cfi_def_cfa_offset 4
 587              		.cfi_offset 14, -4
 588 0002 83B0     		sub	sp, sp, #12
 589              		.cfi_def_cfa_offset 16
 590 0004 0190     		str	r0, [sp, #4]
 591 0006 0091     		str	r1, [sp]
 592              		.loc 1 210 0
 593 0008 0020     		movs	r0, #0
 594 000a 0099     		ldr	r1, [sp]
 595 000c FFF7FEFF 		bl	chHeapAlloc
 596 0010 0346     		mov	r3, r0
 597              		.loc 1 212 0
 598 0012 1846     		mov	r0, r3
 599 0014 03B0     		add	sp, sp, #12
 600              		.cfi_def_cfa_offset 4
 601              		@ sp needed
 602 0016 5DF804FB 		ldr	pc, [sp], #4
 603              		.cfi_endproc
 604              	.LFE121:
 605              		.size	gdispImageAlloc, .-gdispImageAlloc
 606 001a 00BFAFF3 		.section	.text.gdispImageFree,"ax",%progbits
 606      0080
 607              		.align	2
 608              		.p2align 4,,15
 609              		.global	gdispImageFree
 610              		.thumb
 611              		.thumb_func
 612              		.type	gdispImageFree, %function
 613              	gdispImageFree:
 614              	.LFB122:
 615              		.loc 1 214 0
 616              		.cfi_startproc
 617              		@ args = 0, pretend = 0, frame = 16
 618              		@ frame_needed = 0, uses_anonymous_args = 0
 619 0000 00B5     		push	{lr}
 620              		.cfi_def_cfa_offset 4
ARM GAS  /tmp/ccITYBx4.s 			page 12


 621              		.cfi_offset 14, -4
 622 0002 85B0     		sub	sp, sp, #20
 623              		.cfi_def_cfa_offset 24
 624 0004 0390     		str	r0, [sp, #12]
 625 0006 0291     		str	r1, [sp, #8]
 626 0008 0192     		str	r2, [sp, #4]
 627              		.loc 1 221 0
 628 000a 0298     		ldr	r0, [sp, #8]
 629 000c FFF7FEFF 		bl	chHeapFree
 630              		.loc 1 223 0
 631 0010 05B0     		add	sp, sp, #20
 632              		.cfi_def_cfa_offset 4
 633              		@ sp needed
 634 0012 5DF804FB 		ldr	pc, [sp], #4
 635              		.cfi_endproc
 636              	.LFE122:
 637              		.size	gdispImageFree, .-gdispImageFree
 638 0016 00BFAFF3 		.text
 638      0080AFF3 
 638      0080
 639              	.Letext0:
 640              		.file 2 "/opt/gcc-arm-none-eabi/lib/gcc/arm-none-eabi/4.9.3/include/stddef.h"
 641              		.file 3 "/opt/gcc-arm-none-eabi/arm-none-eabi/include/machine/_default_types.h"
 642              		.file 4 "/opt/gcc-arm-none-eabi/arm-none-eabi/include/stdint.h"
 643              		.file 5 "/home/makkmarci/workspace/ChibiOS_2.6.8/os/ports/GCC/ARMCMx/chtypes.h"
 644              		.file 6 "/home/makkmarci/workspace/ugfx/src/gos/gos_chibios.h"
 645              		.file 7 "/home/makkmarci/workspace/ugfx/src/gfile/gfile.h"
 646              		.file 8 "/home/makkmarci/workspace/ugfx/src/gdisp/gdisp.h"
 647              		.file 9 "/home/makkmarci/workspace/ugfx/src/gdisp/gdisp_colors.h"
 648              		.file 10 "/home/makkmarci/workspace/ugfx/src/gdisp/gdisp_image.h"
 649              		.file 11 "/home/makkmarci/workspace/ChibiOS_2.6.8/os/ports/common/ARMCMx/CMSIS/include/core_cm4.h"