ARM GAS  /tmp/cca9Q4lc.s 			page 1


   1              		.syntax unified
   2              		.cpu cortex-m4
   3              		.eabi_attribute 27, 1
   4              		.eabi_attribute 28, 1
   5              		.fpu fpv4-sp-d16
   6              		.eabi_attribute 20, 1
   7              		.eabi_attribute 21, 1
   8              		.eabi_attribute 23, 3
   9              		.eabi_attribute 24, 1
  10              		.eabi_attribute 25, 1
  11              		.eabi_attribute 26, 1
  12              		.eabi_attribute 30, 6
  13              		.eabi_attribute 34, 1
  14              		.eabi_attribute 18, 4
  15              		.thumb
  16              		.file	"gdisp_image_bmp.c"
  17              		.text
  18              	.Ltext0:
  19              		.cfi_sections	.debug_frame
  20              		.section	.rodata.dwordOrder,"a",%progbits
  21              		.align	2
  22              		.type	dwordOrder, %object
  23              		.size	dwordOrder, 4
  24              	dwordOrder:
  25 0000 01       		.byte	1
  26 0001 02       		.byte	2
  27 0002 03       		.byte	3
  28 0003 04       		.byte	4
  29              		.section	.text.gdispImageClose_BMP,"ax",%progbits
  30              		.align	2
  31              		.p2align 4,,15
  32              		.global	gdispImageClose_BMP
  33              		.thumb
  34              		.thumb_func
  35              		.type	gdispImageClose_BMP, %function
  36              	gdispImageClose_BMP:
  37              	.LFB111:
  38              		.file 1 "/home/makkmarci/workspace/ugfx/src/gdisp/gdisp_image_bmp.c"
  39              		.loc 1 89 0
  40              		.cfi_startproc
  41              		@ args = 0, pretend = 0, frame = 8
  42              		@ frame_needed = 0, uses_anonymous_args = 0
  43 0000 00B5     		push	{lr}
  44              		.cfi_def_cfa_offset 4
  45              		.cfi_offset 14, -4
  46 0002 83B0     		sub	sp, sp, #12
  47              		.cfi_def_cfa_offset 16
  48 0004 0190     		str	r0, [sp, #4]
  49              		.loc 1 90 0
  50 0006 019B     		ldr	r3, [sp, #4]
  51 0008 5B69     		ldr	r3, [r3, #20]
  52 000a 002B     		cmp	r3, #0
  53 000c 2FD0     		beq	.L1
  54              		.loc 1 92 0
  55 000e 019B     		ldr	r3, [sp, #4]
  56 0010 5B69     		ldr	r3, [r3, #20]
  57 0012 5B68     		ldr	r3, [r3, #4]
ARM GAS  /tmp/cca9Q4lc.s 			page 2


  58 0014 002B     		cmp	r3, #0
  59 0016 0BD0     		beq	.L3
  60              		.loc 1 93 0
  61 0018 019B     		ldr	r3, [sp, #4]
  62 001a 5B69     		ldr	r3, [r3, #20]
  63 001c 5A68     		ldr	r2, [r3, #4]
  64 001e 019B     		ldr	r3, [sp, #4]
  65 0020 5B69     		ldr	r3, [r3, #20]
  66 0022 5B88     		ldrh	r3, [r3, #2]
  67 0024 5B00     		lsls	r3, r3, #1
  68 0026 0198     		ldr	r0, [sp, #4]
  69 0028 1146     		mov	r1, r2
  70 002a 1A46     		mov	r2, r3
  71 002c FFF7FEFF 		bl	gdispImageFree
  72              	.L3:
  73              		.loc 1 95 0
  74 0030 019B     		ldr	r3, [sp, #4]
  75 0032 5B69     		ldr	r3, [r3, #20]
  76 0034 5B6A     		ldr	r3, [r3, #36]
  77 0036 002B     		cmp	r3, #0
  78 0038 0FD0     		beq	.L4
  79              		.loc 1 96 0
  80 003a 019B     		ldr	r3, [sp, #4]
  81 003c 5B69     		ldr	r3, [r3, #20]
  82 003e 596A     		ldr	r1, [r3, #36]
  83 0040 019B     		ldr	r3, [sp, #4]
  84 0042 DB88     		ldrh	r3, [r3, #6]
  85 0044 1BB2     		sxth	r3, r3
  86 0046 019A     		ldr	r2, [sp, #4]
  87 0048 1289     		ldrh	r2, [r2, #8]
  88 004a 12B2     		sxth	r2, r2
  89 004c 02FB03F3 		mul	r3, r2, r3
  90 0050 5B00     		lsls	r3, r3, #1
  91 0052 0198     		ldr	r0, [sp, #4]
  92 0054 1A46     		mov	r2, r3
  93 0056 FFF7FEFF 		bl	gdispImageFree
  94              	.L4:
  95              		.loc 1 97 0
  96 005a 019B     		ldr	r3, [sp, #4]
  97 005c 5B69     		ldr	r3, [r3, #20]
  98 005e 0198     		ldr	r0, [sp, #4]
  99 0060 1946     		mov	r1, r3
 100 0062 6822     		movs	r2, #104
 101 0064 FFF7FEFF 		bl	gdispImageFree
 102              		.loc 1 98 0
 103 0068 019B     		ldr	r3, [sp, #4]
 104 006a 0022     		movs	r2, #0
 105 006c 5A61     		str	r2, [r3, #20]
 106              	.L1:
 107              		.loc 1 100 0
 108 006e 03B0     		add	sp, sp, #12
 109              		.cfi_def_cfa_offset 4
 110              		@ sp needed
 111 0070 5DF804FB 		ldr	pc, [sp], #4
 112              		.cfi_endproc
 113              	.LFE111:
 114              		.size	gdispImageClose_BMP, .-gdispImageClose_BMP
ARM GAS  /tmp/cca9Q4lc.s 			page 3


 115 0074 AFF30080 		.section	.text.gdispImageOpen_BMP,"ax",%progbits
 115      AFF30080 
 115      AFF30080 
 116              		.align	2
 117              		.p2align 4,,15
 118              		.global	gdispImageOpen_BMP
 119              		.thumb
 120              		.thumb_func
 121              		.type	gdispImageOpen_BMP, %function
 122              	gdispImageOpen_BMP:
 123              	.LFB112:
 124              		.loc 1 102 0
 125              		.cfi_startproc
 126              		@ args = 0, pretend = 0, frame = 32
 127              		@ frame_needed = 0, uses_anonymous_args = 0
 128 0000 00B5     		push	{lr}
 129              		.cfi_def_cfa_offset 4
 130              		.cfi_offset 14, -4
 131 0002 89B0     		sub	sp, sp, #36
 132              		.cfi_def_cfa_offset 40
 133 0004 0190     		str	r0, [sp, #4]
 134              		.loc 1 110 0
 135 0006 019B     		ldr	r3, [sp, #4]
 136 0008 DA68     		ldr	r2, [r3, #12]
 137 000a 04AB     		add	r3, sp, #16
 138 000c 1046     		mov	r0, r2
 139 000e 1946     		mov	r1, r3
 140 0010 0222     		movs	r2, #2
 141 0012 FFF7FEFF 		bl	gfileRead
 142 0016 0346     		mov	r3, r0
 143 0018 022B     		cmp	r3, #2
 144 001a 02D0     		beq	.L6
 145              		.loc 1 111 0
 146 001c 48F20103 		movw	r3, #32769
 147 0020 F9E3     		b	.L90
 148              	.L6:
 149              		.loc 1 119 0
 150 0022 9DF81030 		ldrb	r3, [sp, #16]	@ zero_extendqisi2
 151 0026 422B     		cmp	r3, #66
 152 0028 03D1     		bne	.L8
 153              		.loc 1 119 0 is_stmt 0 discriminator 1
 154 002a 9DF81130 		ldrb	r3, [sp, #17]	@ zero_extendqisi2
 155 002e 4D2B     		cmp	r3, #77
 156 0030 02D0     		beq	.L9
 157              	.L8:
 158              		.loc 1 120 0 is_stmt 1
 159 0032 48F20103 		movw	r3, #32769
 160 0036 EEE3     		b	.L90
 161              	.L9:
 162              		.loc 1 123 0
 163 0038 019B     		ldr	r3, [sp, #4]
 164 003a 0022     		movs	r2, #0
 165 003c 5A80     		strh	r2, [r3, #2]	@ movhi
 166              		.loc 1 126 0
 167 003e 0198     		ldr	r0, [sp, #4]
 168 0040 6821     		movs	r1, #104
 169 0042 FFF7FEFF 		bl	gdispImageAlloc
ARM GAS  /tmp/cca9Q4lc.s 			page 4


 170 0046 0246     		mov	r2, r0
 171 0048 019B     		ldr	r3, [sp, #4]
 172 004a 5A61     		str	r2, [r3, #20]
 173 004c 019B     		ldr	r3, [sp, #4]
 174 004e 5B69     		ldr	r3, [r3, #20]
 175 0050 002B     		cmp	r3, #0
 176 0052 02D1     		bne	.L10
 177              		.loc 1 127 0
 178 0054 48F20403 		movw	r3, #32772
 179 0058 DDE3     		b	.L90
 180              	.L10:
 181              		.loc 1 130 0
 182 005a 019B     		ldr	r3, [sp, #4]
 183 005c 5B69     		ldr	r3, [r3, #20]
 184 005e 0593     		str	r3, [sp, #20]
 185              		.loc 1 131 0
 186 0060 059B     		ldr	r3, [sp, #20]
 187 0062 0022     		movs	r2, #0
 188 0064 5A62     		str	r2, [r3, #36]
 189              		.loc 1 132 0
 190 0066 059B     		ldr	r3, [sp, #20]
 191 0068 0022     		movs	r2, #0
 192 006a 1A70     		strb	r2, [r3]
 193              		.loc 1 134 0
 194 006c 059B     		ldr	r3, [sp, #20]
 195 006e 0022     		movs	r2, #0
 196 0070 5A60     		str	r2, [r3, #4]
 197              		.loc 1 138 0
 198 0072 019B     		ldr	r3, [sp, #4]
 199 0074 DA68     		ldr	r2, [r3, #12]
 200 0076 059B     		ldr	r3, [sp, #20]
 201 0078 2833     		adds	r3, r3, #40
 202 007a 1046     		mov	r0, r2
 203 007c 1946     		mov	r1, r3
 204 007e 0822     		movs	r2, #8
 205 0080 FFF7FEFF 		bl	gfileRead
 206 0084 0346     		mov	r3, r0
 207 0086 082B     		cmp	r3, #8
 208 0088 00D0     		beq	.L11
 209              		.loc 1 139 0
 210 008a B4E3     		b	.L12
 211              	.L11:
 212              		.loc 1 142 0
 213 008c 019B     		ldr	r3, [sp, #4]
 214 008e DA68     		ldr	r2, [r3, #12]
 215 0090 059B     		ldr	r3, [sp, #20]
 216 0092 2033     		adds	r3, r3, #32
 217 0094 1046     		mov	r0, r2
 218 0096 1946     		mov	r1, r3
 219 0098 0422     		movs	r2, #4
 220 009a FFF7FEFF 		bl	gfileRead
 221 009e 0346     		mov	r3, r0
 222 00a0 042B     		cmp	r3, #4
 223 00a2 00D0     		beq	.L13
 224              		.loc 1 143 0
 225 00a4 A7E3     		b	.L12
 226              	.L13:
ARM GAS  /tmp/cca9Q4lc.s 			page 5


 227              		.loc 1 149 0
 228 00a6 019B     		ldr	r3, [sp, #4]
 229 00a8 DA68     		ldr	r2, [r3, #12]
 230 00aa 03AB     		add	r3, sp, #12
 231 00ac 1046     		mov	r0, r2
 232 00ae 1946     		mov	r1, r3
 233 00b0 0422     		movs	r2, #4
 234 00b2 FFF7FEFF 		bl	gfileRead
 235 00b6 0346     		mov	r3, r0
 236 00b8 042B     		cmp	r3, #4
 237 00ba 00D0     		beq	.L14
 238              		.loc 1 150 0
 239 00bc 9BE3     		b	.L12
 240              	.L14:
 241              		.loc 1 152 0
 242 00be 039B     		ldr	r3, [sp, #12]
 243 00c0 0E33     		adds	r3, r3, #14
 244 00c2 0393     		str	r3, [sp, #12]
 245              		.loc 1 155 0
 246 00c4 039B     		ldr	r3, [sp, #12]
 247 00c6 1A2B     		cmp	r3, #26
 248 00c8 40F09580 		bne	.L15
 249              		.loc 1 156 0
 250 00cc 019B     		ldr	r3, [sp, #4]
 251 00ce 5B69     		ldr	r3, [r3, #20]
 252 00d0 019A     		ldr	r2, [sp, #4]
 253 00d2 5269     		ldr	r2, [r2, #20]
 254 00d4 1278     		ldrb	r2, [r2]	@ zero_extendqisi2
 255 00d6 42F00102 		orr	r2, r2, #1
 256 00da D2B2     		uxtb	r2, r2
 257 00dc 1A70     		strb	r2, [r3]
 258              		.loc 1 159 0
 259 00de 019B     		ldr	r3, [sp, #4]
 260 00e0 DA68     		ldr	r2, [r3, #12]
 261 00e2 059B     		ldr	r3, [sp, #20]
 262 00e4 2833     		adds	r3, r3, #40
 263 00e6 1046     		mov	r0, r2
 264 00e8 1946     		mov	r1, r3
 265 00ea 0822     		movs	r2, #8
 266 00ec FFF7FEFF 		bl	gfileRead
 267 00f0 0346     		mov	r3, r0
 268 00f2 082B     		cmp	r3, #8
 269 00f4 00D0     		beq	.L16
 270              		.loc 1 160 0
 271 00f6 7EE3     		b	.L12
 272              	.L16:
 273              		.loc 1 162 0
 274 00f8 059B     		ldr	r3, [sp, #20]
 275 00fa 2833     		adds	r3, r3, #40
 276 00fc 1B88     		ldrh	r3, [r3]
 277 00fe 9AB2     		uxth	r2, r3
 278 0100 019B     		ldr	r3, [sp, #4]
 279 0102 DA80     		strh	r2, [r3, #6]	@ movhi
 280              		.loc 1 165 0
 281 0104 059B     		ldr	r3, [sp, #20]
 282 0106 2A33     		adds	r3, r3, #42
 283 0108 1B88     		ldrh	r3, [r3]
ARM GAS  /tmp/cca9Q4lc.s 			page 6


 284 010a 9AB2     		uxth	r2, r3
 285 010c 019B     		ldr	r3, [sp, #4]
 286 010e 1A81     		strh	r2, [r3, #8]	@ movhi
 287              		.loc 1 167 0
 288 0110 019B     		ldr	r3, [sp, #4]
 289 0112 1B89     		ldrh	r3, [r3, #8]
 290 0114 1BB2     		sxth	r3, r3
 291 0116 002B     		cmp	r3, #0
 292 0118 10DA     		bge	.L17
 293              		.loc 1 168 0
 294 011a 019B     		ldr	r3, [sp, #4]
 295 011c 5B69     		ldr	r3, [r3, #20]
 296 011e 019A     		ldr	r2, [sp, #4]
 297 0120 5269     		ldr	r2, [r2, #20]
 298 0122 1278     		ldrb	r2, [r2]	@ zero_extendqisi2
 299 0124 62F07F02 		orn	r2, r2, #127
 300 0128 D2B2     		uxtb	r2, r2
 301 012a 1A70     		strb	r2, [r3]
 302              		.loc 1 169 0
 303 012c 019B     		ldr	r3, [sp, #4]
 304 012e 1B89     		ldrh	r3, [r3, #8]
 305 0130 9BB2     		uxth	r3, r3
 306 0132 5B42     		negs	r3, r3
 307 0134 9BB2     		uxth	r3, r3
 308 0136 9AB2     		uxth	r2, r3
 309 0138 019B     		ldr	r3, [sp, #4]
 310 013a 1A81     		strh	r2, [r3, #8]	@ movhi
 311              	.L17:
 312              		.loc 1 172 0
 313 013c 059B     		ldr	r3, [sp, #20]
 314 013e 9B8D     		ldrh	r3, [r3, #44]	@ movhi
 315 0140 ADF81E30 		strh	r3, [sp, #30]	@ movhi
 316              		.loc 1 174 0
 317 0144 BDF81E30 		ldrh	r3, [sp, #30]
 318 0148 012B     		cmp	r3, #1
 319 014a 00D0     		beq	.L18
 320              		.loc 1 175 0
 321 014c 5EE3     		b	.L19
 322              	.L18:
 323              		.loc 1 177 0
 324 014e 059B     		ldr	r3, [sp, #20]
 325 0150 DB8D     		ldrh	r3, [r3, #46]	@ movhi
 326 0152 ADF81E30 		strh	r3, [sp, #30]	@ movhi
 327              		.loc 1 179 0
 328 0156 BDF81E30 		ldrh	r3, [sp, #30]
 329 015a 013B     		subs	r3, r3, #1
 330 015c 172B     		cmp	r3, #23
 331 015e 00F25083 		bhi	.L91
 332 0162 01A2     		adr	r2, .L22
 333 0164 52F823F0 		ldr	pc, [r2, r3, lsl #2]
 334              		.p2align 2
 335              	.L22:
 336 0168 C9010000 		.word	.L21+1
 337 016c 03080000 		.word	.L91+1
 338 0170 03080000 		.word	.L91+1
 339 0174 C9010000 		.word	.L21+1
 340 0178 03080000 		.word	.L91+1
ARM GAS  /tmp/cca9Q4lc.s 			page 7


 341 017c 03080000 		.word	.L91+1
 342 0180 03080000 		.word	.L91+1
 343 0184 C9010000 		.word	.L21+1
 344 0188 03080000 		.word	.L91+1
 345 018c 03080000 		.word	.L91+1
 346 0190 03080000 		.word	.L91+1
 347 0194 03080000 		.word	.L91+1
 348 0198 03080000 		.word	.L91+1
 349 019c 03080000 		.word	.L91+1
 350 01a0 03080000 		.word	.L91+1
 351 01a4 03080000 		.word	.L91+1
 352 01a8 03080000 		.word	.L91+1
 353 01ac 03080000 		.word	.L91+1
 354 01b0 03080000 		.word	.L91+1
 355 01b4 03080000 		.word	.L91+1
 356 01b8 03080000 		.word	.L91+1
 357 01bc 03080000 		.word	.L91+1
 358 01c0 03080000 		.word	.L91+1
 359 01c4 E9010000 		.word	.L92+1
 360              		.p2align 1
 361              	.L21:
 362              		.loc 1 190 0
 363 01c8 059B     		ldr	r3, [sp, #20]
 364 01ca 1B78     		ldrb	r3, [r3]	@ zero_extendqisi2
 365 01cc 43F00403 		orr	r3, r3, #4
 366 01d0 DAB2     		uxtb	r2, r3
 367 01d2 059B     		ldr	r3, [sp, #20]
 368 01d4 1A70     		strb	r2, [r3]
 369              		.loc 1 191 0
 370 01d6 BDF81E30 		ldrh	r3, [sp, #30]
 371 01da 0122     		movs	r2, #1
 372 01dc 02FA03F3 		lsl	r3, r2, r3
 373 01e0 9AB2     		uxth	r2, r3
 374 01e2 059B     		ldr	r3, [sp, #20]
 375 01e4 5A80     		strh	r2, [r3, #2]	@ movhi
 376              		.loc 1 192 0
 377 01e6 00E0     		b	.L24
 378              	.L92:
 379              		.loc 1 196 0
 380 01e8 00BF     		nop
 381              	.L24:
 382              		.loc 1 201 0
 383 01ea BDF81E30 		ldrh	r3, [sp, #30]	@ movhi
 384 01ee DAB2     		uxtb	r2, r3
 385 01f0 059B     		ldr	r3, [sp, #20]
 386 01f2 5A70     		strb	r2, [r3, #1]
 387 01f4 10E1     		b	.L25
 388              	.L15:
 389              		.loc 1 203 0
 390 01f6 039B     		ldr	r3, [sp, #12]
 391 01f8 352B     		cmp	r3, #53
 392 01fa 40F20C81 		bls	.L26
 393              		.loc 1 204 0
 394 01fe 039B     		ldr	r3, [sp, #12]
 395 0200 362B     		cmp	r3, #54
 396 0202 06D9     		bls	.L27
 397              		.loc 1 205 0
ARM GAS  /tmp/cca9Q4lc.s 			page 8


 398 0204 059B     		ldr	r3, [sp, #20]
 399 0206 1B78     		ldrb	r3, [r3]	@ zero_extendqisi2
 400 0208 43F00203 		orr	r3, r3, #2
 401 020c DAB2     		uxtb	r2, r3
 402 020e 059B     		ldr	r3, [sp, #20]
 403 0210 1A70     		strb	r2, [r3]
 404              	.L27:
 405              		.loc 1 208 0
 406 0212 019B     		ldr	r3, [sp, #4]
 407 0214 DA68     		ldr	r2, [r3, #12]
 408 0216 059B     		ldr	r3, [sp, #20]
 409 0218 2833     		adds	r3, r3, #40
 410 021a 1046     		mov	r0, r2
 411 021c 1946     		mov	r1, r3
 412 021e 2422     		movs	r2, #36
 413 0220 FFF7FEFF 		bl	gfileRead
 414 0224 0346     		mov	r3, r0
 415 0226 242B     		cmp	r3, #36
 416 0228 00D0     		beq	.L28
 417              		.loc 1 209 0
 418 022a E4E2     		b	.L12
 419              	.L28:
 420              		.loc 1 211 0
 421 022c 059B     		ldr	r3, [sp, #20]
 422 022e 2833     		adds	r3, r3, #40
 423 0230 1B68     		ldr	r3, [r3]
 424 0232 0693     		str	r3, [sp, #24]
 425              		.loc 1 213 0
 426 0234 069B     		ldr	r3, [sp, #24]
 427 0236 B3F5004F 		cmp	r3, #32768
 428 023a 00D9     		bls	.L29
 429              		.loc 1 214 0
 430 023c E6E2     		b	.L19
 431              	.L29:
 432              		.loc 1 215 0
 433 023e 069B     		ldr	r3, [sp, #24]
 434 0240 9AB2     		uxth	r2, r3
 435 0242 019B     		ldr	r3, [sp, #4]
 436 0244 DA80     		strh	r2, [r3, #6]	@ movhi
 437              		.loc 1 217 0
 438 0246 059B     		ldr	r3, [sp, #20]
 439 0248 2C33     		adds	r3, r3, #44
 440 024a 1B68     		ldr	r3, [r3]
 441 024c 0693     		str	r3, [sp, #24]
 442              		.loc 1 219 0
 443 024e 069B     		ldr	r3, [sp, #24]
 444 0250 002B     		cmp	r3, #0
 445 0252 09DA     		bge	.L30
 446              		.loc 1 220 0
 447 0254 059B     		ldr	r3, [sp, #20]
 448 0256 1B78     		ldrb	r3, [r3]	@ zero_extendqisi2
 449 0258 63F07F03 		orn	r3, r3, #127
 450 025c DAB2     		uxtb	r2, r3
 451 025e 059B     		ldr	r3, [sp, #20]
 452 0260 1A70     		strb	r2, [r3]
 453              		.loc 1 221 0
 454 0262 069B     		ldr	r3, [sp, #24]
ARM GAS  /tmp/cca9Q4lc.s 			page 9


 455 0264 5B42     		negs	r3, r3
 456 0266 0693     		str	r3, [sp, #24]
 457              	.L30:
 458              		.loc 1 223 0
 459 0268 069B     		ldr	r3, [sp, #24]
 460 026a B3F5004F 		cmp	r3, #32768
 461 026e 00D9     		bls	.L31
 462              		.loc 1 224 0
 463 0270 CCE2     		b	.L19
 464              	.L31:
 465              		.loc 1 225 0
 466 0272 069B     		ldr	r3, [sp, #24]
 467 0274 9AB2     		uxth	r2, r3
 468 0276 019B     		ldr	r3, [sp, #4]
 469 0278 1A81     		strh	r2, [r3, #8]	@ movhi
 470              		.loc 1 227 0
 471 027a 059B     		ldr	r3, [sp, #20]
 472 027c 1B8E     		ldrh	r3, [r3, #48]	@ movhi
 473 027e ADF81E30 		strh	r3, [sp, #30]	@ movhi
 474              		.loc 1 229 0
 475 0282 BDF81E30 		ldrh	r3, [sp, #30]
 476 0286 012B     		cmp	r3, #1
 477 0288 00D0     		beq	.L32
 478              		.loc 1 230 0
 479 028a BFE2     		b	.L19
 480              	.L32:
 481              		.loc 1 232 0
 482 028c 059B     		ldr	r3, [sp, #20]
 483 028e 5B8E     		ldrh	r3, [r3, #50]	@ movhi
 484 0290 ADF81E30 		strh	r3, [sp, #30]	@ movhi
 485              		.loc 1 234 0
 486 0294 BDF81E30 		ldrh	r3, [sp, #30]
 487 0298 013B     		subs	r3, r3, #1
 488 029a 1F2B     		cmp	r3, #31
 489 029c 00F2B382 		bhi	.L93
 490 02a0 01A2     		adr	r2, .L35
 491 02a2 52F823F0 		ldr	pc, [r2, r3, lsl #2]
 492 02a6 00BF     		.p2align 2
 493              	.L35:
 494 02a8 29030000 		.word	.L34+1
 495 02ac 07080000 		.word	.L93+1
 496 02b0 07080000 		.word	.L93+1
 497 02b4 29030000 		.word	.L34+1
 498 02b8 07080000 		.word	.L93+1
 499 02bc 07080000 		.word	.L93+1
 500 02c0 07080000 		.word	.L93+1
 501 02c4 29030000 		.word	.L34+1
 502 02c8 07080000 		.word	.L93+1
 503 02cc 07080000 		.word	.L93+1
 504 02d0 07080000 		.word	.L93+1
 505 02d4 07080000 		.word	.L93+1
 506 02d8 07080000 		.word	.L93+1
 507 02dc 07080000 		.word	.L93+1
 508 02e0 07080000 		.word	.L93+1
 509 02e4 49030000 		.word	.L94+1
 510 02e8 07080000 		.word	.L93+1
 511 02ec 07080000 		.word	.L93+1
ARM GAS  /tmp/cca9Q4lc.s 			page 10


 512 02f0 07080000 		.word	.L93+1
 513 02f4 07080000 		.word	.L93+1
 514 02f8 07080000 		.word	.L93+1
 515 02fc 07080000 		.word	.L93+1
 516 0300 07080000 		.word	.L93+1
 517 0304 49030000 		.word	.L94+1
 518 0308 07080000 		.word	.L93+1
 519 030c 07080000 		.word	.L93+1
 520 0310 07080000 		.word	.L93+1
 521 0314 07080000 		.word	.L93+1
 522 0318 07080000 		.word	.L93+1
 523 031c 07080000 		.word	.L93+1
 524 0320 07080000 		.word	.L93+1
 525 0324 49030000 		.word	.L94+1
 526              		.p2align 1
 527              	.L34:
 528              		.loc 1 245 0
 529 0328 059B     		ldr	r3, [sp, #20]
 530 032a 1B78     		ldrb	r3, [r3]	@ zero_extendqisi2
 531 032c 43F00403 		orr	r3, r3, #4
 532 0330 DAB2     		uxtb	r2, r3
 533 0332 059B     		ldr	r3, [sp, #20]
 534 0334 1A70     		strb	r2, [r3]
 535              		.loc 1 246 0
 536 0336 BDF81E30 		ldrh	r3, [sp, #30]
 537 033a 0122     		movs	r2, #1
 538 033c 02FA03F3 		lsl	r3, r2, r3
 539 0340 9AB2     		uxth	r2, r3
 540 0342 059B     		ldr	r3, [sp, #20]
 541 0344 5A80     		strh	r2, [r3, #2]	@ movhi
 542              		.loc 1 247 0
 543 0346 00E0     		b	.L37
 544              	.L94:
 545              		.loc 1 259 0
 546 0348 00BF     		nop
 547              	.L37:
 548              		.loc 1 264 0
 549 034a BDF81E30 		ldrh	r3, [sp, #30]	@ movhi
 550 034e DAB2     		uxtb	r2, r3
 551 0350 059B     		ldr	r3, [sp, #20]
 552 0352 5A70     		strb	r2, [r3, #1]
 553              		.loc 1 266 0
 554 0354 059B     		ldr	r3, [sp, #20]
 555 0356 3433     		adds	r3, r3, #52
 556 0358 1B68     		ldr	r3, [r3]
 557 035a 0693     		str	r3, [sp, #24]
 558              		.loc 1 268 0
 559 035c 069B     		ldr	r3, [sp, #24]
 560 035e 032B     		cmp	r3, #3
 561 0360 00F25382 		bhi	.L95
 562 0364 01A2     		adr	r2, .L40
 563 0366 52F823F0 		ldr	pc, [r2, r3, lsl #2]
 564 036a 00BF     		.p2align 2
 565              	.L40:
 566 036c E7030000 		.word	.L96+1
 567 0370 7D030000 		.word	.L41+1
 568 0374 97030000 		.word	.L42+1
ARM GAS  /tmp/cca9Q4lc.s 			page 11


 569 0378 B1030000 		.word	.L43+1
 570              		.p2align 1
 571              	.L41:
 572              		.loc 1 273 0
 573 037c 059B     		ldr	r3, [sp, #20]
 574 037e 5B78     		ldrb	r3, [r3, #1]	@ zero_extendqisi2
 575 0380 082B     		cmp	r3, #8
 576 0382 00D0     		beq	.L45
 577              		.loc 1 274 0
 578 0384 42E2     		b	.L19
 579              	.L45:
 580              		.loc 1 275 0
 581 0386 059B     		ldr	r3, [sp, #20]
 582 0388 1B78     		ldrb	r3, [r3]	@ zero_extendqisi2
 583 038a 43F00803 		orr	r3, r3, #8
 584 038e DAB2     		uxtb	r2, r3
 585 0390 059B     		ldr	r3, [sp, #20]
 586 0392 1A70     		strb	r2, [r3]
 587              		.loc 1 276 0
 588 0394 28E0     		b	.L44
 589              	.L42:
 590              		.loc 1 280 0
 591 0396 059B     		ldr	r3, [sp, #20]
 592 0398 5B78     		ldrb	r3, [r3, #1]	@ zero_extendqisi2
 593 039a 042B     		cmp	r3, #4
 594 039c 00D0     		beq	.L46
 595              		.loc 1 281 0
 596 039e 35E2     		b	.L19
 597              	.L46:
 598              		.loc 1 282 0
 599 03a0 059B     		ldr	r3, [sp, #20]
 600 03a2 1B78     		ldrb	r3, [r3]	@ zero_extendqisi2
 601 03a4 43F00803 		orr	r3, r3, #8
 602 03a8 DAB2     		uxtb	r2, r3
 603 03aa 059B     		ldr	r3, [sp, #20]
 604 03ac 1A70     		strb	r2, [r3]
 605              		.loc 1 283 0
 606 03ae 1BE0     		b	.L44
 607              	.L43:
 608              		.loc 1 287 0
 609 03b0 059B     		ldr	r3, [sp, #20]
 610 03b2 5B78     		ldrb	r3, [r3, #1]	@ zero_extendqisi2
 611 03b4 0F2B     		cmp	r3, #15
 612 03b6 40F22982 		bls	.L19
 613              		.loc 1 287 0 is_stmt 0 discriminator 1
 614 03ba 059B     		ldr	r3, [sp, #20]
 615 03bc 5B78     		ldrb	r3, [r3, #1]	@ zero_extendqisi2
 616 03be 182B     		cmp	r3, #24
 617 03c0 00F02482 		beq	.L19
 618              		.loc 1 289 0 is_stmt 1
 619 03c4 059B     		ldr	r3, [sp, #20]
 620 03c6 1B78     		ldrb	r3, [r3]	@ zero_extendqisi2
 621 03c8 43F01003 		orr	r3, r3, #16
 622 03cc DAB2     		uxtb	r2, r3
 623 03ce 059B     		ldr	r3, [sp, #20]
 624 03d0 1A70     		strb	r2, [r3]
 625              		.loc 1 290 0
ARM GAS  /tmp/cca9Q4lc.s 			page 12


 626 03d2 059B     		ldr	r3, [sp, #20]
 627 03d4 1B78     		ldrb	r3, [r3]	@ zero_extendqisi2
 628 03d6 03F00203 		and	r3, r3, #2
 629 03da 002B     		cmp	r3, #0
 630 03dc 02D0     		beq	.L47
 631              		.loc 1 291 0
 632 03de 3623     		movs	r3, #54
 633 03e0 0393     		str	r3, [sp, #12]
 634              		.loc 1 292 0
 635 03e2 01E0     		b	.L44
 636              	.L47:
 637 03e4 00E0     		b	.L44
 638              	.L96:
 639              		.loc 1 270 0
 640 03e6 00BF     		nop
 641              	.L44:
 642              		.loc 1 297 0
 643 03e8 BDF81E30 		ldrh	r3, [sp, #30]	@ movhi
 644 03ec DAB2     		uxtb	r2, r3
 645 03ee 059B     		ldr	r3, [sp, #20]
 646 03f0 5A70     		strb	r2, [r3, #1]
 647              		.loc 1 300 0
 648 03f2 059B     		ldr	r3, [sp, #20]
 649 03f4 4433     		adds	r3, r3, #68
 650 03f6 1B68     		ldr	r3, [r3]
 651 03f8 0693     		str	r3, [sp, #24]
 652              		.loc 1 302 0
 653 03fa 069B     		ldr	r3, [sp, #24]
 654 03fc 002B     		cmp	r3, #0
 655 03fe 0BD0     		beq	.L25
 656              		.loc 1 302 0 is_stmt 0 discriminator 1
 657 0400 059B     		ldr	r3, [sp, #20]
 658 0402 5B88     		ldrh	r3, [r3, #2]
 659 0404 1A46     		mov	r2, r3
 660 0406 069B     		ldr	r3, [sp, #24]
 661 0408 9A42     		cmp	r2, r3
 662 040a 05D9     		bls	.L25
 663              		.loc 1 303 0 is_stmt 1
 664 040c 069B     		ldr	r3, [sp, #24]
 665 040e 9AB2     		uxth	r2, r3
 666 0410 059B     		ldr	r3, [sp, #20]
 667 0412 5A80     		strh	r2, [r3, #2]	@ movhi
 668 0414 00E0     		b	.L25
 669              	.L26:
 670              		.loc 1 306 0
 671 0416 EEE1     		b	.L12
 672              	.L25:
 673              		.loc 1 310 0
 674 0418 059B     		ldr	r3, [sp, #20]
 675 041a 1B78     		ldrb	r3, [r3]	@ zero_extendqisi2
 676 041c 03F00403 		and	r3, r3, #4
 677 0420 002B     		cmp	r3, #0
 678 0422 00F09980 		beq	.L49
 679              		.loc 1 311 0
 680 0426 019B     		ldr	r3, [sp, #4]
 681 0428 DB68     		ldr	r3, [r3, #12]
 682 042a 039A     		ldr	r2, [sp, #12]
ARM GAS  /tmp/cca9Q4lc.s 			page 13


 683 042c 1846     		mov	r0, r3
 684 042e 1146     		mov	r1, r2
 685 0430 FFF7FEFF 		bl	gfileSetPos
 686              		.loc 1 313 0
 687 0434 059B     		ldr	r3, [sp, #20]
 688 0436 5B88     		ldrh	r3, [r3, #2]
 689 0438 5B00     		lsls	r3, r3, #1
 690 043a 0198     		ldr	r0, [sp, #4]
 691 043c 1946     		mov	r1, r3
 692 043e FFF7FEFF 		bl	gdispImageAlloc
 693 0442 0246     		mov	r2, r0
 694 0444 059B     		ldr	r3, [sp, #20]
 695 0446 5A60     		str	r2, [r3, #4]
 696 0448 059B     		ldr	r3, [sp, #20]
 697 044a 5B68     		ldr	r3, [r3, #4]
 698 044c 002B     		cmp	r3, #0
 699 044e 02D1     		bne	.L50
 700              		.loc 1 314 0
 701 0450 48F20403 		movw	r3, #32772
 702 0454 DFE1     		b	.L90
 703              	.L50:
 704              		.loc 1 315 0
 705 0456 059B     		ldr	r3, [sp, #20]
 706 0458 1B78     		ldrb	r3, [r3]	@ zero_extendqisi2
 707 045a 03F00103 		and	r3, r3, #1
 708 045e 002B     		cmp	r3, #0
 709 0460 3DD0     		beq	.L51
 710              		.loc 1 316 0
 711 0462 0023     		movs	r3, #0
 712 0464 ADF81E30 		strh	r3, [sp, #30]	@ movhi
 713 0468 32E0     		b	.L52
 714              	.L54:
 715              		.loc 1 317 0
 716 046a 019B     		ldr	r3, [sp, #4]
 717 046c DA68     		ldr	r2, [r3, #12]
 718 046e 059B     		ldr	r3, [sp, #20]
 719 0470 2833     		adds	r3, r3, #40
 720 0472 1046     		mov	r0, r2
 721 0474 1946     		mov	r1, r3
 722 0476 0322     		movs	r2, #3
 723 0478 FFF7FEFF 		bl	gfileRead
 724 047c 0346     		mov	r3, r0
 725 047e 032B     		cmp	r3, #3
 726 0480 00D0     		beq	.L53
 727 0482 B8E1     		b	.L12
 728              	.L53:
 729              		.loc 1 318 0 discriminator 2
 730 0484 059B     		ldr	r3, [sp, #20]
 731 0486 5A68     		ldr	r2, [r3, #4]
 732 0488 BDF81E30 		ldrh	r3, [sp, #30]
 733 048c 5B00     		lsls	r3, r3, #1
 734 048e 1344     		add	r3, r3, r2
 735 0490 059A     		ldr	r2, [sp, #20]
 736 0492 2A32     		adds	r2, r2, #42
 737 0494 1278     		ldrb	r2, [r2]	@ zero_extendqisi2
 738 0496 02F0F802 		and	r2, r2, #248
 739 049a 1202     		lsls	r2, r2, #8
ARM GAS  /tmp/cca9Q4lc.s 			page 14


 740 049c 91B2     		uxth	r1, r2
 741 049e 059A     		ldr	r2, [sp, #20]
 742 04a0 2832     		adds	r2, r2, #40
 743 04a2 0132     		adds	r2, r2, #1
 744 04a4 1278     		ldrb	r2, [r2]	@ zero_extendqisi2
 745 04a6 02F0FC02 		and	r2, r2, #252
 746 04aa D200     		lsls	r2, r2, #3
 747 04ac 92B2     		uxth	r2, r2
 748 04ae 0A43     		orrs	r2, r2, r1
 749 04b0 91B2     		uxth	r1, r2
 750 04b2 059A     		ldr	r2, [sp, #20]
 751 04b4 2832     		adds	r2, r2, #40
 752 04b6 1278     		ldrb	r2, [r2]	@ zero_extendqisi2
 753 04b8 D208     		lsrs	r2, r2, #3
 754 04ba D2B2     		uxtb	r2, r2
 755 04bc 92B2     		uxth	r2, r2
 756 04be 0A43     		orrs	r2, r2, r1
 757 04c0 92B2     		uxth	r2, r2
 758 04c2 92B2     		uxth	r2, r2
 759 04c4 1A80     		strh	r2, [r3]	@ movhi
 760              		.loc 1 316 0 discriminator 2
 761 04c6 BDF81E30 		ldrh	r3, [sp, #30]
 762 04ca 0133     		adds	r3, r3, #1
 763 04cc ADF81E30 		strh	r3, [sp, #30]	@ movhi
 764              	.L52:
 765              		.loc 1 316 0 is_stmt 0 discriminator 1
 766 04d0 059B     		ldr	r3, [sp, #20]
 767 04d2 5B88     		ldrh	r3, [r3, #2]
 768 04d4 BDF81E20 		ldrh	r2, [sp, #30]
 769 04d8 9A42     		cmp	r2, r3
 770 04da C6D3     		bcc	.L54
 771 04dc 3CE0     		b	.L49
 772              	.L51:
 773              		.loc 1 321 0 is_stmt 1
 774 04de 0023     		movs	r3, #0
 775 04e0 ADF81E30 		strh	r3, [sp, #30]	@ movhi
 776 04e4 32E0     		b	.L55
 777              	.L57:
 778              		.loc 1 322 0
 779 04e6 019B     		ldr	r3, [sp, #4]
 780 04e8 DA68     		ldr	r2, [r3, #12]
 781 04ea 059B     		ldr	r3, [sp, #20]
 782 04ec 2833     		adds	r3, r3, #40
 783 04ee 1046     		mov	r0, r2
 784 04f0 1946     		mov	r1, r3
 785 04f2 0422     		movs	r2, #4
 786 04f4 FFF7FEFF 		bl	gfileRead
 787 04f8 0346     		mov	r3, r0
 788 04fa 042B     		cmp	r3, #4
 789 04fc 00D0     		beq	.L56
 790 04fe 7AE1     		b	.L12
 791              	.L56:
 792              		.loc 1 323 0 discriminator 2
 793 0500 059B     		ldr	r3, [sp, #20]
 794 0502 5A68     		ldr	r2, [r3, #4]
 795 0504 BDF81E30 		ldrh	r3, [sp, #30]
 796 0508 5B00     		lsls	r3, r3, #1
ARM GAS  /tmp/cca9Q4lc.s 			page 15


 797 050a 1344     		add	r3, r3, r2
 798 050c 059A     		ldr	r2, [sp, #20]
 799 050e 2A32     		adds	r2, r2, #42
 800 0510 1278     		ldrb	r2, [r2]	@ zero_extendqisi2
 801 0512 02F0F802 		and	r2, r2, #248
 802 0516 1202     		lsls	r2, r2, #8
 803 0518 91B2     		uxth	r1, r2
 804 051a 059A     		ldr	r2, [sp, #20]
 805 051c 2832     		adds	r2, r2, #40
 806 051e 0132     		adds	r2, r2, #1
 807 0520 1278     		ldrb	r2, [r2]	@ zero_extendqisi2
 808 0522 02F0FC02 		and	r2, r2, #252
 809 0526 D200     		lsls	r2, r2, #3
 810 0528 92B2     		uxth	r2, r2
 811 052a 0A43     		orrs	r2, r2, r1
 812 052c 91B2     		uxth	r1, r2
 813 052e 059A     		ldr	r2, [sp, #20]
 814 0530 2832     		adds	r2, r2, #40
 815 0532 1278     		ldrb	r2, [r2]	@ zero_extendqisi2
 816 0534 D208     		lsrs	r2, r2, #3
 817 0536 D2B2     		uxtb	r2, r2
 818 0538 92B2     		uxth	r2, r2
 819 053a 0A43     		orrs	r2, r2, r1
 820 053c 92B2     		uxth	r2, r2
 821 053e 92B2     		uxth	r2, r2
 822 0540 1A80     		strh	r2, [r3]	@ movhi
 823              		.loc 1 321 0 discriminator 2
 824 0542 BDF81E30 		ldrh	r3, [sp, #30]
 825 0546 0133     		adds	r3, r3, #1
 826 0548 ADF81E30 		strh	r3, [sp, #30]	@ movhi
 827              	.L55:
 828              		.loc 1 321 0 is_stmt 0 discriminator 1
 829 054c 059B     		ldr	r3, [sp, #20]
 830 054e 5B88     		ldrh	r3, [r3, #2]
 831 0550 BDF81E20 		ldrh	r2, [sp, #30]
 832 0554 9A42     		cmp	r2, r3
 833 0556 C6D3     		bcc	.L57
 834              	.L49:
 835              		.loc 1 332 0 is_stmt 1
 836 0558 059B     		ldr	r3, [sp, #20]
 837 055a 1B78     		ldrb	r3, [r3]	@ zero_extendqisi2
 838 055c 03F01003 		and	r3, r3, #16
 839 0560 002B     		cmp	r3, #0
 840 0562 44D0     		beq	.L58
 841              		.loc 1 333 0
 842 0564 019B     		ldr	r3, [sp, #4]
 843 0566 DB68     		ldr	r3, [r3, #12]
 844 0568 039A     		ldr	r2, [sp, #12]
 845 056a 1846     		mov	r0, r3
 846 056c 1146     		mov	r1, r2
 847 056e FFF7FEFF 		bl	gfileSetPos
 848              		.loc 1 334 0
 849 0572 019B     		ldr	r3, [sp, #4]
 850 0574 DA68     		ldr	r2, [r3, #12]
 851 0576 059B     		ldr	r3, [sp, #20]
 852 0578 1033     		adds	r3, r3, #16
 853 057a 1046     		mov	r0, r2
ARM GAS  /tmp/cca9Q4lc.s 			page 16


 854 057c 1946     		mov	r1, r3
 855 057e 0422     		movs	r2, #4
 856 0580 FFF7FEFF 		bl	gfileRead
 857 0584 0346     		mov	r3, r0
 858 0586 042B     		cmp	r3, #4
 859 0588 00D0     		beq	.L59
 860 058a 34E1     		b	.L12
 861              	.L59:
 862              		.loc 1 336 0
 863 058c 019B     		ldr	r3, [sp, #4]
 864 058e DA68     		ldr	r2, [r3, #12]
 865 0590 059B     		ldr	r3, [sp, #20]
 866 0592 1433     		adds	r3, r3, #20
 867 0594 1046     		mov	r0, r2
 868 0596 1946     		mov	r1, r3
 869 0598 0422     		movs	r2, #4
 870 059a FFF7FEFF 		bl	gfileRead
 871 059e 0346     		mov	r3, r0
 872 05a0 042B     		cmp	r3, #4
 873 05a2 00D0     		beq	.L60
 874 05a4 27E1     		b	.L12
 875              	.L60:
 876              		.loc 1 338 0
 877 05a6 019B     		ldr	r3, [sp, #4]
 878 05a8 DA68     		ldr	r2, [r3, #12]
 879 05aa 059B     		ldr	r3, [sp, #20]
 880 05ac 1833     		adds	r3, r3, #24
 881 05ae 1046     		mov	r0, r2
 882 05b0 1946     		mov	r1, r3
 883 05b2 0422     		movs	r2, #4
 884 05b4 FFF7FEFF 		bl	gfileRead
 885 05b8 0346     		mov	r3, r0
 886 05ba 042B     		cmp	r3, #4
 887 05bc 00D0     		beq	.L61
 888 05be 1AE1     		b	.L12
 889              	.L61:
 890              		.loc 1 340 0
 891 05c0 059B     		ldr	r3, [sp, #20]
 892 05c2 1B78     		ldrb	r3, [r3]	@ zero_extendqisi2
 893 05c4 03F00203 		and	r3, r3, #2
 894 05c8 002B     		cmp	r3, #0
 895 05ca 0CD0     		beq	.L62
 896              		.loc 1 341 0
 897 05cc 019B     		ldr	r3, [sp, #4]
 898 05ce DA68     		ldr	r2, [r3, #12]
 899 05d0 059B     		ldr	r3, [sp, #20]
 900 05d2 1C33     		adds	r3, r3, #28
 901 05d4 1046     		mov	r0, r2
 902 05d6 1946     		mov	r1, r3
 903 05d8 0422     		movs	r2, #4
 904 05da FFF7FEFF 		bl	gfileRead
 905 05de 0346     		mov	r3, r0
 906 05e0 042B     		cmp	r3, #4
 907 05e2 37D0     		beq	.L64
 908 05e4 07E1     		b	.L12
 909              	.L62:
 910              		.loc 1 344 0
ARM GAS  /tmp/cca9Q4lc.s 			page 17


 911 05e6 059B     		ldr	r3, [sp, #20]
 912 05e8 0022     		movs	r2, #0
 913 05ea DA61     		str	r2, [r3, #28]
 914 05ec 32E0     		b	.L64
 915              	.L58:
 916              		.loc 1 345 0
 917 05ee 059B     		ldr	r3, [sp, #20]
 918 05f0 5B78     		ldrb	r3, [r3, #1]	@ zero_extendqisi2
 919 05f2 102B     		cmp	r3, #16
 920 05f4 15D1     		bne	.L65
 921              		.loc 1 346 0
 922 05f6 059B     		ldr	r3, [sp, #20]
 923 05f8 1B78     		ldrb	r3, [r3]	@ zero_extendqisi2
 924 05fa 43F01003 		orr	r3, r3, #16
 925 05fe DAB2     		uxtb	r2, r3
 926 0600 059B     		ldr	r3, [sp, #20]
 927 0602 1A70     		strb	r2, [r3]
 928              		.loc 1 347 0
 929 0604 059B     		ldr	r3, [sp, #20]
 930 0606 4FF4F842 		mov	r2, #31744
 931 060a 1A61     		str	r2, [r3, #16]
 932              		.loc 1 348 0
 933 060c 059B     		ldr	r3, [sp, #20]
 934 060e 4FF47872 		mov	r2, #992
 935 0612 5A61     		str	r2, [r3, #20]
 936              		.loc 1 349 0
 937 0614 059B     		ldr	r3, [sp, #20]
 938 0616 1F22     		movs	r2, #31
 939 0618 9A61     		str	r2, [r3, #24]
 940              		.loc 1 350 0
 941 061a 059B     		ldr	r3, [sp, #20]
 942 061c 0022     		movs	r2, #0
 943 061e DA61     		str	r2, [r3, #28]
 944 0620 18E0     		b	.L64
 945              	.L65:
 946              		.loc 1 351 0
 947 0622 059B     		ldr	r3, [sp, #20]
 948 0624 5B78     		ldrb	r3, [r3, #1]	@ zero_extendqisi2
 949 0626 202B     		cmp	r3, #32
 950 0628 14D1     		bne	.L64
 951              		.loc 1 352 0
 952 062a 059B     		ldr	r3, [sp, #20]
 953 062c 1B78     		ldrb	r3, [r3]	@ zero_extendqisi2
 954 062e 43F01003 		orr	r3, r3, #16
 955 0632 DAB2     		uxtb	r2, r3
 956 0634 059B     		ldr	r3, [sp, #20]
 957 0636 1A70     		strb	r2, [r3]
 958              		.loc 1 353 0
 959 0638 059B     		ldr	r3, [sp, #20]
 960 063a 4FF47F02 		mov	r2, #16711680
 961 063e 1A61     		str	r2, [r3, #16]
 962              		.loc 1 354 0
 963 0640 059B     		ldr	r3, [sp, #20]
 964 0642 4FF47F42 		mov	r2, #65280
 965 0646 5A61     		str	r2, [r3, #20]
 966              		.loc 1 355 0
 967 0648 059B     		ldr	r3, [sp, #20]
ARM GAS  /tmp/cca9Q4lc.s 			page 18


 968 064a FF22     		movs	r2, #255
 969 064c 9A61     		str	r2, [r3, #24]
 970              		.loc 1 356 0
 971 064e 059B     		ldr	r3, [sp, #20]
 972 0650 0022     		movs	r2, #0
 973 0652 DA61     		str	r2, [r3, #28]
 974              	.L64:
 975              		.loc 1 360 0
 976 0654 059B     		ldr	r3, [sp, #20]
 977 0656 1B78     		ldrb	r3, [r3]	@ zero_extendqisi2
 978 0658 03F01003 		and	r3, r3, #16
 979 065c 002B     		cmp	r3, #0
 980 065e 00F0C580 		beq	.L66
 981              		.loc 1 361 0
 982 0662 059B     		ldr	r3, [sp, #20]
 983 0664 0022     		movs	r2, #0
 984 0666 DA72     		strb	r2, [r3, #11]
 985              		.loc 1 362 0
 986 0668 059B     		ldr	r3, [sp, #20]
 987 066a 0022     		movs	r2, #0
 988 066c 1A73     		strb	r2, [r3, #12]
 989              		.loc 1 363 0
 990 066e 059B     		ldr	r3, [sp, #20]
 991 0670 0022     		movs	r2, #0
 992 0672 5A73     		strb	r2, [r3, #13]
 993              		.loc 1 364 0
 994 0674 059B     		ldr	r3, [sp, #20]
 995 0676 1B69     		ldr	r3, [r3, #16]
 996 0678 002B     		cmp	r3, #0
 997 067a 2AD0     		beq	.L67
 998              		.loc 1 365 0
 999 067c 059B     		ldr	r3, [sp, #20]
 1000 067e 1B69     		ldr	r3, [r3, #16]
 1001 0680 FF2B     		cmp	r3, #255
 1002 0682 13D8     		bhi	.L68
 1003              		.loc 1 366 0
 1004 0684 059B     		ldr	r3, [sp, #20]
 1005 0686 1B69     		ldr	r3, [r3, #16]
 1006 0688 0693     		str	r3, [sp, #24]
 1007 068a 0BE0     		b	.L69
 1008              	.L70:
 1009              		.loc 1 366 0 is_stmt 0 discriminator 3
 1010 068c 059B     		ldr	r3, [sp, #20]
 1011 068e DB7A     		ldrb	r3, [r3, #11]	@ zero_extendqisi2
 1012 0690 DBB2     		uxtb	r3, r3
 1013 0692 DBB2     		uxtb	r3, r3
 1014 0694 013B     		subs	r3, r3, #1
 1015 0696 DBB2     		uxtb	r3, r3
 1016 0698 DAB2     		uxtb	r2, r3
 1017 069a 059B     		ldr	r3, [sp, #20]
 1018 069c DA72     		strb	r2, [r3, #11]
 1019 069e 069B     		ldr	r3, [sp, #24]
 1020 06a0 5B00     		lsls	r3, r3, #1
 1021 06a2 0693     		str	r3, [sp, #24]
 1022              	.L69:
 1023              		.loc 1 366 0 discriminator 1
 1024 06a4 069B     		ldr	r3, [sp, #24]
ARM GAS  /tmp/cca9Q4lc.s 			page 19


 1025 06a6 7F2B     		cmp	r3, #127
 1026 06a8 F0D9     		bls	.L70
 1027 06aa 12E0     		b	.L67
 1028              	.L68:
 1029              		.loc 1 368 0 is_stmt 1
 1030 06ac 059B     		ldr	r3, [sp, #20]
 1031 06ae 1B69     		ldr	r3, [r3, #16]
 1032 06b0 0693     		str	r3, [sp, #24]
 1033 06b2 0BE0     		b	.L71
 1034              	.L72:
 1035              		.loc 1 368 0 is_stmt 0 discriminator 3
 1036 06b4 059B     		ldr	r3, [sp, #20]
 1037 06b6 DB7A     		ldrb	r3, [r3, #11]	@ zero_extendqisi2
 1038 06b8 DBB2     		uxtb	r3, r3
 1039 06ba DBB2     		uxtb	r3, r3
 1040 06bc 0133     		adds	r3, r3, #1
 1041 06be DBB2     		uxtb	r3, r3
 1042 06c0 DAB2     		uxtb	r2, r3
 1043 06c2 059B     		ldr	r3, [sp, #20]
 1044 06c4 DA72     		strb	r2, [r3, #11]
 1045 06c6 069B     		ldr	r3, [sp, #24]
 1046 06c8 5B08     		lsrs	r3, r3, #1
 1047 06ca 0693     		str	r3, [sp, #24]
 1048              	.L71:
 1049              		.loc 1 368 0 discriminator 1
 1050 06cc 069B     		ldr	r3, [sp, #24]
 1051 06ce FF2B     		cmp	r3, #255
 1052 06d0 F0D8     		bhi	.L72
 1053              	.L67:
 1054              		.loc 1 370 0 is_stmt 1
 1055 06d2 059B     		ldr	r3, [sp, #20]
 1056 06d4 5B69     		ldr	r3, [r3, #20]
 1057 06d6 002B     		cmp	r3, #0
 1058 06d8 2AD0     		beq	.L73
 1059              		.loc 1 371 0
 1060 06da 059B     		ldr	r3, [sp, #20]
 1061 06dc 5B69     		ldr	r3, [r3, #20]
 1062 06de FF2B     		cmp	r3, #255
 1063 06e0 13D8     		bhi	.L74
 1064              		.loc 1 372 0
 1065 06e2 059B     		ldr	r3, [sp, #20]
 1066 06e4 5B69     		ldr	r3, [r3, #20]
 1067 06e6 0693     		str	r3, [sp, #24]
 1068 06e8 0BE0     		b	.L75
 1069              	.L76:
 1070              		.loc 1 372 0 is_stmt 0 discriminator 3
 1071 06ea 059B     		ldr	r3, [sp, #20]
 1072 06ec 1B7B     		ldrb	r3, [r3, #12]	@ zero_extendqisi2
 1073 06ee DBB2     		uxtb	r3, r3
 1074 06f0 DBB2     		uxtb	r3, r3
 1075 06f2 013B     		subs	r3, r3, #1
 1076 06f4 DBB2     		uxtb	r3, r3
 1077 06f6 DAB2     		uxtb	r2, r3
 1078 06f8 059B     		ldr	r3, [sp, #20]
 1079 06fa 1A73     		strb	r2, [r3, #12]
 1080 06fc 069B     		ldr	r3, [sp, #24]
 1081 06fe 5B00     		lsls	r3, r3, #1
ARM GAS  /tmp/cca9Q4lc.s 			page 20


 1082 0700 0693     		str	r3, [sp, #24]
 1083              	.L75:
 1084              		.loc 1 372 0 discriminator 1
 1085 0702 069B     		ldr	r3, [sp, #24]
 1086 0704 7F2B     		cmp	r3, #127
 1087 0706 F0D9     		bls	.L76
 1088 0708 12E0     		b	.L73
 1089              	.L74:
 1090              		.loc 1 374 0 is_stmt 1
 1091 070a 059B     		ldr	r3, [sp, #20]
 1092 070c 5B69     		ldr	r3, [r3, #20]
 1093 070e 0693     		str	r3, [sp, #24]
 1094 0710 0BE0     		b	.L77
 1095              	.L78:
 1096              		.loc 1 374 0 is_stmt 0 discriminator 3
 1097 0712 059B     		ldr	r3, [sp, #20]
 1098 0714 1B7B     		ldrb	r3, [r3, #12]	@ zero_extendqisi2
 1099 0716 DBB2     		uxtb	r3, r3
 1100 0718 DBB2     		uxtb	r3, r3
 1101 071a 0133     		adds	r3, r3, #1
 1102 071c DBB2     		uxtb	r3, r3
 1103 071e DAB2     		uxtb	r2, r3
 1104 0720 059B     		ldr	r3, [sp, #20]
 1105 0722 1A73     		strb	r2, [r3, #12]
 1106 0724 069B     		ldr	r3, [sp, #24]
 1107 0726 5B08     		lsrs	r3, r3, #1
 1108 0728 0693     		str	r3, [sp, #24]
 1109              	.L77:
 1110              		.loc 1 374 0 discriminator 1
 1111 072a 069B     		ldr	r3, [sp, #24]
 1112 072c FF2B     		cmp	r3, #255
 1113 072e F0D8     		bhi	.L78
 1114              	.L73:
 1115              		.loc 1 376 0 is_stmt 1
 1116 0730 059B     		ldr	r3, [sp, #20]
 1117 0732 9B69     		ldr	r3, [r3, #24]
 1118 0734 002B     		cmp	r3, #0
 1119 0736 2AD0     		beq	.L79
 1120              		.loc 1 377 0
 1121 0738 059B     		ldr	r3, [sp, #20]
 1122 073a 9B69     		ldr	r3, [r3, #24]
 1123 073c FF2B     		cmp	r3, #255
 1124 073e 13D8     		bhi	.L80
 1125              		.loc 1 378 0
 1126 0740 059B     		ldr	r3, [sp, #20]
 1127 0742 9B69     		ldr	r3, [r3, #24]
 1128 0744 0693     		str	r3, [sp, #24]
 1129 0746 0BE0     		b	.L81
 1130              	.L82:
 1131              		.loc 1 378 0 is_stmt 0 discriminator 3
 1132 0748 059B     		ldr	r3, [sp, #20]
 1133 074a 5B7B     		ldrb	r3, [r3, #13]	@ zero_extendqisi2
 1134 074c DBB2     		uxtb	r3, r3
 1135 074e DBB2     		uxtb	r3, r3
 1136 0750 013B     		subs	r3, r3, #1
 1137 0752 DBB2     		uxtb	r3, r3
 1138 0754 DAB2     		uxtb	r2, r3
ARM GAS  /tmp/cca9Q4lc.s 			page 21


 1139 0756 059B     		ldr	r3, [sp, #20]
 1140 0758 5A73     		strb	r2, [r3, #13]
 1141 075a 069B     		ldr	r3, [sp, #24]
 1142 075c 5B00     		lsls	r3, r3, #1
 1143 075e 0693     		str	r3, [sp, #24]
 1144              	.L81:
 1145              		.loc 1 378 0 discriminator 1
 1146 0760 069B     		ldr	r3, [sp, #24]
 1147 0762 7F2B     		cmp	r3, #127
 1148 0764 F0D9     		bls	.L82
 1149 0766 12E0     		b	.L79
 1150              	.L80:
 1151              		.loc 1 380 0 is_stmt 1
 1152 0768 059B     		ldr	r3, [sp, #20]
 1153 076a 9B69     		ldr	r3, [r3, #24]
 1154 076c 0693     		str	r3, [sp, #24]
 1155 076e 0BE0     		b	.L83
 1156              	.L84:
 1157              		.loc 1 380 0 is_stmt 0 discriminator 3
 1158 0770 059B     		ldr	r3, [sp, #20]
 1159 0772 5B7B     		ldrb	r3, [r3, #13]	@ zero_extendqisi2
 1160 0774 DBB2     		uxtb	r3, r3
 1161 0776 DBB2     		uxtb	r3, r3
 1162 0778 0133     		adds	r3, r3, #1
 1163 077a DBB2     		uxtb	r3, r3
 1164 077c DAB2     		uxtb	r2, r3
 1165 077e 059B     		ldr	r3, [sp, #20]
 1166 0780 5A73     		strb	r2, [r3, #13]
 1167 0782 069B     		ldr	r3, [sp, #24]
 1168 0784 5B08     		lsrs	r3, r3, #1
 1169 0786 0693     		str	r3, [sp, #24]
 1170              	.L83:
 1171              		.loc 1 380 0 discriminator 1
 1172 0788 069B     		ldr	r3, [sp, #24]
 1173 078a FF2B     		cmp	r3, #255
 1174 078c F0D8     		bhi	.L84
 1175              	.L79:
 1176              		.loc 1 382 0 is_stmt 1
 1177 078e 059B     		ldr	r3, [sp, #20]
 1178 0790 DB69     		ldr	r3, [r3, #28]
 1179 0792 002B     		cmp	r3, #0
 1180 0794 2AD0     		beq	.L66
 1181              		.loc 1 383 0
 1182 0796 059B     		ldr	r3, [sp, #20]
 1183 0798 DB69     		ldr	r3, [r3, #28]
 1184 079a FF2B     		cmp	r3, #255
 1185 079c 13D8     		bhi	.L85
 1186              		.loc 1 384 0
 1187 079e 059B     		ldr	r3, [sp, #20]
 1188 07a0 DB69     		ldr	r3, [r3, #28]
 1189 07a2 0693     		str	r3, [sp, #24]
 1190 07a4 0BE0     		b	.L86
 1191              	.L87:
 1192              		.loc 1 384 0 is_stmt 0 discriminator 3
 1193 07a6 059B     		ldr	r3, [sp, #20]
 1194 07a8 9B7B     		ldrb	r3, [r3, #14]	@ zero_extendqisi2
 1195 07aa DBB2     		uxtb	r3, r3
ARM GAS  /tmp/cca9Q4lc.s 			page 22


 1196 07ac DBB2     		uxtb	r3, r3
 1197 07ae 013B     		subs	r3, r3, #1
 1198 07b0 DBB2     		uxtb	r3, r3
 1199 07b2 DAB2     		uxtb	r2, r3
 1200 07b4 059B     		ldr	r3, [sp, #20]
 1201 07b6 9A73     		strb	r2, [r3, #14]
 1202 07b8 069B     		ldr	r3, [sp, #24]
 1203 07ba 5B00     		lsls	r3, r3, #1
 1204 07bc 0693     		str	r3, [sp, #24]
 1205              	.L86:
 1206              		.loc 1 384 0 discriminator 1
 1207 07be 069B     		ldr	r3, [sp, #24]
 1208 07c0 7F2B     		cmp	r3, #127
 1209 07c2 F0D9     		bls	.L87
 1210 07c4 12E0     		b	.L66
 1211              	.L85:
 1212              		.loc 1 386 0 is_stmt 1
 1213 07c6 059B     		ldr	r3, [sp, #20]
 1214 07c8 DB69     		ldr	r3, [r3, #28]
 1215 07ca 0693     		str	r3, [sp, #24]
 1216 07cc 0BE0     		b	.L88
 1217              	.L89:
 1218              		.loc 1 386 0 is_stmt 0 discriminator 3
 1219 07ce 059B     		ldr	r3, [sp, #20]
 1220 07d0 9B7B     		ldrb	r3, [r3, #14]	@ zero_extendqisi2
 1221 07d2 DBB2     		uxtb	r3, r3
 1222 07d4 DBB2     		uxtb	r3, r3
 1223 07d6 0133     		adds	r3, r3, #1
 1224 07d8 DBB2     		uxtb	r3, r3
 1225 07da DAB2     		uxtb	r2, r3
 1226 07dc 059B     		ldr	r3, [sp, #20]
 1227 07de 9A73     		strb	r2, [r3, #14]
 1228 07e0 069B     		ldr	r3, [sp, #24]
 1229 07e2 5B08     		lsrs	r3, r3, #1
 1230 07e4 0693     		str	r3, [sp, #24]
 1231              	.L88:
 1232              		.loc 1 386 0 discriminator 1
 1233 07e6 069B     		ldr	r3, [sp, #24]
 1234 07e8 FF2B     		cmp	r3, #255
 1235 07ea F0D8     		bhi	.L89
 1236              	.L66:
 1237              		.loc 1 391 0 is_stmt 1
 1238 07ec 019B     		ldr	r3, [sp, #4]
 1239 07ee 0322     		movs	r2, #3
 1240 07f0 1A80     		strh	r2, [r3]	@ movhi
 1241              		.loc 1 392 0
 1242 07f2 0023     		movs	r3, #0
 1243 07f4 0FE0     		b	.L90
 1244              	.L12:
 1245              		.loc 1 395 0
 1246 07f6 0198     		ldr	r0, [sp, #4]
 1247 07f8 FFF7FEFF 		bl	gdispImageClose_BMP
 1248              		.loc 1 396 0
 1249 07fc 48F20203 		movw	r3, #32770
 1250 0800 09E0     		b	.L90
 1251              	.L91:
 1252              		.loc 1 199 0
ARM GAS  /tmp/cca9Q4lc.s 			page 23


 1253 0802 00BF     		nop
 1254 0804 02E0     		b	.L19
 1255              	.L93:
 1256              		.loc 1 262 0
 1257 0806 00BF     		nop
 1258 0808 00E0     		b	.L19
 1259              	.L95:
 1260              		.loc 1 295 0
 1261 080a 00BF     		nop
 1262              	.L19:
 1263              		.loc 1 399 0
 1264 080c 0198     		ldr	r0, [sp, #4]
 1265 080e FFF7FEFF 		bl	gdispImageClose_BMP
 1266              		.loc 1 400 0
 1267 0812 48F20303 		movw	r3, #32771
 1268              	.L90:
 1269              		.loc 1 401 0 discriminator 2
 1270 0816 1846     		mov	r0, r3
 1271 0818 09B0     		add	sp, sp, #36
 1272              		.cfi_def_cfa_offset 4
 1273              		@ sp needed
 1274 081a 5DF804FB 		ldr	pc, [sp], #4
 1275              		.cfi_endproc
 1276              	.LFE112:
 1277              		.size	gdispImageOpen_BMP, .-gdispImageOpen_BMP
 1278 081e 00BF     		.section	.text.getPixels,"ax",%progbits
 1279              		.align	2
 1280              		.p2align 4,,15
 1281              		.thumb
 1282              		.thumb_func
 1283              		.type	getPixels, %function
 1284              	getPixels:
 1285              	.LFB113:
 1286              		.loc 1 403 0
 1287              		.cfi_startproc
 1288              		@ args = 0, pretend = 0, frame = 64
 1289              		@ frame_needed = 0, uses_anonymous_args = 0
 1290 0000 00B5     		push	{lr}
 1291              		.cfi_def_cfa_offset 4
 1292              		.cfi_offset 14, -4
 1293 0002 91B0     		sub	sp, sp, #68
 1294              		.cfi_def_cfa_offset 72
 1295 0004 0190     		str	r0, [sp, #4]
 1296 0006 0B46     		mov	r3, r1
 1297 0008 ADF80230 		strh	r3, [sp, #2]	@ movhi
 1298              		.loc 1 408 0
 1299 000c 019B     		ldr	r3, [sp, #4]
 1300 000e 5B69     		ldr	r3, [r3, #20]
 1301 0010 0A93     		str	r3, [sp, #40]
 1302              		.loc 1 409 0
 1303 0012 0A9B     		ldr	r3, [sp, #40]
 1304 0014 2833     		adds	r3, r3, #40
 1305 0016 0F93     		str	r3, [sp, #60]
 1306              		.loc 1 410 0
 1307 0018 0023     		movs	r3, #0
 1308 001a ADF83A30 		strh	r3, [sp, #58]	@ movhi
 1309              		.loc 1 412 0
ARM GAS  /tmp/cca9Q4lc.s 			page 24


 1310 001e 0A9B     		ldr	r3, [sp, #40]
 1311 0020 5B78     		ldrb	r3, [r3, #1]	@ zero_extendqisi2
 1312 0022 013B     		subs	r3, r3, #1
 1313 0024 1F2B     		cmp	r3, #31
 1314 0026 00F2D486 		bhi	.L98
 1315 002a 01A2     		adr	r2, .L100
 1316 002c 52F823F0 		ldr	pc, [r2, r3, lsl #2]
 1317              		.p2align 2
 1318              	.L100:
 1319 0030 B1000000 		.word	.L99+1
 1320 0034 D30D0000 		.word	.L98+1
 1321 0038 D30D0000 		.word	.L98+1
 1322 003c 21020000 		.word	.L101+1
 1323 0040 D30D0000 		.word	.L98+1
 1324 0044 D30D0000 		.word	.L98+1
 1325 0048 D30D0000 		.word	.L98+1
 1326 004c 69060000 		.word	.L102+1
 1327 0050 D30D0000 		.word	.L98+1
 1328 0054 D30D0000 		.word	.L98+1
 1329 0058 D30D0000 		.word	.L98+1
 1330 005c D30D0000 		.word	.L98+1
 1331 0060 D30D0000 		.word	.L98+1
 1332 0064 D30D0000 		.word	.L98+1
 1333 0068 D30D0000 		.word	.L98+1
 1334 006c B30B0000 		.word	.L179+1
 1335 0070 D30D0000 		.word	.L98+1
 1336 0074 D30D0000 		.word	.L98+1
 1337 0078 D30D0000 		.word	.L98+1
 1338 007c D30D0000 		.word	.L98+1
 1339 0080 D30D0000 		.word	.L98+1
 1340 0084 D30D0000 		.word	.L98+1
 1341 0088 D30D0000 		.word	.L98+1
 1342 008c 3B0C0000 		.word	.L195+1
 1343 0090 D30D0000 		.word	.L98+1
 1344 0094 D30D0000 		.word	.L98+1
 1345 0098 D30D0000 		.word	.L98+1
 1346 009c D30D0000 		.word	.L98+1
 1347 00a0 D30D0000 		.word	.L98+1
 1348 00a4 D30D0000 		.word	.L98+1
 1349 00a8 D30D0000 		.word	.L98+1
 1350 00ac B50D0000 		.word	.L201+1
 1351              		.p2align 1
 1352              	.L99:
 1353              	.LBB2:
 1354              		.loc 1 419 0
 1355 00b0 019B     		ldr	r3, [sp, #4]
 1356 00b2 5B69     		ldr	r3, [r3, #20]
 1357 00b4 0A93     		str	r3, [sp, #40]
 1358              		.loc 1 420 0
 1359 00b6 0A9B     		ldr	r3, [sp, #40]
 1360 00b8 2833     		adds	r3, r3, #40
 1361 00ba 0F93     		str	r3, [sp, #60]
 1362              		.loc 1 421 0
 1363 00bc 0023     		movs	r3, #0
 1364 00be ADF83A30 		strh	r3, [sp, #58]	@ movhi
 1365              		.loc 1 423 0
 1366 00c2 9DE0     		b	.L106
ARM GAS  /tmp/cca9Q4lc.s 			page 25


 1367              	.L126:
 1368              		.loc 1 424 0
 1369 00c4 019B     		ldr	r3, [sp, #4]
 1370 00c6 DA68     		ldr	r2, [r3, #12]
 1371 00c8 09AB     		add	r3, sp, #36
 1372 00ca 1046     		mov	r0, r2
 1373 00cc 1946     		mov	r1, r3
 1374 00ce 0422     		movs	r2, #4
 1375 00d0 FFF7FEFF 		bl	gfileRead
 1376 00d4 0346     		mov	r3, r0
 1377 00d6 042B     		cmp	r3, #4
 1378 00d8 02D0     		beq	.L107
 1379              		.loc 1 425 0
 1380 00da 0023     		movs	r3, #0
 1381 00dc 00F07BBE 		b	.L108
 1382              	.L107:
 1383              		.loc 1 427 0
 1384 00e0 8023     		movs	r3, #128
 1385 00e2 8DF83930 		strb	r3, [sp, #57]
 1386 00e6 18E0     		b	.L109
 1387              	.L112:
 1388              		.loc 1 428 0
 1389 00e8 0A9B     		ldr	r3, [sp, #40]
 1390 00ea 5A68     		ldr	r2, [r3, #4]
 1391 00ec 9DF82410 		ldrb	r1, [sp, #36]	@ zero_extendqisi2
 1392 00f0 9DF83930 		ldrb	r3, [sp, #57]
 1393 00f4 0B40     		ands	r3, r3, r1
 1394 00f6 DBB2     		uxtb	r3, r3
 1395 00f8 002B     		cmp	r3, #0
 1396 00fa 01D0     		beq	.L110
 1397              		.loc 1 428 0 is_stmt 0 discriminator 1
 1398 00fc 0223     		movs	r3, #2
 1399 00fe 00E0     		b	.L111
 1400              	.L110:
 1401              		.loc 1 428 0 discriminator 2
 1402 0100 0023     		movs	r3, #0
 1403              	.L111:
 1404              		.loc 1 428 0 discriminator 4
 1405 0102 1344     		add	r3, r3, r2
 1406 0104 1A88     		ldrh	r2, [r3]
 1407 0106 0F9B     		ldr	r3, [sp, #60]
 1408 0108 1A80     		strh	r2, [r3]	@ movhi
 1409              		.loc 1 427 0 is_stmt 1 discriminator 4
 1410 010a 9DF83930 		ldrb	r3, [sp, #57]	@ zero_extendqisi2
 1411 010e 5B08     		lsrs	r3, r3, #1
 1412 0110 8DF83930 		strb	r3, [sp, #57]
 1413 0114 0F9B     		ldr	r3, [sp, #60]
 1414 0116 0233     		adds	r3, r3, #2
 1415 0118 0F93     		str	r3, [sp, #60]
 1416              	.L109:
 1417              		.loc 1 427 0 is_stmt 0 discriminator 2
 1418 011a 9DF83930 		ldrb	r3, [sp, #57]	@ zero_extendqisi2
 1419 011e 002B     		cmp	r3, #0
 1420 0120 E2D1     		bne	.L112
 1421              		.loc 1 429 0 is_stmt 1
 1422 0122 8023     		movs	r3, #128
 1423 0124 8DF83930 		strb	r3, [sp, #57]
ARM GAS  /tmp/cca9Q4lc.s 			page 26


 1424 0128 18E0     		b	.L113
 1425              	.L116:
 1426              		.loc 1 430 0
 1427 012a 0A9B     		ldr	r3, [sp, #40]
 1428 012c 5A68     		ldr	r2, [r3, #4]
 1429 012e 9DF82510 		ldrb	r1, [sp, #37]	@ zero_extendqisi2
 1430 0132 9DF83930 		ldrb	r3, [sp, #57]
 1431 0136 0B40     		ands	r3, r3, r1
 1432 0138 DBB2     		uxtb	r3, r3
 1433 013a 002B     		cmp	r3, #0
 1434 013c 01D0     		beq	.L114
 1435              		.loc 1 430 0 is_stmt 0 discriminator 1
 1436 013e 0223     		movs	r3, #2
 1437 0140 00E0     		b	.L115
 1438              	.L114:
 1439              		.loc 1 430 0 discriminator 2
 1440 0142 0023     		movs	r3, #0
 1441              	.L115:
 1442              		.loc 1 430 0 discriminator 4
 1443 0144 1344     		add	r3, r3, r2
 1444 0146 1A88     		ldrh	r2, [r3]
 1445 0148 0F9B     		ldr	r3, [sp, #60]
 1446 014a 1A80     		strh	r2, [r3]	@ movhi
 1447              		.loc 1 429 0 is_stmt 1 discriminator 4
 1448 014c 9DF83930 		ldrb	r3, [sp, #57]	@ zero_extendqisi2
 1449 0150 5B08     		lsrs	r3, r3, #1
 1450 0152 8DF83930 		strb	r3, [sp, #57]
 1451 0156 0F9B     		ldr	r3, [sp, #60]
 1452 0158 0233     		adds	r3, r3, #2
 1453 015a 0F93     		str	r3, [sp, #60]
 1454              	.L113:
 1455              		.loc 1 429 0 is_stmt 0 discriminator 2
 1456 015c 9DF83930 		ldrb	r3, [sp, #57]	@ zero_extendqisi2
 1457 0160 002B     		cmp	r3, #0
 1458 0162 E2D1     		bne	.L116
 1459              		.loc 1 431 0 is_stmt 1
 1460 0164 8023     		movs	r3, #128
 1461 0166 8DF83930 		strb	r3, [sp, #57]
 1462 016a 18E0     		b	.L117
 1463              	.L120:
 1464              		.loc 1 432 0
 1465 016c 0A9B     		ldr	r3, [sp, #40]
 1466 016e 5A68     		ldr	r2, [r3, #4]
 1467 0170 9DF82610 		ldrb	r1, [sp, #38]	@ zero_extendqisi2
 1468 0174 9DF83930 		ldrb	r3, [sp, #57]
 1469 0178 0B40     		ands	r3, r3, r1
 1470 017a DBB2     		uxtb	r3, r3
 1471 017c 002B     		cmp	r3, #0
 1472 017e 01D0     		beq	.L118
 1473              		.loc 1 432 0 is_stmt 0 discriminator 1
 1474 0180 0223     		movs	r3, #2
 1475 0182 00E0     		b	.L119
 1476              	.L118:
 1477              		.loc 1 432 0 discriminator 2
 1478 0184 0023     		movs	r3, #0
 1479              	.L119:
 1480              		.loc 1 432 0 discriminator 4
ARM GAS  /tmp/cca9Q4lc.s 			page 27


 1481 0186 1344     		add	r3, r3, r2
 1482 0188 1A88     		ldrh	r2, [r3]
 1483 018a 0F9B     		ldr	r3, [sp, #60]
 1484 018c 1A80     		strh	r2, [r3]	@ movhi
 1485              		.loc 1 431 0 is_stmt 1 discriminator 4
 1486 018e 9DF83930 		ldrb	r3, [sp, #57]	@ zero_extendqisi2
 1487 0192 5B08     		lsrs	r3, r3, #1
 1488 0194 8DF83930 		strb	r3, [sp, #57]
 1489 0198 0F9B     		ldr	r3, [sp, #60]
 1490 019a 0233     		adds	r3, r3, #2
 1491 019c 0F93     		str	r3, [sp, #60]
 1492              	.L117:
 1493              		.loc 1 431 0 is_stmt 0 discriminator 2
 1494 019e 9DF83930 		ldrb	r3, [sp, #57]	@ zero_extendqisi2
 1495 01a2 002B     		cmp	r3, #0
 1496 01a4 E2D1     		bne	.L120
 1497              		.loc 1 433 0 is_stmt 1
 1498 01a6 8023     		movs	r3, #128
 1499 01a8 8DF83930 		strb	r3, [sp, #57]
 1500 01ac 18E0     		b	.L121
 1501              	.L124:
 1502              		.loc 1 434 0
 1503 01ae 0A9B     		ldr	r3, [sp, #40]
 1504 01b0 5A68     		ldr	r2, [r3, #4]
 1505 01b2 9DF82710 		ldrb	r1, [sp, #39]	@ zero_extendqisi2
 1506 01b6 9DF83930 		ldrb	r3, [sp, #57]
 1507 01ba 0B40     		ands	r3, r3, r1
 1508 01bc DBB2     		uxtb	r3, r3
 1509 01be 002B     		cmp	r3, #0
 1510 01c0 01D0     		beq	.L122
 1511              		.loc 1 434 0 is_stmt 0 discriminator 1
 1512 01c2 0223     		movs	r3, #2
 1513 01c4 00E0     		b	.L123
 1514              	.L122:
 1515              		.loc 1 434 0 discriminator 2
 1516 01c6 0023     		movs	r3, #0
 1517              	.L123:
 1518              		.loc 1 434 0 discriminator 4
 1519 01c8 1344     		add	r3, r3, r2
 1520 01ca 1A88     		ldrh	r2, [r3]
 1521 01cc 0F9B     		ldr	r3, [sp, #60]
 1522 01ce 1A80     		strh	r2, [r3]	@ movhi
 1523              		.loc 1 433 0 is_stmt 1 discriminator 4
 1524 01d0 9DF83930 		ldrb	r3, [sp, #57]	@ zero_extendqisi2
 1525 01d4 5B08     		lsrs	r3, r3, #1
 1526 01d6 8DF83930 		strb	r3, [sp, #57]
 1527 01da 0F9B     		ldr	r3, [sp, #60]
 1528 01dc 0233     		adds	r3, r3, #2
 1529 01de 0F93     		str	r3, [sp, #60]
 1530              	.L121:
 1531              		.loc 1 433 0 is_stmt 0 discriminator 2
 1532 01e0 9DF83930 		ldrb	r3, [sp, #57]	@ zero_extendqisi2
 1533 01e4 002B     		cmp	r3, #0
 1534 01e6 E2D1     		bne	.L124
 1535              		.loc 1 435 0 is_stmt 1
 1536 01e8 BDF83A30 		ldrh	r3, [sp, #58]
 1537 01ec 2033     		adds	r3, r3, #32
ARM GAS  /tmp/cca9Q4lc.s 			page 28


 1538 01ee 9BB2     		uxth	r3, r3
 1539 01f0 ADF83A30 		strh	r3, [sp, #58]	@ movhi
 1540              		.loc 1 436 0
 1541 01f4 BDF80230 		ldrh	r3, [sp, #2]
 1542 01f8 2033     		adds	r3, r3, #32
 1543 01fa 9BB2     		uxth	r3, r3
 1544 01fc ADF80230 		strh	r3, [sp, #2]	@ movhi
 1545              	.L106:
 1546              		.loc 1 423 0
 1547 0200 019B     		ldr	r3, [sp, #4]
 1548 0202 DB88     		ldrh	r3, [r3, #6]
 1549 0204 BDF90220 		ldrsh	r2, [sp, #2]
 1550 0208 1BB2     		sxth	r3, r3
 1551 020a 9A42     		cmp	r2, r3
 1552 020c 04DA     		bge	.L125
 1553              		.loc 1 423 0 is_stmt 0 discriminator 1
 1554 020e BDF93A30 		ldrsh	r3, [sp, #58]
 1555 0212 002B     		cmp	r3, #0
 1556 0214 7FF756AF 		ble	.L126
 1557              	.L125:
 1558              	.LBE2:
 1559              		.loc 1 439 0 is_stmt 1
 1560 0218 BDF83A30 		ldrh	r3, [sp, #58]
 1561 021c 00F0DBBD 		b	.L108
 1562              	.L101:
 1563              		.loc 1 446 0
 1564 0220 0A9B     		ldr	r3, [sp, #40]
 1565 0222 1B78     		ldrb	r3, [r3]	@ zero_extendqisi2
 1566 0224 03F00803 		and	r3, r3, #8
 1567 0228 002B     		cmp	r3, #0
 1568 022a 00F08B81 		beq	.L127
 1569              	.LBB3:
 1570              		.loc 1 451 0
 1571 022e 7DE1     		b	.L128
 1572              	.L147:
 1573              		.loc 1 452 0
 1574 0230 0A9B     		ldr	r3, [sp, #40]
 1575 0232 1B78     		ldrb	r3, [r3]	@ zero_extendqisi2
 1576 0234 03F02003 		and	r3, r3, #32
 1577 0238 002B     		cmp	r3, #0
 1578 023a 5ED0     		beq	.L129
 1579              		.loc 1 453 0
 1580 023c 45E0     		b	.L130
 1581              	.L132:
 1582              		.loc 1 454 0
 1583 023e 0F9B     		ldr	r3, [sp, #60]
 1584 0240 9A1C     		adds	r2, r3, #2
 1585 0242 0F92     		str	r2, [sp, #60]
 1586 0244 0A9A     		ldr	r2, [sp, #40]
 1587 0246 5168     		ldr	r1, [r2, #4]
 1588 0248 0A9A     		ldr	r2, [sp, #40]
 1589 024a 927A     		ldrb	r2, [r2, #10]	@ zero_extendqisi2
 1590 024c 1209     		lsrs	r2, r2, #4
 1591 024e D2B2     		uxtb	r2, r2
 1592 0250 5200     		lsls	r2, r2, #1
 1593 0252 0A44     		add	r2, r2, r1
 1594 0254 1288     		ldrh	r2, [r2]
ARM GAS  /tmp/cca9Q4lc.s 			page 29


 1595 0256 1A80     		strh	r2, [r3]	@ movhi
 1596              		.loc 1 455 0
 1597 0258 0A9B     		ldr	r3, [sp, #40]
 1598 025a 1B89     		ldrh	r3, [r3, #8]
 1599 025c 013B     		subs	r3, r3, #1
 1600 025e 9AB2     		uxth	r2, r3
 1601 0260 0A9B     		ldr	r3, [sp, #40]
 1602 0262 1A81     		strh	r2, [r3, #8]	@ movhi
 1603              		.loc 1 456 0
 1604 0264 BDF83A30 		ldrh	r3, [sp, #58]
 1605 0268 9BB2     		uxth	r3, r3
 1606 026a 0133     		adds	r3, r3, #1
 1607 026c 9BB2     		uxth	r3, r3
 1608 026e ADF83A30 		strh	r3, [sp, #58]	@ movhi
 1609              		.loc 1 457 0
 1610 0272 BDF80230 		ldrh	r3, [sp, #2]
 1611 0276 9BB2     		uxth	r3, r3
 1612 0278 0133     		adds	r3, r3, #1
 1613 027a 9BB2     		uxth	r3, r3
 1614 027c ADF80230 		strh	r3, [sp, #2]	@ movhi
 1615              		.loc 1 458 0
 1616 0280 0A9B     		ldr	r3, [sp, #40]
 1617 0282 1B89     		ldrh	r3, [r3, #8]
 1618 0284 002B     		cmp	r3, #0
 1619 0286 20D0     		beq	.L130
 1620              		.loc 1 459 0
 1621 0288 0F9B     		ldr	r3, [sp, #60]
 1622 028a 9A1C     		adds	r2, r3, #2
 1623 028c 0F92     		str	r2, [sp, #60]
 1624 028e 0A9A     		ldr	r2, [sp, #40]
 1625 0290 5168     		ldr	r1, [r2, #4]
 1626 0292 0A9A     		ldr	r2, [sp, #40]
 1627 0294 927A     		ldrb	r2, [r2, #10]	@ zero_extendqisi2
 1628 0296 02F00F02 		and	r2, r2, #15
 1629 029a 5200     		lsls	r2, r2, #1
 1630 029c 0A44     		add	r2, r2, r1
 1631 029e 1288     		ldrh	r2, [r2]
 1632 02a0 1A80     		strh	r2, [r3]	@ movhi
 1633              		.loc 1 460 0
 1634 02a2 0A9B     		ldr	r3, [sp, #40]
 1635 02a4 1B89     		ldrh	r3, [r3, #8]
 1636 02a6 013B     		subs	r3, r3, #1
 1637 02a8 9AB2     		uxth	r2, r3
 1638 02aa 0A9B     		ldr	r3, [sp, #40]
 1639 02ac 1A81     		strh	r2, [r3, #8]	@ movhi
 1640              		.loc 1 461 0
 1641 02ae BDF83A30 		ldrh	r3, [sp, #58]
 1642 02b2 9BB2     		uxth	r3, r3
 1643 02b4 0133     		adds	r3, r3, #1
 1644 02b6 9BB2     		uxth	r3, r3
 1645 02b8 ADF83A30 		strh	r3, [sp, #58]	@ movhi
 1646              		.loc 1 462 0
 1647 02bc BDF80230 		ldrh	r3, [sp, #2]
 1648 02c0 9BB2     		uxth	r3, r3
 1649 02c2 0133     		adds	r3, r3, #1
 1650 02c4 9BB2     		uxth	r3, r3
 1651 02c6 ADF80230 		strh	r3, [sp, #2]	@ movhi
ARM GAS  /tmp/cca9Q4lc.s 			page 30


 1652              	.L130:
 1653              		.loc 1 453 0
 1654 02ca 0A9B     		ldr	r3, [sp, #40]
 1655 02cc 1B89     		ldrh	r3, [r3, #8]
 1656 02ce 002B     		cmp	r3, #0
 1657 02d0 0AD0     		beq	.L131
 1658              		.loc 1 453 0 is_stmt 0 discriminator 1
 1659 02d2 BDF93A30 		ldrsh	r3, [sp, #58]
 1660 02d6 1E2B     		cmp	r3, #30
 1661 02d8 06DC     		bgt	.L131
 1662              		.loc 1 453 0 discriminator 2
 1663 02da 019B     		ldr	r3, [sp, #4]
 1664 02dc DB88     		ldrh	r3, [r3, #6]
 1665 02de BDF90220 		ldrsh	r2, [sp, #2]
 1666 02e2 1BB2     		sxth	r3, r3
 1667 02e4 9A42     		cmp	r2, r3
 1668 02e6 AADB     		blt	.L132
 1669              	.L131:
 1670              		.loc 1 465 0 is_stmt 1
 1671 02e8 0A9B     		ldr	r3, [sp, #40]
 1672 02ea 1B89     		ldrh	r3, [r3, #8]
 1673 02ec 002B     		cmp	r3, #0
 1674 02ee 00F09380 		beq	.L133
 1675              		.loc 1 466 0
 1676 02f2 BDF83A30 		ldrh	r3, [sp, #58]
 1677 02f6 00F06EBD 		b	.L108
 1678              	.L129:
 1679              		.loc 1 467 0
 1680 02fa 0A9B     		ldr	r3, [sp, #40]
 1681 02fc 1B78     		ldrb	r3, [r3]	@ zero_extendqisi2
 1682 02fe 03F04003 		and	r3, r3, #64
 1683 0302 002B     		cmp	r3, #0
 1684 0304 00F08880 		beq	.L133
 1685              		.loc 1 468 0
 1686 0308 53E0     		b	.L135
 1687              	.L138:
 1688              		.loc 1 469 0
 1689 030a 019B     		ldr	r3, [sp, #4]
 1690 030c DA68     		ldr	r2, [r3, #12]
 1691 030e 08AB     		add	r3, sp, #32
 1692 0310 1046     		mov	r0, r2
 1693 0312 1946     		mov	r1, r3
 1694 0314 0122     		movs	r2, #1
 1695 0316 FFF7FEFF 		bl	gfileRead
 1696 031a 0346     		mov	r3, r0
 1697 031c 012B     		cmp	r3, #1
 1698 031e 02D0     		beq	.L136
 1699              		.loc 1 470 0
 1700 0320 0023     		movs	r3, #0
 1701 0322 00F058BD 		b	.L108
 1702              	.L136:
 1703              		.loc 1 471 0
 1704 0326 0F9B     		ldr	r3, [sp, #60]
 1705 0328 9A1C     		adds	r2, r3, #2
 1706 032a 0F92     		str	r2, [sp, #60]
 1707 032c 0A9A     		ldr	r2, [sp, #40]
 1708 032e 5168     		ldr	r1, [r2, #4]
ARM GAS  /tmp/cca9Q4lc.s 			page 31


 1709 0330 9DF82020 		ldrb	r2, [sp, #32]	@ zero_extendqisi2
 1710 0334 1209     		lsrs	r2, r2, #4
 1711 0336 D2B2     		uxtb	r2, r2
 1712 0338 5200     		lsls	r2, r2, #1
 1713 033a 0A44     		add	r2, r2, r1
 1714 033c 1288     		ldrh	r2, [r2]
 1715 033e 1A80     		strh	r2, [r3]	@ movhi
 1716              		.loc 1 472 0
 1717 0340 0A9B     		ldr	r3, [sp, #40]
 1718 0342 1B89     		ldrh	r3, [r3, #8]
 1719 0344 013B     		subs	r3, r3, #1
 1720 0346 9AB2     		uxth	r2, r3
 1721 0348 0A9B     		ldr	r3, [sp, #40]
 1722 034a 1A81     		strh	r2, [r3, #8]	@ movhi
 1723              		.loc 1 473 0
 1724 034c BDF83A30 		ldrh	r3, [sp, #58]
 1725 0350 9BB2     		uxth	r3, r3
 1726 0352 0133     		adds	r3, r3, #1
 1727 0354 9BB2     		uxth	r3, r3
 1728 0356 ADF83A30 		strh	r3, [sp, #58]	@ movhi
 1729              		.loc 1 474 0
 1730 035a BDF80230 		ldrh	r3, [sp, #2]
 1731 035e 9BB2     		uxth	r3, r3
 1732 0360 0133     		adds	r3, r3, #1
 1733 0362 9BB2     		uxth	r3, r3
 1734 0364 ADF80230 		strh	r3, [sp, #2]	@ movhi
 1735              		.loc 1 475 0
 1736 0368 0A9B     		ldr	r3, [sp, #40]
 1737 036a 1B89     		ldrh	r3, [r3, #8]
 1738 036c 002B     		cmp	r3, #0
 1739 036e 20D0     		beq	.L135
 1740              		.loc 1 476 0
 1741 0370 0F9B     		ldr	r3, [sp, #60]
 1742 0372 9A1C     		adds	r2, r3, #2
 1743 0374 0F92     		str	r2, [sp, #60]
 1744 0376 0A9A     		ldr	r2, [sp, #40]
 1745 0378 5168     		ldr	r1, [r2, #4]
 1746 037a 9DF82020 		ldrb	r2, [sp, #32]	@ zero_extendqisi2
 1747 037e 02F00F02 		and	r2, r2, #15
 1748 0382 5200     		lsls	r2, r2, #1
 1749 0384 0A44     		add	r2, r2, r1
 1750 0386 1288     		ldrh	r2, [r2]
 1751 0388 1A80     		strh	r2, [r3]	@ movhi
 1752              		.loc 1 477 0
 1753 038a 0A9B     		ldr	r3, [sp, #40]
 1754 038c 1B89     		ldrh	r3, [r3, #8]
 1755 038e 013B     		subs	r3, r3, #1
 1756 0390 9AB2     		uxth	r2, r3
 1757 0392 0A9B     		ldr	r3, [sp, #40]
 1758 0394 1A81     		strh	r2, [r3, #8]	@ movhi
 1759              		.loc 1 478 0
 1760 0396 BDF83A30 		ldrh	r3, [sp, #58]
 1761 039a 9BB2     		uxth	r3, r3
 1762 039c 0133     		adds	r3, r3, #1
 1763 039e 9BB2     		uxth	r3, r3
 1764 03a0 ADF83A30 		strh	r3, [sp, #58]	@ movhi
 1765              		.loc 1 479 0
ARM GAS  /tmp/cca9Q4lc.s 			page 32


 1766 03a4 BDF80230 		ldrh	r3, [sp, #2]
 1767 03a8 9BB2     		uxth	r3, r3
 1768 03aa 0133     		adds	r3, r3, #1
 1769 03ac 9BB2     		uxth	r3, r3
 1770 03ae ADF80230 		strh	r3, [sp, #2]	@ movhi
 1771              	.L135:
 1772              		.loc 1 468 0
 1773 03b2 0A9B     		ldr	r3, [sp, #40]
 1774 03b4 1B89     		ldrh	r3, [r3, #8]
 1775 03b6 002B     		cmp	r3, #0
 1776 03b8 0AD0     		beq	.L137
 1777              		.loc 1 468 0 is_stmt 0 discriminator 1
 1778 03ba BDF93A30 		ldrsh	r3, [sp, #58]
 1779 03be 1E2B     		cmp	r3, #30
 1780 03c0 06DC     		bgt	.L137
 1781              		.loc 1 468 0 discriminator 2
 1782 03c2 019B     		ldr	r3, [sp, #4]
 1783 03c4 DB88     		ldrh	r3, [r3, #6]
 1784 03c6 BDF90220 		ldrsh	r2, [sp, #2]
 1785 03ca 1BB2     		sxth	r3, r3
 1786 03cc 9A42     		cmp	r2, r3
 1787 03ce 9CDB     		blt	.L138
 1788              	.L137:
 1789              		.loc 1 482 0 is_stmt 1
 1790 03d0 0A9B     		ldr	r3, [sp, #40]
 1791 03d2 1B89     		ldrh	r3, [r3, #8]
 1792 03d4 002B     		cmp	r3, #0
 1793 03d6 03D0     		beq	.L139
 1794              		.loc 1 483 0
 1795 03d8 BDF83A30 		ldrh	r3, [sp, #58]
 1796 03dc 00F0FBBC 		b	.L108
 1797              	.L139:
 1798              		.loc 1 484 0
 1799 03e0 019B     		ldr	r3, [sp, #4]
 1800 03e2 DB68     		ldr	r3, [r3, #12]
 1801 03e4 1846     		mov	r0, r3
 1802 03e6 FFF7FEFF 		bl	gfileGetPos
 1803 03ea 0346     		mov	r3, r0
 1804 03ec 1A46     		mov	r2, r3
 1805 03ee 0A9B     		ldr	r3, [sp, #40]
 1806 03f0 1B6A     		ldr	r3, [r3, #32]
 1807 03f2 D31A     		subs	r3, r2, r3
 1808 03f4 03F00103 		and	r3, r3, #1
 1809 03f8 002B     		cmp	r3, #0
 1810 03fa 0DD0     		beq	.L133
 1811              		.loc 1 485 0
 1812 03fc 019B     		ldr	r3, [sp, #4]
 1813 03fe DA68     		ldr	r2, [r3, #12]
 1814 0400 08AB     		add	r3, sp, #32
 1815 0402 1046     		mov	r0, r2
 1816 0404 1946     		mov	r1, r3
 1817 0406 0122     		movs	r2, #1
 1818 0408 FFF7FEFF 		bl	gfileRead
 1819 040c 0346     		mov	r3, r0
 1820 040e 012B     		cmp	r3, #1
 1821 0410 02D0     		beq	.L133
 1822              		.loc 1 486 0
ARM GAS  /tmp/cca9Q4lc.s 			page 33


 1823 0412 0023     		movs	r3, #0
 1824 0414 00F0DFBC 		b	.L108
 1825              	.L133:
 1826              		.loc 1 491 0
 1827 0418 0A9B     		ldr	r3, [sp, #40]
 1828 041a 1B78     		ldrb	r3, [r3]	@ zero_extendqisi2
 1829 041c 23F06003 		bic	r3, r3, #96
 1830 0420 DAB2     		uxtb	r2, r3
 1831 0422 0A9B     		ldr	r3, [sp, #40]
 1832 0424 1A70     		strb	r2, [r3]
 1833              		.loc 1 494 0
 1834 0426 019B     		ldr	r3, [sp, #4]
 1835 0428 DA68     		ldr	r2, [r3, #12]
 1836 042a 08AB     		add	r3, sp, #32
 1837 042c 1046     		mov	r0, r2
 1838 042e 1946     		mov	r1, r3
 1839 0430 0222     		movs	r2, #2
 1840 0432 FFF7FEFF 		bl	gfileRead
 1841 0436 0346     		mov	r3, r0
 1842 0438 022B     		cmp	r3, #2
 1843 043a 02D0     		beq	.L140
 1844              		.loc 1 495 0
 1845 043c 0023     		movs	r3, #0
 1846 043e 00F0CABC 		b	.L108
 1847              	.L140:
 1848              		.loc 1 497 0
 1849 0442 9DF82030 		ldrb	r3, [sp, #32]	@ zero_extendqisi2
 1850 0446 002B     		cmp	r3, #0
 1851 0448 10D0     		beq	.L141
 1852              		.loc 1 498 0
 1853 044a 9DF82030 		ldrb	r3, [sp, #32]	@ zero_extendqisi2
 1854 044e 9AB2     		uxth	r2, r3
 1855 0450 0A9B     		ldr	r3, [sp, #40]
 1856 0452 1A81     		strh	r2, [r3, #8]	@ movhi
 1857              		.loc 1 499 0
 1858 0454 9DF82120 		ldrb	r2, [sp, #33]	@ zero_extendqisi2
 1859 0458 0A9B     		ldr	r3, [sp, #40]
 1860 045a 9A72     		strb	r2, [r3, #10]
 1861              		.loc 1 500 0
 1862 045c 0A9B     		ldr	r3, [sp, #40]
 1863 045e 1B78     		ldrb	r3, [r3]	@ zero_extendqisi2
 1864 0460 43F02003 		orr	r3, r3, #32
 1865 0464 DAB2     		uxtb	r2, r3
 1866 0466 0A9B     		ldr	r3, [sp, #40]
 1867 0468 1A70     		strb	r2, [r3]
 1868 046a 5FE0     		b	.L128
 1869              	.L141:
 1870              		.loc 1 501 0
 1871 046c 9DF82130 		ldrb	r3, [sp, #33]	@ zero_extendqisi2
 1872 0470 002B     		cmp	r3, #0
 1873 0472 1AD1     		bne	.L142
 1874              		.loc 1 502 0
 1875 0474 019B     		ldr	r3, [sp, #4]
 1876 0476 DB88     		ldrh	r3, [r3, #6]
 1877 0478 BDF90220 		ldrsh	r2, [sp, #2]
 1878 047c 1BB2     		sxth	r3, r3
 1879 047e 9A42     		cmp	r2, r3
ARM GAS  /tmp/cca9Q4lc.s 			page 34


 1880 0480 54DA     		bge	.L128
 1881              		.loc 1 503 0
 1882 0482 019B     		ldr	r3, [sp, #4]
 1883 0484 DB88     		ldrh	r3, [r3, #6]
 1884 0486 9AB2     		uxth	r2, r3
 1885 0488 BDF80230 		ldrh	r3, [sp, #2]
 1886 048c D31A     		subs	r3, r2, r3
 1887 048e 9AB2     		uxth	r2, r3
 1888 0490 0A9B     		ldr	r3, [sp, #40]
 1889 0492 1A81     		strh	r2, [r3, #8]	@ movhi
 1890              		.loc 1 504 0
 1891 0494 0A9B     		ldr	r3, [sp, #40]
 1892 0496 0022     		movs	r2, #0
 1893 0498 9A72     		strb	r2, [r3, #10]
 1894              		.loc 1 505 0
 1895 049a 0A9B     		ldr	r3, [sp, #40]
 1896 049c 1B78     		ldrb	r3, [r3]	@ zero_extendqisi2
 1897 049e 43F02003 		orr	r3, r3, #32
 1898 04a2 DAB2     		uxtb	r2, r3
 1899 04a4 0A9B     		ldr	r3, [sp, #40]
 1900 04a6 1A70     		strb	r2, [r3]
 1901 04a8 40E0     		b	.L128
 1902              	.L142:
 1903              		.loc 1 507 0
 1904 04aa 9DF82130 		ldrb	r3, [sp, #33]	@ zero_extendqisi2
 1905 04ae 012B     		cmp	r3, #1
 1906 04b0 03D1     		bne	.L144
 1907              		.loc 1 508 0
 1908 04b2 BDF83A30 		ldrh	r3, [sp, #58]
 1909 04b6 00F08EBC 		b	.L108
 1910              	.L144:
 1911              		.loc 1 509 0
 1912 04ba 9DF82130 		ldrb	r3, [sp, #33]	@ zero_extendqisi2
 1913 04be 022B     		cmp	r3, #2
 1914 04c0 28D1     		bne	.L145
 1915              		.loc 1 511 0
 1916 04c2 019B     		ldr	r3, [sp, #4]
 1917 04c4 DA68     		ldr	r2, [r3, #12]
 1918 04c6 08AB     		add	r3, sp, #32
 1919 04c8 1046     		mov	r0, r2
 1920 04ca 1946     		mov	r1, r3
 1921 04cc 0222     		movs	r2, #2
 1922 04ce FFF7FEFF 		bl	gfileRead
 1923 04d2 0346     		mov	r3, r0
 1924 04d4 022B     		cmp	r3, #2
 1925 04d6 02D0     		beq	.L146
 1926              		.loc 1 512 0
 1927 04d8 0023     		movs	r3, #0
 1928 04da 00F07CBC 		b	.L108
 1929              	.L146:
 1930              		.loc 1 513 0
 1931 04de 9DF82030 		ldrb	r3, [sp, #32]	@ zero_extendqisi2
 1932 04e2 9AB2     		uxth	r2, r3
 1933 04e4 9DF82130 		ldrb	r3, [sp, #33]	@ zero_extendqisi2
 1934 04e8 99B2     		uxth	r1, r3
 1935 04ea 019B     		ldr	r3, [sp, #4]
 1936 04ec DB88     		ldrh	r3, [r3, #6]
ARM GAS  /tmp/cca9Q4lc.s 			page 35


 1937 04ee 9BB2     		uxth	r3, r3
 1938 04f0 11FB03F3 		smulbb	r3, r1, r3
 1939 04f4 9BB2     		uxth	r3, r3
 1940 04f6 1344     		add	r3, r3, r2
 1941 04f8 9AB2     		uxth	r2, r3
 1942 04fa 0A9B     		ldr	r3, [sp, #40]
 1943 04fc 1A81     		strh	r2, [r3, #8]	@ movhi
 1944              		.loc 1 514 0
 1945 04fe 0A9B     		ldr	r3, [sp, #40]
 1946 0500 0022     		movs	r2, #0
 1947 0502 9A72     		strb	r2, [r3, #10]
 1948              		.loc 1 515 0
 1949 0504 0A9B     		ldr	r3, [sp, #40]
 1950 0506 1B78     		ldrb	r3, [r3]	@ zero_extendqisi2
 1951 0508 43F02003 		orr	r3, r3, #32
 1952 050c DAB2     		uxtb	r2, r3
 1953 050e 0A9B     		ldr	r3, [sp, #40]
 1954 0510 1A70     		strb	r2, [r3]
 1955 0512 0BE0     		b	.L128
 1956              	.L145:
 1957              		.loc 1 517 0
 1958 0514 9DF82130 		ldrb	r3, [sp, #33]	@ zero_extendqisi2
 1959 0518 9AB2     		uxth	r2, r3
 1960 051a 0A9B     		ldr	r3, [sp, #40]
 1961 051c 1A81     		strh	r2, [r3, #8]	@ movhi
 1962              		.loc 1 518 0
 1963 051e 0A9B     		ldr	r3, [sp, #40]
 1964 0520 1B78     		ldrb	r3, [r3]	@ zero_extendqisi2
 1965 0522 43F04003 		orr	r3, r3, #64
 1966 0526 DAB2     		uxtb	r2, r3
 1967 0528 0A9B     		ldr	r3, [sp, #40]
 1968 052a 1A70     		strb	r2, [r3]
 1969              	.L128:
 1970              		.loc 1 451 0
 1971 052c 019B     		ldr	r3, [sp, #4]
 1972 052e DB88     		ldrh	r3, [r3, #6]
 1973 0530 BDF90220 		ldrsh	r2, [sp, #2]
 1974 0534 1BB2     		sxth	r3, r3
 1975 0536 9A42     		cmp	r2, r3
 1976 0538 FFF67AAE 		blt	.L147
 1977              		.loc 1 521 0
 1978 053c BDF83A30 		ldrh	r3, [sp, #58]
 1979 0540 00F049BC 		b	.L108
 1980              	.L127:
 1981              	.LBE3:
 1982              	.LBB4:
 1983              		.loc 1 528 0
 1984 0544 81E0     		b	.L148
 1985              	.L152:
 1986              		.loc 1 529 0
 1987 0546 019B     		ldr	r3, [sp, #4]
 1988 0548 DA68     		ldr	r2, [r3, #12]
 1989 054a 07AB     		add	r3, sp, #28
 1990 054c 1046     		mov	r0, r2
 1991 054e 1946     		mov	r1, r3
 1992 0550 0422     		movs	r2, #4
 1993 0552 FFF7FEFF 		bl	gfileRead
ARM GAS  /tmp/cca9Q4lc.s 			page 36


 1994 0556 0346     		mov	r3, r0
 1995 0558 042B     		cmp	r3, #4
 1996 055a 02D0     		beq	.L149
 1997              		.loc 1 530 0
 1998 055c 0023     		movs	r3, #0
 1999 055e 00F03ABC 		b	.L108
 2000              	.L149:
 2001              		.loc 1 532 0
 2002 0562 0F9B     		ldr	r3, [sp, #60]
 2003 0564 9A1C     		adds	r2, r3, #2
 2004 0566 0F92     		str	r2, [sp, #60]
 2005 0568 0A9A     		ldr	r2, [sp, #40]
 2006 056a 5168     		ldr	r1, [r2, #4]
 2007 056c 9DF81C20 		ldrb	r2, [sp, #28]	@ zero_extendqisi2
 2008 0570 1209     		lsrs	r2, r2, #4
 2009 0572 D2B2     		uxtb	r2, r2
 2010 0574 5200     		lsls	r2, r2, #1
 2011 0576 0A44     		add	r2, r2, r1
 2012 0578 1288     		ldrh	r2, [r2]
 2013 057a 1A80     		strh	r2, [r3]	@ movhi
 2014              		.loc 1 533 0
 2015 057c 0F9B     		ldr	r3, [sp, #60]
 2016 057e 9A1C     		adds	r2, r3, #2
 2017 0580 0F92     		str	r2, [sp, #60]
 2018 0582 0A9A     		ldr	r2, [sp, #40]
 2019 0584 5168     		ldr	r1, [r2, #4]
 2020 0586 9DF81C20 		ldrb	r2, [sp, #28]	@ zero_extendqisi2
 2021 058a 02F00F02 		and	r2, r2, #15
 2022 058e 5200     		lsls	r2, r2, #1
 2023 0590 0A44     		add	r2, r2, r1
 2024 0592 1288     		ldrh	r2, [r2]
 2025 0594 1A80     		strh	r2, [r3]	@ movhi
 2026              		.loc 1 534 0
 2027 0596 0F9B     		ldr	r3, [sp, #60]
 2028 0598 9A1C     		adds	r2, r3, #2
 2029 059a 0F92     		str	r2, [sp, #60]
 2030 059c 0A9A     		ldr	r2, [sp, #40]
 2031 059e 5168     		ldr	r1, [r2, #4]
 2032 05a0 9DF81D20 		ldrb	r2, [sp, #29]	@ zero_extendqisi2
 2033 05a4 1209     		lsrs	r2, r2, #4
 2034 05a6 D2B2     		uxtb	r2, r2
 2035 05a8 5200     		lsls	r2, r2, #1
 2036 05aa 0A44     		add	r2, r2, r1
 2037 05ac 1288     		ldrh	r2, [r2]
 2038 05ae 1A80     		strh	r2, [r3]	@ movhi
 2039              		.loc 1 535 0
 2040 05b0 0F9B     		ldr	r3, [sp, #60]
 2041 05b2 9A1C     		adds	r2, r3, #2
 2042 05b4 0F92     		str	r2, [sp, #60]
 2043 05b6 0A9A     		ldr	r2, [sp, #40]
 2044 05b8 5168     		ldr	r1, [r2, #4]
 2045 05ba 9DF81D20 		ldrb	r2, [sp, #29]	@ zero_extendqisi2
 2046 05be 02F00F02 		and	r2, r2, #15
 2047 05c2 5200     		lsls	r2, r2, #1
 2048 05c4 0A44     		add	r2, r2, r1
 2049 05c6 1288     		ldrh	r2, [r2]
 2050 05c8 1A80     		strh	r2, [r3]	@ movhi
ARM GAS  /tmp/cca9Q4lc.s 			page 37


 2051              		.loc 1 536 0
 2052 05ca 0F9B     		ldr	r3, [sp, #60]
 2053 05cc 9A1C     		adds	r2, r3, #2
 2054 05ce 0F92     		str	r2, [sp, #60]
 2055 05d0 0A9A     		ldr	r2, [sp, #40]
 2056 05d2 5168     		ldr	r1, [r2, #4]
 2057 05d4 9DF81E20 		ldrb	r2, [sp, #30]	@ zero_extendqisi2
 2058 05d8 1209     		lsrs	r2, r2, #4
 2059 05da D2B2     		uxtb	r2, r2
 2060 05dc 5200     		lsls	r2, r2, #1
 2061 05de 0A44     		add	r2, r2, r1
 2062 05e0 1288     		ldrh	r2, [r2]
 2063 05e2 1A80     		strh	r2, [r3]	@ movhi
 2064              		.loc 1 537 0
 2065 05e4 0F9B     		ldr	r3, [sp, #60]
 2066 05e6 9A1C     		adds	r2, r3, #2
 2067 05e8 0F92     		str	r2, [sp, #60]
 2068 05ea 0A9A     		ldr	r2, [sp, #40]
 2069 05ec 5168     		ldr	r1, [r2, #4]
 2070 05ee 9DF81E20 		ldrb	r2, [sp, #30]	@ zero_extendqisi2
 2071 05f2 02F00F02 		and	r2, r2, #15
 2072 05f6 5200     		lsls	r2, r2, #1
 2073 05f8 0A44     		add	r2, r2, r1
 2074 05fa 1288     		ldrh	r2, [r2]
 2075 05fc 1A80     		strh	r2, [r3]	@ movhi
 2076              		.loc 1 538 0
 2077 05fe 0F9B     		ldr	r3, [sp, #60]
 2078 0600 9A1C     		adds	r2, r3, #2
 2079 0602 0F92     		str	r2, [sp, #60]
 2080 0604 0A9A     		ldr	r2, [sp, #40]
 2081 0606 5168     		ldr	r1, [r2, #4]
 2082 0608 9DF81F20 		ldrb	r2, [sp, #31]	@ zero_extendqisi2
 2083 060c 1209     		lsrs	r2, r2, #4
 2084 060e D2B2     		uxtb	r2, r2
 2085 0610 5200     		lsls	r2, r2, #1
 2086 0612 0A44     		add	r2, r2, r1
 2087 0614 1288     		ldrh	r2, [r2]
 2088 0616 1A80     		strh	r2, [r3]	@ movhi
 2089              		.loc 1 539 0
 2090 0618 0F9B     		ldr	r3, [sp, #60]
 2091 061a 9A1C     		adds	r2, r3, #2
 2092 061c 0F92     		str	r2, [sp, #60]
 2093 061e 0A9A     		ldr	r2, [sp, #40]
 2094 0620 5168     		ldr	r1, [r2, #4]
 2095 0622 9DF81F20 		ldrb	r2, [sp, #31]	@ zero_extendqisi2
 2096 0626 02F00F02 		and	r2, r2, #15
 2097 062a 5200     		lsls	r2, r2, #1
 2098 062c 0A44     		add	r2, r2, r1
 2099 062e 1288     		ldrh	r2, [r2]
 2100 0630 1A80     		strh	r2, [r3]	@ movhi
 2101              		.loc 1 540 0
 2102 0632 BDF83A30 		ldrh	r3, [sp, #58]
 2103 0636 0833     		adds	r3, r3, #8
 2104 0638 9BB2     		uxth	r3, r3
 2105 063a ADF83A30 		strh	r3, [sp, #58]	@ movhi
 2106              		.loc 1 541 0
 2107 063e BDF80230 		ldrh	r3, [sp, #2]
ARM GAS  /tmp/cca9Q4lc.s 			page 38


 2108 0642 0833     		adds	r3, r3, #8
 2109 0644 9BB2     		uxth	r3, r3
 2110 0646 ADF80230 		strh	r3, [sp, #2]	@ movhi
 2111              	.L148:
 2112              		.loc 1 528 0
 2113 064a 019B     		ldr	r3, [sp, #4]
 2114 064c DB88     		ldrh	r3, [r3, #6]
 2115 064e BDF90220 		ldrsh	r2, [sp, #2]
 2116 0652 1BB2     		sxth	r3, r3
 2117 0654 9A42     		cmp	r2, r3
 2118 0656 04DA     		bge	.L151
 2119              		.loc 1 528 0 is_stmt 0 discriminator 1
 2120 0658 BDF93A30 		ldrsh	r3, [sp, #58]
 2121 065c 182B     		cmp	r3, #24
 2122 065e 7FF772AF 		ble	.L152
 2123              	.L151:
 2124              		.loc 1 543 0 is_stmt 1
 2125 0662 BDF83A30 		ldrh	r3, [sp, #58]
 2126 0666 B6E3     		b	.L108
 2127              	.L102:
 2128              	.LBE4:
 2129              		.loc 1 552 0
 2130 0668 0A9B     		ldr	r3, [sp, #40]
 2131 066a 1B78     		ldrb	r3, [r3]	@ zero_extendqisi2
 2132 066c 03F00803 		and	r3, r3, #8
 2133 0670 002B     		cmp	r3, #0
 2134 0672 00F03481 		beq	.L153
 2135              	.LBB5:
 2136              		.loc 1 557 0
 2137 0676 27E1     		b	.L154
 2138              	.L173:
 2139              		.loc 1 558 0
 2140 0678 0A9B     		ldr	r3, [sp, #40]
 2141 067a 1B78     		ldrb	r3, [r3]	@ zero_extendqisi2
 2142 067c 03F02003 		and	r3, r3, #32
 2143 0680 002B     		cmp	r3, #0
 2144 0682 35D0     		beq	.L155
 2145              		.loc 1 559 0
 2146 0684 1EE0     		b	.L156
 2147              	.L158:
 2148              		.loc 1 560 0
 2149 0686 0F9B     		ldr	r3, [sp, #60]
 2150 0688 9A1C     		adds	r2, r3, #2
 2151 068a 0F92     		str	r2, [sp, #60]
 2152 068c 0A9A     		ldr	r2, [sp, #40]
 2153 068e 5168     		ldr	r1, [r2, #4]
 2154 0690 0A9A     		ldr	r2, [sp, #40]
 2155 0692 927A     		ldrb	r2, [r2, #10]	@ zero_extendqisi2
 2156 0694 5200     		lsls	r2, r2, #1
 2157 0696 0A44     		add	r2, r2, r1
 2158 0698 1288     		ldrh	r2, [r2]
 2159 069a 1A80     		strh	r2, [r3]	@ movhi
 2160              		.loc 1 561 0
 2161 069c 0A9B     		ldr	r3, [sp, #40]
 2162 069e 1B89     		ldrh	r3, [r3, #8]
 2163 06a0 013B     		subs	r3, r3, #1
 2164 06a2 9AB2     		uxth	r2, r3
ARM GAS  /tmp/cca9Q4lc.s 			page 39


 2165 06a4 0A9B     		ldr	r3, [sp, #40]
 2166 06a6 1A81     		strh	r2, [r3, #8]	@ movhi
 2167              		.loc 1 562 0
 2168 06a8 BDF83A30 		ldrh	r3, [sp, #58]
 2169 06ac 9BB2     		uxth	r3, r3
 2170 06ae 0133     		adds	r3, r3, #1
 2171 06b0 9BB2     		uxth	r3, r3
 2172 06b2 ADF83A30 		strh	r3, [sp, #58]	@ movhi
 2173              		.loc 1 563 0
 2174 06b6 BDF80230 		ldrh	r3, [sp, #2]
 2175 06ba 9BB2     		uxth	r3, r3
 2176 06bc 0133     		adds	r3, r3, #1
 2177 06be 9BB2     		uxth	r3, r3
 2178 06c0 ADF80230 		strh	r3, [sp, #2]	@ movhi
 2179              	.L156:
 2180              		.loc 1 559 0
 2181 06c4 0A9B     		ldr	r3, [sp, #40]
 2182 06c6 1B89     		ldrh	r3, [r3, #8]
 2183 06c8 002B     		cmp	r3, #0
 2184 06ca 0AD0     		beq	.L157
 2185              		.loc 1 559 0 is_stmt 0 discriminator 1
 2186 06cc BDF93A30 		ldrsh	r3, [sp, #58]
 2187 06d0 1F2B     		cmp	r3, #31
 2188 06d2 06DC     		bgt	.L157
 2189              		.loc 1 559 0 discriminator 2
 2190 06d4 019B     		ldr	r3, [sp, #4]
 2191 06d6 DB88     		ldrh	r3, [r3, #6]
 2192 06d8 BDF90220 		ldrsh	r2, [sp, #2]
 2193 06dc 1BB2     		sxth	r3, r3
 2194 06de 9A42     		cmp	r2, r3
 2195 06e0 D1DB     		blt	.L158
 2196              	.L157:
 2197              		.loc 1 565 0 is_stmt 1
 2198 06e2 0A9B     		ldr	r3, [sp, #40]
 2199 06e4 1B89     		ldrh	r3, [r3, #8]
 2200 06e6 002B     		cmp	r3, #0
 2201 06e8 66D0     		beq	.L159
 2202              		.loc 1 566 0
 2203 06ea BDF83A30 		ldrh	r3, [sp, #58]
 2204 06ee 72E3     		b	.L108
 2205              	.L155:
 2206              		.loc 1 567 0
 2207 06f0 0A9B     		ldr	r3, [sp, #40]
 2208 06f2 1B78     		ldrb	r3, [r3]	@ zero_extendqisi2
 2209 06f4 03F04003 		and	r3, r3, #64
 2210 06f8 002B     		cmp	r3, #0
 2211 06fa 5DD0     		beq	.L159
 2212              		.loc 1 568 0
 2213 06fc 2BE0     		b	.L161
 2214              	.L164:
 2215              		.loc 1 569 0
 2216 06fe 019B     		ldr	r3, [sp, #4]
 2217 0700 DA68     		ldr	r2, [r3, #12]
 2218 0702 06AB     		add	r3, sp, #24
 2219 0704 1046     		mov	r0, r2
 2220 0706 1946     		mov	r1, r3
 2221 0708 0122     		movs	r2, #1
ARM GAS  /tmp/cca9Q4lc.s 			page 40


 2222 070a FFF7FEFF 		bl	gfileRead
 2223 070e 0346     		mov	r3, r0
 2224 0710 012B     		cmp	r3, #1
 2225 0712 01D0     		beq	.L162
 2226              		.loc 1 570 0
 2227 0714 0023     		movs	r3, #0
 2228 0716 5EE3     		b	.L108
 2229              	.L162:
 2230              		.loc 1 571 0
 2231 0718 0F9B     		ldr	r3, [sp, #60]
 2232 071a 9A1C     		adds	r2, r3, #2
 2233 071c 0F92     		str	r2, [sp, #60]
 2234 071e 0A9A     		ldr	r2, [sp, #40]
 2235 0720 5168     		ldr	r1, [r2, #4]
 2236 0722 9DF81820 		ldrb	r2, [sp, #24]	@ zero_extendqisi2
 2237 0726 5200     		lsls	r2, r2, #1
 2238 0728 0A44     		add	r2, r2, r1
 2239 072a 1288     		ldrh	r2, [r2]
 2240 072c 1A80     		strh	r2, [r3]	@ movhi
 2241              		.loc 1 572 0
 2242 072e 0A9B     		ldr	r3, [sp, #40]
 2243 0730 1B89     		ldrh	r3, [r3, #8]
 2244 0732 013B     		subs	r3, r3, #1
 2245 0734 9AB2     		uxth	r2, r3
 2246 0736 0A9B     		ldr	r3, [sp, #40]
 2247 0738 1A81     		strh	r2, [r3, #8]	@ movhi
 2248              		.loc 1 573 0
 2249 073a BDF83A30 		ldrh	r3, [sp, #58]
 2250 073e 9BB2     		uxth	r3, r3
 2251 0740 0133     		adds	r3, r3, #1
 2252 0742 9BB2     		uxth	r3, r3
 2253 0744 ADF83A30 		strh	r3, [sp, #58]	@ movhi
 2254              		.loc 1 574 0
 2255 0748 BDF80230 		ldrh	r3, [sp, #2]
 2256 074c 9BB2     		uxth	r3, r3
 2257 074e 0133     		adds	r3, r3, #1
 2258 0750 9BB2     		uxth	r3, r3
 2259 0752 ADF80230 		strh	r3, [sp, #2]	@ movhi
 2260              	.L161:
 2261              		.loc 1 568 0
 2262 0756 0A9B     		ldr	r3, [sp, #40]
 2263 0758 1B89     		ldrh	r3, [r3, #8]
 2264 075a 002B     		cmp	r3, #0
 2265 075c 0AD0     		beq	.L163
 2266              		.loc 1 568 0 is_stmt 0 discriminator 1
 2267 075e BDF93A30 		ldrsh	r3, [sp, #58]
 2268 0762 1F2B     		cmp	r3, #31
 2269 0764 06DC     		bgt	.L163
 2270              		.loc 1 568 0 discriminator 2
 2271 0766 019B     		ldr	r3, [sp, #4]
 2272 0768 DB88     		ldrh	r3, [r3, #6]
 2273 076a BDF90220 		ldrsh	r2, [sp, #2]
 2274 076e 1BB2     		sxth	r3, r3
 2275 0770 9A42     		cmp	r2, r3
 2276 0772 C4DB     		blt	.L164
 2277              	.L163:
 2278              		.loc 1 576 0 is_stmt 1
ARM GAS  /tmp/cca9Q4lc.s 			page 41


 2279 0774 0A9B     		ldr	r3, [sp, #40]
 2280 0776 1B89     		ldrh	r3, [r3, #8]
 2281 0778 002B     		cmp	r3, #0
 2282 077a 02D0     		beq	.L165
 2283              		.loc 1 577 0
 2284 077c BDF83A30 		ldrh	r3, [sp, #58]
 2285 0780 29E3     		b	.L108
 2286              	.L165:
 2287              		.loc 1 578 0
 2288 0782 019B     		ldr	r3, [sp, #4]
 2289 0784 DB68     		ldr	r3, [r3, #12]
 2290 0786 1846     		mov	r0, r3
 2291 0788 FFF7FEFF 		bl	gfileGetPos
 2292 078c 0346     		mov	r3, r0
 2293 078e 1A46     		mov	r2, r3
 2294 0790 0A9B     		ldr	r3, [sp, #40]
 2295 0792 1B6A     		ldr	r3, [r3, #32]
 2296 0794 D31A     		subs	r3, r2, r3
 2297 0796 03F00103 		and	r3, r3, #1
 2298 079a 002B     		cmp	r3, #0
 2299 079c 0CD0     		beq	.L159
 2300              		.loc 1 579 0
 2301 079e 019B     		ldr	r3, [sp, #4]
 2302 07a0 DA68     		ldr	r2, [r3, #12]
 2303 07a2 06AB     		add	r3, sp, #24
 2304 07a4 1046     		mov	r0, r2
 2305 07a6 1946     		mov	r1, r3
 2306 07a8 0122     		movs	r2, #1
 2307 07aa FFF7FEFF 		bl	gfileRead
 2308 07ae 0346     		mov	r3, r0
 2309 07b0 012B     		cmp	r3, #1
 2310 07b2 01D0     		beq	.L159
 2311              		.loc 1 580 0
 2312 07b4 0023     		movs	r3, #0
 2313 07b6 0EE3     		b	.L108
 2314              	.L159:
 2315              		.loc 1 585 0
 2316 07b8 0A9B     		ldr	r3, [sp, #40]
 2317 07ba 1B78     		ldrb	r3, [r3]	@ zero_extendqisi2
 2318 07bc 23F06003 		bic	r3, r3, #96
 2319 07c0 DAB2     		uxtb	r2, r3
 2320 07c2 0A9B     		ldr	r3, [sp, #40]
 2321 07c4 1A70     		strb	r2, [r3]
 2322              		.loc 1 588 0
 2323 07c6 019B     		ldr	r3, [sp, #4]
 2324 07c8 DA68     		ldr	r2, [r3, #12]
 2325 07ca 06AB     		add	r3, sp, #24
 2326 07cc 1046     		mov	r0, r2
 2327 07ce 1946     		mov	r1, r3
 2328 07d0 0222     		movs	r2, #2
 2329 07d2 FFF7FEFF 		bl	gfileRead
 2330 07d6 0346     		mov	r3, r0
 2331 07d8 022B     		cmp	r3, #2
 2332 07da 01D0     		beq	.L166
 2333              		.loc 1 589 0
 2334 07dc 0023     		movs	r3, #0
 2335 07de FAE2     		b	.L108
ARM GAS  /tmp/cca9Q4lc.s 			page 42


 2336              	.L166:
 2337              		.loc 1 591 0
 2338 07e0 9DF81830 		ldrb	r3, [sp, #24]	@ zero_extendqisi2
 2339 07e4 002B     		cmp	r3, #0
 2340 07e6 10D0     		beq	.L167
 2341              		.loc 1 592 0
 2342 07e8 9DF81830 		ldrb	r3, [sp, #24]	@ zero_extendqisi2
 2343 07ec 9AB2     		uxth	r2, r3
 2344 07ee 0A9B     		ldr	r3, [sp, #40]
 2345 07f0 1A81     		strh	r2, [r3, #8]	@ movhi
 2346              		.loc 1 593 0
 2347 07f2 9DF81920 		ldrb	r2, [sp, #25]	@ zero_extendqisi2
 2348 07f6 0A9B     		ldr	r3, [sp, #40]
 2349 07f8 9A72     		strb	r2, [r3, #10]
 2350              		.loc 1 594 0
 2351 07fa 0A9B     		ldr	r3, [sp, #40]
 2352 07fc 1B78     		ldrb	r3, [r3]	@ zero_extendqisi2
 2353 07fe 43F02003 		orr	r3, r3, #32
 2354 0802 DAB2     		uxtb	r2, r3
 2355 0804 0A9B     		ldr	r3, [sp, #40]
 2356 0806 1A70     		strb	r2, [r3]
 2357 0808 5EE0     		b	.L154
 2358              	.L167:
 2359              		.loc 1 595 0
 2360 080a 9DF81930 		ldrb	r3, [sp, #25]	@ zero_extendqisi2
 2361 080e 002B     		cmp	r3, #0
 2362 0810 1AD1     		bne	.L168
 2363              		.loc 1 596 0
 2364 0812 019B     		ldr	r3, [sp, #4]
 2365 0814 DB88     		ldrh	r3, [r3, #6]
 2366 0816 BDF90220 		ldrsh	r2, [sp, #2]
 2367 081a 1BB2     		sxth	r3, r3
 2368 081c 9A42     		cmp	r2, r3
 2369 081e 53DA     		bge	.L154
 2370              		.loc 1 597 0
 2371 0820 019B     		ldr	r3, [sp, #4]
 2372 0822 DB88     		ldrh	r3, [r3, #6]
 2373 0824 9AB2     		uxth	r2, r3
 2374 0826 BDF80230 		ldrh	r3, [sp, #2]
 2375 082a D31A     		subs	r3, r2, r3
 2376 082c 9AB2     		uxth	r2, r3
 2377 082e 0A9B     		ldr	r3, [sp, #40]
 2378 0830 1A81     		strh	r2, [r3, #8]	@ movhi
 2379              		.loc 1 598 0
 2380 0832 0A9B     		ldr	r3, [sp, #40]
 2381 0834 0022     		movs	r2, #0
 2382 0836 9A72     		strb	r2, [r3, #10]
 2383              		.loc 1 599 0
 2384 0838 0A9B     		ldr	r3, [sp, #40]
 2385 083a 1B78     		ldrb	r3, [r3]	@ zero_extendqisi2
 2386 083c 43F02003 		orr	r3, r3, #32
 2387 0840 DAB2     		uxtb	r2, r3
 2388 0842 0A9B     		ldr	r3, [sp, #40]
 2389 0844 1A70     		strb	r2, [r3]
 2390 0846 3FE0     		b	.L154
 2391              	.L168:
 2392              		.loc 1 601 0
ARM GAS  /tmp/cca9Q4lc.s 			page 43


 2393 0848 9DF81930 		ldrb	r3, [sp, #25]	@ zero_extendqisi2
 2394 084c 012B     		cmp	r3, #1
 2395 084e 02D1     		bne	.L170
 2396              		.loc 1 602 0
 2397 0850 BDF83A30 		ldrh	r3, [sp, #58]
 2398 0854 BFE2     		b	.L108
 2399              	.L170:
 2400              		.loc 1 603 0
 2401 0856 9DF81930 		ldrb	r3, [sp, #25]	@ zero_extendqisi2
 2402 085a 022B     		cmp	r3, #2
 2403 085c 28D1     		bne	.L171
 2404              		.loc 1 605 0
 2405 085e 019B     		ldr	r3, [sp, #4]
 2406 0860 DA68     		ldr	r2, [r3, #12]
 2407 0862 06AB     		add	r3, sp, #24
 2408 0864 1046     		mov	r0, r2
 2409 0866 1946     		mov	r1, r3
 2410 0868 0222     		movs	r2, #2
 2411 086a FFF7FEFF 		bl	gfileRead
 2412 086e 0346     		mov	r3, r0
 2413 0870 022B     		cmp	r3, #2
 2414 0872 02D0     		beq	.L172
 2415              		.loc 1 606 0
 2416 0874 48F20203 		movw	r3, #32770
 2417 0878 ADE2     		b	.L108
 2418              	.L172:
 2419              		.loc 1 607 0
 2420 087a 9DF81830 		ldrb	r3, [sp, #24]	@ zero_extendqisi2
 2421 087e 9AB2     		uxth	r2, r3
 2422 0880 9DF81930 		ldrb	r3, [sp, #25]	@ zero_extendqisi2
 2423 0884 99B2     		uxth	r1, r3
 2424 0886 019B     		ldr	r3, [sp, #4]
 2425 0888 DB88     		ldrh	r3, [r3, #6]
 2426 088a 9BB2     		uxth	r3, r3
 2427 088c 11FB03F3 		smulbb	r3, r1, r3
 2428 0890 9BB2     		uxth	r3, r3
 2429 0892 1344     		add	r3, r3, r2
 2430 0894 9AB2     		uxth	r2, r3
 2431 0896 0A9B     		ldr	r3, [sp, #40]
 2432 0898 1A81     		strh	r2, [r3, #8]	@ movhi
 2433              		.loc 1 608 0
 2434 089a 0A9B     		ldr	r3, [sp, #40]
 2435 089c 0022     		movs	r2, #0
 2436 089e 9A72     		strb	r2, [r3, #10]
 2437              		.loc 1 609 0
 2438 08a0 0A9B     		ldr	r3, [sp, #40]
 2439 08a2 1B78     		ldrb	r3, [r3]	@ zero_extendqisi2
 2440 08a4 43F02003 		orr	r3, r3, #32
 2441 08a8 DAB2     		uxtb	r2, r3
 2442 08aa 0A9B     		ldr	r3, [sp, #40]
 2443 08ac 1A70     		strb	r2, [r3]
 2444 08ae 0BE0     		b	.L154
 2445              	.L171:
 2446              		.loc 1 611 0
 2447 08b0 9DF81930 		ldrb	r3, [sp, #25]	@ zero_extendqisi2
 2448 08b4 9AB2     		uxth	r2, r3
 2449 08b6 0A9B     		ldr	r3, [sp, #40]
ARM GAS  /tmp/cca9Q4lc.s 			page 44


 2450 08b8 1A81     		strh	r2, [r3, #8]	@ movhi
 2451              		.loc 1 612 0
 2452 08ba 0A9B     		ldr	r3, [sp, #40]
 2453 08bc 1B78     		ldrb	r3, [r3]	@ zero_extendqisi2
 2454 08be 43F04003 		orr	r3, r3, #64
 2455 08c2 DAB2     		uxtb	r2, r3
 2456 08c4 0A9B     		ldr	r3, [sp, #40]
 2457 08c6 1A70     		strb	r2, [r3]
 2458              	.L154:
 2459              		.loc 1 557 0
 2460 08c8 019B     		ldr	r3, [sp, #4]
 2461 08ca DB88     		ldrh	r3, [r3, #6]
 2462 08cc BDF90220 		ldrsh	r2, [sp, #2]
 2463 08d0 1BB2     		sxth	r3, r3
 2464 08d2 9A42     		cmp	r2, r3
 2465 08d4 FFF6D0AE 		blt	.L173
 2466              		.loc 1 615 0
 2467 08d8 BDF83A30 		ldrh	r3, [sp, #58]
 2468 08dc 7BE2     		b	.L108
 2469              	.L153:
 2470              	.LBE5:
 2471              	.LBB6:
 2472              		.loc 1 622 0
 2473 08de 44E0     		b	.L174
 2474              	.L178:
 2475              		.loc 1 623 0
 2476 08e0 019B     		ldr	r3, [sp, #4]
 2477 08e2 DA68     		ldr	r2, [r3, #12]
 2478 08e4 05AB     		add	r3, sp, #20
 2479 08e6 1046     		mov	r0, r2
 2480 08e8 1946     		mov	r1, r3
 2481 08ea 0422     		movs	r2, #4
 2482 08ec FFF7FEFF 		bl	gfileRead
 2483 08f0 0346     		mov	r3, r0
 2484 08f2 042B     		cmp	r3, #4
 2485 08f4 01D0     		beq	.L175
 2486              		.loc 1 624 0
 2487 08f6 0023     		movs	r3, #0
 2488 08f8 6DE2     		b	.L108
 2489              	.L175:
 2490              		.loc 1 626 0
 2491 08fa 0F9B     		ldr	r3, [sp, #60]
 2492 08fc 9A1C     		adds	r2, r3, #2
 2493 08fe 0F92     		str	r2, [sp, #60]
 2494 0900 0A9A     		ldr	r2, [sp, #40]
 2495 0902 5168     		ldr	r1, [r2, #4]
 2496 0904 9DF81420 		ldrb	r2, [sp, #20]	@ zero_extendqisi2
 2497 0908 5200     		lsls	r2, r2, #1
 2498 090a 0A44     		add	r2, r2, r1
 2499 090c 1288     		ldrh	r2, [r2]
 2500 090e 1A80     		strh	r2, [r3]	@ movhi
 2501              		.loc 1 627 0
 2502 0910 0F9B     		ldr	r3, [sp, #60]
 2503 0912 9A1C     		adds	r2, r3, #2
 2504 0914 0F92     		str	r2, [sp, #60]
 2505 0916 0A9A     		ldr	r2, [sp, #40]
 2506 0918 5168     		ldr	r1, [r2, #4]
ARM GAS  /tmp/cca9Q4lc.s 			page 45


 2507 091a 9DF81520 		ldrb	r2, [sp, #21]	@ zero_extendqisi2
 2508 091e 5200     		lsls	r2, r2, #1
 2509 0920 0A44     		add	r2, r2, r1
 2510 0922 1288     		ldrh	r2, [r2]
 2511 0924 1A80     		strh	r2, [r3]	@ movhi
 2512              		.loc 1 628 0
 2513 0926 0F9B     		ldr	r3, [sp, #60]
 2514 0928 9A1C     		adds	r2, r3, #2
 2515 092a 0F92     		str	r2, [sp, #60]
 2516 092c 0A9A     		ldr	r2, [sp, #40]
 2517 092e 5168     		ldr	r1, [r2, #4]
 2518 0930 9DF81620 		ldrb	r2, [sp, #22]	@ zero_extendqisi2
 2519 0934 5200     		lsls	r2, r2, #1
 2520 0936 0A44     		add	r2, r2, r1
 2521 0938 1288     		ldrh	r2, [r2]
 2522 093a 1A80     		strh	r2, [r3]	@ movhi
 2523              		.loc 1 629 0
 2524 093c 0F9B     		ldr	r3, [sp, #60]
 2525 093e 9A1C     		adds	r2, r3, #2
 2526 0940 0F92     		str	r2, [sp, #60]
 2527 0942 0A9A     		ldr	r2, [sp, #40]
 2528 0944 5168     		ldr	r1, [r2, #4]
 2529 0946 9DF81720 		ldrb	r2, [sp, #23]	@ zero_extendqisi2
 2530 094a 5200     		lsls	r2, r2, #1
 2531 094c 0A44     		add	r2, r2, r1
 2532 094e 1288     		ldrh	r2, [r2]
 2533 0950 1A80     		strh	r2, [r3]	@ movhi
 2534              		.loc 1 630 0
 2535 0952 BDF83A30 		ldrh	r3, [sp, #58]
 2536 0956 0433     		adds	r3, r3, #4
 2537 0958 9BB2     		uxth	r3, r3
 2538 095a ADF83A30 		strh	r3, [sp, #58]	@ movhi
 2539              		.loc 1 631 0
 2540 095e BDF80230 		ldrh	r3, [sp, #2]
 2541 0962 0433     		adds	r3, r3, #4
 2542 0964 9BB2     		uxth	r3, r3
 2543 0966 ADF80230 		strh	r3, [sp, #2]	@ movhi
 2544              	.L174:
 2545              		.loc 1 622 0
 2546 096a 019B     		ldr	r3, [sp, #4]
 2547 096c DB88     		ldrh	r3, [r3, #6]
 2548 096e BDF90220 		ldrsh	r2, [sp, #2]
 2549 0972 1BB2     		sxth	r3, r3
 2550 0974 9A42     		cmp	r2, r3
 2551 0976 03DA     		bge	.L177
 2552              		.loc 1 622 0 is_stmt 0 discriminator 1
 2553 0978 BDF93A30 		ldrsh	r3, [sp, #58]
 2554 097c 1C2B     		cmp	r3, #28
 2555 097e AFDD     		ble	.L178
 2556              	.L177:
 2557              		.loc 1 633 0 is_stmt 1
 2558 0980 BDF83A30 		ldrh	r3, [sp, #58]
 2559 0984 27E2     		b	.L108
 2560              	.L194:
 2561              	.LBE6:
 2562              	.LBB7:
 2563              		.loc 1 645 0
ARM GAS  /tmp/cca9Q4lc.s 			page 46


 2564 0986 019B     		ldr	r3, [sp, #4]
 2565 0988 DA68     		ldr	r2, [r3, #12]
 2566 098a 04AB     		add	r3, sp, #16
 2567 098c 1046     		mov	r0, r2
 2568 098e 1946     		mov	r1, r3
 2569 0990 0422     		movs	r2, #4
 2570 0992 FFF7FEFF 		bl	gfileRead
 2571 0996 0346     		mov	r3, r0
 2572 0998 042B     		cmp	r3, #4
 2573 099a 01D0     		beq	.L180
 2574              		.loc 1 646 0
 2575 099c 0023     		movs	r3, #0
 2576 099e 1AE2     		b	.L108
 2577              	.L180:
 2578              		.loc 1 649 0
 2579 09a0 0A9B     		ldr	r3, [sp, #40]
 2580 09a2 DB7A     		ldrb	r3, [r3, #11]	@ zero_extendqisi2
 2581 09a4 5BB2     		sxtb	r3, r3
 2582 09a6 002B     		cmp	r3, #0
 2583 09a8 0EDA     		bge	.L181
 2584              		.loc 1 650 0
 2585 09aa BDF81030 		ldrh	r3, [sp, #16]
 2586 09ae 1A46     		mov	r2, r3
 2587 09b0 0A9B     		ldr	r3, [sp, #40]
 2588 09b2 1B69     		ldr	r3, [r3, #16]
 2589 09b4 1A40     		ands	r2, r2, r3
 2590 09b6 0A9B     		ldr	r3, [sp, #40]
 2591 09b8 DB7A     		ldrb	r3, [r3, #11]	@ zero_extendqisi2
 2592 09ba 5BB2     		sxtb	r3, r3
 2593 09bc 5B42     		negs	r3, r3
 2594 09be 02FA03F3 		lsl	r3, r2, r3
 2595 09c2 ADF83630 		strh	r3, [sp, #54]	@ movhi
 2596 09c6 0CE0     		b	.L182
 2597              	.L181:
 2598              		.loc 1 652 0
 2599 09c8 BDF81030 		ldrh	r3, [sp, #16]
 2600 09cc 1A46     		mov	r2, r3
 2601 09ce 0A9B     		ldr	r3, [sp, #40]
 2602 09d0 1B69     		ldr	r3, [r3, #16]
 2603 09d2 1A40     		ands	r2, r2, r3
 2604 09d4 0A9B     		ldr	r3, [sp, #40]
 2605 09d6 DB7A     		ldrb	r3, [r3, #11]	@ zero_extendqisi2
 2606 09d8 5BB2     		sxtb	r3, r3
 2607 09da 22FA03F3 		lsr	r3, r2, r3
 2608 09de ADF83630 		strh	r3, [sp, #54]	@ movhi
 2609              	.L182:
 2610              		.loc 1 653 0
 2611 09e2 0A9B     		ldr	r3, [sp, #40]
 2612 09e4 1B7B     		ldrb	r3, [r3, #12]	@ zero_extendqisi2
 2613 09e6 5BB2     		sxtb	r3, r3
 2614 09e8 002B     		cmp	r3, #0
 2615 09ea 0EDA     		bge	.L183
 2616              		.loc 1 654 0
 2617 09ec BDF81030 		ldrh	r3, [sp, #16]
 2618 09f0 1A46     		mov	r2, r3
 2619 09f2 0A9B     		ldr	r3, [sp, #40]
 2620 09f4 5B69     		ldr	r3, [r3, #20]
ARM GAS  /tmp/cca9Q4lc.s 			page 47


 2621 09f6 1A40     		ands	r2, r2, r3
 2622 09f8 0A9B     		ldr	r3, [sp, #40]
 2623 09fa 1B7B     		ldrb	r3, [r3, #12]	@ zero_extendqisi2
 2624 09fc 5BB2     		sxtb	r3, r3
 2625 09fe 5B42     		negs	r3, r3
 2626 0a00 02FA03F3 		lsl	r3, r2, r3
 2627 0a04 ADF83430 		strh	r3, [sp, #52]	@ movhi
 2628 0a08 0CE0     		b	.L184
 2629              	.L183:
 2630              		.loc 1 656 0
 2631 0a0a BDF81030 		ldrh	r3, [sp, #16]
 2632 0a0e 1A46     		mov	r2, r3
 2633 0a10 0A9B     		ldr	r3, [sp, #40]
 2634 0a12 5B69     		ldr	r3, [r3, #20]
 2635 0a14 1A40     		ands	r2, r2, r3
 2636 0a16 0A9B     		ldr	r3, [sp, #40]
 2637 0a18 1B7B     		ldrb	r3, [r3, #12]	@ zero_extendqisi2
 2638 0a1a 5BB2     		sxtb	r3, r3
 2639 0a1c 22FA03F3 		lsr	r3, r2, r3
 2640 0a20 ADF83430 		strh	r3, [sp, #52]	@ movhi
 2641              	.L184:
 2642              		.loc 1 657 0
 2643 0a24 0A9B     		ldr	r3, [sp, #40]
 2644 0a26 5B7B     		ldrb	r3, [r3, #13]	@ zero_extendqisi2
 2645 0a28 5BB2     		sxtb	r3, r3
 2646 0a2a 002B     		cmp	r3, #0
 2647 0a2c 0EDA     		bge	.L185
 2648              		.loc 1 658 0
 2649 0a2e BDF81030 		ldrh	r3, [sp, #16]
 2650 0a32 1A46     		mov	r2, r3
 2651 0a34 0A9B     		ldr	r3, [sp, #40]
 2652 0a36 9B69     		ldr	r3, [r3, #24]
 2653 0a38 1A40     		ands	r2, r2, r3
 2654 0a3a 0A9B     		ldr	r3, [sp, #40]
 2655 0a3c 5B7B     		ldrb	r3, [r3, #13]	@ zero_extendqisi2
 2656 0a3e 5BB2     		sxtb	r3, r3
 2657 0a40 5B42     		negs	r3, r3
 2658 0a42 02FA03F3 		lsl	r3, r2, r3
 2659 0a46 ADF83230 		strh	r3, [sp, #50]	@ movhi
 2660 0a4a 0CE0     		b	.L186
 2661              	.L185:
 2662              		.loc 1 660 0
 2663 0a4c BDF81030 		ldrh	r3, [sp, #16]
 2664 0a50 1A46     		mov	r2, r3
 2665 0a52 0A9B     		ldr	r3, [sp, #40]
 2666 0a54 9B69     		ldr	r3, [r3, #24]
 2667 0a56 1A40     		ands	r2, r2, r3
 2668 0a58 0A9B     		ldr	r3, [sp, #40]
 2669 0a5a 5B7B     		ldrb	r3, [r3, #13]	@ zero_extendqisi2
 2670 0a5c 5BB2     		sxtb	r3, r3
 2671 0a5e 22FA03F3 		lsr	r3, r2, r3
 2672 0a62 ADF83230 		strh	r3, [sp, #50]	@ movhi
 2673              	.L186:
 2674              		.loc 1 662 0
 2675 0a66 0F9B     		ldr	r3, [sp, #60]
 2676 0a68 9A1C     		adds	r2, r3, #2
 2677 0a6a 0F92     		str	r2, [sp, #60]
ARM GAS  /tmp/cca9Q4lc.s 			page 48


 2678 0a6c BDF83620 		ldrh	r2, [sp, #54]
 2679 0a70 02F0F802 		and	r2, r2, #248
 2680 0a74 1202     		lsls	r2, r2, #8
 2681 0a76 91B2     		uxth	r1, r2
 2682 0a78 BDF83420 		ldrh	r2, [sp, #52]
 2683 0a7c 02F0FC02 		and	r2, r2, #252
 2684 0a80 D200     		lsls	r2, r2, #3
 2685 0a82 92B2     		uxth	r2, r2
 2686 0a84 0A43     		orrs	r2, r2, r1
 2687 0a86 91B2     		uxth	r1, r2
 2688 0a88 BDF83220 		ldrh	r2, [sp, #50]
 2689 0a8c 02F0F802 		and	r2, r2, #248
 2690 0a90 D210     		asrs	r2, r2, #3
 2691 0a92 92B2     		uxth	r2, r2
 2692 0a94 0A43     		orrs	r2, r2, r1
 2693 0a96 92B2     		uxth	r2, r2
 2694 0a98 92B2     		uxth	r2, r2
 2695 0a9a 1A80     		strh	r2, [r3]	@ movhi
 2696              		.loc 1 663 0
 2697 0a9c 0A9B     		ldr	r3, [sp, #40]
 2698 0a9e DB7A     		ldrb	r3, [r3, #11]	@ zero_extendqisi2
 2699 0aa0 5BB2     		sxtb	r3, r3
 2700 0aa2 002B     		cmp	r3, #0
 2701 0aa4 0EDA     		bge	.L187
 2702              		.loc 1 664 0
 2703 0aa6 BDF81230 		ldrh	r3, [sp, #18]
 2704 0aaa 1A46     		mov	r2, r3
 2705 0aac 0A9B     		ldr	r3, [sp, #40]
 2706 0aae 1B69     		ldr	r3, [r3, #16]
 2707 0ab0 1A40     		ands	r2, r2, r3
 2708 0ab2 0A9B     		ldr	r3, [sp, #40]
 2709 0ab4 DB7A     		ldrb	r3, [r3, #11]	@ zero_extendqisi2
 2710 0ab6 5BB2     		sxtb	r3, r3
 2711 0ab8 5B42     		negs	r3, r3
 2712 0aba 02FA03F3 		lsl	r3, r2, r3
 2713 0abe ADF83630 		strh	r3, [sp, #54]	@ movhi
 2714 0ac2 0CE0     		b	.L188
 2715              	.L187:
 2716              		.loc 1 666 0
 2717 0ac4 BDF81230 		ldrh	r3, [sp, #18]
 2718 0ac8 1A46     		mov	r2, r3
 2719 0aca 0A9B     		ldr	r3, [sp, #40]
 2720 0acc 1B69     		ldr	r3, [r3, #16]
 2721 0ace 1A40     		ands	r2, r2, r3
 2722 0ad0 0A9B     		ldr	r3, [sp, #40]
 2723 0ad2 DB7A     		ldrb	r3, [r3, #11]	@ zero_extendqisi2
 2724 0ad4 5BB2     		sxtb	r3, r3
 2725 0ad6 22FA03F3 		lsr	r3, r2, r3
 2726 0ada ADF83630 		strh	r3, [sp, #54]	@ movhi
 2727              	.L188:
 2728              		.loc 1 667 0
 2729 0ade 0A9B     		ldr	r3, [sp, #40]
 2730 0ae0 1B7B     		ldrb	r3, [r3, #12]	@ zero_extendqisi2
 2731 0ae2 5BB2     		sxtb	r3, r3
 2732 0ae4 002B     		cmp	r3, #0
 2733 0ae6 0EDA     		bge	.L189
 2734              		.loc 1 668 0
ARM GAS  /tmp/cca9Q4lc.s 			page 49


 2735 0ae8 BDF81230 		ldrh	r3, [sp, #18]
 2736 0aec 1A46     		mov	r2, r3
 2737 0aee 0A9B     		ldr	r3, [sp, #40]
 2738 0af0 5B69     		ldr	r3, [r3, #20]
 2739 0af2 1A40     		ands	r2, r2, r3
 2740 0af4 0A9B     		ldr	r3, [sp, #40]
 2741 0af6 1B7B     		ldrb	r3, [r3, #12]	@ zero_extendqisi2
 2742 0af8 5BB2     		sxtb	r3, r3
 2743 0afa 5B42     		negs	r3, r3
 2744 0afc 02FA03F3 		lsl	r3, r2, r3
 2745 0b00 ADF83430 		strh	r3, [sp, #52]	@ movhi
 2746 0b04 0CE0     		b	.L190
 2747              	.L189:
 2748              		.loc 1 670 0
 2749 0b06 BDF81230 		ldrh	r3, [sp, #18]
 2750 0b0a 1A46     		mov	r2, r3
 2751 0b0c 0A9B     		ldr	r3, [sp, #40]
 2752 0b0e 5B69     		ldr	r3, [r3, #20]
 2753 0b10 1A40     		ands	r2, r2, r3
 2754 0b12 0A9B     		ldr	r3, [sp, #40]
 2755 0b14 1B7B     		ldrb	r3, [r3, #12]	@ zero_extendqisi2
 2756 0b16 5BB2     		sxtb	r3, r3
 2757 0b18 22FA03F3 		lsr	r3, r2, r3
 2758 0b1c ADF83430 		strh	r3, [sp, #52]	@ movhi
 2759              	.L190:
 2760              		.loc 1 671 0
 2761 0b20 0A9B     		ldr	r3, [sp, #40]
 2762 0b22 5B7B     		ldrb	r3, [r3, #13]	@ zero_extendqisi2
 2763 0b24 5BB2     		sxtb	r3, r3
 2764 0b26 002B     		cmp	r3, #0
 2765 0b28 0EDA     		bge	.L191
 2766              		.loc 1 672 0
 2767 0b2a BDF81230 		ldrh	r3, [sp, #18]
 2768 0b2e 1A46     		mov	r2, r3
 2769 0b30 0A9B     		ldr	r3, [sp, #40]
 2770 0b32 9B69     		ldr	r3, [r3, #24]
 2771 0b34 1A40     		ands	r2, r2, r3
 2772 0b36 0A9B     		ldr	r3, [sp, #40]
 2773 0b38 5B7B     		ldrb	r3, [r3, #13]	@ zero_extendqisi2
 2774 0b3a 5BB2     		sxtb	r3, r3
 2775 0b3c 5B42     		negs	r3, r3
 2776 0b3e 02FA03F3 		lsl	r3, r2, r3
 2777 0b42 ADF83230 		strh	r3, [sp, #50]	@ movhi
 2778 0b46 0DE0     		b	.L192
 2779              	.L191:
 2780              		.loc 1 674 0
 2781 0b48 BDF81230 		ldrh	r3, [sp, #18]
 2782 0b4c 1A46     		mov	r2, r3
 2783 0b4e 0A9B     		ldr	r3, [sp, #40]
 2784 0b50 9B69     		ldr	r3, [r3, #24]
 2785 0b52 1A40     		ands	r2, r2, r3
 2786 0b54 0A9B     		ldr	r3, [sp, #40]
 2787 0b56 5B7B     		ldrb	r3, [r3, #13]	@ zero_extendqisi2
 2788 0b58 5BB2     		sxtb	r3, r3
 2789 0b5a 22FA03F3 		lsr	r3, r2, r3
 2790 0b5e DBB2     		uxtb	r3, r3
 2791 0b60 ADF83230 		strh	r3, [sp, #50]	@ movhi
ARM GAS  /tmp/cca9Q4lc.s 			page 50


 2792              	.L192:
 2793              		.loc 1 676 0
 2794 0b64 0F9B     		ldr	r3, [sp, #60]
 2795 0b66 9A1C     		adds	r2, r3, #2
 2796 0b68 0F92     		str	r2, [sp, #60]
 2797 0b6a BDF83620 		ldrh	r2, [sp, #54]
 2798 0b6e 02F0F802 		and	r2, r2, #248
 2799 0b72 1202     		lsls	r2, r2, #8
 2800 0b74 91B2     		uxth	r1, r2
 2801 0b76 BDF83420 		ldrh	r2, [sp, #52]
 2802 0b7a 02F0FC02 		and	r2, r2, #252
 2803 0b7e D200     		lsls	r2, r2, #3
 2804 0b80 92B2     		uxth	r2, r2
 2805 0b82 0A43     		orrs	r2, r2, r1
 2806 0b84 91B2     		uxth	r1, r2
 2807 0b86 BDF83220 		ldrh	r2, [sp, #50]
 2808 0b8a 02F0F802 		and	r2, r2, #248
 2809 0b8e D210     		asrs	r2, r2, #3
 2810 0b90 92B2     		uxth	r2, r2
 2811 0b92 0A43     		orrs	r2, r2, r1
 2812 0b94 92B2     		uxth	r2, r2
 2813 0b96 92B2     		uxth	r2, r2
 2814 0b98 1A80     		strh	r2, [r3]	@ movhi
 2815              		.loc 1 677 0
 2816 0b9a BDF80230 		ldrh	r3, [sp, #2]
 2817 0b9e 0233     		adds	r3, r3, #2
 2818 0ba0 9BB2     		uxth	r3, r3
 2819 0ba2 ADF80230 		strh	r3, [sp, #2]	@ movhi
 2820              		.loc 1 678 0
 2821 0ba6 BDF83A30 		ldrh	r3, [sp, #58]
 2822 0baa 0233     		adds	r3, r3, #2
 2823 0bac 9BB2     		uxth	r3, r3
 2824 0bae ADF83A30 		strh	r3, [sp, #58]	@ movhi
 2825              	.L179:
 2826              		.loc 1 644 0
 2827 0bb2 019B     		ldr	r3, [sp, #4]
 2828 0bb4 DB88     		ldrh	r3, [r3, #6]
 2829 0bb6 BDF90220 		ldrsh	r2, [sp, #2]
 2830 0bba 1BB2     		sxth	r3, r3
 2831 0bbc 9A42     		cmp	r2, r3
 2832 0bbe 04DA     		bge	.L193
 2833              		.loc 1 644 0 is_stmt 0 discriminator 1
 2834 0bc0 BDF93A30 		ldrsh	r3, [sp, #58]
 2835 0bc4 1E2B     		cmp	r3, #30
 2836 0bc6 7FF7DEAE 		ble	.L194
 2837              	.L193:
 2838              	.LBE7:
 2839              		.loc 1 681 0 is_stmt 1
 2840 0bca BDF83A30 		ldrh	r3, [sp, #58]
 2841 0bce 02E1     		b	.L108
 2842              	.L199:
 2843              	.LBB8:
 2844              		.loc 1 690 0
 2845 0bd0 019B     		ldr	r3, [sp, #4]
 2846 0bd2 DA68     		ldr	r2, [r3, #12]
 2847 0bd4 03AB     		add	r3, sp, #12
 2848 0bd6 1046     		mov	r0, r2
ARM GAS  /tmp/cca9Q4lc.s 			page 51


 2849 0bd8 1946     		mov	r1, r3
 2850 0bda 0322     		movs	r2, #3
 2851 0bdc FFF7FEFF 		bl	gfileRead
 2852 0be0 0346     		mov	r3, r0
 2853 0be2 032B     		cmp	r3, #3
 2854 0be4 01D0     		beq	.L196
 2855              		.loc 1 691 0
 2856 0be6 0023     		movs	r3, #0
 2857 0be8 F5E0     		b	.L108
 2858              	.L196:
 2859              		.loc 1 692 0
 2860 0bea 0F9B     		ldr	r3, [sp, #60]
 2861 0bec 9A1C     		adds	r2, r3, #2
 2862 0bee 0F92     		str	r2, [sp, #60]
 2863 0bf0 9DF80E20 		ldrb	r2, [sp, #14]	@ zero_extendqisi2
 2864 0bf4 02F0F802 		and	r2, r2, #248
 2865 0bf8 1202     		lsls	r2, r2, #8
 2866 0bfa 91B2     		uxth	r1, r2
 2867 0bfc 9DF80D20 		ldrb	r2, [sp, #13]	@ zero_extendqisi2
 2868 0c00 02F0FC02 		and	r2, r2, #252
 2869 0c04 D200     		lsls	r2, r2, #3
 2870 0c06 92B2     		uxth	r2, r2
 2871 0c08 0A43     		orrs	r2, r2, r1
 2872 0c0a 91B2     		uxth	r1, r2
 2873 0c0c 9DF80C20 		ldrb	r2, [sp, #12]	@ zero_extendqisi2
 2874 0c10 D208     		lsrs	r2, r2, #3
 2875 0c12 D2B2     		uxtb	r2, r2
 2876 0c14 92B2     		uxth	r2, r2
 2877 0c16 0A43     		orrs	r2, r2, r1
 2878 0c18 92B2     		uxth	r2, r2
 2879 0c1a 92B2     		uxth	r2, r2
 2880 0c1c 1A80     		strh	r2, [r3]	@ movhi
 2881              		.loc 1 693 0
 2882 0c1e BDF80230 		ldrh	r3, [sp, #2]
 2883 0c22 9BB2     		uxth	r3, r3
 2884 0c24 0133     		adds	r3, r3, #1
 2885 0c26 9BB2     		uxth	r3, r3
 2886 0c28 ADF80230 		strh	r3, [sp, #2]	@ movhi
 2887              		.loc 1 694 0
 2888 0c2c BDF83A30 		ldrh	r3, [sp, #58]
 2889 0c30 9BB2     		uxth	r3, r3
 2890 0c32 0133     		adds	r3, r3, #1
 2891 0c34 9BB2     		uxth	r3, r3
 2892 0c36 ADF83A30 		strh	r3, [sp, #58]	@ movhi
 2893              	.L195:
 2894              		.loc 1 689 0
 2895 0c3a 019B     		ldr	r3, [sp, #4]
 2896 0c3c DB88     		ldrh	r3, [r3, #6]
 2897 0c3e BDF90220 		ldrsh	r2, [sp, #2]
 2898 0c42 1BB2     		sxth	r3, r3
 2899 0c44 9A42     		cmp	r2, r3
 2900 0c46 03DA     		bge	.L198
 2901              		.loc 1 689 0 is_stmt 0 discriminator 1
 2902 0c48 BDF93A30 		ldrsh	r3, [sp, #58]
 2903 0c4c 1F2B     		cmp	r3, #31
 2904 0c4e BFDD     		ble	.L199
 2905              	.L198:
ARM GAS  /tmp/cca9Q4lc.s 			page 52


 2906              		.loc 1 697 0 is_stmt 1
 2907 0c50 019B     		ldr	r3, [sp, #4]
 2908 0c52 DB88     		ldrh	r3, [r3, #6]
 2909 0c54 BDF90220 		ldrsh	r2, [sp, #2]
 2910 0c58 1BB2     		sxth	r3, r3
 2911 0c5a 9A42     		cmp	r2, r3
 2912 0c5c 1ADB     		blt	.L200
 2913              		.loc 1 699 0
 2914 0c5e BDF80230 		ldrh	r3, [sp, #2]
 2915 0c62 03F00303 		and	r3, r3, #3
 2916 0c66 002B     		cmp	r3, #0
 2917 0c68 14D0     		beq	.L200
 2918              		.loc 1 699 0 is_stmt 0 discriminator 1
 2919 0c6a 019B     		ldr	r3, [sp, #4]
 2920 0c6c D968     		ldr	r1, [r3, #12]
 2921 0c6e BDF80230 		ldrh	r3, [sp, #2]
 2922 0c72 03F00303 		and	r3, r3, #3
 2923 0c76 03AA     		add	r2, sp, #12
 2924 0c78 0846     		mov	r0, r1
 2925 0c7a 1146     		mov	r1, r2
 2926 0c7c 1A46     		mov	r2, r3
 2927 0c7e FFF7FEFF 		bl	gfileRead
 2928 0c82 0246     		mov	r2, r0
 2929 0c84 BDF80230 		ldrh	r3, [sp, #2]
 2930 0c88 03F00303 		and	r3, r3, #3
 2931 0c8c 9A42     		cmp	r2, r3
 2932 0c8e 01D0     		beq	.L200
 2933              		.loc 1 700 0 is_stmt 1
 2934 0c90 0023     		movs	r3, #0
 2935 0c92 A0E0     		b	.L108
 2936              	.L200:
 2937              	.LBE8:
 2938              		.loc 1 703 0
 2939 0c94 BDF83A30 		ldrh	r3, [sp, #58]
 2940 0c98 9DE0     		b	.L108
 2941              	.L210:
 2942              	.LBB9:
 2943              		.loc 1 713 0
 2944 0c9a 019B     		ldr	r3, [sp, #4]
 2945 0c9c DA68     		ldr	r2, [r3, #12]
 2946 0c9e 02AB     		add	r3, sp, #8
 2947 0ca0 1046     		mov	r0, r2
 2948 0ca2 1946     		mov	r1, r3
 2949 0ca4 0422     		movs	r2, #4
 2950 0ca6 FFF7FEFF 		bl	gfileRead
 2951 0caa 0346     		mov	r3, r0
 2952 0cac 042B     		cmp	r3, #4
 2953 0cae 01D0     		beq	.L202
 2954              		.loc 1 714 0
 2955 0cb0 0023     		movs	r3, #0
 2956 0cb2 90E0     		b	.L108
 2957              	.L202:
 2958              		.loc 1 716 0
 2959 0cb4 0A9B     		ldr	r3, [sp, #40]
 2960 0cb6 DB7A     		ldrb	r3, [r3, #11]	@ zero_extendqisi2
 2961 0cb8 5BB2     		sxtb	r3, r3
 2962 0cba 002B     		cmp	r3, #0
ARM GAS  /tmp/cca9Q4lc.s 			page 53


 2963 0cbc 0CDA     		bge	.L203
 2964              		.loc 1 717 0
 2965 0cbe 0A9B     		ldr	r3, [sp, #40]
 2966 0cc0 1A69     		ldr	r2, [r3, #16]
 2967 0cc2 029B     		ldr	r3, [sp, #8]
 2968 0cc4 1A40     		ands	r2, r2, r3
 2969 0cc6 0A9B     		ldr	r3, [sp, #40]
 2970 0cc8 DB7A     		ldrb	r3, [r3, #11]	@ zero_extendqisi2
 2971 0cca 5BB2     		sxtb	r3, r3
 2972 0ccc 5B42     		negs	r3, r3
 2973 0cce 02FA03F3 		lsl	r3, r2, r3
 2974 0cd2 ADF83030 		strh	r3, [sp, #48]	@ movhi
 2975 0cd6 0AE0     		b	.L204
 2976              	.L203:
 2977              		.loc 1 719 0
 2978 0cd8 0A9B     		ldr	r3, [sp, #40]
 2979 0cda 1A69     		ldr	r2, [r3, #16]
 2980 0cdc 029B     		ldr	r3, [sp, #8]
 2981 0cde 1A40     		ands	r2, r2, r3
 2982 0ce0 0A9B     		ldr	r3, [sp, #40]
 2983 0ce2 DB7A     		ldrb	r3, [r3, #11]	@ zero_extendqisi2
 2984 0ce4 5BB2     		sxtb	r3, r3
 2985 0ce6 22FA03F3 		lsr	r3, r2, r3
 2986 0cea ADF83030 		strh	r3, [sp, #48]	@ movhi
 2987              	.L204:
 2988              		.loc 1 720 0
 2989 0cee 0A9B     		ldr	r3, [sp, #40]
 2990 0cf0 1B7B     		ldrb	r3, [r3, #12]	@ zero_extendqisi2
 2991 0cf2 5BB2     		sxtb	r3, r3
 2992 0cf4 002B     		cmp	r3, #0
 2993 0cf6 0CDA     		bge	.L205
 2994              		.loc 1 721 0
 2995 0cf8 0A9B     		ldr	r3, [sp, #40]
 2996 0cfa 5A69     		ldr	r2, [r3, #20]
 2997 0cfc 029B     		ldr	r3, [sp, #8]
 2998 0cfe 1A40     		ands	r2, r2, r3
 2999 0d00 0A9B     		ldr	r3, [sp, #40]
 3000 0d02 1B7B     		ldrb	r3, [r3, #12]	@ zero_extendqisi2
 3001 0d04 5BB2     		sxtb	r3, r3
 3002 0d06 5B42     		negs	r3, r3
 3003 0d08 02FA03F3 		lsl	r3, r2, r3
 3004 0d0c ADF82E30 		strh	r3, [sp, #46]	@ movhi
 3005 0d10 0AE0     		b	.L206
 3006              	.L205:
 3007              		.loc 1 723 0
 3008 0d12 0A9B     		ldr	r3, [sp, #40]
 3009 0d14 5A69     		ldr	r2, [r3, #20]
 3010 0d16 029B     		ldr	r3, [sp, #8]
 3011 0d18 1A40     		ands	r2, r2, r3
 3012 0d1a 0A9B     		ldr	r3, [sp, #40]
 3013 0d1c 1B7B     		ldrb	r3, [r3, #12]	@ zero_extendqisi2
 3014 0d1e 5BB2     		sxtb	r3, r3
 3015 0d20 22FA03F3 		lsr	r3, r2, r3
 3016 0d24 ADF82E30 		strh	r3, [sp, #46]	@ movhi
 3017              	.L206:
 3018              		.loc 1 724 0
 3019 0d28 0A9B     		ldr	r3, [sp, #40]
ARM GAS  /tmp/cca9Q4lc.s 			page 54


 3020 0d2a 5B7B     		ldrb	r3, [r3, #13]	@ zero_extendqisi2
 3021 0d2c 5BB2     		sxtb	r3, r3
 3022 0d2e 002B     		cmp	r3, #0
 3023 0d30 0CDA     		bge	.L207
 3024              		.loc 1 725 0
 3025 0d32 0A9B     		ldr	r3, [sp, #40]
 3026 0d34 9A69     		ldr	r2, [r3, #24]
 3027 0d36 029B     		ldr	r3, [sp, #8]
 3028 0d38 1A40     		ands	r2, r2, r3
 3029 0d3a 0A9B     		ldr	r3, [sp, #40]
 3030 0d3c 5B7B     		ldrb	r3, [r3, #13]	@ zero_extendqisi2
 3031 0d3e 5BB2     		sxtb	r3, r3
 3032 0d40 5B42     		negs	r3, r3
 3033 0d42 02FA03F3 		lsl	r3, r2, r3
 3034 0d46 ADF82C30 		strh	r3, [sp, #44]	@ movhi
 3035 0d4a 0AE0     		b	.L208
 3036              	.L207:
 3037              		.loc 1 727 0
 3038 0d4c 0A9B     		ldr	r3, [sp, #40]
 3039 0d4e 9A69     		ldr	r2, [r3, #24]
 3040 0d50 029B     		ldr	r3, [sp, #8]
 3041 0d52 1A40     		ands	r2, r2, r3
 3042 0d54 0A9B     		ldr	r3, [sp, #40]
 3043 0d56 5B7B     		ldrb	r3, [r3, #13]	@ zero_extendqisi2
 3044 0d58 5BB2     		sxtb	r3, r3
 3045 0d5a 22FA03F3 		lsr	r3, r2, r3
 3046 0d5e ADF82C30 		strh	r3, [sp, #44]	@ movhi
 3047              	.L208:
 3048              		.loc 1 729 0
 3049 0d62 0F9B     		ldr	r3, [sp, #60]
 3050 0d64 9A1C     		adds	r2, r3, #2
 3051 0d66 0F92     		str	r2, [sp, #60]
 3052 0d68 BDF83020 		ldrh	r2, [sp, #48]
 3053 0d6c 02F0F802 		and	r2, r2, #248
 3054 0d70 1202     		lsls	r2, r2, #8
 3055 0d72 91B2     		uxth	r1, r2
 3056 0d74 BDF82E20 		ldrh	r2, [sp, #46]
 3057 0d78 02F0FC02 		and	r2, r2, #252
 3058 0d7c D200     		lsls	r2, r2, #3
 3059 0d7e 92B2     		uxth	r2, r2
 3060 0d80 0A43     		orrs	r2, r2, r1
 3061 0d82 91B2     		uxth	r1, r2
 3062 0d84 BDF82C20 		ldrh	r2, [sp, #44]
 3063 0d88 02F0F802 		and	r2, r2, #248
 3064 0d8c D210     		asrs	r2, r2, #3
 3065 0d8e 92B2     		uxth	r2, r2
 3066 0d90 0A43     		orrs	r2, r2, r1
 3067 0d92 92B2     		uxth	r2, r2
 3068 0d94 92B2     		uxth	r2, r2
 3069 0d96 1A80     		strh	r2, [r3]	@ movhi
 3070              		.loc 1 730 0
 3071 0d98 BDF80230 		ldrh	r3, [sp, #2]
 3072 0d9c 9BB2     		uxth	r3, r3
 3073 0d9e 0133     		adds	r3, r3, #1
 3074 0da0 9BB2     		uxth	r3, r3
 3075 0da2 ADF80230 		strh	r3, [sp, #2]	@ movhi
 3076              		.loc 1 731 0
ARM GAS  /tmp/cca9Q4lc.s 			page 55


 3077 0da6 BDF83A30 		ldrh	r3, [sp, #58]
 3078 0daa 9BB2     		uxth	r3, r3
 3079 0dac 0133     		adds	r3, r3, #1
 3080 0dae 9BB2     		uxth	r3, r3
 3081 0db0 ADF83A30 		strh	r3, [sp, #58]	@ movhi
 3082              	.L201:
 3083              		.loc 1 712 0
 3084 0db4 019B     		ldr	r3, [sp, #4]
 3085 0db6 DB88     		ldrh	r3, [r3, #6]
 3086 0db8 BDF90220 		ldrsh	r2, [sp, #2]
 3087 0dbc 1BB2     		sxth	r3, r3
 3088 0dbe 9A42     		cmp	r2, r3
 3089 0dc0 04DA     		bge	.L209
 3090              		.loc 1 712 0 is_stmt 0 discriminator 1
 3091 0dc2 BDF93A30 		ldrsh	r3, [sp, #58]
 3092 0dc6 1F2B     		cmp	r3, #31
 3093 0dc8 7FF767AF 		ble	.L210
 3094              	.L209:
 3095              	.LBE9:
 3096              		.loc 1 734 0 is_stmt 1
 3097 0dcc BDF83A30 		ldrh	r3, [sp, #58]
 3098 0dd0 01E0     		b	.L108
 3099              	.L98:
 3100              		.loc 1 738 0
 3101 0dd2 BDF83A30 		ldrh	r3, [sp, #58]
 3102              	.L108:
 3103 0dd6 1BB2     		sxth	r3, r3
 3104              		.loc 1 740 0 discriminator 1
 3105 0dd8 1846     		mov	r0, r3
 3106 0dda 11B0     		add	sp, sp, #68
 3107              		.cfi_def_cfa_offset 4
 3108              		@ sp needed
 3109 0ddc 5DF804FB 		ldr	pc, [sp], #4
 3110              		.cfi_endproc
 3111              	.LFE113:
 3112              		.size	getPixels, .-getPixels
 3113              		.section	.text.gdispImageCache_BMP,"ax",%progbits
 3114              		.align	2
 3115              		.p2align 4,,15
 3116              		.global	gdispImageCache_BMP
 3117              		.thumb
 3118              		.thumb_func
 3119              		.type	gdispImageCache_BMP, %function
 3120              	gdispImageCache_BMP:
 3121              	.LFB114:
 3122              		.loc 1 742 0
 3123              		.cfi_startproc
 3124              		@ args = 0, pretend = 0, frame = 32
 3125              		@ frame_needed = 0, uses_anonymous_args = 0
 3126 0000 00B5     		push	{lr}
 3127              		.cfi_def_cfa_offset 4
 3128              		.cfi_offset 14, -4
 3129 0002 89B0     		sub	sp, sp, #36
 3130              		.cfi_def_cfa_offset 40
 3131 0004 0190     		str	r0, [sp, #4]
 3132              		.loc 1 750 0
 3133 0006 019B     		ldr	r3, [sp, #4]
ARM GAS  /tmp/cca9Q4lc.s 			page 56


 3134 0008 5B69     		ldr	r3, [r3, #20]
 3135 000a 0393     		str	r3, [sp, #12]
 3136              		.loc 1 751 0
 3137 000c 039B     		ldr	r3, [sp, #12]
 3138 000e 5B6A     		ldr	r3, [r3, #36]
 3139 0010 002B     		cmp	r3, #0
 3140 0012 01D0     		beq	.L212
 3141              		.loc 1 752 0
 3142 0014 0023     		movs	r3, #0
 3143 0016 E1E0     		b	.L213
 3144              	.L212:
 3145              		.loc 1 755 0
 3146 0018 019B     		ldr	r3, [sp, #4]
 3147 001a DB88     		ldrh	r3, [r3, #6]
 3148 001c 1BB2     		sxth	r3, r3
 3149 001e 019A     		ldr	r2, [sp, #4]
 3150 0020 1289     		ldrh	r2, [r2, #8]
 3151 0022 12B2     		sxth	r2, r2
 3152 0024 02FB03F3 		mul	r3, r2, r3
 3153 0028 5B00     		lsls	r3, r3, #1
 3154 002a 0293     		str	r3, [sp, #8]
 3155              		.loc 1 756 0
 3156 002c 0198     		ldr	r0, [sp, #4]
 3157 002e 0299     		ldr	r1, [sp, #8]
 3158 0030 FFF7FEFF 		bl	gdispImageAlloc
 3159 0034 0246     		mov	r2, r0
 3160 0036 039B     		ldr	r3, [sp, #12]
 3161 0038 5A62     		str	r2, [r3, #36]
 3162              		.loc 1 757 0
 3163 003a 039B     		ldr	r3, [sp, #12]
 3164 003c 5B6A     		ldr	r3, [r3, #36]
 3165 003e 002B     		cmp	r3, #0
 3166 0040 02D1     		bne	.L214
 3167              		.loc 1 758 0
 3168 0042 48F20403 		movw	r3, #32772
 3169 0046 C9E0     		b	.L213
 3170              	.L214:
 3171              		.loc 1 761 0
 3172 0048 019B     		ldr	r3, [sp, #4]
 3173 004a DA68     		ldr	r2, [r3, #12]
 3174 004c 039B     		ldr	r3, [sp, #12]
 3175 004e 1B6A     		ldr	r3, [r3, #32]
 3176 0050 1046     		mov	r0, r2
 3177 0052 1946     		mov	r1, r3
 3178 0054 FFF7FEFF 		bl	gfileSetPos
 3179              		.loc 1 763 0
 3180 0058 039B     		ldr	r3, [sp, #12]
 3181 005a 0022     		movs	r2, #0
 3182 005c 1A81     		strh	r2, [r3, #8]	@ movhi
 3183              		.loc 1 764 0
 3184 005e 039B     		ldr	r3, [sp, #12]
 3185 0060 0022     		movs	r2, #0
 3186 0062 9A72     		strb	r2, [r3, #10]
 3187              		.loc 1 767 0
 3188 0064 039B     		ldr	r3, [sp, #12]
 3189 0066 1B78     		ldrb	r3, [r3]	@ zero_extendqisi2
 3190 0068 DBB2     		uxtb	r3, r3
ARM GAS  /tmp/cca9Q4lc.s 			page 57


 3191 006a 5BB2     		sxtb	r3, r3
 3192 006c 002B     		cmp	r3, #0
 3193 006e 50DA     		bge	.L215
 3194              		.loc 1 768 0
 3195 0070 0023     		movs	r3, #0
 3196 0072 ADF81230 		strh	r3, [sp, #18]	@ movhi
 3197 0076 039B     		ldr	r3, [sp, #12]
 3198 0078 5B6A     		ldr	r3, [r3, #36]
 3199 007a 0693     		str	r3, [sp, #24]
 3200 007c 41E0     		b	.L216
 3201              	.L221:
 3202              		.loc 1 769 0
 3203 007e 0023     		movs	r3, #0
 3204 0080 ADF81430 		strh	r3, [sp, #20]	@ movhi
 3205 0084 0023     		movs	r3, #0
 3206 0086 ADF81630 		strh	r3, [sp, #22]	@ movhi
 3207              		.loc 1 770 0
 3208 008a 2CE0     		b	.L217
 3209              	.L220:
 3210              		.loc 1 771 0
 3211 008c BDF91630 		ldrsh	r3, [sp, #22]
 3212 0090 002B     		cmp	r3, #0
 3213 0092 12D1     		bne	.L218
 3214              		.loc 1 772 0
 3215 0094 BDF91430 		ldrsh	r3, [sp, #20]
 3216 0098 0198     		ldr	r0, [sp, #4]
 3217 009a 1946     		mov	r1, r3
 3218 009c FFF7FEFF 		bl	getPixels
 3219 00a0 0346     		mov	r3, r0
 3220 00a2 ADF81630 		strh	r3, [sp, #22]	@ movhi
 3221 00a6 BDF91630 		ldrsh	r3, [sp, #22]
 3222 00aa 002B     		cmp	r3, #0
 3223 00ac 02D1     		bne	.L219
 3224              		.loc 1 773 0
 3225 00ae 48F20203 		movw	r3, #32770
 3226 00b2 93E0     		b	.L213
 3227              	.L219:
 3228              		.loc 1 774 0
 3229 00b4 039B     		ldr	r3, [sp, #12]
 3230 00b6 2833     		adds	r3, r3, #40
 3231 00b8 0793     		str	r3, [sp, #28]
 3232              	.L218:
 3233              		.loc 1 776 0
 3234 00ba 069B     		ldr	r3, [sp, #24]
 3235 00bc 9A1C     		adds	r2, r3, #2
 3236 00be 0692     		str	r2, [sp, #24]
 3237 00c0 079A     		ldr	r2, [sp, #28]
 3238 00c2 911C     		adds	r1, r2, #2
 3239 00c4 0791     		str	r1, [sp, #28]
 3240 00c6 1288     		ldrh	r2, [r2]
 3241 00c8 1A80     		strh	r2, [r3]	@ movhi
 3242              		.loc 1 777 0
 3243 00ca BDF81430 		ldrh	r3, [sp, #20]
 3244 00ce 9BB2     		uxth	r3, r3
 3245 00d0 0133     		adds	r3, r3, #1
 3246 00d2 9BB2     		uxth	r3, r3
 3247 00d4 ADF81430 		strh	r3, [sp, #20]	@ movhi
ARM GAS  /tmp/cca9Q4lc.s 			page 58


 3248 00d8 BDF81630 		ldrh	r3, [sp, #22]
 3249 00dc 9BB2     		uxth	r3, r3
 3250 00de 013B     		subs	r3, r3, #1
 3251 00e0 9BB2     		uxth	r3, r3
 3252 00e2 ADF81630 		strh	r3, [sp, #22]	@ movhi
 3253              	.L217:
 3254              		.loc 1 770 0
 3255 00e6 019B     		ldr	r3, [sp, #4]
 3256 00e8 DB88     		ldrh	r3, [r3, #6]
 3257 00ea BDF91420 		ldrsh	r2, [sp, #20]
 3258 00ee 1BB2     		sxth	r3, r3
 3259 00f0 9A42     		cmp	r2, r3
 3260 00f2 CBDB     		blt	.L220
 3261              		.loc 1 768 0 discriminator 2
 3262 00f4 BDF81230 		ldrh	r3, [sp, #18]
 3263 00f8 9BB2     		uxth	r3, r3
 3264 00fa 0133     		adds	r3, r3, #1
 3265 00fc 9BB2     		uxth	r3, r3
 3266 00fe ADF81230 		strh	r3, [sp, #18]	@ movhi
 3267              	.L216:
 3268              		.loc 1 768 0 is_stmt 0 discriminator 1
 3269 0102 019B     		ldr	r3, [sp, #4]
 3270 0104 1B89     		ldrh	r3, [r3, #8]
 3271 0106 BDF91220 		ldrsh	r2, [sp, #18]
 3272 010a 1BB2     		sxth	r3, r3
 3273 010c 9A42     		cmp	r2, r3
 3274 010e B6DB     		blt	.L221
 3275 0110 63E0     		b	.L222
 3276              	.L215:
 3277              		.loc 1 781 0 is_stmt 1
 3278 0112 019B     		ldr	r3, [sp, #4]
 3279 0114 1B89     		ldrh	r3, [r3, #8]
 3280 0116 9BB2     		uxth	r3, r3
 3281 0118 013B     		subs	r3, r3, #1
 3282 011a 9BB2     		uxth	r3, r3
 3283 011c ADF81230 		strh	r3, [sp, #18]	@ movhi
 3284 0120 039B     		ldr	r3, [sp, #12]
 3285 0122 5A6A     		ldr	r2, [r3, #36]
 3286 0124 019B     		ldr	r3, [sp, #4]
 3287 0126 DB88     		ldrh	r3, [r3, #6]
 3288 0128 1BB2     		sxth	r3, r3
 3289 012a 0199     		ldr	r1, [sp, #4]
 3290 012c 0989     		ldrh	r1, [r1, #8]
 3291 012e 09B2     		sxth	r1, r1
 3292 0130 0139     		subs	r1, r1, #1
 3293 0132 01FB03F3 		mul	r3, r1, r3
 3294 0136 5B00     		lsls	r3, r3, #1
 3295 0138 1344     		add	r3, r3, r2
 3296 013a 0693     		str	r3, [sp, #24]
 3297 013c 49E0     		b	.L223
 3298              	.L228:
 3299              		.loc 1 782 0
 3300 013e 0023     		movs	r3, #0
 3301 0140 ADF81430 		strh	r3, [sp, #20]	@ movhi
 3302 0144 0023     		movs	r3, #0
 3303 0146 ADF81630 		strh	r3, [sp, #22]	@ movhi
 3304              		.loc 1 783 0
ARM GAS  /tmp/cca9Q4lc.s 			page 59


 3305 014a 2CE0     		b	.L224
 3306              	.L227:
 3307              		.loc 1 784 0
 3308 014c BDF91630 		ldrsh	r3, [sp, #22]
 3309 0150 002B     		cmp	r3, #0
 3310 0152 12D1     		bne	.L225
 3311              		.loc 1 785 0
 3312 0154 BDF91430 		ldrsh	r3, [sp, #20]
 3313 0158 0198     		ldr	r0, [sp, #4]
 3314 015a 1946     		mov	r1, r3
 3315 015c FFF7FEFF 		bl	getPixels
 3316 0160 0346     		mov	r3, r0
 3317 0162 ADF81630 		strh	r3, [sp, #22]	@ movhi
 3318 0166 BDF91630 		ldrsh	r3, [sp, #22]
 3319 016a 002B     		cmp	r3, #0
 3320 016c 02D1     		bne	.L226
 3321              		.loc 1 786 0
 3322 016e 48F20203 		movw	r3, #32770
 3323 0172 33E0     		b	.L213
 3324              	.L226:
 3325              		.loc 1 787 0
 3326 0174 039B     		ldr	r3, [sp, #12]
 3327 0176 2833     		adds	r3, r3, #40
 3328 0178 0793     		str	r3, [sp, #28]
 3329              	.L225:
 3330              		.loc 1 789 0
 3331 017a 069B     		ldr	r3, [sp, #24]
 3332 017c 9A1C     		adds	r2, r3, #2
 3333 017e 0692     		str	r2, [sp, #24]
 3334 0180 079A     		ldr	r2, [sp, #28]
 3335 0182 911C     		adds	r1, r2, #2
 3336 0184 0791     		str	r1, [sp, #28]
 3337 0186 1288     		ldrh	r2, [r2]
 3338 0188 1A80     		strh	r2, [r3]	@ movhi
 3339              		.loc 1 790 0
 3340 018a BDF81430 		ldrh	r3, [sp, #20]
 3341 018e 9BB2     		uxth	r3, r3
 3342 0190 0133     		adds	r3, r3, #1
 3343 0192 9BB2     		uxth	r3, r3
 3344 0194 ADF81430 		strh	r3, [sp, #20]	@ movhi
 3345 0198 BDF81630 		ldrh	r3, [sp, #22]
 3346 019c 9BB2     		uxth	r3, r3
 3347 019e 013B     		subs	r3, r3, #1
 3348 01a0 9BB2     		uxth	r3, r3
 3349 01a2 ADF81630 		strh	r3, [sp, #22]	@ movhi
 3350              	.L224:
 3351              		.loc 1 783 0
 3352 01a6 019B     		ldr	r3, [sp, #4]
 3353 01a8 DB88     		ldrh	r3, [r3, #6]
 3354 01aa BDF91420 		ldrsh	r2, [sp, #20]
 3355 01ae 1BB2     		sxth	r3, r3
 3356 01b0 9A42     		cmp	r2, r3
 3357 01b2 CBDB     		blt	.L227
 3358              		.loc 1 781 0 discriminator 2
 3359 01b4 BDF81230 		ldrh	r3, [sp, #18]
 3360 01b8 9BB2     		uxth	r3, r3
 3361 01ba 013B     		subs	r3, r3, #1
ARM GAS  /tmp/cca9Q4lc.s 			page 60


 3362 01bc 9BB2     		uxth	r3, r3
 3363 01be ADF81230 		strh	r3, [sp, #18]	@ movhi
 3364 01c2 019B     		ldr	r3, [sp, #4]
 3365 01c4 DB88     		ldrh	r3, [r3, #6]
 3366 01c6 1BB2     		sxth	r3, r3
 3367 01c8 9B00     		lsls	r3, r3, #2
 3368 01ca 5B42     		negs	r3, r3
 3369 01cc 069A     		ldr	r2, [sp, #24]
 3370 01ce 1344     		add	r3, r3, r2
 3371 01d0 0693     		str	r3, [sp, #24]
 3372              	.L223:
 3373              		.loc 1 781 0 is_stmt 0 discriminator 1
 3374 01d2 BDF91230 		ldrsh	r3, [sp, #18]
 3375 01d6 002B     		cmp	r3, #0
 3376 01d8 B1DA     		bge	.L228
 3377              	.L222:
 3378              		.loc 1 795 0 is_stmt 1
 3379 01da 0023     		movs	r3, #0
 3380              	.L213:
 3381              		.loc 1 796 0
 3382 01dc 1846     		mov	r0, r3
 3383 01de 09B0     		add	sp, sp, #36
 3384              		.cfi_def_cfa_offset 4
 3385              		@ sp needed
 3386 01e0 5DF804FB 		ldr	pc, [sp], #4
 3387              		.cfi_endproc
 3388              	.LFE114:
 3389              		.size	gdispImageCache_BMP, .-gdispImageCache_BMP
 3390 01e4 AFF30080 		.section	.text.gdispGImageDraw_BMP,"ax",%progbits
 3390      AFF30080 
 3390      AFF30080 
 3391              		.align	2
 3392              		.p2align 4,,15
 3393              		.global	gdispGImageDraw_BMP
 3394              		.thumb
 3395              		.thumb_func
 3396              		.type	gdispGImageDraw_BMP, %function
 3397              	gdispGImageDraw_BMP:
 3398              	.LFB115:
 3399              		.loc 1 798 0
 3400              		.cfi_startproc
 3401              		@ args = 16, pretend = 0, frame = 32
 3402              		@ frame_needed = 0, uses_anonymous_args = 0
 3403 0000 30B5     		push	{r4, r5, lr}
 3404              		.cfi_def_cfa_offset 12
 3405              		.cfi_offset 4, -12
 3406              		.cfi_offset 5, -8
 3407              		.cfi_offset 14, -4
 3408 0002 8FB0     		sub	sp, sp, #60
 3409              		.cfi_def_cfa_offset 72
 3410 0004 0990     		str	r0, [sp, #36]
 3411 0006 0891     		str	r1, [sp, #32]
 3412 0008 1146     		mov	r1, r2
 3413 000a 1A46     		mov	r2, r3
 3414 000c 0B46     		mov	r3, r1	@ movhi
 3415 000e ADF81E30 		strh	r3, [sp, #30]	@ movhi
 3416 0012 1346     		mov	r3, r2	@ movhi
ARM GAS  /tmp/cca9Q4lc.s 			page 61


 3417 0014 ADF81C30 		strh	r3, [sp, #28]	@ movhi
 3418              		.loc 1 803 0
 3419 0018 089B     		ldr	r3, [sp, #32]
 3420 001a 5B69     		ldr	r3, [r3, #20]
 3421 001c 0B93     		str	r3, [sp, #44]
 3422              		.loc 1 806 0
 3423 001e 089B     		ldr	r3, [sp, #32]
 3424 0020 DB88     		ldrh	r3, [r3, #6]
 3425 0022 BDF95020 		ldrsh	r2, [sp, #80]
 3426 0026 1BB2     		sxth	r3, r3
 3427 0028 9A42     		cmp	r2, r3
 3428 002a 06DA     		bge	.L230
 3429              		.loc 1 806 0 is_stmt 0 discriminator 2
 3430 002c 089B     		ldr	r3, [sp, #32]
 3431 002e 1B89     		ldrh	r3, [r3, #8]
 3432 0030 BDF95420 		ldrsh	r2, [sp, #84]
 3433 0034 1BB2     		sxth	r3, r3
 3434 0036 9A42     		cmp	r2, r3
 3435 0038 01DB     		blt	.L231
 3436              	.L230:
 3437              		.loc 1 806 0 discriminator 3
 3438 003a 0023     		movs	r3, #0
 3439 003c 3AE2     		b	.L232
 3440              	.L231:
 3441              		.loc 1 807 0 is_stmt 1
 3442 003e BDF95020 		ldrsh	r2, [sp, #80]
 3443 0042 BDF94830 		ldrsh	r3, [sp, #72]
 3444 0046 1A44     		add	r2, r2, r3
 3445 0048 089B     		ldr	r3, [sp, #32]
 3446 004a DB88     		ldrh	r3, [r3, #6]
 3447 004c 1BB2     		sxth	r3, r3
 3448 004e 9A42     		cmp	r2, r3
 3449 0050 08DD     		ble	.L233
 3450              		.loc 1 807 0 is_stmt 0 discriminator 1
 3451 0052 089B     		ldr	r3, [sp, #32]
 3452 0054 DB88     		ldrh	r3, [r3, #6]
 3453 0056 9AB2     		uxth	r2, r3
 3454 0058 BDF85030 		ldrh	r3, [sp, #80]
 3455 005c D31A     		subs	r3, r2, r3
 3456 005e 9BB2     		uxth	r3, r3
 3457 0060 ADF84830 		strh	r3, [sp, #72]	@ movhi
 3458              	.L233:
 3459              		.loc 1 808 0 is_stmt 1
 3460 0064 BDF95420 		ldrsh	r2, [sp, #84]
 3461 0068 BDF94C30 		ldrsh	r3, [sp, #76]
 3462 006c 1A44     		add	r2, r2, r3
 3463 006e 089B     		ldr	r3, [sp, #32]
 3464 0070 1B89     		ldrh	r3, [r3, #8]
 3465 0072 1BB2     		sxth	r3, r3
 3466 0074 9A42     		cmp	r2, r3
 3467 0076 08DD     		ble	.L234
 3468              		.loc 1 808 0 is_stmt 0 discriminator 1
 3469 0078 089B     		ldr	r3, [sp, #32]
 3470 007a 1B89     		ldrh	r3, [r3, #8]
 3471 007c 9AB2     		uxth	r2, r3
 3472 007e BDF85430 		ldrh	r3, [sp, #84]
 3473 0082 D31A     		subs	r3, r2, r3
ARM GAS  /tmp/cca9Q4lc.s 			page 62


 3474 0084 9BB2     		uxth	r3, r3
 3475 0086 ADF84C30 		strh	r3, [sp, #76]	@ movhi
 3476              	.L234:
 3477              		.loc 1 811 0 is_stmt 1
 3478 008a 0B9B     		ldr	r3, [sp, #44]
 3479 008c 5B6A     		ldr	r3, [r3, #36]
 3480 008e 002B     		cmp	r3, #0
 3481 0090 1CD0     		beq	.L235
 3482              		.loc 1 812 0
 3483 0092 089B     		ldr	r3, [sp, #32]
 3484 0094 D888     		ldrh	r0, [r3, #6]
 3485 0096 0B9B     		ldr	r3, [sp, #44]
 3486 0098 5B6A     		ldr	r3, [r3, #36]
 3487 009a BDF91E10 		ldrsh	r1, [sp, #30]
 3488 009e BDF91C50 		ldrsh	r5, [sp, #28]
 3489 00a2 BDF94840 		ldrsh	r4, [sp, #72]
 3490 00a6 BDF94C20 		ldrsh	r2, [sp, #76]
 3491 00aa 0092     		str	r2, [sp]
 3492 00ac BDF95020 		ldrsh	r2, [sp, #80]
 3493 00b0 0192     		str	r2, [sp, #4]
 3494 00b2 BDF95420 		ldrsh	r2, [sp, #84]
 3495 00b6 0292     		str	r2, [sp, #8]
 3496 00b8 02B2     		sxth	r2, r0
 3497 00ba 0392     		str	r2, [sp, #12]
 3498 00bc 0493     		str	r3, [sp, #16]
 3499 00be 0998     		ldr	r0, [sp, #36]
 3500 00c0 2A46     		mov	r2, r5
 3501 00c2 2346     		mov	r3, r4
 3502 00c4 FFF7FEFF 		bl	gdispGBlitArea
 3503              		.loc 1 813 0
 3504 00c8 0023     		movs	r3, #0
 3505 00ca F3E1     		b	.L232
 3506              	.L235:
 3507              		.loc 1 817 0
 3508 00cc 089B     		ldr	r3, [sp, #32]
 3509 00ce DA68     		ldr	r2, [r3, #12]
 3510 00d0 0B9B     		ldr	r3, [sp, #44]
 3511 00d2 1B6A     		ldr	r3, [r3, #32]
 3512 00d4 1046     		mov	r0, r2
 3513 00d6 1946     		mov	r1, r3
 3514 00d8 FFF7FEFF 		bl	gfileSetPos
 3515              		.loc 1 819 0
 3516 00dc 0B9B     		ldr	r3, [sp, #44]
 3517 00de 0022     		movs	r2, #0
 3518 00e0 1A81     		strh	r2, [r3, #8]	@ movhi
 3519              		.loc 1 820 0
 3520 00e2 0B9B     		ldr	r3, [sp, #44]
 3521 00e4 0022     		movs	r2, #0
 3522 00e6 9A72     		strb	r2, [r3, #10]
 3523              		.loc 1 823 0
 3524 00e8 0B9B     		ldr	r3, [sp, #44]
 3525 00ea 1B78     		ldrb	r3, [r3]	@ zero_extendqisi2
 3526 00ec DBB2     		uxtb	r3, r3
 3527 00ee 5BB2     		sxtb	r3, r3
 3528 00f0 002B     		cmp	r3, #0
 3529 00f2 80F2EF80 		bge	.L236
 3530              		.loc 1 824 0
ARM GAS  /tmp/cca9Q4lc.s 			page 63


 3531 00f6 0023     		movs	r3, #0
 3532 00f8 ADF83430 		strh	r3, [sp, #52]	@ movhi
 3533 00fc E1E0     		b	.L237
 3534              	.L246:
 3535              		.loc 1 825 0
 3536 00fe 0023     		movs	r3, #0
 3537 0100 ADF83630 		strh	r3, [sp, #54]	@ movhi
 3538              		.loc 1 826 0
 3539 0104 CEE0     		b	.L238
 3540              	.L245:
 3541              		.loc 1 827 0
 3542 0106 BDF93630 		ldrsh	r3, [sp, #54]
 3543 010a 0898     		ldr	r0, [sp, #32]
 3544 010c 1946     		mov	r1, r3
 3545 010e FFF7FEFF 		bl	getPixels
 3546 0112 0346     		mov	r3, r0
 3547 0114 ADF82A30 		strh	r3, [sp, #42]	@ movhi
 3548 0118 BDF92A30 		ldrsh	r3, [sp, #42]
 3549 011c 002B     		cmp	r3, #0
 3550 011e 02D1     		bne	.L239
 3551              		.loc 1 828 0
 3552 0120 48F20203 		movw	r3, #32770
 3553 0124 C6E1     		b	.L232
 3554              	.L239:
 3555              		.loc 1 829 0
 3556 0126 BDF93420 		ldrsh	r2, [sp, #52]
 3557 012a BDF95430 		ldrsh	r3, [sp, #84]
 3558 012e 9A42     		cmp	r2, r3
 3559 0130 C0F2B080 		blt	.L240
 3560              		.loc 1 829 0 is_stmt 0 discriminator 1
 3561 0134 BDF93420 		ldrsh	r2, [sp, #52]
 3562 0138 BDF95410 		ldrsh	r1, [sp, #84]
 3563 013c BDF94C30 		ldrsh	r3, [sp, #76]
 3564 0140 0B44     		add	r3, r3, r1
 3565 0142 9A42     		cmp	r2, r3
 3566 0144 80F2A680 		bge	.L240
 3567              		.loc 1 829 0 discriminator 2
 3568 0148 BDF93620 		ldrsh	r2, [sp, #54]
 3569 014c BDF95010 		ldrsh	r1, [sp, #80]
 3570 0150 BDF94830 		ldrsh	r3, [sp, #72]
 3571 0154 0B44     		add	r3, r3, r1
 3572 0156 9A42     		cmp	r2, r3
 3573 0158 80F29C80 		bge	.L240
 3574              		.loc 1 829 0 discriminator 3
 3575 015c BDF93620 		ldrsh	r2, [sp, #54]
 3576 0160 BDF92A30 		ldrsh	r3, [sp, #42]
 3577 0164 1A44     		add	r2, r2, r3
 3578 0166 BDF95030 		ldrsh	r3, [sp, #80]
 3579 016a 9A42     		cmp	r2, r3
 3580 016c C0F29280 		blt	.L240
 3581              		.loc 1 830 0 is_stmt 1
 3582 0170 BDF93620 		ldrsh	r2, [sp, #54]
 3583 0174 BDF95030 		ldrsh	r3, [sp, #80]
 3584 0178 9A42     		cmp	r2, r3
 3585 017a 07DA     		bge	.L241
 3586              		.loc 1 830 0 is_stmt 0 discriminator 1
 3587 017c BDF85020 		ldrh	r2, [sp, #80]
ARM GAS  /tmp/cca9Q4lc.s 			page 64


 3588 0180 BDF83630 		ldrh	r3, [sp, #54]
 3589 0184 D31A     		subs	r3, r2, r3
 3590 0186 9BB2     		uxth	r3, r3
 3591 0188 9BB2     		uxth	r3, r3
 3592 018a 00E0     		b	.L242
 3593              	.L241:
 3594              		.loc 1 830 0 discriminator 2
 3595 018c 0023     		movs	r3, #0
 3596              	.L242:
 3597              		.loc 1 830 0 discriminator 4
 3598 018e ADF82830 		strh	r3, [sp, #40]	@ movhi
 3599              		.loc 1 831 0 is_stmt 1 discriminator 4
 3600 0192 BDF82A20 		ldrh	r2, [sp, #42]
 3601 0196 BDF82830 		ldrh	r3, [sp, #40]
 3602 019a D31A     		subs	r3, r2, r3
 3603 019c 9BB2     		uxth	r3, r3
 3604 019e ADF83230 		strh	r3, [sp, #50]	@ movhi
 3605              		.loc 1 832 0 discriminator 4
 3606 01a2 BDF93620 		ldrsh	r2, [sp, #54]
 3607 01a6 BDF92830 		ldrsh	r3, [sp, #40]
 3608 01aa 1A44     		add	r2, r2, r3
 3609 01ac BDF93230 		ldrsh	r3, [sp, #50]
 3610 01b0 1A44     		add	r2, r2, r3
 3611 01b2 BDF95010 		ldrsh	r1, [sp, #80]
 3612 01b6 BDF94830 		ldrsh	r3, [sp, #72]
 3613 01ba 0B44     		add	r3, r3, r1
 3614 01bc 9A42     		cmp	r2, r3
 3615 01be 0FDD     		ble	.L243
 3616              		.loc 1 832 0 is_stmt 0 discriminator 1
 3617 01c0 BDF85020 		ldrh	r2, [sp, #80]
 3618 01c4 BDF84830 		ldrh	r3, [sp, #72]
 3619 01c8 1344     		add	r3, r3, r2
 3620 01ca 9AB2     		uxth	r2, r3
 3621 01cc BDF83630 		ldrh	r3, [sp, #54]
 3622 01d0 D31A     		subs	r3, r2, r3
 3623 01d2 9AB2     		uxth	r2, r3
 3624 01d4 BDF82830 		ldrh	r3, [sp, #40]
 3625 01d8 D31A     		subs	r3, r2, r3
 3626 01da 9BB2     		uxth	r3, r3
 3627 01dc ADF83230 		strh	r3, [sp, #50]	@ movhi
 3628              	.L243:
 3629              		.loc 1 833 0 is_stmt 1
 3630 01e0 BDF93230 		ldrsh	r3, [sp, #50]
 3631 01e4 012B     		cmp	r3, #1
 3632 01e6 25D1     		bne	.L244
 3633              		.loc 1 834 0
 3634 01e8 BDF81E20 		ldrh	r2, [sp, #30]
 3635 01ec BDF83630 		ldrh	r3, [sp, #54]
 3636 01f0 1344     		add	r3, r3, r2
 3637 01f2 9AB2     		uxth	r2, r3
 3638 01f4 BDF82830 		ldrh	r3, [sp, #40]
 3639 01f8 1344     		add	r3, r3, r2
 3640 01fa 9AB2     		uxth	r2, r3
 3641 01fc BDF85030 		ldrh	r3, [sp, #80]
 3642 0200 D31A     		subs	r3, r2, r3
 3643 0202 9BB2     		uxth	r3, r3
 3644 0204 99B2     		uxth	r1, r3
ARM GAS  /tmp/cca9Q4lc.s 			page 65


 3645 0206 BDF81C20 		ldrh	r2, [sp, #28]
 3646 020a BDF83430 		ldrh	r3, [sp, #52]
 3647 020e 1344     		add	r3, r3, r2
 3648 0210 9AB2     		uxth	r2, r3
 3649 0212 BDF85430 		ldrh	r3, [sp, #84]
 3650 0216 D31A     		subs	r3, r2, r3
 3651 0218 9BB2     		uxth	r3, r3
 3652 021a 98B2     		uxth	r0, r3
 3653 021c BDF92820 		ldrsh	r2, [sp, #40]
 3654 0220 0B9B     		ldr	r3, [sp, #44]
 3655 0222 1432     		adds	r2, r2, #20
 3656 0224 33F81230 		ldrh	r3, [r3, r2, lsl #1]
 3657 0228 09B2     		sxth	r1, r1
 3658 022a 02B2     		sxth	r2, r0
 3659 022c 0998     		ldr	r0, [sp, #36]
 3660 022e FFF7FEFF 		bl	gdispGDrawPixel
 3661 0232 2FE0     		b	.L240
 3662              	.L244:
 3663              		.loc 1 836 0
 3664 0234 BDF81E20 		ldrh	r2, [sp, #30]
 3665 0238 BDF83630 		ldrh	r3, [sp, #54]
 3666 023c 1344     		add	r3, r3, r2
 3667 023e 9AB2     		uxth	r2, r3
 3668 0240 BDF82830 		ldrh	r3, [sp, #40]
 3669 0244 1344     		add	r3, r3, r2
 3670 0246 9AB2     		uxth	r2, r3
 3671 0248 BDF85030 		ldrh	r3, [sp, #80]
 3672 024c D31A     		subs	r3, r2, r3
 3673 024e 9BB2     		uxth	r3, r3
 3674 0250 99B2     		uxth	r1, r3
 3675 0252 BDF81C20 		ldrh	r2, [sp, #28]
 3676 0256 BDF83430 		ldrh	r3, [sp, #52]
 3677 025a 1344     		add	r3, r3, r2
 3678 025c 9AB2     		uxth	r2, r3
 3679 025e BDF85430 		ldrh	r3, [sp, #84]
 3680 0262 D31A     		subs	r3, r2, r3
 3681 0264 9BB2     		uxth	r3, r3
 3682 0266 9AB2     		uxth	r2, r3
 3683 0268 0B9B     		ldr	r3, [sp, #44]
 3684 026a 2833     		adds	r3, r3, #40
 3685 026c 09B2     		sxth	r1, r1
 3686 026e 15B2     		sxth	r5, r2
 3687 0270 BDF93240 		ldrsh	r4, [sp, #50]
 3688 0274 0122     		movs	r2, #1
 3689 0276 0092     		str	r2, [sp]
 3690 0278 BDF92820 		ldrsh	r2, [sp, #40]
 3691 027c 0192     		str	r2, [sp, #4]
 3692 027e 0022     		movs	r2, #0
 3693 0280 0292     		str	r2, [sp, #8]
 3694 0282 BDF92A20 		ldrsh	r2, [sp, #42]
 3695 0286 0392     		str	r2, [sp, #12]
 3696 0288 0493     		str	r3, [sp, #16]
 3697 028a 0998     		ldr	r0, [sp, #36]
 3698 028c 2A46     		mov	r2, r5
 3699 028e 2346     		mov	r3, r4
 3700 0290 FFF7FEFF 		bl	gdispGBlitArea
 3701              	.L240:
ARM GAS  /tmp/cca9Q4lc.s 			page 66


 3702              		.loc 1 838 0
 3703 0294 BDF83620 		ldrh	r2, [sp, #54]
 3704 0298 BDF82A30 		ldrh	r3, [sp, #42]
 3705 029c 1344     		add	r3, r3, r2
 3706 029e 9BB2     		uxth	r3, r3
 3707 02a0 ADF83630 		strh	r3, [sp, #54]	@ movhi
 3708              	.L238:
 3709              		.loc 1 826 0
 3710 02a4 089B     		ldr	r3, [sp, #32]
 3711 02a6 DB88     		ldrh	r3, [r3, #6]
 3712 02a8 BDF93620 		ldrsh	r2, [sp, #54]
 3713 02ac 1BB2     		sxth	r3, r3
 3714 02ae 9A42     		cmp	r2, r3
 3715 02b0 FFF629AF 		blt	.L245
 3716              		.loc 1 824 0 discriminator 2
 3717 02b4 BDF83430 		ldrh	r3, [sp, #52]
 3718 02b8 9BB2     		uxth	r3, r3
 3719 02ba 0133     		adds	r3, r3, #1
 3720 02bc 9BB2     		uxth	r3, r3
 3721 02be ADF83430 		strh	r3, [sp, #52]	@ movhi
 3722              	.L237:
 3723              		.loc 1 824 0 is_stmt 0 discriminator 1
 3724 02c2 089B     		ldr	r3, [sp, #32]
 3725 02c4 1B89     		ldrh	r3, [r3, #8]
 3726 02c6 BDF93420 		ldrsh	r2, [sp, #52]
 3727 02ca 1BB2     		sxth	r3, r3
 3728 02cc 9A42     		cmp	r2, r3
 3729 02ce FFF616AF 		blt	.L246
 3730 02d2 EEE0     		b	.L247
 3731              	.L236:
 3732              		.loc 1 842 0 is_stmt 1
 3733 02d4 089B     		ldr	r3, [sp, #32]
 3734 02d6 1B89     		ldrh	r3, [r3, #8]
 3735 02d8 9BB2     		uxth	r3, r3
 3736 02da 013B     		subs	r3, r3, #1
 3737 02dc 9BB2     		uxth	r3, r3
 3738 02de ADF83430 		strh	r3, [sp, #52]	@ movhi
 3739 02e2 E1E0     		b	.L248
 3740              	.L257:
 3741              		.loc 1 843 0
 3742 02e4 0023     		movs	r3, #0
 3743 02e6 ADF83630 		strh	r3, [sp, #54]	@ movhi
 3744              		.loc 1 844 0
 3745 02ea CEE0     		b	.L249
 3746              	.L256:
 3747              		.loc 1 845 0
 3748 02ec BDF93630 		ldrsh	r3, [sp, #54]
 3749 02f0 0898     		ldr	r0, [sp, #32]
 3750 02f2 1946     		mov	r1, r3
 3751 02f4 FFF7FEFF 		bl	getPixels
 3752 02f8 0346     		mov	r3, r0
 3753 02fa ADF82A30 		strh	r3, [sp, #42]	@ movhi
 3754 02fe BDF92A30 		ldrsh	r3, [sp, #42]
 3755 0302 002B     		cmp	r3, #0
 3756 0304 02D1     		bne	.L250
 3757              		.loc 1 846 0
 3758 0306 48F20203 		movw	r3, #32770
ARM GAS  /tmp/cca9Q4lc.s 			page 67


 3759 030a D3E0     		b	.L232
 3760              	.L250:
 3761              		.loc 1 847 0
 3762 030c BDF93420 		ldrsh	r2, [sp, #52]
 3763 0310 BDF95430 		ldrsh	r3, [sp, #84]
 3764 0314 9A42     		cmp	r2, r3
 3765 0316 C0F2B080 		blt	.L251
 3766              		.loc 1 847 0 is_stmt 0 discriminator 1
 3767 031a BDF93420 		ldrsh	r2, [sp, #52]
 3768 031e BDF95410 		ldrsh	r1, [sp, #84]
 3769 0322 BDF94C30 		ldrsh	r3, [sp, #76]
 3770 0326 0B44     		add	r3, r3, r1
 3771 0328 9A42     		cmp	r2, r3
 3772 032a 80F2A680 		bge	.L251
 3773              		.loc 1 847 0 discriminator 2
 3774 032e BDF93620 		ldrsh	r2, [sp, #54]
 3775 0332 BDF95010 		ldrsh	r1, [sp, #80]
 3776 0336 BDF94830 		ldrsh	r3, [sp, #72]
 3777 033a 0B44     		add	r3, r3, r1
 3778 033c 9A42     		cmp	r2, r3
 3779 033e 80F29C80 		bge	.L251
 3780              		.loc 1 847 0 discriminator 3
 3781 0342 BDF93620 		ldrsh	r2, [sp, #54]
 3782 0346 BDF92A30 		ldrsh	r3, [sp, #42]
 3783 034a 1A44     		add	r2, r2, r3
 3784 034c BDF95030 		ldrsh	r3, [sp, #80]
 3785 0350 9A42     		cmp	r2, r3
 3786 0352 C0F29280 		blt	.L251
 3787              		.loc 1 848 0 is_stmt 1
 3788 0356 BDF93620 		ldrsh	r2, [sp, #54]
 3789 035a BDF95030 		ldrsh	r3, [sp, #80]
 3790 035e 9A42     		cmp	r2, r3
 3791 0360 07DA     		bge	.L252
 3792              		.loc 1 848 0 is_stmt 0 discriminator 1
 3793 0362 BDF85020 		ldrh	r2, [sp, #80]
 3794 0366 BDF83630 		ldrh	r3, [sp, #54]
 3795 036a D31A     		subs	r3, r2, r3
 3796 036c 9BB2     		uxth	r3, r3
 3797 036e 9BB2     		uxth	r3, r3
 3798 0370 00E0     		b	.L253
 3799              	.L252:
 3800              		.loc 1 848 0 discriminator 2
 3801 0372 0023     		movs	r3, #0
 3802              	.L253:
 3803              		.loc 1 848 0 discriminator 4
 3804 0374 ADF82830 		strh	r3, [sp, #40]	@ movhi
 3805              		.loc 1 849 0 is_stmt 1 discriminator 4
 3806 0378 BDF82A20 		ldrh	r2, [sp, #42]
 3807 037c BDF82830 		ldrh	r3, [sp, #40]
 3808 0380 D31A     		subs	r3, r2, r3
 3809 0382 9BB2     		uxth	r3, r3
 3810 0384 ADF83230 		strh	r3, [sp, #50]	@ movhi
 3811              		.loc 1 850 0 discriminator 4
 3812 0388 BDF93620 		ldrsh	r2, [sp, #54]
 3813 038c BDF92830 		ldrsh	r3, [sp, #40]
 3814 0390 1A44     		add	r2, r2, r3
 3815 0392 BDF93230 		ldrsh	r3, [sp, #50]
ARM GAS  /tmp/cca9Q4lc.s 			page 68


 3816 0396 1A44     		add	r2, r2, r3
 3817 0398 BDF95010 		ldrsh	r1, [sp, #80]
 3818 039c BDF94830 		ldrsh	r3, [sp, #72]
 3819 03a0 0B44     		add	r3, r3, r1
 3820 03a2 9A42     		cmp	r2, r3
 3821 03a4 0FDD     		ble	.L254
 3822              		.loc 1 850 0 is_stmt 0 discriminator 1
 3823 03a6 BDF85020 		ldrh	r2, [sp, #80]
 3824 03aa BDF84830 		ldrh	r3, [sp, #72]
 3825 03ae 1344     		add	r3, r3, r2
 3826 03b0 9AB2     		uxth	r2, r3
 3827 03b2 BDF83630 		ldrh	r3, [sp, #54]
 3828 03b6 D31A     		subs	r3, r2, r3
 3829 03b8 9AB2     		uxth	r2, r3
 3830 03ba BDF82830 		ldrh	r3, [sp, #40]
 3831 03be D31A     		subs	r3, r2, r3
 3832 03c0 9BB2     		uxth	r3, r3
 3833 03c2 ADF83230 		strh	r3, [sp, #50]	@ movhi
 3834              	.L254:
 3835              		.loc 1 851 0 is_stmt 1
 3836 03c6 BDF93230 		ldrsh	r3, [sp, #50]
 3837 03ca 012B     		cmp	r3, #1
 3838 03cc 25D1     		bne	.L255
 3839              		.loc 1 852 0
 3840 03ce BDF81E20 		ldrh	r2, [sp, #30]
 3841 03d2 BDF83630 		ldrh	r3, [sp, #54]
 3842 03d6 1344     		add	r3, r3, r2
 3843 03d8 9AB2     		uxth	r2, r3
 3844 03da BDF82830 		ldrh	r3, [sp, #40]
 3845 03de 1344     		add	r3, r3, r2
 3846 03e0 9AB2     		uxth	r2, r3
 3847 03e2 BDF85030 		ldrh	r3, [sp, #80]
 3848 03e6 D31A     		subs	r3, r2, r3
 3849 03e8 9BB2     		uxth	r3, r3
 3850 03ea 99B2     		uxth	r1, r3
 3851 03ec BDF81C20 		ldrh	r2, [sp, #28]
 3852 03f0 BDF83430 		ldrh	r3, [sp, #52]
 3853 03f4 1344     		add	r3, r3, r2
 3854 03f6 9AB2     		uxth	r2, r3
 3855 03f8 BDF85430 		ldrh	r3, [sp, #84]
 3856 03fc D31A     		subs	r3, r2, r3
 3857 03fe 9BB2     		uxth	r3, r3
 3858 0400 98B2     		uxth	r0, r3
 3859 0402 BDF92820 		ldrsh	r2, [sp, #40]
 3860 0406 0B9B     		ldr	r3, [sp, #44]
 3861 0408 1432     		adds	r2, r2, #20
 3862 040a 33F81230 		ldrh	r3, [r3, r2, lsl #1]
 3863 040e 09B2     		sxth	r1, r1
 3864 0410 02B2     		sxth	r2, r0
 3865 0412 0998     		ldr	r0, [sp, #36]
 3866 0414 FFF7FEFF 		bl	gdispGDrawPixel
 3867 0418 2FE0     		b	.L251
 3868              	.L255:
 3869              		.loc 1 854 0
 3870 041a BDF81E20 		ldrh	r2, [sp, #30]
 3871 041e BDF83630 		ldrh	r3, [sp, #54]
 3872 0422 1344     		add	r3, r3, r2
ARM GAS  /tmp/cca9Q4lc.s 			page 69


 3873 0424 9AB2     		uxth	r2, r3
 3874 0426 BDF82830 		ldrh	r3, [sp, #40]
 3875 042a 1344     		add	r3, r3, r2
 3876 042c 9AB2     		uxth	r2, r3
 3877 042e BDF85030 		ldrh	r3, [sp, #80]
 3878 0432 D31A     		subs	r3, r2, r3
 3879 0434 9BB2     		uxth	r3, r3
 3880 0436 99B2     		uxth	r1, r3
 3881 0438 BDF81C20 		ldrh	r2, [sp, #28]
 3882 043c BDF83430 		ldrh	r3, [sp, #52]
 3883 0440 1344     		add	r3, r3, r2
 3884 0442 9AB2     		uxth	r2, r3
 3885 0444 BDF85430 		ldrh	r3, [sp, #84]
 3886 0448 D31A     		subs	r3, r2, r3
 3887 044a 9BB2     		uxth	r3, r3
 3888 044c 9AB2     		uxth	r2, r3
 3889 044e 0B9B     		ldr	r3, [sp, #44]
 3890 0450 2833     		adds	r3, r3, #40
 3891 0452 09B2     		sxth	r1, r1
 3892 0454 15B2     		sxth	r5, r2
 3893 0456 BDF93240 		ldrsh	r4, [sp, #50]
 3894 045a 0122     		movs	r2, #1
 3895 045c 0092     		str	r2, [sp]
 3896 045e BDF92820 		ldrsh	r2, [sp, #40]
 3897 0462 0192     		str	r2, [sp, #4]
 3898 0464 0022     		movs	r2, #0
 3899 0466 0292     		str	r2, [sp, #8]
 3900 0468 BDF92A20 		ldrsh	r2, [sp, #42]
 3901 046c 0392     		str	r2, [sp, #12]
 3902 046e 0493     		str	r3, [sp, #16]
 3903 0470 0998     		ldr	r0, [sp, #36]
 3904 0472 2A46     		mov	r2, r5
 3905 0474 2346     		mov	r3, r4
 3906 0476 FFF7FEFF 		bl	gdispGBlitArea
 3907              	.L251:
 3908              		.loc 1 856 0
 3909 047a BDF83620 		ldrh	r2, [sp, #54]
 3910 047e BDF82A30 		ldrh	r3, [sp, #42]
 3911 0482 1344     		add	r3, r3, r2
 3912 0484 9BB2     		uxth	r3, r3
 3913 0486 ADF83630 		strh	r3, [sp, #54]	@ movhi
 3914              	.L249:
 3915              		.loc 1 844 0
 3916 048a 089B     		ldr	r3, [sp, #32]
 3917 048c DB88     		ldrh	r3, [r3, #6]
 3918 048e BDF93620 		ldrsh	r2, [sp, #54]
 3919 0492 1BB2     		sxth	r3, r3
 3920 0494 9A42     		cmp	r2, r3
 3921 0496 FFF629AF 		blt	.L256
 3922              		.loc 1 842 0 discriminator 2
 3923 049a BDF83430 		ldrh	r3, [sp, #52]
 3924 049e 9BB2     		uxth	r3, r3
 3925 04a0 013B     		subs	r3, r3, #1
 3926 04a2 9BB2     		uxth	r3, r3
 3927 04a4 ADF83430 		strh	r3, [sp, #52]	@ movhi
 3928              	.L248:
 3929              		.loc 1 842 0 is_stmt 0 discriminator 1
ARM GAS  /tmp/cca9Q4lc.s 			page 70


 3930 04a8 BDF93430 		ldrsh	r3, [sp, #52]
 3931 04ac 002B     		cmp	r3, #0
 3932 04ae BFF619AF 		bge	.L257
 3933              	.L247:
 3934              		.loc 1 861 0 is_stmt 1
 3935 04b2 0023     		movs	r3, #0
 3936              	.L232:
 3937              		.loc 1 862 0
 3938 04b4 1846     		mov	r0, r3
 3939 04b6 0FB0     		add	sp, sp, #60
 3940              		.cfi_def_cfa_offset 12
 3941              		@ sp needed
 3942 04b8 30BD     		pop	{r4, r5, pc}
 3943              		.cfi_endproc
 3944              	.LFE115:
 3945              		.size	gdispGImageDraw_BMP, .-gdispGImageDraw_BMP
 3946 04ba 00BFAFF3 		.section	.text.gdispImageNext_BMP,"ax",%progbits
 3946      0080
 3947              		.align	2
 3948              		.p2align 4,,15
 3949              		.global	gdispImageNext_BMP
 3950              		.thumb
 3951              		.thumb_func
 3952              		.type	gdispImageNext_BMP, %function
 3953              	gdispImageNext_BMP:
 3954              	.LFB116:
 3955              		.loc 1 864 0
 3956              		.cfi_startproc
 3957              		@ args = 0, pretend = 0, frame = 8
 3958              		@ frame_needed = 0, uses_anonymous_args = 0
 3959              		@ link register save eliminated.
 3960 0000 82B0     		sub	sp, sp, #8
 3961              		.cfi_def_cfa_offset 8
 3962 0002 0190     		str	r0, [sp, #4]
 3963              		.loc 1 868 0
 3964 0004 4FF0FF33 		mov	r3, #-1
 3965              		.loc 1 869 0
 3966 0008 1846     		mov	r0, r3
 3967 000a 02B0     		add	sp, sp, #8
 3968              		.cfi_def_cfa_offset 0
 3969              		@ sp needed
 3970 000c 7047     		bx	lr
 3971              		.cfi_endproc
 3972              	.LFE116:
 3973              		.size	gdispImageNext_BMP, .-gdispImageNext_BMP
 3974 000e 00BF     		.text
 3975              	.Letext0:
 3976              		.file 2 "/opt/gcc-arm-none-eabi/lib/gcc/arm-none-eabi/4.9.3/include/stddef.h"
 3977              		.file 3 "/opt/gcc-arm-none-eabi/arm-none-eabi/include/machine/_default_types.h"
 3978              		.file 4 "/opt/gcc-arm-none-eabi/arm-none-eabi/include/stdint.h"
 3979              		.file 5 "/home/makkmarci/workspace/ChibiOS_2.6.8/os/ports/GCC/ARMCMx/chtypes.h"
 3980              		.file 6 "/home/makkmarci/workspace/ugfx/src/gos/gos_chibios.h"
 3981              		.file 7 "/home/makkmarci/workspace/ugfx/src/gfile/gfile.h"
 3982              		.file 8 "/home/makkmarci/workspace/ugfx/src/gdisp/gdisp.h"
 3983              		.file 9 "/home/makkmarci/workspace/ugfx/src/gdisp/gdisp_colors.h"
 3984              		.file 10 "/home/makkmarci/workspace/ugfx/src/gdisp/gdisp_image.h"
 3985              		.file 11 "/home/makkmarci/workspace/ChibiOS_2.6.8/os/ports/common/ARMCMx/CMSIS/include/core_cm4.h"
ARM GAS  /tmp/cca9Q4lc.s 			page 71

