ARM GAS  /tmp/cclL2Tth.s 			page 1


   1              		.syntax unified
   2              		.cpu cortex-m4
   3              		.eabi_attribute 27, 3
   4              		.eabi_attribute 28, 1
   5              		.fpu fpv4-sp-d16
   6              		.eabi_attribute 20, 1
   7              		.eabi_attribute 21, 1
   8              		.eabi_attribute 23, 3
   9              		.eabi_attribute 24, 1
  10              		.eabi_attribute 25, 1
  11              		.eabi_attribute 26, 1
  12              		.eabi_attribute 30, 2
  13              		.eabi_attribute 34, 1
  14              		.eabi_attribute 18, 4
  15              		.thumb
  16              		.file	"gdisp.c"
  17              		.text
  18              	.Ltext0:
  19              		.cfi_sections	.debug_frame
  20              		.section	.text.drawcharglyph,"ax",%progbits
  21              		.align	2
  22              		.p2align 4,,15
  23              		.thumb
  24              		.thumb_func
  25              		.type	drawcharglyph, %function
  26              	drawcharglyph:
  27              	.LFB140:
  28              		.file 1 "/home/makkmarci/devel/ugfx/src/gdisp/gdisp.c"
  29              		.loc 1 2836 0
  30              		.cfi_startproc
  31              		@ args = 0, pretend = 0, frame = 0
  32              		@ frame_needed = 0, uses_anonymous_args = 0
  33              	.LVL0:
  34 0000 70B5     		push	{r4, r5, r6, lr}
  35              		.cfi_def_cfa_offset 16
  36              		.cfi_offset 4, -16
  37              		.cfi_offset 5, -12
  38              		.cfi_offset 6, -8
  39              		.cfi_offset 14, -4
  40 0002 82B0     		sub	sp, sp, #8
  41              		.cfi_def_cfa_offset 24
  42              		.loc 1 2836 0
  43 0004 0646     		mov	r6, r0
  44 0006 0D46     		mov	r5, r1
  45              		.loc 1 2838 0
  46 0008 054C     		ldr	r4, .L2
  47 000a 986B     		ldr	r0, [r3, #56]
  48              	.LVL1:
  49 000c 0193     		str	r3, [sp, #4]
  50 000e 3146     		mov	r1, r6
  51              	.LVL2:
  52              		.loc 1 2836 0
  53 0010 1346     		mov	r3, r2
  54              	.LVL3:
  55              		.loc 1 2838 0
  56 0012 0094     		str	r4, [sp]
  57 0014 2A46     		mov	r2, r5
ARM GAS  /tmp/cclL2Tth.s 			page 2


  58              	.LVL4:
  59 0016 FFF7FEFF 		bl	mf_render_character
  60              	.LVL5:
  61              		.loc 1 2840 0
  62 001a 02B0     		add	sp, sp, #8
  63              		@ sp needed
  64 001c 70BD     		pop	{r4, r5, r6, pc}
  65              	.L3:
  66 001e 00BF     		.align	2
  67              	.L2:
  68 0020 00000000 		.word	drawcharline
  69              		.cfi_endproc
  70              	.LFE140:
  71              		.size	drawcharglyph, .-drawcharglyph
  72 0024 AFF30080 		.section	.text.fillcharglyph,"ax",%progbits
  72      AFF30080 
  72      AFF30080 
  73              		.align	2
  74              		.p2align 4,,15
  75              		.thumb
  76              		.thumb_func
  77              		.type	fillcharglyph, %function
  78              	fillcharglyph:
  79              	.LFB141:
  80              		.loc 1 2843 0
  81              		.cfi_startproc
  82              		@ args = 0, pretend = 0, frame = 0
  83              		@ frame_needed = 0, uses_anonymous_args = 0
  84              	.LVL6:
  85 0000 70B5     		push	{r4, r5, r6, lr}
  86              		.cfi_def_cfa_offset 16
  87              		.cfi_offset 4, -16
  88              		.cfi_offset 5, -12
  89              		.cfi_offset 6, -8
  90              		.cfi_offset 14, -4
  91 0002 82B0     		sub	sp, sp, #8
  92              		.cfi_def_cfa_offset 24
  93              		.loc 1 2843 0
  94 0004 0646     		mov	r6, r0
  95 0006 0D46     		mov	r5, r1
  96              		.loc 1 2845 0
  97 0008 054C     		ldr	r4, .L5
  98 000a 986B     		ldr	r0, [r3, #56]
  99              	.LVL7:
 100 000c 0193     		str	r3, [sp, #4]
 101 000e 3146     		mov	r1, r6
 102              	.LVL8:
 103              		.loc 1 2843 0
 104 0010 1346     		mov	r3, r2
 105              	.LVL9:
 106              		.loc 1 2845 0
 107 0012 0094     		str	r4, [sp]
 108 0014 2A46     		mov	r2, r5
 109              	.LVL10:
 110 0016 FFF7FEFF 		bl	mf_render_character
 111              	.LVL11:
 112              		.loc 1 2847 0
ARM GAS  /tmp/cclL2Tth.s 			page 3


 113 001a 02B0     		add	sp, sp, #8
 114              		@ sp needed
 115 001c 70BD     		pop	{r4, r5, r6, pc}
 116              	.L6:
 117 001e 00BF     		.align	2
 118              	.L5:
 119 0020 00000000 		.word	drawcharline
 120              		.cfi_endproc
 121              	.LFE141:
 122              		.size	fillcharglyph, .-fillcharglyph
 123 0024 AFF30080 		.section	.text.hline_clip,"ax",%progbits
 123      AFF30080 
 123      AFF30080 
 124              		.align	2
 125              		.p2align 4,,15
 126              		.thumb
 127              		.thumb_func
 128              		.type	hline_clip, %function
 129              	hline_clip:
 130              	.LFB122:
 131              		.loc 1 267 0
 132              		.cfi_startproc
 133              		@ args = 0, pretend = 0, frame = 0
 134              		@ frame_needed = 0, uses_anonymous_args = 0
 135              	.LVL12:
 136 0000 F8B5     		push	{r3, r4, r5, r6, r7, lr}
 137              		.cfi_def_cfa_offset 24
 138              		.cfi_offset 3, -24
 139              		.cfi_offset 4, -20
 140              		.cfi_offset 5, -16
 141              		.cfi_offset 6, -12
 142              		.cfi_offset 7, -8
 143              		.cfi_offset 14, -4
 144              		.loc 1 269 0
 145 0002 028D     		ldrh	r2, [r0, #40]
 146 0004 038C     		ldrh	r3, [r0, #32]
 147              		.loc 1 267 0
 148 0006 0446     		mov	r4, r0
 149              		.loc 1 269 0
 150 0008 19B2     		sxth	r1, r3
 151 000a 10B2     		sxth	r0, r2
 152              	.LVL13:
 153 000c 8842     		cmp	r0, r1
 154 000e 02DA     		bge	.L8
 155              		.loc 1 270 0
 156 0010 A384     		strh	r3, [r4, #36]	@ movhi
 157 0012 2284     		strh	r2, [r4, #32]	@ movhi
 158 0014 2385     		strh	r3, [r4, #40]	@ movhi
 159              	.L8:
 160              		.loc 1 279 0
 161 0016 658C     		ldrh	r5, [r4, #34]
 162 0018 B4F91A20 		ldrsh	r2, [r4, #26]
 163 001c 2BB2     		sxth	r3, r5
 164 001e 9A42     		cmp	r2, r3
 165 0020 20DC     		bgt	.L7
 166              		.loc 1 279 0 is_stmt 0 discriminator 2
 167 0022 B4F91E20 		ldrsh	r2, [r4, #30]
ARM GAS  /tmp/cclL2Tth.s 			page 4


 168 0026 9A42     		cmp	r2, r3
 169 0028 1CDD     		ble	.L7
 170              	.LVL14:
 171              	.LBB20:
 172              	.LBB21:
 173              		.loc 1 280 0 is_stmt 1
 174 002a 268C     		ldrh	r6, [r4, #32]
 175 002c 238B     		ldrh	r3, [r4, #24]
 176 002e 31B2     		sxth	r1, r6
 177 0030 1AB2     		sxth	r2, r3
 178 0032 9142     		cmp	r1, r2
 179 0034 02DA     		bge	.L12
 180 0036 1E46     		mov	r6, r3
 181 0038 2384     		strh	r3, [r4, #32]	@ movhi
 182 003a 19B2     		sxth	r1, r3
 183              	.L12:
 184              		.loc 1 281 0
 185 003c 238D     		ldrh	r3, [r4, #40]
 186 003e A08B     		ldrh	r0, [r4, #28]
 187 0040 1AB2     		sxth	r2, r3
 188 0042 07B2     		sxth	r7, r0
 189 0044 BA42     		cmp	r2, r7
 190 0046 0EDA     		bge	.L17
 191              	.L13:
 192              		.loc 1 282 0
 193 0048 9142     		cmp	r1, r2
 194 004a 0BDC     		bgt	.L7
 195              		.loc 1 290 0
 196 004c 10D0     		beq	.L18
 197              		.loc 1 302 0
 198 004e C6F10106 		rsb	r6, r6, #1
 199 0052 3344     		add	r3, r3, r6
 200              		.loc 1 303 0
 201 0054 0122     		movs	r2, #1
 202              		.loc 1 302 0
 203 0056 A384     		strh	r3, [r4, #36]	@ movhi
 204              		.loc 1 303 0
 205 0058 E284     		strh	r2, [r4, #38]	@ movhi
 206              		.loc 1 304 0
 207 005a 2046     		mov	r0, r4
 208              	.LBE21:
 209              	.LBE20:
 210              		.loc 1 351 0
 211 005c BDE8F840 		pop	{r3, r4, r5, r6, r7, lr}
 212              	.LVL15:
 213              	.LBB30:
 214              	.LBB28:
 215              		.loc 1 304 0
 216 0060 FFF7FEBF 		b	gdisp_lld_fill_area
 217              	.LVL16:
 218              	.L7:
 219 0064 F8BD     		pop	{r3, r4, r5, r6, r7, pc}
 220              	.LVL17:
 221              	.L17:
 222              		.loc 1 281 0
 223 0066 431E     		subs	r3, r0, #1
 224 0068 9BB2     		uxth	r3, r3
ARM GAS  /tmp/cclL2Tth.s 			page 5


 225 006a 2385     		strh	r3, [r4, #40]	@ movhi
 226 006c 1AB2     		sxth	r2, r3
 227 006e EBE7     		b	.L13
 228              	.L18:
 229              	.LVL18:
 230              	.LBB22:
 231              	.LBB23:
 232              		.loc 1 151 0
 233 0070 E38A     		ldrh	r3, [r4, #22]
 234 0072 03F00203 		and	r3, r3, #2
 235 0076 9BB2     		uxth	r3, r3
 236 0078 73B9     		cbnz	r3, .L15
 237              	.LVL19:
 238              	.LBB24:
 239              	.LBB25:
 240              		.loc 1 100 0
 241 007a 2188     		ldrh	r1, [r4]
 242 007c 6288     		ldrh	r2, [r4, #2]
 243              		.loc 1 99 0
 244 007e 6384     		strh	r3, [r4, #34]	@ movhi
 245 0080 2384     		strh	r3, [r4, #32]	@ movhi
 246              		.loc 1 100 0
 247 0082 A184     		strh	r1, [r4, #36]	@ movhi
 248 0084 E284     		strh	r2, [r4, #38]	@ movhi
 249              		.loc 1 101 0
 250 0086 2046     		mov	r0, r4
 251 0088 FFF7FEFF 		bl	gdisp_lld_write_start
 252              	.LVL20:
 253              		.loc 1 103 0
 254 008c E38A     		ldrh	r3, [r4, #22]
 255              		.loc 1 102 0
 256 008e 2684     		strh	r6, [r4, #32]	@ movhi
 257              		.loc 1 103 0
 258 0090 43F00203 		orr	r3, r3, #2
 259              		.loc 1 102 0
 260 0094 6584     		strh	r5, [r4, #34]	@ movhi
 261              		.loc 1 103 0
 262 0096 E382     		strh	r3, [r4, #22]	@ movhi
 263              	.LVL21:
 264              	.L15:
 265              	.LBE25:
 266              	.LBE24:
 267              		.loc 1 153 0
 268 0098 2046     		mov	r0, r4
 269 009a FFF7FEFF 		bl	gdisp_lld_write_pos
 270              	.LVL22:
 271              		.loc 1 154 0
 272 009e 2046     		mov	r0, r4
 273              	.LBE23:
 274              	.LBE22:
 275              	.LBE28:
 276              	.LBE30:
 277              		.loc 1 351 0
 278 00a0 BDE8F840 		pop	{r3, r4, r5, r6, r7, lr}
 279              	.LVL23:
 280              	.LBB31:
 281              	.LBB29:
ARM GAS  /tmp/cclL2Tth.s 			page 6


 282              	.LBB27:
 283              	.LBB26:
 284              		.loc 1 154 0
 285 00a4 FFF7FEBF 		b	gdisp_lld_write_color
 286              	.LVL24:
 287              	.LBE26:
 288              	.LBE27:
 289              	.LBE29:
 290              	.LBE31:
 291              		.cfi_endproc
 292              	.LFE122:
 293              		.size	hline_clip, .-hline_clip
 294 00a8 AFF30080 		.section	.text.drawcharline,"ax",%progbits
 294      AFF30080 
 295              		.align	2
 296              		.p2align 4,,15
 297              		.thumb
 298              		.thumb_func
 299              		.type	drawcharline, %function
 300              	drawcharline:
 301              	.LFB139:
 302              		.loc 1 2793 0
 303              		.cfi_startproc
 304              		@ args = 4, pretend = 0, frame = 0
 305              		@ frame_needed = 0, uses_anonymous_args = 0
 306              		@ link register save eliminated.
 307              	.LVL25:
 308 0000 F0B4     		push	{r4, r5, r6, r7}
 309              		.cfi_def_cfa_offset 16
 310              		.cfi_offset 4, -16
 311              		.cfi_offset 5, -12
 312              		.cfi_offset 6, -8
 313              		.cfi_offset 7, -4
 314              		.loc 1 2793 0
 315 0002 049C     		ldr	r4, [sp, #16]
 316              		.loc 1 2795 0
 317 0004 B4F94250 		ldrsh	r5, [r4, #66]
 318 0008 8D42     		cmp	r5, r1
 319 000a 28DC     		bgt	.L19
 320              		.loc 1 2795 0 is_stmt 0 discriminator 1
 321 000c B4F94650 		ldrsh	r5, [r4, #70]
 322 0010 8D42     		cmp	r5, r1
 323 0012 24DD     		ble	.L19
 324              	.LVL26:
 325              	.LBB34:
 326              	.LBB35:
 327              		.loc 1 2795 0
 328 0014 B4F94050 		ldrsh	r5, [r4, #64]
 329 0018 8618     		adds	r6, r0, r2
 330 001a AE42     		cmp	r6, r5
 331 001c 1FDD     		ble	.L19
 332 001e B4F844C0 		ldrh	ip, [r4, #68]
 333 0022 0FFA8CF7 		sxth	r7, ip
 334 0026 B842     		cmp	r0, r7
 335 0028 19DA     		bge	.L19
 336              		.loc 1 2797 0 is_stmt 1
 337 002a A842     		cmp	r0, r5
ARM GAS  /tmp/cclL2Tth.s 			page 7


 338 002c 05DA     		bge	.L21
 339              		.loc 1 2798 0
 340 002e 521B     		subs	r2, r2, r5
 341              	.LVL27:
 342 0030 50FA82F2 		uxtab	r2, r0, r2
 343 0034 D2B2     		uxtb	r2, r2
 344              	.LVL28:
 345 0036 AE18     		adds	r6, r5, r2
 346 0038 2846     		mov	r0, r5
 347              	.LVL29:
 348              	.L21:
 349              		.loc 1 2801 0
 350 003a B742     		cmp	r7, r6
 351              		.loc 1 2802 0
 352 003c BCBF     		itt	lt
 353 003e C0EB0C02 		rsblt	r2, r0, ip
 354              	.LVL30:
 355 0042 D2B2     		uxtblt	r2, r2
 356              	.LVL31:
 357              		.loc 1 2803 0
 358 0044 802B     		cmp	r3, #128
 359 0046 0AD9     		bls	.L19
 360              		.loc 1 2804 0
 361 0048 431E     		subs	r3, r0, #1
 362              	.LVL32:
 363 004a 1A44     		add	r2, r2, r3
 364              	.LVL33:
 365 004c A38F     		ldrh	r3, [r4, #60]
 366 004e 2084     		strh	r0, [r4, #32]	@ movhi
 367 0050 2285     		strh	r2, [r4, #40]	@ movhi
 368 0052 6184     		strh	r1, [r4, #34]	@ movhi
 369 0054 2386     		strh	r3, [r4, #48]	@ movhi
 370              		.loc 1 2805 0
 371 0056 2046     		mov	r0, r4
 372              	.LVL34:
 373              	.LBE35:
 374              	.LBE34:
 375              		.loc 1 2808 0
 376 0058 F0BC     		pop	{r4, r5, r6, r7}
 377              	.LVL35:
 378              	.LBB37:
 379              	.LBB36:
 380              		.loc 1 2805 0
 381 005a FFF7FEBF 		b	hline_clip
 382              	.LVL36:
 383              	.L19:
 384              	.LBE36:
 385              	.LBE37:
 386              		.loc 1 2808 0
 387 005e F0BC     		pop	{r4, r5, r6, r7}
 388              	.LVL37:
 389 0060 7047     		bx	lr
 390              		.cfi_endproc
 391              	.LFE139:
 392              		.size	drawcharline, .-drawcharline
 393 0062 00BFAFF3 		.section	.text.vline_clip,"ax",%progbits
 393      0080AFF3 
ARM GAS  /tmp/cclL2Tth.s 			page 8


 393      0080AFF3 
 393      0080
 394              		.align	2
 395              		.p2align 4,,15
 396              		.thumb
 397              		.thumb_func
 398              		.type	vline_clip, %function
 399              	vline_clip:
 400              	.LFB123:
 401              		.loc 1 355 0
 402              		.cfi_startproc
 403              		@ args = 0, pretend = 0, frame = 0
 404              		@ frame_needed = 0, uses_anonymous_args = 0
 405              	.LVL38:
 406 0000 F8B5     		push	{r3, r4, r5, r6, r7, lr}
 407              		.cfi_def_cfa_offset 24
 408              		.cfi_offset 3, -24
 409              		.cfi_offset 4, -20
 410              		.cfi_offset 5, -16
 411              		.cfi_offset 6, -12
 412              		.cfi_offset 7, -8
 413              		.cfi_offset 14, -4
 414              		.loc 1 357 0
 415 0002 428D     		ldrh	r2, [r0, #42]
 416 0004 438C     		ldrh	r3, [r0, #34]
 417              		.loc 1 355 0
 418 0006 0446     		mov	r4, r0
 419              		.loc 1 357 0
 420 0008 19B2     		sxth	r1, r3
 421 000a 10B2     		sxth	r0, r2
 422              	.LVL39:
 423 000c 8842     		cmp	r0, r1
 424 000e 02DA     		bge	.L24
 425              		.loc 1 358 0
 426 0010 E384     		strh	r3, [r4, #38]	@ movhi
 427 0012 6284     		strh	r2, [r4, #34]	@ movhi
 428 0014 6385     		strh	r3, [r4, #42]	@ movhi
 429              	.L24:
 430              		.loc 1 367 0
 431 0016 258C     		ldrh	r5, [r4, #32]
 432 0018 B4F91820 		ldrsh	r2, [r4, #24]
 433 001c 2BB2     		sxth	r3, r5
 434 001e 9A42     		cmp	r2, r3
 435 0020 20DC     		bgt	.L23
 436              		.loc 1 367 0 is_stmt 0 discriminator 2
 437 0022 B4F91C20 		ldrsh	r2, [r4, #28]
 438 0026 9A42     		cmp	r2, r3
 439 0028 1CDD     		ble	.L23
 440              	.LVL40:
 441              	.LBB44:
 442              	.LBB45:
 443              		.loc 1 368 0 is_stmt 1
 444 002a 668C     		ldrh	r6, [r4, #34]
 445 002c 638B     		ldrh	r3, [r4, #26]
 446 002e 31B2     		sxth	r1, r6
 447 0030 1AB2     		sxth	r2, r3
 448 0032 9142     		cmp	r1, r2
ARM GAS  /tmp/cclL2Tth.s 			page 9


 449 0034 02DA     		bge	.L28
 450 0036 1E46     		mov	r6, r3
 451 0038 6384     		strh	r3, [r4, #34]	@ movhi
 452 003a 19B2     		sxth	r1, r3
 453              	.L28:
 454              		.loc 1 369 0
 455 003c 638D     		ldrh	r3, [r4, #42]
 456 003e E08B     		ldrh	r0, [r4, #30]
 457 0040 1AB2     		sxth	r2, r3
 458 0042 07B2     		sxth	r7, r0
 459 0044 BA42     		cmp	r2, r7
 460 0046 0EDA     		bge	.L32
 461              	.L29:
 462              		.loc 1 370 0
 463 0048 9142     		cmp	r1, r2
 464 004a 0BDC     		bgt	.L23
 465              		.loc 1 378 0
 466 004c 10D0     		beq	.L33
 467              		.loc 1 390 0
 468 004e C6F10106 		rsb	r6, r6, #1
 469 0052 3344     		add	r3, r3, r6
 470              		.loc 1 391 0
 471 0054 0122     		movs	r2, #1
 472              		.loc 1 390 0
 473 0056 E384     		strh	r3, [r4, #38]	@ movhi
 474              		.loc 1 391 0
 475 0058 A284     		strh	r2, [r4, #36]	@ movhi
 476              		.loc 1 392 0
 477 005a 2046     		mov	r0, r4
 478              	.LBE45:
 479              	.LBE44:
 480              		.loc 1 436 0
 481 005c BDE8F840 		pop	{r3, r4, r5, r6, r7, lr}
 482              	.LVL41:
 483              	.LBB54:
 484              	.LBB52:
 485              		.loc 1 392 0
 486 0060 FFF7FEBF 		b	gdisp_lld_fill_area
 487              	.LVL42:
 488              	.L23:
 489 0064 F8BD     		pop	{r3, r4, r5, r6, r7, pc}
 490              	.LVL43:
 491              	.L32:
 492              		.loc 1 369 0
 493 0066 431E     		subs	r3, r0, #1
 494 0068 9BB2     		uxth	r3, r3
 495 006a 6385     		strh	r3, [r4, #42]	@ movhi
 496 006c 1AB2     		sxth	r2, r3
 497 006e EBE7     		b	.L29
 498              	.L33:
 499              	.LVL44:
 500              	.LBB46:
 501              	.LBB47:
 502              		.loc 1 151 0
 503 0070 E38A     		ldrh	r3, [r4, #22]
 504 0072 03F00203 		and	r3, r3, #2
 505 0076 9BB2     		uxth	r3, r3
ARM GAS  /tmp/cclL2Tth.s 			page 10


 506 0078 73B9     		cbnz	r3, .L31
 507              	.LVL45:
 508              	.LBB48:
 509              	.LBB49:
 510              		.loc 1 100 0
 511 007a 2188     		ldrh	r1, [r4]
 512 007c 6288     		ldrh	r2, [r4, #2]
 513              		.loc 1 99 0
 514 007e 6384     		strh	r3, [r4, #34]	@ movhi
 515 0080 2384     		strh	r3, [r4, #32]	@ movhi
 516              		.loc 1 100 0
 517 0082 A184     		strh	r1, [r4, #36]	@ movhi
 518 0084 E284     		strh	r2, [r4, #38]	@ movhi
 519              		.loc 1 101 0
 520 0086 2046     		mov	r0, r4
 521 0088 FFF7FEFF 		bl	gdisp_lld_write_start
 522              	.LVL46:
 523              		.loc 1 103 0
 524 008c E38A     		ldrh	r3, [r4, #22]
 525              		.loc 1 102 0
 526 008e 2584     		strh	r5, [r4, #32]	@ movhi
 527              		.loc 1 103 0
 528 0090 43F00203 		orr	r3, r3, #2
 529              		.loc 1 102 0
 530 0094 6684     		strh	r6, [r4, #34]	@ movhi
 531              		.loc 1 103 0
 532 0096 E382     		strh	r3, [r4, #22]	@ movhi
 533              	.LVL47:
 534              	.L31:
 535              	.LBE49:
 536              	.LBE48:
 537              		.loc 1 153 0
 538 0098 2046     		mov	r0, r4
 539 009a FFF7FEFF 		bl	gdisp_lld_write_pos
 540              	.LVL48:
 541              		.loc 1 154 0
 542 009e 2046     		mov	r0, r4
 543              	.LBE47:
 544              	.LBE46:
 545              	.LBE52:
 546              	.LBE54:
 547              		.loc 1 436 0
 548 00a0 BDE8F840 		pop	{r3, r4, r5, r6, r7, lr}
 549              	.LVL49:
 550              	.LBB55:
 551              	.LBB53:
 552              	.LBB51:
 553              	.LBB50:
 554              		.loc 1 154 0
 555 00a4 FFF7FEBF 		b	gdisp_lld_write_color
 556              	.LVL50:
 557              	.LBE50:
 558              	.LBE51:
 559              	.LBE53:
 560              	.LBE55:
 561              		.cfi_endproc
 562              	.LFE123:
ARM GAS  /tmp/cclL2Tth.s 			page 11


 563              		.size	vline_clip, .-vline_clip
 564 00a8 AFF30080 		.section	.text._gdispDeinit,"ax",%progbits
 564      AFF30080 
 565              		.align	2
 566              		.p2align 4,,15
 567              		.global	_gdispDeinit
 568              		.thumb
 569              		.thumb_func
 570              		.type	_gdispDeinit, %function
 571              	_gdispDeinit:
 572              	.LFB127:
 573              		.loc 1 631 0
 574              		.cfi_startproc
 575              		@ args = 0, pretend = 0, frame = 0
 576              		@ frame_needed = 0, uses_anonymous_args = 0
 577              		@ link register save eliminated.
 578 0000 7047     		bx	lr
 579              		.cfi_endproc
 580              	.LFE127:
 581              		.size	_gdispDeinit, .-_gdispDeinit
 582 0002 00BFAFF3 		.section	.text.gdispGetDisplay,"ax",%progbits
 582      0080AFF3 
 582      0080AFF3 
 582      0080
 583              		.align	2
 584              		.p2align 4,,15
 585              		.global	gdispGetDisplay
 586              		.thumb
 587              		.thumb_func
 588              		.type	gdispGetDisplay, %function
 589              	gdispGetDisplay:
 590              	.LFB128:
 591              		.loc 1 635 0
 592              		.cfi_startproc
 593              		@ args = 0, pretend = 0, frame = 0
 594              		@ frame_needed = 0, uses_anonymous_args = 0
 595              		@ link register save eliminated.
 596              	.LVL51:
 597              		.loc 1 637 0
 598 0000 024B     		ldr	r3, .L38
 599              		.loc 1 636 0
 600 0002 0028     		cmp	r0, #0
 601              		.loc 1 639 0
 602 0004 0CBF     		ite	eq
 603 0006 1846     		moveq	r0, r3
 604 0008 0020     		movne	r0, #0
 605              	.LVL52:
 606 000a 7047     		bx	lr
 607              	.L39:
 608              		.align	2
 609              	.L38:
 610 000c 00000000 		.word	.LANCHOR0
 611              		.cfi_endproc
 612              	.LFE128:
 613              		.size	gdispGetDisplay, .-gdispGetDisplay
 614              		.section	.text.gdispSetDisplay,"ax",%progbits
 615              		.align	2
ARM GAS  /tmp/cclL2Tth.s 			page 12


 616              		.p2align 4,,15
 617              		.global	gdispSetDisplay
 618              		.thumb
 619              		.thumb_func
 620              		.type	gdispSetDisplay, %function
 621              	gdispSetDisplay:
 622              	.LFB129:
 623              		.loc 1 641 0
 624              		.cfi_startproc
 625              		@ args = 0, pretend = 0, frame = 0
 626              		@ frame_needed = 0, uses_anonymous_args = 0
 627              		@ link register save eliminated.
 628              	.LVL53:
 629              		.loc 1 642 0
 630 0000 08B1     		cbz	r0, .L40
 631              		.loc 1 642 0 is_stmt 0 discriminator 1
 632 0002 014B     		ldr	r3, .L45
 633 0004 1860     		str	r0, [r3]
 634              	.L40:
 635 0006 7047     		bx	lr
 636              	.L46:
 637              		.align	2
 638              	.L45:
 639 0008 00000000 		.word	.LANCHOR1
 640              		.cfi_endproc
 641              	.LFE129:
 642              		.size	gdispSetDisplay, .-gdispSetDisplay
 643 000c AFF30080 		.section	.text.gdispGFlush,"ax",%progbits
 644              		.align	2
 645              		.p2align 4,,15
 646              		.global	gdispGFlush
 647              		.thumb
 648              		.thumb_func
 649              		.type	gdispGFlush, %function
 650              	gdispGFlush:
 651              	.LFB130:
 652              		.loc 1 645 0 is_stmt 1
 653              		.cfi_startproc
 654              		@ args = 0, pretend = 0, frame = 0
 655              		@ frame_needed = 0, uses_anonymous_args = 0
 656              		@ link register save eliminated.
 657              	.LVL54:
 658 0000 7047     		bx	lr
 659              		.cfi_endproc
 660              	.LFE130:
 661              		.size	gdispGFlush, .-gdispGFlush
 662 0002 00BFAFF3 		.section	.text.gdispGDrawPixel,"ax",%progbits
 662      0080AFF3 
 662      0080AFF3 
 662      0080
 663              		.align	2
 664              		.p2align 4,,15
 665              		.global	gdispGDrawPixel
 666              		.thumb
 667              		.thumb_func
 668              		.type	gdispGDrawPixel, %function
 669              	gdispGDrawPixel:
ARM GAS  /tmp/cclL2Tth.s 			page 13


 670              	.LFB131:
 671              		.loc 1 907 0
 672              		.cfi_startproc
 673              		@ args = 0, pretend = 0, frame = 8
 674              		@ frame_needed = 0, uses_anonymous_args = 0
 675              	.LVL55:
 676              		.loc 1 907 0
 677 0000 70B5     		push	{r4, r5, r6, lr}
 678              		.cfi_def_cfa_offset 16
 679              		.cfi_offset 4, -16
 680              		.cfi_offset 5, -12
 681              		.cfi_offset 6, -8
 682              		.cfi_offset 14, -4
 683              	.LBB64:
 684              	.LBB65:
 685              		.loc 1 184 0
 686 0002 B0F91850 		ldrsh	r5, [r0, #24]
 687              	.LBE65:
 688              	.LBE64:
 689              		.loc 1 909 0
 690 0006 0184     		strh	r1, [r0, #32]	@ movhi
 691              	.LBB77:
 692              	.LBB74:
 693              		.loc 1 184 0
 694 0008 8D42     		cmp	r5, r1
 695              	.LBE74:
 696              	.LBE77:
 697              		.loc 1 907 0
 698 000a 82B0     		sub	sp, sp, #8
 699              		.cfi_def_cfa_offset 24
 700              		.loc 1 907 0
 701 000c 0446     		mov	r4, r0
 702              		.loc 1 910 0
 703 000e 4284     		strh	r2, [r0, #34]	@ movhi
 704              		.loc 1 911 0
 705 0010 0386     		strh	r3, [r0, #48]	@ movhi
 706              	.LVL56:
 707              	.LBB78:
 708              	.LBB75:
 709              		.loc 1 184 0
 710 0012 0BDC     		bgt	.L49
 711 0014 B0F91C30 		ldrsh	r3, [r0, #28]
 712              	.LVL57:
 713 0018 8B42     		cmp	r3, r1
 714 001a 07DD     		ble	.L49
 715              	.LVL58:
 716              	.LBB66:
 717              	.LBB67:
 718 001c B0F91A30 		ldrsh	r3, [r0, #26]
 719 0020 9342     		cmp	r3, r2
 720 0022 03DC     		bgt	.L49
 721 0024 B0F91E30 		ldrsh	r3, [r0, #30]
 722 0028 9342     		cmp	r3, r2
 723 002a 0BDC     		bgt	.L55
 724              	.LVL59:
 725              	.L49:
 726              	.LBE67:
ARM GAS  /tmp/cclL2Tth.s 			page 14


 727              	.LBE66:
 728              	.LBE75:
 729              	.LBE78:
 730              		.loc 1 913 0
 731 002c E38A     		ldrh	r3, [r4, #22]
 732 002e 9B07     		lsls	r3, r3, #30
 733 0030 06D5     		bpl	.L48
 734              		.loc 1 913 0 is_stmt 0 discriminator 1
 735 0032 2046     		mov	r0, r4
 736 0034 FFF7FEFF 		bl	gdisp_lld_write_stop
 737              	.LVL60:
 738 0038 E38A     		ldrh	r3, [r4, #22]
 739 003a 23F00203 		bic	r3, r3, #2
 740 003e E382     		strh	r3, [r4, #22]	@ movhi
 741              	.L48:
 742              		.loc 1 915 0 is_stmt 1
 743 0040 02B0     		add	sp, sp, #8
 744              		@ sp needed
 745 0042 70BD     		pop	{r4, r5, r6, pc}
 746              	.LVL61:
 747              	.L55:
 748              	.LBB79:
 749              	.LBB76:
 750              	.LBB73:
 751              	.LBB72:
 752              	.LBB68:
 753              	.LBB69:
 754              		.loc 1 151 0
 755 0044 C38A     		ldrh	r3, [r0, #22]
 756 0046 03F00203 		and	r3, r3, #2
 757 004a 9BB2     		uxth	r3, r3
 758 004c 8BB9     		cbnz	r3, .L50
 759              	.LVL62:
 760              	.LBB70:
 761              	.LBB71:
 762              		.loc 1 100 0
 763 004e 0688     		ldrh	r6, [r0]
 764 0050 4588     		ldrh	r5, [r0, #2]
 765              		.loc 1 99 0
 766 0052 4384     		strh	r3, [r0, #34]	@ movhi
 767 0054 0384     		strh	r3, [r0, #32]	@ movhi
 768              		.loc 1 100 0
 769 0056 8684     		strh	r6, [r0, #36]	@ movhi
 770 0058 C584     		strh	r5, [r0, #38]	@ movhi
 771              		.loc 1 101 0
 772 005a 0191     		str	r1, [sp, #4]
 773 005c 0092     		str	r2, [sp]
 774 005e FFF7FEFF 		bl	gdisp_lld_write_start
 775              	.LVL63:
 776              		.loc 1 103 0
 777 0062 E38A     		ldrh	r3, [r4, #22]
 778              		.loc 1 102 0
 779 0064 0199     		ldr	r1, [sp, #4]
 780 0066 009A     		ldr	r2, [sp]
 781 0068 2184     		strh	r1, [r4, #32]	@ movhi
 782              		.loc 1 103 0
 783 006a 43F00203 		orr	r3, r3, #2
ARM GAS  /tmp/cclL2Tth.s 			page 15


 784              		.loc 1 102 0
 785 006e 6284     		strh	r2, [r4, #34]	@ movhi
 786              		.loc 1 103 0
 787 0070 E382     		strh	r3, [r4, #22]	@ movhi
 788              	.LVL64:
 789              	.L50:
 790              	.LBE71:
 791              	.LBE70:
 792              		.loc 1 153 0
 793 0072 2046     		mov	r0, r4
 794 0074 FFF7FEFF 		bl	gdisp_lld_write_pos
 795              	.LVL65:
 796              		.loc 1 154 0
 797 0078 2046     		mov	r0, r4
 798 007a FFF7FEFF 		bl	gdisp_lld_write_color
 799              	.LVL66:
 800 007e D5E7     		b	.L49
 801              	.LBE69:
 802              	.LBE68:
 803              	.LBE72:
 804              	.LBE73:
 805              	.LBE76:
 806              	.LBE79:
 807              		.cfi_endproc
 808              	.LFE131:
 809              		.size	gdispGDrawPixel, .-gdispGDrawPixel
 810              		.section	.text.gdispGDrawLine,"ax",%progbits
 811              		.align	2
 812              		.p2align 4,,15
 813              		.global	gdispGDrawLine
 814              		.thumb
 815              		.thumb_func
 816              		.type	gdispGDrawLine, %function
 817              	gdispGDrawLine:
 818              	.LFB132:
 819              		.loc 1 917 0
 820              		.cfi_startproc
 821              		@ args = 8, pretend = 0, frame = 8
 822              		@ frame_needed = 0, uses_anonymous_args = 0
 823              	.LVL67:
 824 0000 2DE9F04F 		push	{r4, r5, r6, r7, r8, r9, r10, fp, lr}
 825              		.cfi_def_cfa_offset 36
 826              		.cfi_offset 4, -36
 827              		.cfi_offset 5, -32
 828              		.cfi_offset 6, -28
 829              		.cfi_offset 7, -24
 830              		.cfi_offset 8, -20
 831              		.cfi_offset 9, -16
 832              		.cfi_offset 10, -12
 833              		.cfi_offset 11, -8
 834              		.cfi_offset 14, -4
 835 0004 83B0     		sub	sp, sp, #12
 836              		.cfi_def_cfa_offset 48
 837              		.loc 1 917 0
 838 0006 0446     		mov	r4, r0
 839 0008 BDF93060 		ldrsh	r6, [sp, #48]
 840 000c BDF83450 		ldrh	r5, [sp, #52]
ARM GAS  /tmp/cclL2Tth.s 			page 16


 841              		.loc 1 923 0
 842 0010 0586     		strh	r5, [r0, #48]	@ movhi
 843              	.LVL68:
 844              	.LBB98:
 845              	.LBB99:
 846              		.loc 1 446 0
 847 0012 B242     		cmp	r2, r6
 848              	.LBE99:
 849              	.LBE98:
 850              		.loc 1 919 0
 851 0014 0184     		strh	r1, [r0, #32]	@ movhi
 852              		.loc 1 917 0
 853 0016 1546     		mov	r5, r2
 854              		.loc 1 920 0
 855 0018 6284     		strh	r2, [r4, #34]	@ movhi
 856              		.loc 1 921 0
 857 001a 0385     		strh	r3, [r0, #40]	@ movhi
 858              		.loc 1 922 0
 859 001c 4685     		strh	r6, [r0, #42]	@ movhi
 860              	.LBB126:
 861              	.LBB124:
 862              		.loc 1 446 0
 863 001e 00F0F180 		beq	.L81
 864              		.loc 1 452 0
 865 0022 9942     		cmp	r1, r3
 866 0024 00F0F180 		beq	.L82
 867              		.loc 1 465 0
 868 0028 57DD     		ble	.L83
 869              		.loc 1 469 0
 870 002a CB1A     		subs	r3, r1, r3
 871              	.LVL69:
 872              		.loc 1 472 0
 873 002c B542     		cmp	r5, r6
 874              		.loc 1 469 0
 875 002e 9BB2     		uxth	r3, r3
 876              	.LVL70:
 877              		.loc 1 470 0
 878 0030 4FF6FF79 		movw	r9, #65535
 879              	.LVL71:
 880              		.loc 1 472 0
 881 0034 57DC     		bgt	.L62
 882              	.LVL72:
 883              	.L86:
 884              		.loc 1 473 0
 885 0036 761B     		subs	r6, r6, r5
 886 0038 B6B2     		uxth	r6, r6
 887              	.LVL73:
 888              		.loc 1 480 0
 889 003a 0FFA83F8 		sxth	r8, r3
 890 003e 0FFA86FB 		sxth	fp, r6
 891 0042 D845     		cmp	r8, fp
 892              		.loc 1 474 0
 893 0044 4FF0010A 		mov	r10, #1
 894              	.LVL74:
 895              		.loc 1 480 0
 896 0048 57DB     		blt	.L64
 897              	.LVL75:
ARM GAS  /tmp/cclL2Tth.s 			page 17


 898              	.L87:
 899              		.loc 1 481 0
 900 004a 4FEA4B0B 		lsl	fp, fp, #1
 901              		.loc 1 482 0
 902 004e 1FFA8BF2 		uxth	r2, fp
 903              	.LVL76:
 904 0052 9BB2     		uxth	r3, r3
 905 0054 D61A     		subs	r6, r2, r3
 906 0056 B6B2     		uxth	r6, r6
 907              		.loc 1 483 0
 908 0058 F31A     		subs	r3, r6, r3
 909              		.loc 1 485 0
 910 005a B8F1000F 		cmp	r8, #0
 911              		.loc 1 483 0
 912 005e 1FFA83FB 		uxth	fp, r3
 913              		.loc 1 482 0
 914 0062 B6B2     		uxth	r6, r6
 915              	.LVL77:
 916              		.loc 1 485 0
 917 0064 2CDB     		blt	.L58
 918 0066 0D46     		mov	r5, r1
 919 0068 0027     		movs	r7, #0
 920 006a 0BE0     		b	.L71
 921              	.LVL78:
 922              	.L68:
 923              		.loc 1 493 0
 924 006c 638C     		ldrh	r3, [r4, #34]
 925 006e 0137     		adds	r7, r7, #1
 926              	.LVL79:
 927 0070 5344     		add	r3, r3, r10
 928 0072 6384     		strh	r3, [r4, #34]	@ movhi
 929              		.loc 1 485 0
 930 0074 3BB2     		sxth	r3, r7
 931              		.loc 1 491 0
 932 0076 5E44     		add	r6, r6, fp
 933              	.LVL80:
 934              		.loc 1 492 0
 935 0078 4D44     		add	r5, r5, r9
 936              		.loc 1 485 0
 937 007a 9845     		cmp	r8, r3
 938              		.loc 1 491 0
 939 007c B6B2     		uxth	r6, r6
 940              	.LVL81:
 941              		.loc 1 492 0
 942 007e 2584     		strh	r5, [r4, #32]	@ movhi
 943              		.loc 1 485 0
 944 0080 1EDB     		blt	.L58
 945              	.LVL82:
 946              	.L85:
 947 0082 258C     		ldrh	r5, [r4, #32]
 948              	.LVL83:
 949              	.L71:
 950              	.LBB100:
 951              	.LBB101:
 952              		.loc 1 184 0
 953 0084 B4F91810 		ldrsh	r1, [r4, #24]
 954 0088 2BB2     		sxth	r3, r5
ARM GAS  /tmp/cclL2Tth.s 			page 18


 955 008a 9942     		cmp	r1, r3
 956 008c 0EDC     		bgt	.L66
 957 008e B4F91C10 		ldrsh	r1, [r4, #28]
 958 0092 9942     		cmp	r1, r3
 959 0094 0ADD     		ble	.L66
 960              	.LVL84:
 961              	.LBB102:
 962              	.LBB103:
 963 0096 618C     		ldrh	r1, [r4, #34]
 964 0098 B4F91A00 		ldrsh	r0, [r4, #26]
 965 009c 0BB2     		sxth	r3, r1
 966 009e 9842     		cmp	r0, r3
 967 00a0 04DC     		bgt	.L66
 968 00a2 B4F91E00 		ldrsh	r0, [r4, #30]
 969 00a6 9842     		cmp	r0, r3
 970 00a8 00F38880 		bgt	.L84
 971              	.LVL85:
 972              	.L66:
 973              	.LBE103:
 974              	.LBE102:
 975              	.LBE101:
 976              	.LBE100:
 977              		.loc 1 487 0
 978 00ac 3004     		lsls	r0, r6, #16
 979 00ae DDD5     		bpl	.L68
 980 00b0 0137     		adds	r7, r7, #1
 981              	.LVL86:
 982              		.loc 1 485 0
 983 00b2 3BB2     		sxth	r3, r7
 984              		.loc 1 488 0
 985 00b4 1644     		add	r6, r6, r2
 986              	.LVL87:
 987              		.loc 1 489 0
 988 00b6 4D44     		add	r5, r5, r9
 989              		.loc 1 485 0
 990 00b8 9845     		cmp	r8, r3
 991              		.loc 1 488 0
 992 00ba B6B2     		uxth	r6, r6
 993              	.LVL88:
 994              		.loc 1 489 0
 995 00bc 2584     		strh	r5, [r4, #32]	@ movhi
 996              	.LVL89:
 997              		.loc 1 485 0
 998 00be E0DA     		bge	.L85
 999              	.LVL90:
 1000              	.L58:
 1001              	.LBE124:
 1002              	.LBE126:
 1003              		.loc 1 925 0
 1004 00c0 E38A     		ldrh	r3, [r4, #22]
 1005 00c2 9B07     		lsls	r3, r3, #30
 1006 00c4 06D5     		bpl	.L56
 1007              		.loc 1 925 0 is_stmt 0 discriminator 1
 1008 00c6 2046     		mov	r0, r4
 1009 00c8 FFF7FEFF 		bl	gdisp_lld_write_stop
 1010              	.LVL91:
 1011 00cc E38A     		ldrh	r3, [r4, #22]
ARM GAS  /tmp/cclL2Tth.s 			page 19


 1012 00ce 23F00203 		bic	r3, r3, #2
 1013 00d2 E382     		strh	r3, [r4, #22]	@ movhi
 1014              	.L56:
 1015              		.loc 1 927 0 is_stmt 1
 1016 00d4 03B0     		add	sp, sp, #12
 1017              		@ sp needed
 1018 00d6 BDE8F08F 		pop	{r4, r5, r6, r7, r8, r9, r10, fp, pc}
 1019              	.LVL92:
 1020              	.L83:
 1021              	.LBB127:
 1022              	.LBB125:
 1023              		.loc 1 466 0
 1024 00da 5B1A     		subs	r3, r3, r1
 1025              	.LVL93:
 1026              		.loc 1 472 0
 1027 00dc B542     		cmp	r5, r6
 1028              		.loc 1 466 0
 1029 00de 9BB2     		uxth	r3, r3
 1030              	.LVL94:
 1031              		.loc 1 467 0
 1032 00e0 4FF00109 		mov	r9, #1
 1033              	.LVL95:
 1034              		.loc 1 472 0
 1035 00e4 A7DD     		ble	.L86
 1036              	.LVL96:
 1037              	.L62:
 1038              		.loc 1 476 0
 1039 00e6 AE1B     		subs	r6, r5, r6
 1040 00e8 B6B2     		uxth	r6, r6
 1041              	.LVL97:
 1042              		.loc 1 480 0
 1043 00ea 0FFA83F8 		sxth	r8, r3
 1044 00ee 0FFA86FB 		sxth	fp, r6
 1045 00f2 D845     		cmp	r8, fp
 1046              		.loc 1 477 0
 1047 00f4 4FF6FF7A 		movw	r10, #65535
 1048              	.LVL98:
 1049              		.loc 1 480 0
 1050 00f8 A7DA     		bge	.L87
 1051              	.LVL99:
 1052              	.L64:
 1053              		.loc 1 497 0
 1054 00fa 4FEA4802 		lsl	r2, r8, #1
 1055              	.LVL100:
 1056              		.loc 1 498 0
 1057 00fe B6B2     		uxth	r6, r6
 1058 0100 92B2     		uxth	r2, r2
 1059 0102 931B     		subs	r3, r2, r6
 1060 0104 9BB2     		uxth	r3, r3
 1061              		.loc 1 499 0
 1062 0106 9E1B     		subs	r6, r3, r6
 1063              		.loc 1 501 0
 1064 0108 BBF1000F 		cmp	fp, #0
 1065              		.loc 1 499 0
 1066 010c 1FFA86FC 		uxth	ip, r6
 1067              		.loc 1 498 0
 1068 0110 9EB2     		uxth	r6, r3
ARM GAS  /tmp/cclL2Tth.s 			page 20


 1069              	.LVL101:
 1070              		.loc 1 501 0
 1071 0112 D5DB     		blt	.L58
 1072 0114 A846     		mov	r8, r5
 1073 0116 0027     		movs	r7, #0
 1074 0118 0D46     		mov	r5, r1
 1075 011a 0EE0     		b	.L76
 1076              	.LVL102:
 1077              	.L74:
 1078              		.loc 1 508 0
 1079 011c 238C     		ldrh	r3, [r4, #32]
 1080              		.loc 1 507 0
 1081 011e 6644     		add	r6, r6, ip
 1082              	.LVL103:
 1083              		.loc 1 509 0
 1084 0120 D044     		add	r8, r8, r10
 1085              		.loc 1 508 0
 1086 0122 4B44     		add	r3, r3, r9
 1087              		.loc 1 507 0
 1088 0124 B6B2     		uxth	r6, r6
 1089              	.LVL104:
 1090              		.loc 1 509 0
 1091 0126 A4F82280 		strh	r8, [r4, #34]	@ movhi
 1092              		.loc 1 508 0
 1093 012a 2384     		strh	r3, [r4, #32]	@ movhi
 1094              	.LVL105:
 1095              	.L75:
 1096 012c 0137     		adds	r7, r7, #1
 1097              	.LVL106:
 1098              		.loc 1 501 0
 1099 012e 3BB2     		sxth	r3, r7
 1100 0130 9B45     		cmp	fp, r3
 1101 0132 C5DB     		blt	.L58
 1102 0134 258C     		ldrh	r5, [r4, #32]
 1103 0136 B4F82280 		ldrh	r8, [r4, #34]
 1104              	.LVL107:
 1105              	.L76:
 1106              	.LBB111:
 1107              	.LBB112:
 1108              		.loc 1 184 0
 1109 013a B4F91810 		ldrsh	r1, [r4, #24]
 1110 013e 2BB2     		sxth	r3, r5
 1111 0140 9942     		cmp	r1, r3
 1112 0142 0DDC     		bgt	.L72
 1113 0144 B4F91C10 		ldrsh	r1, [r4, #28]
 1114 0148 9942     		cmp	r1, r3
 1115 014a 09DD     		ble	.L72
 1116              	.LVL108:
 1117              	.LBB113:
 1118              	.LBB114:
 1119 014c B4F91A10 		ldrsh	r1, [r4, #26]
 1120 0150 0FFA88F3 		sxth	r3, r8
 1121 0154 9942     		cmp	r1, r3
 1122 0156 03DC     		bgt	.L72
 1123 0158 B4F91E10 		ldrsh	r1, [r4, #30]
 1124 015c 9942     		cmp	r1, r3
 1125 015e 07DC     		bgt	.L88
ARM GAS  /tmp/cclL2Tth.s 			page 21


 1126              	.LVL109:
 1127              	.L72:
 1128              	.LBE114:
 1129              	.LBE113:
 1130              	.LBE112:
 1131              	.LBE111:
 1132              		.loc 1 503 0
 1133 0160 3104     		lsls	r1, r6, #16
 1134 0162 DBD5     		bpl	.L74
 1135              		.loc 1 504 0
 1136 0164 1644     		add	r6, r6, r2
 1137              	.LVL110:
 1138              		.loc 1 505 0
 1139 0166 D044     		add	r8, r8, r10
 1140              		.loc 1 504 0
 1141 0168 B6B2     		uxth	r6, r6
 1142              	.LVL111:
 1143              		.loc 1 505 0
 1144 016a A4F82280 		strh	r8, [r4, #34]	@ movhi
 1145 016e DDE7     		b	.L75
 1146              	.LVL112:
 1147              	.L88:
 1148              	.LBB122:
 1149              	.LBB121:
 1150              	.LBB120:
 1151              	.LBB119:
 1152              	.LBB115:
 1153              	.LBB116:
 1154              		.loc 1 151 0
 1155 0170 E38A     		ldrh	r3, [r4, #22]
 1156 0172 03F00203 		and	r3, r3, #2
 1157 0176 9BB2     		uxth	r3, r3
 1158 0178 9BB9     		cbnz	r3, .L73
 1159              	.LVL113:
 1160              	.LBB117:
 1161              	.LBB118:
 1162              		.loc 1 100 0
 1163 017a 2088     		ldrh	r0, [r4]
 1164 017c 6188     		ldrh	r1, [r4, #2]
 1165              		.loc 1 99 0
 1166 017e 6384     		strh	r3, [r4, #34]	@ movhi
 1167 0180 2384     		strh	r3, [r4, #32]	@ movhi
 1168              		.loc 1 100 0
 1169 0182 A084     		strh	r0, [r4, #36]	@ movhi
 1170 0184 E184     		strh	r1, [r4, #38]	@ movhi
 1171              		.loc 1 101 0
 1172 0186 2046     		mov	r0, r4
 1173 0188 8DE80410 		stmia	sp, {r2, ip}
 1174 018c FFF7FEFF 		bl	gdisp_lld_write_start
 1175              	.LVL114:
 1176              		.loc 1 103 0
 1177 0190 E38A     		ldrh	r3, [r4, #22]
 1178              		.loc 1 102 0
 1179 0192 2584     		strh	r5, [r4, #32]	@ movhi
 1180              		.loc 1 103 0
 1181 0194 9DE80410 		ldmia	sp, {r2, ip}
 1182 0198 43F00203 		orr	r3, r3, #2
ARM GAS  /tmp/cclL2Tth.s 			page 22


 1183              		.loc 1 102 0
 1184 019c A4F82280 		strh	r8, [r4, #34]	@ movhi
 1185              		.loc 1 103 0
 1186 01a0 E382     		strh	r3, [r4, #22]	@ movhi
 1187              	.LVL115:
 1188              	.L73:
 1189              	.LBE118:
 1190              	.LBE117:
 1191              		.loc 1 153 0
 1192 01a2 2046     		mov	r0, r4
 1193 01a4 8DE80410 		stmia	sp, {r2, ip}
 1194 01a8 FFF7FEFF 		bl	gdisp_lld_write_pos
 1195              	.LVL116:
 1196              		.loc 1 154 0
 1197 01ac 2046     		mov	r0, r4
 1198 01ae FFF7FEFF 		bl	gdisp_lld_write_color
 1199              	.LVL117:
 1200 01b2 B4F82280 		ldrh	r8, [r4, #34]
 1201 01b6 9DE80410 		ldmia	sp, {r2, ip}
 1202 01ba D1E7     		b	.L72
 1203              	.LVL118:
 1204              	.L84:
 1205              	.LBE116:
 1206              	.LBE115:
 1207              	.LBE119:
 1208              	.LBE120:
 1209              	.LBE121:
 1210              	.LBE122:
 1211              	.LBB123:
 1212              	.LBB110:
 1213              	.LBB109:
 1214              	.LBB108:
 1215              	.LBB104:
 1216              	.LBB105:
 1217              		.loc 1 151 0
 1218 01bc E38A     		ldrh	r3, [r4, #22]
 1219 01be 03F00203 		and	r3, r3, #2
 1220 01c2 9BB2     		uxth	r3, r3
 1221 01c4 A3B9     		cbnz	r3, .L67
 1222              	.LVL119:
 1223              	.LBB106:
 1224              	.LBB107:
 1225              		.loc 1 100 0
 1226 01c6 6088     		ldrh	r0, [r4, #2]
 1227 01c8 B4F800E0 		ldrh	lr, [r4]
 1228              		.loc 1 99 0
 1229 01cc 6384     		strh	r3, [r4, #34]	@ movhi
 1230 01ce 2384     		strh	r3, [r4, #32]	@ movhi
 1231              		.loc 1 100 0
 1232 01d0 E084     		strh	r0, [r4, #38]	@ movhi
 1233 01d2 A4F824E0 		strh	lr, [r4, #36]	@ movhi
 1234              		.loc 1 101 0
 1235 01d6 2046     		mov	r0, r4
 1236 01d8 0191     		str	r1, [sp, #4]
 1237 01da 0092     		str	r2, [sp]
 1238 01dc FFF7FEFF 		bl	gdisp_lld_write_start
 1239              	.LVL120:
ARM GAS  /tmp/cclL2Tth.s 			page 23


 1240              		.loc 1 103 0
 1241 01e0 E38A     		ldrh	r3, [r4, #22]
 1242              		.loc 1 102 0
 1243 01e2 0199     		ldr	r1, [sp, #4]
 1244              		.loc 1 103 0
 1245 01e4 009A     		ldr	r2, [sp]
 1246              		.loc 1 102 0
 1247 01e6 2584     		strh	r5, [r4, #32]	@ movhi
 1248              		.loc 1 103 0
 1249 01e8 43F00203 		orr	r3, r3, #2
 1250              		.loc 1 102 0
 1251 01ec 6184     		strh	r1, [r4, #34]	@ movhi
 1252              		.loc 1 103 0
 1253 01ee E382     		strh	r3, [r4, #22]	@ movhi
 1254              	.LVL121:
 1255              	.L67:
 1256              	.LBE107:
 1257              	.LBE106:
 1258              		.loc 1 153 0
 1259 01f0 2046     		mov	r0, r4
 1260 01f2 0092     		str	r2, [sp]
 1261 01f4 FFF7FEFF 		bl	gdisp_lld_write_pos
 1262              	.LVL122:
 1263              		.loc 1 154 0
 1264 01f8 2046     		mov	r0, r4
 1265 01fa FFF7FEFF 		bl	gdisp_lld_write_color
 1266              	.LVL123:
 1267 01fe 258C     		ldrh	r5, [r4, #32]
 1268 0200 009A     		ldr	r2, [sp]
 1269 0202 53E7     		b	.L66
 1270              	.LVL124:
 1271              	.L81:
 1272              	.LBE105:
 1273              	.LBE104:
 1274              	.LBE108:
 1275              	.LBE109:
 1276              	.LBE110:
 1277              	.LBE123:
 1278              		.loc 1 447 0
 1279 0204 FFF7FEFF 		bl	hline_clip
 1280              	.LVL125:
 1281 0208 5AE7     		b	.L58
 1282              	.LVL126:
 1283              	.L82:
 1284              		.loc 1 453 0
 1285 020a FFF7FEFF 		bl	vline_clip
 1286              	.LVL127:
 1287 020e 57E7     		b	.L58
 1288              	.LBE125:
 1289              	.LBE127:
 1290              		.cfi_endproc
 1291              	.LFE132:
 1292              		.size	gdispGDrawLine, .-gdispGDrawLine
 1293              		.section	.text.gdispGClear,"ax",%progbits
 1294              		.align	2
 1295              		.p2align 4,,15
 1296              		.global	gdispGClear
ARM GAS  /tmp/cclL2Tth.s 			page 24


 1297              		.thumb
 1298              		.thumb_func
 1299              		.type	gdispGClear, %function
 1300              	gdispGClear:
 1301              	.LFB133:
 1302              		.loc 1 929 0
 1303              		.cfi_startproc
 1304              		@ args = 0, pretend = 0, frame = 0
 1305              		@ frame_needed = 0, uses_anonymous_args = 0
 1306              		@ link register save eliminated.
 1307              	.LVL128:
 1308 0000 30B4     		push	{r4, r5}
 1309              		.cfi_def_cfa_offset 8
 1310              		.cfi_offset 4, -8
 1311              		.cfi_offset 5, -4
 1312              		.loc 1 953 0
 1313 0002 0022     		movs	r2, #0
 1314              		.loc 1 954 0
 1315 0004 0588     		ldrh	r5, [r0]
 1316              		.loc 1 955 0
 1317 0006 4488     		ldrh	r4, [r0, #2]
 1318              		.loc 1 954 0
 1319 0008 8584     		strh	r5, [r0, #36]	@ movhi
 1320              		.loc 1 955 0
 1321 000a C484     		strh	r4, [r0, #38]	@ movhi
 1322              		.loc 1 956 0
 1323 000c 0186     		strh	r1, [r0, #48]	@ movhi
 1324              		.loc 1 953 0
 1325 000e 4284     		strh	r2, [r0, #34]	@ movhi
 1326 0010 0284     		strh	r2, [r0, #32]	@ movhi
 1327              		.loc 1 1010 0
 1328 0012 30BC     		pop	{r4, r5}
 1329              		.loc 1 957 0
 1330 0014 FFF7FEBF 		b	gdisp_lld_fill_area
 1331              	.LVL129:
 1332              		.cfi_endproc
 1333              	.LFE133:
 1334              		.size	gdispGClear, .-gdispGClear
 1335              		.section	.text.gdispGFillArea,"ax",%progbits
 1336              		.align	2
 1337              		.p2align 4,,15
 1338              		.global	gdispGFillArea
 1339              		.thumb
 1340              		.thumb_func
 1341              		.type	gdispGFillArea, %function
 1342              	gdispGFillArea:
 1343              	.LFB134:
 1344              		.loc 1 1012 0
 1345              		.cfi_startproc
 1346              		@ args = 8, pretend = 0, frame = 0
 1347              		@ frame_needed = 0, uses_anonymous_args = 0
 1348              		@ link register save eliminated.
 1349              	.LVL130:
 1350 0000 F0B4     		push	{r4, r5, r6, r7}
 1351              		.cfi_def_cfa_offset 16
 1352              		.cfi_offset 4, -16
 1353              		.cfi_offset 5, -12
ARM GAS  /tmp/cclL2Tth.s 			page 25


 1354              		.cfi_offset 6, -8
 1355              		.cfi_offset 7, -4
 1356              		.loc 1 1019 0
 1357 0002 048B     		ldrh	r4, [r0, #24]
 1358              		.loc 1 1012 0
 1359 0004 BDF81450 		ldrh	r5, [sp, #20]
 1360 0008 BDF91070 		ldrsh	r7, [sp, #16]
 1361              		.loc 1 1014 0
 1362 000c 0184     		strh	r1, [r0, #32]	@ movhi
 1363              		.loc 1 1019 0
 1364 000e 26B2     		sxth	r6, r4
 1365 0010 B142     		cmp	r1, r6
 1366              		.loc 1 1015 0
 1367 0012 4284     		strh	r2, [r0, #34]	@ movhi
 1368              		.loc 1 1016 0
 1369 0014 8384     		strh	r3, [r0, #36]	@ movhi
 1370              		.loc 1 1018 0
 1371 0016 0586     		strh	r5, [r0, #48]	@ movhi
 1372              		.loc 1 1017 0
 1373 0018 C784     		strh	r7, [r0, #38]	@ movhi
 1374              		.loc 1 1019 0
 1375 001a 2DDA     		bge	.L96
 1376              		.loc 1 1019 0 is_stmt 0 discriminator 1
 1377 001c 1B1B     		subs	r3, r3, r4
 1378              	.LVL131:
 1379 001e 0B44     		add	r3, r3, r1
 1380 0020 9BB2     		uxth	r3, r3
 1381 0022 8384     		strh	r3, [r0, #36]	@ movhi
 1382              	.LVL132:
 1383 0024 0484     		strh	r4, [r0, #32]	@ movhi
 1384              	.L91:
 1385              		.loc 1 1019 0 discriminator 2
 1386 0026 418B     		ldrh	r1, [r0, #26]
 1387              	.LVL133:
 1388 0028 0DB2     		sxth	r5, r1
 1389 002a AA42     		cmp	r2, r5
 1390 002c 21DA     		bge	.L97
 1391              		.loc 1 1019 0 discriminator 1
 1392 002e 7F1A     		subs	r7, r7, r1
 1393 0030 1744     		add	r7, r7, r2
 1394 0032 BFB2     		uxth	r7, r7
 1395 0034 C784     		strh	r7, [r0, #38]	@ movhi
 1396 0036 4184     		strh	r1, [r0, #34]	@ movhi
 1397              	.L92:
 1398              		.loc 1 1019 0 discriminator 2
 1399 0038 828B     		ldrh	r2, [r0, #28]
 1400              	.LVL134:
 1401 003a 1BB2     		sxth	r3, r3
 1402 003c 1E44     		add	r6, r6, r3
 1403 003e 0FFA82FC 		sxth	ip, r2
 1404 0042 6645     		cmp	r6, ip
 1405 0044 03DD     		ble	.L93
 1406              		.loc 1 1019 0 discriminator 1
 1407 0046 141B     		subs	r4, r2, r4
 1408 0048 A3B2     		uxth	r3, r4
 1409 004a 8384     		strh	r3, [r0, #36]	@ movhi
 1410 004c 1BB2     		sxth	r3, r3
ARM GAS  /tmp/cclL2Tth.s 			page 26


 1411              	.L93:
 1412              		.loc 1 1019 0 discriminator 2
 1413 004e C48B     		ldrh	r4, [r0, #30]
 1414 0050 05FA87F7 		sxtah	r7, r5, r7
 1415 0054 26B2     		sxth	r6, r4
 1416 0056 B742     		cmp	r7, r6
 1417 0058 C4BF     		itt	gt
 1418 005a C1EB0401 		rsbgt	r1, r1, r4
 1419 005e C184     		strhgt	r1, [r0, #38]	@ movhi
 1420 0060 002B     		cmp	r3, #0
 1421 0062 0CDD     		ble	.L90
 1422              		.loc 1 1019 0 discriminator 1
 1423 0064 B0F92630 		ldrsh	r3, [r0, #38]
 1424 0068 002B     		cmp	r3, #0
 1425 006a 08DD     		ble	.L90
 1426              	.LVL135:
 1427              		.loc 1 1024 0 is_stmt 1
 1428 006c F0BC     		pop	{r4, r5, r6, r7}
 1429              	.LVL136:
 1430              	.LBB128:
 1431              	.LBB129:
 1432              		.loc 1 206 0
 1433 006e FFF7FEBF 		b	gdisp_lld_fill_area
 1434              	.LVL137:
 1435              	.L97:
 1436              	.LBE129:
 1437              	.LBE128:
 1438 0072 1146     		mov	r1, r2
 1439 0074 15B2     		sxth	r5, r2
 1440 0076 DFE7     		b	.L92
 1441              	.LVL138:
 1442              	.L96:
 1443 0078 0C46     		mov	r4, r1
 1444 007a 0EB2     		sxth	r6, r1
 1445 007c D3E7     		b	.L91
 1446              	.LVL139:
 1447              	.L90:
 1448              		.loc 1 1024 0
 1449 007e F0BC     		pop	{r4, r5, r6, r7}
 1450              	.LVL140:
 1451 0080 7047     		bx	lr
 1452              		.cfi_endproc
 1453              	.LFE134:
 1454              		.size	gdispGFillArea, .-gdispGFillArea
 1455 0082 00BFAFF3 		.section	.text.gdispGBlitArea,"ax",%progbits
 1455      0080AFF3 
 1455      0080AFF3 
 1455      0080
 1456              		.align	2
 1457              		.p2align 4,,15
 1458              		.global	gdispGBlitArea
 1459              		.thumb
 1460              		.thumb_func
 1461              		.type	gdispGBlitArea, %function
 1462              	gdispGBlitArea:
 1463              	.LFB135:
 1464              		.loc 1 1026 0
ARM GAS  /tmp/cclL2Tth.s 			page 27


 1465              		.cfi_startproc
 1466              		@ args = 20, pretend = 0, frame = 0
 1467              		@ frame_needed = 0, uses_anonymous_args = 0
 1468              		@ link register save eliminated.
 1469              	.LVL141:
 1470 0000 2DE9F007 		push	{r4, r5, r6, r7, r8, r9, r10}
 1471              		.cfi_def_cfa_offset 28
 1472              		.cfi_offset 4, -28
 1473              		.cfi_offset 5, -24
 1474              		.cfi_offset 6, -20
 1475              		.cfi_offset 7, -16
 1476              		.cfi_offset 8, -12
 1477              		.cfi_offset 9, -8
 1478              		.cfi_offset 10, -4
 1479              		.loc 1 1035 0
 1480 0004 B0F91870 		ldrsh	r7, [r0, #24]
 1481              		.loc 1 1026 0
 1482 0008 BDF91C40 		ldrsh	r4, [sp, #28]
 1483 000c BDF92050 		ldrsh	r5, [sp, #32]
 1484 0010 BDF924C0 		ldrsh	ip, [sp, #36]
 1485 0014 BDF92860 		ldrsh	r6, [sp, #40]
 1486 0018 DDF82C80 		ldr	r8, [sp, #44]
 1487              		.loc 1 1035 0
 1488 001c 8F42     		cmp	r7, r1
 1489 001e 0ADD     		ble	.L99
 1490              		.loc 1 1035 0 is_stmt 0 discriminator 1
 1491 0020 1FFA87F9 		uxth	r9, r7
 1492 0024 89B2     		uxth	r1, r1
 1493 0026 4D44     		add	r5, r5, r9
 1494 0028 C9EB0303 		rsb	r3, r9, r3
 1495              	.LVL142:
 1496 002c 0B44     		add	r3, r3, r1
 1497 002e 691A     		subs	r1, r5, r1
 1498              	.LVL143:
 1499 0030 0DB2     		sxth	r5, r1
 1500 0032 1BB2     		sxth	r3, r3
 1501              	.LVL144:
 1502 0034 3946     		mov	r1, r7
 1503              	.LVL145:
 1504              	.L99:
 1505              		.loc 1 1036 0 is_stmt 1
 1506 0036 B0F91A70 		ldrsh	r7, [r0, #26]
 1507 003a 9742     		cmp	r7, r2
 1508 003c 0BDD     		ble	.L100
 1509              		.loc 1 1036 0 is_stmt 0 discriminator 1
 1510 003e 1FFA87F9 		uxth	r9, r7
 1511 0042 C9EB0404 		rsb	r4, r9, r4
 1512 0046 CC44     		add	ip, ip, r9
 1513 0048 1444     		add	r4, r4, r2
 1514 004a C1EB0C0C 		rsb	ip, r1, ip
 1515 004e 24B2     		sxth	r4, r4
 1516              	.LVL146:
 1517 0050 0FFA8CFC 		sxth	ip, ip
 1518              	.LVL147:
 1519 0054 3A46     		mov	r2, r7
 1520              	.LVL148:
 1521              	.L100:
ARM GAS  /tmp/cclL2Tth.s 			page 28


 1522              		.loc 1 1037 0 is_stmt 1
 1523 0056 878B     		ldrh	r7, [r0, #28]
 1524 0058 01EB030A 		add	r10, r1, r3
 1525 005c 0FFA87F9 		sxth	r9, r7
 1526 0060 CA45     		cmp	r10, r9
 1527 0062 C8BF     		it	gt
 1528 0064 C1EB0703 		rsbgt	r3, r1, r7
 1529              	.LVL149:
 1530              		.loc 1 1038 0
 1531 0068 C78B     		ldrh	r7, [r0, #30]
 1532 006a 02EB040A 		add	r10, r2, r4
 1533 006e 0FFA87F9 		sxth	r9, r7
 1534              		.loc 1 1037 0
 1535 0072 C8BF     		it	gt
 1536 0074 1BB2     		sxthgt	r3, r3
 1537              	.LVL150:
 1538              		.loc 1 1038 0
 1539 0076 CA45     		cmp	r10, r9
 1540 0078 C8BF     		it	gt
 1541 007a C2EB0704 		rsbgt	r4, r2, r7
 1542              	.LVL151:
 1543              		.loc 1 1039 0
 1544 007e 05EB0307 		add	r7, r5, r3
 1545              		.loc 1 1038 0
 1546 0082 C8BF     		it	gt
 1547 0084 24B2     		sxthgt	r4, r4
 1548              	.LVL152:
 1549              		.loc 1 1039 0
 1550 0086 B742     		cmp	r7, r6
 1551 0088 C4BF     		itt	gt
 1552 008a C5EB0603 		rsbgt	r3, r5, r6
 1553              	.LVL153:
 1554 008e 1BB2     		sxthgt	r3, r3
 1555              	.LVL154:
 1556              		.loc 1 1040 0
 1557 0090 002B     		cmp	r3, #0
 1558 0092 0FDD     		ble	.L98
 1559              		.loc 1 1040 0 is_stmt 0 discriminator 2
 1560 0094 002C     		cmp	r4, #0
 1561 0096 0DDD     		ble	.L98
 1562              		.loc 1 1053 0 is_stmt 1
 1563 0098 C484     		strh	r4, [r0, #38]	@ movhi
 1564              		.loc 1 1054 0
 1565 009a 0585     		strh	r5, [r0, #40]	@ movhi
 1566              		.loc 1 1056 0
 1567 009c 8685     		strh	r6, [r0, #44]	@ movhi
 1568              		.loc 1 1057 0
 1569 009e C0F83480 		str	r8, [r0, #52]
 1570              		.loc 1 1050 0
 1571 00a2 0184     		strh	r1, [r0, #32]	@ movhi
 1572              		.loc 1 1051 0
 1573 00a4 4284     		strh	r2, [r0, #34]	@ movhi
 1574              		.loc 1 1052 0
 1575 00a6 8384     		strh	r3, [r0, #36]	@ movhi
 1576              		.loc 1 1055 0
 1577 00a8 A0F82AC0 		strh	ip, [r0, #42]	@ movhi
 1578              		.loc 1 1160 0
ARM GAS  /tmp/cclL2Tth.s 			page 29


 1579 00ac BDE8F007 		pop	{r4, r5, r6, r7, r8, r9, r10}
 1580              	.LVL155:
 1581              		.loc 1 1058 0
 1582 00b0 FFF7FEBF 		b	gdisp_lld_blit_area
 1583              	.LVL156:
 1584              	.L98:
 1585              		.loc 1 1160 0
 1586 00b4 BDE8F007 		pop	{r4, r5, r6, r7, r8, r9, r10}
 1587              	.LVL157:
 1588 00b8 7047     		bx	lr
 1589              		.cfi_endproc
 1590              	.LFE135:
 1591              		.size	gdispGBlitArea, .-gdispGBlitArea
 1592 00ba 00BFAFF3 		.section	.text.gdispGSetClip,"ax",%progbits
 1592      0080
 1593              		.align	2
 1594              		.p2align 4,,15
 1595              		.global	gdispGSetClip
 1596              		.thumb
 1597              		.thumb_func
 1598              		.type	gdispGSetClip, %function
 1599              	gdispGSetClip:
 1600              	.LFB136:
 1601              		.loc 1 1163 0
 1602              		.cfi_startproc
 1603              		@ args = 4, pretend = 0, frame = 0
 1604              		@ frame_needed = 0, uses_anonymous_args = 0
 1605              		@ link register save eliminated.
 1606              	.LVL158:
 1607 0000 2DE9F003 		push	{r4, r5, r6, r7, r8, r9}
 1608              		.cfi_def_cfa_offset 24
 1609              		.cfi_offset 4, -24
 1610              		.cfi_offset 5, -20
 1611              		.cfi_offset 6, -16
 1612              		.cfi_offset 7, -12
 1613              		.cfi_offset 8, -8
 1614              		.cfi_offset 9, -4
 1615              		.loc 1 1186 0
 1616 0004 0029     		cmp	r1, #0
 1617              	.LVL159:
 1618              		.loc 1 1163 0
 1619 0006 BDF91840 		ldrsh	r4, [sp, #24]
 1620              		.loc 1 1186 0
 1621 000a 27DB     		blt	.L114
 1622              	.LVL160:
 1623              	.L106:
 1624              		.loc 1 1187 0
 1625 000c 002A     		cmp	r2, #0
 1626 000e 21DB     		blt	.L115
 1627              	.LVL161:
 1628              	.L107:
 1629              		.loc 1 1188 0
 1630 0010 002B     		cmp	r3, #0
 1631 0012 1CDD     		ble	.L105
 1632              		.loc 1 1188 0 is_stmt 0 discriminator 2
 1633 0014 002C     		cmp	r4, #0
 1634 0016 1ADD     		ble	.L105
ARM GAS  /tmp/cclL2Tth.s 			page 30


 1635              		.loc 1 1188 0 discriminator 1
 1636 0018 0588     		ldrh	r5, [r0]
 1637 001a 2EB2     		sxth	r6, r5
 1638 001c B142     		cmp	r1, r6
 1639 001e 16DA     		bge	.L105
 1640 0020 4788     		ldrh	r7, [r0, #2]
 1641 0022 0FFA87FC 		sxth	ip, r7
 1642 0026 6245     		cmp	r2, ip
 1643 0028 11DA     		bge	.L105
 1644              		.loc 1 1191 0 is_stmt 1
 1645 002a 0B44     		add	r3, r3, r1
 1646              	.LVL162:
 1647              		.loc 1 1192 0
 1648 002c 1444     		add	r4, r4, r2
 1649              	.LVL163:
 1650              		.loc 1 1191 0
 1651 002e 9BB2     		uxth	r3, r3
 1652              		.loc 1 1192 0
 1653 0030 A4B2     		uxth	r4, r4
 1654              		.loc 1 1191 0
 1655 0032 0FFA83F9 		sxth	r9, r3
 1656              		.loc 1 1192 0
 1657 0036 0FFA84F8 		sxth	r8, r4
 1658              		.loc 1 1191 0
 1659 003a 4E45     		cmp	r6, r9
 1660 003c A8BF     		it	ge
 1661 003e 1D46     		movge	r5, r3
 1662              		.loc 1 1192 0
 1663 0040 C445     		cmp	ip, r8
 1664 0042 A8BF     		it	ge
 1665 0044 2746     		movge	r7, r4
 1666              		.loc 1 1189 0
 1667 0046 0183     		strh	r1, [r0, #24]	@ movhi
 1668              		.loc 1 1190 0
 1669 0048 4283     		strh	r2, [r0, #26]	@ movhi
 1670              		.loc 1 1191 0
 1671 004a 8583     		strh	r5, [r0, #28]	@ movhi
 1672              		.loc 1 1192 0
 1673 004c C783     		strh	r7, [r0, #30]	@ movhi
 1674              	.L105:
 1675              		.loc 1 1196 0
 1676 004e BDE8F003 		pop	{r4, r5, r6, r7, r8, r9}
 1677 0052 7047     		bx	lr
 1678              	.LVL164:
 1679              	.L115:
 1680              		.loc 1 1187 0 discriminator 1
 1681 0054 1444     		add	r4, r4, r2
 1682 0056 24B2     		sxth	r4, r4
 1683              	.LVL165:
 1684 0058 0022     		movs	r2, #0
 1685 005a D9E7     		b	.L107
 1686              	.LVL166:
 1687              	.L114:
 1688              		.loc 1 1186 0 discriminator 1
 1689 005c 0B44     		add	r3, r3, r1
 1690              	.LVL167:
 1691 005e 1BB2     		sxth	r3, r3
ARM GAS  /tmp/cclL2Tth.s 			page 31


 1692              	.LVL168:
 1693 0060 0021     		movs	r1, #0
 1694 0062 D3E7     		b	.L106
 1695              		.cfi_endproc
 1696              	.LFE136:
 1697              		.size	gdispGSetClip, .-gdispGSetClip
 1698 0064 AFF30080 		.section	.text.gdispGControl,"ax",%progbits
 1698      AFF30080 
 1698      AFF30080 
 1699              		.align	2
 1700              		.p2align 4,,15
 1701              		.global	gdispGControl
 1702              		.thumb
 1703              		.thumb_func
 1704              		.type	gdispGControl, %function
 1705              	gdispGControl:
 1706              	.LFB137:
 1707              		.loc 1 2353 0
 1708              		.cfi_startproc
 1709              		@ args = 0, pretend = 0, frame = 0
 1710              		@ frame_needed = 0, uses_anonymous_args = 0
 1711              	.LVL169:
 1712              		.loc 1 2361 0
 1713 0000 0129     		cmp	r1, #1
 1714              		.loc 1 2353 0
 1715 0002 10B5     		push	{r4, lr}
 1716              		.cfi_def_cfa_offset 8
 1717              		.cfi_offset 4, -8
 1718              		.cfi_offset 14, -4
 1719              		.loc 1 2353 0
 1720 0004 0446     		mov	r4, r0
 1721              		.loc 1 2359 0
 1722 0006 0184     		strh	r1, [r0, #32]	@ movhi
 1723              		.loc 1 2360 0
 1724 0008 4263     		str	r2, [r0, #52]
 1725              		.loc 1 2361 0
 1726 000a 03D0     		beq	.L127
 1727              		.loc 1 2405 0
 1728 000c BDE81040 		pop	{r4, lr}
 1729              		.loc 1 2373 0
 1730 0010 FFF7FEBF 		b	gdisp_lld_control
 1731              	.LVL170:
 1732              	.L127:
 1733              		.loc 1 2362 0
 1734 0014 92B2     		uxth	r2, r2
 1735              	.LVL171:
 1736 0016 B2F57A7F 		cmp	r2, #1000
 1737 001a 17D0     		beq	.L119
 1738 001c 40F2E933 		movw	r3, #1001
 1739 0020 9A42     		cmp	r2, r3
 1740 0022 08D1     		bne	.L118
 1741              		.loc 1 2364 0
 1742 0024 B0F90020 		ldrsh	r2, [r0]
 1743 0028 B0F90230 		ldrsh	r3, [r0, #2]
 1744 002c 9A42     		cmp	r2, r3
 1745 002e B4BF     		ite	lt
 1746 0030 5A23     		movlt	r3, #90
ARM GAS  /tmp/cclL2Tth.s 			page 32


 1747 0032 0023     		movge	r3, #0
 1748 0034 4363     		str	r3, [r0, #52]
 1749              	.LVL172:
 1750              	.L118:
 1751              		.loc 1 2373 0
 1752 0036 2046     		mov	r0, r4
 1753              	.LVL173:
 1754 0038 FFF7FEFF 		bl	gdisp_lld_control
 1755              	.LVL174:
 1756              		.loc 1 2396 0
 1757 003c 0023     		movs	r3, #0
 1758              		.loc 1 2398 0
 1759 003e 2188     		ldrh	r1, [r4]
 1760              		.loc 1 2399 0
 1761 0040 6288     		ldrh	r2, [r4, #2]
 1762              		.loc 1 2396 0
 1763 0042 2383     		strh	r3, [r4, #24]	@ movhi
 1764              		.loc 1 2397 0
 1765 0044 6383     		strh	r3, [r4, #26]	@ movhi
 1766              		.loc 1 2398 0
 1767 0046 A183     		strh	r1, [r4, #28]	@ movhi
 1768              		.loc 1 2399 0
 1769 0048 E283     		strh	r2, [r4, #30]	@ movhi
 1770 004a 10BD     		pop	{r4, pc}
 1771              	.LVL175:
 1772              	.L119:
 1773              		.loc 1 2367 0
 1774 004c B0F90020 		ldrsh	r2, [r0]
 1775 0050 B0F90230 		ldrsh	r3, [r0, #2]
 1776 0054 9A42     		cmp	r2, r3
 1777 0056 ACBF     		ite	ge
 1778 0058 5A23     		movge	r3, #90
 1779 005a 0023     		movlt	r3, #0
 1780 005c 4363     		str	r3, [r0, #52]
 1781              	.LVL176:
 1782              		.loc 1 2368 0
 1783 005e EAE7     		b	.L118
 1784              		.cfi_endproc
 1785              	.LFE137:
 1786              		.size	gdispGControl, .-gdispGControl
 1787              		.section	.text._gdispInit,"ax",%progbits
 1788              		.align	2
 1789              		.p2align 4,,15
 1790              		.global	_gdispInit
 1791              		.thumb
 1792              		.thumb_func
 1793              		.type	_gdispInit, %function
 1794              	_gdispInit:
 1795              	.LFB126:
 1796              		.loc 1 570 0
 1797              		.cfi_startproc
 1798              		@ args = 0, pretend = 0, frame = 0
 1799              		@ frame_needed = 0, uses_anonymous_args = 0
 1800              	.LVL177:
 1801 0000 2DE9F047 		push	{r4, r5, r6, r7, r8, r9, r10, lr}
 1802              		.cfi_def_cfa_offset 32
 1803              		.cfi_offset 4, -32
ARM GAS  /tmp/cclL2Tth.s 			page 33


 1804              		.cfi_offset 5, -28
 1805              		.cfi_offset 6, -24
 1806              		.cfi_offset 7, -20
 1807              		.cfi_offset 8, -16
 1808              		.cfi_offset 9, -12
 1809              		.cfi_offset 10, -8
 1810              		.cfi_offset 14, -4
 1811              		.loc 1 585 0
 1812 0004 3C4C     		ldr	r4, .L135
 1813 0006 0025     		movs	r5, #0
 1814              		.loc 1 570 0
 1815 0008 82B0     		sub	sp, sp, #8
 1816              		.cfi_def_cfa_offset 40
 1817              		.loc 1 585 0
 1818 000a 2575     		strb	r5, [r4, #20]
 1819              		.loc 1 586 0
 1820 000c 6575     		strb	r5, [r4, #21]
 1821              		.loc 1 590 0
 1822 000e E582     		strh	r5, [r4, #22]	@ movhi
 1823              		.loc 1 591 0
 1824 0010 2046     		mov	r0, r4
 1825 0012 FFF7FEFF 		bl	gdisp_lld_init
 1826              	.LVL178:
 1827              		.loc 1 598 0
 1828 0016 2046     		mov	r0, r4
 1829 0018 0121     		movs	r1, #1
 1830 001a 4FF48772 		mov	r2, #270
 1831 001e FFF7FEFF 		bl	gdispGControl
 1832              	.LVL179:
 1833              		.loc 1 601 0
 1834 0022 B4F90220 		ldrsh	r2, [r4, #2]
 1835 0026 B4F90030 		ldrsh	r3, [r4]
 1836 002a 0092     		str	r2, [sp]
 1837 002c 2946     		mov	r1, r5
 1838 002e 2A46     		mov	r2, r5
 1839 0030 2046     		mov	r0, r4
 1840 0032 FFF7FEFF 		bl	gdispGSetClip
 1841              	.LVL180:
 1842              	.LBB136:
 1843              	.LBB137:
 1844              		.loc 1 954 0
 1845 0036 2288     		ldrh	r2, [r4]
 1846              		.loc 1 955 0
 1847 0038 6388     		ldrh	r3, [r4, #2]
 1848              		.loc 1 953 0
 1849 003a 6584     		strh	r5, [r4, #34]	@ movhi
 1850 003c 2584     		strh	r5, [r4, #32]	@ movhi
 1851              		.loc 1 956 0
 1852 003e 2586     		strh	r5, [r4, #48]	@ movhi
 1853              		.loc 1 957 0
 1854 0040 2046     		mov	r0, r4
 1855              		.loc 1 954 0
 1856 0042 A284     		strh	r2, [r4, #36]	@ movhi
 1857              		.loc 1 955 0
 1858 0044 E384     		strh	r3, [r4, #38]	@ movhi
 1859              		.loc 1 957 0
 1860 0046 FFF7FEFF 		bl	gdisp_lld_fill_area
ARM GAS  /tmp/cclL2Tth.s 			page 34


 1861              	.LVL181:
 1862              	.LBE137:
 1863              	.LBE136:
 1864              	.LBB138:
 1865              	.LBB139:
 1866              		.loc 1 544 0
 1867 004a B4F90090 		ldrsh	r9, [r4]
 1868 004e B9F1000F 		cmp	r9, #0
 1869 0052 4D46     		mov	r5, r9
 1870 0054 B8BF     		it	lt
 1871 0056 09F13F05 		addlt	r5, r9, #63
 1872 005a C5F38F15 		ubfx	r5, r5, #6, #16
 1873              	.LVL182:
 1874              		.loc 1 545 0
 1875 005e 002D     		cmp	r5, #0
 1876 0060 3FD1     		bne	.L134
 1877 0062 0125     		movs	r5, #1
 1878              	.LVL183:
 1879 0064 6FF00F0A 		mvn	r10, #15
 1880 0068 6FF01F01 		mvn	r1, #31
 1881              	.L130:
 1882              	.LVL184:
 1883              		.loc 1 547 0
 1884 006c B4F90220 		ldrsh	r2, [r4, #2]
 1885              		.loc 1 550 0
 1886 0070 224C     		ldr	r4, .L135+4
 1887              		.loc 1 547 0
 1888 0072 9244     		add	r10, r10, r2
 1889              	.LVL185:
 1890              		.loc 1 546 0
 1891 0074 8944     		add	r9, r9, r1
 1892              		.loc 1 547 0
 1893 0076 0AEBDA7A 		add	r10, r10, r10, lsr #31
 1894              		.loc 1 546 0
 1895 007a 09EBD979 		add	r9, r9, r9, lsr #31
 1896 007e CAF34F0A 		ubfx	r10, r10, #1, #16
 1897 0082 C9F34F09 		ubfx	r9, r9, #1, #16
 1898 0086 04F18008 		add	r8, r4, #128
 1899              		.loc 1 551 0
 1900 008a 1F27     		movs	r7, #31
 1901              	.LVL186:
 1902              	.L132:
 1903 008c E088     		ldrh	r0, [r4, #6]
 1904 008e 2188     		ldrh	r1, [r4]
 1905 0090 6288     		ldrh	r2, [r4, #2]
 1906 0092 A388     		ldrh	r3, [r4, #4]
 1907 0094 184E     		ldr	r6, .L135
 1908 0096 0197     		str	r7, [sp, #4]
 1909 0098 00FB05F0 		mul	r0, r0, r5
 1910 009c 00B2     		sxth	r0, r0
 1911 009e 05FB0191 		mla	r1, r5, r1, r9
 1912 00a2 05FB02A2 		mla	r2, r5, r2, r10
 1913 00a6 03FB05F3 		mul	r3, r3, r5
 1914 00aa 0090     		str	r0, [sp]
 1915 00ac 09B2     		sxth	r1, r1
 1916 00ae 12B2     		sxth	r2, r2
 1917 00b0 1BB2     		sxth	r3, r3
ARM GAS  /tmp/cclL2Tth.s 			page 35


 1918              		.loc 1 550 0
 1919 00b2 0834     		adds	r4, r4, #8
 1920              	.LVL187:
 1921              		.loc 1 551 0
 1922 00b4 3046     		mov	r0, r6
 1923 00b6 FFF7FEFF 		bl	gdispGFillArea
 1924              	.LVL188:
 1925              		.loc 1 550 0
 1926 00ba 4445     		cmp	r4, r8
 1927 00bc E6D3     		bcc	.L132
 1928              	.LVL189:
 1929              	.LBE139:
 1930              	.LBE138:
 1931              		.loc 1 614 0 discriminator 2
 1932 00be 4FF47A70 		mov	r0, #1000
 1933 00c2 FFF7FEFF 		bl	gfxSleepMilliseconds
 1934              	.LVL190:
 1935              	.LBB140:
 1936              	.LBB141:
 1937              		.loc 1 954 0 discriminator 2
 1938 00c6 3188     		ldrh	r1, [r6]
 1939              		.loc 1 955 0 discriminator 2
 1940 00c8 7288     		ldrh	r2, [r6, #2]
 1941              		.loc 1 954 0 discriminator 2
 1942 00ca B184     		strh	r1, [r6, #36]	@ movhi
 1943              		.loc 1 953 0 discriminator 2
 1944 00cc 0023     		movs	r3, #0
 1945              		.loc 1 957 0 discriminator 2
 1946 00ce 3046     		mov	r0, r6
 1947              		.loc 1 953 0 discriminator 2
 1948 00d0 7384     		strh	r3, [r6, #34]	@ movhi
 1949 00d2 3384     		strh	r3, [r6, #32]	@ movhi
 1950              		.loc 1 956 0 discriminator 2
 1951 00d4 3386     		strh	r3, [r6, #48]	@ movhi
 1952              		.loc 1 955 0 discriminator 2
 1953 00d6 F284     		strh	r2, [r6, #38]	@ movhi
 1954              	.LBE141:
 1955              	.LBE140:
 1956              		.loc 1 628 0 discriminator 2
 1957 00d8 02B0     		add	sp, sp, #8
 1958              		@ sp needed
 1959 00da BDE8F047 		pop	{r4, r5, r6, r7, r8, r9, r10, lr}
 1960              	.LVL191:
 1961              	.LBB143:
 1962              	.LBB142:
 1963              		.loc 1 957 0 discriminator 2
 1964 00de FFF7FEBF 		b	gdisp_lld_fill_area
 1965              	.LVL192:
 1966              	.L134:
 1967 00e2 2BB2     		sxth	r3, r5
 1968 00e4 C3EBC361 		rsb	r1, r3, r3, lsl #27
 1969 00e8 C3EB0373 		rsb	r3, r3, r3, lsl #28
 1970 00ec ADB2     		uxth	r5, r5
 1971              	.LVL193:
 1972 00ee 4901     		lsls	r1, r1, #5
 1973 00f0 4FEA031A 		lsl	r10, r3, #4
 1974 00f4 BAE7     		b	.L130
ARM GAS  /tmp/cclL2Tth.s 			page 36


 1975              	.L136:
 1976 00f6 00BF     		.align	2
 1977              	.L135:
 1978 00f8 00000000 		.word	.LANCHOR0
 1979 00fc 00000000 		.word	.LANCHOR2
 1980              	.LBE142:
 1981              	.LBE143:
 1982              		.cfi_endproc
 1983              	.LFE126:
 1984              		.size	_gdispInit, .-_gdispInit
 1985              		.section	.text.gdispGDrawBox,"ax",%progbits
 1986              		.align	2
 1987              		.p2align 4,,15
 1988              		.global	gdispGDrawBox
 1989              		.thumb
 1990              		.thumb_func
 1991              		.type	gdispGDrawBox, %function
 1992              	gdispGDrawBox:
 1993              	.LFB138:
 1994              		.loc 1 2443 0
 1995              		.cfi_startproc
 1996              		@ args = 8, pretend = 0, frame = 0
 1997              		@ frame_needed = 0, uses_anonymous_args = 0
 1998              	.LVL194:
 1999 0000 2DE9F047 		push	{r4, r5, r6, r7, r8, r9, r10, lr}
 2000              		.cfi_def_cfa_offset 32
 2001              		.cfi_offset 4, -32
 2002              		.cfi_offset 5, -28
 2003              		.cfi_offset 6, -24
 2004              		.cfi_offset 7, -20
 2005              		.cfi_offset 8, -16
 2006              		.cfi_offset 9, -12
 2007              		.cfi_offset 10, -8
 2008              		.cfi_offset 14, -4
 2009              		.loc 1 2444 0
 2010 0004 002B     		cmp	r3, #0
 2011              	.LVL195:
 2012              		.loc 1 2443 0
 2013 0006 0D46     		mov	r5, r1
 2014 0008 1646     		mov	r6, r2
 2015 000a 0446     		mov	r4, r0
 2016 000c BDF92020 		ldrsh	r2, [sp, #32]
 2017              	.LVL196:
 2018 0010 BDF82410 		ldrh	r1, [sp, #36]
 2019              	.LVL197:
 2020              		.loc 1 2444 0
 2021 0014 2DDD     		ble	.L137
 2022              		.loc 1 2444 0 is_stmt 0 discriminator 2
 2023 0016 002A     		cmp	r2, #0
 2024 0018 2BDD     		ble	.L137
 2025              		.loc 1 2445 0 is_stmt 1
 2026 001a 6F1E     		subs	r7, r5, #1
 2027 001c 1F44     		add	r7, r7, r3
 2028 001e 1FFA86FA 		uxth	r10, r6
 2029 0022 5244     		add	r2, r2, r10
 2030 0024 3FB2     		sxth	r7, r7
 2031              	.LVL198:
ARM GAS  /tmp/cclL2Tth.s 			page 37


 2032 0026 1FFA82F9 		uxth	r9, r2
 2033              		.loc 1 2451 0
 2034 002a 7B1B     		subs	r3, r7, r5
 2035              		.loc 1 2445 0
 2036 002c 09F1FF38 		add	r8, r9, #-1
 2037              		.loc 1 2451 0
 2038 0030 022B     		cmp	r3, #2
 2039              		.loc 1 2449 0
 2040 0032 0186     		strh	r1, [r0, #48]	@ movhi
 2041              		.loc 1 2445 0
 2042 0034 0FFA88F8 		sxth	r8, r8
 2043              	.LVL199:
 2044              		.loc 1 2452 0
 2045 0038 0584     		strh	r5, [r0, #32]	@ movhi
 2046 003a 4684     		strh	r6, [r0, #34]	@ movhi
 2047              		.loc 1 2451 0
 2048 003c 1BDD     		ble	.L141
 2049              		.loc 1 2452 0
 2050 003e 0785     		strh	r7, [r0, #40]	@ movhi
 2051 0040 FFF7FEFF 		bl	hline_clip
 2052              	.LVL200:
 2053              		.loc 1 2453 0
 2054 0044 4645     		cmp	r6, r8
 2055 0046 0AD0     		beq	.L143
 2056              		.loc 1 2454 0
 2057 0048 2584     		strh	r5, [r4, #32]	@ movhi
 2058 004a A4F82280 		strh	r8, [r4, #34]	@ movhi
 2059 004e 2785     		strh	r7, [r4, #40]	@ movhi
 2060 0050 2046     		mov	r0, r4
 2061              		.loc 1 2455 0
 2062 0052 C6EB0806 		rsb	r6, r6, r8
 2063              		.loc 1 2454 0
 2064 0056 FFF7FEFF 		bl	hline_clip
 2065              	.LVL201:
 2066              		.loc 1 2455 0
 2067 005a 022E     		cmp	r6, #2
 2068 005c 19DC     		bgt	.L148
 2069              	.LVL202:
 2070              	.L143:
 2071              		.loc 1 2468 0
 2072 005e E38A     		ldrh	r3, [r4, #22]
 2073 0060 9B07     		lsls	r3, r3, #30
 2074 0062 06D5     		bpl	.L137
 2075              		.loc 1 2468 0 is_stmt 0 discriminator 1
 2076 0064 2046     		mov	r0, r4
 2077 0066 FFF7FEFF 		bl	gdisp_lld_write_stop
 2078              	.LVL203:
 2079 006a E38A     		ldrh	r3, [r4, #22]
 2080 006c 23F00203 		bic	r3, r3, #2
 2081 0070 E382     		strh	r3, [r4, #22]	@ movhi
 2082              	.LVL204:
 2083              	.L137:
 2084 0072 BDE8F087 		pop	{r4, r5, r6, r7, r8, r9, r10, pc}
 2085              	.LVL205:
 2086              	.L141:
 2087              		.loc 1 2462 0 is_stmt 1
 2088 0076 A0F82A80 		strh	r8, [r0, #42]	@ movhi
ARM GAS  /tmp/cclL2Tth.s 			page 38


 2089 007a FFF7FEFF 		bl	vline_clip
 2090              	.LVL206:
 2091              		.loc 1 2463 0
 2092 007e BD42     		cmp	r5, r7
 2093 0080 EDD0     		beq	.L143
 2094              		.loc 1 2464 0
 2095 0082 2784     		strh	r7, [r4, #32]	@ movhi
 2096 0084 6684     		strh	r6, [r4, #34]	@ movhi
 2097 0086 A4F82A80 		strh	r8, [r4, #42]	@ movhi
 2098 008a 2046     		mov	r0, r4
 2099 008c FFF7FEFF 		bl	vline_clip
 2100              	.LVL207:
 2101 0090 E5E7     		b	.L143
 2102              	.L148:
 2103              		.loc 1 2456 0
 2104 0092 0AF1010A 		add	r10, r10, #1
 2105 0096 A9F10209 		sub	r9, r9, #2
 2106 009a 0FFA8AFA 		sxth	r10, r10
 2107              	.LVL208:
 2108 009e 0FFA89F9 		sxth	r9, r9
 2109              	.LVL209:
 2110              		.loc 1 2457 0
 2111 00a2 2046     		mov	r0, r4
 2112 00a4 A4F822A0 		strh	r10, [r4, #34]	@ movhi
 2113 00a8 A4F82A90 		strh	r9, [r4, #42]	@ movhi
 2114 00ac 2584     		strh	r5, [r4, #32]	@ movhi
 2115 00ae FFF7FEFF 		bl	vline_clip
 2116              	.LVL210:
 2117              		.loc 1 2458 0
 2118 00b2 A4F822A0 		strh	r10, [r4, #34]	@ movhi
 2119 00b6 A4F82A90 		strh	r9, [r4, #42]	@ movhi
 2120 00ba 2784     		strh	r7, [r4, #32]	@ movhi
 2121 00bc 2046     		mov	r0, r4
 2122 00be FFF7FEFF 		bl	vline_clip
 2123              	.LVL211:
 2124 00c2 CCE7     		b	.L143
 2125              		.cfi_endproc
 2126              	.LFE138:
 2127              		.size	gdispGDrawBox, .-gdispGDrawBox
 2128 00c4 AFF30080 		.section	.text.gdispGDrawChar,"ax",%progbits
 2128      AFF30080 
 2128      AFF30080 
 2129              		.align	2
 2130              		.p2align 4,,15
 2131              		.global	gdispGDrawChar
 2132              		.thumb
 2133              		.thumb_func
 2134              		.type	gdispGDrawChar, %function
 2135              	gdispGDrawChar:
 2136              	.LFB142:
 2137              		.loc 1 2849 0
 2138              		.cfi_startproc
 2139              		@ args = 8, pretend = 0, frame = 0
 2140              		@ frame_needed = 0, uses_anonymous_args = 0
 2141              	.LVL212:
 2142 0000 2DE9F043 		push	{r4, r5, r6, r7, r8, r9, lr}
 2143              		.cfi_def_cfa_offset 28
ARM GAS  /tmp/cclL2Tth.s 			page 39


 2144              		.cfi_offset 4, -28
 2145              		.cfi_offset 5, -24
 2146              		.cfi_offset 6, -20
 2147              		.cfi_offset 7, -16
 2148              		.cfi_offset 8, -12
 2149              		.cfi_offset 9, -8
 2150              		.cfi_offset 14, -4
 2151 0004 83B0     		sub	sp, sp, #12
 2152              		.cfi_def_cfa_offset 40
 2153              		.loc 1 2849 0
 2154 0006 0446     		mov	r4, r0
 2155 0008 0A9D     		ldr	r5, [sp, #40]
 2156              		.loc 1 2851 0
 2157 000a 8563     		str	r5, [r0, #56]
 2158              		.loc 1 2854 0
 2159 000c 5FFA83F8 		uxtb	r8, r3
 2160              		.loc 1 2849 0
 2161 0010 0E46     		mov	r6, r1
 2162              		.loc 1 2852 0
 2163 0012 A4F84010 		strh	r1, [r4, #64]	@ movhi
 2164              		.loc 1 2853 0
 2165 0016 A4F84220 		strh	r2, [r4, #66]	@ movhi
 2166              		.loc 1 2854 0
 2167 001a 4146     		mov	r1, r8
 2168              	.LVL213:
 2169 001c 2846     		mov	r0, r5
 2170              	.LVL214:
 2171              		.loc 1 2849 0
 2172 001e 1746     		mov	r7, r2
 2173 0020 BDF82C90 		ldrh	r9, [sp, #44]
 2174              		.loc 1 2854 0
 2175 0024 FFF7FEFF 		bl	mf_character_width
 2176              	.LVL215:
 2177 0028 2A7B     		ldrb	r2, [r5, #12]	@ zero_extendqisi2
 2178              		.loc 1 2857 0
 2179 002a 0194     		str	r4, [sp, #4]
 2180              		.loc 1 2854 0
 2181 002c 3244     		add	r2, r2, r6
 2182 002e 1044     		add	r0, r0, r2
 2183 0030 A4F84400 		strh	r0, [r4, #68]	@ movhi
 2184              		.loc 1 2855 0
 2185 0034 6A7A     		ldrb	r2, [r5, #9]	@ zero_extendqisi2
 2186              		.loc 1 2857 0
 2187 0036 0D4B     		ldr	r3, .L154
 2188 0038 0093     		str	r3, [sp]
 2189              		.loc 1 2855 0
 2190 003a 3A44     		add	r2, r2, r7
 2191              		.loc 1 2857 0
 2192 003c 4346     		mov	r3, r8
 2193              		.loc 1 2855 0
 2194 003e A4F84620 		strh	r2, [r4, #70]	@ movhi
 2195              		.loc 1 2857 0
 2196 0042 3146     		mov	r1, r6
 2197              		.loc 1 2856 0
 2198 0044 A4F83C90 		strh	r9, [r4, #60]	@ movhi
 2199              		.loc 1 2857 0
 2200 0048 2846     		mov	r0, r5
ARM GAS  /tmp/cclL2Tth.s 			page 40


 2201 004a 3A46     		mov	r2, r7
 2202 004c FFF7FEFF 		bl	mf_render_character
 2203              	.LVL216:
 2204              		.loc 1 2858 0
 2205 0050 E38A     		ldrh	r3, [r4, #22]
 2206 0052 9B07     		lsls	r3, r3, #30
 2207 0054 06D5     		bpl	.L149
 2208              		.loc 1 2858 0 is_stmt 0 discriminator 1
 2209 0056 2046     		mov	r0, r4
 2210 0058 FFF7FEFF 		bl	gdisp_lld_write_stop
 2211              	.LVL217:
 2212 005c E38A     		ldrh	r3, [r4, #22]
 2213 005e 23F00203 		bic	r3, r3, #2
 2214 0062 E382     		strh	r3, [r4, #22]	@ movhi
 2215              	.L149:
 2216              		.loc 1 2860 0 is_stmt 1
 2217 0064 03B0     		add	sp, sp, #12
 2218              		@ sp needed
 2219 0066 BDE8F083 		pop	{r4, r5, r6, r7, r8, r9, pc}
 2220              	.LVL218:
 2221              	.L155:
 2222 006a 00BF     		.align	2
 2223              	.L154:
 2224 006c 00000000 		.word	drawcharline
 2225              		.cfi_endproc
 2226              	.LFE142:
 2227              		.size	gdispGDrawChar, .-gdispGDrawChar
 2228              		.section	.text.gdispGFillChar,"ax",%progbits
 2229              		.align	2
 2230              		.p2align 4,,15
 2231              		.global	gdispGFillChar
 2232              		.thumb
 2233              		.thumb_func
 2234              		.type	gdispGFillChar, %function
 2235              	gdispGFillChar:
 2236              	.LFB143:
 2237              		.loc 1 2862 0
 2238              		.cfi_startproc
 2239              		@ args = 12, pretend = 0, frame = 8
 2240              		@ frame_needed = 0, uses_anonymous_args = 0
 2241              	.LVL219:
 2242 0000 2DE9F04F 		push	{r4, r5, r6, r7, r8, r9, r10, fp, lr}
 2243              		.cfi_def_cfa_offset 36
 2244              		.cfi_offset 4, -36
 2245              		.cfi_offset 5, -32
 2246              		.cfi_offset 6, -28
 2247              		.cfi_offset 7, -24
 2248              		.cfi_offset 8, -20
 2249              		.cfi_offset 9, -16
 2250              		.cfi_offset 10, -12
 2251              		.cfi_offset 11, -8
 2252              		.cfi_offset 14, -4
 2253 0004 85B0     		sub	sp, sp, #20
 2254              		.cfi_def_cfa_offset 56
 2255              		.loc 1 2864 0
 2256 0006 DBB2     		uxtb	r3, r3
 2257              	.LVL220:
ARM GAS  /tmp/cclL2Tth.s 			page 41


 2258              		.loc 1 2862 0
 2259 0008 0E9F     		ldr	r7, [sp, #56]
 2260 000a BDF83C90 		ldrh	r9, [sp, #60]
 2261 000e BDF84080 		ldrh	r8, [sp, #64]
 2262              		.loc 1 2864 0
 2263 0012 0393     		str	r3, [sp, #12]
 2264              		.loc 1 2862 0
 2265 0014 0446     		mov	r4, r0
 2266 0016 0D46     		mov	r5, r1
 2267              		.loc 1 2864 0
 2268 0018 3846     		mov	r0, r7
 2269              	.LVL221:
 2270 001a 1946     		mov	r1, r3
 2271              	.LVL222:
 2272              		.loc 1 2862 0
 2273 001c 1646     		mov	r6, r2
 2274              		.loc 1 2864 0
 2275 001e FFF7FEFF 		bl	mf_character_width
 2276              	.LVL223:
 2277 0022 3A7B     		ldrb	r2, [r7, #12]	@ zero_extendqisi2
 2278              		.loc 1 2874 0
 2279 0024 218B     		ldrh	r1, [r4, #24]
 2280              		.loc 1 2864 0
 2281 0026 1044     		add	r0, r0, r2
 2282 0028 80B2     		uxth	r0, r0
 2283 002a 82B2     		uxth	r2, r0
 2284 002c A284     		strh	r2, [r4, #36]	@ movhi
 2285              		.loc 1 2865 0
 2286 002e 7B7A     		ldrb	r3, [r7, #9]	@ zero_extendqisi2
 2287              		.loc 1 2871 0
 2288 0030 A4F83C90 		strh	r9, [r4, #60]	@ movhi
 2289              		.loc 1 2869 0
 2290 0034 1FFA85FA 		uxth	r10, r5
 2291 0038 00EB0A0B 		add	fp, r0, r10
 2292              		.loc 1 2870 0
 2293 003c 1FFA86FC 		uxth	ip, r6
 2294              		.loc 1 2874 0
 2295 0040 0FFA81F9 		sxth	r9, r1
 2296              		.loc 1 2869 0
 2297 0044 A4F844B0 		strh	fp, [r4, #68]	@ movhi
 2298              		.loc 1 2874 0
 2299 0048 4D45     		cmp	r5, r9
 2300              		.loc 1 2870 0
 2301 004a 0CEB030B 		add	fp, ip, r3
 2302              		.loc 1 2865 0
 2303 004e E384     		strh	r3, [r4, #38]	@ movhi
 2304              		.loc 1 2866 0
 2305 0050 A763     		str	r7, [r4, #56]
 2306              		.loc 1 2867 0
 2307 0052 2584     		strh	r5, [r4, #32]	@ movhi
 2308 0054 A4F84050 		strh	r5, [r4, #64]	@ movhi
 2309              		.loc 1 2868 0
 2310 0058 6684     		strh	r6, [r4, #34]	@ movhi
 2311 005a A4F84260 		strh	r6, [r4, #66]	@ movhi
 2312              		.loc 1 2872 0
 2313 005e A4F83080 		strh	r8, [r4, #48]	@ movhi
 2314 0062 A4F83E80 		strh	r8, [r4, #62]	@ movhi
ARM GAS  /tmp/cclL2Tth.s 			page 42


 2315              		.loc 1 2870 0
 2316 0066 A4F846B0 		strh	fp, [r4, #70]	@ movhi
 2317              		.loc 1 2874 0
 2318 006a 4BDA     		bge	.L163
 2319              		.loc 1 2874 0 is_stmt 0 discriminator 1
 2320 006c C1EB0A02 		rsb	r2, r1, r10
 2321 0070 0244     		add	r2, r2, r0
 2322 0072 92B2     		uxth	r2, r2
 2323 0074 A284     		strh	r2, [r4, #36]	@ movhi
 2324 0076 2184     		strh	r1, [r4, #32]	@ movhi
 2325              	.L157:
 2326              		.loc 1 2874 0 discriminator 2
 2327 0078 608B     		ldrh	r0, [r4, #26]
 2328 007a 0FFA80F8 		sxth	r8, r0
 2329 007e 4645     		cmp	r6, r8
 2330 0080 3CDA     		bge	.L164
 2331              		.loc 1 2874 0 discriminator 1
 2332 0082 1B1A     		subs	r3, r3, r0
 2333 0084 6344     		add	r3, r3, ip
 2334 0086 9BB2     		uxth	r3, r3
 2335 0088 E384     		strh	r3, [r4, #38]	@ movhi
 2336 008a 6084     		strh	r0, [r4, #34]	@ movhi
 2337              	.L158:
 2338              		.loc 1 2874 0 discriminator 2
 2339 008c B4F81CC0 		ldrh	ip, [r4, #28]
 2340 0090 12B2     		sxth	r2, r2
 2341 0092 9144     		add	r9, r9, r2
 2342 0094 0FFA8CFA 		sxth	r10, ip
 2343 0098 D145     		cmp	r9, r10
 2344 009a 04DD     		ble	.L159
 2345              		.loc 1 2874 0 discriminator 1
 2346 009c C1EB0C02 		rsb	r2, r1, ip
 2347 00a0 92B2     		uxth	r2, r2
 2348 00a2 A284     		strh	r2, [r4, #36]	@ movhi
 2349 00a4 12B2     		sxth	r2, r2
 2350              	.L159:
 2351              		.loc 1 2874 0 discriminator 2
 2352 00a6 E18B     		ldrh	r1, [r4, #30]
 2353 00a8 08FA83F3 		sxtah	r3, r8, r3
 2354 00ac 0FFA81FC 		sxth	ip, r1
 2355 00b0 6345     		cmp	r3, ip
 2356 00b2 C4BF     		itt	gt
 2357 00b4 C0EB0100 		rsbgt	r0, r0, r1
 2358 00b8 E084     		strhgt	r0, [r4, #38]	@ movhi
 2359 00ba 002A     		cmp	r2, #0
 2360 00bc 11DD     		ble	.L161
 2361              		.loc 1 2874 0 discriminator 1
 2362 00be B4F92630 		ldrsh	r3, [r4, #38]
 2363 00c2 002B     		cmp	r3, #0
 2364 00c4 0DDD     		ble	.L161
 2365              	.LVL224:
 2366              	.LBB144:
 2367              	.LBB145:
 2368              		.loc 1 206 0 is_stmt 1
 2369 00c6 2046     		mov	r0, r4
 2370 00c8 FFF7FEFF 		bl	gdisp_lld_fill_area
 2371              	.LVL225:
ARM GAS  /tmp/cclL2Tth.s 			page 43


 2372              	.LBE145:
 2373              	.LBE144:
 2374              		.loc 1 2876 0
 2375 00cc DFF83CE0 		ldr	lr, .L168
 2376 00d0 0194     		str	r4, [sp, #4]
 2377 00d2 3846     		mov	r0, r7
 2378 00d4 2946     		mov	r1, r5
 2379 00d6 3246     		mov	r2, r6
 2380 00d8 039B     		ldr	r3, [sp, #12]
 2381 00da CDF800E0 		str	lr, [sp]
 2382 00de FFF7FEFF 		bl	mf_render_character
 2383              	.LVL226:
 2384              	.L161:
 2385              		.loc 1 2878 0
 2386 00e2 E38A     		ldrh	r3, [r4, #22]
 2387 00e4 9B07     		lsls	r3, r3, #30
 2388 00e6 06D5     		bpl	.L156
 2389              		.loc 1 2878 0 is_stmt 0 discriminator 1
 2390 00e8 2046     		mov	r0, r4
 2391 00ea FFF7FEFF 		bl	gdisp_lld_write_stop
 2392              	.LVL227:
 2393 00ee E38A     		ldrh	r3, [r4, #22]
 2394 00f0 23F00203 		bic	r3, r3, #2
 2395 00f4 E382     		strh	r3, [r4, #22]	@ movhi
 2396              	.L156:
 2397              		.loc 1 2880 0 is_stmt 1
 2398 00f6 05B0     		add	sp, sp, #20
 2399              		@ sp needed
 2400 00f8 BDE8F08F 		pop	{r4, r5, r6, r7, r8, r9, r10, fp, pc}
 2401              	.LVL228:
 2402              	.L164:
 2403 00fc 3046     		mov	r0, r6
 2404 00fe 0FFA86F8 		sxth	r8, r6
 2405 0102 C3E7     		b	.L158
 2406              	.L163:
 2407 0104 2946     		mov	r1, r5
 2408 0106 0FFA85F9 		sxth	r9, r5
 2409 010a B5E7     		b	.L157
 2410              	.L169:
 2411              		.align	2
 2412              	.L168:
 2413 010c 00000000 		.word	drawcharline
 2414              		.cfi_endproc
 2415              	.LFE143:
 2416              		.size	gdispGFillChar, .-gdispGFillChar
 2417              		.section	.text.gdispGDrawString,"ax",%progbits
 2418              		.align	2
 2419              		.p2align 4,,15
 2420              		.global	gdispGDrawString
 2421              		.thumb
 2422              		.thumb_func
 2423              		.type	gdispGDrawString, %function
 2424              	gdispGDrawString:
 2425              	.LFB144:
 2426              		.loc 1 2882 0
 2427              		.cfi_startproc
 2428              		@ args = 8, pretend = 0, frame = 0
ARM GAS  /tmp/cclL2Tth.s 			page 44


 2429              		@ frame_needed = 0, uses_anonymous_args = 0
 2430              	.LVL229:
 2431 0000 2DE9F043 		push	{r4, r5, r6, r7, r8, r9, lr}
 2432              		.cfi_def_cfa_offset 28
 2433              		.cfi_offset 4, -28
 2434              		.cfi_offset 5, -24
 2435              		.cfi_offset 6, -20
 2436              		.cfi_offset 7, -16
 2437              		.cfi_offset 8, -12
 2438              		.cfi_offset 9, -8
 2439              		.cfi_offset 14, -4
 2440 0004 85B0     		sub	sp, sp, #20
 2441              		.cfi_def_cfa_offset 48
 2442              		.loc 1 2882 0
 2443 0006 0446     		mov	r4, r0
 2444 0008 0C9D     		ldr	r5, [sp, #48]
 2445              		.loc 1 2884 0
 2446 000a 8563     		str	r5, [r0, #56]
 2447              		.loc 1 2882 0
 2448 000c 1646     		mov	r6, r2
 2449              		.loc 1 2887 0
 2450 000e 0022     		movs	r2, #0
 2451              	.LVL230:
 2452              		.loc 1 2886 0
 2453 0010 A0F84260 		strh	r6, [r0, #66]	@ movhi
 2454              		.loc 1 2882 0
 2455 0014 8846     		mov	r8, r1
 2456 0016 1F46     		mov	r7, r3
 2457              		.loc 1 2885 0
 2458 0018 A4F84010 		strh	r1, [r4, #64]	@ movhi
 2459              		.loc 1 2887 0
 2460 001c 2846     		mov	r0, r5
 2461              	.LVL231:
 2462 001e 1946     		mov	r1, r3
 2463              	.LVL232:
 2464 0020 1346     		mov	r3, r2
 2465              	.LVL233:
 2466              		.loc 1 2882 0
 2467 0022 BDF83490 		ldrh	r9, [sp, #52]
 2468              		.loc 1 2887 0
 2469 0026 FFF7FEFF 		bl	mf_get_string_width
 2470              	.LVL234:
 2471 002a 1FFA88F8 		uxth	r8, r8
 2472 002e 4044     		add	r0, r0, r8
 2473 0030 A4F84400 		strh	r0, [r4, #68]	@ movhi
 2474              		.loc 1 2888 0
 2475 0034 6B7A     		ldrb	r3, [r5, #9]	@ zero_extendqisi2
 2476              		.loc 1 2889 0
 2477 0036 A4F83C90 		strh	r9, [r4, #60]	@ movhi
 2478              		.loc 1 2888 0
 2479 003a 3344     		add	r3, r3, r6
 2480 003c A4F84630 		strh	r3, [r4, #70]	@ movhi
 2481              		.loc 1 2891 0
 2482 0040 2B7B     		ldrb	r3, [r5, #12]	@ zero_extendqisi2
 2483 0042 DFF838E0 		ldr	lr, .L175
 2484 0046 0097     		str	r7, [sp]
 2485 0048 08EB0301 		add	r1, r8, r3
ARM GAS  /tmp/cclL2Tth.s 			page 45


 2486 004c 0023     		movs	r3, #0
 2487 004e 0193     		str	r3, [sp, #4]
 2488 0050 0394     		str	r4, [sp, #12]
 2489 0052 3246     		mov	r2, r6
 2490 0054 09B2     		sxth	r1, r1
 2491 0056 2846     		mov	r0, r5
 2492 0058 CDF808E0 		str	lr, [sp, #8]
 2493 005c FFF7FEFF 		bl	mf_render_aligned
 2494              	.LVL235:
 2495              		.loc 1 2892 0
 2496 0060 E38A     		ldrh	r3, [r4, #22]
 2497 0062 9B07     		lsls	r3, r3, #30
 2498 0064 06D5     		bpl	.L170
 2499              		.loc 1 2892 0 is_stmt 0 discriminator 1
 2500 0066 2046     		mov	r0, r4
 2501 0068 FFF7FEFF 		bl	gdisp_lld_write_stop
 2502              	.LVL236:
 2503 006c E38A     		ldrh	r3, [r4, #22]
 2504 006e 23F00203 		bic	r3, r3, #2
 2505 0072 E382     		strh	r3, [r4, #22]	@ movhi
 2506              	.L170:
 2507              		.loc 1 2894 0 is_stmt 1
 2508 0074 05B0     		add	sp, sp, #20
 2509              		@ sp needed
 2510 0076 BDE8F083 		pop	{r4, r5, r6, r7, r8, r9, pc}
 2511              	.LVL237:
 2512              	.L176:
 2513 007a 00BF     		.align	2
 2514              	.L175:
 2515 007c 00000000 		.word	drawcharglyph
 2516              		.cfi_endproc
 2517              	.LFE144:
 2518              		.size	gdispGDrawString, .-gdispGDrawString
 2519              		.section	.text.gdispGFillString,"ax",%progbits
 2520              		.align	2
 2521              		.p2align 4,,15
 2522              		.global	gdispGFillString
 2523              		.thumb
 2524              		.thumb_func
 2525              		.type	gdispGFillString, %function
 2526              	gdispGFillString:
 2527              	.LFB145:
 2528              		.loc 1 2896 0
 2529              		.cfi_startproc
 2530              		@ args = 12, pretend = 0, frame = 8
 2531              		@ frame_needed = 0, uses_anonymous_args = 0
 2532              	.LVL238:
 2533 0000 2DE9F04F 		push	{r4, r5, r6, r7, r8, r9, r10, fp, lr}
 2534              		.cfi_def_cfa_offset 36
 2535              		.cfi_offset 4, -36
 2536              		.cfi_offset 5, -32
 2537              		.cfi_offset 6, -28
 2538              		.cfi_offset 7, -24
 2539              		.cfi_offset 8, -20
 2540              		.cfi_offset 9, -16
 2541              		.cfi_offset 10, -12
 2542              		.cfi_offset 11, -8
ARM GAS  /tmp/cclL2Tth.s 			page 46


 2543              		.cfi_offset 14, -4
 2544 0004 87B0     		sub	sp, sp, #28
 2545              		.cfi_def_cfa_offset 64
 2546              		.loc 1 2896 0
 2547 0006 1546     		mov	r5, r2
 2548 0008 109F     		ldr	r7, [sp, #64]
 2549 000a BDF84440 		ldrh	r4, [sp, #68]
 2550 000e 0494     		str	r4, [sp, #16]
 2551              		.loc 1 2898 0
 2552 0010 0022     		movs	r2, #0
 2553              	.LVL239:
 2554              		.loc 1 2896 0
 2555 0012 0446     		mov	r4, r0
 2556 0014 0E46     		mov	r6, r1
 2557 0016 9946     		mov	r9, r3
 2558              		.loc 1 2898 0
 2559 0018 1946     		mov	r1, r3
 2560              	.LVL240:
 2561 001a 3846     		mov	r0, r7
 2562              	.LVL241:
 2563 001c 1346     		mov	r3, r2
 2564              	.LVL242:
 2565              		.loc 1 2896 0
 2566 001e BDF84880 		ldrh	r8, [sp, #72]
 2567              		.loc 1 2898 0
 2568 0022 FFF7FEFF 		bl	mf_get_string_width
 2569              	.LVL243:
 2570              		.loc 1 2903 0
 2571 0026 1FFA86FB 		uxth	fp, r6
 2572              		.loc 1 2898 0
 2573 002a A084     		strh	r0, [r4, #36]	@ movhi
 2574              		.loc 1 2903 0
 2575 002c 1FFA80FC 		uxth	ip, r0
 2576              		.loc 1 2899 0
 2577 0030 7A7A     		ldrb	r2, [r7, #9]	@ zero_extendqisi2
 2578              		.loc 1 2908 0
 2579 0032 238B     		ldrh	r3, [r4, #24]
 2580              		.loc 1 2906 0
 2581 0034 A4F83080 		strh	r8, [r4, #48]	@ movhi
 2582              		.loc 1 2903 0
 2583 0038 0CEB0B0A 		add	r10, ip, fp
 2584 003c CDF814A0 		str	r10, [sp, #20]
 2585              		.loc 1 2904 0
 2586 0040 A9B2     		uxth	r1, r5
 2587              		.loc 1 2905 0
 2588 0042 DDF810A0 		ldr	r10, [sp, #16]
 2589 0046 A4F83CA0 		strh	r10, [r4, #60]	@ movhi
 2590              		.loc 1 2904 0
 2591 004a 01EB020A 		add	r10, r1, r2
 2592 004e CDF810A0 		str	r10, [sp, #16]
 2593              		.loc 1 2906 0
 2594 0052 A4F83E80 		strh	r8, [r4, #62]	@ movhi
 2595              		.loc 1 2903 0
 2596 0056 DDF814A0 		ldr	r10, [sp, #20]
 2597 005a A4F844A0 		strh	r10, [r4, #68]	@ movhi
 2598              		.loc 1 2908 0
 2599 005e 0FFA83F8 		sxth	r8, r3
ARM GAS  /tmp/cclL2Tth.s 			page 47


 2600              		.loc 1 2904 0
 2601 0062 DDF810A0 		ldr	r10, [sp, #16]
 2602              		.loc 1 2899 0
 2603 0066 E284     		strh	r2, [r4, #38]	@ movhi
 2604              		.loc 1 2908 0
 2605 0068 4645     		cmp	r6, r8
 2606              		.loc 1 2900 0
 2607 006a A763     		str	r7, [r4, #56]
 2608              		.loc 1 2901 0
 2609 006c 2684     		strh	r6, [r4, #32]	@ movhi
 2610 006e A4F84060 		strh	r6, [r4, #64]	@ movhi
 2611              		.loc 1 2902 0
 2612 0072 6584     		strh	r5, [r4, #34]	@ movhi
 2613 0074 A4F84250 		strh	r5, [r4, #66]	@ movhi
 2614              		.loc 1 2904 0
 2615 0078 A4F846A0 		strh	r10, [r4, #70]	@ movhi
 2616              		.loc 1 2908 0
 2617 007c 4CDA     		bge	.L184
 2618              		.loc 1 2908 0 is_stmt 0 discriminator 1
 2619 007e C3EB0B00 		rsb	r0, r3, fp
 2620 0082 6044     		add	r0, r0, ip
 2621 0084 80B2     		uxth	r0, r0
 2622 0086 2384     		strh	r3, [r4, #32]	@ movhi
 2623 0088 A084     		strh	r0, [r4, #36]	@ movhi
 2624              	.L178:
 2625              		.loc 1 2908 0 discriminator 2
 2626 008a 668B     		ldrh	r6, [r4, #26]
 2627 008c 0FFA86FC 		sxth	ip, r6
 2628 0090 6545     		cmp	r5, ip
 2629 0092 3DDA     		bge	.L185
 2630              		.loc 1 2908 0 discriminator 1
 2631 0094 921B     		subs	r2, r2, r6
 2632 0096 0A44     		add	r2, r2, r1
 2633 0098 92B2     		uxth	r2, r2
 2634 009a E284     		strh	r2, [r4, #38]	@ movhi
 2635 009c 6684     		strh	r6, [r4, #34]	@ movhi
 2636              	.L179:
 2637              		.loc 1 2908 0 discriminator 2
 2638 009e A18B     		ldrh	r1, [r4, #28]
 2639 00a0 00B2     		sxth	r0, r0
 2640 00a2 8044     		add	r8, r8, r0
 2641 00a4 0FFA81FA 		sxth	r10, r1
 2642 00a8 D045     		cmp	r8, r10
 2643 00aa 03DD     		ble	.L180
 2644              		.loc 1 2908 0 discriminator 1
 2645 00ac C81A     		subs	r0, r1, r3
 2646 00ae 80B2     		uxth	r0, r0
 2647 00b0 A084     		strh	r0, [r4, #36]	@ movhi
 2648 00b2 00B2     		sxth	r0, r0
 2649              	.L180:
 2650              		.loc 1 2908 0 discriminator 2
 2651 00b4 E38B     		ldrh	r3, [r4, #30]
 2652 00b6 0CFA82F2 		sxtah	r2, ip, r2
 2653 00ba 19B2     		sxth	r1, r3
 2654 00bc 8A42     		cmp	r2, r1
 2655 00be C4BF     		itt	gt
 2656 00c0 C6EB0306 		rsbgt	r6, r6, r3
ARM GAS  /tmp/cclL2Tth.s 			page 48


 2657 00c4 E684     		strhgt	r6, [r4, #38]	@ movhi
 2658 00c6 0028     		cmp	r0, #0
 2659 00c8 15DD     		ble	.L182
 2660              		.loc 1 2908 0 discriminator 1
 2661 00ca B4F92630 		ldrsh	r3, [r4, #38]
 2662 00ce 002B     		cmp	r3, #0
 2663 00d0 11DD     		ble	.L182
 2664              	.LVL244:
 2665              	.LBB146:
 2666              	.LBB147:
 2667              		.loc 1 206 0 is_stmt 1
 2668 00d2 2046     		mov	r0, r4
 2669 00d4 FFF7FEFF 		bl	gdisp_lld_fill_area
 2670              	.LVL245:
 2671              	.LBE147:
 2672              	.LBE146:
 2673              		.loc 1 2910 0
 2674 00d8 3B7B     		ldrb	r3, [r7, #12]	@ zero_extendqisi2
 2675 00da 114E     		ldr	r6, .L189
 2676 00dc CDF80090 		str	r9, [sp]
 2677 00e0 0BEB0301 		add	r1, fp, r3
 2678 00e4 0023     		movs	r3, #0
 2679 00e6 0394     		str	r4, [sp, #12]
 2680 00e8 2A46     		mov	r2, r5
 2681 00ea 09B2     		sxth	r1, r1
 2682 00ec 3846     		mov	r0, r7
 2683 00ee 0193     		str	r3, [sp, #4]
 2684 00f0 0296     		str	r6, [sp, #8]
 2685 00f2 FFF7FEFF 		bl	mf_render_aligned
 2686              	.LVL246:
 2687              	.L182:
 2688              		.loc 1 2913 0
 2689 00f6 E38A     		ldrh	r3, [r4, #22]
 2690 00f8 9B07     		lsls	r3, r3, #30
 2691 00fa 06D5     		bpl	.L177
 2692              		.loc 1 2913 0 is_stmt 0 discriminator 1
 2693 00fc 2046     		mov	r0, r4
 2694 00fe FFF7FEFF 		bl	gdisp_lld_write_stop
 2695              	.LVL247:
 2696 0102 E38A     		ldrh	r3, [r4, #22]
 2697 0104 23F00203 		bic	r3, r3, #2
 2698 0108 E382     		strh	r3, [r4, #22]	@ movhi
 2699              	.L177:
 2700              		.loc 1 2915 0 is_stmt 1
 2701 010a 07B0     		add	sp, sp, #28
 2702              		@ sp needed
 2703 010c BDE8F08F 		pop	{r4, r5, r6, r7, r8, r9, r10, fp, pc}
 2704              	.LVL248:
 2705              	.L185:
 2706 0110 2E46     		mov	r6, r5
 2707 0112 0FFA85FC 		sxth	ip, r5
 2708 0116 C2E7     		b	.L179
 2709              	.L184:
 2710 0118 3346     		mov	r3, r6
 2711 011a 0FFA86F8 		sxth	r8, r6
 2712 011e B4E7     		b	.L178
 2713              	.L190:
ARM GAS  /tmp/cclL2Tth.s 			page 49


 2714              		.align	2
 2715              	.L189:
 2716 0120 00000000 		.word	fillcharglyph
 2717              		.cfi_endproc
 2718              	.LFE145:
 2719              		.size	gdispGFillString, .-gdispGFillString
 2720 0124 AFF30080 		.section	.text.gdispGDrawStringBox,"ax",%progbits
 2720      AFF30080 
 2720      AFF30080 
 2721              		.align	2
 2722              		.p2align 4,,15
 2723              		.global	gdispGDrawStringBox
 2724              		.thumb
 2725              		.thumb_func
 2726              		.type	gdispGDrawStringBox, %function
 2727              	gdispGDrawStringBox:
 2728              	.LFB146:
 2729              		.loc 1 2917 0
 2730              		.cfi_startproc
 2731              		@ args = 20, pretend = 0, frame = 0
 2732              		@ frame_needed = 0, uses_anonymous_args = 0
 2733              	.LVL249:
 2734 0000 2DE9F043 		push	{r4, r5, r6, r7, r8, r9, lr}
 2735              		.cfi_def_cfa_offset 28
 2736              		.cfi_offset 4, -28
 2737              		.cfi_offset 5, -24
 2738              		.cfi_offset 6, -20
 2739              		.cfi_offset 7, -16
 2740              		.cfi_offset 8, -12
 2741              		.cfi_offset 9, -8
 2742              		.cfi_offset 14, -4
 2743 0004 85B0     		sub	sp, sp, #20
 2744              		.cfi_def_cfa_offset 48
 2745              		.loc 1 2922 0
 2746 0006 1FFA81FC 		uxth	ip, r1
 2747              		.loc 1 2917 0
 2748 000a BDF930E0 		ldrsh	lr, [sp, #48]
 2749 000e 9DF84060 		ldrb	r6, [sp, #64]	@ zero_extendqisi2
 2750 0012 BDF83C80 		ldrh	r8, [sp, #60]
 2751 0016 0E9D     		ldr	r5, [sp, #56]
 2752 0018 0446     		mov	r4, r0
 2753 001a 0F46     		mov	r7, r1
 2754              		.loc 1 2923 0
 2755 001c 90B2     		uxth	r0, r2
 2756              	.LVL250:
 2757              		.loc 1 2922 0
 2758 001e 0CEB0301 		add	r1, ip, r3
 2759              	.LVL251:
 2760              		.loc 1 2923 0
 2761 0022 00EB0E09 		add	r9, r0, lr
 2762              		.loc 1 2922 0
 2763 0026 09B2     		sxth	r1, r1
 2764              		.loc 1 2927 0
 2765 0028 012E     		cmp	r6, #1
 2766              		.loc 1 2920 0
 2767 002a A4F84070 		strh	r7, [r4, #64]	@ movhi
 2768              		.loc 1 2921 0
ARM GAS  /tmp/cclL2Tth.s 			page 50


 2769 002e A4F84220 		strh	r2, [r4, #66]	@ movhi
 2770              		.loc 1 2923 0
 2771 0032 A4F84690 		strh	r9, [r4, #70]	@ movhi
 2772              		.loc 1 2924 0
 2773 0036 A4F83C80 		strh	r8, [r4, #60]	@ movhi
 2774              		.loc 1 2922 0
 2775 003a A4F84410 		strh	r1, [r4, #68]	@ movhi
 2776              		.loc 1 2919 0
 2777 003e A563     		str	r5, [r4, #56]
 2778              		.loc 1 2927 0
 2779 0040 29D0     		beq	.L193
 2780 0042 022E     		cmp	r6, #2
 2781 0044 23D1     		bne	.L203
 2782              	.LVL252:
 2783              	.L194:
 2784              		.loc 1 2938 0
 2785 0046 6B7A     		ldrb	r3, [r5, #9]	@ zero_extendqisi2
 2786              		.loc 1 2940 0
 2787 0048 0D9A     		ldr	r2, [sp, #52]
 2788 004a 0092     		str	r2, [sp]
 2789              	.LVL253:
 2790              		.loc 1 2938 0
 2791 004c 0EF1010E 		add	lr, lr, #1
 2792              	.LVL254:
 2793 0050 C3EB0E0E 		rsb	lr, r3, lr
 2794 0054 0EEBDE7E 		add	lr, lr, lr, lsr #31
 2795 0058 00EB6E02 		add	r2, r0, lr, asr #1
 2796              		.loc 1 2940 0
 2797 005c 4FF0000C 		mov	ip, #0
 2798 0060 104F     		ldr	r7, .L204
 2799 0062 0394     		str	r4, [sp, #12]
 2800 0064 3346     		mov	r3, r6
 2801              	.LVL255:
 2802 0066 12B2     		sxth	r2, r2
 2803 0068 2846     		mov	r0, r5
 2804 006a CDF804C0 		str	ip, [sp, #4]
 2805 006e 0297     		str	r7, [sp, #8]
 2806 0070 FFF7FEFF 		bl	mf_render_aligned
 2807              	.LVL256:
 2808              		.loc 1 2942 0
 2809 0074 E38A     		ldrh	r3, [r4, #22]
 2810 0076 9B07     		lsls	r3, r3, #30
 2811 0078 06D5     		bpl	.L191
 2812              		.loc 1 2942 0 is_stmt 0 discriminator 1
 2813 007a 2046     		mov	r0, r4
 2814 007c FFF7FEFF 		bl	gdisp_lld_write_stop
 2815              	.LVL257:
 2816 0080 E38A     		ldrh	r3, [r4, #22]
 2817 0082 23F00203 		bic	r3, r3, #2
 2818 0086 E382     		strh	r3, [r4, #22]	@ movhi
 2819              	.L191:
 2820              		.loc 1 2944 0 is_stmt 1
 2821 0088 05B0     		add	sp, sp, #20
 2822              		@ sp needed
 2823 008a BDE8F083 		pop	{r4, r5, r6, r7, r8, r9, pc}
 2824              	.LVL258:
 2825              	.L203:
ARM GAS  /tmp/cclL2Tth.s 			page 51


 2826              		.loc 1 2935 0
 2827 008e 297B     		ldrb	r1, [r5, #12]	@ zero_extendqisi2
 2828 0090 6144     		add	r1, r1, ip
 2829 0092 09B2     		sxth	r1, r1
 2830              	.LVL259:
 2831              		.loc 1 2936 0
 2832 0094 D7E7     		b	.L194
 2833              	.LVL260:
 2834              	.L193:
 2835              		.loc 1 2929 0
 2836 0096 0133     		adds	r3, r3, #1
 2837              	.LVL261:
 2838 0098 03EBD373 		add	r3, r3, r3, lsr #31
 2839 009c 0CEB6301 		add	r1, ip, r3, asr #1
 2840 00a0 09B2     		sxth	r1, r1
 2841              	.LVL262:
 2842              		.loc 1 2930 0
 2843 00a2 D0E7     		b	.L194
 2844              	.L205:
 2845              		.align	2
 2846              	.L204:
 2847 00a4 00000000 		.word	drawcharglyph
 2848              		.cfi_endproc
 2849              	.LFE146:
 2850              		.size	gdispGDrawStringBox, .-gdispGDrawStringBox
 2851 00a8 AFF30080 		.section	.text.gdispGFillStringBox,"ax",%progbits
 2851      AFF30080 
 2852              		.align	2
 2853              		.p2align 4,,15
 2854              		.global	gdispGFillStringBox
 2855              		.thumb
 2856              		.thumb_func
 2857              		.type	gdispGFillStringBox, %function
 2858              	gdispGFillStringBox:
 2859              	.LFB147:
 2860              		.loc 1 2946 0
 2861              		.cfi_startproc
 2862              		@ args = 24, pretend = 0, frame = 16
 2863              		@ frame_needed = 0, uses_anonymous_args = 0
 2864              	.LVL263:
 2865 0000 2DE9F04F 		push	{r4, r5, r6, r7, r8, r9, r10, fp, lr}
 2866              		.cfi_def_cfa_offset 36
 2867              		.cfi_offset 4, -36
 2868              		.cfi_offset 5, -32
 2869              		.cfi_offset 6, -28
 2870              		.cfi_offset 7, -24
 2871              		.cfi_offset 8, -20
 2872              		.cfi_offset 9, -16
 2873              		.cfi_offset 10, -12
 2874              		.cfi_offset 11, -8
 2875              		.cfi_offset 14, -4
 2876 0004 89B0     		sub	sp, sp, #36
 2877              		.cfi_def_cfa_offset 72
 2878              		.loc 1 2946 0
 2879 0006 0446     		mov	r4, r0
 2880 0008 BDF94860 		ldrsh	r6, [sp, #72]
 2881              		.loc 1 2958 0
ARM GAS  /tmp/cclL2Tth.s 			page 52


 2882 000c 008B     		ldrh	r0, [r0, #24]
 2883              	.LVL264:
 2884              		.loc 1 2948 0
 2885 000e A384     		strh	r3, [r4, #36]	@ movhi
 2886              		.loc 1 2946 0
 2887 0010 1F46     		mov	r7, r3
 2888              		.loc 1 2953 0
 2889 0012 8BB2     		uxth	r3, r1
 2890              	.LVL265:
 2891 0014 BDB2     		uxth	r5, r7
 2892 0016 9B46     		mov	fp, r3
 2893              		.loc 1 2954 0
 2894 0018 1FFA82F9 		uxth	r9, r2
 2895 001c 1FFA86FA 		uxth	r10, r6
 2896              		.loc 1 2946 0
 2897 0020 BDF85480 		ldrh	r8, [sp, #84]
 2898              		.loc 1 2953 0
 2899 0024 0693     		str	r3, [sp, #24]
 2900 0026 AB44     		add	fp, fp, r5
 2901 0028 0795     		str	r5, [sp, #28]
 2902              		.loc 1 2958 0
 2903 002a 03B2     		sxth	r3, r0
 2904              		.loc 1 2954 0
 2905 002c 0AEB0905 		add	r5, r10, r9
 2906              		.loc 1 2946 0
 2907 0030 BDF858C0 		ldrh	ip, [sp, #88]
 2908              		.loc 1 2954 0
 2909 0034 A4F84650 		strh	r5, [r4, #70]	@ movhi
 2910              		.loc 1 2953 0
 2911 0038 0FFA8BFB 		sxth	fp, fp
 2912              		.loc 1 2955 0
 2913 003c A4F83C80 		strh	r8, [r4, #60]	@ movhi
 2914              		.loc 1 2950 0
 2915 0040 149D     		ldr	r5, [sp, #80]
 2916              		.loc 1 2946 0
 2917 0042 9DF85C80 		ldrb	r8, [sp, #92]	@ zero_extendqisi2
 2918              		.loc 1 2951 0
 2919 0046 2184     		strh	r1, [r4, #32]	@ movhi
 2920              		.loc 1 2958 0
 2921 0048 9942     		cmp	r1, r3
 2922              		.loc 1 2951 0
 2923 004a A4F84010 		strh	r1, [r4, #64]	@ movhi
 2924              		.loc 1 2952 0
 2925 004e 6284     		strh	r2, [r4, #34]	@ movhi
 2926 0050 A4F84220 		strh	r2, [r4, #66]	@ movhi
 2927              		.loc 1 2949 0
 2928 0054 E684     		strh	r6, [r4, #38]	@ movhi
 2929              		.loc 1 2953 0
 2930 0056 A4F844B0 		strh	fp, [r4, #68]	@ movhi
 2931              		.loc 1 2950 0
 2932 005a A563     		str	r5, [r4, #56]
 2933              		.loc 1 2956 0
 2934 005c A4F830C0 		strh	ip, [r4, #48]	@ movhi
 2935 0060 A4F83EC0 		strh	ip, [r4, #62]	@ movhi
 2936              		.loc 1 2946 0
 2937 0064 CDF81080 		str	r8, [sp, #16]
 2938              		.loc 1 2958 0
ARM GAS  /tmp/cclL2Tth.s 			page 53


 2939 0068 5CDA     		bge	.L216
 2940              		.loc 1 2958 0 is_stmt 0 discriminator 1
 2941 006a 069D     		ldr	r5, [sp, #24]
 2942 006c 2084     		strh	r0, [r4, #32]	@ movhi
 2943 006e 291A     		subs	r1, r5, r0
 2944              	.LVL266:
 2945 0070 079D     		ldr	r5, [sp, #28]
 2946 0072 0D44     		add	r5, r5, r1
 2947 0074 ADB2     		uxth	r5, r5
 2948 0076 A584     		strh	r5, [r4, #36]	@ movhi
 2949              	.LVL267:
 2950              	.L207:
 2951              		.loc 1 2958 0 discriminator 2
 2952 0078 618B     		ldrh	r1, [r4, #26]
 2953 007a 0FFA81FC 		sxth	ip, r1
 2954 007e 6245     		cmp	r2, ip
 2955 0080 4BDA     		bge	.L217
 2956              		.loc 1 2958 0 discriminator 1
 2957 0082 C1EB0902 		rsb	r2, r1, r9
 2958              	.LVL268:
 2959 0086 9244     		add	r10, r10, r2
 2960 0088 1FFA8AFA 		uxth	r10, r10
 2961 008c 6184     		strh	r1, [r4, #34]	@ movhi
 2962              	.LVL269:
 2963 008e A4F826A0 		strh	r10, [r4, #38]	@ movhi
 2964              	.L208:
 2965              		.loc 1 2958 0 discriminator 2
 2966 0092 A28B     		ldrh	r2, [r4, #28]
 2967 0094 2DB2     		sxth	r5, r5
 2968 0096 2B44     		add	r3, r3, r5
 2969 0098 0FFA82F8 		sxth	r8, r2
 2970 009c 4345     		cmp	r3, r8
 2971 009e 03DD     		ble	.L209
 2972              		.loc 1 2958 0 discriminator 1
 2973 00a0 101A     		subs	r0, r2, r0
 2974 00a2 85B2     		uxth	r5, r0
 2975 00a4 A584     		strh	r5, [r4, #36]	@ movhi
 2976 00a6 2DB2     		sxth	r5, r5
 2977              	.L209:
 2978              		.loc 1 2958 0 discriminator 2
 2979 00a8 E38B     		ldrh	r3, [r4, #30]
 2980 00aa 0CFA8AFC 		sxtah	ip, ip, r10
 2981 00ae 1AB2     		sxth	r2, r3
 2982 00b0 9445     		cmp	ip, r2
 2983 00b2 C4BF     		itt	gt
 2984 00b4 C1EB0301 		rsbgt	r1, r1, r3
 2985 00b8 E184     		strhgt	r1, [r4, #38]	@ movhi
 2986 00ba 002D     		cmp	r5, #0
 2987 00bc 20DD     		ble	.L211
 2988              		.loc 1 2958 0 discriminator 1
 2989 00be B4F92630 		ldrsh	r3, [r4, #38]
 2990 00c2 002B     		cmp	r3, #0
 2991 00c4 1CDD     		ble	.L211
 2992              	.LVL270:
 2993              	.LBB148:
 2994              	.LBB149:
 2995              		.loc 1 206 0 is_stmt 1
ARM GAS  /tmp/cclL2Tth.s 			page 54


 2996 00c6 2046     		mov	r0, r4
 2997 00c8 FFF7FEFF 		bl	gdisp_lld_fill_area
 2998              	.LVL271:
 2999              	.LBE149:
 3000              	.LBE148:
 3001              		.loc 1 2964 0
 3002 00cc 049A     		ldr	r2, [sp, #16]
 3003 00ce 012A     		cmp	r2, #1
 3004 00d0 34D0     		beq	.L213
 3005 00d2 022A     		cmp	r2, #2
 3006 00d4 2AD1     		bne	.L225
 3007              	.LVL272:
 3008              	.L214:
 3009              		.loc 1 2975 0
 3010 00d6 149D     		ldr	r5, [sp, #80]
 3011              		.loc 1 2978 0
 3012 00d8 139A     		ldr	r2, [sp, #76]
 3013              		.loc 1 2975 0
 3014 00da 6B7A     		ldrb	r3, [r5, #9]	@ zero_extendqisi2
 3015              		.loc 1 2978 0
 3016 00dc 1C4D     		ldr	r5, .L226
 3017 00de 0092     		str	r2, [sp]
 3018              	.LVL273:
 3019              		.loc 1 2975 0
 3020 00e0 0136     		adds	r6, r6, #1
 3021              	.LVL274:
 3022 00e2 F61A     		subs	r6, r6, r3
 3023 00e4 06EBD676 		add	r6, r6, r6, lsr #31
 3024 00e8 09EB6602 		add	r2, r9, r6, asr #1
 3025              		.loc 1 2978 0
 3026 00ec 0027     		movs	r7, #0
 3027 00ee 0394     		str	r4, [sp, #12]
 3028 00f0 5946     		mov	r1, fp
 3029 00f2 049B     		ldr	r3, [sp, #16]
 3030              	.LVL275:
 3031 00f4 1498     		ldr	r0, [sp, #80]
 3032 00f6 0197     		str	r7, [sp, #4]
 3033 00f8 12B2     		sxth	r2, r2
 3034 00fa 0295     		str	r5, [sp, #8]
 3035 00fc FFF7FEFF 		bl	mf_render_aligned
 3036              	.LVL276:
 3037              	.L211:
 3038              		.loc 1 2981 0
 3039 0100 E38A     		ldrh	r3, [r4, #22]
 3040 0102 9B07     		lsls	r3, r3, #30
 3041 0104 06D5     		bpl	.L206
 3042              		.loc 1 2981 0 is_stmt 0 discriminator 1
 3043 0106 2046     		mov	r0, r4
 3044 0108 FFF7FEFF 		bl	gdisp_lld_write_stop
 3045              	.LVL277:
 3046 010c E38A     		ldrh	r3, [r4, #22]
 3047 010e 23F00203 		bic	r3, r3, #2
 3048 0112 E382     		strh	r3, [r4, #22]	@ movhi
 3049              	.L206:
 3050              		.loc 1 2983 0 is_stmt 1
 3051 0114 09B0     		add	sp, sp, #36
 3052              		@ sp needed
ARM GAS  /tmp/cclL2Tth.s 			page 55


 3053 0116 BDE8F08F 		pop	{r4, r5, r6, r7, r8, r9, r10, fp, pc}
 3054              	.LVL278:
 3055              	.L217:
 3056 011a 1146     		mov	r1, r2
 3057 011c 0FFA82FC 		sxth	ip, r2
 3058 0120 B246     		mov	r10, r6
 3059 0122 B6E7     		b	.L208
 3060              	.LVL279:
 3061              	.L216:
 3062 0124 0846     		mov	r0, r1
 3063 0126 0BB2     		sxth	r3, r1
 3064 0128 3D46     		mov	r5, r7
 3065 012a A5E7     		b	.L207
 3066              	.LVL280:
 3067              	.L225:
 3068              		.loc 1 2972 0
 3069 012c 149D     		ldr	r5, [sp, #80]
 3070 012e DDF81880 		ldr	r8, [sp, #24]
 3071 0132 2B7B     		ldrb	r3, [r5, #12]	@ zero_extendqisi2
 3072 0134 4344     		add	r3, r3, r8
 3073 0136 0FFA83FB 		sxth	fp, r3
 3074              	.LVL281:
 3075              		.loc 1 2973 0
 3076 013a CCE7     		b	.L214
 3077              	.LVL282:
 3078              	.L213:
 3079              		.loc 1 2966 0
 3080 013c 0137     		adds	r7, r7, #1
 3081 013e 069B     		ldr	r3, [sp, #24]
 3082 0140 07EBD777 		add	r7, r7, r7, lsr #31
 3083 0144 03EB6707 		add	r7, r3, r7, asr #1
 3084 0148 0FFA87FB 		sxth	fp, r7
 3085              	.LVL283:
 3086              		.loc 1 2967 0
 3087 014c C3E7     		b	.L214
 3088              	.L227:
 3089 014e 00BF     		.align	2
 3090              	.L226:
 3091 0150 00000000 		.word	fillcharglyph
 3092              		.cfi_endproc
 3093              	.LFE147:
 3094              		.size	gdispGFillStringBox, .-gdispGFillStringBox
 3095 0154 AFF30080 		.section	.text.gdispGetFontMetric,"ax",%progbits
 3095      AFF30080 
 3095      AFF30080 
 3096              		.align	2
 3097              		.p2align 4,,15
 3098              		.global	gdispGetFontMetric
 3099              		.thumb
 3100              		.thumb_func
 3101              		.type	gdispGetFontMetric, %function
 3102              	gdispGetFontMetric:
 3103              	.LFB148:
 3104              		.loc 1 2985 0
 3105              		.cfi_startproc
 3106              		@ args = 0, pretend = 0, frame = 0
 3107              		@ frame_needed = 0, uses_anonymous_args = 0
ARM GAS  /tmp/cclL2Tth.s 			page 56


 3108              		@ link register save eliminated.
 3109              	.LVL284:
 3110              		.loc 1 2987 0
 3111 0000 0529     		cmp	r1, #5
 3112 0002 04D8     		bhi	.L236
 3113 0004 DFE801F0 		tbb	[pc, r1]
 3114              	.L231:
 3115 0008 09       		.byte	(.L230-.L231)/2
 3116 0009 0C       		.byte	(.L232-.L231)/2
 3117 000a 12       		.byte	(.L233-.L231)/2
 3118 000b 03       		.byte	(.L236-.L231)/2
 3119 000c 06       		.byte	(.L234-.L231)/2
 3120 000d 15       		.byte	(.L235-.L231)/2
 3121              		.p2align 1
 3122              	.L236:
 3123              		.loc 1 2991 0
 3124 000e 0020     		movs	r0, #0
 3125              	.LVL285:
 3126              		.loc 1 2996 0
 3127 0010 00B2     		sxth	r0, r0
 3128 0012 7047     		bx	lr
 3129              	.LVL286:
 3130              	.L234:
 3131              		.loc 1 2992 0
 3132 0014 807A     		ldrb	r0, [r0, #10]	@ zero_extendqisi2
 3133              	.LVL287:
 3134              		.loc 1 2996 0
 3135 0016 00B2     		sxth	r0, r0
 3136 0018 7047     		bx	lr
 3137              	.LVL288:
 3138              	.L230:
 3139              		.loc 1 2988 0
 3140 001a 407A     		ldrb	r0, [r0, #9]	@ zero_extendqisi2
 3141              	.LVL289:
 3142              		.loc 1 2996 0
 3143 001c 00B2     		sxth	r0, r0
 3144 001e 7047     		bx	lr
 3145              	.LVL290:
 3146              	.L232:
 3147              		.loc 1 2989 0
 3148 0020 427A     		ldrb	r2, [r0, #9]	@ zero_extendqisi2
 3149 0022 437B     		ldrb	r3, [r0, #13]	@ zero_extendqisi2
 3150 0024 D01A     		subs	r0, r2, r3
 3151              	.LVL291:
 3152 0026 80B2     		uxth	r0, r0
 3153              		.loc 1 2996 0
 3154 0028 00B2     		sxth	r0, r0
 3155 002a 7047     		bx	lr
 3156              	.LVL292:
 3157              	.L233:
 3158              		.loc 1 2990 0
 3159 002c 807B     		ldrb	r0, [r0, #14]	@ zero_extendqisi2
 3160              	.LVL293:
 3161              		.loc 1 2996 0
 3162 002e 00B2     		sxth	r0, r0
 3163 0030 7047     		bx	lr
 3164              	.LVL294:
ARM GAS  /tmp/cclL2Tth.s 			page 57


 3165              	.L235:
 3166              		.loc 1 2993 0
 3167 0032 C07A     		ldrb	r0, [r0, #11]	@ zero_extendqisi2
 3168              	.LVL295:
 3169              		.loc 1 2996 0
 3170 0034 00B2     		sxth	r0, r0
 3171 0036 7047     		bx	lr
 3172              		.cfi_endproc
 3173              	.LFE148:
 3174              		.size	gdispGetFontMetric, .-gdispGetFontMetric
 3175 0038 AFF30080 		.section	.text.gdispGetCharWidth,"ax",%progbits
 3175      AFF30080 
 3176              		.align	2
 3177              		.p2align 4,,15
 3178              		.global	gdispGetCharWidth
 3179              		.thumb
 3180              		.thumb_func
 3181              		.type	gdispGetCharWidth, %function
 3182              	gdispGetCharWidth:
 3183              	.LFB149:
 3184              		.loc 1 2998 0
 3185              		.cfi_startproc
 3186              		@ args = 0, pretend = 0, frame = 0
 3187              		@ frame_needed = 0, uses_anonymous_args = 0
 3188              	.LVL296:
 3189 0000 08B5     		push	{r3, lr}
 3190              		.cfi_def_cfa_offset 8
 3191              		.cfi_offset 3, -8
 3192              		.cfi_offset 14, -4
 3193              		.loc 1 2998 0
 3194 0002 0346     		mov	r3, r0
 3195              		.loc 1 3000 0
 3196 0004 0846     		mov	r0, r1
 3197              	.LVL297:
 3198 0006 1946     		mov	r1, r3
 3199              	.LVL298:
 3200 0008 FFF7FEFF 		bl	mf_character_width
 3201              	.LVL299:
 3202              		.loc 1 3001 0
 3203 000c 00B2     		sxth	r0, r0
 3204 000e 08BD     		pop	{r3, pc}
 3205              		.cfi_endproc
 3206              	.LFE149:
 3207              		.size	gdispGetCharWidth, .-gdispGetCharWidth
 3208              		.section	.text.gdispGetStringWidth,"ax",%progbits
 3209              		.align	2
 3210              		.p2align 4,,15
 3211              		.global	gdispGetStringWidth
 3212              		.thumb
 3213              		.thumb_func
 3214              		.type	gdispGetStringWidth, %function
 3215              	gdispGetStringWidth:
 3216              	.LFB150:
 3217              		.loc 1 3003 0
 3218              		.cfi_startproc
 3219              		@ args = 0, pretend = 0, frame = 0
 3220              		@ frame_needed = 0, uses_anonymous_args = 0
ARM GAS  /tmp/cclL2Tth.s 			page 58


 3221              		@ link register save eliminated.
 3222              	.LVL300:
 3223 0000 10B4     		push	{r4}
 3224              		.cfi_def_cfa_offset 4
 3225              		.cfi_offset 4, -4
 3226              		.loc 1 3005 0
 3227 0002 0022     		movs	r2, #0
 3228              		.loc 1 3003 0
 3229 0004 0446     		mov	r4, r0
 3230              		.loc 1 3005 0
 3231 0006 1346     		mov	r3, r2
 3232 0008 0846     		mov	r0, r1
 3233              	.LVL301:
 3234 000a 2146     		mov	r1, r4
 3235              	.LVL302:
 3236              		.loc 1 3006 0
 3237 000c 5DF8044B 		ldr	r4, [sp], #4
 3238              	.LVL303:
 3239              		.loc 1 3005 0
 3240 0010 FFF7FEBF 		b	mf_get_string_width
 3241              	.LVL304:
 3242              		.cfi_endproc
 3243              	.LFE150:
 3244              		.size	gdispGetStringWidth, .-gdispGetStringWidth
 3245 0014 AFF30080 		.section	.text.gdispBlendColor,"ax",%progbits
 3245      AFF30080 
 3245      AFF30080 
 3246              		.align	2
 3247              		.p2align 4,,15
 3248              		.global	gdispBlendColor
 3249              		.thumb
 3250              		.thumb_func
 3251              		.type	gdispBlendColor, %function
 3252              	gdispBlendColor:
 3253              	.LFB151:
 3254              		.loc 1 3010 0
 3255              		.cfi_startproc
 3256              		@ args = 0, pretend = 0, frame = 0
 3257              		@ frame_needed = 0, uses_anonymous_args = 0
 3258              		@ link register save eliminated.
 3259              	.LVL305:
 3260 0000 F0B4     		push	{r4, r5, r6, r7}
 3261              		.cfi_def_cfa_offset 16
 3262              		.cfi_offset 4, -16
 3263              		.cfi_offset 5, -12
 3264              		.cfi_offset 6, -8
 3265              		.cfi_offset 7, -4
 3266              		.loc 1 3016 0
 3267 0002 00F4FC67 		and	r7, r0, #2016
 3268              		.loc 1 3011 0
 3269 0006 531C     		adds	r3, r2, #1
 3270              	.LVL306:
 3271              		.loc 1 3020 0
 3272 0008 01F4FC6C 		and	ip, r1, #2016
 3273              		.loc 1 3015 0
 3274 000c 00F47845 		and	r5, r0, #63488
 3275              		.loc 1 3016 0
ARM GAS  /tmp/cclL2Tth.s 			page 59


 3276 0010 FF10     		asrs	r7, r7, #3
 3277              		.loc 1 3012 0
 3278 0012 C2F58072 		rsb	r2, r2, #256
 3279              	.LVL307:
 3280              		.loc 1 3016 0
 3281 0016 07FB03F7 		mul	r7, r7, r3
 3282              		.loc 1 3012 0
 3283 001a 92B2     		uxth	r2, r2
 3284              	.LVL308:
 3285              		.loc 1 3017 0
 3286 001c C600     		lsls	r6, r0, #3
 3287              		.loc 1 3019 0
 3288 001e 01F47844 		and	r4, r1, #63488
 3289              		.loc 1 3020 0
 3290 0022 4FEAEC0C 		asr	ip, ip, #3
 3291              		.loc 1 3015 0
 3292 0026 2D12     		asrs	r5, r5, #8
 3293              		.loc 1 3020 0
 3294 0028 0CFB0270 		mla	r0, ip, r2, r7
 3295              	.LVL309:
 3296              		.loc 1 3015 0
 3297 002c 05FB03F5 		mul	r5, r5, r3
 3298              	.LVL310:
 3299              		.loc 1 3017 0
 3300 0030 F6B2     		uxtb	r6, r6
 3301              		.loc 1 3019 0
 3302 0032 2412     		asrs	r4, r4, #8
 3303              		.loc 1 3021 0
 3304 0034 C900     		lsls	r1, r1, #3
 3305              	.LVL311:
 3306              		.loc 1 3019 0
 3307 0036 04FB0254 		mla	r4, r4, r2, r5
 3308              		.loc 1 3017 0
 3309 003a 06FB03F3 		mul	r3, r6, r3
 3310              	.LVL312:
 3311              		.loc 1 3027 0
 3312 003e 4009     		lsrs	r0, r0, #5
 3313              		.loc 1 3021 0
 3314 0040 C9B2     		uxtb	r1, r1
 3315              		.loc 1 3027 0
 3316 0042 04F47844 		and	r4, r4, #63488
 3317 0046 00F4FC60 		and	r0, r0, #2016
 3318              		.loc 1 3021 0
 3319 004a 01FB0232 		mla	r2, r1, r2, r3
 3320              	.LVL313:
 3321              		.loc 1 3027 0
 3322 004e 2043     		orrs	r0, r0, r4
 3323 0050 C2F3C422 		ubfx	r2, r2, #11, #5
 3324              	.LVL314:
 3325              		.loc 1 3028 0
 3326 0054 1043     		orrs	r0, r0, r2
 3327 0056 F0BC     		pop	{r4, r5, r6, r7}
 3328 0058 7047     		bx	lr
 3329              		.cfi_endproc
 3330              	.LFE151:
 3331              		.size	gdispBlendColor, .-gdispBlendColor
 3332 005a 00BFAFF3 		.section	.text.gdispContrastColor,"ax",%progbits
ARM GAS  /tmp/cclL2Tth.s 			page 60


 3332      0080
 3333              		.align	2
 3334              		.p2align 4,,15
 3335              		.global	gdispContrastColor
 3336              		.thumb
 3337              		.thumb_func
 3338              		.type	gdispContrastColor, %function
 3339              	gdispContrastColor:
 3340              	.LFB152:
 3341              		.loc 1 3030 0
 3342              		.cfi_startproc
 3343              		@ args = 0, pretend = 0, frame = 0
 3344              		@ frame_needed = 0, uses_anonymous_args = 0
 3345              		@ link register save eliminated.
 3346              	.LVL315:
 3347              		.loc 1 3033 0
 3348 0000 00F47843 		and	r3, r0, #63488
 3349              		.loc 1 3034 0
 3350 0004 00F4FC61 		and	r1, r0, #2016
 3351              		.loc 1 3033 0
 3352 0008 B3F5004F 		cmp	r3, #32768
 3353              		.loc 1 3035 0
 3354 000c 4FEAC000 		lsl	r0, r0, #3
 3355              	.LVL316:
 3356              		.loc 1 3033 0
 3357 0010 94BF     		ite	ls
 3358 0012 4FF47843 		movls	r3, #63488
 3359 0016 0023     		movhi	r3, #0
 3360              		.loc 1 3035 0
 3361 0018 C2B2     		uxtb	r2, r0
 3362              		.loc 1 3034 0
 3363 001a B1F5806F 		cmp	r1, #1024
 3364 001e 94BF     		ite	ls
 3365 0020 4FF4FC60 		movls	r0, #2016
 3366 0024 0020     		movhi	r0, #0
 3367              		.loc 1 3035 0
 3368 0026 812A     		cmp	r2, #129
 3369              		.loc 1 3037 0
 3370 0028 40EA0300 		orr	r0, r0, r3
 3371              		.loc 1 3035 0
 3372 002c B4BF     		ite	lt
 3373 002e 1F23     		movlt	r3, #31
 3374 0030 0023     		movge	r3, #0
 3375              		.loc 1 3038 0
 3376 0032 1843     		orrs	r0, r0, r3
 3377 0034 7047     		bx	lr
 3378              		.cfi_endproc
 3379              	.LFE152:
 3380              		.size	gdispContrastColor, .-gdispContrastColor
 3381              		.global	GDISP
 3382 0036 00BFAFF3 		.section	.data.GDISP,"aw",%progbits
 3382      0080AFF3 
 3382      0080
 3383              		.align	2
 3384              		.set	.LANCHOR1,. + 0
 3385              		.type	GDISP, %object
 3386              		.size	GDISP, 4
ARM GAS  /tmp/cclL2Tth.s 			page 61


 3387              	GDISP:
 3388 0000 00000000 		.word	GDisplayArray
 3389              		.section	.rodata.blks.7089,"a",%progbits
 3390              		.align	2
 3391              		.set	.LANCHOR2,. + 0
 3392              		.type	blks.7089, %object
 3393              		.size	blks.7089, 128
 3394              	blks.7089:
 3395 0000 0200     		.short	2
 3396 0002 0600     		.short	6
 3397 0004 0100     		.short	1
 3398 0006 0A00     		.short	10
 3399 0008 0300     		.short	3
 3400 000a 0B00     		.short	11
 3401 000c 0400     		.short	4
 3402 000e 0100     		.short	1
 3403 0010 0600     		.short	6
 3404 0012 0600     		.short	6
 3405 0014 0100     		.short	1
 3406 0016 0600     		.short	6
 3407 0018 0800     		.short	8
 3408 001a 0000     		.short	0
 3409 001c 0100     		.short	1
 3410 001e 0C00     		.short	12
 3411 0020 0900     		.short	9
 3412 0022 0000     		.short	0
 3413 0024 0600     		.short	6
 3414 0026 0100     		.short	1
 3415 0028 0900     		.short	9
 3416 002a 0B00     		.short	11
 3417 002c 0600     		.short	6
 3418 002e 0100     		.short	1
 3419 0030 0E00     		.short	14
 3420 0032 0600     		.short	6
 3421 0034 0100     		.short	1
 3422 0036 0500     		.short	5
 3423 0038 0C00     		.short	12
 3424 003a 0600     		.short	6
 3425 003c 0200     		.short	2
 3426 003e 0100     		.short	1
 3427 0040 1000     		.short	16
 3428 0042 0000     		.short	0
 3429 0044 0100     		.short	1
 3430 0046 0C00     		.short	12
 3431 0048 1100     		.short	17
 3432 004a 0000     		.short	0
 3433 004c 0600     		.short	6
 3434 004e 0100     		.short	1
 3435 0050 1100     		.short	17
 3436 0052 0600     		.short	6
 3437 0054 0300     		.short	3
 3438 0056 0100     		.short	1
 3439 0058 1600     		.short	22
 3440 005a 0600     		.short	6
 3441 005c 0700     		.short	7
 3442 005e 0100     		.short	1
 3443 0060 1800     		.short	24
ARM GAS  /tmp/cclL2Tth.s 			page 62


 3444 0062 0000     		.short	0
 3445 0064 0100     		.short	1
 3446 0066 0600     		.short	6
 3447 0068 1600     		.short	22
 3448 006a 0700     		.short	7
 3449 006c 0100     		.short	1
 3450 006e 0500     		.short	5
 3451 0070 1C00     		.short	28
 3452 0072 0000     		.short	0
 3453 0074 0100     		.short	1
 3454 0076 0600     		.short	6
 3455 0078 1A00     		.short	26
 3456 007a 0700     		.short	7
 3457 007c 0100     		.short	1
 3458 007e 0500     		.short	5
 3459              		.section	.bss.GDisplayArray,"aw",%nobits
 3460              		.align	2
 3461              		.set	.LANCHOR0,. + 0
 3462              		.type	GDisplayArray, %object
 3463              		.size	GDisplayArray, 72
 3464              	GDisplayArray:
 3465 0000 00000000 		.space	72
 3465      00000000 
 3465      00000000 
 3465      00000000 
 3465      00000000 
 3466              		.text
 3467              	.Letext0:
 3468              		.file 2 "/opt/ARM/arm-none-eabi/include/machine/_default_types.h"
 3469              		.file 3 "/opt/ARM/arm-none-eabi/include/stdint.h"
 3470              		.file 4 "../../os/ports/GCC/ARMCMx/chtypes.h"
 3471              		.file 5 "/home/makkmarci/devel/ugfx/src/gos/chibios.h"
 3472              		.file 6 "/home/makkmarci/devel/ugfx/src/gdisp/sys_defs.h"
 3473              		.file 7 "/home/makkmarci/devel/ugfx/src/gdisp/mcufont/mf_font.h"
 3474              		.file 8 "/home/makkmarci/devel/ugfx/src/gdisp/driver.h"
 3475              		.file 9 "/home/makkmarci/devel/ugfx/src/gdisp/colors.h"
 3476              		.file 10 "/home/makkmarci/devel/ugfx/src/gdisp/mcufont/mf_encoding.h"
 3477              		.file 11 "/home/makkmarci/devel/ugfx/src/gdisp/mcufont/mf_justify.h"
 3478              		.file 12 "../../os/ports/common/ARMCMx/CMSIS/include/core_cm4.h"
 3479              		.section	.debug_info,"",%progbits
 3480              	.Ldebug_info0:
 3481 0000 D11C0000 		.4byte	0x1cd1
 3482 0004 0400     		.2byte	0x4
 3483 0006 00000000 		.4byte	.Ldebug_abbrev0
 3484 000a 04       		.byte	0x4
 3485 000b 01       		.uleb128 0x1
 3486 000c DA050000 		.4byte	.LASF163
 3487 0010 01       		.byte	0x1
 3488 0011 28000000 		.4byte	.LASF164
 3489 0015 06080000 		.4byte	.LASF165
 3490 0019 60010000 		.4byte	.Ldebug_ranges0+0x160
 3491 001d 00000000 		.4byte	0
 3492 0021 00000000 		.4byte	.Ldebug_line0
 3493 0025 02       		.uleb128 0x2
 3494 0026 04       		.byte	0x4
 3495 0027 05       		.byte	0x5
 3496 0028 696E7400 		.ascii	"int\000"
ARM GAS  /tmp/cclL2Tth.s 			page 63


 3497 002c 03       		.uleb128 0x3
 3498 002d 04       		.byte	0x4
 3499 002e 07       		.byte	0x7
 3500 002f 67020000 		.4byte	.LASF0
 3501 0033 03       		.uleb128 0x3
 3502 0034 01       		.byte	0x1
 3503 0035 06       		.byte	0x6
 3504 0036 1F010000 		.4byte	.LASF1
 3505 003a 04       		.uleb128 0x4
 3506 003b 7C000000 		.4byte	.LASF3
 3507 003f 02       		.byte	0x2
 3508 0040 1C       		.byte	0x1c
 3509 0041 45000000 		.4byte	0x45
 3510 0045 03       		.uleb128 0x3
 3511 0046 01       		.byte	0x1
 3512 0047 08       		.byte	0x8
 3513 0048 43050000 		.4byte	.LASF2
 3514 004c 04       		.uleb128 0x4
 3515 004d 3A020000 		.4byte	.LASF4
 3516 0051 02       		.byte	0x2
 3517 0052 25       		.byte	0x25
 3518 0053 57000000 		.4byte	0x57
 3519 0057 03       		.uleb128 0x3
 3520 0058 02       		.byte	0x2
 3521 0059 05       		.byte	0x5
 3522 005a 76050000 		.4byte	.LASF5
 3523 005e 04       		.uleb128 0x4
 3524 005f 8D070000 		.4byte	.LASF6
 3525 0063 02       		.byte	0x2
 3526 0064 26       		.byte	0x26
 3527 0065 69000000 		.4byte	0x69
 3528 0069 03       		.uleb128 0x3
 3529 006a 02       		.byte	0x2
 3530 006b 07       		.byte	0x7
 3531 006c 13020000 		.4byte	.LASF7
 3532 0070 04       		.uleb128 0x4
 3533 0071 C7000000 		.4byte	.LASF8
 3534 0075 02       		.byte	0x2
 3535 0076 37       		.byte	0x37
 3536 0077 7B000000 		.4byte	0x7b
 3537 007b 03       		.uleb128 0x3
 3538 007c 04       		.byte	0x4
 3539 007d 05       		.byte	0x5
 3540 007e 86000000 		.4byte	.LASF9
 3541 0082 04       		.uleb128 0x4
 3542 0083 2F020000 		.4byte	.LASF10
 3543 0087 02       		.byte	0x2
 3544 0088 38       		.byte	0x38
 3545 0089 8D000000 		.4byte	0x8d
 3546 008d 03       		.uleb128 0x3
 3547 008e 04       		.byte	0x4
 3548 008f 07       		.byte	0x7
 3549 0090 F9020000 		.4byte	.LASF11
 3550 0094 03       		.uleb128 0x3
 3551 0095 08       		.byte	0x8
 3552 0096 05       		.byte	0x5
 3553 0097 11010000 		.4byte	.LASF12
ARM GAS  /tmp/cclL2Tth.s 			page 64


 3554 009b 03       		.uleb128 0x3
 3555 009c 08       		.byte	0x8
 3556 009d 07       		.byte	0x7
 3557 009e 8F000000 		.4byte	.LASF13
 3558 00a2 04       		.uleb128 0x4
 3559 00a3 BF080000 		.4byte	.LASF14
 3560 00a7 03       		.byte	0x3
 3561 00a8 2A       		.byte	0x2a
 3562 00a9 3A000000 		.4byte	0x3a
 3563 00ad 04       		.uleb128 0x4
 3564 00ae 09010000 		.4byte	.LASF15
 3565 00b2 03       		.byte	0x3
 3566 00b3 35       		.byte	0x35
 3567 00b4 4C000000 		.4byte	0x4c
 3568 00b8 04       		.uleb128 0x4
 3569 00b9 91020000 		.4byte	.LASF16
 3570 00bd 03       		.byte	0x3
 3571 00be 36       		.byte	0x36
 3572 00bf 5E000000 		.4byte	0x5e
 3573 00c3 04       		.uleb128 0x4
 3574 00c4 3B050000 		.4byte	.LASF17
 3575 00c8 03       		.byte	0x3
 3576 00c9 41       		.byte	0x41
 3577 00ca 70000000 		.4byte	0x70
 3578 00ce 04       		.uleb128 0x4
 3579 00cf 3A070000 		.4byte	.LASF18
 3580 00d3 03       		.byte	0x3
 3581 00d4 42       		.byte	0x42
 3582 00d5 82000000 		.4byte	0x82
 3583 00d9 04       		.uleb128 0x4
 3584 00da BB000000 		.4byte	.LASF19
 3585 00de 04       		.byte	0x4
 3586 00df 2B       		.byte	0x2b
 3587 00e0 E4000000 		.4byte	0xe4
 3588 00e4 03       		.uleb128 0x3
 3589 00e5 01       		.byte	0x1
 3590 00e6 02       		.byte	0x2
 3591 00e7 35050000 		.4byte	.LASF20
 3592 00eb 04       		.uleb128 0x4
 3593 00ec C5070000 		.4byte	.LASF21
 3594 00f0 04       		.byte	0x4
 3595 00f1 35       		.byte	0x35
 3596 00f2 CE000000 		.4byte	0xce
 3597 00f6 05       		.uleb128 0x5
 3598 00f7 04       		.byte	0x4
 3599 00f8 03       		.uleb128 0x3
 3600 00f9 04       		.byte	0x4
 3601 00fa 07       		.byte	0x7
 3602 00fb 5E040000 		.4byte	.LASF22
 3603 00ff 06       		.uleb128 0x6
 3604 0100 04       		.byte	0x4
 3605 0101 05010000 		.4byte	0x105
 3606 0105 07       		.uleb128 0x7
 3607 0106 0A010000 		.4byte	0x10a
 3608 010a 03       		.uleb128 0x3
 3609 010b 01       		.byte	0x1
 3610 010c 08       		.byte	0x8
ARM GAS  /tmp/cclL2Tth.s 			page 65


 3611 010d 71070000 		.4byte	.LASF23
 3612 0111 08       		.uleb128 0x8
 3613 0112 C3000000 		.4byte	0xc3
 3614 0116 04       		.uleb128 0x4
 3615 0117 01070000 		.4byte	.LASF24
 3616 011b 05       		.byte	0x5
 3617 011c 1F       		.byte	0x1f
 3618 011d EB000000 		.4byte	0xeb
 3619 0121 04       		.uleb128 0x4
 3620 0122 D1040000 		.4byte	.LASF25
 3621 0126 06       		.byte	0x6
 3622 0127 27       		.byte	0x27
 3623 0128 AD000000 		.4byte	0xad
 3624 012c 09       		.uleb128 0x9
 3625 012d FE070000 		.4byte	.LASF30
 3626 0131 01       		.byte	0x1
 3627 0132 06       		.byte	0x6
 3628 0133 36       		.byte	0x36
 3629 0134 4B010000 		.4byte	0x14b
 3630 0138 0A       		.uleb128 0xa
 3631 0139 72040000 		.4byte	.LASF26
 3632 013d 00       		.sleb128 0
 3633 013e 0A       		.uleb128 0xa
 3634 013f A2010000 		.4byte	.LASF27
 3635 0143 01       		.sleb128 1
 3636 0144 0A       		.uleb128 0xa
 3637 0145 EC020000 		.4byte	.LASF28
 3638 0149 02       		.sleb128 2
 3639 014a 00       		.byte	0
 3640 014b 04       		.uleb128 0x4
 3641 014c E0070000 		.4byte	.LASF29
 3642 0150 06       		.byte	0x6
 3643 0151 36       		.byte	0x36
 3644 0152 2C010000 		.4byte	0x12c
 3645 0156 09       		.uleb128 0x9
 3646 0157 6B010000 		.4byte	.LASF31
 3647 015b 01       		.byte	0x1
 3648 015c 06       		.byte	0x6
 3649 015d 3A       		.byte	0x3a
 3650 015e 87010000 		.4byte	0x187
 3651 0162 0A       		.uleb128 0xa
 3652 0163 2B010000 		.4byte	.LASF32
 3653 0167 00       		.sleb128 0
 3654 0168 0A       		.uleb128 0xa
 3655 0169 A6000000 		.4byte	.LASF33
 3656 016d 01       		.sleb128 1
 3657 016e 0A       		.uleb128 0xa
 3658 016f 28030000 		.4byte	.LASF34
 3659 0173 02       		.sleb128 2
 3660 0174 0A       		.uleb128 0xa
 3661 0175 6C000000 		.4byte	.LASF35
 3662 0179 03       		.sleb128 3
 3663 017a 0A       		.uleb128 0xa
 3664 017b 4C090000 		.4byte	.LASF36
 3665 017f 04       		.sleb128 4
 3666 0180 0A       		.uleb128 0xa
 3667 0181 9D050000 		.4byte	.LASF37
ARM GAS  /tmp/cclL2Tth.s 			page 66


 3668 0185 05       		.sleb128 5
 3669 0186 00       		.byte	0
 3670 0187 04       		.uleb128 0x4
 3671 0188 B2080000 		.4byte	.LASF38
 3672 018c 06       		.byte	0x6
 3673 018d 3A       		.byte	0x3a
 3674 018e 56010000 		.4byte	0x156
 3675 0192 04       		.uleb128 0x4
 3676 0193 E2080000 		.4byte	.LASF39
 3677 0197 06       		.byte	0x6
 3678 0198 3E       		.byte	0x3e
 3679 0199 9D010000 		.4byte	0x19d
 3680 019d 06       		.uleb128 0x6
 3681 019e 04       		.byte	0x4
 3682 019f A3010000 		.4byte	0x1a3
 3683 01a3 07       		.uleb128 0x7
 3684 01a4 A8010000 		.4byte	0x1a8
 3685 01a8 0B       		.uleb128 0xb
 3686 01a9 AA050000 		.4byte	.LASF67
 3687 01ad 1C       		.byte	0x1c
 3688 01ae 07       		.byte	0x7
 3689 01af 1D       		.byte	0x1d
 3690 01b0 51020000 		.4byte	0x251
 3691 01b4 0C       		.uleb128 0xc
 3692 01b5 0D070000 		.4byte	.LASF40
 3693 01b9 07       		.byte	0x7
 3694 01ba 20       		.byte	0x20
 3695 01bb FF000000 		.4byte	0xff
 3696 01bf 00       		.byte	0
 3697 01c0 0C       		.uleb128 0xc
 3698 01c1 67040000 		.4byte	.LASF41
 3699 01c5 07       		.byte	0x7
 3700 01c6 23       		.byte	0x23
 3701 01c7 FF000000 		.4byte	0xff
 3702 01cb 04       		.byte	0x4
 3703 01cc 0C       		.uleb128 0xc
 3704 01cd 61020000 		.4byte	.LASF42
 3705 01d1 07       		.byte	0x7
 3706 01d2 26       		.byte	0x26
 3707 01d3 A2000000 		.4byte	0xa2
 3708 01d7 08       		.byte	0x8
 3709 01d8 0C       		.uleb128 0xc
 3710 01d9 1E090000 		.4byte	.LASF43
 3711 01dd 07       		.byte	0x7
 3712 01de 27       		.byte	0x27
 3713 01df A2000000 		.4byte	0xa2
 3714 01e3 09       		.byte	0x9
 3715 01e4 0C       		.uleb128 0xc
 3716 01e5 A4080000 		.4byte	.LASF44
 3717 01e9 07       		.byte	0x7
 3718 01ea 2A       		.byte	0x2a
 3719 01eb A2000000 		.4byte	0xa2
 3720 01ef 0A       		.byte	0xa
 3721 01f0 0C       		.uleb128 0xc
 3722 01f1 5C080000 		.4byte	.LASF45
 3723 01f5 07       		.byte	0x7
 3724 01f6 2B       		.byte	0x2b
ARM GAS  /tmp/cclL2Tth.s 			page 67


 3725 01f7 A2000000 		.4byte	0xa2
 3726 01fb 0B       		.byte	0xb
 3727 01fc 0C       		.uleb128 0xc
 3728 01fd 36090000 		.4byte	.LASF46
 3729 0201 07       		.byte	0x7
 3730 0202 2E       		.byte	0x2e
 3731 0203 A2000000 		.4byte	0xa2
 3732 0207 0C       		.byte	0xc
 3733 0208 0C       		.uleb128 0xc
 3734 0209 41090000 		.4byte	.LASF47
 3735 020d 07       		.byte	0x7
 3736 020e 2F       		.byte	0x2f
 3737 020f A2000000 		.4byte	0xa2
 3738 0213 0D       		.byte	0xd
 3739 0214 0C       		.uleb128 0xc
 3740 0215 84030000 		.4byte	.LASF48
 3741 0219 07       		.byte	0x7
 3742 021a 32       		.byte	0x32
 3743 021b A2000000 		.4byte	0xa2
 3744 021f 0E       		.byte	0xe
 3745 0220 0C       		.uleb128 0xc
 3746 0221 DC080000 		.4byte	.LASF49
 3747 0225 07       		.byte	0x7
 3748 0226 35       		.byte	0x35
 3749 0227 A2000000 		.4byte	0xa2
 3750 022b 0F       		.byte	0xf
 3751 022c 0C       		.uleb128 0xc
 3752 022d 90030000 		.4byte	.LASF50
 3753 0231 07       		.byte	0x7
 3754 0232 38       		.byte	0x38
 3755 0233 AF040000 		.4byte	0x4af
 3756 0237 10       		.byte	0x10
 3757 0238 0C       		.uleb128 0xc
 3758 0239 18000000 		.4byte	.LASF51
 3759 023d 07       		.byte	0x7
 3760 023e 3C       		.byte	0x3c
 3761 023f 09050000 		.4byte	0x509
 3762 0243 14       		.byte	0x14
 3763 0244 0C       		.uleb128 0xc
 3764 0245 CF070000 		.4byte	.LASF52
 3765 0249 07       		.byte	0x7
 3766 024a 40       		.byte	0x40
 3767 024b 37050000 		.4byte	0x537
 3768 024f 18       		.byte	0x18
 3769 0250 00       		.byte	0
 3770 0251 09       		.uleb128 0x9
 3771 0252 C5040000 		.4byte	.LASF53
 3772 0256 02       		.byte	0x2
 3773 0257 06       		.byte	0x6
 3774 0258 44       		.byte	0x44
 3775 0259 87020000 		.4byte	0x287
 3776 025d 0A       		.uleb128 0xa
 3777 025e 83080000 		.4byte	.LASF54
 3778 0262 00       		.sleb128 0
 3779 0263 0A       		.uleb128 0xa
 3780 0264 5B070000 		.4byte	.LASF55
 3781 0268 DA00     		.sleb128 90
ARM GAS  /tmp/cclL2Tth.s 			page 68


 3782 026a 0A       		.uleb128 0xa
 3783 026b 25090000 		.4byte	.LASF56
 3784 026f B401     		.sleb128 180
 3785 0271 0A       		.uleb128 0xa
 3786 0272 60050000 		.4byte	.LASF57
 3787 0276 8E02     		.sleb128 270
 3788 0278 0A       		.uleb128 0xa
 3789 0279 95040000 		.4byte	.LASF58
 3790 027d E807     		.sleb128 1000
 3791 027f 0A       		.uleb128 0xa
 3792 0280 7E040000 		.4byte	.LASF59
 3793 0284 E907     		.sleb128 1001
 3794 0286 00       		.byte	0
 3795 0287 04       		.uleb128 0x4
 3796 0288 13040000 		.4byte	.LASF60
 3797 028c 06       		.byte	0x6
 3798 028d 44       		.byte	0x44
 3799 028e 51020000 		.4byte	0x251
 3800 0292 09       		.uleb128 0x9
 3801 0293 D9040000 		.4byte	.LASF61
 3802 0297 01       		.byte	0x1
 3803 0298 06       		.byte	0x6
 3804 0299 48       		.byte	0x48
 3805 029a B7020000 		.4byte	0x2b7
 3806 029e 0A       		.uleb128 0xa
 3807 029f 74020000 		.4byte	.LASF62
 3808 02a3 00       		.sleb128 0
 3809 02a4 0A       		.uleb128 0xa
 3810 02a5 0D000000 		.4byte	.LASF63
 3811 02a9 01       		.sleb128 1
 3812 02aa 0A       		.uleb128 0xa
 3813 02ab 51050000 		.4byte	.LASF64
 3814 02af 02       		.sleb128 2
 3815 02b0 0A       		.uleb128 0xa
 3816 02b1 38030000 		.4byte	.LASF65
 3817 02b5 03       		.sleb128 3
 3818 02b6 00       		.byte	0
 3819 02b7 04       		.uleb128 0x4
 3820 02b8 5F010000 		.4byte	.LASF66
 3821 02bc 06       		.byte	0x6
 3822 02bd 48       		.byte	0x48
 3823 02be 92020000 		.4byte	0x292
 3824 02c2 0B       		.uleb128 0xb
 3825 02c3 C8010000 		.4byte	.LASF68
 3826 02c7 0A       		.byte	0xa
 3827 02c8 06       		.byte	0x6
 3828 02c9 4F       		.byte	0x4f
 3829 02ca 17030000 		.4byte	0x317
 3830 02ce 0C       		.uleb128 0xc
 3831 02cf 18090000 		.4byte	.LASF69
 3832 02d3 06       		.byte	0x6
 3833 02d4 50       		.byte	0x50
 3834 02d5 21010000 		.4byte	0x121
 3835 02d9 00       		.byte	0
 3836 02da 0C       		.uleb128 0xc
 3837 02db 55000000 		.4byte	.LASF70
 3838 02df 06       		.byte	0x6
ARM GAS  /tmp/cclL2Tth.s 			page 69


 3839 02e0 51       		.byte	0x51
 3840 02e1 21010000 		.4byte	0x121
 3841 02e5 02       		.byte	0x2
 3842 02e6 0C       		.uleb128 0xc
 3843 02e7 76010000 		.4byte	.LASF71
 3844 02eb 06       		.byte	0x6
 3845 02ec 52       		.byte	0x52
 3846 02ed 87020000 		.4byte	0x287
 3847 02f1 04       		.byte	0x4
 3848 02f2 0C       		.uleb128 0xc
 3849 02f3 BB070000 		.4byte	.LASF72
 3850 02f7 06       		.byte	0x6
 3851 02f8 53       		.byte	0x53
 3852 02f9 B7020000 		.4byte	0x2b7
 3853 02fd 06       		.byte	0x6
 3854 02fe 0C       		.uleb128 0xc
 3855 02ff 43070000 		.4byte	.LASF73
 3856 0303 06       		.byte	0x6
 3857 0304 54       		.byte	0x54
 3858 0305 A2000000 		.4byte	0xa2
 3859 0309 07       		.byte	0x7
 3860 030a 0C       		.uleb128 0xc
 3861 030b F4080000 		.4byte	.LASF74
 3862 030f 06       		.byte	0x6
 3863 0310 55       		.byte	0x55
 3864 0311 A2000000 		.4byte	0xa2
 3865 0315 08       		.byte	0x8
 3866 0316 00       		.byte	0
 3867 0317 04       		.uleb128 0x4
 3868 0318 C8010000 		.4byte	.LASF68
 3869 031c 06       		.byte	0x6
 3870 031d 56       		.byte	0x56
 3871 031e C2020000 		.4byte	0x2c2
 3872 0322 04       		.uleb128 0x4
 3873 0323 B6030000 		.4byte	.LASF75
 3874 0327 06       		.byte	0x6
 3875 0328 5C       		.byte	0x5c
 3876 0329 2D030000 		.4byte	0x32d
 3877 032d 0B       		.uleb128 0xb
 3878 032e B6030000 		.4byte	.LASF75
 3879 0332 48       		.byte	0x48
 3880 0333 08       		.byte	0x8
 3881 0334 B9       		.byte	0xb9
 3882 0335 C4030000 		.4byte	0x3c4
 3883 0339 0D       		.uleb128 0xd
 3884 033a 6700     		.ascii	"g\000"
 3885 033c 08       		.byte	0x8
 3886 033d BB       		.byte	0xbb
 3887 033e 17030000 		.4byte	0x317
 3888 0342 00       		.byte	0
 3889 0343 0C       		.uleb128 0xc
 3890 0344 E3040000 		.4byte	.LASF76
 3891 0348 08       		.byte	0x8
 3892 0349 C1       		.byte	0xc1
 3893 034a F6000000 		.4byte	0xf6
 3894 034e 0C       		.byte	0xc
 3895 034f 0C       		.uleb128 0xc
ARM GAS  /tmp/cclL2Tth.s 			page 70


 3896 0350 36040000 		.4byte	.LASF77
 3897 0354 08       		.byte	0x8
 3898 0355 C2       		.byte	0xc2
 3899 0356 F6000000 		.4byte	0xf6
 3900 035a 10       		.byte	0x10
 3901 035b 0C       		.uleb128 0xc
 3902 035c 4D070000 		.4byte	.LASF78
 3903 0360 08       		.byte	0x8
 3904 0361 C4       		.byte	0xc4
 3905 0362 A2000000 		.4byte	0xa2
 3906 0366 14       		.byte	0x14
 3907 0367 0C       		.uleb128 0xc
 3908 0368 92080000 		.4byte	.LASF79
 3909 036c 08       		.byte	0x8
 3910 036d C5       		.byte	0xc5
 3911 036e A2000000 		.4byte	0xa2
 3912 0372 15       		.byte	0x15
 3913 0373 0C       		.uleb128 0xc
 3914 0374 DC080000 		.4byte	.LASF49
 3915 0378 08       		.byte	0x8
 3916 0379 C6       		.byte	0xc6
 3917 037a B8000000 		.4byte	0xb8
 3918 037e 16       		.byte	0x16
 3919 037f 0C       		.uleb128 0xc
 3920 0380 50040000 		.4byte	.LASF80
 3921 0384 08       		.byte	0x8
 3922 0385 D2       		.byte	0xd2
 3923 0386 21010000 		.4byte	0x121
 3924 038a 18       		.byte	0x18
 3925 038b 0C       		.uleb128 0xc
 3926 038c 27050000 		.4byte	.LASF81
 3927 0390 08       		.byte	0x8
 3928 0391 D2       		.byte	0xd2
 3929 0392 21010000 		.4byte	0x121
 3930 0396 1A       		.byte	0x1a
 3931 0397 0C       		.uleb128 0xc
 3932 0398 57040000 		.4byte	.LASF82
 3933 039c 08       		.byte	0x8
 3934 039d D3       		.byte	0xd3
 3935 039e 21010000 		.4byte	0x121
 3936 03a2 1C       		.byte	0x1c
 3937 03a3 0C       		.uleb128 0xc
 3938 03a4 2E050000 		.4byte	.LASF83
 3939 03a8 08       		.byte	0x8
 3940 03a9 D3       		.byte	0xd3
 3941 03aa 21010000 		.4byte	0x121
 3942 03ae 1E       		.byte	0x1e
 3943 03af 0D       		.uleb128 0xd
 3944 03b0 7000     		.ascii	"p\000"
 3945 03b2 08       		.byte	0x8
 3946 03b3 DE       		.byte	0xde
 3947 03b4 DB030000 		.4byte	0x3db
 3948 03b8 20       		.byte	0x20
 3949 03b9 0D       		.uleb128 0xd
 3950 03ba 7400     		.ascii	"t\000"
 3951 03bc 08       		.byte	0x8
 3952 03bd EA       		.byte	0xea
ARM GAS  /tmp/cclL2Tth.s 			page 71


 3953 03be 52040000 		.4byte	0x452
 3954 03c2 38       		.byte	0x38
 3955 03c3 00       		.byte	0
 3956 03c4 0E       		.uleb128 0xe
 3957 03c5 21040000 		.4byte	.LASF84
 3958 03c9 09       		.byte	0x9
 3959 03ca 7401     		.2byte	0x174
 3960 03cc B8000000 		.4byte	0xb8
 3961 03d0 04       		.uleb128 0x4
 3962 03d1 4F080000 		.4byte	.LASF85
 3963 03d5 06       		.byte	0x6
 3964 03d6 C1       		.byte	0xc1
 3965 03d7 C4030000 		.4byte	0x3c4
 3966 03db 0F       		.uleb128 0xf
 3967 03dc 18       		.byte	0x18
 3968 03dd 08       		.byte	0x8
 3969 03de D7       		.byte	0xd7
 3970 03df 52040000 		.4byte	0x452
 3971 03e3 0D       		.uleb128 0xd
 3972 03e4 7800     		.ascii	"x\000"
 3973 03e6 08       		.byte	0x8
 3974 03e7 D8       		.byte	0xd8
 3975 03e8 21010000 		.4byte	0x121
 3976 03ec 00       		.byte	0
 3977 03ed 0D       		.uleb128 0xd
 3978 03ee 7900     		.ascii	"y\000"
 3979 03f0 08       		.byte	0x8
 3980 03f1 D8       		.byte	0xd8
 3981 03f2 21010000 		.4byte	0x121
 3982 03f6 02       		.byte	0x2
 3983 03f7 0D       		.uleb128 0xd
 3984 03f8 637800   		.ascii	"cx\000"
 3985 03fb 08       		.byte	0x8
 3986 03fc D9       		.byte	0xd9
 3987 03fd 21010000 		.4byte	0x121
 3988 0401 04       		.byte	0x4
 3989 0402 0D       		.uleb128 0xd
 3990 0403 637900   		.ascii	"cy\000"
 3991 0406 08       		.byte	0x8
 3992 0407 D9       		.byte	0xd9
 3993 0408 21010000 		.4byte	0x121
 3994 040c 06       		.byte	0x6
 3995 040d 0D       		.uleb128 0xd
 3996 040e 783100   		.ascii	"x1\000"
 3997 0411 08       		.byte	0x8
 3998 0412 DA       		.byte	0xda
 3999 0413 21010000 		.4byte	0x121
 4000 0417 08       		.byte	0x8
 4001 0418 0D       		.uleb128 0xd
 4002 0419 793100   		.ascii	"y1\000"
 4003 041c 08       		.byte	0x8
 4004 041d DA       		.byte	0xda
 4005 041e 21010000 		.4byte	0x121
 4006 0422 0A       		.byte	0xa
 4007 0423 0D       		.uleb128 0xd
 4008 0424 783200   		.ascii	"x2\000"
 4009 0427 08       		.byte	0x8
ARM GAS  /tmp/cclL2Tth.s 			page 72


 4010 0428 DB       		.byte	0xdb
 4011 0429 21010000 		.4byte	0x121
 4012 042d 0C       		.byte	0xc
 4013 042e 0D       		.uleb128 0xd
 4014 042f 793200   		.ascii	"y2\000"
 4015 0432 08       		.byte	0x8
 4016 0433 DB       		.byte	0xdb
 4017 0434 21010000 		.4byte	0x121
 4018 0438 0E       		.byte	0xe
 4019 0439 0C       		.uleb128 0xc
 4020 043a 6B070000 		.4byte	.LASF86
 4021 043e 08       		.byte	0x8
 4022 043f DC       		.byte	0xdc
 4023 0440 C4030000 		.4byte	0x3c4
 4024 0444 10       		.byte	0x10
 4025 0445 0D       		.uleb128 0xd
 4026 0446 70747200 		.ascii	"ptr\000"
 4027 044a 08       		.byte	0x8
 4028 044b DD       		.byte	0xdd
 4029 044c F6000000 		.4byte	0xf6
 4030 0450 14       		.byte	0x14
 4031 0451 00       		.byte	0
 4032 0452 0F       		.uleb128 0xf
 4033 0453 10       		.byte	0x10
 4034 0454 08       		.byte	0x8
 4035 0455 E4       		.byte	0xe4
 4036 0456 AF040000 		.4byte	0x4af
 4037 045a 0C       		.uleb128 0xc
 4038 045b 6A080000 		.4byte	.LASF87
 4039 045f 08       		.byte	0x8
 4040 0460 E5       		.byte	0xe5
 4041 0461 92010000 		.4byte	0x192
 4042 0465 00       		.byte	0
 4043 0466 0C       		.uleb128 0xc
 4044 0467 6B070000 		.4byte	.LASF86
 4045 046b 08       		.byte	0x8
 4046 046c E6       		.byte	0xe6
 4047 046d C4030000 		.4byte	0x3c4
 4048 0471 04       		.byte	0x4
 4049 0472 0C       		.uleb128 0xc
 4050 0473 BF030000 		.4byte	.LASF88
 4051 0477 08       		.byte	0x8
 4052 0478 E7       		.byte	0xe7
 4053 0479 C4030000 		.4byte	0x3c4
 4054 047d 06       		.byte	0x6
 4055 047e 0C       		.uleb128 0xc
 4056 047f 50040000 		.4byte	.LASF80
 4057 0483 08       		.byte	0x8
 4058 0484 E8       		.byte	0xe8
 4059 0485 21010000 		.4byte	0x121
 4060 0489 08       		.byte	0x8
 4061 048a 0C       		.uleb128 0xc
 4062 048b 27050000 		.4byte	.LASF81
 4063 048f 08       		.byte	0x8
 4064 0490 E8       		.byte	0xe8
 4065 0491 21010000 		.4byte	0x121
 4066 0495 0A       		.byte	0xa
ARM GAS  /tmp/cclL2Tth.s 			page 73


 4067 0496 0C       		.uleb128 0xc
 4068 0497 57040000 		.4byte	.LASF82
 4069 049b 08       		.byte	0x8
 4070 049c E9       		.byte	0xe9
 4071 049d 21010000 		.4byte	0x121
 4072 04a1 0C       		.byte	0xc
 4073 04a2 0C       		.uleb128 0xc
 4074 04a3 2E050000 		.4byte	.LASF83
 4075 04a7 08       		.byte	0x8
 4076 04a8 E9       		.byte	0xe9
 4077 04a9 21010000 		.4byte	0x121
 4078 04ad 0E       		.byte	0xe
 4079 04ae 00       		.byte	0
 4080 04af 04       		.uleb128 0x4
 4081 04b0 01010000 		.4byte	.LASF89
 4082 04b4 0A       		.byte	0xa
 4083 04b5 16       		.byte	0x16
 4084 04b6 0A010000 		.4byte	0x10a
 4085 04ba 04       		.uleb128 0x4
 4086 04bb 06000000 		.4byte	.LASF90
 4087 04bf 0A       		.byte	0xa
 4088 04c0 1D       		.byte	0x1d
 4089 04c1 FF000000 		.4byte	0xff
 4090 04c5 04       		.uleb128 0x4
 4091 04c6 EA070000 		.4byte	.LASF91
 4092 04ca 07       		.byte	0x7
 4093 04cb 19       		.byte	0x19
 4094 04cc D0040000 		.4byte	0x4d0
 4095 04d0 06       		.uleb128 0x6
 4096 04d1 04       		.byte	0x4
 4097 04d2 D6040000 		.4byte	0x4d6
 4098 04d6 10       		.uleb128 0x10
 4099 04d7 F5040000 		.4byte	0x4f5
 4100 04db 11       		.uleb128 0x11
 4101 04dc AD000000 		.4byte	0xad
 4102 04e0 11       		.uleb128 0x11
 4103 04e1 AD000000 		.4byte	0xad
 4104 04e5 11       		.uleb128 0x11
 4105 04e6 A2000000 		.4byte	0xa2
 4106 04ea 11       		.uleb128 0x11
 4107 04eb A2000000 		.4byte	0xa2
 4108 04ef 11       		.uleb128 0x11
 4109 04f0 F6000000 		.4byte	0xf6
 4110 04f4 00       		.byte	0
 4111 04f5 12       		.uleb128 0x12
 4112 04f6 A2000000 		.4byte	0xa2
 4113 04fa 09050000 		.4byte	0x509
 4114 04fe 11       		.uleb128 0x11
 4115 04ff 9D010000 		.4byte	0x19d
 4116 0503 11       		.uleb128 0x11
 4117 0504 AF040000 		.4byte	0x4af
 4118 0508 00       		.byte	0
 4119 0509 06       		.uleb128 0x6
 4120 050a 04       		.byte	0x4
 4121 050b F5040000 		.4byte	0x4f5
 4122 050f 12       		.uleb128 0x12
 4123 0510 A2000000 		.4byte	0xa2
ARM GAS  /tmp/cclL2Tth.s 			page 74


 4124 0514 37050000 		.4byte	0x537
 4125 0518 11       		.uleb128 0x11
 4126 0519 9D010000 		.4byte	0x19d
 4127 051d 11       		.uleb128 0x11
 4128 051e AD000000 		.4byte	0xad
 4129 0522 11       		.uleb128 0x11
 4130 0523 AD000000 		.4byte	0xad
 4131 0527 11       		.uleb128 0x11
 4132 0528 AF040000 		.4byte	0x4af
 4133 052c 11       		.uleb128 0x11
 4134 052d C5040000 		.4byte	0x4c5
 4135 0531 11       		.uleb128 0x11
 4136 0532 F6000000 		.4byte	0xf6
 4137 0536 00       		.byte	0
 4138 0537 06       		.uleb128 0x6
 4139 0538 04       		.byte	0x4
 4140 0539 0F050000 		.4byte	0x50f
 4141 053d 09       		.uleb128 0x9
 4142 053e 80050000 		.4byte	.LASF92
 4143 0542 01       		.byte	0x1
 4144 0543 0B       		.byte	0xb
 4145 0544 12       		.byte	0x12
 4146 0545 5C050000 		.4byte	0x55c
 4147 0549 0A       		.uleb128 0xa
 4148 054a B7040000 		.4byte	.LASF93
 4149 054e 00       		.sleb128 0
 4150 054f 0A       		.uleb128 0xa
 4151 0550 06050000 		.4byte	.LASF94
 4152 0554 01       		.sleb128 1
 4153 0555 0A       		.uleb128 0xa
 4154 0556 C7030000 		.4byte	.LASF95
 4155 055a 02       		.sleb128 2
 4156 055b 00       		.byte	0
 4157 055c 04       		.uleb128 0x4
 4158 055d A9020000 		.4byte	.LASF96
 4159 0561 0B       		.byte	0xb
 4160 0562 20       		.byte	0x20
 4161 0563 67050000 		.4byte	0x567
 4162 0567 06       		.uleb128 0x6
 4163 0568 04       		.byte	0x4
 4164 0569 6D050000 		.4byte	0x56d
 4165 056d 12       		.uleb128 0x12
 4166 056e A2000000 		.4byte	0xa2
 4167 0572 8B050000 		.4byte	0x58b
 4168 0576 11       		.uleb128 0x11
 4169 0577 AD000000 		.4byte	0xad
 4170 057b 11       		.uleb128 0x11
 4171 057c AD000000 		.4byte	0xad
 4172 0580 11       		.uleb128 0x11
 4173 0581 AF040000 		.4byte	0x4af
 4174 0585 11       		.uleb128 0x11
 4175 0586 F6000000 		.4byte	0xf6
 4176 058a 00       		.byte	0
 4177 058b 13       		.uleb128 0x13
 4178 058c AC070000 		.4byte	.LASF97
 4179 0590 01       		.byte	0x1
 4180 0591 B3       		.byte	0xb3
ARM GAS  /tmp/cclL2Tth.s 			page 75


 4181 0592 03       		.byte	0x3
 4182 0593 A1050000 		.4byte	0x5a1
 4183 0597 14       		.uleb128 0x14
 4184 0598 6700     		.ascii	"g\000"
 4185 059a 01       		.byte	0x1
 4186 059b B3       		.byte	0xb3
 4187 059c A1050000 		.4byte	0x5a1
 4188 05a0 00       		.byte	0
 4189 05a1 06       		.uleb128 0x6
 4190 05a2 04       		.byte	0x4
 4191 05a3 22030000 		.4byte	0x322
 4192 05a7 15       		.uleb128 0x15
 4193 05a8 88010000 		.4byte	.LASF98
 4194 05ac 01       		.byte	0x1
 4195 05ad 0B01     		.2byte	0x10b
 4196 05af 01       		.byte	0x1
 4197 05b0 BF050000 		.4byte	0x5bf
 4198 05b4 16       		.uleb128 0x16
 4199 05b5 6700     		.ascii	"g\000"
 4200 05b7 01       		.byte	0x1
 4201 05b8 0B01     		.2byte	0x10b
 4202 05ba A1050000 		.4byte	0x5a1
 4203 05be 00       		.byte	0
 4204 05bf 15       		.uleb128 0x15
 4205 05c0 29040000 		.4byte	.LASF99
 4206 05c4 01       		.byte	0x1
 4207 05c5 E90A     		.2byte	0xae9
 4208 05c7 01       		.byte	0x1
 4209 05c8 05060000 		.4byte	0x605
 4210 05cc 16       		.uleb128 0x16
 4211 05cd 7800     		.ascii	"x\000"
 4212 05cf 01       		.byte	0x1
 4213 05d0 E90A     		.2byte	0xae9
 4214 05d2 AD000000 		.4byte	0xad
 4215 05d6 16       		.uleb128 0x16
 4216 05d7 7900     		.ascii	"y\000"
 4217 05d9 01       		.byte	0x1
 4218 05da E90A     		.2byte	0xae9
 4219 05dc AD000000 		.4byte	0xad
 4220 05e0 17       		.uleb128 0x17
 4221 05e1 00000000 		.4byte	.LASF100
 4222 05e5 01       		.byte	0x1
 4223 05e6 E90A     		.2byte	0xae9
 4224 05e8 A2000000 		.4byte	0xa2
 4225 05ec 17       		.uleb128 0x17
 4226 05ed 36010000 		.4byte	.LASF101
 4227 05f1 01       		.byte	0x1
 4228 05f2 E90A     		.2byte	0xae9
 4229 05f4 A2000000 		.4byte	0xa2
 4230 05f8 17       		.uleb128 0x17
 4231 05f9 82010000 		.4byte	.LASF102
 4232 05fd 01       		.byte	0x1
 4233 05fe E90A     		.2byte	0xae9
 4234 0600 F6000000 		.4byte	0xf6
 4235 0604 00       		.byte	0
 4236 0605 15       		.uleb128 0x15
 4237 0606 E9080000 		.4byte	.LASF103
ARM GAS  /tmp/cclL2Tth.s 			page 76


 4238 060a 01       		.byte	0x1
 4239 060b 6301     		.2byte	0x163
 4240 060d 01       		.byte	0x1
 4241 060e 1D060000 		.4byte	0x61d
 4242 0612 16       		.uleb128 0x16
 4243 0613 6700     		.ascii	"g\000"
 4244 0615 01       		.byte	0x1
 4245 0616 6301     		.2byte	0x163
 4246 0618 A1050000 		.4byte	0x5a1
 4247 061c 00       		.byte	0
 4248 061d 13       		.uleb128 0x13
 4249 061e B0010000 		.4byte	.LASF104
 4250 0622 01       		.byte	0x1
 4251 0623 C6       		.byte	0xc6
 4252 0624 03       		.byte	0x3
 4253 0625 33060000 		.4byte	0x633
 4254 0629 14       		.uleb128 0x14
 4255 062a 6700     		.ascii	"g\000"
 4256 062c 01       		.byte	0x1
 4257 062d C6       		.byte	0xc6
 4258 062e A1050000 		.4byte	0x5a1
 4259 0632 00       		.byte	0
 4260 0633 18       		.uleb128 0x18
 4261 0634 AB040000 		.4byte	.LASF150
 4262 0638 01       		.byte	0x1
 4263 0639 A103     		.2byte	0x3a1
 4264 063b 01       		.byte	0x1
 4265 063c 57060000 		.4byte	0x657
 4266 0640 16       		.uleb128 0x16
 4267 0641 6700     		.ascii	"g\000"
 4268 0643 01       		.byte	0x1
 4269 0644 A103     		.2byte	0x3a1
 4270 0646 A1050000 		.4byte	0x5a1
 4271 064a 17       		.uleb128 0x17
 4272 064b 6B070000 		.4byte	.LASF86
 4273 064f 01       		.byte	0x1
 4274 0650 A103     		.2byte	0x3a1
 4275 0652 C4030000 		.4byte	0x3c4
 4276 0656 00       		.byte	0
 4277 0657 19       		.uleb128 0x19
 4278 0658 05020000 		.4byte	.LASF105
 4279 065c 01       		.byte	0x1
 4280 065d 140B     		.2byte	0xb14
 4281 065f A2000000 		.4byte	0xa2
 4282 0663 00000000 		.4byte	.LFB140
 4283 0667 24000000 		.4byte	.LFE140-.LFB140
 4284 066b 01       		.uleb128 0x1
 4285 066c 9C       		.byte	0x9c
 4286 066d D2060000 		.4byte	0x6d2
 4287 0671 1A       		.uleb128 0x1a
 4288 0672 7800     		.ascii	"x\000"
 4289 0674 01       		.byte	0x1
 4290 0675 140B     		.2byte	0xb14
 4291 0677 AD000000 		.4byte	0xad
 4292 067b 00000000 		.4byte	.LLST0
 4293 067f 1A       		.uleb128 0x1a
 4294 0680 7900     		.ascii	"y\000"
ARM GAS  /tmp/cclL2Tth.s 			page 77


 4295 0682 01       		.byte	0x1
 4296 0683 140B     		.2byte	0xb14
 4297 0685 AD000000 		.4byte	0xad
 4298 0689 21000000 		.4byte	.LLST1
 4299 068d 1A       		.uleb128 0x1a
 4300 068e 636800   		.ascii	"ch\000"
 4301 0691 01       		.byte	0x1
 4302 0692 140B     		.2byte	0xb14
 4303 0694 AF040000 		.4byte	0x4af
 4304 0698 42000000 		.4byte	.LLST2
 4305 069c 1B       		.uleb128 0x1b
 4306 069d 82010000 		.4byte	.LASF102
 4307 06a1 01       		.byte	0x1
 4308 06a2 140B     		.2byte	0xb14
 4309 06a4 F6000000 		.4byte	0xf6
 4310 06a8 63000000 		.4byte	.LLST3
 4311 06ac 1C       		.uleb128 0x1c
 4312 06ad 1A000000 		.4byte	.LVL5
 4313 06b1 931B0000 		.4byte	0x1b93
 4314 06b5 1D       		.uleb128 0x1d
 4315 06b6 01       		.uleb128 0x1
 4316 06b7 52       		.byte	0x52
 4317 06b8 02       		.uleb128 0x2
 4318 06b9 75       		.byte	0x75
 4319 06ba 00       		.sleb128 0
 4320 06bb 1D       		.uleb128 0x1d
 4321 06bc 01       		.uleb128 0x1
 4322 06bd 51       		.byte	0x51
 4323 06be 02       		.uleb128 0x2
 4324 06bf 76       		.byte	0x76
 4325 06c0 00       		.sleb128 0
 4326 06c1 1D       		.uleb128 0x1d
 4327 06c2 02       		.uleb128 0x2
 4328 06c3 7D       		.byte	0x7d
 4329 06c4 04       		.sleb128 4
 4330 06c5 03       		.uleb128 0x3
 4331 06c6 F3       		.byte	0xf3
 4332 06c7 01       		.uleb128 0x1
 4333 06c8 53       		.byte	0x53
 4334 06c9 1D       		.uleb128 0x1d
 4335 06ca 02       		.uleb128 0x2
 4336 06cb 7D       		.byte	0x7d
 4337 06cc 00       		.sleb128 0
 4338 06cd 02       		.uleb128 0x2
 4339 06ce 74       		.byte	0x74
 4340 06cf 00       		.sleb128 0
 4341 06d0 00       		.byte	0
 4342 06d1 00       		.byte	0
 4343 06d2 19       		.uleb128 0x19
 4344 06d3 05040000 		.4byte	.LASF106
 4345 06d7 01       		.byte	0x1
 4346 06d8 1B0B     		.2byte	0xb1b
 4347 06da A2000000 		.4byte	0xa2
 4348 06de 00000000 		.4byte	.LFB141
 4349 06e2 24000000 		.4byte	.LFE141-.LFB141
 4350 06e6 01       		.uleb128 0x1
 4351 06e7 9C       		.byte	0x9c
ARM GAS  /tmp/cclL2Tth.s 			page 78


 4352 06e8 4D070000 		.4byte	0x74d
 4353 06ec 1A       		.uleb128 0x1a
 4354 06ed 7800     		.ascii	"x\000"
 4355 06ef 01       		.byte	0x1
 4356 06f0 1B0B     		.2byte	0xb1b
 4357 06f2 AD000000 		.4byte	0xad
 4358 06f6 90000000 		.4byte	.LLST4
 4359 06fa 1A       		.uleb128 0x1a
 4360 06fb 7900     		.ascii	"y\000"
 4361 06fd 01       		.byte	0x1
 4362 06fe 1B0B     		.2byte	0xb1b
 4363 0700 AD000000 		.4byte	0xad
 4364 0704 B1000000 		.4byte	.LLST5
 4365 0708 1A       		.uleb128 0x1a
 4366 0709 636800   		.ascii	"ch\000"
 4367 070c 01       		.byte	0x1
 4368 070d 1B0B     		.2byte	0xb1b
 4369 070f AF040000 		.4byte	0x4af
 4370 0713 D2000000 		.4byte	.LLST6
 4371 0717 1B       		.uleb128 0x1b
 4372 0718 82010000 		.4byte	.LASF102
 4373 071c 01       		.byte	0x1
 4374 071d 1B0B     		.2byte	0xb1b
 4375 071f F6000000 		.4byte	0xf6
 4376 0723 F3000000 		.4byte	.LLST7
 4377 0727 1C       		.uleb128 0x1c
 4378 0728 1A000000 		.4byte	.LVL11
 4379 072c 931B0000 		.4byte	0x1b93
 4380 0730 1D       		.uleb128 0x1d
 4381 0731 01       		.uleb128 0x1
 4382 0732 52       		.byte	0x52
 4383 0733 02       		.uleb128 0x2
 4384 0734 75       		.byte	0x75
 4385 0735 00       		.sleb128 0
 4386 0736 1D       		.uleb128 0x1d
 4387 0737 01       		.uleb128 0x1
 4388 0738 51       		.byte	0x51
 4389 0739 02       		.uleb128 0x2
 4390 073a 76       		.byte	0x76
 4391 073b 00       		.sleb128 0
 4392 073c 1D       		.uleb128 0x1d
 4393 073d 02       		.uleb128 0x2
 4394 073e 7D       		.byte	0x7d
 4395 073f 04       		.sleb128 4
 4396 0740 03       		.uleb128 0x3
 4397 0741 F3       		.byte	0xf3
 4398 0742 01       		.uleb128 0x1
 4399 0743 53       		.byte	0x53
 4400 0744 1D       		.uleb128 0x1d
 4401 0745 02       		.uleb128 0x2
 4402 0746 7D       		.byte	0x7d
 4403 0747 00       		.sleb128 0
 4404 0748 02       		.uleb128 0x2
 4405 0749 74       		.byte	0x74
 4406 074a 00       		.sleb128 0
 4407 074b 00       		.byte	0
 4408 074c 00       		.byte	0
ARM GAS  /tmp/cclL2Tth.s 			page 79


 4409 074d 13       		.uleb128 0x13
 4410 074e 0E090000 		.4byte	.LASF107
 4411 0752 01       		.byte	0x1
 4412 0753 84       		.byte	0x84
 4413 0754 03       		.byte	0x3
 4414 0755 63070000 		.4byte	0x763
 4415 0759 14       		.uleb128 0x14
 4416 075a 6700     		.ascii	"g\000"
 4417 075c 01       		.byte	0x1
 4418 075d 84       		.byte	0x84
 4419 075e A1050000 		.4byte	0x5a1
 4420 0762 00       		.byte	0
 4421 0763 13       		.uleb128 0x13
 4422 0764 5C000000 		.4byte	.LASF108
 4423 0768 01       		.byte	0x1
 4424 0769 60       		.byte	0x60
 4425 076a 03       		.byte	0x3
 4426 076b 8B070000 		.4byte	0x78b
 4427 076f 14       		.uleb128 0x14
 4428 0770 6700     		.ascii	"g\000"
 4429 0772 01       		.byte	0x1
 4430 0773 60       		.byte	0x60
 4431 0774 A1050000 		.4byte	0x5a1
 4432 0778 1E       		.uleb128 0x1e
 4433 0779 7800     		.ascii	"x\000"
 4434 077b 01       		.byte	0x1
 4435 077c 61       		.byte	0x61
 4436 077d 21010000 		.4byte	0x121
 4437 0781 1E       		.uleb128 0x1e
 4438 0782 7900     		.ascii	"y\000"
 4439 0784 01       		.byte	0x1
 4440 0785 61       		.byte	0x61
 4441 0786 21010000 		.4byte	0x121
 4442 078a 00       		.byte	0
 4443 078b 1F       		.uleb128 0x1f
 4444 078c A7050000 		.4byte	0x5a7
 4445 0790 00000000 		.4byte	.LFB122
 4446 0794 A8000000 		.4byte	.LFE122-.LFB122
 4447 0798 01       		.uleb128 0x1
 4448 0799 9C       		.byte	0x9c
 4449 079a 54080000 		.4byte	0x854
 4450 079e 20       		.uleb128 0x20
 4451 079f B4050000 		.4byte	0x5b4
 4452 07a3 20010000 		.4byte	.LLST8
 4453 07a7 21       		.uleb128 0x21
 4454 07a8 00000000 		.4byte	.Ldebug_ranges0+0
 4455 07ac 20       		.uleb128 0x20
 4456 07ad B4050000 		.4byte	0x5b4
 4457 07b1 7B010000 		.4byte	.LLST9
 4458 07b5 22       		.uleb128 0x22
 4459 07b6 4D070000 		.4byte	0x74d
 4460 07ba 70000000 		.4byte	.LBB22
 4461 07be 20000000 		.4byte	.Ldebug_ranges0+0x20
 4462 07c2 01       		.byte	0x1
 4463 07c3 2301     		.2byte	0x123
 4464 07c5 41080000 		.4byte	0x841
 4465 07c9 20       		.uleb128 0x20
ARM GAS  /tmp/cclL2Tth.s 			page 80


 4466 07ca 59070000 		.4byte	0x759
 4467 07ce CB010000 		.4byte	.LLST10
 4468 07d2 23       		.uleb128 0x23
 4469 07d3 63070000 		.4byte	0x763
 4470 07d7 7A000000 		.4byte	.LBB24
 4471 07db 1E000000 		.4byte	.LBE24-.LBB24
 4472 07df 01       		.byte	0x1
 4473 07e0 98       		.byte	0x98
 4474 07e1 1B080000 		.4byte	0x81b
 4475 07e5 20       		.uleb128 0x20
 4476 07e6 6F070000 		.4byte	0x76f
 4477 07ea F7010000 		.4byte	.LLST11
 4478 07ee 24       		.uleb128 0x24
 4479 07ef 7A000000 		.4byte	.LBB25
 4480 07f3 1E000000 		.4byte	.LBE25-.LBB25
 4481 07f7 25       		.uleb128 0x25
 4482 07f8 78070000 		.4byte	0x778
 4483 07fc 0A020000 		.4byte	.LLST12
 4484 0800 25       		.uleb128 0x25
 4485 0801 81070000 		.4byte	0x781
 4486 0805 1D020000 		.4byte	.LLST13
 4487 0809 1C       		.uleb128 0x1c
 4488 080a 8C000000 		.4byte	.LVL20
 4489 080e C11B0000 		.4byte	0x1bc1
 4490 0812 1D       		.uleb128 0x1d
 4491 0813 01       		.uleb128 0x1
 4492 0814 50       		.byte	0x50
 4493 0815 02       		.uleb128 0x2
 4494 0816 74       		.byte	0x74
 4495 0817 00       		.sleb128 0
 4496 0818 00       		.byte	0
 4497 0819 00       		.byte	0
 4498 081a 00       		.byte	0
 4499 081b 26       		.uleb128 0x26
 4500 081c 9E000000 		.4byte	.LVL22
 4501 0820 D31B0000 		.4byte	0x1bd3
 4502 0824 2F080000 		.4byte	0x82f
 4503 0828 1D       		.uleb128 0x1d
 4504 0829 01       		.uleb128 0x1
 4505 082a 50       		.byte	0x50
 4506 082b 02       		.uleb128 0x2
 4507 082c 74       		.byte	0x74
 4508 082d 00       		.sleb128 0
 4509 082e 00       		.byte	0
 4510 082f 27       		.uleb128 0x27
 4511 0830 A8000000 		.4byte	.LVL24
 4512 0834 E51B0000 		.4byte	0x1be5
 4513 0838 1D       		.uleb128 0x1d
 4514 0839 01       		.uleb128 0x1
 4515 083a 50       		.byte	0x50
 4516 083b 03       		.uleb128 0x3
 4517 083c F3       		.byte	0xf3
 4518 083d 01       		.uleb128 0x1
 4519 083e 50       		.byte	0x50
 4520 083f 00       		.byte	0
 4521 0840 00       		.byte	0
 4522 0841 27       		.uleb128 0x27
ARM GAS  /tmp/cclL2Tth.s 			page 81


 4523 0842 64000000 		.4byte	.LVL16
 4524 0846 F71B0000 		.4byte	0x1bf7
 4525 084a 1D       		.uleb128 0x1d
 4526 084b 01       		.uleb128 0x1
 4527 084c 50       		.byte	0x50
 4528 084d 03       		.uleb128 0x3
 4529 084e F3       		.byte	0xf3
 4530 084f 01       		.uleb128 0x1
 4531 0850 50       		.byte	0x50
 4532 0851 00       		.byte	0
 4533 0852 00       		.byte	0
 4534 0853 00       		.byte	0
 4535 0854 1F       		.uleb128 0x1f
 4536 0855 BF050000 		.4byte	0x5bf
 4537 0859 00000000 		.4byte	.LFB139
 4538 085d 62000000 		.4byte	.LFE139-.LFB139
 4539 0861 01       		.uleb128 0x1
 4540 0862 9C       		.byte	0x9c
 4541 0863 D9080000 		.4byte	0x8d9
 4542 0867 20       		.uleb128 0x20
 4543 0868 CC050000 		.4byte	0x5cc
 4544 086c 30020000 		.4byte	.LLST14
 4545 0870 20       		.uleb128 0x20
 4546 0871 D6050000 		.4byte	0x5d6
 4547 0875 51020000 		.4byte	.LLST15
 4548 0879 20       		.uleb128 0x20
 4549 087a E0050000 		.4byte	0x5e0
 4550 087e 7D020000 		.4byte	.LLST16
 4551 0882 20       		.uleb128 0x20
 4552 0883 EC050000 		.4byte	0x5ec
 4553 0887 9E020000 		.4byte	.LLST17
 4554 088b 20       		.uleb128 0x20
 4555 088c F8050000 		.4byte	0x5f8
 4556 0890 CA020000 		.4byte	.LLST18
 4557 0894 21       		.uleb128 0x21
 4558 0895 38000000 		.4byte	.Ldebug_ranges0+0x38
 4559 0899 20       		.uleb128 0x20
 4560 089a F8050000 		.4byte	0x5f8
 4561 089e 02030000 		.4byte	.LLST19
 4562 08a2 20       		.uleb128 0x20
 4563 08a3 EC050000 		.4byte	0x5ec
 4564 08a7 21030000 		.4byte	.LLST20
 4565 08ab 20       		.uleb128 0x20
 4566 08ac E0050000 		.4byte	0x5e0
 4567 08b0 34030000 		.4byte	.LLST21
 4568 08b4 20       		.uleb128 0x20
 4569 08b5 D6050000 		.4byte	0x5d6
 4570 08b9 5D030000 		.4byte	.LLST22
 4571 08bd 20       		.uleb128 0x20
 4572 08be CC050000 		.4byte	0x5cc
 4573 08c2 70030000 		.4byte	.LLST23
 4574 08c6 27       		.uleb128 0x27
 4575 08c7 5E000000 		.4byte	.LVL36
 4576 08cb A7050000 		.4byte	0x5a7
 4577 08cf 1D       		.uleb128 0x1d
 4578 08d0 01       		.uleb128 0x1
 4579 08d1 50       		.byte	0x50
ARM GAS  /tmp/cclL2Tth.s 			page 82


 4580 08d2 03       		.uleb128 0x3
 4581 08d3 7D       		.byte	0x7d
 4582 08d4 00       		.sleb128 0
 4583 08d5 06       		.byte	0x6
 4584 08d6 00       		.byte	0
 4585 08d7 00       		.byte	0
 4586 08d8 00       		.byte	0
 4587 08d9 1F       		.uleb128 0x1f
 4588 08da 05060000 		.4byte	0x605
 4589 08de 00000000 		.4byte	.LFB123
 4590 08e2 A8000000 		.4byte	.LFE123-.LFB123
 4591 08e6 01       		.uleb128 0x1
 4592 08e7 9C       		.byte	0x9c
 4593 08e8 A2090000 		.4byte	0x9a2
 4594 08ec 20       		.uleb128 0x20
 4595 08ed 12060000 		.4byte	0x612
 4596 08f1 9B030000 		.4byte	.LLST24
 4597 08f5 21       		.uleb128 0x21
 4598 08f6 50000000 		.4byte	.Ldebug_ranges0+0x50
 4599 08fa 20       		.uleb128 0x20
 4600 08fb 12060000 		.4byte	0x612
 4601 08ff F6030000 		.4byte	.LLST25
 4602 0903 22       		.uleb128 0x22
 4603 0904 4D070000 		.4byte	0x74d
 4604 0908 70000000 		.4byte	.LBB46
 4605 090c 70000000 		.4byte	.Ldebug_ranges0+0x70
 4606 0910 01       		.byte	0x1
 4607 0911 7B01     		.2byte	0x17b
 4608 0913 8F090000 		.4byte	0x98f
 4609 0917 20       		.uleb128 0x20
 4610 0918 59070000 		.4byte	0x759
 4611 091c 46040000 		.4byte	.LLST26
 4612 0920 23       		.uleb128 0x23
 4613 0921 63070000 		.4byte	0x763
 4614 0925 7A000000 		.4byte	.LBB48
 4615 0929 1E000000 		.4byte	.LBE48-.LBB48
 4616 092d 01       		.byte	0x1
 4617 092e 98       		.byte	0x98
 4618 092f 69090000 		.4byte	0x969
 4619 0933 20       		.uleb128 0x20
 4620 0934 6F070000 		.4byte	0x76f
 4621 0938 72040000 		.4byte	.LLST27
 4622 093c 24       		.uleb128 0x24
 4623 093d 7A000000 		.4byte	.LBB49
 4624 0941 1E000000 		.4byte	.LBE49-.LBB49
 4625 0945 25       		.uleb128 0x25
 4626 0946 78070000 		.4byte	0x778
 4627 094a 85040000 		.4byte	.LLST28
 4628 094e 25       		.uleb128 0x25
 4629 094f 81070000 		.4byte	0x781
 4630 0953 98040000 		.4byte	.LLST29
 4631 0957 1C       		.uleb128 0x1c
 4632 0958 8C000000 		.4byte	.LVL46
 4633 095c C11B0000 		.4byte	0x1bc1
 4634 0960 1D       		.uleb128 0x1d
 4635 0961 01       		.uleb128 0x1
 4636 0962 50       		.byte	0x50
ARM GAS  /tmp/cclL2Tth.s 			page 83


 4637 0963 02       		.uleb128 0x2
 4638 0964 74       		.byte	0x74
 4639 0965 00       		.sleb128 0
 4640 0966 00       		.byte	0
 4641 0967 00       		.byte	0
 4642 0968 00       		.byte	0
 4643 0969 26       		.uleb128 0x26
 4644 096a 9E000000 		.4byte	.LVL48
 4645 096e D31B0000 		.4byte	0x1bd3
 4646 0972 7D090000 		.4byte	0x97d
 4647 0976 1D       		.uleb128 0x1d
 4648 0977 01       		.uleb128 0x1
 4649 0978 50       		.byte	0x50
 4650 0979 02       		.uleb128 0x2
 4651 097a 74       		.byte	0x74
 4652 097b 00       		.sleb128 0
 4653 097c 00       		.byte	0
 4654 097d 27       		.uleb128 0x27
 4655 097e A8000000 		.4byte	.LVL50
 4656 0982 E51B0000 		.4byte	0x1be5
 4657 0986 1D       		.uleb128 0x1d
 4658 0987 01       		.uleb128 0x1
 4659 0988 50       		.byte	0x50
 4660 0989 03       		.uleb128 0x3
 4661 098a F3       		.byte	0xf3
 4662 098b 01       		.uleb128 0x1
 4663 098c 50       		.byte	0x50
 4664 098d 00       		.byte	0
 4665 098e 00       		.byte	0
 4666 098f 27       		.uleb128 0x27
 4667 0990 64000000 		.4byte	.LVL42
 4668 0994 F71B0000 		.4byte	0x1bf7
 4669 0998 1D       		.uleb128 0x1d
 4670 0999 01       		.uleb128 0x1
 4671 099a 50       		.byte	0x50
 4672 099b 03       		.uleb128 0x3
 4673 099c F3       		.byte	0xf3
 4674 099d 01       		.uleb128 0x1
 4675 099e 50       		.byte	0x50
 4676 099f 00       		.byte	0
 4677 09a0 00       		.byte	0
 4678 09a1 00       		.byte	0
 4679 09a2 28       		.uleb128 0x28
 4680 09a3 72090000 		.4byte	.LASF166
 4681 09a7 01       		.byte	0x1
 4682 09a8 7602     		.2byte	0x276
 4683 09aa 00000000 		.4byte	.LFB127
 4684 09ae 02000000 		.4byte	.LFE127-.LFB127
 4685 09b2 01       		.uleb128 0x1
 4686 09b3 9C       		.byte	0x9c
 4687 09b4 29       		.uleb128 0x29
 4688 09b5 61030000 		.4byte	.LASF138
 4689 09b9 01       		.byte	0x1
 4690 09ba 7B02     		.2byte	0x27b
 4691 09bc A1050000 		.4byte	0x5a1
 4692 09c0 00000000 		.4byte	.LFB128
 4693 09c4 10000000 		.4byte	.LFE128-.LFB128
ARM GAS  /tmp/cclL2Tth.s 			page 84


 4694 09c8 01       		.uleb128 0x1
 4695 09c9 9C       		.byte	0x9c
 4696 09ca DF090000 		.4byte	0x9df
 4697 09ce 1B       		.uleb128 0x1b
 4698 09cf 44020000 		.4byte	.LASF109
 4699 09d3 01       		.byte	0x1
 4700 09d4 7B02     		.2byte	0x27b
 4701 09d6 2C000000 		.4byte	0x2c
 4702 09da AB040000 		.4byte	.LLST30
 4703 09de 00       		.byte	0
 4704 09df 2A       		.uleb128 0x2a
 4705 09e0 F1000000 		.4byte	.LASF110
 4706 09e4 01       		.byte	0x1
 4707 09e5 8102     		.2byte	0x281
 4708 09e7 00000000 		.4byte	.LFB129
 4709 09eb 0C000000 		.4byte	.LFE129-.LFB129
 4710 09ef 01       		.uleb128 0x1
 4711 09f0 9C       		.byte	0x9c
 4712 09f1 020A0000 		.4byte	0xa02
 4713 09f5 2B       		.uleb128 0x2b
 4714 09f6 6700     		.ascii	"g\000"
 4715 09f8 01       		.byte	0x1
 4716 09f9 8102     		.2byte	0x281
 4717 09fb A1050000 		.4byte	0x5a1
 4718 09ff 01       		.uleb128 0x1
 4719 0a00 50       		.byte	0x50
 4720 0a01 00       		.byte	0
 4721 0a02 2A       		.uleb128 0x2a
 4722 0a03 F2010000 		.4byte	.LASF111
 4723 0a07 01       		.byte	0x1
 4724 0a08 8502     		.2byte	0x285
 4725 0a0a 00000000 		.4byte	.LFB130
 4726 0a0e 02000000 		.4byte	.LFE130-.LFB130
 4727 0a12 01       		.uleb128 0x1
 4728 0a13 9C       		.byte	0x9c
 4729 0a14 250A0000 		.4byte	0xa25
 4730 0a18 2B       		.uleb128 0x2b
 4731 0a19 6700     		.ascii	"g\000"
 4732 0a1b 01       		.byte	0x1
 4733 0a1c 8502     		.2byte	0x285
 4734 0a1e A1050000 		.4byte	0x5a1
 4735 0a22 01       		.uleb128 0x1
 4736 0a23 50       		.byte	0x50
 4737 0a24 00       		.byte	0
 4738 0a25 2A       		.uleb128 0x2a
 4739 0a26 E8040000 		.4byte	.LASF112
 4740 0a2a 01       		.byte	0x1
 4741 0a2b 8B03     		.2byte	0x38b
 4742 0a2d 00000000 		.4byte	.LFB131
 4743 0a31 80000000 		.4byte	.LFE131-.LFB131
 4744 0a35 01       		.uleb128 0x1
 4745 0a36 9C       		.byte	0x9c
 4746 0a37 390B0000 		.4byte	0xb39
 4747 0a3b 1A       		.uleb128 0x1a
 4748 0a3c 6700     		.ascii	"g\000"
 4749 0a3e 01       		.byte	0x1
 4750 0a3f 8B03     		.2byte	0x38b
ARM GAS  /tmp/cclL2Tth.s 			page 85


 4751 0a41 A1050000 		.4byte	0x5a1
 4752 0a45 CC040000 		.4byte	.LLST31
 4753 0a49 1A       		.uleb128 0x1a
 4754 0a4a 7800     		.ascii	"x\000"
 4755 0a4c 01       		.byte	0x1
 4756 0a4d 8B03     		.2byte	0x38b
 4757 0a4f 21010000 		.4byte	0x121
 4758 0a53 00050000 		.4byte	.LLST32
 4759 0a57 1A       		.uleb128 0x1a
 4760 0a58 7900     		.ascii	"y\000"
 4761 0a5a 01       		.byte	0x1
 4762 0a5b 8B03     		.2byte	0x38b
 4763 0a5d 21010000 		.4byte	0x121
 4764 0a61 3A050000 		.4byte	.LLST33
 4765 0a65 1B       		.uleb128 0x1b
 4766 0a66 6B070000 		.4byte	.LASF86
 4767 0a6a 01       		.byte	0x1
 4768 0a6b 8B03     		.2byte	0x38b
 4769 0a6d C4030000 		.4byte	0x3c4
 4770 0a71 74050000 		.4byte	.LLST34
 4771 0a75 22       		.uleb128 0x22
 4772 0a76 8B050000 		.4byte	0x58b
 4773 0a7a 02000000 		.4byte	.LBB64
 4774 0a7e 88000000 		.4byte	.Ldebug_ranges0+0x88
 4775 0a82 01       		.byte	0x1
 4776 0a83 9003     		.2byte	0x390
 4777 0a85 280B0000 		.4byte	0xb28
 4778 0a89 20       		.uleb128 0x20
 4779 0a8a 97050000 		.4byte	0x597
 4780 0a8e BB050000 		.4byte	.LLST35
 4781 0a92 21       		.uleb128 0x21
 4782 0a93 B0000000 		.4byte	.Ldebug_ranges0+0xb0
 4783 0a97 20       		.uleb128 0x20
 4784 0a98 97050000 		.4byte	0x597
 4785 0a9c EF050000 		.4byte	.LLST36
 4786 0aa0 2C       		.uleb128 0x2c
 4787 0aa1 4D070000 		.4byte	0x74d
 4788 0aa5 44000000 		.4byte	.LBB68
 4789 0aa9 3C000000 		.4byte	.LBE68-.LBB68
 4790 0aad 01       		.byte	0x1
 4791 0aae BB       		.byte	0xbb
 4792 0aaf 20       		.uleb128 0x20
 4793 0ab0 59070000 		.4byte	0x759
 4794 0ab4 18060000 		.4byte	.LLST37
 4795 0ab8 23       		.uleb128 0x23
 4796 0ab9 63070000 		.4byte	0x763
 4797 0abd 4E000000 		.4byte	.LBB70
 4798 0ac1 24000000 		.4byte	.LBE70-.LBB70
 4799 0ac5 01       		.byte	0x1
 4800 0ac6 98       		.byte	0x98
 4801 0ac7 010B0000 		.4byte	0xb01
 4802 0acb 20       		.uleb128 0x20
 4803 0acc 6F070000 		.4byte	0x76f
 4804 0ad0 36060000 		.4byte	.LLST38
 4805 0ad4 24       		.uleb128 0x24
 4806 0ad5 4E000000 		.4byte	.LBB71
 4807 0ad9 24000000 		.4byte	.LBE71-.LBB71
ARM GAS  /tmp/cclL2Tth.s 			page 86


 4808 0add 25       		.uleb128 0x25
 4809 0ade 78070000 		.4byte	0x778
 4810 0ae2 54060000 		.4byte	.LLST39
 4811 0ae6 25       		.uleb128 0x25
 4812 0ae7 81070000 		.4byte	0x781
 4813 0aeb 67060000 		.4byte	.LLST40
 4814 0aef 1C       		.uleb128 0x1c
 4815 0af0 62000000 		.4byte	.LVL63
 4816 0af4 C11B0000 		.4byte	0x1bc1
 4817 0af8 1D       		.uleb128 0x1d
 4818 0af9 01       		.uleb128 0x1
 4819 0afa 50       		.byte	0x50
 4820 0afb 02       		.uleb128 0x2
 4821 0afc 74       		.byte	0x74
 4822 0afd 00       		.sleb128 0
 4823 0afe 00       		.byte	0
 4824 0aff 00       		.byte	0
 4825 0b00 00       		.byte	0
 4826 0b01 26       		.uleb128 0x26
 4827 0b02 78000000 		.4byte	.LVL65
 4828 0b06 D31B0000 		.4byte	0x1bd3
 4829 0b0a 150B0000 		.4byte	0xb15
 4830 0b0e 1D       		.uleb128 0x1d
 4831 0b0f 01       		.uleb128 0x1
 4832 0b10 50       		.byte	0x50
 4833 0b11 02       		.uleb128 0x2
 4834 0b12 74       		.byte	0x74
 4835 0b13 00       		.sleb128 0
 4836 0b14 00       		.byte	0
 4837 0b15 1C       		.uleb128 0x1c
 4838 0b16 7E000000 		.4byte	.LVL66
 4839 0b1a E51B0000 		.4byte	0x1be5
 4840 0b1e 1D       		.uleb128 0x1d
 4841 0b1f 01       		.uleb128 0x1
 4842 0b20 50       		.byte	0x50
 4843 0b21 02       		.uleb128 0x2
 4844 0b22 74       		.byte	0x74
 4845 0b23 00       		.sleb128 0
 4846 0b24 00       		.byte	0
 4847 0b25 00       		.byte	0
 4848 0b26 00       		.byte	0
 4849 0b27 00       		.byte	0
 4850 0b28 1C       		.uleb128 0x1c
 4851 0b29 38000000 		.4byte	.LVL60
 4852 0b2d 091C0000 		.4byte	0x1c09
 4853 0b31 1D       		.uleb128 0x1d
 4854 0b32 01       		.uleb128 0x1
 4855 0b33 50       		.byte	0x50
 4856 0b34 02       		.uleb128 0x2
 4857 0b35 74       		.byte	0x74
 4858 0b36 00       		.sleb128 0
 4859 0b37 00       		.byte	0
 4860 0b38 00       		.byte	0
 4861 0b39 15       		.uleb128 0x15
 4862 0b3a D5010000 		.4byte	.LASF113
 4863 0b3e 01       		.byte	0x1
 4864 0b3f B801     		.2byte	0x1b8
ARM GAS  /tmp/cclL2Tth.s 			page 87


 4865 0b41 01       		.byte	0x1
 4866 0b42 9F0B0000 		.4byte	0xb9f
 4867 0b46 16       		.uleb128 0x16
 4868 0b47 6700     		.ascii	"g\000"
 4869 0b49 01       		.byte	0x1
 4870 0b4a B801     		.2byte	0x1b8
 4871 0b4c A1050000 		.4byte	0x5a1
 4872 0b50 2D       		.uleb128 0x2d
 4873 0b51 647900   		.ascii	"dy\000"
 4874 0b54 01       		.byte	0x1
 4875 0b55 B901     		.2byte	0x1b9
 4876 0b57 AD000000 		.4byte	0xad
 4877 0b5b 2D       		.uleb128 0x2d
 4878 0b5c 647800   		.ascii	"dx\000"
 4879 0b5f 01       		.byte	0x1
 4880 0b60 B901     		.2byte	0x1b9
 4881 0b62 AD000000 		.4byte	0xad
 4882 0b66 2E       		.uleb128 0x2e
 4883 0b67 71050000 		.4byte	.LASF114
 4884 0b6b 01       		.byte	0x1
 4885 0b6c BA01     		.2byte	0x1ba
 4886 0b6e AD000000 		.4byte	0xad
 4887 0b72 2E       		.uleb128 0x2e
 4888 0b73 DF000000 		.4byte	.LASF115
 4889 0b77 01       		.byte	0x1
 4890 0b78 BA01     		.2byte	0x1ba
 4891 0b7a AD000000 		.4byte	0xad
 4892 0b7e 2D       		.uleb128 0x2d
 4893 0b7f 5000     		.ascii	"P\000"
 4894 0b81 01       		.byte	0x1
 4895 0b82 BB01     		.2byte	0x1bb
 4896 0b84 AD000000 		.4byte	0xad
 4897 0b88 2E       		.uleb128 0x2e
 4898 0b89 C2000000 		.4byte	.LASF116
 4899 0b8d 01       		.byte	0x1
 4900 0b8e BB01     		.2byte	0x1bb
 4901 0b90 AD000000 		.4byte	0xad
 4902 0b94 2D       		.uleb128 0x2d
 4903 0b95 6900     		.ascii	"i\000"
 4904 0b97 01       		.byte	0x1
 4905 0b98 BB01     		.2byte	0x1bb
 4906 0b9a AD000000 		.4byte	0xad
 4907 0b9e 00       		.byte	0
 4908 0b9f 2A       		.uleb128 0x2a
 4909 0ba0 52030000 		.4byte	.LASF117
 4910 0ba4 01       		.byte	0x1
 4911 0ba5 9503     		.2byte	0x395
 4912 0ba7 00000000 		.4byte	.LFB132
 4913 0bab 10020000 		.4byte	.LFE132-.LFB132
 4914 0baf 01       		.uleb128 0x1
 4915 0bb0 9C       		.byte	0x9c
 4916 0bb1 FB0D0000 		.4byte	0xdfb
 4917 0bb5 1A       		.uleb128 0x1a
 4918 0bb6 6700     		.ascii	"g\000"
 4919 0bb8 01       		.byte	0x1
 4920 0bb9 9503     		.2byte	0x395
 4921 0bbb A1050000 		.4byte	0x5a1
ARM GAS  /tmp/cclL2Tth.s 			page 88


 4922 0bbf 7A060000 		.4byte	.LLST41
 4923 0bc3 1A       		.uleb128 0x1a
 4924 0bc4 783000   		.ascii	"x0\000"
 4925 0bc7 01       		.byte	0x1
 4926 0bc8 9503     		.2byte	0x395
 4927 0bca 21010000 		.4byte	0x121
 4928 0bce DA060000 		.4byte	.LLST42
 4929 0bd2 1A       		.uleb128 0x1a
 4930 0bd3 793000   		.ascii	"y0\000"
 4931 0bd6 01       		.byte	0x1
 4932 0bd7 9503     		.2byte	0x395
 4933 0bd9 21010000 		.4byte	0x121
 4934 0bdd 46070000 		.4byte	.LLST43
 4935 0be1 1A       		.uleb128 0x1a
 4936 0be2 783100   		.ascii	"x1\000"
 4937 0be5 01       		.byte	0x1
 4938 0be6 9503     		.2byte	0x395
 4939 0be8 21010000 		.4byte	0x121
 4940 0bec CA070000 		.4byte	.LLST44
 4941 0bf0 1A       		.uleb128 0x1a
 4942 0bf1 793100   		.ascii	"y1\000"
 4943 0bf4 01       		.byte	0x1
 4944 0bf5 9503     		.2byte	0x395
 4945 0bf7 21010000 		.4byte	0x121
 4946 0bfb 4E080000 		.4byte	.LLST45
 4947 0bff 1B       		.uleb128 0x1b
 4948 0c00 6B070000 		.4byte	.LASF86
 4949 0c04 01       		.byte	0x1
 4950 0c05 9503     		.2byte	0x395
 4951 0c07 C4030000 		.4byte	0x3c4
 4952 0c0b 6E080000 		.4byte	.LLST46
 4953 0c0f 22       		.uleb128 0x22
 4954 0c10 390B0000 		.4byte	0xb39
 4955 0c14 12000000 		.4byte	.LBB98
 4956 0c18 C8000000 		.4byte	.Ldebug_ranges0+0xc8
 4957 0c1c 01       		.byte	0x1
 4958 0c1d 9C03     		.2byte	0x39c
 4959 0c1f EA0D0000 		.4byte	0xdea
 4960 0c23 20       		.uleb128 0x20
 4961 0c24 460B0000 		.4byte	0xb46
 4962 0c28 8E080000 		.4byte	.LLST47
 4963 0c2c 21       		.uleb128 0x21
 4964 0c2d C8000000 		.4byte	.Ldebug_ranges0+0xc8
 4965 0c31 25       		.uleb128 0x25
 4966 0c32 500B0000 		.4byte	0xb50
 4967 0c36 EE080000 		.4byte	.LLST48
 4968 0c3a 25       		.uleb128 0x25
 4969 0c3b 5B0B0000 		.4byte	0xb5b
 4970 0c3f 0C090000 		.4byte	.LLST49
 4971 0c43 25       		.uleb128 0x25
 4972 0c44 660B0000 		.4byte	0xb66
 4973 0c48 2A090000 		.4byte	.LLST50
 4974 0c4c 25       		.uleb128 0x25
 4975 0c4d 720B0000 		.4byte	0xb72
 4976 0c51 61090000 		.4byte	.LLST51
 4977 0c55 25       		.uleb128 0x25
 4978 0c56 7E0B0000 		.4byte	0xb7e
ARM GAS  /tmp/cclL2Tth.s 			page 89


 4979 0c5a 98090000 		.4byte	.LLST52
 4980 0c5e 25       		.uleb128 0x25
 4981 0c5f 880B0000 		.4byte	0xb88
 4982 0c63 F8090000 		.4byte	.LLST53
 4983 0c67 25       		.uleb128 0x25
 4984 0c68 940B0000 		.4byte	0xb94
 4985 0c6c 2C0A0000 		.4byte	.LLST54
 4986 0c70 22       		.uleb128 0x22
 4987 0c71 8B050000 		.4byte	0x58b
 4988 0c75 84000000 		.4byte	.LBB100
 4989 0c79 E8000000 		.4byte	.Ldebug_ranges0+0xe8
 4990 0c7d 01       		.byte	0x1
 4991 0c7e E601     		.2byte	0x1e6
 4992 0c80 230D0000 		.4byte	0xd23
 4993 0c84 20       		.uleb128 0x20
 4994 0c85 97050000 		.4byte	0x597
 4995 0c89 AC0A0000 		.4byte	.LLST55
 4996 0c8d 21       		.uleb128 0x21
 4997 0c8e 00010000 		.4byte	.Ldebug_ranges0+0x100
 4998 0c92 20       		.uleb128 0x20
 4999 0c93 97050000 		.4byte	0x597
 5000 0c97 CA0A0000 		.4byte	.LLST56
 5001 0c9b 2C       		.uleb128 0x2c
 5002 0c9c 4D070000 		.4byte	0x74d
 5003 0ca0 BC010000 		.4byte	.LBB104
 5004 0ca4 48000000 		.4byte	.LBE104-.LBB104
 5005 0ca8 01       		.byte	0x1
 5006 0ca9 BB       		.byte	0xbb
 5007 0caa 20       		.uleb128 0x20
 5008 0cab 59070000 		.4byte	0x759
 5009 0caf E80A0000 		.4byte	.LLST57
 5010 0cb3 23       		.uleb128 0x23
 5011 0cb4 63070000 		.4byte	0x763
 5012 0cb8 C6010000 		.4byte	.LBB106
 5013 0cbc 2A000000 		.4byte	.LBE106-.LBB106
 5014 0cc0 01       		.byte	0x1
 5015 0cc1 98       		.byte	0x98
 5016 0cc2 FC0C0000 		.4byte	0xcfc
 5017 0cc6 20       		.uleb128 0x20
 5018 0cc7 6F070000 		.4byte	0x76f
 5019 0ccb FB0A0000 		.4byte	.LLST58
 5020 0ccf 24       		.uleb128 0x24
 5021 0cd0 C6010000 		.4byte	.LBB107
 5022 0cd4 2A000000 		.4byte	.LBE107-.LBB107
 5023 0cd8 25       		.uleb128 0x25
 5024 0cd9 78070000 		.4byte	0x778
 5025 0cdd 0E0B0000 		.4byte	.LLST59
 5026 0ce1 25       		.uleb128 0x25
 5027 0ce2 81070000 		.4byte	0x781
 5028 0ce6 210B0000 		.4byte	.LLST60
 5029 0cea 1C       		.uleb128 0x1c
 5030 0ceb E0010000 		.4byte	.LVL120
 5031 0cef C11B0000 		.4byte	0x1bc1
 5032 0cf3 1D       		.uleb128 0x1d
 5033 0cf4 01       		.uleb128 0x1
 5034 0cf5 50       		.byte	0x50
 5035 0cf6 02       		.uleb128 0x2
ARM GAS  /tmp/cclL2Tth.s 			page 90


 5036 0cf7 74       		.byte	0x74
 5037 0cf8 00       		.sleb128 0
 5038 0cf9 00       		.byte	0
 5039 0cfa 00       		.byte	0
 5040 0cfb 00       		.byte	0
 5041 0cfc 26       		.uleb128 0x26
 5042 0cfd F8010000 		.4byte	.LVL122
 5043 0d01 D31B0000 		.4byte	0x1bd3
 5044 0d05 100D0000 		.4byte	0xd10
 5045 0d09 1D       		.uleb128 0x1d
 5046 0d0a 01       		.uleb128 0x1
 5047 0d0b 50       		.byte	0x50
 5048 0d0c 02       		.uleb128 0x2
 5049 0d0d 74       		.byte	0x74
 5050 0d0e 00       		.sleb128 0
 5051 0d0f 00       		.byte	0
 5052 0d10 1C       		.uleb128 0x1c
 5053 0d11 FE010000 		.4byte	.LVL123
 5054 0d15 E51B0000 		.4byte	0x1be5
 5055 0d19 1D       		.uleb128 0x1d
 5056 0d1a 01       		.uleb128 0x1
 5057 0d1b 50       		.byte	0x50
 5058 0d1c 02       		.uleb128 0x2
 5059 0d1d 74       		.byte	0x74
 5060 0d1e 00       		.sleb128 0
 5061 0d1f 00       		.byte	0
 5062 0d20 00       		.byte	0
 5063 0d21 00       		.byte	0
 5064 0d22 00       		.byte	0
 5065 0d23 22       		.uleb128 0x22
 5066 0d24 8B050000 		.4byte	0x58b
 5067 0d28 3A010000 		.4byte	.LBB111
 5068 0d2c 18010000 		.4byte	.Ldebug_ranges0+0x118
 5069 0d30 01       		.byte	0x1
 5070 0d31 F601     		.2byte	0x1f6
 5071 0d33 D60D0000 		.4byte	0xdd6
 5072 0d37 20       		.uleb128 0x20
 5073 0d38 97050000 		.4byte	0x597
 5074 0d3c 340B0000 		.4byte	.LLST61
 5075 0d40 21       		.uleb128 0x21
 5076 0d41 30010000 		.4byte	.Ldebug_ranges0+0x130
 5077 0d45 20       		.uleb128 0x20
 5078 0d46 97050000 		.4byte	0x597
 5079 0d4a 470B0000 		.4byte	.LLST62
 5080 0d4e 2C       		.uleb128 0x2c
 5081 0d4f 4D070000 		.4byte	0x74d
 5082 0d53 70010000 		.4byte	.LBB115
 5083 0d57 4C000000 		.4byte	.LBE115-.LBB115
 5084 0d5b 01       		.byte	0x1
 5085 0d5c BB       		.byte	0xbb
 5086 0d5d 20       		.uleb128 0x20
 5087 0d5e 59070000 		.4byte	0x759
 5088 0d62 650B0000 		.4byte	.LLST63
 5089 0d66 23       		.uleb128 0x23
 5090 0d67 63070000 		.4byte	0x763
 5091 0d6b 7A010000 		.4byte	.LBB117
 5092 0d6f 28000000 		.4byte	.LBE117-.LBB117
ARM GAS  /tmp/cclL2Tth.s 			page 91


 5093 0d73 01       		.byte	0x1
 5094 0d74 98       		.byte	0x98
 5095 0d75 AF0D0000 		.4byte	0xdaf
 5096 0d79 20       		.uleb128 0x20
 5097 0d7a 6F070000 		.4byte	0x76f
 5098 0d7e 780B0000 		.4byte	.LLST64
 5099 0d82 24       		.uleb128 0x24
 5100 0d83 7A010000 		.4byte	.LBB118
 5101 0d87 28000000 		.4byte	.LBE118-.LBB118
 5102 0d8b 25       		.uleb128 0x25
 5103 0d8c 78070000 		.4byte	0x778
 5104 0d90 8B0B0000 		.4byte	.LLST65
 5105 0d94 25       		.uleb128 0x25
 5106 0d95 81070000 		.4byte	0x781
 5107 0d99 9E0B0000 		.4byte	.LLST66
 5108 0d9d 1C       		.uleb128 0x1c
 5109 0d9e 90010000 		.4byte	.LVL114
 5110 0da2 C11B0000 		.4byte	0x1bc1
 5111 0da6 1D       		.uleb128 0x1d
 5112 0da7 01       		.uleb128 0x1
 5113 0da8 50       		.byte	0x50
 5114 0da9 02       		.uleb128 0x2
 5115 0daa 74       		.byte	0x74
 5116 0dab 00       		.sleb128 0
 5117 0dac 00       		.byte	0
 5118 0dad 00       		.byte	0
 5119 0dae 00       		.byte	0
 5120 0daf 26       		.uleb128 0x26
 5121 0db0 AC010000 		.4byte	.LVL116
 5122 0db4 D31B0000 		.4byte	0x1bd3
 5123 0db8 C30D0000 		.4byte	0xdc3
 5124 0dbc 1D       		.uleb128 0x1d
 5125 0dbd 01       		.uleb128 0x1
 5126 0dbe 50       		.byte	0x50
 5127 0dbf 02       		.uleb128 0x2
 5128 0dc0 74       		.byte	0x74
 5129 0dc1 00       		.sleb128 0
 5130 0dc2 00       		.byte	0
 5131 0dc3 1C       		.uleb128 0x1c
 5132 0dc4 B2010000 		.4byte	.LVL117
 5133 0dc8 E51B0000 		.4byte	0x1be5
 5134 0dcc 1D       		.uleb128 0x1d
 5135 0dcd 01       		.uleb128 0x1
 5136 0dce 50       		.byte	0x50
 5137 0dcf 02       		.uleb128 0x2
 5138 0dd0 74       		.byte	0x74
 5139 0dd1 00       		.sleb128 0
 5140 0dd2 00       		.byte	0
 5141 0dd3 00       		.byte	0
 5142 0dd4 00       		.byte	0
 5143 0dd5 00       		.byte	0
 5144 0dd6 2F       		.uleb128 0x2f
 5145 0dd7 08020000 		.4byte	.LVL125
 5146 0ddb A7050000 		.4byte	0x5a7
 5147 0ddf 2F       		.uleb128 0x2f
 5148 0de0 0E020000 		.4byte	.LVL127
 5149 0de4 05060000 		.4byte	0x605
ARM GAS  /tmp/cclL2Tth.s 			page 92


 5150 0de8 00       		.byte	0
 5151 0de9 00       		.byte	0
 5152 0dea 1C       		.uleb128 0x1c
 5153 0deb CC000000 		.4byte	.LVL91
 5154 0def 091C0000 		.4byte	0x1c09
 5155 0df3 1D       		.uleb128 0x1d
 5156 0df4 01       		.uleb128 0x1
 5157 0df5 50       		.byte	0x50
 5158 0df6 02       		.uleb128 0x2
 5159 0df7 74       		.byte	0x74
 5160 0df8 00       		.sleb128 0
 5161 0df9 00       		.byte	0
 5162 0dfa 00       		.byte	0
 5163 0dfb 1F       		.uleb128 0x1f
 5164 0dfc 33060000 		.4byte	0x633
 5165 0e00 00000000 		.4byte	.LFB133
 5166 0e04 18000000 		.4byte	.LFE133-.LFB133
 5167 0e08 01       		.uleb128 0x1
 5168 0e09 9C       		.byte	0x9c
 5169 0e0a 320E0000 		.4byte	0xe32
 5170 0e0e 20       		.uleb128 0x20
 5171 0e0f 40060000 		.4byte	0x640
 5172 0e13 B10B0000 		.4byte	.LLST67
 5173 0e17 20       		.uleb128 0x20
 5174 0e18 4A060000 		.4byte	0x64a
 5175 0e1c D20B0000 		.4byte	.LLST68
 5176 0e20 27       		.uleb128 0x27
 5177 0e21 18000000 		.4byte	.LVL129
 5178 0e25 F71B0000 		.4byte	0x1bf7
 5179 0e29 1D       		.uleb128 0x1d
 5180 0e2a 01       		.uleb128 0x1
 5181 0e2b 50       		.byte	0x50
 5182 0e2c 03       		.uleb128 0x3
 5183 0e2d F3       		.byte	0xf3
 5184 0e2e 01       		.uleb128 0x1
 5185 0e2f 50       		.byte	0x50
 5186 0e30 00       		.byte	0
 5187 0e31 00       		.byte	0
 5188 0e32 2A       		.uleb128 0x2a
 5189 0e33 3C010000 		.4byte	.LASF118
 5190 0e37 01       		.byte	0x1
 5191 0e38 F403     		.2byte	0x3f4
 5192 0e3a 00000000 		.4byte	.LFB134
 5193 0e3e 82000000 		.4byte	.LFE134-.LFB134
 5194 0e42 01       		.uleb128 0x1
 5195 0e43 9C       		.byte	0x9c
 5196 0e44 CC0E0000 		.4byte	0xecc
 5197 0e48 1A       		.uleb128 0x1a
 5198 0e49 6700     		.ascii	"g\000"
 5199 0e4b 01       		.byte	0x1
 5200 0e4c F403     		.2byte	0x3f4
 5201 0e4e A1050000 		.4byte	0x5a1
 5202 0e52 F30B0000 		.4byte	.LLST69
 5203 0e56 1A       		.uleb128 0x1a
 5204 0e57 7800     		.ascii	"x\000"
 5205 0e59 01       		.byte	0x1
 5206 0e5a F403     		.2byte	0x3f4
ARM GAS  /tmp/cclL2Tth.s 			page 93


 5207 0e5c 21010000 		.4byte	0x121
 5208 0e60 1F0C0000 		.4byte	.LLST70
 5209 0e64 1A       		.uleb128 0x1a
 5210 0e65 7900     		.ascii	"y\000"
 5211 0e67 01       		.byte	0x1
 5212 0e68 F403     		.2byte	0x3f4
 5213 0e6a 21010000 		.4byte	0x121
 5214 0e6e 590C0000 		.4byte	.LLST71
 5215 0e72 1A       		.uleb128 0x1a
 5216 0e73 637800   		.ascii	"cx\000"
 5217 0e76 01       		.byte	0x1
 5218 0e77 F403     		.2byte	0x3f4
 5219 0e79 21010000 		.4byte	0x121
 5220 0e7d 930C0000 		.4byte	.LLST72
 5221 0e81 1A       		.uleb128 0x1a
 5222 0e82 637900   		.ascii	"cy\000"
 5223 0e85 01       		.byte	0x1
 5224 0e86 F403     		.2byte	0x3f4
 5225 0e88 21010000 		.4byte	0x121
 5226 0e8c D90C0000 		.4byte	.LLST73
 5227 0e90 1B       		.uleb128 0x1b
 5228 0e91 6B070000 		.4byte	.LASF86
 5229 0e95 01       		.byte	0x1
 5230 0e96 F403     		.2byte	0x3f4
 5231 0e98 C4030000 		.4byte	0x3c4
 5232 0e9c 110D0000 		.4byte	.LLST74
 5233 0ea0 30       		.uleb128 0x30
 5234 0ea1 1D060000 		.4byte	0x61d
 5235 0ea5 6E000000 		.4byte	.LBB128
 5236 0ea9 04000000 		.4byte	.LBE128-.LBB128
 5237 0ead 01       		.byte	0x1
 5238 0eae FC03     		.2byte	0x3fc
 5239 0eb0 20       		.uleb128 0x20
 5240 0eb1 29060000 		.4byte	0x629
 5241 0eb5 490D0000 		.4byte	.LLST75
 5242 0eb9 27       		.uleb128 0x27
 5243 0eba 72000000 		.4byte	.LVL137
 5244 0ebe F71B0000 		.4byte	0x1bf7
 5245 0ec2 1D       		.uleb128 0x1d
 5246 0ec3 01       		.uleb128 0x1
 5247 0ec4 50       		.byte	0x50
 5248 0ec5 03       		.uleb128 0x3
 5249 0ec6 F3       		.byte	0xf3
 5250 0ec7 01       		.uleb128 0x1
 5251 0ec8 50       		.byte	0x50
 5252 0ec9 00       		.byte	0
 5253 0eca 00       		.byte	0
 5254 0ecb 00       		.byte	0
 5255 0ecc 2A       		.uleb128 0x2a
 5256 0ecd 9A020000 		.4byte	.LASF119
 5257 0ed1 01       		.byte	0x1
 5258 0ed2 0204     		.2byte	0x402
 5259 0ed4 00000000 		.4byte	.LFB135
 5260 0ed8 BA000000 		.4byte	.LFE135-.LFB135
 5261 0edc 01       		.uleb128 0x1
 5262 0edd 9C       		.byte	0x9c
 5263 0ede 7C0F0000 		.4byte	0xf7c
ARM GAS  /tmp/cclL2Tth.s 			page 94


 5264 0ee2 1A       		.uleb128 0x1a
 5265 0ee3 6700     		.ascii	"g\000"
 5266 0ee5 01       		.byte	0x1
 5267 0ee6 0204     		.2byte	0x402
 5268 0ee8 A1050000 		.4byte	0x5a1
 5269 0eec 6A0D0000 		.4byte	.LLST76
 5270 0ef0 1A       		.uleb128 0x1a
 5271 0ef1 7800     		.ascii	"x\000"
 5272 0ef3 01       		.byte	0x1
 5273 0ef4 0204     		.2byte	0x402
 5274 0ef6 21010000 		.4byte	0x121
 5275 0efa 960D0000 		.4byte	.LLST77
 5276 0efe 1A       		.uleb128 0x1a
 5277 0eff 7900     		.ascii	"y\000"
 5278 0f01 01       		.byte	0x1
 5279 0f02 0204     		.2byte	0x402
 5280 0f04 21010000 		.4byte	0x121
 5281 0f08 D90D0000 		.4byte	.LLST78
 5282 0f0c 1A       		.uleb128 0x1a
 5283 0f0d 637800   		.ascii	"cx\000"
 5284 0f10 01       		.byte	0x1
 5285 0f11 0204     		.2byte	0x402
 5286 0f13 21010000 		.4byte	0x121
 5287 0f17 0E0E0000 		.4byte	.LLST79
 5288 0f1b 1A       		.uleb128 0x1a
 5289 0f1c 637900   		.ascii	"cy\000"
 5290 0f1f 01       		.byte	0x1
 5291 0f20 0204     		.2byte	0x402
 5292 0f22 21010000 		.4byte	0x121
 5293 0f26 5B0E0000 		.4byte	.LLST80
 5294 0f2a 1B       		.uleb128 0x1b
 5295 0f2b 81070000 		.4byte	.LASF120
 5296 0f2f 01       		.byte	0x1
 5297 0f30 0204     		.2byte	0x402
 5298 0f32 21010000 		.4byte	0x121
 5299 0f36 900E0000 		.4byte	.LLST81
 5300 0f3a 1B       		.uleb128 0x1b
 5301 0f3b ED010000 		.4byte	.LASF121
 5302 0f3f 01       		.byte	0x1
 5303 0f40 0204     		.2byte	0x402
 5304 0f42 21010000 		.4byte	0x121
 5305 0f46 C50E0000 		.4byte	.LLST82
 5306 0f4a 1B       		.uleb128 0x1b
 5307 0f4b 49080000 		.4byte	.LASF122
 5308 0f4f 01       		.byte	0x1
 5309 0f50 0204     		.2byte	0x402
 5310 0f52 21010000 		.4byte	0x121
 5311 0f56 EF0E0000 		.4byte	.LLST83
 5312 0f5a 1B       		.uleb128 0x1b
 5313 0f5b FE010000 		.4byte	.LASF123
 5314 0f5f 01       		.byte	0x1
 5315 0f60 0204     		.2byte	0x402
 5316 0f62 7C0F0000 		.4byte	0xf7c
 5317 0f66 270F0000 		.4byte	.LLST84
 5318 0f6a 27       		.uleb128 0x27
 5319 0f6b B4000000 		.4byte	.LVL156
 5320 0f6f 1B1C0000 		.4byte	0x1c1b
ARM GAS  /tmp/cclL2Tth.s 			page 95


 5321 0f73 1D       		.uleb128 0x1d
 5322 0f74 01       		.uleb128 0x1
 5323 0f75 50       		.byte	0x50
 5324 0f76 03       		.uleb128 0x3
 5325 0f77 F3       		.byte	0xf3
 5326 0f78 01       		.uleb128 0x1
 5327 0f79 50       		.byte	0x50
 5328 0f7a 00       		.byte	0
 5329 0f7b 00       		.byte	0
 5330 0f7c 06       		.uleb128 0x6
 5331 0f7d 04       		.byte	0x4
 5332 0f7e 820F0000 		.4byte	0xf82
 5333 0f82 07       		.uleb128 0x7
 5334 0f83 D0030000 		.4byte	0x3d0
 5335 0f87 2A       		.uleb128 0x2a
 5336 0f88 D1000000 		.4byte	.LASF124
 5337 0f8c 01       		.byte	0x1
 5338 0f8d 8B04     		.2byte	0x48b
 5339 0f8f 00000000 		.4byte	.LFB136
 5340 0f93 64000000 		.4byte	.LFE136-.LFB136
 5341 0f97 01       		.uleb128 0x1
 5342 0f98 9C       		.byte	0x9c
 5343 0f99 E40F0000 		.4byte	0xfe4
 5344 0f9d 2B       		.uleb128 0x2b
 5345 0f9e 6700     		.ascii	"g\000"
 5346 0fa0 01       		.byte	0x1
 5347 0fa1 8B04     		.2byte	0x48b
 5348 0fa3 A1050000 		.4byte	0x5a1
 5349 0fa7 01       		.uleb128 0x1
 5350 0fa8 50       		.byte	0x50
 5351 0fa9 1A       		.uleb128 0x1a
 5352 0faa 7800     		.ascii	"x\000"
 5353 0fac 01       		.byte	0x1
 5354 0fad 8B04     		.2byte	0x48b
 5355 0faf 21010000 		.4byte	0x121
 5356 0fb3 5F0F0000 		.4byte	.LLST85
 5357 0fb7 1A       		.uleb128 0x1a
 5358 0fb8 7900     		.ascii	"y\000"
 5359 0fba 01       		.byte	0x1
 5360 0fbb 8B04     		.2byte	0x48b
 5361 0fbd 21010000 		.4byte	0x121
 5362 0fc1 A50F0000 		.4byte	.LLST86
 5363 0fc5 1A       		.uleb128 0x1a
 5364 0fc6 637800   		.ascii	"cx\000"
 5365 0fc9 01       		.byte	0x1
 5366 0fca 8B04     		.2byte	0x48b
 5367 0fcc 21010000 		.4byte	0x121
 5368 0fd0 DA0F0000 		.4byte	.LLST87
 5369 0fd4 1A       		.uleb128 0x1a
 5370 0fd5 637900   		.ascii	"cy\000"
 5371 0fd8 01       		.byte	0x1
 5372 0fd9 8B04     		.2byte	0x48b
 5373 0fdb 21010000 		.4byte	0x121
 5374 0fdf 1C100000 		.4byte	.LLST88
 5375 0fe3 00       		.byte	0
 5376 0fe4 2A       		.uleb128 0x2a
 5377 0fe5 DF010000 		.4byte	.LASF125
ARM GAS  /tmp/cclL2Tth.s 			page 96


 5378 0fe9 01       		.byte	0x1
 5379 0fea 3109     		.2byte	0x931
 5380 0fec 00000000 		.4byte	.LFB137
 5381 0ff0 60000000 		.4byte	.LFE137-.LFB137
 5382 0ff4 01       		.uleb128 0x1
 5383 0ff5 9C       		.byte	0x9c
 5384 0ff6 4E100000 		.4byte	0x104e
 5385 0ffa 1A       		.uleb128 0x1a
 5386 0ffb 6700     		.ascii	"g\000"
 5387 0ffd 01       		.byte	0x1
 5388 0ffe 3109     		.2byte	0x931
 5389 1000 A1050000 		.4byte	0x5a1
 5390 1004 5E100000 		.4byte	.LLST89
 5391 1008 1B       		.uleb128 0x1b
 5392 1009 57080000 		.4byte	.LASF126
 5393 100d 01       		.byte	0x1
 5394 100e 3109     		.2byte	0x931
 5395 1010 2C000000 		.4byte	0x2c
 5396 1014 A0100000 		.4byte	.LLST90
 5397 1018 1B       		.uleb128 0x1b
 5398 1019 4C020000 		.4byte	.LASF127
 5399 101d 01       		.byte	0x1
 5400 101e 3109     		.2byte	0x931
 5401 1020 F6000000 		.4byte	0xf6
 5402 1024 E5100000 		.4byte	.LLST91
 5403 1028 31       		.uleb128 0x31
 5404 1029 14000000 		.4byte	.LVL170
 5405 102d 2D1C0000 		.4byte	0x1c2d
 5406 1031 3D100000 		.4byte	0x103d
 5407 1035 1D       		.uleb128 0x1d
 5408 1036 01       		.uleb128 0x1
 5409 1037 50       		.byte	0x50
 5410 1038 03       		.uleb128 0x3
 5411 1039 F3       		.byte	0xf3
 5412 103a 01       		.uleb128 0x1
 5413 103b 50       		.byte	0x50
 5414 103c 00       		.byte	0
 5415 103d 1C       		.uleb128 0x1c
 5416 103e 3C000000 		.4byte	.LVL174
 5417 1042 2D1C0000 		.4byte	0x1c2d
 5418 1046 1D       		.uleb128 0x1d
 5419 1047 01       		.uleb128 0x1
 5420 1048 50       		.byte	0x50
 5421 1049 02       		.uleb128 0x2
 5422 104a 74       		.byte	0x74
 5423 104b 00       		.sleb128 0
 5424 104c 00       		.byte	0
 5425 104d 00       		.byte	0
 5426 104e 15       		.uleb128 0x15
 5427 104f 27070000 		.4byte	.LASF128
 5428 1053 01       		.byte	0x1
 5429 1054 0402     		.2byte	0x204
 5430 1056 01       		.byte	0x1
 5431 1057 1B110000 		.4byte	0x111b
 5432 105b 16       		.uleb128 0x16
 5433 105c 6700     		.ascii	"g\000"
 5434 105e 01       		.byte	0x1
ARM GAS  /tmp/cclL2Tth.s 			page 97


 5435 105f 0402     		.2byte	0x204
 5436 1061 A1050000 		.4byte	0x5a1
 5437 1065 2D       		.uleb128 0x2d
 5438 1066 7800     		.ascii	"x\000"
 5439 1068 01       		.byte	0x1
 5440 1069 0502     		.2byte	0x205
 5441 106b 21010000 		.4byte	0x121
 5442 106f 2D       		.uleb128 0x2d
 5443 1070 7900     		.ascii	"y\000"
 5444 1072 01       		.byte	0x1
 5445 1073 0502     		.2byte	0x205
 5446 1075 21010000 		.4byte	0x121
 5447 1079 2D       		.uleb128 0x2d
 5448 107a 7700     		.ascii	"w\000"
 5449 107c 01       		.byte	0x1
 5450 107d 0502     		.2byte	0x205
 5451 107f 21010000 		.4byte	0x121
 5452 1083 2D       		.uleb128 0x2d
 5453 1084 7000     		.ascii	"p\000"
 5454 1086 01       		.byte	0x1
 5455 1087 0602     		.2byte	0x206
 5456 1089 1B110000 		.4byte	0x111b
 5457 108d 32       		.uleb128 0x32
 5458 108e 59090000 		.4byte	.LASF130
 5459 1092 01       		.byte	0x1
 5460 1093 0702     		.2byte	0x207
 5461 1095 36110000 		.4byte	0x1136
 5462 1099 80       		.byte	0x80
 5463 109a 02       		.byte	0x2
 5464 109b 00       		.byte	0
 5465 109c 06       		.byte	0x6
 5466 109d 00       		.byte	0
 5467 109e 01       		.byte	0x1
 5468 109f 00       		.byte	0
 5469 10a0 0A       		.byte	0xa
 5470 10a1 00       		.byte	0
 5471 10a2 03       		.byte	0x3
 5472 10a3 00       		.byte	0
 5473 10a4 0B       		.byte	0xb
 5474 10a5 00       		.byte	0
 5475 10a6 04       		.byte	0x4
 5476 10a7 00       		.byte	0
 5477 10a8 01       		.byte	0x1
 5478 10a9 00       		.byte	0
 5479 10aa 06       		.byte	0x6
 5480 10ab 00       		.byte	0
 5481 10ac 06       		.byte	0x6
 5482 10ad 00       		.byte	0
 5483 10ae 01       		.byte	0x1
 5484 10af 00       		.byte	0
 5485 10b0 06       		.byte	0x6
 5486 10b1 00       		.byte	0
 5487 10b2 08       		.byte	0x8
 5488 10b3 00       		.byte	0
 5489 10b4 00       		.byte	0
 5490 10b5 00       		.byte	0
 5491 10b6 01       		.byte	0x1
ARM GAS  /tmp/cclL2Tth.s 			page 98


 5492 10b7 00       		.byte	0
 5493 10b8 0C       		.byte	0xc
 5494 10b9 00       		.byte	0
 5495 10ba 09       		.byte	0x9
 5496 10bb 00       		.byte	0
 5497 10bc 00       		.byte	0
 5498 10bd 00       		.byte	0
 5499 10be 06       		.byte	0x6
 5500 10bf 00       		.byte	0
 5501 10c0 01       		.byte	0x1
 5502 10c1 00       		.byte	0
 5503 10c2 09       		.byte	0x9
 5504 10c3 00       		.byte	0
 5505 10c4 0B       		.byte	0xb
 5506 10c5 00       		.byte	0
 5507 10c6 06       		.byte	0x6
 5508 10c7 00       		.byte	0
 5509 10c8 01       		.byte	0x1
 5510 10c9 00       		.byte	0
 5511 10ca 0E       		.byte	0xe
 5512 10cb 00       		.byte	0
 5513 10cc 06       		.byte	0x6
 5514 10cd 00       		.byte	0
 5515 10ce 01       		.byte	0x1
 5516 10cf 00       		.byte	0
 5517 10d0 05       		.byte	0x5
 5518 10d1 00       		.byte	0
 5519 10d2 0C       		.byte	0xc
 5520 10d3 00       		.byte	0
 5521 10d4 06       		.byte	0x6
 5522 10d5 00       		.byte	0
 5523 10d6 02       		.byte	0x2
 5524 10d7 00       		.byte	0
 5525 10d8 01       		.byte	0x1
 5526 10d9 00       		.byte	0
 5527 10da 10       		.byte	0x10
 5528 10db 00       		.byte	0
 5529 10dc 00       		.byte	0
 5530 10dd 00       		.byte	0
 5531 10de 01       		.byte	0x1
 5532 10df 00       		.byte	0
 5533 10e0 0C       		.byte	0xc
 5534 10e1 00       		.byte	0
 5535 10e2 11       		.byte	0x11
 5536 10e3 00       		.byte	0
 5537 10e4 00       		.byte	0
 5538 10e5 00       		.byte	0
 5539 10e6 06       		.byte	0x6
 5540 10e7 00       		.byte	0
 5541 10e8 01       		.byte	0x1
 5542 10e9 00       		.byte	0
 5543 10ea 11       		.byte	0x11
 5544 10eb 00       		.byte	0
 5545 10ec 06       		.byte	0x6
 5546 10ed 00       		.byte	0
 5547 10ee 03       		.byte	0x3
 5548 10ef 00       		.byte	0
ARM GAS  /tmp/cclL2Tth.s 			page 99


 5549 10f0 01       		.byte	0x1
 5550 10f1 00       		.byte	0
 5551 10f2 16       		.byte	0x16
 5552 10f3 00       		.byte	0
 5553 10f4 06       		.byte	0x6
 5554 10f5 00       		.byte	0
 5555 10f6 07       		.byte	0x7
 5556 10f7 00       		.byte	0
 5557 10f8 01       		.byte	0x1
 5558 10f9 00       		.byte	0
 5559 10fa 18       		.byte	0x18
 5560 10fb 00       		.byte	0
 5561 10fc 00       		.byte	0
 5562 10fd 00       		.byte	0
 5563 10fe 01       		.byte	0x1
 5564 10ff 00       		.byte	0
 5565 1100 06       		.byte	0x6
 5566 1101 00       		.byte	0
 5567 1102 16       		.byte	0x16
 5568 1103 00       		.byte	0
 5569 1104 07       		.byte	0x7
 5570 1105 00       		.byte	0
 5571 1106 01       		.byte	0x1
 5572 1107 00       		.byte	0
 5573 1108 05       		.byte	0x5
 5574 1109 00       		.byte	0
 5575 110a 1C       		.byte	0x1c
 5576 110b 00       		.byte	0
 5577 110c 00       		.byte	0
 5578 110d 00       		.byte	0
 5579 110e 01       		.byte	0x1
 5580 110f 00       		.byte	0
 5581 1110 06       		.byte	0x6
 5582 1111 00       		.byte	0
 5583 1112 1A       		.byte	0x1a
 5584 1113 00       		.byte	0
 5585 1114 07       		.byte	0x7
 5586 1115 00       		.byte	0
 5587 1116 01       		.byte	0x1
 5588 1117 00       		.byte	0
 5589 1118 05       		.byte	0x5
 5590 1119 00       		.byte	0
 5591 111a 00       		.byte	0
 5592 111b 06       		.uleb128 0x6
 5593 111c 04       		.byte	0x4
 5594 111d 21110000 		.4byte	0x1121
 5595 1121 07       		.uleb128 0x7
 5596 1122 21010000 		.4byte	0x121
 5597 1126 33       		.uleb128 0x33
 5598 1127 21010000 		.4byte	0x121
 5599 112b 36110000 		.4byte	0x1136
 5600 112f 34       		.uleb128 0x34
 5601 1130 F8000000 		.4byte	0xf8
 5602 1134 3F       		.byte	0x3f
 5603 1135 00       		.byte	0
 5604 1136 07       		.uleb128 0x7
 5605 1137 26110000 		.4byte	0x1126
ARM GAS  /tmp/cclL2Tth.s 			page 100


 5606 113b 2A       		.uleb128 0x2a
 5607 113c 76070000 		.4byte	.LASF129
 5608 1140 01       		.byte	0x1
 5609 1141 3902     		.2byte	0x239
 5610 1143 00000000 		.4byte	.LFB126
 5611 1147 00010000 		.4byte	.LFE126-.LFB126
 5612 114b 01       		.uleb128 0x1
 5613 114c 9C       		.byte	0x9c
 5614 114d B5120000 		.4byte	0x12b5
 5615 1151 35       		.uleb128 0x35
 5616 1152 6700     		.ascii	"g\000"
 5617 1154 01       		.byte	0x1
 5618 1155 3B02     		.2byte	0x23b
 5619 1157 A1050000 		.4byte	0x5a1
 5620 115b 45110000 		.4byte	.LLST92
 5621 115f 35       		.uleb128 0x35
 5622 1160 6900     		.ascii	"i\000"
 5623 1162 01       		.byte	0x1
 5624 1163 3C02     		.2byte	0x23c
 5625 1165 B8000000 		.4byte	0xb8
 5626 1169 7D110000 		.4byte	.LLST93
 5627 116d 36       		.uleb128 0x36
 5628 116e 33060000 		.4byte	0x633
 5629 1172 36000000 		.4byte	.LBB136
 5630 1176 14000000 		.4byte	.LBE136-.LBB136
 5631 117a 01       		.byte	0x1
 5632 117b 5B02     		.2byte	0x25b
 5633 117d A4110000 		.4byte	0x11a4
 5634 1181 37       		.uleb128 0x37
 5635 1182 4A060000 		.4byte	0x64a
 5636 1186 00       		.byte	0
 5637 1187 38       		.uleb128 0x38
 5638 1188 40060000 		.4byte	0x640
 5639 118c 06       		.uleb128 0x6
 5640 118d 03       		.byte	0x3
 5641 118e 00000000 		.4byte	GDisplayArray
 5642 1192 9F       		.byte	0x9f
 5643 1193 1C       		.uleb128 0x1c
 5644 1194 4A000000 		.4byte	.LVL181
 5645 1198 F71B0000 		.4byte	0x1bf7
 5646 119c 1D       		.uleb128 0x1d
 5647 119d 01       		.uleb128 0x1
 5648 119e 50       		.byte	0x50
 5649 119f 02       		.uleb128 0x2
 5650 11a0 74       		.byte	0x74
 5651 11a1 00       		.sleb128 0
 5652 11a2 00       		.byte	0
 5653 11a3 00       		.byte	0
 5654 11a4 36       		.uleb128 0x36
 5655 11a5 4E100000 		.4byte	0x104e
 5656 11a9 4A000000 		.4byte	.LBB138
 5657 11ad 74000000 		.4byte	.LBE138-.LBB138
 5658 11b1 01       		.byte	0x1
 5659 11b2 5D02     		.2byte	0x25d
 5660 11b4 15120000 		.4byte	0x1215
 5661 11b8 38       		.uleb128 0x38
 5662 11b9 5B100000 		.4byte	0x105b
ARM GAS  /tmp/cclL2Tth.s 			page 101


 5663 11bd 06       		.uleb128 0x6
 5664 11be 03       		.byte	0x3
 5665 11bf 00000000 		.4byte	GDisplayArray
 5666 11c3 9F       		.byte	0x9f
 5667 11c4 24       		.uleb128 0x24
 5668 11c5 4A000000 		.4byte	.LBB139
 5669 11c9 74000000 		.4byte	.LBE139-.LBB139
 5670 11cd 25       		.uleb128 0x25
 5671 11ce 65100000 		.4byte	0x1065
 5672 11d2 A9110000 		.4byte	.LLST94
 5673 11d6 25       		.uleb128 0x25
 5674 11d7 6F100000 		.4byte	0x106f
 5675 11db CC110000 		.4byte	.LLST95
 5676 11df 25       		.uleb128 0x25
 5677 11e0 79100000 		.4byte	0x1079
 5678 11e4 EF110000 		.4byte	.LLST96
 5679 11e8 25       		.uleb128 0x25
 5680 11e9 83100000 		.4byte	0x1083
 5681 11ed 49120000 		.4byte	.LLST97
 5682 11f1 39       		.uleb128 0x39
 5683 11f2 8D100000 		.4byte	0x108d
 5684 11f6 05       		.uleb128 0x5
 5685 11f7 03       		.byte	0x3
 5686 11f8 00000000 		.4byte	blks.7089
 5687 11fc 1C       		.uleb128 0x1c
 5688 11fd BA000000 		.4byte	.LVL188
 5689 1201 320E0000 		.4byte	0xe32
 5690 1205 1D       		.uleb128 0x1d
 5691 1206 01       		.uleb128 0x1
 5692 1207 50       		.byte	0x50
 5693 1208 02       		.uleb128 0x2
 5694 1209 76       		.byte	0x76
 5695 120a 00       		.sleb128 0
 5696 120b 1D       		.uleb128 0x1d
 5697 120c 02       		.uleb128 0x2
 5698 120d 7D       		.byte	0x7d
 5699 120e 04       		.sleb128 4
 5700 120f 02       		.uleb128 0x2
 5701 1210 77       		.byte	0x77
 5702 1211 00       		.sleb128 0
 5703 1212 00       		.byte	0
 5704 1213 00       		.byte	0
 5705 1214 00       		.byte	0
 5706 1215 22       		.uleb128 0x22
 5707 1216 33060000 		.4byte	0x633
 5708 121a C6000000 		.4byte	.LBB140
 5709 121e 48010000 		.4byte	.Ldebug_ranges0+0x148
 5710 1222 01       		.byte	0x1
 5711 1223 6802     		.2byte	0x268
 5712 1225 4F120000 		.4byte	0x124f
 5713 1229 20       		.uleb128 0x20
 5714 122a 4A060000 		.4byte	0x64a
 5715 122e 84120000 		.4byte	.LLST98
 5716 1232 20       		.uleb128 0x20
 5717 1233 40060000 		.4byte	0x640
 5718 1237 98120000 		.4byte	.LLST99
 5719 123b 27       		.uleb128 0x27
ARM GAS  /tmp/cclL2Tth.s 			page 102


 5720 123c E2000000 		.4byte	.LVL192
 5721 1240 F71B0000 		.4byte	0x1bf7
 5722 1244 1D       		.uleb128 0x1d
 5723 1245 01       		.uleb128 0x1
 5724 1246 50       		.byte	0x50
 5725 1247 05       		.uleb128 0x5
 5726 1248 03       		.byte	0x3
 5727 1249 00000000 		.4byte	.LANCHOR0
 5728 124d 00       		.byte	0
 5729 124e 00       		.byte	0
 5730 124f 26       		.uleb128 0x26
 5731 1250 16000000 		.4byte	.LVL178
 5732 1254 3F1C0000 		.4byte	0x1c3f
 5733 1258 63120000 		.4byte	0x1263
 5734 125c 1D       		.uleb128 0x1d
 5735 125d 01       		.uleb128 0x1
 5736 125e 50       		.byte	0x50
 5737 125f 02       		.uleb128 0x2
 5738 1260 74       		.byte	0x74
 5739 1261 00       		.sleb128 0
 5740 1262 00       		.byte	0
 5741 1263 26       		.uleb128 0x26
 5742 1264 22000000 		.4byte	.LVL179
 5743 1268 E40F0000 		.4byte	0xfe4
 5744 126c 83120000 		.4byte	0x1283
 5745 1270 1D       		.uleb128 0x1d
 5746 1271 01       		.uleb128 0x1
 5747 1272 52       		.byte	0x52
 5748 1273 03       		.uleb128 0x3
 5749 1274 0A       		.byte	0xa
 5750 1275 0E01     		.2byte	0x10e
 5751 1277 1D       		.uleb128 0x1d
 5752 1278 01       		.uleb128 0x1
 5753 1279 51       		.byte	0x51
 5754 127a 01       		.uleb128 0x1
 5755 127b 31       		.byte	0x31
 5756 127c 1D       		.uleb128 0x1d
 5757 127d 01       		.uleb128 0x1
 5758 127e 50       		.byte	0x50
 5759 127f 02       		.uleb128 0x2
 5760 1280 74       		.byte	0x74
 5761 1281 00       		.sleb128 0
 5762 1282 00       		.byte	0
 5763 1283 26       		.uleb128 0x26
 5764 1284 36000000 		.4byte	.LVL180
 5765 1288 870F0000 		.4byte	0xf87
 5766 128c A3120000 		.4byte	0x12a3
 5767 1290 1D       		.uleb128 0x1d
 5768 1291 01       		.uleb128 0x1
 5769 1292 52       		.byte	0x52
 5770 1293 02       		.uleb128 0x2
 5771 1294 75       		.byte	0x75
 5772 1295 00       		.sleb128 0
 5773 1296 1D       		.uleb128 0x1d
 5774 1297 01       		.uleb128 0x1
 5775 1298 51       		.byte	0x51
 5776 1299 02       		.uleb128 0x2
ARM GAS  /tmp/cclL2Tth.s 			page 103


 5777 129a 75       		.byte	0x75
 5778 129b 00       		.sleb128 0
 5779 129c 1D       		.uleb128 0x1d
 5780 129d 01       		.uleb128 0x1
 5781 129e 50       		.byte	0x50
 5782 129f 02       		.uleb128 0x2
 5783 12a0 74       		.byte	0x74
 5784 12a1 00       		.sleb128 0
 5785 12a2 00       		.byte	0
 5786 12a3 1C       		.uleb128 0x1c
 5787 12a4 C6000000 		.4byte	.LVL190
 5788 12a8 551C0000 		.4byte	0x1c55
 5789 12ac 1D       		.uleb128 0x1d
 5790 12ad 01       		.uleb128 0x1
 5791 12ae 50       		.byte	0x50
 5792 12af 03       		.uleb128 0x3
 5793 12b0 0A       		.byte	0xa
 5794 12b1 E803     		.2byte	0x3e8
 5795 12b3 00       		.byte	0
 5796 12b4 00       		.byte	0
 5797 12b5 2A       		.uleb128 0x2a
 5798 12b6 F8040000 		.4byte	.LASF131
 5799 12ba 01       		.byte	0x1
 5800 12bb 8B09     		.2byte	0x98b
 5801 12bd 00000000 		.4byte	.LFB138
 5802 12c1 C4000000 		.4byte	.LFE138-.LFB138
 5803 12c5 01       		.uleb128 0x1
 5804 12c6 9C       		.byte	0x9c
 5805 12c7 AC130000 		.4byte	0x13ac
 5806 12cb 1A       		.uleb128 0x1a
 5807 12cc 6700     		.ascii	"g\000"
 5808 12ce 01       		.byte	0x1
 5809 12cf 8B09     		.2byte	0x98b
 5810 12d1 A1050000 		.4byte	0x5a1
 5811 12d5 B0120000 		.4byte	.LLST100
 5812 12d9 1A       		.uleb128 0x1a
 5813 12da 7800     		.ascii	"x\000"
 5814 12dc 01       		.byte	0x1
 5815 12dd 8B09     		.2byte	0x98b
 5816 12df 21010000 		.4byte	0x121
 5817 12e3 E4120000 		.4byte	.LLST101
 5818 12e7 1A       		.uleb128 0x1a
 5819 12e8 7900     		.ascii	"y\000"
 5820 12ea 01       		.byte	0x1
 5821 12eb 8B09     		.2byte	0x98b
 5822 12ed 21010000 		.4byte	0x121
 5823 12f1 05130000 		.4byte	.LLST102
 5824 12f5 1A       		.uleb128 0x1a
 5825 12f6 637800   		.ascii	"cx\000"
 5826 12f9 01       		.byte	0x1
 5827 12fa 8B09     		.2byte	0x98b
 5828 12fc 21010000 		.4byte	0x121
 5829 1300 3F130000 		.4byte	.LLST103
 5830 1304 1A       		.uleb128 0x1a
 5831 1305 637900   		.ascii	"cy\000"
 5832 1308 01       		.byte	0x1
 5833 1309 8B09     		.2byte	0x98b
ARM GAS  /tmp/cclL2Tth.s 			page 104


 5834 130b 21010000 		.4byte	0x121
 5835 130f 76130000 		.4byte	.LLST104
 5836 1313 1B       		.uleb128 0x1b
 5837 1314 6B070000 		.4byte	.LASF86
 5838 1318 01       		.byte	0x1
 5839 1319 8B09     		.2byte	0x98b
 5840 131b C4030000 		.4byte	0x3c4
 5841 131f AB130000 		.4byte	.LLST105
 5842 1323 26       		.uleb128 0x26
 5843 1324 44000000 		.4byte	.LVL200
 5844 1328 A7050000 		.4byte	0x5a7
 5845 132c 37130000 		.4byte	0x1337
 5846 1330 1D       		.uleb128 0x1d
 5847 1331 01       		.uleb128 0x1
 5848 1332 50       		.byte	0x50
 5849 1333 02       		.uleb128 0x2
 5850 1334 74       		.byte	0x74
 5851 1335 00       		.sleb128 0
 5852 1336 00       		.byte	0
 5853 1337 26       		.uleb128 0x26
 5854 1338 5A000000 		.4byte	.LVL201
 5855 133c A7050000 		.4byte	0x5a7
 5856 1340 4B130000 		.4byte	0x134b
 5857 1344 1D       		.uleb128 0x1d
 5858 1345 01       		.uleb128 0x1
 5859 1346 50       		.byte	0x50
 5860 1347 02       		.uleb128 0x2
 5861 1348 74       		.byte	0x74
 5862 1349 00       		.sleb128 0
 5863 134a 00       		.byte	0
 5864 134b 26       		.uleb128 0x26
 5865 134c 6A000000 		.4byte	.LVL203
 5866 1350 091C0000 		.4byte	0x1c09
 5867 1354 5F130000 		.4byte	0x135f
 5868 1358 1D       		.uleb128 0x1d
 5869 1359 01       		.uleb128 0x1
 5870 135a 50       		.byte	0x50
 5871 135b 02       		.uleb128 0x2
 5872 135c 74       		.byte	0x74
 5873 135d 00       		.sleb128 0
 5874 135e 00       		.byte	0
 5875 135f 26       		.uleb128 0x26
 5876 1360 7E000000 		.4byte	.LVL206
 5877 1364 05060000 		.4byte	0x605
 5878 1368 73130000 		.4byte	0x1373
 5879 136c 1D       		.uleb128 0x1d
 5880 136d 01       		.uleb128 0x1
 5881 136e 50       		.byte	0x50
 5882 136f 02       		.uleb128 0x2
 5883 1370 74       		.byte	0x74
 5884 1371 00       		.sleb128 0
 5885 1372 00       		.byte	0
 5886 1373 26       		.uleb128 0x26
 5887 1374 90000000 		.4byte	.LVL207
 5888 1378 05060000 		.4byte	0x605
 5889 137c 87130000 		.4byte	0x1387
 5890 1380 1D       		.uleb128 0x1d
ARM GAS  /tmp/cclL2Tth.s 			page 105


 5891 1381 01       		.uleb128 0x1
 5892 1382 50       		.byte	0x50
 5893 1383 02       		.uleb128 0x2
 5894 1384 74       		.byte	0x74
 5895 1385 00       		.sleb128 0
 5896 1386 00       		.byte	0
 5897 1387 26       		.uleb128 0x26
 5898 1388 B2000000 		.4byte	.LVL210
 5899 138c 05060000 		.4byte	0x605
 5900 1390 9B130000 		.4byte	0x139b
 5901 1394 1D       		.uleb128 0x1d
 5902 1395 01       		.uleb128 0x1
 5903 1396 50       		.byte	0x50
 5904 1397 02       		.uleb128 0x2
 5905 1398 74       		.byte	0x74
 5906 1399 00       		.sleb128 0
 5907 139a 00       		.byte	0
 5908 139b 1C       		.uleb128 0x1c
 5909 139c C2000000 		.4byte	.LVL211
 5910 13a0 05060000 		.4byte	0x605
 5911 13a4 1D       		.uleb128 0x1d
 5912 13a5 01       		.uleb128 0x1
 5913 13a6 50       		.byte	0x50
 5914 13a7 02       		.uleb128 0x2
 5915 13a8 74       		.byte	0x74
 5916 13a9 00       		.sleb128 0
 5917 13aa 00       		.byte	0
 5918 13ab 00       		.byte	0
 5919 13ac 2A       		.uleb128 0x2a
 5920 13ad B9010000 		.4byte	.LASF132
 5921 13b1 01       		.byte	0x1
 5922 13b2 210B     		.2byte	0xb21
 5923 13b4 00000000 		.4byte	.LFB142
 5924 13b8 70000000 		.4byte	.LFE142-.LFB142
 5925 13bc 01       		.uleb128 0x1
 5926 13bd 9C       		.byte	0x9c
 5927 13be 6B140000 		.4byte	0x146b
 5928 13c2 1A       		.uleb128 0x1a
 5929 13c3 6700     		.ascii	"g\000"
 5930 13c5 01       		.byte	0x1
 5931 13c6 210B     		.2byte	0xb21
 5932 13c8 A1050000 		.4byte	0x5a1
 5933 13cc CB130000 		.4byte	.LLST106
 5934 13d0 1A       		.uleb128 0x1a
 5935 13d1 7800     		.ascii	"x\000"
 5936 13d3 01       		.byte	0x1
 5937 13d4 210B     		.2byte	0xb21
 5938 13d6 21010000 		.4byte	0x121
 5939 13da F7130000 		.4byte	.LLST107
 5940 13de 1A       		.uleb128 0x1a
 5941 13df 7900     		.ascii	"y\000"
 5942 13e1 01       		.byte	0x1
 5943 13e2 210B     		.2byte	0xb21
 5944 13e4 21010000 		.4byte	0x121
 5945 13e8 32140000 		.4byte	.LLST108
 5946 13ec 1A       		.uleb128 0x1a
 5947 13ed 6300     		.ascii	"c\000"
ARM GAS  /tmp/cclL2Tth.s 			page 106


 5948 13ef 01       		.byte	0x1
 5949 13f0 210B     		.2byte	0xb21
 5950 13f2 B8000000 		.4byte	0xb8
 5951 13f6 53140000 		.4byte	.LLST109
 5952 13fa 1B       		.uleb128 0x1b
 5953 13fb 6A080000 		.4byte	.LASF87
 5954 13ff 01       		.byte	0x1
 5955 1400 210B     		.2byte	0xb21
 5956 1402 92010000 		.4byte	0x192
 5957 1406 74140000 		.4byte	.LLST110
 5958 140a 1B       		.uleb128 0x1b
 5959 140b 6B070000 		.4byte	.LASF86
 5960 140f 01       		.byte	0x1
 5961 1410 210B     		.2byte	0xb21
 5962 1412 C4030000 		.4byte	0x3c4
 5963 1416 94140000 		.4byte	.LLST111
 5964 141a 26       		.uleb128 0x26
 5965 141b 28000000 		.4byte	.LVL215
 5966 141f 661C0000 		.4byte	0x1c66
 5967 1423 34140000 		.4byte	0x1434
 5968 1427 1D       		.uleb128 0x1d
 5969 1428 01       		.uleb128 0x1
 5970 1429 51       		.byte	0x51
 5971 142a 02       		.uleb128 0x2
 5972 142b 78       		.byte	0x78
 5973 142c 00       		.sleb128 0
 5974 142d 1D       		.uleb128 0x1d
 5975 142e 01       		.uleb128 0x1
 5976 142f 50       		.byte	0x50
 5977 1430 02       		.uleb128 0x2
 5978 1431 75       		.byte	0x75
 5979 1432 00       		.sleb128 0
 5980 1433 00       		.byte	0
 5981 1434 26       		.uleb128 0x26
 5982 1435 50000000 		.4byte	.LVL216
 5983 1439 931B0000 		.4byte	0x1b93
 5984 143d 5A140000 		.4byte	0x145a
 5985 1441 1D       		.uleb128 0x1d
 5986 1442 01       		.uleb128 0x1
 5987 1443 53       		.byte	0x53
 5988 1444 02       		.uleb128 0x2
 5989 1445 78       		.byte	0x78
 5990 1446 00       		.sleb128 0
 5991 1447 1D       		.uleb128 0x1d
 5992 1448 01       		.uleb128 0x1
 5993 1449 52       		.byte	0x52
 5994 144a 02       		.uleb128 0x2
 5995 144b 77       		.byte	0x77
 5996 144c 00       		.sleb128 0
 5997 144d 1D       		.uleb128 0x1d
 5998 144e 01       		.uleb128 0x1
 5999 144f 51       		.byte	0x51
 6000 1450 02       		.uleb128 0x2
 6001 1451 76       		.byte	0x76
 6002 1452 00       		.sleb128 0
 6003 1453 1D       		.uleb128 0x1d
 6004 1454 01       		.uleb128 0x1
ARM GAS  /tmp/cclL2Tth.s 			page 107


 6005 1455 50       		.byte	0x50
 6006 1456 02       		.uleb128 0x2
 6007 1457 75       		.byte	0x75
 6008 1458 00       		.sleb128 0
 6009 1459 00       		.byte	0
 6010 145a 1C       		.uleb128 0x1c
 6011 145b 5C000000 		.4byte	.LVL217
 6012 145f 091C0000 		.4byte	0x1c09
 6013 1463 1D       		.uleb128 0x1d
 6014 1464 01       		.uleb128 0x1
 6015 1465 50       		.byte	0x50
 6016 1466 02       		.uleb128 0x2
 6017 1467 74       		.byte	0x74
 6018 1468 00       		.sleb128 0
 6019 1469 00       		.byte	0
 6020 146a 00       		.byte	0
 6021 146b 2A       		.uleb128 0x2a
 6022 146c 52020000 		.4byte	.LASF133
 6023 1470 01       		.byte	0x1
 6024 1471 2E0B     		.2byte	0xb2e
 6025 1473 00000000 		.4byte	.LFB143
 6026 1477 10010000 		.4byte	.LFE143-.LFB143
 6027 147b 01       		.uleb128 0x1
 6028 147c 9C       		.byte	0x9c
 6029 147d 7D150000 		.4byte	0x157d
 6030 1481 1A       		.uleb128 0x1a
 6031 1482 6700     		.ascii	"g\000"
 6032 1484 01       		.byte	0x1
 6033 1485 2E0B     		.2byte	0xb2e
 6034 1487 A1050000 		.4byte	0x5a1
 6035 148b B4140000 		.4byte	.LLST112
 6036 148f 1A       		.uleb128 0x1a
 6037 1490 7800     		.ascii	"x\000"
 6038 1492 01       		.byte	0x1
 6039 1493 2E0B     		.2byte	0xb2e
 6040 1495 21010000 		.4byte	0x121
 6041 1499 D2140000 		.4byte	.LLST113
 6042 149d 1A       		.uleb128 0x1a
 6043 149e 7900     		.ascii	"y\000"
 6044 14a0 01       		.byte	0x1
 6045 14a1 2E0B     		.2byte	0xb2e
 6046 14a3 21010000 		.4byte	0x121
 6047 14a7 F3140000 		.4byte	.LLST114
 6048 14ab 1A       		.uleb128 0x1a
 6049 14ac 6300     		.ascii	"c\000"
 6050 14ae 01       		.byte	0x1
 6051 14af 2E0B     		.2byte	0xb2e
 6052 14b1 B8000000 		.4byte	0xb8
 6053 14b5 14150000 		.4byte	.LLST115
 6054 14b9 1B       		.uleb128 0x1b
 6055 14ba 6A080000 		.4byte	.LASF87
 6056 14be 01       		.byte	0x1
 6057 14bf 2E0B     		.2byte	0xb2e
 6058 14c1 92010000 		.4byte	0x192
 6059 14c5 35150000 		.4byte	.LLST116
 6060 14c9 1B       		.uleb128 0x1b
 6061 14ca 6B070000 		.4byte	.LASF86
ARM GAS  /tmp/cclL2Tth.s 			page 108


 6062 14ce 01       		.byte	0x1
 6063 14cf 2E0B     		.2byte	0xb2e
 6064 14d1 C4030000 		.4byte	0x3c4
 6065 14d5 55150000 		.4byte	.LLST117
 6066 14d9 1B       		.uleb128 0x1b
 6067 14da BF030000 		.4byte	.LASF88
 6068 14de 01       		.byte	0x1
 6069 14df 2E0B     		.2byte	0xb2e
 6070 14e1 C4030000 		.4byte	0x3c4
 6071 14e5 75150000 		.4byte	.LLST118
 6072 14e9 36       		.uleb128 0x36
 6073 14ea 1D060000 		.4byte	0x61d
 6074 14ee C6000000 		.4byte	.LBB144
 6075 14f2 06000000 		.4byte	.LBE144-.LBB144
 6076 14f6 01       		.byte	0x1
 6077 14f7 3B0B     		.2byte	0xb3b
 6078 14f9 17150000 		.4byte	0x1517
 6079 14fd 20       		.uleb128 0x20
 6080 14fe 29060000 		.4byte	0x629
 6081 1502 95150000 		.4byte	.LLST119
 6082 1506 1C       		.uleb128 0x1c
 6083 1507 CC000000 		.4byte	.LVL225
 6084 150b F71B0000 		.4byte	0x1bf7
 6085 150f 1D       		.uleb128 0x1d
 6086 1510 01       		.uleb128 0x1
 6087 1511 50       		.byte	0x50
 6088 1512 02       		.uleb128 0x2
 6089 1513 74       		.byte	0x74
 6090 1514 00       		.sleb128 0
 6091 1515 00       		.byte	0
 6092 1516 00       		.byte	0
 6093 1517 26       		.uleb128 0x26
 6094 1518 22000000 		.4byte	.LVL223
 6095 151c 661C0000 		.4byte	0x1c66
 6096 1520 33150000 		.4byte	0x1533
 6097 1524 1D       		.uleb128 0x1d
 6098 1525 01       		.uleb128 0x1
 6099 1526 51       		.byte	0x51
 6100 1527 04       		.uleb128 0x4
 6101 1528 91       		.byte	0x91
 6102 1529 54       		.sleb128 -44
 6103 152a 94       		.byte	0x94
 6104 152b 01       		.byte	0x1
 6105 152c 1D       		.uleb128 0x1d
 6106 152d 01       		.uleb128 0x1
 6107 152e 50       		.byte	0x50
 6108 152f 02       		.uleb128 0x2
 6109 1530 77       		.byte	0x77
 6110 1531 00       		.sleb128 0
 6111 1532 00       		.byte	0
 6112 1533 26       		.uleb128 0x26
 6113 1534 E2000000 		.4byte	.LVL226
 6114 1538 931B0000 		.4byte	0x1b93
 6115 153c 6C150000 		.4byte	0x156c
 6116 1540 1D       		.uleb128 0x1d
 6117 1541 01       		.uleb128 0x1
 6118 1542 53       		.byte	0x53
ARM GAS  /tmp/cclL2Tth.s 			page 109


 6119 1543 04       		.uleb128 0x4
 6120 1544 91       		.byte	0x91
 6121 1545 54       		.sleb128 -44
 6122 1546 94       		.byte	0x94
 6123 1547 01       		.byte	0x1
 6124 1548 1D       		.uleb128 0x1d
 6125 1549 01       		.uleb128 0x1
 6126 154a 52       		.byte	0x52
 6127 154b 02       		.uleb128 0x2
 6128 154c 76       		.byte	0x76
 6129 154d 00       		.sleb128 0
 6130 154e 1D       		.uleb128 0x1d
 6131 154f 01       		.uleb128 0x1
 6132 1550 51       		.byte	0x51
 6133 1551 02       		.uleb128 0x2
 6134 1552 75       		.byte	0x75
 6135 1553 00       		.sleb128 0
 6136 1554 1D       		.uleb128 0x1d
 6137 1555 01       		.uleb128 0x1
 6138 1556 50       		.byte	0x50
 6139 1557 02       		.uleb128 0x2
 6140 1558 77       		.byte	0x77
 6141 1559 00       		.sleb128 0
 6142 155a 1D       		.uleb128 0x1d
 6143 155b 02       		.uleb128 0x2
 6144 155c 7D       		.byte	0x7d
 6145 155d 04       		.sleb128 4
 6146 155e 02       		.uleb128 0x2
 6147 155f 74       		.byte	0x74
 6148 1560 00       		.sleb128 0
 6149 1561 1D       		.uleb128 0x1d
 6150 1562 02       		.uleb128 0x2
 6151 1563 7D       		.byte	0x7d
 6152 1564 00       		.sleb128 0
 6153 1565 05       		.uleb128 0x5
 6154 1566 03       		.byte	0x3
 6155 1567 00000000 		.4byte	drawcharline
 6156 156b 00       		.byte	0
 6157 156c 1C       		.uleb128 0x1c
 6158 156d EE000000 		.4byte	.LVL227
 6159 1571 091C0000 		.4byte	0x1c09
 6160 1575 1D       		.uleb128 0x1d
 6161 1576 01       		.uleb128 0x1
 6162 1577 50       		.byte	0x50
 6163 1578 02       		.uleb128 0x2
 6164 1579 74       		.byte	0x74
 6165 157a 00       		.sleb128 0
 6166 157b 00       		.byte	0
 6167 157c 00       		.byte	0
 6168 157d 2A       		.uleb128 0x2a
 6169 157e FD080000 		.4byte	.LASF134
 6170 1582 01       		.byte	0x1
 6171 1583 420B     		.2byte	0xb42
 6172 1585 00000000 		.4byte	.LFB144
 6173 1589 80000000 		.4byte	.LFE144-.LFB144
 6174 158d 01       		.uleb128 0x1
 6175 158e 9C       		.byte	0x9c
ARM GAS  /tmp/cclL2Tth.s 			page 110


 6176 158f 5F160000 		.4byte	0x165f
 6177 1593 1A       		.uleb128 0x1a
 6178 1594 6700     		.ascii	"g\000"
 6179 1596 01       		.byte	0x1
 6180 1597 420B     		.2byte	0xb42
 6181 1599 A1050000 		.4byte	0x5a1
 6182 159d A8150000 		.4byte	.LLST120
 6183 15a1 1A       		.uleb128 0x1a
 6184 15a2 7800     		.ascii	"x\000"
 6185 15a4 01       		.byte	0x1
 6186 15a5 420B     		.2byte	0xb42
 6187 15a7 21010000 		.4byte	0x121
 6188 15ab D4150000 		.4byte	.LLST121
 6189 15af 1A       		.uleb128 0x1a
 6190 15b0 7900     		.ascii	"y\000"
 6191 15b2 01       		.byte	0x1
 6192 15b3 420B     		.2byte	0xb42
 6193 15b5 21010000 		.4byte	0x121
 6194 15b9 02160000 		.4byte	.LLST122
 6195 15bd 1A       		.uleb128 0x1a
 6196 15be 73747200 		.ascii	"str\000"
 6197 15c2 01       		.byte	0x1
 6198 15c3 420B     		.2byte	0xb42
 6199 15c5 FF000000 		.4byte	0xff
 6200 15c9 23160000 		.4byte	.LLST123
 6201 15cd 1B       		.uleb128 0x1b
 6202 15ce 6A080000 		.4byte	.LASF87
 6203 15d2 01       		.byte	0x1
 6204 15d3 420B     		.2byte	0xb42
 6205 15d5 92010000 		.4byte	0x192
 6206 15d9 5A160000 		.4byte	.LLST124
 6207 15dd 1B       		.uleb128 0x1b
 6208 15de 6B070000 		.4byte	.LASF86
 6209 15e2 01       		.byte	0x1
 6210 15e3 420B     		.2byte	0xb42
 6211 15e5 C4030000 		.4byte	0x3c4
 6212 15e9 7A160000 		.4byte	.LLST125
 6213 15ed 26       		.uleb128 0x26
 6214 15ee 2A000000 		.4byte	.LVL234
 6215 15f2 801C0000 		.4byte	0x1c80
 6216 15f6 11160000 		.4byte	0x1611
 6217 15fa 1D       		.uleb128 0x1d
 6218 15fb 01       		.uleb128 0x1
 6219 15fc 53       		.byte	0x53
 6220 15fd 01       		.uleb128 0x1
 6221 15fe 30       		.byte	0x30
 6222 15ff 1D       		.uleb128 0x1d
 6223 1600 01       		.uleb128 0x1
 6224 1601 52       		.byte	0x52
 6225 1602 01       		.uleb128 0x1
 6226 1603 30       		.byte	0x30
 6227 1604 1D       		.uleb128 0x1d
 6228 1605 01       		.uleb128 0x1
 6229 1606 51       		.byte	0x51
 6230 1607 02       		.uleb128 0x2
 6231 1608 77       		.byte	0x77
 6232 1609 00       		.sleb128 0
ARM GAS  /tmp/cclL2Tth.s 			page 111


 6233 160a 1D       		.uleb128 0x1d
 6234 160b 01       		.uleb128 0x1
 6235 160c 50       		.byte	0x50
 6236 160d 02       		.uleb128 0x2
 6237 160e 75       		.byte	0x75
 6238 160f 00       		.sleb128 0
 6239 1610 00       		.byte	0
 6240 1611 26       		.uleb128 0x26
 6241 1612 60000000 		.4byte	.LVL235
 6242 1616 A41C0000 		.4byte	0x1ca4
 6243 161a 4E160000 		.4byte	0x164e
 6244 161e 1D       		.uleb128 0x1d
 6245 161f 01       		.uleb128 0x1
 6246 1620 53       		.byte	0x53
 6247 1621 01       		.uleb128 0x1
 6248 1622 30       		.byte	0x30
 6249 1623 1D       		.uleb128 0x1d
 6250 1624 01       		.uleb128 0x1
 6251 1625 52       		.byte	0x52
 6252 1626 02       		.uleb128 0x2
 6253 1627 76       		.byte	0x76
 6254 1628 00       		.sleb128 0
 6255 1629 1D       		.uleb128 0x1d
 6256 162a 01       		.uleb128 0x1
 6257 162b 50       		.byte	0x50
 6258 162c 02       		.uleb128 0x2
 6259 162d 75       		.byte	0x75
 6260 162e 00       		.sleb128 0
 6261 162f 1D       		.uleb128 0x1d
 6262 1630 02       		.uleb128 0x2
 6263 1631 7D       		.byte	0x7d
 6264 1632 0C       		.sleb128 12
 6265 1633 02       		.uleb128 0x2
 6266 1634 74       		.byte	0x74
 6267 1635 00       		.sleb128 0
 6268 1636 1D       		.uleb128 0x1d
 6269 1637 02       		.uleb128 0x2
 6270 1638 7D       		.byte	0x7d
 6271 1639 08       		.sleb128 8
 6272 163a 05       		.uleb128 0x5
 6273 163b 03       		.byte	0x3
 6274 163c 00000000 		.4byte	drawcharglyph
 6275 1640 1D       		.uleb128 0x1d
 6276 1641 02       		.uleb128 0x2
 6277 1642 7D       		.byte	0x7d
 6278 1643 04       		.sleb128 4
 6279 1644 01       		.uleb128 0x1
 6280 1645 30       		.byte	0x30
 6281 1646 1D       		.uleb128 0x1d
 6282 1647 02       		.uleb128 0x2
 6283 1648 7D       		.byte	0x7d
 6284 1649 00       		.sleb128 0
 6285 164a 02       		.uleb128 0x2
 6286 164b 77       		.byte	0x77
 6287 164c 00       		.sleb128 0
 6288 164d 00       		.byte	0
 6289 164e 1C       		.uleb128 0x1c
ARM GAS  /tmp/cclL2Tth.s 			page 112


 6290 164f 6C000000 		.4byte	.LVL236
 6291 1653 091C0000 		.4byte	0x1c09
 6292 1657 1D       		.uleb128 0x1d
 6293 1658 01       		.uleb128 0x1
 6294 1659 50       		.byte	0x50
 6295 165a 02       		.uleb128 0x2
 6296 165b 74       		.byte	0x74
 6297 165c 00       		.sleb128 0
 6298 165d 00       		.byte	0
 6299 165e 00       		.byte	0
 6300 165f 2A       		.uleb128 0x2a
 6301 1660 16050000 		.4byte	.LASF135
 6302 1664 01       		.byte	0x1
 6303 1665 500B     		.2byte	0xb50
 6304 1667 00000000 		.4byte	.LFB145
 6305 166b 24010000 		.4byte	.LFE145-.LFB145
 6306 166f 01       		.uleb128 0x1
 6307 1670 9C       		.byte	0x9c
 6308 1671 7C170000 		.4byte	0x177c
 6309 1675 1A       		.uleb128 0x1a
 6310 1676 6700     		.ascii	"g\000"
 6311 1678 01       		.byte	0x1
 6312 1679 500B     		.2byte	0xb50
 6313 167b A1050000 		.4byte	0x5a1
 6314 167f 9A160000 		.4byte	.LLST126
 6315 1683 1A       		.uleb128 0x1a
 6316 1684 7800     		.ascii	"x\000"
 6317 1686 01       		.byte	0x1
 6318 1687 500B     		.2byte	0xb50
 6319 1689 21010000 		.4byte	0x121
 6320 168d B8160000 		.4byte	.LLST127
 6321 1691 1A       		.uleb128 0x1a
 6322 1692 7900     		.ascii	"y\000"
 6323 1694 01       		.byte	0x1
 6324 1695 500B     		.2byte	0xb50
 6325 1697 21010000 		.4byte	0x121
 6326 169b D9160000 		.4byte	.LLST128
 6327 169f 1A       		.uleb128 0x1a
 6328 16a0 73747200 		.ascii	"str\000"
 6329 16a4 01       		.byte	0x1
 6330 16a5 500B     		.2byte	0xb50
 6331 16a7 FF000000 		.4byte	0xff
 6332 16ab FA160000 		.4byte	.LLST129
 6333 16af 1B       		.uleb128 0x1b
 6334 16b0 6A080000 		.4byte	.LASF87
 6335 16b4 01       		.byte	0x1
 6336 16b5 500B     		.2byte	0xb50
 6337 16b7 92010000 		.4byte	0x192
 6338 16bb 23170000 		.4byte	.LLST130
 6339 16bf 1B       		.uleb128 0x1b
 6340 16c0 6B070000 		.4byte	.LASF86
 6341 16c4 01       		.byte	0x1
 6342 16c5 500B     		.2byte	0xb50
 6343 16c7 C4030000 		.4byte	0x3c4
 6344 16cb 43170000 		.4byte	.LLST131
 6345 16cf 1B       		.uleb128 0x1b
 6346 16d0 BF030000 		.4byte	.LASF88
ARM GAS  /tmp/cclL2Tth.s 			page 113


 6347 16d4 01       		.byte	0x1
 6348 16d5 500B     		.2byte	0xb50
 6349 16d7 C4030000 		.4byte	0x3c4
 6350 16db 63170000 		.4byte	.LLST132
 6351 16df 36       		.uleb128 0x36
 6352 16e0 1D060000 		.4byte	0x61d
 6353 16e4 D2000000 		.4byte	.LBB146
 6354 16e8 06000000 		.4byte	.LBE146-.LBB146
 6355 16ec 01       		.byte	0x1
 6356 16ed 5D0B     		.2byte	0xb5d
 6357 16ef 0D170000 		.4byte	0x170d
 6358 16f3 20       		.uleb128 0x20
 6359 16f4 29060000 		.4byte	0x629
 6360 16f8 83170000 		.4byte	.LLST133
 6361 16fc 1C       		.uleb128 0x1c
 6362 16fd D8000000 		.4byte	.LVL245
 6363 1701 F71B0000 		.4byte	0x1bf7
 6364 1705 1D       		.uleb128 0x1d
 6365 1706 01       		.uleb128 0x1
 6366 1707 50       		.byte	0x50
 6367 1708 02       		.uleb128 0x2
 6368 1709 74       		.byte	0x74
 6369 170a 00       		.sleb128 0
 6370 170b 00       		.byte	0
 6371 170c 00       		.byte	0
 6372 170d 26       		.uleb128 0x26
 6373 170e 26000000 		.4byte	.LVL243
 6374 1712 801C0000 		.4byte	0x1c80
 6375 1716 31170000 		.4byte	0x1731
 6376 171a 1D       		.uleb128 0x1d
 6377 171b 01       		.uleb128 0x1
 6378 171c 53       		.byte	0x53
 6379 171d 01       		.uleb128 0x1
 6380 171e 30       		.byte	0x30
 6381 171f 1D       		.uleb128 0x1d
 6382 1720 01       		.uleb128 0x1
 6383 1721 52       		.byte	0x52
 6384 1722 01       		.uleb128 0x1
 6385 1723 30       		.byte	0x30
 6386 1724 1D       		.uleb128 0x1d
 6387 1725 01       		.uleb128 0x1
 6388 1726 51       		.byte	0x51
 6389 1727 02       		.uleb128 0x2
 6390 1728 79       		.byte	0x79
 6391 1729 00       		.sleb128 0
 6392 172a 1D       		.uleb128 0x1d
 6393 172b 01       		.uleb128 0x1
 6394 172c 50       		.byte	0x50
 6395 172d 02       		.uleb128 0x2
 6396 172e 77       		.byte	0x77
 6397 172f 00       		.sleb128 0
 6398 1730 00       		.byte	0
 6399 1731 26       		.uleb128 0x26
 6400 1732 F6000000 		.4byte	.LVL246
 6401 1736 A41C0000 		.4byte	0x1ca4
 6402 173a 6B170000 		.4byte	0x176b
 6403 173e 1D       		.uleb128 0x1d
ARM GAS  /tmp/cclL2Tth.s 			page 114


 6404 173f 01       		.uleb128 0x1
 6405 1740 53       		.byte	0x53
 6406 1741 01       		.uleb128 0x1
 6407 1742 30       		.byte	0x30
 6408 1743 1D       		.uleb128 0x1d
 6409 1744 01       		.uleb128 0x1
 6410 1745 52       		.byte	0x52
 6411 1746 02       		.uleb128 0x2
 6412 1747 75       		.byte	0x75
 6413 1748 00       		.sleb128 0
 6414 1749 1D       		.uleb128 0x1d
 6415 174a 01       		.uleb128 0x1
 6416 174b 50       		.byte	0x50
 6417 174c 02       		.uleb128 0x2
 6418 174d 77       		.byte	0x77
 6419 174e 00       		.sleb128 0
 6420 174f 1D       		.uleb128 0x1d
 6421 1750 02       		.uleb128 0x2
 6422 1751 7D       		.byte	0x7d
 6423 1752 0C       		.sleb128 12
 6424 1753 02       		.uleb128 0x2
 6425 1754 74       		.byte	0x74
 6426 1755 00       		.sleb128 0
 6427 1756 1D       		.uleb128 0x1d
 6428 1757 02       		.uleb128 0x2
 6429 1758 7D       		.byte	0x7d
 6430 1759 08       		.sleb128 8
 6431 175a 02       		.uleb128 0x2
 6432 175b 76       		.byte	0x76
 6433 175c 00       		.sleb128 0
 6434 175d 1D       		.uleb128 0x1d
 6435 175e 02       		.uleb128 0x2
 6436 175f 7D       		.byte	0x7d
 6437 1760 04       		.sleb128 4
 6438 1761 01       		.uleb128 0x1
 6439 1762 30       		.byte	0x30
 6440 1763 1D       		.uleb128 0x1d
 6441 1764 02       		.uleb128 0x2
 6442 1765 7D       		.byte	0x7d
 6443 1766 00       		.sleb128 0
 6444 1767 02       		.uleb128 0x2
 6445 1768 79       		.byte	0x79
 6446 1769 00       		.sleb128 0
 6447 176a 00       		.byte	0
 6448 176b 1C       		.uleb128 0x1c
 6449 176c 02010000 		.4byte	.LVL247
 6450 1770 091C0000 		.4byte	0x1c09
 6451 1774 1D       		.uleb128 0x1d
 6452 1775 01       		.uleb128 0x1
 6453 1776 50       		.byte	0x50
 6454 1777 02       		.uleb128 0x2
 6455 1778 74       		.byte	0x74
 6456 1779 00       		.sleb128 0
 6457 177a 00       		.byte	0
 6458 177b 00       		.byte	0
 6459 177c 2A       		.uleb128 0x2a
 6460 177d 98070000 		.4byte	.LASF136
ARM GAS  /tmp/cclL2Tth.s 			page 115


 6461 1781 01       		.byte	0x1
 6462 1782 650B     		.2byte	0xb65
 6463 1784 00000000 		.4byte	.LFB146
 6464 1788 A8000000 		.4byte	.LFE146-.LFB146
 6465 178c 01       		.uleb128 0x1
 6466 178d 9C       		.byte	0x9c
 6467 178e 61180000 		.4byte	0x1861
 6468 1792 1A       		.uleb128 0x1a
 6469 1793 6700     		.ascii	"g\000"
 6470 1795 01       		.byte	0x1
 6471 1796 650B     		.2byte	0xb65
 6472 1798 A1050000 		.4byte	0x5a1
 6473 179c 96170000 		.4byte	.LLST134
 6474 17a0 1A       		.uleb128 0x1a
 6475 17a1 7800     		.ascii	"x\000"
 6476 17a3 01       		.byte	0x1
 6477 17a4 650B     		.2byte	0xb65
 6478 17a6 21010000 		.4byte	0x121
 6479 17aa B4170000 		.4byte	.LLST135
 6480 17ae 1A       		.uleb128 0x1a
 6481 17af 7900     		.ascii	"y\000"
 6482 17b1 01       		.byte	0x1
 6483 17b2 650B     		.2byte	0xb65
 6484 17b4 21010000 		.4byte	0x121
 6485 17b8 09180000 		.4byte	.LLST136
 6486 17bc 1A       		.uleb128 0x1a
 6487 17bd 637800   		.ascii	"cx\000"
 6488 17c0 01       		.byte	0x1
 6489 17c1 650B     		.2byte	0xb65
 6490 17c3 21010000 		.4byte	0x121
 6491 17c7 85180000 		.4byte	.LLST137
 6492 17cb 1A       		.uleb128 0x1a
 6493 17cc 637900   		.ascii	"cy\000"
 6494 17cf 01       		.byte	0x1
 6495 17d0 650B     		.2byte	0xb65
 6496 17d2 21010000 		.4byte	0x121
 6497 17d6 BF180000 		.4byte	.LLST138
 6498 17da 1A       		.uleb128 0x1a
 6499 17db 73747200 		.ascii	"str\000"
 6500 17df 01       		.byte	0x1
 6501 17e0 650B     		.2byte	0xb65
 6502 17e2 FF000000 		.4byte	0xff
 6503 17e6 DF180000 		.4byte	.LLST139
 6504 17ea 1B       		.uleb128 0x1b
 6505 17eb 6A080000 		.4byte	.LASF87
 6506 17ef 01       		.byte	0x1
 6507 17f0 650B     		.2byte	0xb65
 6508 17f2 92010000 		.4byte	0x192
 6509 17f6 FF180000 		.4byte	.LLST140
 6510 17fa 1B       		.uleb128 0x1b
 6511 17fb 6B070000 		.4byte	.LASF86
 6512 17ff 01       		.byte	0x1
 6513 1800 650B     		.2byte	0xb65
 6514 1802 C4030000 		.4byte	0x3c4
 6515 1806 1F190000 		.4byte	.LLST141
 6516 180a 1B       		.uleb128 0x1b
 6517 180b FE070000 		.4byte	.LASF30
ARM GAS  /tmp/cclL2Tth.s 			page 116


 6518 180f 01       		.byte	0x1
 6519 1810 650B     		.2byte	0xb65
 6520 1812 4B010000 		.4byte	0x14b
 6521 1816 3F190000 		.4byte	.LLST142
 6522 181a 26       		.uleb128 0x26
 6523 181b 74000000 		.4byte	.LVL256
 6524 181f A41C0000 		.4byte	0x1ca4
 6525 1823 50180000 		.4byte	0x1850
 6526 1827 1D       		.uleb128 0x1d
 6527 1828 01       		.uleb128 0x1
 6528 1829 53       		.byte	0x53
 6529 182a 02       		.uleb128 0x2
 6530 182b 76       		.byte	0x76
 6531 182c 00       		.sleb128 0
 6532 182d 1D       		.uleb128 0x1d
 6533 182e 01       		.uleb128 0x1
 6534 182f 50       		.byte	0x50
 6535 1830 02       		.uleb128 0x2
 6536 1831 75       		.byte	0x75
 6537 1832 00       		.sleb128 0
 6538 1833 1D       		.uleb128 0x1d
 6539 1834 02       		.uleb128 0x2
 6540 1835 7D       		.byte	0x7d
 6541 1836 0C       		.sleb128 12
 6542 1837 02       		.uleb128 0x2
 6543 1838 74       		.byte	0x74
 6544 1839 00       		.sleb128 0
 6545 183a 1D       		.uleb128 0x1d
 6546 183b 02       		.uleb128 0x2
 6547 183c 7D       		.byte	0x7d
 6548 183d 08       		.sleb128 8
 6549 183e 02       		.uleb128 0x2
 6550 183f 77       		.byte	0x77
 6551 1840 00       		.sleb128 0
 6552 1841 1D       		.uleb128 0x1d
 6553 1842 02       		.uleb128 0x2
 6554 1843 7D       		.byte	0x7d
 6555 1844 04       		.sleb128 4
 6556 1845 01       		.uleb128 0x1
 6557 1846 30       		.byte	0x30
 6558 1847 1D       		.uleb128 0x1d
 6559 1848 02       		.uleb128 0x2
 6560 1849 7D       		.byte	0x7d
 6561 184a 00       		.sleb128 0
 6562 184b 03       		.uleb128 0x3
 6563 184c 91       		.byte	0x91
 6564 184d 04       		.sleb128 4
 6565 184e 06       		.byte	0x6
 6566 184f 00       		.byte	0
 6567 1850 1C       		.uleb128 0x1c
 6568 1851 80000000 		.4byte	.LVL257
 6569 1855 091C0000 		.4byte	0x1c09
 6570 1859 1D       		.uleb128 0x1d
 6571 185a 01       		.uleb128 0x1
 6572 185b 50       		.byte	0x50
 6573 185c 02       		.uleb128 0x2
 6574 185d 74       		.byte	0x74
ARM GAS  /tmp/cclL2Tth.s 			page 117


 6575 185e 00       		.sleb128 0
 6576 185f 00       		.byte	0
 6577 1860 00       		.byte	0
 6578 1861 2A       		.uleb128 0x2a
 6579 1862 5E090000 		.4byte	.LASF137
 6580 1866 01       		.byte	0x1
 6581 1867 820B     		.2byte	0xb82
 6582 1869 00000000 		.4byte	.LFB147
 6583 186d 54010000 		.4byte	.LFE147-.LFB147
 6584 1871 01       		.uleb128 0x1
 6585 1872 9C       		.byte	0x9c
 6586 1873 99190000 		.4byte	0x1999
 6587 1877 1A       		.uleb128 0x1a
 6588 1878 6700     		.ascii	"g\000"
 6589 187a 01       		.byte	0x1
 6590 187b 820B     		.2byte	0xb82
 6591 187d A1050000 		.4byte	0x5a1
 6592 1881 5F190000 		.4byte	.LLST143
 6593 1885 1A       		.uleb128 0x1a
 6594 1886 7800     		.ascii	"x\000"
 6595 1888 01       		.byte	0x1
 6596 1889 820B     		.2byte	0xb82
 6597 188b 21010000 		.4byte	0x121
 6598 188f 7D190000 		.4byte	.LLST144
 6599 1893 1A       		.uleb128 0x1a
 6600 1894 7900     		.ascii	"y\000"
 6601 1896 01       		.byte	0x1
 6602 1897 820B     		.2byte	0xb82
 6603 1899 21010000 		.4byte	0x121
 6604 189d FA190000 		.4byte	.LLST145
 6605 18a1 1A       		.uleb128 0x1a
 6606 18a2 637800   		.ascii	"cx\000"
 6607 18a5 01       		.byte	0x1
 6608 18a6 820B     		.2byte	0xb82
 6609 18a8 21010000 		.4byte	0x121
 6610 18ac A81A0000 		.4byte	.LLST146
 6611 18b0 1A       		.uleb128 0x1a
 6612 18b1 637900   		.ascii	"cy\000"
 6613 18b4 01       		.byte	0x1
 6614 18b5 820B     		.2byte	0xb82
 6615 18b7 21010000 		.4byte	0x121
 6616 18bb EF1A0000 		.4byte	.LLST147
 6617 18bf 1A       		.uleb128 0x1a
 6618 18c0 73747200 		.ascii	"str\000"
 6619 18c4 01       		.byte	0x1
 6620 18c5 820B     		.2byte	0xb82
 6621 18c7 FF000000 		.4byte	0xff
 6622 18cb 0F1B0000 		.4byte	.LLST148
 6623 18cf 1B       		.uleb128 0x1b
 6624 18d0 6A080000 		.4byte	.LASF87
 6625 18d4 01       		.byte	0x1
 6626 18d5 820B     		.2byte	0xb82
 6627 18d7 92010000 		.4byte	0x192
 6628 18db 2F1B0000 		.4byte	.LLST149
 6629 18df 1B       		.uleb128 0x1b
 6630 18e0 6B070000 		.4byte	.LASF86
 6631 18e4 01       		.byte	0x1
ARM GAS  /tmp/cclL2Tth.s 			page 118


 6632 18e5 820B     		.2byte	0xb82
 6633 18e7 C4030000 		.4byte	0x3c4
 6634 18eb 4F1B0000 		.4byte	.LLST150
 6635 18ef 1B       		.uleb128 0x1b
 6636 18f0 BF030000 		.4byte	.LASF88
 6637 18f4 01       		.byte	0x1
 6638 18f5 820B     		.2byte	0xb82
 6639 18f7 C4030000 		.4byte	0x3c4
 6640 18fb 6F1B0000 		.4byte	.LLST151
 6641 18ff 1B       		.uleb128 0x1b
 6642 1900 FE070000 		.4byte	.LASF30
 6643 1904 01       		.byte	0x1
 6644 1905 820B     		.2byte	0xb82
 6645 1907 4B010000 		.4byte	0x14b
 6646 190b 8F1B0000 		.4byte	.LLST152
 6647 190f 36       		.uleb128 0x36
 6648 1910 1D060000 		.4byte	0x61d
 6649 1914 C6000000 		.4byte	.LBB148
 6650 1918 06000000 		.4byte	.LBE148-.LBB148
 6651 191c 01       		.byte	0x1
 6652 191d 910B     		.2byte	0xb91
 6653 191f 3D190000 		.4byte	0x193d
 6654 1923 20       		.uleb128 0x20
 6655 1924 29060000 		.4byte	0x629
 6656 1928 AF1B0000 		.4byte	.LLST153
 6657 192c 1C       		.uleb128 0x1c
 6658 192d CC000000 		.4byte	.LVL271
 6659 1931 F71B0000 		.4byte	0x1bf7
 6660 1935 1D       		.uleb128 0x1d
 6661 1936 01       		.uleb128 0x1
 6662 1937 50       		.byte	0x50
 6663 1938 02       		.uleb128 0x2
 6664 1939 74       		.byte	0x74
 6665 193a 00       		.sleb128 0
 6666 193b 00       		.byte	0
 6667 193c 00       		.byte	0
 6668 193d 26       		.uleb128 0x26
 6669 193e 00010000 		.4byte	.LVL276
 6670 1942 A41C0000 		.4byte	0x1ca4
 6671 1946 88190000 		.4byte	0x1988
 6672 194a 1D       		.uleb128 0x1d
 6673 194b 01       		.uleb128 0x1
 6674 194c 53       		.byte	0x53
 6675 194d 04       		.uleb128 0x4
 6676 194e 91       		.byte	0x91
 6677 194f 48       		.sleb128 -56
 6678 1950 94       		.byte	0x94
 6679 1951 01       		.byte	0x1
 6680 1952 1D       		.uleb128 0x1d
 6681 1953 01       		.uleb128 0x1
 6682 1954 52       		.byte	0x52
 6683 1955 07       		.uleb128 0x7
 6684 1956 76       		.byte	0x76
 6685 1957 00       		.sleb128 0
 6686 1958 31       		.byte	0x31
 6687 1959 26       		.byte	0x26
 6688 195a 79       		.byte	0x79
ARM GAS  /tmp/cclL2Tth.s 			page 119


 6689 195b 00       		.sleb128 0
 6690 195c 22       		.byte	0x22
 6691 195d 1D       		.uleb128 0x1d
 6692 195e 01       		.uleb128 0x1
 6693 195f 51       		.byte	0x51
 6694 1960 02       		.uleb128 0x2
 6695 1961 7B       		.byte	0x7b
 6696 1962 00       		.sleb128 0
 6697 1963 1D       		.uleb128 0x1d
 6698 1964 01       		.uleb128 0x1
 6699 1965 50       		.byte	0x50
 6700 1966 03       		.uleb128 0x3
 6701 1967 91       		.byte	0x91
 6702 1968 08       		.sleb128 8
 6703 1969 06       		.byte	0x6
 6704 196a 1D       		.uleb128 0x1d
 6705 196b 02       		.uleb128 0x2
 6706 196c 7D       		.byte	0x7d
 6707 196d 0C       		.sleb128 12
 6708 196e 02       		.uleb128 0x2
 6709 196f 74       		.byte	0x74
 6710 1970 00       		.sleb128 0
 6711 1971 1D       		.uleb128 0x1d
 6712 1972 02       		.uleb128 0x2
 6713 1973 7D       		.byte	0x7d
 6714 1974 08       		.sleb128 8
 6715 1975 02       		.uleb128 0x2
 6716 1976 75       		.byte	0x75
 6717 1977 00       		.sleb128 0
 6718 1978 1D       		.uleb128 0x1d
 6719 1979 02       		.uleb128 0x2
 6720 197a 7D       		.byte	0x7d
 6721 197b 04       		.sleb128 4
 6722 197c 02       		.uleb128 0x2
 6723 197d 77       		.byte	0x77
 6724 197e 00       		.sleb128 0
 6725 197f 1D       		.uleb128 0x1d
 6726 1980 02       		.uleb128 0x2
 6727 1981 7D       		.byte	0x7d
 6728 1982 00       		.sleb128 0
 6729 1983 03       		.uleb128 0x3
 6730 1984 91       		.byte	0x91
 6731 1985 04       		.sleb128 4
 6732 1986 06       		.byte	0x6
 6733 1987 00       		.byte	0
 6734 1988 1C       		.uleb128 0x1c
 6735 1989 0C010000 		.4byte	.LVL277
 6736 198d 091C0000 		.4byte	0x1c09
 6737 1991 1D       		.uleb128 0x1d
 6738 1992 01       		.uleb128 0x1
 6739 1993 50       		.byte	0x50
 6740 1994 02       		.uleb128 0x2
 6741 1995 74       		.byte	0x74
 6742 1996 00       		.sleb128 0
 6743 1997 00       		.byte	0
 6744 1998 00       		.byte	0
 6745 1999 29       		.uleb128 0x29
ARM GAS  /tmp/cclL2Tth.s 			page 120


 6746 199a EC030000 		.4byte	.LASF139
 6747 199e 01       		.byte	0x1
 6748 199f A90B     		.2byte	0xba9
 6749 19a1 21010000 		.4byte	0x121
 6750 19a5 00000000 		.4byte	.LFB148
 6751 19a9 38000000 		.4byte	.LFE148-.LFB148
 6752 19ad 01       		.uleb128 0x1
 6753 19ae 9C       		.byte	0x9c
 6754 19af D2190000 		.4byte	0x19d2
 6755 19b3 1B       		.uleb128 0x1b
 6756 19b4 6A080000 		.4byte	.LASF87
 6757 19b8 01       		.byte	0x1
 6758 19b9 A90B     		.2byte	0xba9
 6759 19bb 92010000 		.4byte	0x192
 6760 19bf CD1B0000 		.4byte	.LLST154
 6761 19c3 3A       		.uleb128 0x3a
 6762 19c4 86070000 		.4byte	.LASF140
 6763 19c8 01       		.byte	0x1
 6764 19c9 A90B     		.2byte	0xba9
 6765 19cb 87010000 		.4byte	0x187
 6766 19cf 01       		.uleb128 0x1
 6767 19d0 51       		.byte	0x51
 6768 19d1 00       		.byte	0
 6769 19d2 29       		.uleb128 0x29
 6770 19d3 8B050000 		.4byte	.LASF141
 6771 19d7 01       		.byte	0x1
 6772 19d8 B60B     		.2byte	0xbb6
 6773 19da 21010000 		.4byte	0x121
 6774 19de 00000000 		.4byte	.LFB149
 6775 19e2 10000000 		.4byte	.LFE149-.LFB149
 6776 19e6 01       		.uleb128 0x1
 6777 19e7 9C       		.byte	0x9c
 6778 19e8 1C1A0000 		.4byte	0x1a1c
 6779 19ec 1A       		.uleb128 0x1a
 6780 19ed 6300     		.ascii	"c\000"
 6781 19ef 01       		.byte	0x1
 6782 19f0 B60B     		.2byte	0xbb6
 6783 19f2 0A010000 		.4byte	0x10a
 6784 19f6 6B1C0000 		.4byte	.LLST155
 6785 19fa 1B       		.uleb128 0x1b
 6786 19fb 6A080000 		.4byte	.LASF87
 6787 19ff 01       		.byte	0x1
 6788 1a00 B60B     		.2byte	0xbb6
 6789 1a02 92010000 		.4byte	0x192
 6790 1a06 8C1C0000 		.4byte	.LLST156
 6791 1a0a 1C       		.uleb128 0x1c
 6792 1a0b 0C000000 		.4byte	.LVL299
 6793 1a0f 661C0000 		.4byte	0x1c66
 6794 1a13 1D       		.uleb128 0x1d
 6795 1a14 01       		.uleb128 0x1
 6796 1a15 50       		.byte	0x50
 6797 1a16 03       		.uleb128 0x3
 6798 1a17 F3       		.byte	0xf3
 6799 1a18 01       		.uleb128 0x1
 6800 1a19 51       		.byte	0x51
 6801 1a1a 00       		.byte	0
 6802 1a1b 00       		.byte	0
ARM GAS  /tmp/cclL2Tth.s 			page 121


 6803 1a1c 29       		.uleb128 0x29
 6804 1a1d B4050000 		.4byte	.LASF142
 6805 1a21 01       		.byte	0x1
 6806 1a22 BB0B     		.2byte	0xbbb
 6807 1a24 21010000 		.4byte	0x121
 6808 1a28 00000000 		.4byte	.LFB150
 6809 1a2c 14000000 		.4byte	.LFE150-.LFB150
 6810 1a30 01       		.uleb128 0x1
 6811 1a31 9C       		.byte	0x9c
 6812 1a32 791A0000 		.4byte	0x1a79
 6813 1a36 1A       		.uleb128 0x1a
 6814 1a37 73747200 		.ascii	"str\000"
 6815 1a3b 01       		.byte	0x1
 6816 1a3c BB0B     		.2byte	0xbbb
 6817 1a3e FF000000 		.4byte	0xff
 6818 1a42 B81C0000 		.4byte	.LLST157
 6819 1a46 1B       		.uleb128 0x1b
 6820 1a47 6A080000 		.4byte	.LASF87
 6821 1a4b 01       		.byte	0x1
 6822 1a4c BB0B     		.2byte	0xbbb
 6823 1a4e 92010000 		.4byte	0x192
 6824 1a52 EF1C0000 		.4byte	.LLST158
 6825 1a56 27       		.uleb128 0x27
 6826 1a57 14000000 		.4byte	.LVL304
 6827 1a5b 801C0000 		.4byte	0x1c80
 6828 1a5f 1D       		.uleb128 0x1d
 6829 1a60 01       		.uleb128 0x1
 6830 1a61 53       		.byte	0x53
 6831 1a62 01       		.uleb128 0x1
 6832 1a63 30       		.byte	0x30
 6833 1a64 1D       		.uleb128 0x1d
 6834 1a65 01       		.uleb128 0x1
 6835 1a66 52       		.byte	0x52
 6836 1a67 01       		.uleb128 0x1
 6837 1a68 30       		.byte	0x30
 6838 1a69 1D       		.uleb128 0x1d
 6839 1a6a 01       		.uleb128 0x1
 6840 1a6b 51       		.byte	0x51
 6841 1a6c 03       		.uleb128 0x3
 6842 1a6d F3       		.byte	0xf3
 6843 1a6e 01       		.uleb128 0x1
 6844 1a6f 50       		.byte	0x50
 6845 1a70 1D       		.uleb128 0x1d
 6846 1a71 01       		.uleb128 0x1
 6847 1a72 50       		.byte	0x50
 6848 1a73 03       		.uleb128 0x3
 6849 1a74 F3       		.byte	0xf3
 6850 1a75 01       		.uleb128 0x1
 6851 1a76 51       		.byte	0x51
 6852 1a77 00       		.byte	0
 6853 1a78 00       		.byte	0
 6854 1a79 29       		.uleb128 0x29
 6855 1a7a 17070000 		.4byte	.LASF143
 6856 1a7e 01       		.byte	0x1
 6857 1a7f C10B     		.2byte	0xbc1
 6858 1a81 C4030000 		.4byte	0x3c4
 6859 1a85 00000000 		.4byte	.LFB151
ARM GAS  /tmp/cclL2Tth.s 			page 122


 6860 1a89 5A000000 		.4byte	.LFE151-.LFB151
 6861 1a8d 01       		.uleb128 0x1
 6862 1a8e 9C       		.byte	0x9c
 6863 1a8f 0C1B0000 		.4byte	0x1b0c
 6864 1a93 1A       		.uleb128 0x1a
 6865 1a94 666700   		.ascii	"fg\000"
 6866 1a97 01       		.byte	0x1
 6867 1a98 C10B     		.2byte	0xbc1
 6868 1a9a C4030000 		.4byte	0x3c4
 6869 1a9e 1B1D0000 		.4byte	.LLST159
 6870 1aa2 1A       		.uleb128 0x1a
 6871 1aa3 626700   		.ascii	"bg\000"
 6872 1aa6 01       		.byte	0x1
 6873 1aa7 C10B     		.2byte	0xbc1
 6874 1aa9 C4030000 		.4byte	0x3c4
 6875 1aad 3C1D0000 		.4byte	.LLST160
 6876 1ab1 1B       		.uleb128 0x1b
 6877 1ab2 36010000 		.4byte	.LASF101
 6878 1ab6 01       		.byte	0x1
 6879 1ab7 C10B     		.2byte	0xbc1
 6880 1ab9 A2000000 		.4byte	0xa2
 6881 1abd 5D1D0000 		.4byte	.LLST161
 6882 1ac1 3B       		.uleb128 0x3b
 6883 1ac2 1F030000 		.4byte	.LASF144
 6884 1ac6 01       		.byte	0x1
 6885 1ac7 C30B     		.2byte	0xbc3
 6886 1ac9 B8000000 		.4byte	0xb8
 6887 1acd 7E1D0000 		.4byte	.LLST162
 6888 1ad1 3B       		.uleb128 0x3b
 6889 1ad2 26020000 		.4byte	.LASF145
 6890 1ad6 01       		.byte	0x1
 6891 1ad7 C40B     		.2byte	0xbc4
 6892 1ad9 B8000000 		.4byte	0xb8
 6893 1add 911D0000 		.4byte	.LLST163
 6894 1ae1 35       		.uleb128 0x35
 6895 1ae2 7200     		.ascii	"r\000"
 6896 1ae4 01       		.byte	0x1
 6897 1ae5 C50B     		.2byte	0xbc5
 6898 1ae7 B8000000 		.4byte	0xb8
 6899 1aeb A41D0000 		.4byte	.LLST164
 6900 1aef 35       		.uleb128 0x35
 6901 1af0 6700     		.ascii	"g\000"
 6902 1af2 01       		.byte	0x1
 6903 1af3 C50B     		.2byte	0xbc5
 6904 1af5 B8000000 		.4byte	0xb8
 6905 1af9 BD1D0000 		.4byte	.LLST165
 6906 1afd 35       		.uleb128 0x35
 6907 1afe 6200     		.ascii	"b\000"
 6908 1b00 01       		.byte	0x1
 6909 1b01 C50B     		.2byte	0xbc5
 6910 1b03 B8000000 		.4byte	0xb8
 6911 1b07 F31D0000 		.4byte	.LLST166
 6912 1b0b 00       		.byte	0
 6913 1b0c 29       		.uleb128 0x29
 6914 1b0d 71030000 		.4byte	.LASF146
 6915 1b11 01       		.byte	0x1
 6916 1b12 D60B     		.2byte	0xbd6
ARM GAS  /tmp/cclL2Tth.s 			page 123


 6917 1b14 C4030000 		.4byte	0x3c4
 6918 1b18 00000000 		.4byte	.LFB152
 6919 1b1c 36000000 		.4byte	.LFE152-.LFB152
 6920 1b20 01       		.uleb128 0x1
 6921 1b21 9C       		.byte	0x9c
 6922 1b22 551B0000 		.4byte	0x1b55
 6923 1b26 1B       		.uleb128 0x1b
 6924 1b27 6B070000 		.4byte	.LASF86
 6925 1b2b 01       		.byte	0x1
 6926 1b2c D60B     		.2byte	0xbd6
 6927 1b2e C4030000 		.4byte	0x3c4
 6928 1b32 1B1E0000 		.4byte	.LLST167
 6929 1b36 2D       		.uleb128 0x2d
 6930 1b37 7200     		.ascii	"r\000"
 6931 1b39 01       		.byte	0x1
 6932 1b3a D70B     		.2byte	0xbd7
 6933 1b3c B8000000 		.4byte	0xb8
 6934 1b40 2D       		.uleb128 0x2d
 6935 1b41 6700     		.ascii	"g\000"
 6936 1b43 01       		.byte	0x1
 6937 1b44 D70B     		.2byte	0xbd7
 6938 1b46 B8000000 		.4byte	0xb8
 6939 1b4a 2D       		.uleb128 0x2d
 6940 1b4b 6200     		.ascii	"b\000"
 6941 1b4d 01       		.byte	0x1
 6942 1b4e D70B     		.2byte	0xbd7
 6943 1b50 B8000000 		.4byte	0xb8
 6944 1b54 00       		.byte	0
 6945 1b55 33       		.uleb128 0x33
 6946 1b56 22030000 		.4byte	0x322
 6947 1b5a 651B0000 		.4byte	0x1b65
 6948 1b5e 34       		.uleb128 0x34
 6949 1b5f F8000000 		.4byte	0xf8
 6950 1b63 00       		.byte	0
 6951 1b64 00       		.byte	0
 6952 1b65 3C       		.uleb128 0x3c
 6953 1b66 F3060000 		.4byte	.LASF147
 6954 1b6a 01       		.byte	0x1
 6955 1b6b 38       		.byte	0x38
 6956 1b6c 551B0000 		.4byte	0x1b55
 6957 1b70 05       		.uleb128 0x5
 6958 1b71 03       		.byte	0x3
 6959 1b72 00000000 		.4byte	GDisplayArray
 6960 1b76 3D       		.uleb128 0x3d
 6961 1b77 E4000000 		.4byte	.LASF148
 6962 1b7b 0C       		.byte	0xc
 6963 1b7c 9806     		.2byte	0x698
 6964 1b7e 11010000 		.4byte	0x111
 6965 1b82 3E       		.uleb128 0x3e
 6966 1b83 FF030000 		.4byte	.LASF149
 6967 1b87 01       		.byte	0x1
 6968 1b88 39       		.byte	0x39
 6969 1b89 A1050000 		.4byte	0x5a1
 6970 1b8d 05       		.uleb128 0x5
 6971 1b8e 03       		.byte	0x3
 6972 1b8f 00000000 		.4byte	GDISP
 6973 1b93 3F       		.uleb128 0x3f
ARM GAS  /tmp/cclL2Tth.s 			page 124


 6974 1b94 6F080000 		.4byte	.LASF158
 6975 1b98 07       		.byte	0x7
 6976 1b99 5D       		.byte	0x5d
 6977 1b9a A2000000 		.4byte	0xa2
 6978 1b9e C11B0000 		.4byte	0x1bc1
 6979 1ba2 11       		.uleb128 0x11
 6980 1ba3 9D010000 		.4byte	0x19d
 6981 1ba7 11       		.uleb128 0x11
 6982 1ba8 AD000000 		.4byte	0xad
 6983 1bac 11       		.uleb128 0x11
 6984 1bad AD000000 		.4byte	0xad
 6985 1bb1 11       		.uleb128 0x11
 6986 1bb2 AF040000 		.4byte	0x4af
 6987 1bb6 11       		.uleb128 0x11
 6988 1bb7 C5040000 		.4byte	0x4c5
 6989 1bbb 11       		.uleb128 0x11
 6990 1bbc F6000000 		.4byte	0xf6
 6991 1bc0 00       		.byte	0
 6992 1bc1 40       		.uleb128 0x40
 6993 1bc2 D6020000 		.4byte	.LASF151
 6994 1bc6 08       		.byte	0x8
 6995 1bc7 2101     		.2byte	0x121
 6996 1bc9 D31B0000 		.4byte	0x1bd3
 6997 1bcd 11       		.uleb128 0x11
 6998 1bce A1050000 		.4byte	0x5a1
 6999 1bd2 00       		.byte	0
 7000 1bd3 40       		.uleb128 0x40
 7001 1bd4 3C040000 		.4byte	.LASF152
 7002 1bd8 08       		.byte	0x8
 7003 1bd9 4201     		.2byte	0x142
 7004 1bdb E51B0000 		.4byte	0x1be5
 7005 1bdf 11       		.uleb128 0x11
 7006 1be0 A1050000 		.4byte	0x5a1
 7007 1be4 00       		.byte	0
 7008 1be5 40       		.uleb128 0x40
 7009 1be6 D6030000 		.4byte	.LASF153
 7010 1bea 08       		.byte	0x8
 7011 1beb 2C01     		.2byte	0x12c
 7012 1bed F71B0000 		.4byte	0x1bf7
 7013 1bf1 11       		.uleb128 0x11
 7014 1bf2 A1050000 		.4byte	0x5a1
 7015 1bf6 00       		.byte	0
 7016 1bf7 40       		.uleb128 0x40
 7017 1bf8 7D020000 		.4byte	.LASF154
 7018 1bfc 08       		.byte	0x8
 7019 1bfd 9201     		.2byte	0x192
 7020 1bff 091C0000 		.4byte	0x1c09
 7021 1c03 11       		.uleb128 0x11
 7022 1c04 A1050000 		.4byte	0x5a1
 7023 1c08 00       		.byte	0
 7024 1c09 40       		.uleb128 0x40
 7025 1c0a C1020000 		.4byte	.LASF155
 7026 1c0e 08       		.byte	0x8
 7027 1c0f 3601     		.2byte	0x136
 7028 1c11 1B1C0000 		.4byte	0x1c1b
 7029 1c15 11       		.uleb128 0x11
 7030 1c16 A1050000 		.4byte	0x5a1
ARM GAS  /tmp/cclL2Tth.s 			page 125


 7031 1c1a 00       		.byte	0
 7032 1c1b 40       		.uleb128 0x40
 7033 1c1c 4B010000 		.4byte	.LASF156
 7034 1c20 08       		.byte	0x8
 7035 1c21 A301     		.2byte	0x1a3
 7036 1c23 2D1C0000 		.4byte	0x1c2d
 7037 1c27 11       		.uleb128 0x11
 7038 1c28 A1050000 		.4byte	0x5a1
 7039 1c2c 00       		.byte	0
 7040 1c2d 40       		.uleb128 0x40
 7041 1c2e 40030000 		.4byte	.LASF157
 7042 1c32 08       		.byte	0x8
 7043 1c33 D201     		.2byte	0x1d2
 7044 1c35 3F1C0000 		.4byte	0x1c3f
 7045 1c39 11       		.uleb128 0x11
 7046 1c3a A1050000 		.4byte	0x5a1
 7047 1c3e 00       		.byte	0
 7048 1c3f 41       		.uleb128 0x41
 7049 1c40 93010000 		.4byte	.LASF159
 7050 1c44 08       		.byte	0x8
 7051 1c45 0401     		.2byte	0x104
 7052 1c47 D9000000 		.4byte	0xd9
 7053 1c4b 551C0000 		.4byte	0x1c55
 7054 1c4f 11       		.uleb128 0x11
 7055 1c50 A1050000 		.4byte	0x5a1
 7056 1c54 00       		.byte	0
 7057 1c55 42       		.uleb128 0x42
 7058 1c56 C7080000 		.4byte	.LASF160
 7059 1c5a 05       		.byte	0x5
 7060 1c5b 62       		.byte	0x62
 7061 1c5c 661C0000 		.4byte	0x1c66
 7062 1c60 11       		.uleb128 0x11
 7063 1c61 16010000 		.4byte	0x116
 7064 1c65 00       		.byte	0
 7065 1c66 3F       		.uleb128 0x3f
 7066 1c67 A3030000 		.4byte	.LASF161
 7067 1c6b 07       		.byte	0x7
 7068 1c6c 6C       		.byte	0x6c
 7069 1c6d A2000000 		.4byte	0xa2
 7070 1c71 801C0000 		.4byte	0x1c80
 7071 1c75 11       		.uleb128 0x11
 7072 1c76 9D010000 		.4byte	0x19d
 7073 1c7a 11       		.uleb128 0x11
 7074 1c7b AF040000 		.4byte	0x4af
 7075 1c7f 00       		.byte	0
 7076 1c80 3F       		.uleb128 0x3f
 7077 1c81 0B030000 		.4byte	.LASF162
 7078 1c85 0B       		.byte	0xb
 7079 1c86 2A       		.byte	0x2a
 7080 1c87 AD000000 		.4byte	0xad
 7081 1c8b A41C0000 		.4byte	0x1ca4
 7082 1c8f 11       		.uleb128 0x11
 7083 1c90 9D010000 		.4byte	0x19d
 7084 1c94 11       		.uleb128 0x11
 7085 1c95 BA040000 		.4byte	0x4ba
 7086 1c99 11       		.uleb128 0x11
 7087 1c9a B8000000 		.4byte	0xb8
ARM GAS  /tmp/cclL2Tth.s 			page 126


 7088 1c9e 11       		.uleb128 0x11
 7089 1c9f E4000000 		.4byte	0xe4
 7090 1ca3 00       		.byte	0
 7091 1ca4 43       		.uleb128 0x43
 7092 1ca5 C8050000 		.4byte	.LASF167
 7093 1ca9 0B       		.byte	0xb
 7094 1caa 38       		.byte	0x38
 7095 1cab 11       		.uleb128 0x11
 7096 1cac 9D010000 		.4byte	0x19d
 7097 1cb0 11       		.uleb128 0x11
 7098 1cb1 AD000000 		.4byte	0xad
 7099 1cb5 11       		.uleb128 0x11
 7100 1cb6 AD000000 		.4byte	0xad
 7101 1cba 11       		.uleb128 0x11
 7102 1cbb 3D050000 		.4byte	0x53d
 7103 1cbf 11       		.uleb128 0x11
 7104 1cc0 BA040000 		.4byte	0x4ba
 7105 1cc4 11       		.uleb128 0x11
 7106 1cc5 B8000000 		.4byte	0xb8
 7107 1cc9 11       		.uleb128 0x11
 7108 1cca 5C050000 		.4byte	0x55c
 7109 1cce 11       		.uleb128 0x11
 7110 1ccf F6000000 		.4byte	0xf6
 7111 1cd3 00       		.byte	0
 7112 1cd4 00       		.byte	0
 7113              		.section	.debug_abbrev,"",%progbits
 7114              	.Ldebug_abbrev0:
 7115 0000 01       		.uleb128 0x1
 7116 0001 11       		.uleb128 0x11
 7117 0002 01       		.byte	0x1
 7118 0003 25       		.uleb128 0x25
 7119 0004 0E       		.uleb128 0xe
 7120 0005 13       		.uleb128 0x13
 7121 0006 0B       		.uleb128 0xb
 7122 0007 03       		.uleb128 0x3
 7123 0008 0E       		.uleb128 0xe
 7124 0009 1B       		.uleb128 0x1b
 7125 000a 0E       		.uleb128 0xe
 7126 000b 55       		.uleb128 0x55
 7127 000c 17       		.uleb128 0x17
 7128 000d 11       		.uleb128 0x11
 7129 000e 01       		.uleb128 0x1
 7130 000f 10       		.uleb128 0x10
 7131 0010 17       		.uleb128 0x17
 7132 0011 00       		.byte	0
 7133 0012 00       		.byte	0
 7134 0013 02       		.uleb128 0x2
 7135 0014 24       		.uleb128 0x24
 7136 0015 00       		.byte	0
 7137 0016 0B       		.uleb128 0xb
 7138 0017 0B       		.uleb128 0xb
 7139 0018 3E       		.uleb128 0x3e
 7140 0019 0B       		.uleb128 0xb
 7141 001a 03       		.uleb128 0x3
 7142 001b 08       		.uleb128 0x8
 7143 001c 00       		.byte	0
 7144 001d 00       		.byte	0
ARM GAS  /tmp/cclL2Tth.s 			page 127


 7145 001e 03       		.uleb128 0x3
 7146 001f 24       		.uleb128 0x24
 7147 0020 00       		.byte	0
 7148 0021 0B       		.uleb128 0xb
 7149 0022 0B       		.uleb128 0xb
 7150 0023 3E       		.uleb128 0x3e
 7151 0024 0B       		.uleb128 0xb
 7152 0025 03       		.uleb128 0x3
 7153 0026 0E       		.uleb128 0xe
 7154 0027 00       		.byte	0
 7155 0028 00       		.byte	0
 7156 0029 04       		.uleb128 0x4
 7157 002a 16       		.uleb128 0x16
 7158 002b 00       		.byte	0
 7159 002c 03       		.uleb128 0x3
 7160 002d 0E       		.uleb128 0xe
 7161 002e 3A       		.uleb128 0x3a
 7162 002f 0B       		.uleb128 0xb
 7163 0030 3B       		.uleb128 0x3b
 7164 0031 0B       		.uleb128 0xb
 7165 0032 49       		.uleb128 0x49
 7166 0033 13       		.uleb128 0x13
 7167 0034 00       		.byte	0
 7168 0035 00       		.byte	0
 7169 0036 05       		.uleb128 0x5
 7170 0037 0F       		.uleb128 0xf
 7171 0038 00       		.byte	0
 7172 0039 0B       		.uleb128 0xb
 7173 003a 0B       		.uleb128 0xb
 7174 003b 00       		.byte	0
 7175 003c 00       		.byte	0
 7176 003d 06       		.uleb128 0x6
 7177 003e 0F       		.uleb128 0xf
 7178 003f 00       		.byte	0
 7179 0040 0B       		.uleb128 0xb
 7180 0041 0B       		.uleb128 0xb
 7181 0042 49       		.uleb128 0x49
 7182 0043 13       		.uleb128 0x13
 7183 0044 00       		.byte	0
 7184 0045 00       		.byte	0
 7185 0046 07       		.uleb128 0x7
 7186 0047 26       		.uleb128 0x26
 7187 0048 00       		.byte	0
 7188 0049 49       		.uleb128 0x49
 7189 004a 13       		.uleb128 0x13
 7190 004b 00       		.byte	0
 7191 004c 00       		.byte	0
 7192 004d 08       		.uleb128 0x8
 7193 004e 35       		.uleb128 0x35
 7194 004f 00       		.byte	0
 7195 0050 49       		.uleb128 0x49
 7196 0051 13       		.uleb128 0x13
 7197 0052 00       		.byte	0
 7198 0053 00       		.byte	0
 7199 0054 09       		.uleb128 0x9
 7200 0055 04       		.uleb128 0x4
 7201 0056 01       		.byte	0x1
ARM GAS  /tmp/cclL2Tth.s 			page 128


 7202 0057 03       		.uleb128 0x3
 7203 0058 0E       		.uleb128 0xe
 7204 0059 0B       		.uleb128 0xb
 7205 005a 0B       		.uleb128 0xb
 7206 005b 3A       		.uleb128 0x3a
 7207 005c 0B       		.uleb128 0xb
 7208 005d 3B       		.uleb128 0x3b
 7209 005e 0B       		.uleb128 0xb
 7210 005f 01       		.uleb128 0x1
 7211 0060 13       		.uleb128 0x13
 7212 0061 00       		.byte	0
 7213 0062 00       		.byte	0
 7214 0063 0A       		.uleb128 0xa
 7215 0064 28       		.uleb128 0x28
 7216 0065 00       		.byte	0
 7217 0066 03       		.uleb128 0x3
 7218 0067 0E       		.uleb128 0xe
 7219 0068 1C       		.uleb128 0x1c
 7220 0069 0D       		.uleb128 0xd
 7221 006a 00       		.byte	0
 7222 006b 00       		.byte	0
 7223 006c 0B       		.uleb128 0xb
 7224 006d 13       		.uleb128 0x13
 7225 006e 01       		.byte	0x1
 7226 006f 03       		.uleb128 0x3
 7227 0070 0E       		.uleb128 0xe
 7228 0071 0B       		.uleb128 0xb
 7229 0072 0B       		.uleb128 0xb
 7230 0073 3A       		.uleb128 0x3a
 7231 0074 0B       		.uleb128 0xb
 7232 0075 3B       		.uleb128 0x3b
 7233 0076 0B       		.uleb128 0xb
 7234 0077 01       		.uleb128 0x1
 7235 0078 13       		.uleb128 0x13
 7236 0079 00       		.byte	0
 7237 007a 00       		.byte	0
 7238 007b 0C       		.uleb128 0xc
 7239 007c 0D       		.uleb128 0xd
 7240 007d 00       		.byte	0
 7241 007e 03       		.uleb128 0x3
 7242 007f 0E       		.uleb128 0xe
 7243 0080 3A       		.uleb128 0x3a
 7244 0081 0B       		.uleb128 0xb
 7245 0082 3B       		.uleb128 0x3b
 7246 0083 0B       		.uleb128 0xb
 7247 0084 49       		.uleb128 0x49
 7248 0085 13       		.uleb128 0x13
 7249 0086 38       		.uleb128 0x38
 7250 0087 0B       		.uleb128 0xb
 7251 0088 00       		.byte	0
 7252 0089 00       		.byte	0
 7253 008a 0D       		.uleb128 0xd
 7254 008b 0D       		.uleb128 0xd
 7255 008c 00       		.byte	0
 7256 008d 03       		.uleb128 0x3
 7257 008e 08       		.uleb128 0x8
 7258 008f 3A       		.uleb128 0x3a
ARM GAS  /tmp/cclL2Tth.s 			page 129


 7259 0090 0B       		.uleb128 0xb
 7260 0091 3B       		.uleb128 0x3b
 7261 0092 0B       		.uleb128 0xb
 7262 0093 49       		.uleb128 0x49
 7263 0094 13       		.uleb128 0x13
 7264 0095 38       		.uleb128 0x38
 7265 0096 0B       		.uleb128 0xb
 7266 0097 00       		.byte	0
 7267 0098 00       		.byte	0
 7268 0099 0E       		.uleb128 0xe
 7269 009a 16       		.uleb128 0x16
 7270 009b 00       		.byte	0
 7271 009c 03       		.uleb128 0x3
 7272 009d 0E       		.uleb128 0xe
 7273 009e 3A       		.uleb128 0x3a
 7274 009f 0B       		.uleb128 0xb
 7275 00a0 3B       		.uleb128 0x3b
 7276 00a1 05       		.uleb128 0x5
 7277 00a2 49       		.uleb128 0x49
 7278 00a3 13       		.uleb128 0x13
 7279 00a4 00       		.byte	0
 7280 00a5 00       		.byte	0
 7281 00a6 0F       		.uleb128 0xf
 7282 00a7 13       		.uleb128 0x13
 7283 00a8 01       		.byte	0x1
 7284 00a9 0B       		.uleb128 0xb
 7285 00aa 0B       		.uleb128 0xb
 7286 00ab 3A       		.uleb128 0x3a
 7287 00ac 0B       		.uleb128 0xb
 7288 00ad 3B       		.uleb128 0x3b
 7289 00ae 0B       		.uleb128 0xb
 7290 00af 01       		.uleb128 0x1
 7291 00b0 13       		.uleb128 0x13
 7292 00b1 00       		.byte	0
 7293 00b2 00       		.byte	0
 7294 00b3 10       		.uleb128 0x10
 7295 00b4 15       		.uleb128 0x15
 7296 00b5 01       		.byte	0x1
 7297 00b6 27       		.uleb128 0x27
 7298 00b7 19       		.uleb128 0x19
 7299 00b8 01       		.uleb128 0x1
 7300 00b9 13       		.uleb128 0x13
 7301 00ba 00       		.byte	0
 7302 00bb 00       		.byte	0
 7303 00bc 11       		.uleb128 0x11
 7304 00bd 05       		.uleb128 0x5
 7305 00be 00       		.byte	0
 7306 00bf 49       		.uleb128 0x49
 7307 00c0 13       		.uleb128 0x13
 7308 00c1 00       		.byte	0
 7309 00c2 00       		.byte	0
 7310 00c3 12       		.uleb128 0x12
 7311 00c4 15       		.uleb128 0x15
 7312 00c5 01       		.byte	0x1
 7313 00c6 27       		.uleb128 0x27
 7314 00c7 19       		.uleb128 0x19
 7315 00c8 49       		.uleb128 0x49
ARM GAS  /tmp/cclL2Tth.s 			page 130


 7316 00c9 13       		.uleb128 0x13
 7317 00ca 01       		.uleb128 0x1
 7318 00cb 13       		.uleb128 0x13
 7319 00cc 00       		.byte	0
 7320 00cd 00       		.byte	0
 7321 00ce 13       		.uleb128 0x13
 7322 00cf 2E       		.uleb128 0x2e
 7323 00d0 01       		.byte	0x1
 7324 00d1 03       		.uleb128 0x3
 7325 00d2 0E       		.uleb128 0xe
 7326 00d3 3A       		.uleb128 0x3a
 7327 00d4 0B       		.uleb128 0xb
 7328 00d5 3B       		.uleb128 0x3b
 7329 00d6 0B       		.uleb128 0xb
 7330 00d7 27       		.uleb128 0x27
 7331 00d8 19       		.uleb128 0x19
 7332 00d9 20       		.uleb128 0x20
 7333 00da 0B       		.uleb128 0xb
 7334 00db 01       		.uleb128 0x1
 7335 00dc 13       		.uleb128 0x13
 7336 00dd 00       		.byte	0
 7337 00de 00       		.byte	0
 7338 00df 14       		.uleb128 0x14
 7339 00e0 05       		.uleb128 0x5
 7340 00e1 00       		.byte	0
 7341 00e2 03       		.uleb128 0x3
 7342 00e3 08       		.uleb128 0x8
 7343 00e4 3A       		.uleb128 0x3a
 7344 00e5 0B       		.uleb128 0xb
 7345 00e6 3B       		.uleb128 0x3b
 7346 00e7 0B       		.uleb128 0xb
 7347 00e8 49       		.uleb128 0x49
 7348 00e9 13       		.uleb128 0x13
 7349 00ea 00       		.byte	0
 7350 00eb 00       		.byte	0
 7351 00ec 15       		.uleb128 0x15
 7352 00ed 2E       		.uleb128 0x2e
 7353 00ee 01       		.byte	0x1
 7354 00ef 03       		.uleb128 0x3
 7355 00f0 0E       		.uleb128 0xe
 7356 00f1 3A       		.uleb128 0x3a
 7357 00f2 0B       		.uleb128 0xb
 7358 00f3 3B       		.uleb128 0x3b
 7359 00f4 05       		.uleb128 0x5
 7360 00f5 27       		.uleb128 0x27
 7361 00f6 19       		.uleb128 0x19
 7362 00f7 20       		.uleb128 0x20
 7363 00f8 0B       		.uleb128 0xb
 7364 00f9 01       		.uleb128 0x1
 7365 00fa 13       		.uleb128 0x13
 7366 00fb 00       		.byte	0
 7367 00fc 00       		.byte	0
 7368 00fd 16       		.uleb128 0x16
 7369 00fe 05       		.uleb128 0x5
 7370 00ff 00       		.byte	0
 7371 0100 03       		.uleb128 0x3
 7372 0101 08       		.uleb128 0x8
ARM GAS  /tmp/cclL2Tth.s 			page 131


 7373 0102 3A       		.uleb128 0x3a
 7374 0103 0B       		.uleb128 0xb
 7375 0104 3B       		.uleb128 0x3b
 7376 0105 05       		.uleb128 0x5
 7377 0106 49       		.uleb128 0x49
 7378 0107 13       		.uleb128 0x13
 7379 0108 00       		.byte	0
 7380 0109 00       		.byte	0
 7381 010a 17       		.uleb128 0x17
 7382 010b 05       		.uleb128 0x5
 7383 010c 00       		.byte	0
 7384 010d 03       		.uleb128 0x3
 7385 010e 0E       		.uleb128 0xe
 7386 010f 3A       		.uleb128 0x3a
 7387 0110 0B       		.uleb128 0xb
 7388 0111 3B       		.uleb128 0x3b
 7389 0112 05       		.uleb128 0x5
 7390 0113 49       		.uleb128 0x49
 7391 0114 13       		.uleb128 0x13
 7392 0115 00       		.byte	0
 7393 0116 00       		.byte	0
 7394 0117 18       		.uleb128 0x18
 7395 0118 2E       		.uleb128 0x2e
 7396 0119 01       		.byte	0x1
 7397 011a 3F       		.uleb128 0x3f
 7398 011b 19       		.uleb128 0x19
 7399 011c 03       		.uleb128 0x3
 7400 011d 0E       		.uleb128 0xe
 7401 011e 3A       		.uleb128 0x3a
 7402 011f 0B       		.uleb128 0xb
 7403 0120 3B       		.uleb128 0x3b
 7404 0121 05       		.uleb128 0x5
 7405 0122 27       		.uleb128 0x27
 7406 0123 19       		.uleb128 0x19
 7407 0124 20       		.uleb128 0x20
 7408 0125 0B       		.uleb128 0xb
 7409 0126 01       		.uleb128 0x1
 7410 0127 13       		.uleb128 0x13
 7411 0128 00       		.byte	0
 7412 0129 00       		.byte	0
 7413 012a 19       		.uleb128 0x19
 7414 012b 2E       		.uleb128 0x2e
 7415 012c 01       		.byte	0x1
 7416 012d 03       		.uleb128 0x3
 7417 012e 0E       		.uleb128 0xe
 7418 012f 3A       		.uleb128 0x3a
 7419 0130 0B       		.uleb128 0xb
 7420 0131 3B       		.uleb128 0x3b
 7421 0132 05       		.uleb128 0x5
 7422 0133 27       		.uleb128 0x27
 7423 0134 19       		.uleb128 0x19
 7424 0135 49       		.uleb128 0x49
 7425 0136 13       		.uleb128 0x13
 7426 0137 11       		.uleb128 0x11
 7427 0138 01       		.uleb128 0x1
 7428 0139 12       		.uleb128 0x12
 7429 013a 06       		.uleb128 0x6
ARM GAS  /tmp/cclL2Tth.s 			page 132


 7430 013b 40       		.uleb128 0x40
 7431 013c 18       		.uleb128 0x18
 7432 013d 9742     		.uleb128 0x2117
 7433 013f 19       		.uleb128 0x19
 7434 0140 01       		.uleb128 0x1
 7435 0141 13       		.uleb128 0x13
 7436 0142 00       		.byte	0
 7437 0143 00       		.byte	0
 7438 0144 1A       		.uleb128 0x1a
 7439 0145 05       		.uleb128 0x5
 7440 0146 00       		.byte	0
 7441 0147 03       		.uleb128 0x3
 7442 0148 08       		.uleb128 0x8
 7443 0149 3A       		.uleb128 0x3a
 7444 014a 0B       		.uleb128 0xb
 7445 014b 3B       		.uleb128 0x3b
 7446 014c 05       		.uleb128 0x5
 7447 014d 49       		.uleb128 0x49
 7448 014e 13       		.uleb128 0x13
 7449 014f 02       		.uleb128 0x2
 7450 0150 17       		.uleb128 0x17
 7451 0151 00       		.byte	0
 7452 0152 00       		.byte	0
 7453 0153 1B       		.uleb128 0x1b
 7454 0154 05       		.uleb128 0x5
 7455 0155 00       		.byte	0
 7456 0156 03       		.uleb128 0x3
 7457 0157 0E       		.uleb128 0xe
 7458 0158 3A       		.uleb128 0x3a
 7459 0159 0B       		.uleb128 0xb
 7460 015a 3B       		.uleb128 0x3b
 7461 015b 05       		.uleb128 0x5
 7462 015c 49       		.uleb128 0x49
 7463 015d 13       		.uleb128 0x13
 7464 015e 02       		.uleb128 0x2
 7465 015f 17       		.uleb128 0x17
 7466 0160 00       		.byte	0
 7467 0161 00       		.byte	0
 7468 0162 1C       		.uleb128 0x1c
 7469 0163 898201   		.uleb128 0x4109
 7470 0166 01       		.byte	0x1
 7471 0167 11       		.uleb128 0x11
 7472 0168 01       		.uleb128 0x1
 7473 0169 31       		.uleb128 0x31
 7474 016a 13       		.uleb128 0x13
 7475 016b 00       		.byte	0
 7476 016c 00       		.byte	0
 7477 016d 1D       		.uleb128 0x1d
 7478 016e 8A8201   		.uleb128 0x410a
 7479 0171 00       		.byte	0
 7480 0172 02       		.uleb128 0x2
 7481 0173 18       		.uleb128 0x18
 7482 0174 9142     		.uleb128 0x2111
 7483 0176 18       		.uleb128 0x18
 7484 0177 00       		.byte	0
 7485 0178 00       		.byte	0
 7486 0179 1E       		.uleb128 0x1e
ARM GAS  /tmp/cclL2Tth.s 			page 133


 7487 017a 34       		.uleb128 0x34
 7488 017b 00       		.byte	0
 7489 017c 03       		.uleb128 0x3
 7490 017d 08       		.uleb128 0x8
 7491 017e 3A       		.uleb128 0x3a
 7492 017f 0B       		.uleb128 0xb
 7493 0180 3B       		.uleb128 0x3b
 7494 0181 0B       		.uleb128 0xb
 7495 0182 49       		.uleb128 0x49
 7496 0183 13       		.uleb128 0x13
 7497 0184 00       		.byte	0
 7498 0185 00       		.byte	0
 7499 0186 1F       		.uleb128 0x1f
 7500 0187 2E       		.uleb128 0x2e
 7501 0188 01       		.byte	0x1
 7502 0189 31       		.uleb128 0x31
 7503 018a 13       		.uleb128 0x13
 7504 018b 11       		.uleb128 0x11
 7505 018c 01       		.uleb128 0x1
 7506 018d 12       		.uleb128 0x12
 7507 018e 06       		.uleb128 0x6
 7508 018f 40       		.uleb128 0x40
 7509 0190 18       		.uleb128 0x18
 7510 0191 9742     		.uleb128 0x2117
 7511 0193 19       		.uleb128 0x19
 7512 0194 01       		.uleb128 0x1
 7513 0195 13       		.uleb128 0x13
 7514 0196 00       		.byte	0
 7515 0197 00       		.byte	0
 7516 0198 20       		.uleb128 0x20
 7517 0199 05       		.uleb128 0x5
 7518 019a 00       		.byte	0
 7519 019b 31       		.uleb128 0x31
 7520 019c 13       		.uleb128 0x13
 7521 019d 02       		.uleb128 0x2
 7522 019e 17       		.uleb128 0x17
 7523 019f 00       		.byte	0
 7524 01a0 00       		.byte	0
 7525 01a1 21       		.uleb128 0x21
 7526 01a2 0B       		.uleb128 0xb
 7527 01a3 01       		.byte	0x1
 7528 01a4 55       		.uleb128 0x55
 7529 01a5 17       		.uleb128 0x17
 7530 01a6 00       		.byte	0
 7531 01a7 00       		.byte	0
 7532 01a8 22       		.uleb128 0x22
 7533 01a9 1D       		.uleb128 0x1d
 7534 01aa 01       		.byte	0x1
 7535 01ab 31       		.uleb128 0x31
 7536 01ac 13       		.uleb128 0x13
 7537 01ad 52       		.uleb128 0x52
 7538 01ae 01       		.uleb128 0x1
 7539 01af 55       		.uleb128 0x55
 7540 01b0 17       		.uleb128 0x17
 7541 01b1 58       		.uleb128 0x58
 7542 01b2 0B       		.uleb128 0xb
 7543 01b3 59       		.uleb128 0x59
ARM GAS  /tmp/cclL2Tth.s 			page 134


 7544 01b4 05       		.uleb128 0x5
 7545 01b5 01       		.uleb128 0x1
 7546 01b6 13       		.uleb128 0x13
 7547 01b7 00       		.byte	0
 7548 01b8 00       		.byte	0
 7549 01b9 23       		.uleb128 0x23
 7550 01ba 1D       		.uleb128 0x1d
 7551 01bb 01       		.byte	0x1
 7552 01bc 31       		.uleb128 0x31
 7553 01bd 13       		.uleb128 0x13
 7554 01be 11       		.uleb128 0x11
 7555 01bf 01       		.uleb128 0x1
 7556 01c0 12       		.uleb128 0x12
 7557 01c1 06       		.uleb128 0x6
 7558 01c2 58       		.uleb128 0x58
 7559 01c3 0B       		.uleb128 0xb
 7560 01c4 59       		.uleb128 0x59
 7561 01c5 0B       		.uleb128 0xb
 7562 01c6 01       		.uleb128 0x1
 7563 01c7 13       		.uleb128 0x13
 7564 01c8 00       		.byte	0
 7565 01c9 00       		.byte	0
 7566 01ca 24       		.uleb128 0x24
 7567 01cb 0B       		.uleb128 0xb
 7568 01cc 01       		.byte	0x1
 7569 01cd 11       		.uleb128 0x11
 7570 01ce 01       		.uleb128 0x1
 7571 01cf 12       		.uleb128 0x12
 7572 01d0 06       		.uleb128 0x6
 7573 01d1 00       		.byte	0
 7574 01d2 00       		.byte	0
 7575 01d3 25       		.uleb128 0x25
 7576 01d4 34       		.uleb128 0x34
 7577 01d5 00       		.byte	0
 7578 01d6 31       		.uleb128 0x31
 7579 01d7 13       		.uleb128 0x13
 7580 01d8 02       		.uleb128 0x2
 7581 01d9 17       		.uleb128 0x17
 7582 01da 00       		.byte	0
 7583 01db 00       		.byte	0
 7584 01dc 26       		.uleb128 0x26
 7585 01dd 898201   		.uleb128 0x4109
 7586 01e0 01       		.byte	0x1
 7587 01e1 11       		.uleb128 0x11
 7588 01e2 01       		.uleb128 0x1
 7589 01e3 31       		.uleb128 0x31
 7590 01e4 13       		.uleb128 0x13
 7591 01e5 01       		.uleb128 0x1
 7592 01e6 13       		.uleb128 0x13
 7593 01e7 00       		.byte	0
 7594 01e8 00       		.byte	0
 7595 01e9 27       		.uleb128 0x27
 7596 01ea 898201   		.uleb128 0x4109
 7597 01ed 01       		.byte	0x1
 7598 01ee 11       		.uleb128 0x11
 7599 01ef 01       		.uleb128 0x1
 7600 01f0 9542     		.uleb128 0x2115
ARM GAS  /tmp/cclL2Tth.s 			page 135


 7601 01f2 19       		.uleb128 0x19
 7602 01f3 31       		.uleb128 0x31
 7603 01f4 13       		.uleb128 0x13
 7604 01f5 00       		.byte	0
 7605 01f6 00       		.byte	0
 7606 01f7 28       		.uleb128 0x28
 7607 01f8 2E       		.uleb128 0x2e
 7608 01f9 00       		.byte	0
 7609 01fa 3F       		.uleb128 0x3f
 7610 01fb 19       		.uleb128 0x19
 7611 01fc 03       		.uleb128 0x3
 7612 01fd 0E       		.uleb128 0xe
 7613 01fe 3A       		.uleb128 0x3a
 7614 01ff 0B       		.uleb128 0xb
 7615 0200 3B       		.uleb128 0x3b
 7616 0201 05       		.uleb128 0x5
 7617 0202 27       		.uleb128 0x27
 7618 0203 19       		.uleb128 0x19
 7619 0204 11       		.uleb128 0x11
 7620 0205 01       		.uleb128 0x1
 7621 0206 12       		.uleb128 0x12
 7622 0207 06       		.uleb128 0x6
 7623 0208 40       		.uleb128 0x40
 7624 0209 18       		.uleb128 0x18
 7625 020a 9742     		.uleb128 0x2117
 7626 020c 19       		.uleb128 0x19
 7627 020d 00       		.byte	0
 7628 020e 00       		.byte	0
 7629 020f 29       		.uleb128 0x29
 7630 0210 2E       		.uleb128 0x2e
 7631 0211 01       		.byte	0x1
 7632 0212 3F       		.uleb128 0x3f
 7633 0213 19       		.uleb128 0x19
 7634 0214 03       		.uleb128 0x3
 7635 0215 0E       		.uleb128 0xe
 7636 0216 3A       		.uleb128 0x3a
 7637 0217 0B       		.uleb128 0xb
 7638 0218 3B       		.uleb128 0x3b
 7639 0219 05       		.uleb128 0x5
 7640 021a 27       		.uleb128 0x27
 7641 021b 19       		.uleb128 0x19
 7642 021c 49       		.uleb128 0x49
 7643 021d 13       		.uleb128 0x13
 7644 021e 11       		.uleb128 0x11
 7645 021f 01       		.uleb128 0x1
 7646 0220 12       		.uleb128 0x12
 7647 0221 06       		.uleb128 0x6
 7648 0222 40       		.uleb128 0x40
 7649 0223 18       		.uleb128 0x18
 7650 0224 9742     		.uleb128 0x2117
 7651 0226 19       		.uleb128 0x19
 7652 0227 01       		.uleb128 0x1
 7653 0228 13       		.uleb128 0x13
 7654 0229 00       		.byte	0
 7655 022a 00       		.byte	0
 7656 022b 2A       		.uleb128 0x2a
 7657 022c 2E       		.uleb128 0x2e
ARM GAS  /tmp/cclL2Tth.s 			page 136


 7658 022d 01       		.byte	0x1
 7659 022e 3F       		.uleb128 0x3f
 7660 022f 19       		.uleb128 0x19
 7661 0230 03       		.uleb128 0x3
 7662 0231 0E       		.uleb128 0xe
 7663 0232 3A       		.uleb128 0x3a
 7664 0233 0B       		.uleb128 0xb
 7665 0234 3B       		.uleb128 0x3b
 7666 0235 05       		.uleb128 0x5
 7667 0236 27       		.uleb128 0x27
 7668 0237 19       		.uleb128 0x19
 7669 0238 11       		.uleb128 0x11
 7670 0239 01       		.uleb128 0x1
 7671 023a 12       		.uleb128 0x12
 7672 023b 06       		.uleb128 0x6
 7673 023c 40       		.uleb128 0x40
 7674 023d 18       		.uleb128 0x18
 7675 023e 9742     		.uleb128 0x2117
 7676 0240 19       		.uleb128 0x19
 7677 0241 01       		.uleb128 0x1
 7678 0242 13       		.uleb128 0x13
 7679 0243 00       		.byte	0
 7680 0244 00       		.byte	0
 7681 0245 2B       		.uleb128 0x2b
 7682 0246 05       		.uleb128 0x5
 7683 0247 00       		.byte	0
 7684 0248 03       		.uleb128 0x3
 7685 0249 08       		.uleb128 0x8
 7686 024a 3A       		.uleb128 0x3a
 7687 024b 0B       		.uleb128 0xb
 7688 024c 3B       		.uleb128 0x3b
 7689 024d 05       		.uleb128 0x5
 7690 024e 49       		.uleb128 0x49
 7691 024f 13       		.uleb128 0x13
 7692 0250 02       		.uleb128 0x2
 7693 0251 18       		.uleb128 0x18
 7694 0252 00       		.byte	0
 7695 0253 00       		.byte	0
 7696 0254 2C       		.uleb128 0x2c
 7697 0255 1D       		.uleb128 0x1d
 7698 0256 01       		.byte	0x1
 7699 0257 31       		.uleb128 0x31
 7700 0258 13       		.uleb128 0x13
 7701 0259 11       		.uleb128 0x11
 7702 025a 01       		.uleb128 0x1
 7703 025b 12       		.uleb128 0x12
 7704 025c 06       		.uleb128 0x6
 7705 025d 58       		.uleb128 0x58
 7706 025e 0B       		.uleb128 0xb
 7707 025f 59       		.uleb128 0x59
 7708 0260 0B       		.uleb128 0xb
 7709 0261 00       		.byte	0
 7710 0262 00       		.byte	0
 7711 0263 2D       		.uleb128 0x2d
 7712 0264 34       		.uleb128 0x34
 7713 0265 00       		.byte	0
 7714 0266 03       		.uleb128 0x3
ARM GAS  /tmp/cclL2Tth.s 			page 137


 7715 0267 08       		.uleb128 0x8
 7716 0268 3A       		.uleb128 0x3a
 7717 0269 0B       		.uleb128 0xb
 7718 026a 3B       		.uleb128 0x3b
 7719 026b 05       		.uleb128 0x5
 7720 026c 49       		.uleb128 0x49
 7721 026d 13       		.uleb128 0x13
 7722 026e 00       		.byte	0
 7723 026f 00       		.byte	0
 7724 0270 2E       		.uleb128 0x2e
 7725 0271 34       		.uleb128 0x34
 7726 0272 00       		.byte	0
 7727 0273 03       		.uleb128 0x3
 7728 0274 0E       		.uleb128 0xe
 7729 0275 3A       		.uleb128 0x3a
 7730 0276 0B       		.uleb128 0xb
 7731 0277 3B       		.uleb128 0x3b
 7732 0278 05       		.uleb128 0x5
 7733 0279 49       		.uleb128 0x49
 7734 027a 13       		.uleb128 0x13
 7735 027b 00       		.byte	0
 7736 027c 00       		.byte	0
 7737 027d 2F       		.uleb128 0x2f
 7738 027e 898201   		.uleb128 0x4109
 7739 0281 00       		.byte	0
 7740 0282 11       		.uleb128 0x11
 7741 0283 01       		.uleb128 0x1
 7742 0284 31       		.uleb128 0x31
 7743 0285 13       		.uleb128 0x13
 7744 0286 00       		.byte	0
 7745 0287 00       		.byte	0
 7746 0288 30       		.uleb128 0x30
 7747 0289 1D       		.uleb128 0x1d
 7748 028a 01       		.byte	0x1
 7749 028b 31       		.uleb128 0x31
 7750 028c 13       		.uleb128 0x13
 7751 028d 11       		.uleb128 0x11
 7752 028e 01       		.uleb128 0x1
 7753 028f 12       		.uleb128 0x12
 7754 0290 06       		.uleb128 0x6
 7755 0291 58       		.uleb128 0x58
 7756 0292 0B       		.uleb128 0xb
 7757 0293 59       		.uleb128 0x59
 7758 0294 05       		.uleb128 0x5
 7759 0295 00       		.byte	0
 7760 0296 00       		.byte	0
 7761 0297 31       		.uleb128 0x31
 7762 0298 898201   		.uleb128 0x4109
 7763 029b 01       		.byte	0x1
 7764 029c 11       		.uleb128 0x11
 7765 029d 01       		.uleb128 0x1
 7766 029e 9542     		.uleb128 0x2115
 7767 02a0 19       		.uleb128 0x19
 7768 02a1 31       		.uleb128 0x31
 7769 02a2 13       		.uleb128 0x13
 7770 02a3 01       		.uleb128 0x1
 7771 02a4 13       		.uleb128 0x13
ARM GAS  /tmp/cclL2Tth.s 			page 138


 7772 02a5 00       		.byte	0
 7773 02a6 00       		.byte	0
 7774 02a7 32       		.uleb128 0x32
 7775 02a8 34       		.uleb128 0x34
 7776 02a9 00       		.byte	0
 7777 02aa 03       		.uleb128 0x3
 7778 02ab 0E       		.uleb128 0xe
 7779 02ac 3A       		.uleb128 0x3a
 7780 02ad 0B       		.uleb128 0xb
 7781 02ae 3B       		.uleb128 0x3b
 7782 02af 05       		.uleb128 0x5
 7783 02b0 49       		.uleb128 0x49
 7784 02b1 13       		.uleb128 0x13
 7785 02b2 1C       		.uleb128 0x1c
 7786 02b3 0A       		.uleb128 0xa
 7787 02b4 00       		.byte	0
 7788 02b5 00       		.byte	0
 7789 02b6 33       		.uleb128 0x33
 7790 02b7 01       		.uleb128 0x1
 7791 02b8 01       		.byte	0x1
 7792 02b9 49       		.uleb128 0x49
 7793 02ba 13       		.uleb128 0x13
 7794 02bb 01       		.uleb128 0x1
 7795 02bc 13       		.uleb128 0x13
 7796 02bd 00       		.byte	0
 7797 02be 00       		.byte	0
 7798 02bf 34       		.uleb128 0x34
 7799 02c0 21       		.uleb128 0x21
 7800 02c1 00       		.byte	0
 7801 02c2 49       		.uleb128 0x49
 7802 02c3 13       		.uleb128 0x13
 7803 02c4 2F       		.uleb128 0x2f
 7804 02c5 0B       		.uleb128 0xb
 7805 02c6 00       		.byte	0
 7806 02c7 00       		.byte	0
 7807 02c8 35       		.uleb128 0x35
 7808 02c9 34       		.uleb128 0x34
 7809 02ca 00       		.byte	0
 7810 02cb 03       		.uleb128 0x3
 7811 02cc 08       		.uleb128 0x8
 7812 02cd 3A       		.uleb128 0x3a
 7813 02ce 0B       		.uleb128 0xb
 7814 02cf 3B       		.uleb128 0x3b
 7815 02d0 05       		.uleb128 0x5
 7816 02d1 49       		.uleb128 0x49
 7817 02d2 13       		.uleb128 0x13
 7818 02d3 02       		.uleb128 0x2
 7819 02d4 17       		.uleb128 0x17
 7820 02d5 00       		.byte	0
 7821 02d6 00       		.byte	0
 7822 02d7 36       		.uleb128 0x36
 7823 02d8 1D       		.uleb128 0x1d
 7824 02d9 01       		.byte	0x1
 7825 02da 31       		.uleb128 0x31
 7826 02db 13       		.uleb128 0x13
 7827 02dc 11       		.uleb128 0x11
 7828 02dd 01       		.uleb128 0x1
ARM GAS  /tmp/cclL2Tth.s 			page 139


 7829 02de 12       		.uleb128 0x12
 7830 02df 06       		.uleb128 0x6
 7831 02e0 58       		.uleb128 0x58
 7832 02e1 0B       		.uleb128 0xb
 7833 02e2 59       		.uleb128 0x59
 7834 02e3 05       		.uleb128 0x5
 7835 02e4 01       		.uleb128 0x1
 7836 02e5 13       		.uleb128 0x13
 7837 02e6 00       		.byte	0
 7838 02e7 00       		.byte	0
 7839 02e8 37       		.uleb128 0x37
 7840 02e9 05       		.uleb128 0x5
 7841 02ea 00       		.byte	0
 7842 02eb 31       		.uleb128 0x31
 7843 02ec 13       		.uleb128 0x13
 7844 02ed 1C       		.uleb128 0x1c
 7845 02ee 0B       		.uleb128 0xb
 7846 02ef 00       		.byte	0
 7847 02f0 00       		.byte	0
 7848 02f1 38       		.uleb128 0x38
 7849 02f2 05       		.uleb128 0x5
 7850 02f3 00       		.byte	0
 7851 02f4 31       		.uleb128 0x31
 7852 02f5 13       		.uleb128 0x13
 7853 02f6 02       		.uleb128 0x2
 7854 02f7 18       		.uleb128 0x18
 7855 02f8 00       		.byte	0
 7856 02f9 00       		.byte	0
 7857 02fa 39       		.uleb128 0x39
 7858 02fb 34       		.uleb128 0x34
 7859 02fc 00       		.byte	0
 7860 02fd 31       		.uleb128 0x31
 7861 02fe 13       		.uleb128 0x13
 7862 02ff 02       		.uleb128 0x2
 7863 0300 18       		.uleb128 0x18
 7864 0301 00       		.byte	0
 7865 0302 00       		.byte	0
 7866 0303 3A       		.uleb128 0x3a
 7867 0304 05       		.uleb128 0x5
 7868 0305 00       		.byte	0
 7869 0306 03       		.uleb128 0x3
 7870 0307 0E       		.uleb128 0xe
 7871 0308 3A       		.uleb128 0x3a
 7872 0309 0B       		.uleb128 0xb
 7873 030a 3B       		.uleb128 0x3b
 7874 030b 05       		.uleb128 0x5
 7875 030c 49       		.uleb128 0x49
 7876 030d 13       		.uleb128 0x13
 7877 030e 02       		.uleb128 0x2
 7878 030f 18       		.uleb128 0x18
 7879 0310 00       		.byte	0
 7880 0311 00       		.byte	0
 7881 0312 3B       		.uleb128 0x3b
 7882 0313 34       		.uleb128 0x34
 7883 0314 00       		.byte	0
 7884 0315 03       		.uleb128 0x3
 7885 0316 0E       		.uleb128 0xe
ARM GAS  /tmp/cclL2Tth.s 			page 140


 7886 0317 3A       		.uleb128 0x3a
 7887 0318 0B       		.uleb128 0xb
 7888 0319 3B       		.uleb128 0x3b
 7889 031a 05       		.uleb128 0x5
 7890 031b 49       		.uleb128 0x49
 7891 031c 13       		.uleb128 0x13
 7892 031d 02       		.uleb128 0x2
 7893 031e 17       		.uleb128 0x17
 7894 031f 00       		.byte	0
 7895 0320 00       		.byte	0
 7896 0321 3C       		.uleb128 0x3c
 7897 0322 34       		.uleb128 0x34
 7898 0323 00       		.byte	0
 7899 0324 03       		.uleb128 0x3
 7900 0325 0E       		.uleb128 0xe
 7901 0326 3A       		.uleb128 0x3a
 7902 0327 0B       		.uleb128 0xb
 7903 0328 3B       		.uleb128 0x3b
 7904 0329 0B       		.uleb128 0xb
 7905 032a 49       		.uleb128 0x49
 7906 032b 13       		.uleb128 0x13
 7907 032c 02       		.uleb128 0x2
 7908 032d 18       		.uleb128 0x18
 7909 032e 00       		.byte	0
 7910 032f 00       		.byte	0
 7911 0330 3D       		.uleb128 0x3d
 7912 0331 34       		.uleb128 0x34
 7913 0332 00       		.byte	0
 7914 0333 03       		.uleb128 0x3
 7915 0334 0E       		.uleb128 0xe
 7916 0335 3A       		.uleb128 0x3a
 7917 0336 0B       		.uleb128 0xb
 7918 0337 3B       		.uleb128 0x3b
 7919 0338 05       		.uleb128 0x5
 7920 0339 49       		.uleb128 0x49
 7921 033a 13       		.uleb128 0x13
 7922 033b 3F       		.uleb128 0x3f
 7923 033c 19       		.uleb128 0x19
 7924 033d 3C       		.uleb128 0x3c
 7925 033e 19       		.uleb128 0x19
 7926 033f 00       		.byte	0
 7927 0340 00       		.byte	0
 7928 0341 3E       		.uleb128 0x3e
 7929 0342 34       		.uleb128 0x34
 7930 0343 00       		.byte	0
 7931 0344 03       		.uleb128 0x3
 7932 0345 0E       		.uleb128 0xe
 7933 0346 3A       		.uleb128 0x3a
 7934 0347 0B       		.uleb128 0xb
 7935 0348 3B       		.uleb128 0x3b
 7936 0349 0B       		.uleb128 0xb
 7937 034a 49       		.uleb128 0x49
 7938 034b 13       		.uleb128 0x13
 7939 034c 3F       		.uleb128 0x3f
 7940 034d 19       		.uleb128 0x19
 7941 034e 02       		.uleb128 0x2
 7942 034f 18       		.uleb128 0x18
ARM GAS  /tmp/cclL2Tth.s 			page 141


 7943 0350 00       		.byte	0
 7944 0351 00       		.byte	0
 7945 0352 3F       		.uleb128 0x3f
 7946 0353 2E       		.uleb128 0x2e
 7947 0354 01       		.byte	0x1
 7948 0355 3F       		.uleb128 0x3f
 7949 0356 19       		.uleb128 0x19
 7950 0357 03       		.uleb128 0x3
 7951 0358 0E       		.uleb128 0xe
 7952 0359 3A       		.uleb128 0x3a
 7953 035a 0B       		.uleb128 0xb
 7954 035b 3B       		.uleb128 0x3b
 7955 035c 0B       		.uleb128 0xb
 7956 035d 27       		.uleb128 0x27
 7957 035e 19       		.uleb128 0x19
 7958 035f 49       		.uleb128 0x49
 7959 0360 13       		.uleb128 0x13
 7960 0361 3C       		.uleb128 0x3c
 7961 0362 19       		.uleb128 0x19
 7962 0363 01       		.uleb128 0x1
 7963 0364 13       		.uleb128 0x13
 7964 0365 00       		.byte	0
 7965 0366 00       		.byte	0
 7966 0367 40       		.uleb128 0x40
 7967 0368 2E       		.uleb128 0x2e
 7968 0369 01       		.byte	0x1
 7969 036a 3F       		.uleb128 0x3f
 7970 036b 19       		.uleb128 0x19
 7971 036c 03       		.uleb128 0x3
 7972 036d 0E       		.uleb128 0xe
 7973 036e 3A       		.uleb128 0x3a
 7974 036f 0B       		.uleb128 0xb
 7975 0370 3B       		.uleb128 0x3b
 7976 0371 05       		.uleb128 0x5
 7977 0372 27       		.uleb128 0x27
 7978 0373 19       		.uleb128 0x19
 7979 0374 3C       		.uleb128 0x3c
 7980 0375 19       		.uleb128 0x19
 7981 0376 01       		.uleb128 0x1
 7982 0377 13       		.uleb128 0x13
 7983 0378 00       		.byte	0
 7984 0379 00       		.byte	0
 7985 037a 41       		.uleb128 0x41
 7986 037b 2E       		.uleb128 0x2e
 7987 037c 01       		.byte	0x1
 7988 037d 3F       		.uleb128 0x3f
 7989 037e 19       		.uleb128 0x19
 7990 037f 03       		.uleb128 0x3
 7991 0380 0E       		.uleb128 0xe
 7992 0381 3A       		.uleb128 0x3a
 7993 0382 0B       		.uleb128 0xb
 7994 0383 3B       		.uleb128 0x3b
 7995 0384 05       		.uleb128 0x5
 7996 0385 27       		.uleb128 0x27
 7997 0386 19       		.uleb128 0x19
 7998 0387 49       		.uleb128 0x49
 7999 0388 13       		.uleb128 0x13
ARM GAS  /tmp/cclL2Tth.s 			page 142


 8000 0389 3C       		.uleb128 0x3c
 8001 038a 19       		.uleb128 0x19
 8002 038b 01       		.uleb128 0x1
 8003 038c 13       		.uleb128 0x13
 8004 038d 00       		.byte	0
 8005 038e 00       		.byte	0
 8006 038f 42       		.uleb128 0x42
 8007 0390 2E       		.uleb128 0x2e
 8008 0391 01       		.byte	0x1
 8009 0392 3F       		.uleb128 0x3f
 8010 0393 19       		.uleb128 0x19
 8011 0394 03       		.uleb128 0x3
 8012 0395 0E       		.uleb128 0xe
 8013 0396 3A       		.uleb128 0x3a
 8014 0397 0B       		.uleb128 0xb
 8015 0398 3B       		.uleb128 0x3b
 8016 0399 0B       		.uleb128 0xb
 8017 039a 27       		.uleb128 0x27
 8018 039b 19       		.uleb128 0x19
 8019 039c 3C       		.uleb128 0x3c
 8020 039d 19       		.uleb128 0x19
 8021 039e 01       		.uleb128 0x1
 8022 039f 13       		.uleb128 0x13
 8023 03a0 00       		.byte	0
 8024 03a1 00       		.byte	0
 8025 03a2 43       		.uleb128 0x43
 8026 03a3 2E       		.uleb128 0x2e
 8027 03a4 01       		.byte	0x1
 8028 03a5 3F       		.uleb128 0x3f
 8029 03a6 19       		.uleb128 0x19
 8030 03a7 03       		.uleb128 0x3
 8031 03a8 0E       		.uleb128 0xe
 8032 03a9 3A       		.uleb128 0x3a
 8033 03aa 0B       		.uleb128 0xb
 8034 03ab 3B       		.uleb128 0x3b
 8035 03ac 0B       		.uleb128 0xb
 8036 03ad 27       		.uleb128 0x27
 8037 03ae 19       		.uleb128 0x19
 8038 03af 3C       		.uleb128 0x3c
 8039 03b0 19       		.uleb128 0x19
 8040 03b1 00       		.byte	0
 8041 03b2 00       		.byte	0
 8042 03b3 00       		.byte	0
 8043              		.section	.debug_loc,"",%progbits
 8044              	.Ldebug_loc0:
 8045              	.LLST0:
 8046 0000 00000000 		.4byte	.LVL0
 8047 0004 0C000000 		.4byte	.LVL1
 8048 0008 0100     		.2byte	0x1
 8049 000a 50       		.byte	0x50
 8050 000b 0C000000 		.4byte	.LVL1
 8051 000f 24000000 		.4byte	.LFE140
 8052 0013 0400     		.2byte	0x4
 8053 0015 F3       		.byte	0xf3
 8054 0016 01       		.uleb128 0x1
 8055 0017 50       		.byte	0x50
 8056 0018 9F       		.byte	0x9f
ARM GAS  /tmp/cclL2Tth.s 			page 143


 8057 0019 00000000 		.4byte	0
 8058 001d 00000000 		.4byte	0
 8059              	.LLST1:
 8060 0021 00000000 		.4byte	.LVL0
 8061 0025 10000000 		.4byte	.LVL2
 8062 0029 0100     		.2byte	0x1
 8063 002b 51       		.byte	0x51
 8064 002c 10000000 		.4byte	.LVL2
 8065 0030 24000000 		.4byte	.LFE140
 8066 0034 0400     		.2byte	0x4
 8067 0036 F3       		.byte	0xf3
 8068 0037 01       		.uleb128 0x1
 8069 0038 51       		.byte	0x51
 8070 0039 9F       		.byte	0x9f
 8071 003a 00000000 		.4byte	0
 8072 003e 00000000 		.4byte	0
 8073              	.LLST2:
 8074 0042 00000000 		.4byte	.LVL0
 8075 0046 16000000 		.4byte	.LVL4
 8076 004a 0100     		.2byte	0x1
 8077 004c 52       		.byte	0x52
 8078 004d 16000000 		.4byte	.LVL4
 8079 0051 24000000 		.4byte	.LFE140
 8080 0055 0400     		.2byte	0x4
 8081 0057 F3       		.byte	0xf3
 8082 0058 01       		.uleb128 0x1
 8083 0059 52       		.byte	0x52
 8084 005a 9F       		.byte	0x9f
 8085 005b 00000000 		.4byte	0
 8086 005f 00000000 		.4byte	0
 8087              	.LLST3:
 8088 0063 00000000 		.4byte	.LVL0
 8089 0067 12000000 		.4byte	.LVL3
 8090 006b 0100     		.2byte	0x1
 8091 006d 53       		.byte	0x53
 8092 006e 12000000 		.4byte	.LVL3
 8093 0072 19000000 		.4byte	.LVL5-1
 8094 0076 0200     		.2byte	0x2
 8095 0078 91       		.byte	0x91
 8096 0079 6C       		.sleb128 -20
 8097 007a 19000000 		.4byte	.LVL5-1
 8098 007e 24000000 		.4byte	.LFE140
 8099 0082 0400     		.2byte	0x4
 8100 0084 F3       		.byte	0xf3
 8101 0085 01       		.uleb128 0x1
 8102 0086 53       		.byte	0x53
 8103 0087 9F       		.byte	0x9f
 8104 0088 00000000 		.4byte	0
 8105 008c 00000000 		.4byte	0
 8106              	.LLST4:
 8107 0090 00000000 		.4byte	.LVL6
 8108 0094 0C000000 		.4byte	.LVL7
 8109 0098 0100     		.2byte	0x1
 8110 009a 50       		.byte	0x50
 8111 009b 0C000000 		.4byte	.LVL7
 8112 009f 24000000 		.4byte	.LFE141
 8113 00a3 0400     		.2byte	0x4
ARM GAS  /tmp/cclL2Tth.s 			page 144


 8114 00a5 F3       		.byte	0xf3
 8115 00a6 01       		.uleb128 0x1
 8116 00a7 50       		.byte	0x50
 8117 00a8 9F       		.byte	0x9f
 8118 00a9 00000000 		.4byte	0
 8119 00ad 00000000 		.4byte	0
 8120              	.LLST5:
 8121 00b1 00000000 		.4byte	.LVL6
 8122 00b5 10000000 		.4byte	.LVL8
 8123 00b9 0100     		.2byte	0x1
 8124 00bb 51       		.byte	0x51
 8125 00bc 10000000 		.4byte	.LVL8
 8126 00c0 24000000 		.4byte	.LFE141
 8127 00c4 0400     		.2byte	0x4
 8128 00c6 F3       		.byte	0xf3
 8129 00c7 01       		.uleb128 0x1
 8130 00c8 51       		.byte	0x51
 8131 00c9 9F       		.byte	0x9f
 8132 00ca 00000000 		.4byte	0
 8133 00ce 00000000 		.4byte	0
 8134              	.LLST6:
 8135 00d2 00000000 		.4byte	.LVL6
 8136 00d6 16000000 		.4byte	.LVL10
 8137 00da 0100     		.2byte	0x1
 8138 00dc 52       		.byte	0x52
 8139 00dd 16000000 		.4byte	.LVL10
 8140 00e1 24000000 		.4byte	.LFE141
 8141 00e5 0400     		.2byte	0x4
 8142 00e7 F3       		.byte	0xf3
 8143 00e8 01       		.uleb128 0x1
 8144 00e9 52       		.byte	0x52
 8145 00ea 9F       		.byte	0x9f
 8146 00eb 00000000 		.4byte	0
 8147 00ef 00000000 		.4byte	0
 8148              	.LLST7:
 8149 00f3 00000000 		.4byte	.LVL6
 8150 00f7 12000000 		.4byte	.LVL9
 8151 00fb 0100     		.2byte	0x1
 8152 00fd 53       		.byte	0x53
 8153 00fe 12000000 		.4byte	.LVL9
 8154 0102 19000000 		.4byte	.LVL11-1
 8155 0106 0200     		.2byte	0x2
 8156 0108 91       		.byte	0x91
 8157 0109 6C       		.sleb128 -20
 8158 010a 19000000 		.4byte	.LVL11-1
 8159 010e 24000000 		.4byte	.LFE141
 8160 0112 0400     		.2byte	0x4
 8161 0114 F3       		.byte	0xf3
 8162 0115 01       		.uleb128 0x1
 8163 0116 53       		.byte	0x53
 8164 0117 9F       		.byte	0x9f
 8165 0118 00000000 		.4byte	0
 8166 011c 00000000 		.4byte	0
 8167              	.LLST8:
 8168 0120 00000000 		.4byte	.LVL12
 8169 0124 0C000000 		.4byte	.LVL13
 8170 0128 0100     		.2byte	0x1
ARM GAS  /tmp/cclL2Tth.s 			page 145


 8171 012a 50       		.byte	0x50
 8172 012b 0C000000 		.4byte	.LVL13
 8173 012f 60000000 		.4byte	.LVL15
 8174 0133 0100     		.2byte	0x1
 8175 0135 54       		.byte	0x54
 8176 0136 60000000 		.4byte	.LVL15
 8177 013a 63000000 		.4byte	.LVL16-1
 8178 013e 0100     		.2byte	0x1
 8179 0140 50       		.byte	0x50
 8180 0141 63000000 		.4byte	.LVL16-1
 8181 0145 64000000 		.4byte	.LVL16
 8182 0149 0400     		.2byte	0x4
 8183 014b F3       		.byte	0xf3
 8184 014c 01       		.uleb128 0x1
 8185 014d 50       		.byte	0x50
 8186 014e 9F       		.byte	0x9f
 8187 014f 64000000 		.4byte	.LVL16
 8188 0153 A4000000 		.4byte	.LVL23
 8189 0157 0100     		.2byte	0x1
 8190 0159 54       		.byte	0x54
 8191 015a A4000000 		.4byte	.LVL23
 8192 015e A7000000 		.4byte	.LVL24-1
 8193 0162 0100     		.2byte	0x1
 8194 0164 50       		.byte	0x50
 8195 0165 A7000000 		.4byte	.LVL24-1
 8196 0169 A8000000 		.4byte	.LFE122
 8197 016d 0400     		.2byte	0x4
 8198 016f F3       		.byte	0xf3
 8199 0170 01       		.uleb128 0x1
 8200 0171 50       		.byte	0x50
 8201 0172 9F       		.byte	0x9f
 8202 0173 00000000 		.4byte	0
 8203 0177 00000000 		.4byte	0
 8204              	.LLST9:
 8205 017b 2A000000 		.4byte	.LVL14
 8206 017f 60000000 		.4byte	.LVL15
 8207 0183 0100     		.2byte	0x1
 8208 0185 54       		.byte	0x54
 8209 0186 60000000 		.4byte	.LVL15
 8210 018a 63000000 		.4byte	.LVL16-1
 8211 018e 0100     		.2byte	0x1
 8212 0190 50       		.byte	0x50
 8213 0191 63000000 		.4byte	.LVL16-1
 8214 0195 64000000 		.4byte	.LVL16
 8215 0199 0400     		.2byte	0x4
 8216 019b F3       		.byte	0xf3
 8217 019c 01       		.uleb128 0x1
 8218 019d 50       		.byte	0x50
 8219 019e 9F       		.byte	0x9f
 8220 019f 66000000 		.4byte	.LVL17
 8221 01a3 A4000000 		.4byte	.LVL23
 8222 01a7 0100     		.2byte	0x1
 8223 01a9 54       		.byte	0x54
 8224 01aa A4000000 		.4byte	.LVL23
 8225 01ae A7000000 		.4byte	.LVL24-1
 8226 01b2 0100     		.2byte	0x1
 8227 01b4 50       		.byte	0x50
ARM GAS  /tmp/cclL2Tth.s 			page 146


 8228 01b5 A7000000 		.4byte	.LVL24-1
 8229 01b9 A8000000 		.4byte	.LFE122
 8230 01bd 0400     		.2byte	0x4
 8231 01bf F3       		.byte	0xf3
 8232 01c0 01       		.uleb128 0x1
 8233 01c1 50       		.byte	0x50
 8234 01c2 9F       		.byte	0x9f
 8235 01c3 00000000 		.4byte	0
 8236 01c7 00000000 		.4byte	0
 8237              	.LLST10:
 8238 01cb 70000000 		.4byte	.LVL18
 8239 01cf A4000000 		.4byte	.LVL23
 8240 01d3 0100     		.2byte	0x1
 8241 01d5 54       		.byte	0x54
 8242 01d6 A4000000 		.4byte	.LVL23
 8243 01da A7000000 		.4byte	.LVL24-1
 8244 01de 0100     		.2byte	0x1
 8245 01e0 50       		.byte	0x50
 8246 01e1 A7000000 		.4byte	.LVL24-1
 8247 01e5 A8000000 		.4byte	.LFE122
 8248 01e9 0400     		.2byte	0x4
 8249 01eb F3       		.byte	0xf3
 8250 01ec 01       		.uleb128 0x1
 8251 01ed 50       		.byte	0x50
 8252 01ee 9F       		.byte	0x9f
 8253 01ef 00000000 		.4byte	0
 8254 01f3 00000000 		.4byte	0
 8255              	.LLST11:
 8256 01f7 7A000000 		.4byte	.LVL19
 8257 01fb 98000000 		.4byte	.LVL21
 8258 01ff 0100     		.2byte	0x1
 8259 0201 54       		.byte	0x54
 8260 0202 00000000 		.4byte	0
 8261 0206 00000000 		.4byte	0
 8262              	.LLST12:
 8263 020a 7A000000 		.4byte	.LVL19
 8264 020e 98000000 		.4byte	.LVL21
 8265 0212 0100     		.2byte	0x1
 8266 0214 56       		.byte	0x56
 8267 0215 00000000 		.4byte	0
 8268 0219 00000000 		.4byte	0
 8269              	.LLST13:
 8270 021d 7A000000 		.4byte	.LVL19
 8271 0221 98000000 		.4byte	.LVL21
 8272 0225 0100     		.2byte	0x1
 8273 0227 55       		.byte	0x55
 8274 0228 00000000 		.4byte	0
 8275 022c 00000000 		.4byte	0
 8276              	.LLST14:
 8277 0230 00000000 		.4byte	.LVL25
 8278 0234 3A000000 		.4byte	.LVL29
 8279 0238 0100     		.2byte	0x1
 8280 023a 50       		.byte	0x50
 8281 023b 3A000000 		.4byte	.LVL29
 8282 023f 62000000 		.4byte	.LFE139
 8283 0243 0400     		.2byte	0x4
 8284 0245 F3       		.byte	0xf3
ARM GAS  /tmp/cclL2Tth.s 			page 147


 8285 0246 01       		.uleb128 0x1
 8286 0247 50       		.byte	0x50
 8287 0248 9F       		.byte	0x9f
 8288 0249 00000000 		.4byte	0
 8289 024d 00000000 		.4byte	0
 8290              	.LLST15:
 8291 0251 00000000 		.4byte	.LVL25
 8292 0255 5D000000 		.4byte	.LVL36-1
 8293 0259 0100     		.2byte	0x1
 8294 025b 51       		.byte	0x51
 8295 025c 5D000000 		.4byte	.LVL36-1
 8296 0260 5E000000 		.4byte	.LVL36
 8297 0264 0400     		.2byte	0x4
 8298 0266 F3       		.byte	0xf3
 8299 0267 01       		.uleb128 0x1
 8300 0268 51       		.byte	0x51
 8301 0269 9F       		.byte	0x9f
 8302 026a 5E000000 		.4byte	.LVL36
 8303 026e 62000000 		.4byte	.LFE139
 8304 0272 0100     		.2byte	0x1
 8305 0274 51       		.byte	0x51
 8306 0275 00000000 		.4byte	0
 8307 0279 00000000 		.4byte	0
 8308              	.LLST16:
 8309 027d 00000000 		.4byte	.LVL25
 8310 0281 30000000 		.4byte	.LVL27
 8311 0285 0100     		.2byte	0x1
 8312 0287 52       		.byte	0x52
 8313 0288 30000000 		.4byte	.LVL27
 8314 028c 62000000 		.4byte	.LFE139
 8315 0290 0400     		.2byte	0x4
 8316 0292 F3       		.byte	0xf3
 8317 0293 01       		.uleb128 0x1
 8318 0294 52       		.byte	0x52
 8319 0295 9F       		.byte	0x9f
 8320 0296 00000000 		.4byte	0
 8321 029a 00000000 		.4byte	0
 8322              	.LLST17:
 8323 029e 00000000 		.4byte	.LVL25
 8324 02a2 4A000000 		.4byte	.LVL32
 8325 02a6 0100     		.2byte	0x1
 8326 02a8 53       		.byte	0x53
 8327 02a9 4A000000 		.4byte	.LVL32
 8328 02ad 5E000000 		.4byte	.LVL36
 8329 02b1 0400     		.2byte	0x4
 8330 02b3 F3       		.byte	0xf3
 8331 02b4 01       		.uleb128 0x1
 8332 02b5 53       		.byte	0x53
 8333 02b6 9F       		.byte	0x9f
 8334 02b7 5E000000 		.4byte	.LVL36
 8335 02bb 62000000 		.4byte	.LFE139
 8336 02bf 0100     		.2byte	0x1
 8337 02c1 53       		.byte	0x53
 8338 02c2 00000000 		.4byte	0
 8339 02c6 00000000 		.4byte	0
 8340              	.LLST18:
 8341 02ca 00000000 		.4byte	.LVL25
ARM GAS  /tmp/cclL2Tth.s 			page 148


 8342 02ce 5A000000 		.4byte	.LVL35
 8343 02d2 0200     		.2byte	0x2
 8344 02d4 91       		.byte	0x91
 8345 02d5 00       		.sleb128 0
 8346 02d6 5A000000 		.4byte	.LVL35
 8347 02da 5E000000 		.4byte	.LVL36
 8348 02de 0200     		.2byte	0x2
 8349 02e0 7D       		.byte	0x7d
 8350 02e1 00       		.sleb128 0
 8351 02e2 5E000000 		.4byte	.LVL36
 8352 02e6 60000000 		.4byte	.LVL37
 8353 02ea 0200     		.2byte	0x2
 8354 02ec 7D       		.byte	0x7d
 8355 02ed 10       		.sleb128 16
 8356 02ee 60000000 		.4byte	.LVL37
 8357 02f2 62000000 		.4byte	.LFE139
 8358 02f6 0200     		.2byte	0x2
 8359 02f8 7D       		.byte	0x7d
 8360 02f9 00       		.sleb128 0
 8361 02fa 00000000 		.4byte	0
 8362 02fe 00000000 		.4byte	0
 8363              	.LLST19:
 8364 0302 14000000 		.4byte	.LVL26
 8365 0306 5A000000 		.4byte	.LVL35
 8366 030a 0100     		.2byte	0x1
 8367 030c 54       		.byte	0x54
 8368 030d 5A000000 		.4byte	.LVL35
 8369 0311 5E000000 		.4byte	.LVL36
 8370 0315 0200     		.2byte	0x2
 8371 0317 7D       		.byte	0x7d
 8372 0318 00       		.sleb128 0
 8373 0319 00000000 		.4byte	0
 8374 031d 00000000 		.4byte	0
 8375              	.LLST20:
 8376 0321 14000000 		.4byte	.LVL26
 8377 0325 4A000000 		.4byte	.LVL32
 8378 0329 0100     		.2byte	0x1
 8379 032b 53       		.byte	0x53
 8380 032c 00000000 		.4byte	0
 8381 0330 00000000 		.4byte	0
 8382              	.LLST21:
 8383 0334 14000000 		.4byte	.LVL26
 8384 0338 30000000 		.4byte	.LVL27
 8385 033c 0100     		.2byte	0x1
 8386 033e 52       		.byte	0x52
 8387 033f 36000000 		.4byte	.LVL28
 8388 0343 42000000 		.4byte	.LVL30
 8389 0347 0100     		.2byte	0x1
 8390 0349 52       		.byte	0x52
 8391 034a 44000000 		.4byte	.LVL31
 8392 034e 4C000000 		.4byte	.LVL33
 8393 0352 0100     		.2byte	0x1
 8394 0354 52       		.byte	0x52
 8395 0355 00000000 		.4byte	0
 8396 0359 00000000 		.4byte	0
 8397              	.LLST22:
 8398 035d 14000000 		.4byte	.LVL26
ARM GAS  /tmp/cclL2Tth.s 			page 149


 8399 0361 5D000000 		.4byte	.LVL36-1
 8400 0365 0100     		.2byte	0x1
 8401 0367 51       		.byte	0x51
 8402 0368 00000000 		.4byte	0
 8403 036c 00000000 		.4byte	0
 8404              	.LLST23:
 8405 0370 14000000 		.4byte	.LVL26
 8406 0374 36000000 		.4byte	.LVL28
 8407 0378 0100     		.2byte	0x1
 8408 037a 50       		.byte	0x50
 8409 037b 36000000 		.4byte	.LVL28
 8410 037f 3A000000 		.4byte	.LVL29
 8411 0383 0300     		.2byte	0x3
 8412 0385 74       		.byte	0x74
 8413 0386 C000     		.sleb128 64
 8414 0388 3A000000 		.4byte	.LVL29
 8415 038c 58000000 		.4byte	.LVL34
 8416 0390 0100     		.2byte	0x1
 8417 0392 50       		.byte	0x50
 8418 0393 00000000 		.4byte	0
 8419 0397 00000000 		.4byte	0
 8420              	.LLST24:
 8421 039b 00000000 		.4byte	.LVL38
 8422 039f 0C000000 		.4byte	.LVL39
 8423 03a3 0100     		.2byte	0x1
 8424 03a5 50       		.byte	0x50
 8425 03a6 0C000000 		.4byte	.LVL39
 8426 03aa 60000000 		.4byte	.LVL41
 8427 03ae 0100     		.2byte	0x1
 8428 03b0 54       		.byte	0x54
 8429 03b1 60000000 		.4byte	.LVL41
 8430 03b5 63000000 		.4byte	.LVL42-1
 8431 03b9 0100     		.2byte	0x1
 8432 03bb 50       		.byte	0x50
 8433 03bc 63000000 		.4byte	.LVL42-1
 8434 03c0 64000000 		.4byte	.LVL42
 8435 03c4 0400     		.2byte	0x4
 8436 03c6 F3       		.byte	0xf3
 8437 03c7 01       		.uleb128 0x1
 8438 03c8 50       		.byte	0x50
 8439 03c9 9F       		.byte	0x9f
 8440 03ca 64000000 		.4byte	.LVL42
 8441 03ce A4000000 		.4byte	.LVL49
 8442 03d2 0100     		.2byte	0x1
 8443 03d4 54       		.byte	0x54
 8444 03d5 A4000000 		.4byte	.LVL49
 8445 03d9 A7000000 		.4byte	.LVL50-1
 8446 03dd 0100     		.2byte	0x1
 8447 03df 50       		.byte	0x50
 8448 03e0 A7000000 		.4byte	.LVL50-1
 8449 03e4 A8000000 		.4byte	.LFE123
 8450 03e8 0400     		.2byte	0x4
 8451 03ea F3       		.byte	0xf3
 8452 03eb 01       		.uleb128 0x1
 8453 03ec 50       		.byte	0x50
 8454 03ed 9F       		.byte	0x9f
 8455 03ee 00000000 		.4byte	0
ARM GAS  /tmp/cclL2Tth.s 			page 150


 8456 03f2 00000000 		.4byte	0
 8457              	.LLST25:
 8458 03f6 2A000000 		.4byte	.LVL40
 8459 03fa 60000000 		.4byte	.LVL41
 8460 03fe 0100     		.2byte	0x1
 8461 0400 54       		.byte	0x54
 8462 0401 60000000 		.4byte	.LVL41
 8463 0405 63000000 		.4byte	.LVL42-1
 8464 0409 0100     		.2byte	0x1
 8465 040b 50       		.byte	0x50
 8466 040c 63000000 		.4byte	.LVL42-1
 8467 0410 64000000 		.4byte	.LVL42
 8468 0414 0400     		.2byte	0x4
 8469 0416 F3       		.byte	0xf3
 8470 0417 01       		.uleb128 0x1
 8471 0418 50       		.byte	0x50
 8472 0419 9F       		.byte	0x9f
 8473 041a 66000000 		.4byte	.LVL43
 8474 041e A4000000 		.4byte	.LVL49
 8475 0422 0100     		.2byte	0x1
 8476 0424 54       		.byte	0x54
 8477 0425 A4000000 		.4byte	.LVL49
 8478 0429 A7000000 		.4byte	.LVL50-1
 8479 042d 0100     		.2byte	0x1
 8480 042f 50       		.byte	0x50
 8481 0430 A7000000 		.4byte	.LVL50-1
 8482 0434 A8000000 		.4byte	.LFE123
 8483 0438 0400     		.2byte	0x4
 8484 043a F3       		.byte	0xf3
 8485 043b 01       		.uleb128 0x1
 8486 043c 50       		.byte	0x50
 8487 043d 9F       		.byte	0x9f
 8488 043e 00000000 		.4byte	0
 8489 0442 00000000 		.4byte	0
 8490              	.LLST26:
 8491 0446 70000000 		.4byte	.LVL44
 8492 044a A4000000 		.4byte	.LVL49
 8493 044e 0100     		.2byte	0x1
 8494 0450 54       		.byte	0x54
 8495 0451 A4000000 		.4byte	.LVL49
 8496 0455 A7000000 		.4byte	.LVL50-1
 8497 0459 0100     		.2byte	0x1
 8498 045b 50       		.byte	0x50
 8499 045c A7000000 		.4byte	.LVL50-1
 8500 0460 A8000000 		.4byte	.LFE123
 8501 0464 0400     		.2byte	0x4
 8502 0466 F3       		.byte	0xf3
 8503 0467 01       		.uleb128 0x1
 8504 0468 50       		.byte	0x50
 8505 0469 9F       		.byte	0x9f
 8506 046a 00000000 		.4byte	0
 8507 046e 00000000 		.4byte	0
 8508              	.LLST27:
 8509 0472 7A000000 		.4byte	.LVL45
 8510 0476 98000000 		.4byte	.LVL47
 8511 047a 0100     		.2byte	0x1
 8512 047c 54       		.byte	0x54
ARM GAS  /tmp/cclL2Tth.s 			page 151


 8513 047d 00000000 		.4byte	0
 8514 0481 00000000 		.4byte	0
 8515              	.LLST28:
 8516 0485 7A000000 		.4byte	.LVL45
 8517 0489 98000000 		.4byte	.LVL47
 8518 048d 0100     		.2byte	0x1
 8519 048f 55       		.byte	0x55
 8520 0490 00000000 		.4byte	0
 8521 0494 00000000 		.4byte	0
 8522              	.LLST29:
 8523 0498 7A000000 		.4byte	.LVL45
 8524 049c 98000000 		.4byte	.LVL47
 8525 04a0 0100     		.2byte	0x1
 8526 04a2 56       		.byte	0x56
 8527 04a3 00000000 		.4byte	0
 8528 04a7 00000000 		.4byte	0
 8529              	.LLST30:
 8530 04ab 00000000 		.4byte	.LVL51
 8531 04af 0A000000 		.4byte	.LVL52
 8532 04b3 0100     		.2byte	0x1
 8533 04b5 50       		.byte	0x50
 8534 04b6 0A000000 		.4byte	.LVL52
 8535 04ba 10000000 		.4byte	.LFE128
 8536 04be 0400     		.2byte	0x4
 8537 04c0 F3       		.byte	0xf3
 8538 04c1 01       		.uleb128 0x1
 8539 04c2 50       		.byte	0x50
 8540 04c3 9F       		.byte	0x9f
 8541 04c4 00000000 		.4byte	0
 8542 04c8 00000000 		.4byte	0
 8543              	.LLST31:
 8544 04cc 00000000 		.4byte	.LVL55
 8545 04d0 2C000000 		.4byte	.LVL59
 8546 04d4 0100     		.2byte	0x1
 8547 04d6 50       		.byte	0x50
 8548 04d7 2C000000 		.4byte	.LVL59
 8549 04db 44000000 		.4byte	.LVL61
 8550 04df 0100     		.2byte	0x1
 8551 04e1 54       		.byte	0x54
 8552 04e2 44000000 		.4byte	.LVL61
 8553 04e6 61000000 		.4byte	.LVL63-1
 8554 04ea 0100     		.2byte	0x1
 8555 04ec 50       		.byte	0x50
 8556 04ed 61000000 		.4byte	.LVL63-1
 8557 04f1 80000000 		.4byte	.LFE131
 8558 04f5 0100     		.2byte	0x1
 8559 04f7 54       		.byte	0x54
 8560 04f8 00000000 		.4byte	0
 8561 04fc 00000000 		.4byte	0
 8562              	.LLST32:
 8563 0500 00000000 		.4byte	.LVL55
 8564 0504 2C000000 		.4byte	.LVL59
 8565 0508 0100     		.2byte	0x1
 8566 050a 51       		.byte	0x51
 8567 050b 2C000000 		.4byte	.LVL59
 8568 050f 44000000 		.4byte	.LVL61
 8569 0513 0400     		.2byte	0x4
ARM GAS  /tmp/cclL2Tth.s 			page 152


 8570 0515 F3       		.byte	0xf3
 8571 0516 01       		.uleb128 0x1
 8572 0517 51       		.byte	0x51
 8573 0518 9F       		.byte	0x9f
 8574 0519 44000000 		.4byte	.LVL61
 8575 051d 61000000 		.4byte	.LVL63-1
 8576 0521 0100     		.2byte	0x1
 8577 0523 51       		.byte	0x51
 8578 0524 61000000 		.4byte	.LVL63-1
 8579 0528 80000000 		.4byte	.LFE131
 8580 052c 0400     		.2byte	0x4
 8581 052e F3       		.byte	0xf3
 8582 052f 01       		.uleb128 0x1
 8583 0530 51       		.byte	0x51
 8584 0531 9F       		.byte	0x9f
 8585 0532 00000000 		.4byte	0
 8586 0536 00000000 		.4byte	0
 8587              	.LLST33:
 8588 053a 00000000 		.4byte	.LVL55
 8589 053e 2C000000 		.4byte	.LVL59
 8590 0542 0100     		.2byte	0x1
 8591 0544 52       		.byte	0x52
 8592 0545 2C000000 		.4byte	.LVL59
 8593 0549 44000000 		.4byte	.LVL61
 8594 054d 0400     		.2byte	0x4
 8595 054f F3       		.byte	0xf3
 8596 0550 01       		.uleb128 0x1
 8597 0551 52       		.byte	0x52
 8598 0552 9F       		.byte	0x9f
 8599 0553 44000000 		.4byte	.LVL61
 8600 0557 61000000 		.4byte	.LVL63-1
 8601 055b 0100     		.2byte	0x1
 8602 055d 52       		.byte	0x52
 8603 055e 61000000 		.4byte	.LVL63-1
 8604 0562 80000000 		.4byte	.LFE131
 8605 0566 0400     		.2byte	0x4
 8606 0568 F3       		.byte	0xf3
 8607 0569 01       		.uleb128 0x1
 8608 056a 52       		.byte	0x52
 8609 056b 9F       		.byte	0x9f
 8610 056c 00000000 		.4byte	0
 8611 0570 00000000 		.4byte	0
 8612              	.LLST34:
 8613 0574 00000000 		.4byte	.LVL55
 8614 0578 18000000 		.4byte	.LVL57
 8615 057c 0100     		.2byte	0x1
 8616 057e 53       		.byte	0x53
 8617 057f 18000000 		.4byte	.LVL57
 8618 0583 2C000000 		.4byte	.LVL59
 8619 0587 0200     		.2byte	0x2
 8620 0589 70       		.byte	0x70
 8621 058a 30       		.sleb128 48
 8622 058b 2C000000 		.4byte	.LVL59
 8623 058f 44000000 		.4byte	.LVL61
 8624 0593 0400     		.2byte	0x4
 8625 0595 F3       		.byte	0xf3
 8626 0596 01       		.uleb128 0x1
ARM GAS  /tmp/cclL2Tth.s 			page 153


 8627 0597 53       		.byte	0x53
 8628 0598 9F       		.byte	0x9f
 8629 0599 44000000 		.4byte	.LVL61
 8630 059d 61000000 		.4byte	.LVL63-1
 8631 05a1 0200     		.2byte	0x2
 8632 05a3 70       		.byte	0x70
 8633 05a4 30       		.sleb128 48
 8634 05a5 61000000 		.4byte	.LVL63-1
 8635 05a9 80000000 		.4byte	.LFE131
 8636 05ad 0400     		.2byte	0x4
 8637 05af F3       		.byte	0xf3
 8638 05b0 01       		.uleb128 0x1
 8639 05b1 53       		.byte	0x53
 8640 05b2 9F       		.byte	0x9f
 8641 05b3 00000000 		.4byte	0
 8642 05b7 00000000 		.4byte	0
 8643              	.LLST35:
 8644 05bb 12000000 		.4byte	.LVL56
 8645 05bf 2C000000 		.4byte	.LVL59
 8646 05c3 0100     		.2byte	0x1
 8647 05c5 50       		.byte	0x50
 8648 05c6 2C000000 		.4byte	.LVL59
 8649 05ca 44000000 		.4byte	.LVL61
 8650 05ce 0100     		.2byte	0x1
 8651 05d0 54       		.byte	0x54
 8652 05d1 44000000 		.4byte	.LVL61
 8653 05d5 61000000 		.4byte	.LVL63-1
 8654 05d9 0100     		.2byte	0x1
 8655 05db 50       		.byte	0x50
 8656 05dc 61000000 		.4byte	.LVL63-1
 8657 05e0 80000000 		.4byte	.LFE131
 8658 05e4 0100     		.2byte	0x1
 8659 05e6 54       		.byte	0x54
 8660 05e7 00000000 		.4byte	0
 8661 05eb 00000000 		.4byte	0
 8662              	.LLST36:
 8663 05ef 1C000000 		.4byte	.LVL58
 8664 05f3 2C000000 		.4byte	.LVL59
 8665 05f7 0100     		.2byte	0x1
 8666 05f9 50       		.byte	0x50
 8667 05fa 44000000 		.4byte	.LVL61
 8668 05fe 61000000 		.4byte	.LVL63-1
 8669 0602 0100     		.2byte	0x1
 8670 0604 50       		.byte	0x50
 8671 0605 61000000 		.4byte	.LVL63-1
 8672 0609 80000000 		.4byte	.LFE131
 8673 060d 0100     		.2byte	0x1
 8674 060f 54       		.byte	0x54
 8675 0610 00000000 		.4byte	0
 8676 0614 00000000 		.4byte	0
 8677              	.LLST37:
 8678 0618 44000000 		.4byte	.LVL61
 8679 061c 61000000 		.4byte	.LVL63-1
 8680 0620 0100     		.2byte	0x1
 8681 0622 50       		.byte	0x50
 8682 0623 61000000 		.4byte	.LVL63-1
 8683 0627 80000000 		.4byte	.LFE131
ARM GAS  /tmp/cclL2Tth.s 			page 154


 8684 062b 0100     		.2byte	0x1
 8685 062d 54       		.byte	0x54
 8686 062e 00000000 		.4byte	0
 8687 0632 00000000 		.4byte	0
 8688              	.LLST38:
 8689 0636 4E000000 		.4byte	.LVL62
 8690 063a 61000000 		.4byte	.LVL63-1
 8691 063e 0100     		.2byte	0x1
 8692 0640 50       		.byte	0x50
 8693 0641 61000000 		.4byte	.LVL63-1
 8694 0645 72000000 		.4byte	.LVL64
 8695 0649 0100     		.2byte	0x1
 8696 064b 54       		.byte	0x54
 8697 064c 00000000 		.4byte	0
 8698 0650 00000000 		.4byte	0
 8699              	.LLST39:
 8700 0654 4E000000 		.4byte	.LVL62
 8701 0658 61000000 		.4byte	.LVL63-1
 8702 065c 0100     		.2byte	0x1
 8703 065e 51       		.byte	0x51
 8704 065f 00000000 		.4byte	0
 8705 0663 00000000 		.4byte	0
 8706              	.LLST40:
 8707 0667 4E000000 		.4byte	.LVL62
 8708 066b 61000000 		.4byte	.LVL63-1
 8709 066f 0100     		.2byte	0x1
 8710 0671 52       		.byte	0x52
 8711 0672 00000000 		.4byte	0
 8712 0676 00000000 		.4byte	0
 8713              	.LLST41:
 8714 067a 00000000 		.4byte	.LVL67
 8715 067e 6C000000 		.4byte	.LVL78
 8716 0682 0100     		.2byte	0x1
 8717 0684 50       		.byte	0x50
 8718 0685 6C000000 		.4byte	.LVL78
 8719 0689 DA000000 		.4byte	.LVL92
 8720 068d 0100     		.2byte	0x1
 8721 068f 54       		.byte	0x54
 8722 0690 DA000000 		.4byte	.LVL92
 8723 0694 1C010000 		.4byte	.LVL102
 8724 0698 0100     		.2byte	0x1
 8725 069a 50       		.byte	0x50
 8726 069b 1C010000 		.4byte	.LVL102
 8727 069f 04020000 		.4byte	.LVL124
 8728 06a3 0100     		.2byte	0x1
 8729 06a5 54       		.byte	0x54
 8730 06a6 04020000 		.4byte	.LVL124
 8731 06aa 07020000 		.4byte	.LVL125-1
 8732 06ae 0100     		.2byte	0x1
 8733 06b0 50       		.byte	0x50
 8734 06b1 07020000 		.4byte	.LVL125-1
 8735 06b5 0A020000 		.4byte	.LVL126
 8736 06b9 0100     		.2byte	0x1
 8737 06bb 54       		.byte	0x54
 8738 06bc 0A020000 		.4byte	.LVL126
 8739 06c0 0D020000 		.4byte	.LVL127-1
 8740 06c4 0100     		.2byte	0x1
ARM GAS  /tmp/cclL2Tth.s 			page 155


 8741 06c6 50       		.byte	0x50
 8742 06c7 0D020000 		.4byte	.LVL127-1
 8743 06cb 10020000 		.4byte	.LFE132
 8744 06cf 0100     		.2byte	0x1
 8745 06d1 54       		.byte	0x54
 8746 06d2 00000000 		.4byte	0
 8747 06d6 00000000 		.4byte	0
 8748              	.LLST42:
 8749 06da 00000000 		.4byte	.LVL67
 8750 06de 6C000000 		.4byte	.LVL78
 8751 06e2 0100     		.2byte	0x1
 8752 06e4 51       		.byte	0x51
 8753 06e5 6C000000 		.4byte	.LVL78
 8754 06e9 DA000000 		.4byte	.LVL92
 8755 06ed 0400     		.2byte	0x4
 8756 06ef F3       		.byte	0xf3
 8757 06f0 01       		.uleb128 0x1
 8758 06f1 51       		.byte	0x51
 8759 06f2 9F       		.byte	0x9f
 8760 06f3 DA000000 		.4byte	.LVL92
 8761 06f7 1C010000 		.4byte	.LVL102
 8762 06fb 0100     		.2byte	0x1
 8763 06fd 51       		.byte	0x51
 8764 06fe 1C010000 		.4byte	.LVL102
 8765 0702 04020000 		.4byte	.LVL124
 8766 0706 0400     		.2byte	0x4
 8767 0708 F3       		.byte	0xf3
 8768 0709 01       		.uleb128 0x1
 8769 070a 51       		.byte	0x51
 8770 070b 9F       		.byte	0x9f
 8771 070c 04020000 		.4byte	.LVL124
 8772 0710 07020000 		.4byte	.LVL125-1
 8773 0714 0100     		.2byte	0x1
 8774 0716 51       		.byte	0x51
 8775 0717 07020000 		.4byte	.LVL125-1
 8776 071b 0A020000 		.4byte	.LVL126
 8777 071f 0400     		.2byte	0x4
 8778 0721 F3       		.byte	0xf3
 8779 0722 01       		.uleb128 0x1
 8780 0723 51       		.byte	0x51
 8781 0724 9F       		.byte	0x9f
 8782 0725 0A020000 		.4byte	.LVL126
 8783 0729 0D020000 		.4byte	.LVL127-1
 8784 072d 0100     		.2byte	0x1
 8785 072f 51       		.byte	0x51
 8786 0730 0D020000 		.4byte	.LVL127-1
 8787 0734 10020000 		.4byte	.LFE132
 8788 0738 0400     		.2byte	0x4
 8789 073a F3       		.byte	0xf3
 8790 073b 01       		.uleb128 0x1
 8791 073c 51       		.byte	0x51
 8792 073d 9F       		.byte	0x9f
 8793 073e 00000000 		.4byte	0
 8794 0742 00000000 		.4byte	0
 8795              	.LLST43:
 8796 0746 00000000 		.4byte	.LVL67
 8797 074a 52000000 		.4byte	.LVL76
ARM GAS  /tmp/cclL2Tth.s 			page 156


 8798 074e 0100     		.2byte	0x1
 8799 0750 52       		.byte	0x52
 8800 0751 52000000 		.4byte	.LVL76
 8801 0755 6C000000 		.4byte	.LVL78
 8802 0759 0200     		.2byte	0x2
 8803 075b 70       		.byte	0x70
 8804 075c 22       		.sleb128 34
 8805 075d 6C000000 		.4byte	.LVL78
 8806 0761 DA000000 		.4byte	.LVL92
 8807 0765 0400     		.2byte	0x4
 8808 0767 F3       		.byte	0xf3
 8809 0768 01       		.uleb128 0x1
 8810 0769 52       		.byte	0x52
 8811 076a 9F       		.byte	0x9f
 8812 076b DA000000 		.4byte	.LVL92
 8813 076f FE000000 		.4byte	.LVL100
 8814 0773 0100     		.2byte	0x1
 8815 0775 52       		.byte	0x52
 8816 0776 FE000000 		.4byte	.LVL100
 8817 077a 1C010000 		.4byte	.LVL102
 8818 077e 0200     		.2byte	0x2
 8819 0780 70       		.byte	0x70
 8820 0781 22       		.sleb128 34
 8821 0782 1C010000 		.4byte	.LVL102
 8822 0786 04020000 		.4byte	.LVL124
 8823 078a 0400     		.2byte	0x4
 8824 078c F3       		.byte	0xf3
 8825 078d 01       		.uleb128 0x1
 8826 078e 52       		.byte	0x52
 8827 078f 9F       		.byte	0x9f
 8828 0790 04020000 		.4byte	.LVL124
 8829 0794 07020000 		.4byte	.LVL125-1
 8830 0798 0100     		.2byte	0x1
 8831 079a 52       		.byte	0x52
 8832 079b 07020000 		.4byte	.LVL125-1
 8833 079f 0A020000 		.4byte	.LVL126
 8834 07a3 0400     		.2byte	0x4
 8835 07a5 F3       		.byte	0xf3
 8836 07a6 01       		.uleb128 0x1
 8837 07a7 52       		.byte	0x52
 8838 07a8 9F       		.byte	0x9f
 8839 07a9 0A020000 		.4byte	.LVL126
 8840 07ad 0D020000 		.4byte	.LVL127-1
 8841 07b1 0100     		.2byte	0x1
 8842 07b3 52       		.byte	0x52
 8843 07b4 0D020000 		.4byte	.LVL127-1
 8844 07b8 10020000 		.4byte	.LFE132
 8845 07bc 0400     		.2byte	0x4
 8846 07be F3       		.byte	0xf3
 8847 07bf 01       		.uleb128 0x1
 8848 07c0 52       		.byte	0x52
 8849 07c1 9F       		.byte	0x9f
 8850 07c2 00000000 		.4byte	0
 8851 07c6 00000000 		.4byte	0
 8852              	.LLST44:
 8853 07ca 00000000 		.4byte	.LVL67
 8854 07ce 2C000000 		.4byte	.LVL69
ARM GAS  /tmp/cclL2Tth.s 			page 157


 8855 07d2 0100     		.2byte	0x1
 8856 07d4 53       		.byte	0x53
 8857 07d5 2C000000 		.4byte	.LVL69
 8858 07d9 6C000000 		.4byte	.LVL78
 8859 07dd 0200     		.2byte	0x2
 8860 07df 70       		.byte	0x70
 8861 07e0 28       		.sleb128 40
 8862 07e1 6C000000 		.4byte	.LVL78
 8863 07e5 DA000000 		.4byte	.LVL92
 8864 07e9 0400     		.2byte	0x4
 8865 07eb F3       		.byte	0xf3
 8866 07ec 01       		.uleb128 0x1
 8867 07ed 53       		.byte	0x53
 8868 07ee 9F       		.byte	0x9f
 8869 07ef DA000000 		.4byte	.LVL92
 8870 07f3 DC000000 		.4byte	.LVL93
 8871 07f7 0100     		.2byte	0x1
 8872 07f9 53       		.byte	0x53
 8873 07fa DC000000 		.4byte	.LVL93
 8874 07fe 1C010000 		.4byte	.LVL102
 8875 0802 0200     		.2byte	0x2
 8876 0804 70       		.byte	0x70
 8877 0805 28       		.sleb128 40
 8878 0806 1C010000 		.4byte	.LVL102
 8879 080a 04020000 		.4byte	.LVL124
 8880 080e 0400     		.2byte	0x4
 8881 0810 F3       		.byte	0xf3
 8882 0811 01       		.uleb128 0x1
 8883 0812 53       		.byte	0x53
 8884 0813 9F       		.byte	0x9f
 8885 0814 04020000 		.4byte	.LVL124
 8886 0818 07020000 		.4byte	.LVL125-1
 8887 081c 0100     		.2byte	0x1
 8888 081e 53       		.byte	0x53
 8889 081f 07020000 		.4byte	.LVL125-1
 8890 0823 0A020000 		.4byte	.LVL126
 8891 0827 0400     		.2byte	0x4
 8892 0829 F3       		.byte	0xf3
 8893 082a 01       		.uleb128 0x1
 8894 082b 53       		.byte	0x53
 8895 082c 9F       		.byte	0x9f
 8896 082d 0A020000 		.4byte	.LVL126
 8897 0831 0D020000 		.4byte	.LVL127-1
 8898 0835 0100     		.2byte	0x1
 8899 0837 53       		.byte	0x53
 8900 0838 0D020000 		.4byte	.LVL127-1
 8901 083c 10020000 		.4byte	.LFE132
 8902 0840 0400     		.2byte	0x4
 8903 0842 F3       		.byte	0xf3
 8904 0843 01       		.uleb128 0x1
 8905 0844 53       		.byte	0x53
 8906 0845 9F       		.byte	0x9f
 8907 0846 00000000 		.4byte	0
 8908 084a 00000000 		.4byte	0
 8909              	.LLST45:
 8910 084e 00000000 		.4byte	.LVL67
 8911 0852 DA000000 		.4byte	.LVL92
ARM GAS  /tmp/cclL2Tth.s 			page 158


 8912 0856 0200     		.2byte	0x2
 8913 0858 91       		.byte	0x91
 8914 0859 00       		.sleb128 0
 8915 085a DA000000 		.4byte	.LVL92
 8916 085e 10020000 		.4byte	.LFE132
 8917 0862 0200     		.2byte	0x2
 8918 0864 91       		.byte	0x91
 8919 0865 00       		.sleb128 0
 8920 0866 00000000 		.4byte	0
 8921 086a 00000000 		.4byte	0
 8922              	.LLST46:
 8923 086e 00000000 		.4byte	.LVL67
 8924 0872 DA000000 		.4byte	.LVL92
 8925 0876 0200     		.2byte	0x2
 8926 0878 91       		.byte	0x91
 8927 0879 04       		.sleb128 4
 8928 087a DA000000 		.4byte	.LVL92
 8929 087e 10020000 		.4byte	.LFE132
 8930 0882 0200     		.2byte	0x2
 8931 0884 91       		.byte	0x91
 8932 0885 04       		.sleb128 4
 8933 0886 00000000 		.4byte	0
 8934 088a 00000000 		.4byte	0
 8935              	.LLST47:
 8936 088e 12000000 		.4byte	.LVL68
 8937 0892 6C000000 		.4byte	.LVL78
 8938 0896 0100     		.2byte	0x1
 8939 0898 50       		.byte	0x50
 8940 0899 6C000000 		.4byte	.LVL78
 8941 089d DA000000 		.4byte	.LVL92
 8942 08a1 0100     		.2byte	0x1
 8943 08a3 54       		.byte	0x54
 8944 08a4 DA000000 		.4byte	.LVL92
 8945 08a8 1C010000 		.4byte	.LVL102
 8946 08ac 0100     		.2byte	0x1
 8947 08ae 50       		.byte	0x50
 8948 08af 1C010000 		.4byte	.LVL102
 8949 08b3 04020000 		.4byte	.LVL124
 8950 08b7 0100     		.2byte	0x1
 8951 08b9 54       		.byte	0x54
 8952 08ba 04020000 		.4byte	.LVL124
 8953 08be 07020000 		.4byte	.LVL125-1
 8954 08c2 0100     		.2byte	0x1
 8955 08c4 50       		.byte	0x50
 8956 08c5 07020000 		.4byte	.LVL125-1
 8957 08c9 0A020000 		.4byte	.LVL126
 8958 08cd 0100     		.2byte	0x1
 8959 08cf 54       		.byte	0x54
 8960 08d0 0A020000 		.4byte	.LVL126
 8961 08d4 0D020000 		.4byte	.LVL127-1
 8962 08d8 0100     		.2byte	0x1
 8963 08da 50       		.byte	0x50
 8964 08db 0D020000 		.4byte	.LVL127-1
 8965 08df 10020000 		.4byte	.LFE132
 8966 08e3 0100     		.2byte	0x1
 8967 08e5 54       		.byte	0x54
 8968 08e6 00000000 		.4byte	0
ARM GAS  /tmp/cclL2Tth.s 			page 159


 8969 08ea 00000000 		.4byte	0
 8970              	.LLST48:
 8971 08ee 3A000000 		.4byte	.LVL73
 8972 08f2 4A000000 		.4byte	.LVL75
 8973 08f6 0100     		.2byte	0x1
 8974 08f8 56       		.byte	0x56
 8975 08f9 EA000000 		.4byte	.LVL97
 8976 08fd FA000000 		.4byte	.LVL99
 8977 0901 0100     		.2byte	0x1
 8978 0903 56       		.byte	0x56
 8979 0904 00000000 		.4byte	0
 8980 0908 00000000 		.4byte	0
 8981              	.LLST49:
 8982 090c 30000000 		.4byte	.LVL70
 8983 0910 36000000 		.4byte	.LVL72
 8984 0914 0100     		.2byte	0x1
 8985 0916 53       		.byte	0x53
 8986 0917 E0000000 		.4byte	.LVL94
 8987 091b E6000000 		.4byte	.LVL96
 8988 091f 0100     		.2byte	0x1
 8989 0921 53       		.byte	0x53
 8990 0922 00000000 		.4byte	0
 8991 0926 00000000 		.4byte	0
 8992              	.LLST50:
 8993 092a 30000000 		.4byte	.LVL70
 8994 092e 34000000 		.4byte	.LVL71
 8995 0932 0300     		.2byte	0x3
 8996 0934 09       		.byte	0x9
 8997 0935 FF       		.byte	0xff
 8998 0936 9F       		.byte	0x9f
 8999 0937 34000000 		.4byte	.LVL71
 9000 093b 36000000 		.4byte	.LVL72
 9001 093f 0100     		.2byte	0x1
 9002 0941 59       		.byte	0x59
 9003 0942 E0000000 		.4byte	.LVL94
 9004 0946 E4000000 		.4byte	.LVL95
 9005 094a 0200     		.2byte	0x2
 9006 094c 31       		.byte	0x31
 9007 094d 9F       		.byte	0x9f
 9008 094e E4000000 		.4byte	.LVL95
 9009 0952 E6000000 		.4byte	.LVL96
 9010 0956 0100     		.2byte	0x1
 9011 0958 59       		.byte	0x59
 9012 0959 00000000 		.4byte	0
 9013 095d 00000000 		.4byte	0
 9014              	.LLST51:
 9015 0961 3A000000 		.4byte	.LVL73
 9016 0965 48000000 		.4byte	.LVL74
 9017 0969 0200     		.2byte	0x2
 9018 096b 31       		.byte	0x31
 9019 096c 9F       		.byte	0x9f
 9020 096d 48000000 		.4byte	.LVL74
 9021 0971 4A000000 		.4byte	.LVL75
 9022 0975 0100     		.2byte	0x1
 9023 0977 5A       		.byte	0x5a
 9024 0978 EA000000 		.4byte	.LVL97
 9025 097c F8000000 		.4byte	.LVL98
ARM GAS  /tmp/cclL2Tth.s 			page 160


 9026 0980 0300     		.2byte	0x3
 9027 0982 09       		.byte	0x9
 9028 0983 FF       		.byte	0xff
 9029 0984 9F       		.byte	0x9f
 9030 0985 F8000000 		.4byte	.LVL98
 9031 0989 FA000000 		.4byte	.LVL99
 9032 098d 0100     		.2byte	0x1
 9033 098f 5A       		.byte	0x5a
 9034 0990 00000000 		.4byte	0
 9035 0994 00000000 		.4byte	0
 9036              	.LLST52:
 9037 0998 64000000 		.4byte	.LVL77
 9038 099c 78000000 		.4byte	.LVL80
 9039 09a0 0100     		.2byte	0x1
 9040 09a2 56       		.byte	0x56
 9041 09a3 7E000000 		.4byte	.LVL81
 9042 09a7 82000000 		.4byte	.LVL82
 9043 09ab 0100     		.2byte	0x1
 9044 09ad 56       		.byte	0x56
 9045 09ae 84000000 		.4byte	.LVL83
 9046 09b2 B6000000 		.4byte	.LVL87
 9047 09b6 0100     		.2byte	0x1
 9048 09b8 56       		.byte	0x56
 9049 09b9 BC000000 		.4byte	.LVL88
 9050 09bd C0000000 		.4byte	.LVL90
 9051 09c1 0100     		.2byte	0x1
 9052 09c3 56       		.byte	0x56
 9053 09c4 12010000 		.4byte	.LVL101
 9054 09c8 1C010000 		.4byte	.LVL102
 9055 09cc 0100     		.2byte	0x1
 9056 09ce 53       		.byte	0x53
 9057 09cf 1C010000 		.4byte	.LVL102
 9058 09d3 20010000 		.4byte	.LVL103
 9059 09d7 0100     		.2byte	0x1
 9060 09d9 56       		.byte	0x56
 9061 09da 26010000 		.4byte	.LVL104
 9062 09de 66010000 		.4byte	.LVL110
 9063 09e2 0100     		.2byte	0x1
 9064 09e4 56       		.byte	0x56
 9065 09e5 6A010000 		.4byte	.LVL111
 9066 09e9 04020000 		.4byte	.LVL124
 9067 09ed 0100     		.2byte	0x1
 9068 09ef 56       		.byte	0x56
 9069 09f0 00000000 		.4byte	0
 9070 09f4 00000000 		.4byte	0
 9071              	.LLST53:
 9072 09f8 64000000 		.4byte	.LVL77
 9073 09fc 6C000000 		.4byte	.LVL78
 9074 0a00 0100     		.2byte	0x1
 9075 0a02 53       		.byte	0x53
 9076 0a03 6C000000 		.4byte	.LVL78
 9077 0a07 C0000000 		.4byte	.LVL90
 9078 0a0b 0100     		.2byte	0x1
 9079 0a0d 5B       		.byte	0x5b
 9080 0a0e 12010000 		.4byte	.LVL101
 9081 0a12 1C010000 		.4byte	.LVL102
 9082 0a16 0100     		.2byte	0x1
ARM GAS  /tmp/cclL2Tth.s 			page 161


 9083 0a18 5C       		.byte	0x5c
 9084 0a19 BC010000 		.4byte	.LVL118
 9085 0a1d 04020000 		.4byte	.LVL124
 9086 0a21 0100     		.2byte	0x1
 9087 0a23 5B       		.byte	0x5b
 9088 0a24 00000000 		.4byte	0
 9089 0a28 00000000 		.4byte	0
 9090              	.LLST54:
 9091 0a2c 64000000 		.4byte	.LVL77
 9092 0a30 6C000000 		.4byte	.LVL78
 9093 0a34 0200     		.2byte	0x2
 9094 0a36 30       		.byte	0x30
 9095 0a37 9F       		.byte	0x9f
 9096 0a38 6C000000 		.4byte	.LVL78
 9097 0a3c 70000000 		.4byte	.LVL79
 9098 0a40 0100     		.2byte	0x1
 9099 0a42 57       		.byte	0x57
 9100 0a43 70000000 		.4byte	.LVL79
 9101 0a47 7E000000 		.4byte	.LVL81
 9102 0a4b 0300     		.2byte	0x3
 9103 0a4d 77       		.byte	0x77
 9104 0a4e 7F       		.sleb128 -1
 9105 0a4f 9F       		.byte	0x9f
 9106 0a50 84000000 		.4byte	.LVL83
 9107 0a54 B2000000 		.4byte	.LVL86
 9108 0a58 0100     		.2byte	0x1
 9109 0a5a 57       		.byte	0x57
 9110 0a5b B2000000 		.4byte	.LVL86
 9111 0a5f BE000000 		.4byte	.LVL89
 9112 0a63 0300     		.2byte	0x3
 9113 0a65 77       		.byte	0x77
 9114 0a66 7F       		.sleb128 -1
 9115 0a67 9F       		.byte	0x9f
 9116 0a68 12010000 		.4byte	.LVL101
 9117 0a6c 1C010000 		.4byte	.LVL102
 9118 0a70 0200     		.2byte	0x2
 9119 0a72 30       		.byte	0x30
 9120 0a73 9F       		.byte	0x9f
 9121 0a74 1C010000 		.4byte	.LVL102
 9122 0a78 2C010000 		.4byte	.LVL105
 9123 0a7c 0100     		.2byte	0x1
 9124 0a7e 57       		.byte	0x57
 9125 0a7f 2C010000 		.4byte	.LVL105
 9126 0a83 2E010000 		.4byte	.LVL106
 9127 0a87 0300     		.2byte	0x3
 9128 0a89 77       		.byte	0x77
 9129 0a8a 01       		.sleb128 1
 9130 0a8b 9F       		.byte	0x9f
 9131 0a8c 2E010000 		.4byte	.LVL106
 9132 0a90 3A010000 		.4byte	.LVL107
 9133 0a94 0300     		.2byte	0x3
 9134 0a96 77       		.byte	0x77
 9135 0a97 00       		.sleb128 0
 9136 0a98 9F       		.byte	0x9f
 9137 0a99 3A010000 		.4byte	.LVL107
 9138 0a9d 04020000 		.4byte	.LVL124
 9139 0aa1 0100     		.2byte	0x1
ARM GAS  /tmp/cclL2Tth.s 			page 162


 9140 0aa3 57       		.byte	0x57
 9141 0aa4 00000000 		.4byte	0
 9142 0aa8 00000000 		.4byte	0
 9143              	.LLST55:
 9144 0aac 6C000000 		.4byte	.LVL78
 9145 0ab0 C0000000 		.4byte	.LVL90
 9146 0ab4 0100     		.2byte	0x1
 9147 0ab6 54       		.byte	0x54
 9148 0ab7 BC010000 		.4byte	.LVL118
 9149 0abb 04020000 		.4byte	.LVL124
 9150 0abf 0100     		.2byte	0x1
 9151 0ac1 54       		.byte	0x54
 9152 0ac2 00000000 		.4byte	0
 9153 0ac6 00000000 		.4byte	0
 9154              	.LLST56:
 9155 0aca 96000000 		.4byte	.LVL84
 9156 0ace AC000000 		.4byte	.LVL85
 9157 0ad2 0100     		.2byte	0x1
 9158 0ad4 54       		.byte	0x54
 9159 0ad5 BC010000 		.4byte	.LVL118
 9160 0ad9 04020000 		.4byte	.LVL124
 9161 0add 0100     		.2byte	0x1
 9162 0adf 54       		.byte	0x54
 9163 0ae0 00000000 		.4byte	0
 9164 0ae4 00000000 		.4byte	0
 9165              	.LLST57:
 9166 0ae8 BC010000 		.4byte	.LVL118
 9167 0aec 04020000 		.4byte	.LVL124
 9168 0af0 0100     		.2byte	0x1
 9169 0af2 54       		.byte	0x54
 9170 0af3 00000000 		.4byte	0
 9171 0af7 00000000 		.4byte	0
 9172              	.LLST58:
 9173 0afb C6010000 		.4byte	.LVL119
 9174 0aff F0010000 		.4byte	.LVL121
 9175 0b03 0100     		.2byte	0x1
 9176 0b05 54       		.byte	0x54
 9177 0b06 00000000 		.4byte	0
 9178 0b0a 00000000 		.4byte	0
 9179              	.LLST59:
 9180 0b0e C6010000 		.4byte	.LVL119
 9181 0b12 F0010000 		.4byte	.LVL121
 9182 0b16 0100     		.2byte	0x1
 9183 0b18 55       		.byte	0x55
 9184 0b19 00000000 		.4byte	0
 9185 0b1d 00000000 		.4byte	0
 9186              	.LLST60:
 9187 0b21 C6010000 		.4byte	.LVL119
 9188 0b25 DF010000 		.4byte	.LVL120-1
 9189 0b29 0100     		.2byte	0x1
 9190 0b2b 51       		.byte	0x51
 9191 0b2c 00000000 		.4byte	0
 9192 0b30 00000000 		.4byte	0
 9193              	.LLST61:
 9194 0b34 1C010000 		.4byte	.LVL102
 9195 0b38 BC010000 		.4byte	.LVL118
 9196 0b3c 0100     		.2byte	0x1
ARM GAS  /tmp/cclL2Tth.s 			page 163


 9197 0b3e 54       		.byte	0x54
 9198 0b3f 00000000 		.4byte	0
 9199 0b43 00000000 		.4byte	0
 9200              	.LLST62:
 9201 0b47 4C010000 		.4byte	.LVL108
 9202 0b4b 60010000 		.4byte	.LVL109
 9203 0b4f 0100     		.2byte	0x1
 9204 0b51 54       		.byte	0x54
 9205 0b52 70010000 		.4byte	.LVL112
 9206 0b56 BC010000 		.4byte	.LVL118
 9207 0b5a 0100     		.2byte	0x1
 9208 0b5c 54       		.byte	0x54
 9209 0b5d 00000000 		.4byte	0
 9210 0b61 00000000 		.4byte	0
 9211              	.LLST63:
 9212 0b65 70010000 		.4byte	.LVL112
 9213 0b69 BC010000 		.4byte	.LVL118
 9214 0b6d 0100     		.2byte	0x1
 9215 0b6f 54       		.byte	0x54
 9216 0b70 00000000 		.4byte	0
 9217 0b74 00000000 		.4byte	0
 9218              	.LLST64:
 9219 0b78 7A010000 		.4byte	.LVL113
 9220 0b7c A2010000 		.4byte	.LVL115
 9221 0b80 0100     		.2byte	0x1
 9222 0b82 54       		.byte	0x54
 9223 0b83 00000000 		.4byte	0
 9224 0b87 00000000 		.4byte	0
 9225              	.LLST65:
 9226 0b8b 7A010000 		.4byte	.LVL113
 9227 0b8f A2010000 		.4byte	.LVL115
 9228 0b93 0100     		.2byte	0x1
 9229 0b95 55       		.byte	0x55
 9230 0b96 00000000 		.4byte	0
 9231 0b9a 00000000 		.4byte	0
 9232              	.LLST66:
 9233 0b9e 7A010000 		.4byte	.LVL113
 9234 0ba2 A2010000 		.4byte	.LVL115
 9235 0ba6 0100     		.2byte	0x1
 9236 0ba8 58       		.byte	0x58
 9237 0ba9 00000000 		.4byte	0
 9238 0bad 00000000 		.4byte	0
 9239              	.LLST67:
 9240 0bb1 00000000 		.4byte	.LVL128
 9241 0bb5 17000000 		.4byte	.LVL129-1
 9242 0bb9 0100     		.2byte	0x1
 9243 0bbb 50       		.byte	0x50
 9244 0bbc 17000000 		.4byte	.LVL129-1
 9245 0bc0 18000000 		.4byte	.LFE133
 9246 0bc4 0400     		.2byte	0x4
 9247 0bc6 F3       		.byte	0xf3
 9248 0bc7 01       		.uleb128 0x1
 9249 0bc8 50       		.byte	0x50
 9250 0bc9 9F       		.byte	0x9f
 9251 0bca 00000000 		.4byte	0
 9252 0bce 00000000 		.4byte	0
 9253              	.LLST68:
ARM GAS  /tmp/cclL2Tth.s 			page 164


 9254 0bd2 00000000 		.4byte	.LVL128
 9255 0bd6 17000000 		.4byte	.LVL129-1
 9256 0bda 0100     		.2byte	0x1
 9257 0bdc 51       		.byte	0x51
 9258 0bdd 17000000 		.4byte	.LVL129-1
 9259 0be1 18000000 		.4byte	.LFE133
 9260 0be5 0400     		.2byte	0x4
 9261 0be7 F3       		.byte	0xf3
 9262 0be8 01       		.uleb128 0x1
 9263 0be9 51       		.byte	0x51
 9264 0bea 9F       		.byte	0x9f
 9265 0beb 00000000 		.4byte	0
 9266 0bef 00000000 		.4byte	0
 9267              	.LLST69:
 9268 0bf3 00000000 		.4byte	.LVL130
 9269 0bf7 71000000 		.4byte	.LVL137-1
 9270 0bfb 0100     		.2byte	0x1
 9271 0bfd 50       		.byte	0x50
 9272 0bfe 71000000 		.4byte	.LVL137-1
 9273 0c02 72000000 		.4byte	.LVL137
 9274 0c06 0400     		.2byte	0x4
 9275 0c08 F3       		.byte	0xf3
 9276 0c09 01       		.uleb128 0x1
 9277 0c0a 50       		.byte	0x50
 9278 0c0b 9F       		.byte	0x9f
 9279 0c0c 72000000 		.4byte	.LVL137
 9280 0c10 82000000 		.4byte	.LFE134
 9281 0c14 0100     		.2byte	0x1
 9282 0c16 50       		.byte	0x50
 9283 0c17 00000000 		.4byte	0
 9284 0c1b 00000000 		.4byte	0
 9285              	.LLST70:
 9286 0c1f 00000000 		.4byte	.LVL130
 9287 0c23 28000000 		.4byte	.LVL133
 9288 0c27 0100     		.2byte	0x1
 9289 0c29 51       		.byte	0x51
 9290 0c2a 28000000 		.4byte	.LVL133
 9291 0c2e 78000000 		.4byte	.LVL138
 9292 0c32 0400     		.2byte	0x4
 9293 0c34 F3       		.byte	0xf3
 9294 0c35 01       		.uleb128 0x1
 9295 0c36 51       		.byte	0x51
 9296 0c37 9F       		.byte	0x9f
 9297 0c38 78000000 		.4byte	.LVL138
 9298 0c3c 7E000000 		.4byte	.LVL139
 9299 0c40 0100     		.2byte	0x1
 9300 0c42 51       		.byte	0x51
 9301 0c43 7E000000 		.4byte	.LVL139
 9302 0c47 82000000 		.4byte	.LFE134
 9303 0c4b 0400     		.2byte	0x4
 9304 0c4d F3       		.byte	0xf3
 9305 0c4e 01       		.uleb128 0x1
 9306 0c4f 51       		.byte	0x51
 9307 0c50 9F       		.byte	0x9f
 9308 0c51 00000000 		.4byte	0
 9309 0c55 00000000 		.4byte	0
 9310              	.LLST71:
ARM GAS  /tmp/cclL2Tth.s 			page 165


 9311 0c59 00000000 		.4byte	.LVL130
 9312 0c5d 3A000000 		.4byte	.LVL134
 9313 0c61 0100     		.2byte	0x1
 9314 0c63 52       		.byte	0x52
 9315 0c64 3A000000 		.4byte	.LVL134
 9316 0c68 72000000 		.4byte	.LVL137
 9317 0c6c 0400     		.2byte	0x4
 9318 0c6e F3       		.byte	0xf3
 9319 0c6f 01       		.uleb128 0x1
 9320 0c70 52       		.byte	0x52
 9321 0c71 9F       		.byte	0x9f
 9322 0c72 72000000 		.4byte	.LVL137
 9323 0c76 7E000000 		.4byte	.LVL139
 9324 0c7a 0100     		.2byte	0x1
 9325 0c7c 52       		.byte	0x52
 9326 0c7d 7E000000 		.4byte	.LVL139
 9327 0c81 82000000 		.4byte	.LFE134
 9328 0c85 0400     		.2byte	0x4
 9329 0c87 F3       		.byte	0xf3
 9330 0c88 01       		.uleb128 0x1
 9331 0c89 52       		.byte	0x52
 9332 0c8a 9F       		.byte	0x9f
 9333 0c8b 00000000 		.4byte	0
 9334 0c8f 00000000 		.4byte	0
 9335              	.LLST72:
 9336 0c93 00000000 		.4byte	.LVL130
 9337 0c97 1E000000 		.4byte	.LVL131
 9338 0c9b 0100     		.2byte	0x1
 9339 0c9d 53       		.byte	0x53
 9340 0c9e 1E000000 		.4byte	.LVL131
 9341 0ca2 24000000 		.4byte	.LVL132
 9342 0ca6 0200     		.2byte	0x2
 9343 0ca8 70       		.byte	0x70
 9344 0ca9 24       		.sleb128 36
 9345 0caa 24000000 		.4byte	.LVL132
 9346 0cae 78000000 		.4byte	.LVL138
 9347 0cb2 0400     		.2byte	0x4
 9348 0cb4 F3       		.byte	0xf3
 9349 0cb5 01       		.uleb128 0x1
 9350 0cb6 53       		.byte	0x53
 9351 0cb7 9F       		.byte	0x9f
 9352 0cb8 78000000 		.4byte	.LVL138
 9353 0cbc 7E000000 		.4byte	.LVL139
 9354 0cc0 0100     		.2byte	0x1
 9355 0cc2 53       		.byte	0x53
 9356 0cc3 7E000000 		.4byte	.LVL139
 9357 0cc7 82000000 		.4byte	.LFE134
 9358 0ccb 0400     		.2byte	0x4
 9359 0ccd F3       		.byte	0xf3
 9360 0cce 01       		.uleb128 0x1
 9361 0ccf 53       		.byte	0x53
 9362 0cd0 9F       		.byte	0x9f
 9363 0cd1 00000000 		.4byte	0
 9364 0cd5 00000000 		.4byte	0
 9365              	.LLST73:
 9366 0cd9 00000000 		.4byte	.LVL130
 9367 0cdd 6E000000 		.4byte	.LVL136
ARM GAS  /tmp/cclL2Tth.s 			page 166


 9368 0ce1 0200     		.2byte	0x2
 9369 0ce3 91       		.byte	0x91
 9370 0ce4 00       		.sleb128 0
 9371 0ce5 6E000000 		.4byte	.LVL136
 9372 0ce9 72000000 		.4byte	.LVL137
 9373 0ced 0200     		.2byte	0x2
 9374 0cef 7D       		.byte	0x7d
 9375 0cf0 00       		.sleb128 0
 9376 0cf1 72000000 		.4byte	.LVL137
 9377 0cf5 80000000 		.4byte	.LVL140
 9378 0cf9 0200     		.2byte	0x2
 9379 0cfb 7D       		.byte	0x7d
 9380 0cfc 10       		.sleb128 16
 9381 0cfd 80000000 		.4byte	.LVL140
 9382 0d01 82000000 		.4byte	.LFE134
 9383 0d05 0200     		.2byte	0x2
 9384 0d07 7D       		.byte	0x7d
 9385 0d08 00       		.sleb128 0
 9386 0d09 00000000 		.4byte	0
 9387 0d0d 00000000 		.4byte	0
 9388              	.LLST74:
 9389 0d11 00000000 		.4byte	.LVL130
 9390 0d15 6E000000 		.4byte	.LVL136
 9391 0d19 0200     		.2byte	0x2
 9392 0d1b 91       		.byte	0x91
 9393 0d1c 04       		.sleb128 4
 9394 0d1d 6E000000 		.4byte	.LVL136
 9395 0d21 72000000 		.4byte	.LVL137
 9396 0d25 0200     		.2byte	0x2
 9397 0d27 7D       		.byte	0x7d
 9398 0d28 04       		.sleb128 4
 9399 0d29 72000000 		.4byte	.LVL137
 9400 0d2d 80000000 		.4byte	.LVL140
 9401 0d31 0200     		.2byte	0x2
 9402 0d33 7D       		.byte	0x7d
 9403 0d34 14       		.sleb128 20
 9404 0d35 80000000 		.4byte	.LVL140
 9405 0d39 82000000 		.4byte	.LFE134
 9406 0d3d 0200     		.2byte	0x2
 9407 0d3f 7D       		.byte	0x7d
 9408 0d40 04       		.sleb128 4
 9409 0d41 00000000 		.4byte	0
 9410 0d45 00000000 		.4byte	0
 9411              	.LLST75:
 9412 0d49 6C000000 		.4byte	.LVL135
 9413 0d4d 71000000 		.4byte	.LVL137-1
 9414 0d51 0100     		.2byte	0x1
 9415 0d53 50       		.byte	0x50
 9416 0d54 71000000 		.4byte	.LVL137-1
 9417 0d58 72000000 		.4byte	.LVL137
 9418 0d5c 0400     		.2byte	0x4
 9419 0d5e F3       		.byte	0xf3
 9420 0d5f 01       		.uleb128 0x1
 9421 0d60 50       		.byte	0x50
 9422 0d61 9F       		.byte	0x9f
 9423 0d62 00000000 		.4byte	0
 9424 0d66 00000000 		.4byte	0
ARM GAS  /tmp/cclL2Tth.s 			page 167


 9425              	.LLST76:
 9426 0d6a 00000000 		.4byte	.LVL141
 9427 0d6e B3000000 		.4byte	.LVL156-1
 9428 0d72 0100     		.2byte	0x1
 9429 0d74 50       		.byte	0x50
 9430 0d75 B3000000 		.4byte	.LVL156-1
 9431 0d79 B4000000 		.4byte	.LVL156
 9432 0d7d 0400     		.2byte	0x4
 9433 0d7f F3       		.byte	0xf3
 9434 0d80 01       		.uleb128 0x1
 9435 0d81 50       		.byte	0x50
 9436 0d82 9F       		.byte	0x9f
 9437 0d83 B4000000 		.4byte	.LVL156
 9438 0d87 BA000000 		.4byte	.LFE135
 9439 0d8b 0100     		.2byte	0x1
 9440 0d8d 50       		.byte	0x50
 9441 0d8e 00000000 		.4byte	0
 9442 0d92 00000000 		.4byte	0
 9443              	.LLST77:
 9444 0d96 00000000 		.4byte	.LVL141
 9445 0d9a 30000000 		.4byte	.LVL143
 9446 0d9e 0100     		.2byte	0x1
 9447 0da0 51       		.byte	0x51
 9448 0da1 30000000 		.4byte	.LVL143
 9449 0da5 34000000 		.4byte	.LVL144
 9450 0da9 0400     		.2byte	0x4
 9451 0dab F3       		.byte	0xf3
 9452 0dac 01       		.uleb128 0x1
 9453 0dad 51       		.byte	0x51
 9454 0dae 9F       		.byte	0x9f
 9455 0daf 34000000 		.4byte	.LVL144
 9456 0db3 36000000 		.4byte	.LVL145
 9457 0db7 0200     		.2byte	0x2
 9458 0db9 70       		.byte	0x70
 9459 0dba 18       		.sleb128 24
 9460 0dbb 36000000 		.4byte	.LVL145
 9461 0dbf B3000000 		.4byte	.LVL156-1
 9462 0dc3 0100     		.2byte	0x1
 9463 0dc5 51       		.byte	0x51
 9464 0dc6 B4000000 		.4byte	.LVL156
 9465 0dca BA000000 		.4byte	.LFE135
 9466 0dce 0100     		.2byte	0x1
 9467 0dd0 51       		.byte	0x51
 9468 0dd1 00000000 		.4byte	0
 9469 0dd5 00000000 		.4byte	0
 9470              	.LLST78:
 9471 0dd9 00000000 		.4byte	.LVL141
 9472 0ddd 54000000 		.4byte	.LVL147
 9473 0de1 0100     		.2byte	0x1
 9474 0de3 52       		.byte	0x52
 9475 0de4 54000000 		.4byte	.LVL147
 9476 0de8 56000000 		.4byte	.LVL148
 9477 0dec 0200     		.2byte	0x2
 9478 0dee 70       		.byte	0x70
 9479 0def 1A       		.sleb128 26
 9480 0df0 56000000 		.4byte	.LVL148
 9481 0df4 B3000000 		.4byte	.LVL156-1
ARM GAS  /tmp/cclL2Tth.s 			page 168


 9482 0df8 0100     		.2byte	0x1
 9483 0dfa 52       		.byte	0x52
 9484 0dfb B4000000 		.4byte	.LVL156
 9485 0dff BA000000 		.4byte	.LFE135
 9486 0e03 0100     		.2byte	0x1
 9487 0e05 52       		.byte	0x52
 9488 0e06 00000000 		.4byte	0
 9489 0e0a 00000000 		.4byte	0
 9490              	.LLST79:
 9491 0e0e 00000000 		.4byte	.LVL141
 9492 0e12 2C000000 		.4byte	.LVL142
 9493 0e16 0100     		.2byte	0x1
 9494 0e18 53       		.byte	0x53
 9495 0e19 2C000000 		.4byte	.LVL142
 9496 0e1d 34000000 		.4byte	.LVL144
 9497 0e21 0400     		.2byte	0x4
 9498 0e23 F3       		.byte	0xf3
 9499 0e24 01       		.uleb128 0x1
 9500 0e25 53       		.byte	0x53
 9501 0e26 9F       		.byte	0x9f
 9502 0e27 34000000 		.4byte	.LVL144
 9503 0e2b 68000000 		.4byte	.LVL149
 9504 0e2f 0100     		.2byte	0x1
 9505 0e31 53       		.byte	0x53
 9506 0e32 76000000 		.4byte	.LVL150
 9507 0e36 8E000000 		.4byte	.LVL153
 9508 0e3a 0100     		.2byte	0x1
 9509 0e3c 53       		.byte	0x53
 9510 0e3d 90000000 		.4byte	.LVL154
 9511 0e41 B3000000 		.4byte	.LVL156-1
 9512 0e45 0100     		.2byte	0x1
 9513 0e47 53       		.byte	0x53
 9514 0e48 B4000000 		.4byte	.LVL156
 9515 0e4c BA000000 		.4byte	.LFE135
 9516 0e50 0100     		.2byte	0x1
 9517 0e52 53       		.byte	0x53
 9518 0e53 00000000 		.4byte	0
 9519 0e57 00000000 		.4byte	0
 9520              	.LLST80:
 9521 0e5b 00000000 		.4byte	.LVL141
 9522 0e5f 50000000 		.4byte	.LVL146
 9523 0e63 0200     		.2byte	0x2
 9524 0e65 91       		.byte	0x91
 9525 0e66 00       		.sleb128 0
 9526 0e67 50000000 		.4byte	.LVL146
 9527 0e6b 7E000000 		.4byte	.LVL151
 9528 0e6f 0100     		.2byte	0x1
 9529 0e71 54       		.byte	0x54
 9530 0e72 86000000 		.4byte	.LVL152
 9531 0e76 B0000000 		.4byte	.LVL155
 9532 0e7a 0100     		.2byte	0x1
 9533 0e7c 54       		.byte	0x54
 9534 0e7d B4000000 		.4byte	.LVL156
 9535 0e81 B8000000 		.4byte	.LVL157
 9536 0e85 0100     		.2byte	0x1
 9537 0e87 54       		.byte	0x54
 9538 0e88 00000000 		.4byte	0
ARM GAS  /tmp/cclL2Tth.s 			page 169


 9539 0e8c 00000000 		.4byte	0
 9540              	.LLST81:
 9541 0e90 00000000 		.4byte	.LVL141
 9542 0e94 34000000 		.4byte	.LVL144
 9543 0e98 0200     		.2byte	0x2
 9544 0e9a 91       		.byte	0x91
 9545 0e9b 04       		.sleb128 4
 9546 0e9c 34000000 		.4byte	.LVL144
 9547 0ea0 36000000 		.4byte	.LVL145
 9548 0ea4 0100     		.2byte	0x1
 9549 0ea6 51       		.byte	0x51
 9550 0ea7 36000000 		.4byte	.LVL145
 9551 0eab B0000000 		.4byte	.LVL155
 9552 0eaf 0100     		.2byte	0x1
 9553 0eb1 55       		.byte	0x55
 9554 0eb2 B4000000 		.4byte	.LVL156
 9555 0eb6 B8000000 		.4byte	.LVL157
 9556 0eba 0100     		.2byte	0x1
 9557 0ebc 55       		.byte	0x55
 9558 0ebd 00000000 		.4byte	0
 9559 0ec1 00000000 		.4byte	0
 9560              	.LLST82:
 9561 0ec5 00000000 		.4byte	.LVL141
 9562 0ec9 54000000 		.4byte	.LVL147
 9563 0ecd 0200     		.2byte	0x2
 9564 0ecf 91       		.byte	0x91
 9565 0ed0 08       		.sleb128 8
 9566 0ed1 54000000 		.4byte	.LVL147
 9567 0ed5 B3000000 		.4byte	.LVL156-1
 9568 0ed9 0100     		.2byte	0x1
 9569 0edb 5C       		.byte	0x5c
 9570 0edc B4000000 		.4byte	.LVL156
 9571 0ee0 BA000000 		.4byte	.LFE135
 9572 0ee4 0100     		.2byte	0x1
 9573 0ee6 5C       		.byte	0x5c
 9574 0ee7 00000000 		.4byte	0
 9575 0eeb 00000000 		.4byte	0
 9576              	.LLST83:
 9577 0eef 00000000 		.4byte	.LVL141
 9578 0ef3 B0000000 		.4byte	.LVL155
 9579 0ef7 0200     		.2byte	0x2
 9580 0ef9 91       		.byte	0x91
 9581 0efa 0C       		.sleb128 12
 9582 0efb B0000000 		.4byte	.LVL155
 9583 0eff B4000000 		.4byte	.LVL156
 9584 0f03 0200     		.2byte	0x2
 9585 0f05 7D       		.byte	0x7d
 9586 0f06 0C       		.sleb128 12
 9587 0f07 B4000000 		.4byte	.LVL156
 9588 0f0b B8000000 		.4byte	.LVL157
 9589 0f0f 0200     		.2byte	0x2
 9590 0f11 7D       		.byte	0x7d
 9591 0f12 28       		.sleb128 40
 9592 0f13 B8000000 		.4byte	.LVL157
 9593 0f17 BA000000 		.4byte	.LFE135
 9594 0f1b 0200     		.2byte	0x2
 9595 0f1d 7D       		.byte	0x7d
ARM GAS  /tmp/cclL2Tth.s 			page 170


 9596 0f1e 0C       		.sleb128 12
 9597 0f1f 00000000 		.4byte	0
 9598 0f23 00000000 		.4byte	0
 9599              	.LLST84:
 9600 0f27 00000000 		.4byte	.LVL141
 9601 0f2b B0000000 		.4byte	.LVL155
 9602 0f2f 0200     		.2byte	0x2
 9603 0f31 91       		.byte	0x91
 9604 0f32 10       		.sleb128 16
 9605 0f33 B0000000 		.4byte	.LVL155
 9606 0f37 B4000000 		.4byte	.LVL156
 9607 0f3b 0200     		.2byte	0x2
 9608 0f3d 7D       		.byte	0x7d
 9609 0f3e 10       		.sleb128 16
 9610 0f3f B4000000 		.4byte	.LVL156
 9611 0f43 B8000000 		.4byte	.LVL157
 9612 0f47 0200     		.2byte	0x2
 9613 0f49 7D       		.byte	0x7d
 9614 0f4a 2C       		.sleb128 44
 9615 0f4b B8000000 		.4byte	.LVL157
 9616 0f4f BA000000 		.4byte	.LFE135
 9617 0f53 0200     		.2byte	0x2
 9618 0f55 7D       		.byte	0x7d
 9619 0f56 10       		.sleb128 16
 9620 0f57 00000000 		.4byte	0
 9621 0f5b 00000000 		.4byte	0
 9622              	.LLST85:
 9623 0f5f 00000000 		.4byte	.LVL158
 9624 0f63 06000000 		.4byte	.LVL159
 9625 0f67 0100     		.2byte	0x1
 9626 0f69 51       		.byte	0x51
 9627 0f6a 06000000 		.4byte	.LVL159
 9628 0f6e 0C000000 		.4byte	.LVL160
 9629 0f72 0400     		.2byte	0x4
 9630 0f74 F3       		.byte	0xf3
 9631 0f75 01       		.uleb128 0x1
 9632 0f76 51       		.byte	0x51
 9633 0f77 9F       		.byte	0x9f
 9634 0f78 0C000000 		.4byte	.LVL160
 9635 0f7c 5C000000 		.4byte	.LVL166
 9636 0f80 0100     		.2byte	0x1
 9637 0f82 51       		.byte	0x51
 9638 0f83 5C000000 		.4byte	.LVL166
 9639 0f87 60000000 		.4byte	.LVL168
 9640 0f8b 0400     		.2byte	0x4
 9641 0f8d F3       		.byte	0xf3
 9642 0f8e 01       		.uleb128 0x1
 9643 0f8f 51       		.byte	0x51
 9644 0f90 9F       		.byte	0x9f
 9645 0f91 60000000 		.4byte	.LVL168
 9646 0f95 64000000 		.4byte	.LFE136
 9647 0f99 0200     		.2byte	0x2
 9648 0f9b 30       		.byte	0x30
 9649 0f9c 9F       		.byte	0x9f
 9650 0f9d 00000000 		.4byte	0
 9651 0fa1 00000000 		.4byte	0
 9652              	.LLST86:
ARM GAS  /tmp/cclL2Tth.s 			page 171


 9653 0fa5 00000000 		.4byte	.LVL158
 9654 0fa9 10000000 		.4byte	.LVL161
 9655 0fad 0100     		.2byte	0x1
 9656 0faf 52       		.byte	0x52
 9657 0fb0 10000000 		.4byte	.LVL161
 9658 0fb4 58000000 		.4byte	.LVL165
 9659 0fb8 0100     		.2byte	0x1
 9660 0fba 52       		.byte	0x52
 9661 0fbb 58000000 		.4byte	.LVL165
 9662 0fbf 5C000000 		.4byte	.LVL166
 9663 0fc3 0200     		.2byte	0x2
 9664 0fc5 30       		.byte	0x30
 9665 0fc6 9F       		.byte	0x9f
 9666 0fc7 5C000000 		.4byte	.LVL166
 9667 0fcb 64000000 		.4byte	.LFE136
 9668 0fcf 0100     		.2byte	0x1
 9669 0fd1 52       		.byte	0x52
 9670 0fd2 00000000 		.4byte	0
 9671 0fd6 00000000 		.4byte	0
 9672              	.LLST87:
 9673 0fda 00000000 		.4byte	.LVL158
 9674 0fde 0C000000 		.4byte	.LVL160
 9675 0fe2 0100     		.2byte	0x1
 9676 0fe4 53       		.byte	0x53
 9677 0fe5 0C000000 		.4byte	.LVL160
 9678 0fe9 2C000000 		.4byte	.LVL162
 9679 0fed 0100     		.2byte	0x1
 9680 0fef 53       		.byte	0x53
 9681 0ff0 54000000 		.4byte	.LVL164
 9682 0ff4 5E000000 		.4byte	.LVL167
 9683 0ff8 0100     		.2byte	0x1
 9684 0ffa 53       		.byte	0x53
 9685 0ffb 5E000000 		.4byte	.LVL167
 9686 0fff 60000000 		.4byte	.LVL168
 9687 1003 0400     		.2byte	0x4
 9688 1005 F3       		.byte	0xf3
 9689 1006 01       		.uleb128 0x1
 9690 1007 53       		.byte	0x53
 9691 1008 9F       		.byte	0x9f
 9692 1009 60000000 		.4byte	.LVL168
 9693 100d 64000000 		.4byte	.LFE136
 9694 1011 0100     		.2byte	0x1
 9695 1013 53       		.byte	0x53
 9696 1014 00000000 		.4byte	0
 9697 1018 00000000 		.4byte	0
 9698              	.LLST88:
 9699 101c 00000000 		.4byte	.LVL158
 9700 1020 10000000 		.4byte	.LVL161
 9701 1024 0200     		.2byte	0x2
 9702 1026 91       		.byte	0x91
 9703 1027 00       		.sleb128 0
 9704 1028 10000000 		.4byte	.LVL161
 9705 102c 2E000000 		.4byte	.LVL163
 9706 1030 0100     		.2byte	0x1
 9707 1032 54       		.byte	0x54
 9708 1033 54000000 		.4byte	.LVL164
 9709 1037 58000000 		.4byte	.LVL165
ARM GAS  /tmp/cclL2Tth.s 			page 172


 9710 103b 0200     		.2byte	0x2
 9711 103d 7D       		.byte	0x7d
 9712 103e 18       		.sleb128 24
 9713 103f 58000000 		.4byte	.LVL165
 9714 1043 5C000000 		.4byte	.LVL166
 9715 1047 0100     		.2byte	0x1
 9716 1049 54       		.byte	0x54
 9717 104a 5C000000 		.4byte	.LVL166
 9718 104e 64000000 		.4byte	.LFE136
 9719 1052 0200     		.2byte	0x2
 9720 1054 7D       		.byte	0x7d
 9721 1055 18       		.sleb128 24
 9722 1056 00000000 		.4byte	0
 9723 105a 00000000 		.4byte	0
 9724              	.LLST89:
 9725 105e 00000000 		.4byte	.LVL169
 9726 1062 13000000 		.4byte	.LVL170-1
 9727 1066 0100     		.2byte	0x1
 9728 1068 50       		.byte	0x50
 9729 1069 13000000 		.4byte	.LVL170-1
 9730 106d 14000000 		.4byte	.LVL170
 9731 1071 0400     		.2byte	0x4
 9732 1073 F3       		.byte	0xf3
 9733 1074 01       		.uleb128 0x1
 9734 1075 50       		.byte	0x50
 9735 1076 9F       		.byte	0x9f
 9736 1077 14000000 		.4byte	.LVL170
 9737 107b 38000000 		.4byte	.LVL173
 9738 107f 0100     		.2byte	0x1
 9739 1081 50       		.byte	0x50
 9740 1082 38000000 		.4byte	.LVL173
 9741 1086 4C000000 		.4byte	.LVL175
 9742 108a 0100     		.2byte	0x1
 9743 108c 54       		.byte	0x54
 9744 108d 4C000000 		.4byte	.LVL175
 9745 1091 60000000 		.4byte	.LFE137
 9746 1095 0100     		.2byte	0x1
 9747 1097 50       		.byte	0x50
 9748 1098 00000000 		.4byte	0
 9749 109c 00000000 		.4byte	0
 9750              	.LLST90:
 9751 10a0 00000000 		.4byte	.LVL169
 9752 10a4 13000000 		.4byte	.LVL170-1
 9753 10a8 0100     		.2byte	0x1
 9754 10aa 51       		.byte	0x51
 9755 10ab 13000000 		.4byte	.LVL170-1
 9756 10af 14000000 		.4byte	.LVL170
 9757 10b3 0400     		.2byte	0x4
 9758 10b5 F3       		.byte	0xf3
 9759 10b6 01       		.uleb128 0x1
 9760 10b7 51       		.byte	0x51
 9761 10b8 9F       		.byte	0x9f
 9762 10b9 14000000 		.4byte	.LVL170
 9763 10bd 3B000000 		.4byte	.LVL174-1
 9764 10c1 0100     		.2byte	0x1
 9765 10c3 51       		.byte	0x51
 9766 10c4 3B000000 		.4byte	.LVL174-1
ARM GAS  /tmp/cclL2Tth.s 			page 173


 9767 10c8 4C000000 		.4byte	.LVL175
 9768 10cc 0400     		.2byte	0x4
 9769 10ce F3       		.byte	0xf3
 9770 10cf 01       		.uleb128 0x1
 9771 10d0 51       		.byte	0x51
 9772 10d1 9F       		.byte	0x9f
 9773 10d2 4C000000 		.4byte	.LVL175
 9774 10d6 60000000 		.4byte	.LFE137
 9775 10da 0100     		.2byte	0x1
 9776 10dc 51       		.byte	0x51
 9777 10dd 00000000 		.4byte	0
 9778 10e1 00000000 		.4byte	0
 9779              	.LLST91:
 9780 10e5 00000000 		.4byte	.LVL169
 9781 10e9 13000000 		.4byte	.LVL170-1
 9782 10ed 0100     		.2byte	0x1
 9783 10ef 52       		.byte	0x52
 9784 10f0 13000000 		.4byte	.LVL170-1
 9785 10f4 14000000 		.4byte	.LVL170
 9786 10f8 0400     		.2byte	0x4
 9787 10fa F3       		.byte	0xf3
 9788 10fb 01       		.uleb128 0x1
 9789 10fc 52       		.byte	0x52
 9790 10fd 9F       		.byte	0x9f
 9791 10fe 14000000 		.4byte	.LVL170
 9792 1102 16000000 		.4byte	.LVL171
 9793 1106 0100     		.2byte	0x1
 9794 1108 52       		.byte	0x52
 9795 1109 16000000 		.4byte	.LVL171
 9796 110d 36000000 		.4byte	.LVL172
 9797 1111 0200     		.2byte	0x2
 9798 1113 70       		.byte	0x70
 9799 1114 34       		.sleb128 52
 9800 1115 36000000 		.4byte	.LVL172
 9801 1119 4C000000 		.4byte	.LVL175
 9802 111d 0400     		.2byte	0x4
 9803 111f F3       		.byte	0xf3
 9804 1120 01       		.uleb128 0x1
 9805 1121 52       		.byte	0x52
 9806 1122 9F       		.byte	0x9f
 9807 1123 4C000000 		.4byte	.LVL175
 9808 1127 5E000000 		.4byte	.LVL176
 9809 112b 0200     		.2byte	0x2
 9810 112d 70       		.byte	0x70
 9811 112e 34       		.sleb128 52
 9812 112f 5E000000 		.4byte	.LVL176
 9813 1133 60000000 		.4byte	.LFE137
 9814 1137 0400     		.2byte	0x4
 9815 1139 F3       		.byte	0xf3
 9816 113a 01       		.uleb128 0x1
 9817 113b 52       		.byte	0x52
 9818 113c 9F       		.byte	0x9f
 9819 113d 00000000 		.4byte	0
 9820 1141 00000000 		.4byte	0
 9821              	.LLST92:
 9822 1145 00000000 		.4byte	.LVL177
 9823 1149 BE000000 		.4byte	.LVL189
ARM GAS  /tmp/cclL2Tth.s 			page 174


 9824 114d 0600     		.2byte	0x6
 9825 114f 03       		.byte	0x3
 9826 1150 00000000 		.4byte	GDisplayArray
 9827 1154 9F       		.byte	0x9f
 9828 1155 BE000000 		.4byte	.LVL189
 9829 1159 C6000000 		.4byte	.LVL190
 9830 115d 0600     		.2byte	0x6
 9831 115f 03       		.byte	0x3
 9832 1160 48000000 		.4byte	GDisplayArray+72
 9833 1164 9F       		.byte	0x9f
 9834 1165 C6000000 		.4byte	.LVL190
 9835 1169 00010000 		.4byte	.LFE126
 9836 116d 0600     		.2byte	0x6
 9837 116f 03       		.byte	0x3
 9838 1170 00000000 		.4byte	GDisplayArray
 9839 1174 9F       		.byte	0x9f
 9840 1175 00000000 		.4byte	0
 9841 1179 00000000 		.4byte	0
 9842              	.LLST93:
 9843 117d 00000000 		.4byte	.LVL177
 9844 1181 BE000000 		.4byte	.LVL189
 9845 1185 0200     		.2byte	0x2
 9846 1187 30       		.byte	0x30
 9847 1188 9F       		.byte	0x9f
 9848 1189 BE000000 		.4byte	.LVL189
 9849 118d C6000000 		.4byte	.LVL190
 9850 1191 0200     		.2byte	0x2
 9851 1193 31       		.byte	0x31
 9852 1194 9F       		.byte	0x9f
 9853 1195 C6000000 		.4byte	.LVL190
 9854 1199 00010000 		.4byte	.LFE126
 9855 119d 0200     		.2byte	0x2
 9856 119f 30       		.byte	0x30
 9857 11a0 9F       		.byte	0x9f
 9858 11a1 00000000 		.4byte	0
 9859 11a5 00000000 		.4byte	0
 9860              	.LLST94:
 9861 11a9 6C000000 		.4byte	.LVL184
 9862 11ad 8C000000 		.4byte	.LVL186
 9863 11b1 1100     		.2byte	0x11
 9864 11b3 03       		.byte	0x3
 9865 11b4 00000000 		.4byte	GDisplayArray
 9866 11b8 94       		.byte	0x94
 9867 11b9 02       		.byte	0x2
 9868 11ba 40       		.byte	0x40
 9869 11bb 24       		.byte	0x24
 9870 11bc 40       		.byte	0x40
 9871 11bd 26       		.byte	0x26
 9872 11be 71       		.byte	0x71
 9873 11bf 00       		.sleb128 0
 9874 11c0 22       		.byte	0x22
 9875 11c1 32       		.byte	0x32
 9876 11c2 1B       		.byte	0x1b
 9877 11c3 9F       		.byte	0x9f
 9878 11c4 00000000 		.4byte	0
 9879 11c8 00000000 		.4byte	0
 9880              	.LLST95:
ARM GAS  /tmp/cclL2Tth.s 			page 175


 9881 11cc 6C000000 		.4byte	.LVL184
 9882 11d0 74000000 		.4byte	.LVL185
 9883 11d4 1100     		.2byte	0x11
 9884 11d6 03       		.byte	0x3
 9885 11d7 02000000 		.4byte	GDisplayArray+2
 9886 11db 94       		.byte	0x94
 9887 11dc 02       		.byte	0x2
 9888 11dd 40       		.byte	0x40
 9889 11de 24       		.byte	0x24
 9890 11df 40       		.byte	0x40
 9891 11e0 26       		.byte	0x26
 9892 11e1 7A       		.byte	0x7a
 9893 11e2 00       		.sleb128 0
 9894 11e3 22       		.byte	0x22
 9895 11e4 32       		.byte	0x32
 9896 11e5 1B       		.byte	0x1b
 9897 11e6 9F       		.byte	0x9f
 9898 11e7 00000000 		.4byte	0
 9899 11eb 00000000 		.4byte	0
 9900              	.LLST96:
 9901 11ef 5E000000 		.4byte	.LVL182
 9902 11f3 64000000 		.4byte	.LVL183
 9903 11f7 0100     		.2byte	0x1
 9904 11f9 55       		.byte	0x55
 9905 11fa 64000000 		.4byte	.LVL183
 9906 11fe 6C000000 		.4byte	.LVL184
 9907 1202 1400     		.2byte	0x14
 9908 1204 79       		.byte	0x79
 9909 1205 3F       		.sleb128 63
 9910 1206 79       		.byte	0x79
 9911 1207 00       		.sleb128 0
 9912 1208 79       		.byte	0x79
 9913 1209 00       		.sleb128 0
 9914 120a 30       		.byte	0x30
 9915 120b 2D       		.byte	0x2d
 9916 120c 28       		.byte	0x28
 9917 120d 0100     		.2byte	0x1
 9918 120f 16       		.byte	0x16
 9919 1210 13       		.byte	0x13
 9920 1211 09       		.byte	0x9
 9921 1212 EE       		.byte	0xee
 9922 1213 24       		.byte	0x24
 9923 1214 09       		.byte	0x9
 9924 1215 F4       		.byte	0xf4
 9925 1216 25       		.byte	0x25
 9926 1217 9F       		.byte	0x9f
 9927 1218 E2000000 		.4byte	.LVL192
 9928 121c EE000000 		.4byte	.LVL193
 9929 1220 0100     		.2byte	0x1
 9930 1222 55       		.byte	0x55
 9931 1223 EE000000 		.4byte	.LVL193
 9932 1227 00010000 		.4byte	.LFE126
 9933 122b 1400     		.2byte	0x14
 9934 122d 79       		.byte	0x79
 9935 122e 3F       		.sleb128 63
 9936 122f 79       		.byte	0x79
 9937 1230 00       		.sleb128 0
ARM GAS  /tmp/cclL2Tth.s 			page 176


 9938 1231 79       		.byte	0x79
 9939 1232 00       		.sleb128 0
 9940 1233 30       		.byte	0x30
 9941 1234 2D       		.byte	0x2d
 9942 1235 28       		.byte	0x28
 9943 1236 0100     		.2byte	0x1
 9944 1238 16       		.byte	0x16
 9945 1239 13       		.byte	0x13
 9946 123a 09       		.byte	0x9
 9947 123b EE       		.byte	0xee
 9948 123c 24       		.byte	0x24
 9949 123d 09       		.byte	0x9
 9950 123e F4       		.byte	0xf4
 9951 123f 25       		.byte	0x25
 9952 1240 9F       		.byte	0x9f
 9953 1241 00000000 		.4byte	0
 9954 1245 00000000 		.4byte	0
 9955              	.LLST97:
 9956 1249 6C000000 		.4byte	.LVL184
 9957 124d 8C000000 		.4byte	.LVL186
 9958 1251 0600     		.2byte	0x6
 9959 1253 03       		.byte	0x3
 9960 1254 00000000 		.4byte	blks.7089
 9961 1258 9F       		.byte	0x9f
 9962 1259 8C000000 		.4byte	.LVL186
 9963 125d B4000000 		.4byte	.LVL187
 9964 1261 0100     		.2byte	0x1
 9965 1263 54       		.byte	0x54
 9966 1264 B4000000 		.4byte	.LVL187
 9967 1268 BA000000 		.4byte	.LVL188
 9968 126c 0300     		.2byte	0x3
 9969 126e 74       		.byte	0x74
 9970 126f 78       		.sleb128 -8
 9971 1270 9F       		.byte	0x9f
 9972 1271 BA000000 		.4byte	.LVL188
 9973 1275 DE000000 		.4byte	.LVL191
 9974 1279 0100     		.2byte	0x1
 9975 127b 54       		.byte	0x54
 9976 127c 00000000 		.4byte	0
 9977 1280 00000000 		.4byte	0
 9978              	.LLST98:
 9979 1284 C6000000 		.4byte	.LVL190
 9980 1288 E2000000 		.4byte	.LVL192
 9981 128c 0200     		.2byte	0x2
 9982 128e 30       		.byte	0x30
 9983 128f 9F       		.byte	0x9f
 9984 1290 00000000 		.4byte	0
 9985 1294 00000000 		.4byte	0
 9986              	.LLST99:
 9987 1298 C6000000 		.4byte	.LVL190
 9988 129c E2000000 		.4byte	.LVL192
 9989 12a0 0600     		.2byte	0x6
 9990 12a2 03       		.byte	0x3
 9991 12a3 00000000 		.4byte	GDisplayArray
 9992 12a7 9F       		.byte	0x9f
 9993 12a8 00000000 		.4byte	0
 9994 12ac 00000000 		.4byte	0
ARM GAS  /tmp/cclL2Tth.s 			page 177


 9995              	.LLST100:
 9996 12b0 00000000 		.4byte	.LVL194
 9997 12b4 43000000 		.4byte	.LVL200-1
 9998 12b8 0100     		.2byte	0x1
 9999 12ba 50       		.byte	0x50
 10000 12bb 43000000 		.4byte	.LVL200-1
 10001 12bf 76000000 		.4byte	.LVL205
 10002 12c3 0100     		.2byte	0x1
 10003 12c5 54       		.byte	0x54
 10004 12c6 76000000 		.4byte	.LVL205
 10005 12ca 7D000000 		.4byte	.LVL206-1
 10006 12ce 0100     		.2byte	0x1
 10007 12d0 50       		.byte	0x50
 10008 12d1 7D000000 		.4byte	.LVL206-1
 10009 12d5 C4000000 		.4byte	.LFE138
 10010 12d9 0100     		.2byte	0x1
 10011 12db 54       		.byte	0x54
 10012 12dc 00000000 		.4byte	0
 10013 12e0 00000000 		.4byte	0
 10014              	.LLST101:
 10015 12e4 00000000 		.4byte	.LVL194
 10016 12e8 14000000 		.4byte	.LVL197
 10017 12ec 0100     		.2byte	0x1
 10018 12ee 51       		.byte	0x51
 10019 12ef 14000000 		.4byte	.LVL197
 10020 12f3 C4000000 		.4byte	.LFE138
 10021 12f7 0400     		.2byte	0x4
 10022 12f9 F3       		.byte	0xf3
 10023 12fa 01       		.uleb128 0x1
 10024 12fb 51       		.byte	0x51
 10025 12fc 9F       		.byte	0x9f
 10026 12fd 00000000 		.4byte	0
 10027 1301 00000000 		.4byte	0
 10028              	.LLST102:
 10029 1305 00000000 		.4byte	.LVL194
 10030 1309 10000000 		.4byte	.LVL196
 10031 130d 0100     		.2byte	0x1
 10032 130f 52       		.byte	0x52
 10033 1310 10000000 		.4byte	.LVL196
 10034 1314 5E000000 		.4byte	.LVL202
 10035 1318 0400     		.2byte	0x4
 10036 131a F3       		.byte	0xf3
 10037 131b 01       		.uleb128 0x1
 10038 131c 52       		.byte	0x52
 10039 131d 9F       		.byte	0x9f
 10040 131e 76000000 		.4byte	.LVL205
 10041 1322 9E000000 		.4byte	.LVL208
 10042 1326 0400     		.2byte	0x4
 10043 1328 F3       		.byte	0xf3
 10044 1329 01       		.uleb128 0x1
 10045 132a 52       		.byte	0x52
 10046 132b 9F       		.byte	0x9f
 10047 132c 9E000000 		.4byte	.LVL208
 10048 1330 C4000000 		.4byte	.LFE138
 10049 1334 0100     		.2byte	0x1
 10050 1336 5A       		.byte	0x5a
 10051 1337 00000000 		.4byte	0
ARM GAS  /tmp/cclL2Tth.s 			page 178


 10052 133b 00000000 		.4byte	0
 10053              	.LLST103:
 10054 133f 00000000 		.4byte	.LVL194
 10055 1343 06000000 		.4byte	.LVL195
 10056 1347 0100     		.2byte	0x1
 10057 1349 53       		.byte	0x53
 10058 134a 06000000 		.4byte	.LVL195
 10059 134e 26000000 		.4byte	.LVL198
 10060 1352 0400     		.2byte	0x4
 10061 1354 F3       		.byte	0xf3
 10062 1355 01       		.uleb128 0x1
 10063 1356 53       		.byte	0x53
 10064 1357 9F       		.byte	0x9f
 10065 1358 26000000 		.4byte	.LVL198
 10066 135c 72000000 		.4byte	.LVL204
 10067 1360 0100     		.2byte	0x1
 10068 1362 57       		.byte	0x57
 10069 1363 76000000 		.4byte	.LVL205
 10070 1367 C4000000 		.4byte	.LFE138
 10071 136b 0100     		.2byte	0x1
 10072 136d 57       		.byte	0x57
 10073 136e 00000000 		.4byte	0
 10074 1372 00000000 		.4byte	0
 10075              	.LLST104:
 10076 1376 00000000 		.4byte	.LVL194
 10077 137a 38000000 		.4byte	.LVL199
 10078 137e 0200     		.2byte	0x2
 10079 1380 91       		.byte	0x91
 10080 1381 00       		.sleb128 0
 10081 1382 38000000 		.4byte	.LVL199
 10082 1386 5E000000 		.4byte	.LVL202
 10083 138a 0100     		.2byte	0x1
 10084 138c 58       		.byte	0x58
 10085 138d 76000000 		.4byte	.LVL205
 10086 1391 A2000000 		.4byte	.LVL209
 10087 1395 0100     		.2byte	0x1
 10088 1397 58       		.byte	0x58
 10089 1398 A2000000 		.4byte	.LVL209
 10090 139c C4000000 		.4byte	.LFE138
 10091 13a0 0100     		.2byte	0x1
 10092 13a2 59       		.byte	0x59
 10093 13a3 00000000 		.4byte	0
 10094 13a7 00000000 		.4byte	0
 10095              	.LLST105:
 10096 13ab 00000000 		.4byte	.LVL194
 10097 13af 76000000 		.4byte	.LVL205
 10098 13b3 0200     		.2byte	0x2
 10099 13b5 91       		.byte	0x91
 10100 13b6 04       		.sleb128 4
 10101 13b7 76000000 		.4byte	.LVL205
 10102 13bb C4000000 		.4byte	.LFE138
 10103 13bf 0200     		.2byte	0x2
 10104 13c1 7D       		.byte	0x7d
 10105 13c2 24       		.sleb128 36
 10106 13c3 00000000 		.4byte	0
 10107 13c7 00000000 		.4byte	0
 10108              	.LLST106:
ARM GAS  /tmp/cclL2Tth.s 			page 179


 10109 13cb 00000000 		.4byte	.LVL212
 10110 13cf 1E000000 		.4byte	.LVL214
 10111 13d3 0100     		.2byte	0x1
 10112 13d5 50       		.byte	0x50
 10113 13d6 1E000000 		.4byte	.LVL214
 10114 13da 6A000000 		.4byte	.LVL218
 10115 13de 0100     		.2byte	0x1
 10116 13e0 54       		.byte	0x54
 10117 13e1 6A000000 		.4byte	.LVL218
 10118 13e5 70000000 		.4byte	.LFE142
 10119 13e9 0400     		.2byte	0x4
 10120 13eb F3       		.byte	0xf3
 10121 13ec 01       		.uleb128 0x1
 10122 13ed 50       		.byte	0x50
 10123 13ee 9F       		.byte	0x9f
 10124 13ef 00000000 		.4byte	0
 10125 13f3 00000000 		.4byte	0
 10126              	.LLST107:
 10127 13f7 00000000 		.4byte	.LVL212
 10128 13fb 1C000000 		.4byte	.LVL213
 10129 13ff 0100     		.2byte	0x1
 10130 1401 51       		.byte	0x51
 10131 1402 1C000000 		.4byte	.LVL213
 10132 1406 1E000000 		.4byte	.LVL214
 10133 140a 0300     		.2byte	0x3
 10134 140c 70       		.byte	0x70
 10135 140d C000     		.sleb128 64
 10136 140f 1E000000 		.4byte	.LVL214
 10137 1413 27000000 		.4byte	.LVL215-1
 10138 1417 0300     		.2byte	0x3
 10139 1419 74       		.byte	0x74
 10140 141a C000     		.sleb128 64
 10141 141c 27000000 		.4byte	.LVL215-1
 10142 1420 70000000 		.4byte	.LFE142
 10143 1424 0400     		.2byte	0x4
 10144 1426 F3       		.byte	0xf3
 10145 1427 01       		.uleb128 0x1
 10146 1428 51       		.byte	0x51
 10147 1429 9F       		.byte	0x9f
 10148 142a 00000000 		.4byte	0
 10149 142e 00000000 		.4byte	0
 10150              	.LLST108:
 10151 1432 00000000 		.4byte	.LVL212
 10152 1436 27000000 		.4byte	.LVL215-1
 10153 143a 0100     		.2byte	0x1
 10154 143c 52       		.byte	0x52
 10155 143d 27000000 		.4byte	.LVL215-1
 10156 1441 70000000 		.4byte	.LFE142
 10157 1445 0400     		.2byte	0x4
 10158 1447 F3       		.byte	0xf3
 10159 1448 01       		.uleb128 0x1
 10160 1449 52       		.byte	0x52
 10161 144a 9F       		.byte	0x9f
 10162 144b 00000000 		.4byte	0
 10163 144f 00000000 		.4byte	0
 10164              	.LLST109:
 10165 1453 00000000 		.4byte	.LVL212
ARM GAS  /tmp/cclL2Tth.s 			page 180


 10166 1457 27000000 		.4byte	.LVL215-1
 10167 145b 0100     		.2byte	0x1
 10168 145d 53       		.byte	0x53
 10169 145e 27000000 		.4byte	.LVL215-1
 10170 1462 70000000 		.4byte	.LFE142
 10171 1466 0400     		.2byte	0x4
 10172 1468 F3       		.byte	0xf3
 10173 1469 01       		.uleb128 0x1
 10174 146a 53       		.byte	0x53
 10175 146b 9F       		.byte	0x9f
 10176 146c 00000000 		.4byte	0
 10177 1470 00000000 		.4byte	0
 10178              	.LLST110:
 10179 1474 00000000 		.4byte	.LVL212
 10180 1478 6A000000 		.4byte	.LVL218
 10181 147c 0200     		.2byte	0x2
 10182 147e 91       		.byte	0x91
 10183 147f 00       		.sleb128 0
 10184 1480 6A000000 		.4byte	.LVL218
 10185 1484 70000000 		.4byte	.LFE142
 10186 1488 0200     		.2byte	0x2
 10187 148a 7D       		.byte	0x7d
 10188 148b 00       		.sleb128 0
 10189 148c 00000000 		.4byte	0
 10190 1490 00000000 		.4byte	0
 10191              	.LLST111:
 10192 1494 00000000 		.4byte	.LVL212
 10193 1498 6A000000 		.4byte	.LVL218
 10194 149c 0200     		.2byte	0x2
 10195 149e 91       		.byte	0x91
 10196 149f 04       		.sleb128 4
 10197 14a0 6A000000 		.4byte	.LVL218
 10198 14a4 70000000 		.4byte	.LFE142
 10199 14a8 0200     		.2byte	0x2
 10200 14aa 7D       		.byte	0x7d
 10201 14ab 04       		.sleb128 4
 10202 14ac 00000000 		.4byte	0
 10203 14b0 00000000 		.4byte	0
 10204              	.LLST112:
 10205 14b4 00000000 		.4byte	.LVL219
 10206 14b8 1A000000 		.4byte	.LVL221
 10207 14bc 0100     		.2byte	0x1
 10208 14be 50       		.byte	0x50
 10209 14bf 1A000000 		.4byte	.LVL221
 10210 14c3 10010000 		.4byte	.LFE143
 10211 14c7 0100     		.2byte	0x1
 10212 14c9 54       		.byte	0x54
 10213 14ca 00000000 		.4byte	0
 10214 14ce 00000000 		.4byte	0
 10215              	.LLST113:
 10216 14d2 00000000 		.4byte	.LVL219
 10217 14d6 1C000000 		.4byte	.LVL222
 10218 14da 0100     		.2byte	0x1
 10219 14dc 51       		.byte	0x51
 10220 14dd 1C000000 		.4byte	.LVL222
 10221 14e1 10010000 		.4byte	.LFE143
 10222 14e5 0400     		.2byte	0x4
ARM GAS  /tmp/cclL2Tth.s 			page 181


 10223 14e7 F3       		.byte	0xf3
 10224 14e8 01       		.uleb128 0x1
 10225 14e9 51       		.byte	0x51
 10226 14ea 9F       		.byte	0x9f
 10227 14eb 00000000 		.4byte	0
 10228 14ef 00000000 		.4byte	0
 10229              	.LLST114:
 10230 14f3 00000000 		.4byte	.LVL219
 10231 14f7 21000000 		.4byte	.LVL223-1
 10232 14fb 0100     		.2byte	0x1
 10233 14fd 52       		.byte	0x52
 10234 14fe 21000000 		.4byte	.LVL223-1
 10235 1502 10010000 		.4byte	.LFE143
 10236 1506 0400     		.2byte	0x4
 10237 1508 F3       		.byte	0xf3
 10238 1509 01       		.uleb128 0x1
 10239 150a 52       		.byte	0x52
 10240 150b 9F       		.byte	0x9f
 10241 150c 00000000 		.4byte	0
 10242 1510 00000000 		.4byte	0
 10243              	.LLST115:
 10244 1514 00000000 		.4byte	.LVL219
 10245 1518 08000000 		.4byte	.LVL220
 10246 151c 0100     		.2byte	0x1
 10247 151e 53       		.byte	0x53
 10248 151f 08000000 		.4byte	.LVL220
 10249 1523 10010000 		.4byte	.LFE143
 10250 1527 0400     		.2byte	0x4
 10251 1529 F3       		.byte	0xf3
 10252 152a 01       		.uleb128 0x1
 10253 152b 53       		.byte	0x53
 10254 152c 9F       		.byte	0x9f
 10255 152d 00000000 		.4byte	0
 10256 1531 00000000 		.4byte	0
 10257              	.LLST116:
 10258 1535 00000000 		.4byte	.LVL219
 10259 1539 FC000000 		.4byte	.LVL228
 10260 153d 0200     		.2byte	0x2
 10261 153f 91       		.byte	0x91
 10262 1540 00       		.sleb128 0
 10263 1541 FC000000 		.4byte	.LVL228
 10264 1545 10010000 		.4byte	.LFE143
 10265 1549 0200     		.2byte	0x2
 10266 154b 91       		.byte	0x91
 10267 154c 00       		.sleb128 0
 10268 154d 00000000 		.4byte	0
 10269 1551 00000000 		.4byte	0
 10270              	.LLST117:
 10271 1555 00000000 		.4byte	.LVL219
 10272 1559 FC000000 		.4byte	.LVL228
 10273 155d 0200     		.2byte	0x2
 10274 155f 91       		.byte	0x91
 10275 1560 04       		.sleb128 4
 10276 1561 FC000000 		.4byte	.LVL228
 10277 1565 10010000 		.4byte	.LFE143
 10278 1569 0200     		.2byte	0x2
 10279 156b 91       		.byte	0x91
ARM GAS  /tmp/cclL2Tth.s 			page 182


 10280 156c 04       		.sleb128 4
 10281 156d 00000000 		.4byte	0
 10282 1571 00000000 		.4byte	0
 10283              	.LLST118:
 10284 1575 00000000 		.4byte	.LVL219
 10285 1579 FC000000 		.4byte	.LVL228
 10286 157d 0200     		.2byte	0x2
 10287 157f 91       		.byte	0x91
 10288 1580 08       		.sleb128 8
 10289 1581 FC000000 		.4byte	.LVL228
 10290 1585 10010000 		.4byte	.LFE143
 10291 1589 0200     		.2byte	0x2
 10292 158b 91       		.byte	0x91
 10293 158c 08       		.sleb128 8
 10294 158d 00000000 		.4byte	0
 10295 1591 00000000 		.4byte	0
 10296              	.LLST119:
 10297 1595 C6000000 		.4byte	.LVL224
 10298 1599 E2000000 		.4byte	.LVL226
 10299 159d 0100     		.2byte	0x1
 10300 159f 54       		.byte	0x54
 10301 15a0 00000000 		.4byte	0
 10302 15a4 00000000 		.4byte	0
 10303              	.LLST120:
 10304 15a8 00000000 		.4byte	.LVL229
 10305 15ac 1E000000 		.4byte	.LVL231
 10306 15b0 0100     		.2byte	0x1
 10307 15b2 50       		.byte	0x50
 10308 15b3 1E000000 		.4byte	.LVL231
 10309 15b7 7A000000 		.4byte	.LVL237
 10310 15bb 0100     		.2byte	0x1
 10311 15bd 54       		.byte	0x54
 10312 15be 7A000000 		.4byte	.LVL237
 10313 15c2 80000000 		.4byte	.LFE144
 10314 15c6 0400     		.2byte	0x4
 10315 15c8 F3       		.byte	0xf3
 10316 15c9 01       		.uleb128 0x1
 10317 15ca 50       		.byte	0x50
 10318 15cb 9F       		.byte	0x9f
 10319 15cc 00000000 		.4byte	0
 10320 15d0 00000000 		.4byte	0
 10321              	.LLST121:
 10322 15d4 00000000 		.4byte	.LVL229
 10323 15d8 20000000 		.4byte	.LVL232
 10324 15dc 0100     		.2byte	0x1
 10325 15de 51       		.byte	0x51
 10326 15df 20000000 		.4byte	.LVL232
 10327 15e3 29000000 		.4byte	.LVL234-1
 10328 15e7 0300     		.2byte	0x3
 10329 15e9 74       		.byte	0x74
 10330 15ea C000     		.sleb128 64
 10331 15ec 29000000 		.4byte	.LVL234-1
 10332 15f0 80000000 		.4byte	.LFE144
 10333 15f4 0400     		.2byte	0x4
 10334 15f6 F3       		.byte	0xf3
 10335 15f7 01       		.uleb128 0x1
 10336 15f8 51       		.byte	0x51
ARM GAS  /tmp/cclL2Tth.s 			page 183


 10337 15f9 9F       		.byte	0x9f
 10338 15fa 00000000 		.4byte	0
 10339 15fe 00000000 		.4byte	0
 10340              	.LLST122:
 10341 1602 00000000 		.4byte	.LVL229
 10342 1606 10000000 		.4byte	.LVL230
 10343 160a 0100     		.2byte	0x1
 10344 160c 52       		.byte	0x52
 10345 160d 10000000 		.4byte	.LVL230
 10346 1611 80000000 		.4byte	.LFE144
 10347 1615 0400     		.2byte	0x4
 10348 1617 F3       		.byte	0xf3
 10349 1618 01       		.uleb128 0x1
 10350 1619 52       		.byte	0x52
 10351 161a 9F       		.byte	0x9f
 10352 161b 00000000 		.4byte	0
 10353 161f 00000000 		.4byte	0
 10354              	.LLST123:
 10355 1623 00000000 		.4byte	.LVL229
 10356 1627 22000000 		.4byte	.LVL233
 10357 162b 0100     		.2byte	0x1
 10358 162d 53       		.byte	0x53
 10359 162e 22000000 		.4byte	.LVL233
 10360 1632 29000000 		.4byte	.LVL234-1
 10361 1636 0100     		.2byte	0x1
 10362 1638 51       		.byte	0x51
 10363 1639 29000000 		.4byte	.LVL234-1
 10364 163d 7A000000 		.4byte	.LVL237
 10365 1641 0100     		.2byte	0x1
 10366 1643 57       		.byte	0x57
 10367 1644 7A000000 		.4byte	.LVL237
 10368 1648 80000000 		.4byte	.LFE144
 10369 164c 0400     		.2byte	0x4
 10370 164e F3       		.byte	0xf3
 10371 164f 01       		.uleb128 0x1
 10372 1650 53       		.byte	0x53
 10373 1651 9F       		.byte	0x9f
 10374 1652 00000000 		.4byte	0
 10375 1656 00000000 		.4byte	0
 10376              	.LLST124:
 10377 165a 00000000 		.4byte	.LVL229
 10378 165e 7A000000 		.4byte	.LVL237
 10379 1662 0200     		.2byte	0x2
 10380 1664 91       		.byte	0x91
 10381 1665 00       		.sleb128 0
 10382 1666 7A000000 		.4byte	.LVL237
 10383 166a 80000000 		.4byte	.LFE144
 10384 166e 0200     		.2byte	0x2
 10385 1670 7D       		.byte	0x7d
 10386 1671 00       		.sleb128 0
 10387 1672 00000000 		.4byte	0
 10388 1676 00000000 		.4byte	0
 10389              	.LLST125:
 10390 167a 00000000 		.4byte	.LVL229
 10391 167e 7A000000 		.4byte	.LVL237
 10392 1682 0200     		.2byte	0x2
 10393 1684 91       		.byte	0x91
ARM GAS  /tmp/cclL2Tth.s 			page 184


 10394 1685 04       		.sleb128 4
 10395 1686 7A000000 		.4byte	.LVL237
 10396 168a 80000000 		.4byte	.LFE144
 10397 168e 0200     		.2byte	0x2
 10398 1690 7D       		.byte	0x7d
 10399 1691 04       		.sleb128 4
 10400 1692 00000000 		.4byte	0
 10401 1696 00000000 		.4byte	0
 10402              	.LLST126:
 10403 169a 00000000 		.4byte	.LVL238
 10404 169e 1C000000 		.4byte	.LVL241
 10405 16a2 0100     		.2byte	0x1
 10406 16a4 50       		.byte	0x50
 10407 16a5 1C000000 		.4byte	.LVL241
 10408 16a9 24010000 		.4byte	.LFE145
 10409 16ad 0100     		.2byte	0x1
 10410 16af 54       		.byte	0x54
 10411 16b0 00000000 		.4byte	0
 10412 16b4 00000000 		.4byte	0
 10413              	.LLST127:
 10414 16b8 00000000 		.4byte	.LVL238
 10415 16bc 1A000000 		.4byte	.LVL240
 10416 16c0 0100     		.2byte	0x1
 10417 16c2 51       		.byte	0x51
 10418 16c3 1A000000 		.4byte	.LVL240
 10419 16c7 24010000 		.4byte	.LFE145
 10420 16cb 0400     		.2byte	0x4
 10421 16cd F3       		.byte	0xf3
 10422 16ce 01       		.uleb128 0x1
 10423 16cf 51       		.byte	0x51
 10424 16d0 9F       		.byte	0x9f
 10425 16d1 00000000 		.4byte	0
 10426 16d5 00000000 		.4byte	0
 10427              	.LLST128:
 10428 16d9 00000000 		.4byte	.LVL238
 10429 16dd 12000000 		.4byte	.LVL239
 10430 16e1 0100     		.2byte	0x1
 10431 16e3 52       		.byte	0x52
 10432 16e4 12000000 		.4byte	.LVL239
 10433 16e8 24010000 		.4byte	.LFE145
 10434 16ec 0400     		.2byte	0x4
 10435 16ee F3       		.byte	0xf3
 10436 16ef 01       		.uleb128 0x1
 10437 16f0 52       		.byte	0x52
 10438 16f1 9F       		.byte	0x9f
 10439 16f2 00000000 		.4byte	0
 10440 16f6 00000000 		.4byte	0
 10441              	.LLST129:
 10442 16fa 00000000 		.4byte	.LVL238
 10443 16fe 1E000000 		.4byte	.LVL242
 10444 1702 0100     		.2byte	0x1
 10445 1704 53       		.byte	0x53
 10446 1705 1E000000 		.4byte	.LVL242
 10447 1709 25000000 		.4byte	.LVL243-1
 10448 170d 0100     		.2byte	0x1
 10449 170f 51       		.byte	0x51
 10450 1710 25000000 		.4byte	.LVL243-1
ARM GAS  /tmp/cclL2Tth.s 			page 185


 10451 1714 24010000 		.4byte	.LFE145
 10452 1718 0100     		.2byte	0x1
 10453 171a 59       		.byte	0x59
 10454 171b 00000000 		.4byte	0
 10455 171f 00000000 		.4byte	0
 10456              	.LLST130:
 10457 1723 00000000 		.4byte	.LVL238
 10458 1727 10010000 		.4byte	.LVL248
 10459 172b 0200     		.2byte	0x2
 10460 172d 91       		.byte	0x91
 10461 172e 00       		.sleb128 0
 10462 172f 10010000 		.4byte	.LVL248
 10463 1733 24010000 		.4byte	.LFE145
 10464 1737 0200     		.2byte	0x2
 10465 1739 91       		.byte	0x91
 10466 173a 00       		.sleb128 0
 10467 173b 00000000 		.4byte	0
 10468 173f 00000000 		.4byte	0
 10469              	.LLST131:
 10470 1743 00000000 		.4byte	.LVL238
 10471 1747 10010000 		.4byte	.LVL248
 10472 174b 0200     		.2byte	0x2
 10473 174d 91       		.byte	0x91
 10474 174e 04       		.sleb128 4
 10475 174f 10010000 		.4byte	.LVL248
 10476 1753 24010000 		.4byte	.LFE145
 10477 1757 0200     		.2byte	0x2
 10478 1759 91       		.byte	0x91
 10479 175a 04       		.sleb128 4
 10480 175b 00000000 		.4byte	0
 10481 175f 00000000 		.4byte	0
 10482              	.LLST132:
 10483 1763 00000000 		.4byte	.LVL238
 10484 1767 10010000 		.4byte	.LVL248
 10485 176b 0200     		.2byte	0x2
 10486 176d 91       		.byte	0x91
 10487 176e 08       		.sleb128 8
 10488 176f 10010000 		.4byte	.LVL248
 10489 1773 24010000 		.4byte	.LFE145
 10490 1777 0200     		.2byte	0x2
 10491 1779 91       		.byte	0x91
 10492 177a 08       		.sleb128 8
 10493 177b 00000000 		.4byte	0
 10494 177f 00000000 		.4byte	0
 10495              	.LLST133:
 10496 1783 D2000000 		.4byte	.LVL244
 10497 1787 F6000000 		.4byte	.LVL246
 10498 178b 0100     		.2byte	0x1
 10499 178d 54       		.byte	0x54
 10500 178e 00000000 		.4byte	0
 10501 1792 00000000 		.4byte	0
 10502              	.LLST134:
 10503 1796 00000000 		.4byte	.LVL249
 10504 179a 1E000000 		.4byte	.LVL250
 10505 179e 0100     		.2byte	0x1
 10506 17a0 50       		.byte	0x50
 10507 17a1 1E000000 		.4byte	.LVL250
ARM GAS  /tmp/cclL2Tth.s 			page 186


 10508 17a5 A8000000 		.4byte	.LFE146
 10509 17a9 0100     		.2byte	0x1
 10510 17ab 54       		.byte	0x54
 10511 17ac 00000000 		.4byte	0
 10512 17b0 00000000 		.4byte	0
 10513              	.LLST135:
 10514 17b4 00000000 		.4byte	.LVL249
 10515 17b8 22000000 		.4byte	.LVL251
 10516 17bc 0100     		.2byte	0x1
 10517 17be 51       		.byte	0x51
 10518 17bf 22000000 		.4byte	.LVL251
 10519 17c3 46000000 		.4byte	.LVL252
 10520 17c7 0100     		.2byte	0x1
 10521 17c9 5C       		.byte	0x5c
 10522 17ca 46000000 		.4byte	.LVL252
 10523 17ce 73000000 		.4byte	.LVL256-1
 10524 17d2 0100     		.2byte	0x1
 10525 17d4 51       		.byte	0x51
 10526 17d5 8E000000 		.4byte	.LVL258
 10527 17d9 94000000 		.4byte	.LVL259
 10528 17dd 0100     		.2byte	0x1
 10529 17df 5C       		.byte	0x5c
 10530 17e0 94000000 		.4byte	.LVL259
 10531 17e4 96000000 		.4byte	.LVL260
 10532 17e8 0100     		.2byte	0x1
 10533 17ea 51       		.byte	0x51
 10534 17eb 96000000 		.4byte	.LVL260
 10535 17ef A2000000 		.4byte	.LVL262
 10536 17f3 0100     		.2byte	0x1
 10537 17f5 5C       		.byte	0x5c
 10538 17f6 A2000000 		.4byte	.LVL262
 10539 17fa A8000000 		.4byte	.LFE146
 10540 17fe 0100     		.2byte	0x1
 10541 1800 51       		.byte	0x51
 10542 1801 00000000 		.4byte	0
 10543 1805 00000000 		.4byte	0
 10544              	.LLST136:
 10545 1809 00000000 		.4byte	.LVL249
 10546 180d 46000000 		.4byte	.LVL252
 10547 1811 0100     		.2byte	0x1
 10548 1813 52       		.byte	0x52
 10549 1814 46000000 		.4byte	.LVL252
 10550 1818 4C000000 		.4byte	.LVL253
 10551 181c 1600     		.2byte	0x16
 10552 181e 7E       		.byte	0x7e
 10553 181f 00       		.sleb128 0
 10554 1820 40       		.byte	0x40
 10555 1821 24       		.byte	0x24
 10556 1822 40       		.byte	0x40
 10557 1823 26       		.byte	0x26
 10558 1824 75       		.byte	0x75
 10559 1825 09       		.sleb128 9
 10560 1826 94       		.byte	0x94
 10561 1827 01       		.byte	0x1
 10562 1828 08       		.byte	0x8
 10563 1829 FF       		.byte	0xff
 10564 182a 1A       		.byte	0x1a
ARM GAS  /tmp/cclL2Tth.s 			page 187


 10565 182b 1C       		.byte	0x1c
 10566 182c 23       		.byte	0x23
 10567 182d 01       		.uleb128 0x1
 10568 182e 32       		.byte	0x32
 10569 182f 1B       		.byte	0x1b
 10570 1830 70       		.byte	0x70
 10571 1831 00       		.sleb128 0
 10572 1832 22       		.byte	0x22
 10573 1833 9F       		.byte	0x9f
 10574 1834 4C000000 		.4byte	.LVL253
 10575 1838 50000000 		.4byte	.LVL254
 10576 183c 1400     		.2byte	0x14
 10577 183e 7E       		.byte	0x7e
 10578 183f 00       		.sleb128 0
 10579 1840 40       		.byte	0x40
 10580 1841 24       		.byte	0x24
 10581 1842 40       		.byte	0x40
 10582 1843 26       		.byte	0x26
 10583 1844 73       		.byte	0x73
 10584 1845 00       		.sleb128 0
 10585 1846 08       		.byte	0x8
 10586 1847 FF       		.byte	0xff
 10587 1848 1A       		.byte	0x1a
 10588 1849 1C       		.byte	0x1c
 10589 184a 23       		.byte	0x23
 10590 184b 01       		.uleb128 0x1
 10591 184c 32       		.byte	0x32
 10592 184d 1B       		.byte	0x1b
 10593 184e 70       		.byte	0x70
 10594 184f 00       		.sleb128 0
 10595 1850 22       		.byte	0x22
 10596 1851 9F       		.byte	0x9f
 10597 1852 50000000 		.4byte	.LVL254
 10598 1856 66000000 		.4byte	.LVL255
 10599 185a 1600     		.2byte	0x16
 10600 185c 91       		.byte	0x91
 10601 185d 00       		.sleb128 0
 10602 185e 94       		.byte	0x94
 10603 185f 02       		.byte	0x2
 10604 1860 40       		.byte	0x40
 10605 1861 24       		.byte	0x24
 10606 1862 40       		.byte	0x40
 10607 1863 26       		.byte	0x26
 10608 1864 73       		.byte	0x73
 10609 1865 00       		.sleb128 0
 10610 1866 08       		.byte	0x8
 10611 1867 FF       		.byte	0xff
 10612 1868 1A       		.byte	0x1a
 10613 1869 1C       		.byte	0x1c
 10614 186a 23       		.byte	0x23
 10615 186b 01       		.uleb128 0x1
 10616 186c 32       		.byte	0x32
 10617 186d 1B       		.byte	0x1b
 10618 186e 70       		.byte	0x70
 10619 186f 00       		.sleb128 0
 10620 1870 22       		.byte	0x22
 10621 1871 9F       		.byte	0x9f
ARM GAS  /tmp/cclL2Tth.s 			page 188


 10622 1872 8E000000 		.4byte	.LVL258
 10623 1876 A8000000 		.4byte	.LFE146
 10624 187a 0100     		.2byte	0x1
 10625 187c 52       		.byte	0x52
 10626 187d 00000000 		.4byte	0
 10627 1881 00000000 		.4byte	0
 10628              	.LLST137:
 10629 1885 00000000 		.4byte	.LVL249
 10630 1889 46000000 		.4byte	.LVL252
 10631 188d 0100     		.2byte	0x1
 10632 188f 53       		.byte	0x53
 10633 1890 46000000 		.4byte	.LVL252
 10634 1894 8E000000 		.4byte	.LVL258
 10635 1898 0400     		.2byte	0x4
 10636 189a F3       		.byte	0xf3
 10637 189b 01       		.uleb128 0x1
 10638 189c 53       		.byte	0x53
 10639 189d 9F       		.byte	0x9f
 10640 189e 8E000000 		.4byte	.LVL258
 10641 18a2 98000000 		.4byte	.LVL261
 10642 18a6 0100     		.2byte	0x1
 10643 18a8 53       		.byte	0x53
 10644 18a9 98000000 		.4byte	.LVL261
 10645 18ad A8000000 		.4byte	.LFE146
 10646 18b1 0400     		.2byte	0x4
 10647 18b3 F3       		.byte	0xf3
 10648 18b4 01       		.uleb128 0x1
 10649 18b5 53       		.byte	0x53
 10650 18b6 9F       		.byte	0x9f
 10651 18b7 00000000 		.4byte	0
 10652 18bb 00000000 		.4byte	0
 10653              	.LLST138:
 10654 18bf 00000000 		.4byte	.LVL249
 10655 18c3 8E000000 		.4byte	.LVL258
 10656 18c7 0200     		.2byte	0x2
 10657 18c9 91       		.byte	0x91
 10658 18ca 00       		.sleb128 0
 10659 18cb 8E000000 		.4byte	.LVL258
 10660 18cf A8000000 		.4byte	.LFE146
 10661 18d3 0200     		.2byte	0x2
 10662 18d5 91       		.byte	0x91
 10663 18d6 00       		.sleb128 0
 10664 18d7 00000000 		.4byte	0
 10665 18db 00000000 		.4byte	0
 10666              	.LLST139:
 10667 18df 00000000 		.4byte	.LVL249
 10668 18e3 8E000000 		.4byte	.LVL258
 10669 18e7 0200     		.2byte	0x2
 10670 18e9 91       		.byte	0x91
 10671 18ea 04       		.sleb128 4
 10672 18eb 8E000000 		.4byte	.LVL258
 10673 18ef A8000000 		.4byte	.LFE146
 10674 18f3 0200     		.2byte	0x2
 10675 18f5 91       		.byte	0x91
 10676 18f6 04       		.sleb128 4
 10677 18f7 00000000 		.4byte	0
 10678 18fb 00000000 		.4byte	0
ARM GAS  /tmp/cclL2Tth.s 			page 189


 10679              	.LLST140:
 10680 18ff 00000000 		.4byte	.LVL249
 10681 1903 8E000000 		.4byte	.LVL258
 10682 1907 0200     		.2byte	0x2
 10683 1909 91       		.byte	0x91
 10684 190a 08       		.sleb128 8
 10685 190b 8E000000 		.4byte	.LVL258
 10686 190f A8000000 		.4byte	.LFE146
 10687 1913 0200     		.2byte	0x2
 10688 1915 91       		.byte	0x91
 10689 1916 08       		.sleb128 8
 10690 1917 00000000 		.4byte	0
 10691 191b 00000000 		.4byte	0
 10692              	.LLST141:
 10693 191f 00000000 		.4byte	.LVL249
 10694 1923 8E000000 		.4byte	.LVL258
 10695 1927 0200     		.2byte	0x2
 10696 1929 91       		.byte	0x91
 10697 192a 0C       		.sleb128 12
 10698 192b 8E000000 		.4byte	.LVL258
 10699 192f A8000000 		.4byte	.LFE146
 10700 1933 0200     		.2byte	0x2
 10701 1935 91       		.byte	0x91
 10702 1936 0C       		.sleb128 12
 10703 1937 00000000 		.4byte	0
 10704 193b 00000000 		.4byte	0
 10705              	.LLST142:
 10706 193f 00000000 		.4byte	.LVL249
 10707 1943 8E000000 		.4byte	.LVL258
 10708 1947 0200     		.2byte	0x2
 10709 1949 91       		.byte	0x91
 10710 194a 10       		.sleb128 16
 10711 194b 8E000000 		.4byte	.LVL258
 10712 194f A8000000 		.4byte	.LFE146
 10713 1953 0200     		.2byte	0x2
 10714 1955 91       		.byte	0x91
 10715 1956 10       		.sleb128 16
 10716 1957 00000000 		.4byte	0
 10717 195b 00000000 		.4byte	0
 10718              	.LLST143:
 10719 195f 00000000 		.4byte	.LVL263
 10720 1963 0E000000 		.4byte	.LVL264
 10721 1967 0100     		.2byte	0x1
 10722 1969 50       		.byte	0x50
 10723 196a 0E000000 		.4byte	.LVL264
 10724 196e 54010000 		.4byte	.LFE147
 10725 1972 0100     		.2byte	0x1
 10726 1974 54       		.byte	0x54
 10727 1975 00000000 		.4byte	0
 10728 1979 00000000 		.4byte	0
 10729              	.LLST144:
 10730 197d 00000000 		.4byte	.LVL263
 10731 1981 70000000 		.4byte	.LVL266
 10732 1985 0100     		.2byte	0x1
 10733 1987 51       		.byte	0x51
 10734 1988 70000000 		.4byte	.LVL266
 10735 198c CB000000 		.4byte	.LVL271-1
ARM GAS  /tmp/cclL2Tth.s 			page 190


 10736 1990 0300     		.2byte	0x3
 10737 1992 74       		.byte	0x74
 10738 1993 C000     		.sleb128 64
 10739 1995 CB000000 		.4byte	.LVL271-1
 10740 1999 D6000000 		.4byte	.LVL272
 10741 199d 0200     		.2byte	0x2
 10742 199f 91       		.byte	0x91
 10743 19a0 50       		.sleb128 -48
 10744 19a1 D6000000 		.4byte	.LVL272
 10745 19a5 00010000 		.4byte	.LVL276
 10746 19a9 0100     		.2byte	0x1
 10747 19ab 5B       		.byte	0x5b
 10748 19ac 1A010000 		.4byte	.LVL278
 10749 19b0 24010000 		.4byte	.LVL279
 10750 19b4 0300     		.2byte	0x3
 10751 19b6 74       		.byte	0x74
 10752 19b7 C000     		.sleb128 64
 10753 19b9 24010000 		.4byte	.LVL279
 10754 19bd 2C010000 		.4byte	.LVL280
 10755 19c1 0100     		.2byte	0x1
 10756 19c3 51       		.byte	0x51
 10757 19c4 2C010000 		.4byte	.LVL280
 10758 19c8 3A010000 		.4byte	.LVL281
 10759 19cc 0200     		.2byte	0x2
 10760 19ce 91       		.byte	0x91
 10761 19cf 50       		.sleb128 -48
 10762 19d0 3A010000 		.4byte	.LVL281
 10763 19d4 3C010000 		.4byte	.LVL282
 10764 19d8 0100     		.2byte	0x1
 10765 19da 53       		.byte	0x53
 10766 19db 3C010000 		.4byte	.LVL282
 10767 19df 4C010000 		.4byte	.LVL283
 10768 19e3 0200     		.2byte	0x2
 10769 19e5 91       		.byte	0x91
 10770 19e6 50       		.sleb128 -48
 10771 19e7 4C010000 		.4byte	.LVL283
 10772 19eb 54010000 		.4byte	.LFE147
 10773 19ef 0100     		.2byte	0x1
 10774 19f1 57       		.byte	0x57
 10775 19f2 00000000 		.4byte	0
 10776 19f6 00000000 		.4byte	0
 10777              	.LLST145:
 10778 19fa 00000000 		.4byte	.LVL263
 10779 19fe 86000000 		.4byte	.LVL268
 10780 1a02 0100     		.2byte	0x1
 10781 1a04 52       		.byte	0x52
 10782 1a05 86000000 		.4byte	.LVL268
 10783 1a09 8E000000 		.4byte	.LVL269
 10784 1a0d 0200     		.2byte	0x2
 10785 1a0f 74       		.byte	0x74
 10786 1a10 22       		.sleb128 34
 10787 1a11 8E000000 		.4byte	.LVL269
 10788 1a15 CB000000 		.4byte	.LVL271-1
 10789 1a19 0300     		.2byte	0x3
 10790 1a1b 74       		.byte	0x74
 10791 1a1c C200     		.sleb128 66
 10792 1a1e CB000000 		.4byte	.LVL271-1
ARM GAS  /tmp/cclL2Tth.s 			page 191


 10793 1a22 D6000000 		.4byte	.LVL272
 10794 1a26 0100     		.2byte	0x1
 10795 1a28 59       		.byte	0x59
 10796 1a29 D6000000 		.4byte	.LVL272
 10797 1a2d E0000000 		.4byte	.LVL273
 10798 1a31 1900     		.2byte	0x19
 10799 1a33 76       		.byte	0x76
 10800 1a34 00       		.sleb128 0
 10801 1a35 40       		.byte	0x40
 10802 1a36 24       		.byte	0x24
 10803 1a37 40       		.byte	0x40
 10804 1a38 26       		.byte	0x26
 10805 1a39 91       		.byte	0x91
 10806 1a3a 08       		.sleb128 8
 10807 1a3b 06       		.byte	0x6
 10808 1a3c 23       		.byte	0x23
 10809 1a3d 09       		.uleb128 0x9
 10810 1a3e 94       		.byte	0x94
 10811 1a3f 01       		.byte	0x1
 10812 1a40 08       		.byte	0x8
 10813 1a41 FF       		.byte	0xff
 10814 1a42 1A       		.byte	0x1a
 10815 1a43 1C       		.byte	0x1c
 10816 1a44 23       		.byte	0x23
 10817 1a45 01       		.uleb128 0x1
 10818 1a46 32       		.byte	0x32
 10819 1a47 1B       		.byte	0x1b
 10820 1a48 79       		.byte	0x79
 10821 1a49 00       		.sleb128 0
 10822 1a4a 22       		.byte	0x22
 10823 1a4b 9F       		.byte	0x9f
 10824 1a4c E0000000 		.4byte	.LVL273
 10825 1a50 E2000000 		.4byte	.LVL274
 10826 1a54 1400     		.2byte	0x14
 10827 1a56 76       		.byte	0x76
 10828 1a57 00       		.sleb128 0
 10829 1a58 40       		.byte	0x40
 10830 1a59 24       		.byte	0x24
 10831 1a5a 40       		.byte	0x40
 10832 1a5b 26       		.byte	0x26
 10833 1a5c 73       		.byte	0x73
 10834 1a5d 00       		.sleb128 0
 10835 1a5e 08       		.byte	0x8
 10836 1a5f FF       		.byte	0xff
 10837 1a60 1A       		.byte	0x1a
 10838 1a61 1C       		.byte	0x1c
 10839 1a62 23       		.byte	0x23
 10840 1a63 01       		.uleb128 0x1
 10841 1a64 32       		.byte	0x32
 10842 1a65 1B       		.byte	0x1b
 10843 1a66 79       		.byte	0x79
 10844 1a67 00       		.sleb128 0
 10845 1a68 22       		.byte	0x22
 10846 1a69 9F       		.byte	0x9f
 10847 1a6a E2000000 		.4byte	.LVL274
 10848 1a6e F4000000 		.4byte	.LVL275
 10849 1a72 1600     		.2byte	0x16
ARM GAS  /tmp/cclL2Tth.s 			page 192


 10850 1a74 91       		.byte	0x91
 10851 1a75 00       		.sleb128 0
 10852 1a76 94       		.byte	0x94
 10853 1a77 02       		.byte	0x2
 10854 1a78 40       		.byte	0x40
 10855 1a79 24       		.byte	0x24
 10856 1a7a 40       		.byte	0x40
 10857 1a7b 26       		.byte	0x26
 10858 1a7c 73       		.byte	0x73
 10859 1a7d 00       		.sleb128 0
 10860 1a7e 08       		.byte	0x8
 10861 1a7f FF       		.byte	0xff
 10862 1a80 1A       		.byte	0x1a
 10863 1a81 1C       		.byte	0x1c
 10864 1a82 23       		.byte	0x23
 10865 1a83 01       		.uleb128 0x1
 10866 1a84 32       		.byte	0x32
 10867 1a85 1B       		.byte	0x1b
 10868 1a86 79       		.byte	0x79
 10869 1a87 00       		.sleb128 0
 10870 1a88 22       		.byte	0x22
 10871 1a89 9F       		.byte	0x9f
 10872 1a8a 1A010000 		.4byte	.LVL278
 10873 1a8e 2C010000 		.4byte	.LVL280
 10874 1a92 0100     		.2byte	0x1
 10875 1a94 52       		.byte	0x52
 10876 1a95 2C010000 		.4byte	.LVL280
 10877 1a99 54010000 		.4byte	.LFE147
 10878 1a9d 0100     		.2byte	0x1
 10879 1a9f 59       		.byte	0x59
 10880 1aa0 00000000 		.4byte	0
 10881 1aa4 00000000 		.4byte	0
 10882              	.LLST146:
 10883 1aa8 00000000 		.4byte	.LVL263
 10884 1aac 14000000 		.4byte	.LVL265
 10885 1ab0 0100     		.2byte	0x1
 10886 1ab2 53       		.byte	0x53
 10887 1ab3 14000000 		.4byte	.LVL265
 10888 1ab7 78000000 		.4byte	.LVL267
 10889 1abb 0200     		.2byte	0x2
 10890 1abd 74       		.byte	0x74
 10891 1abe 24       		.sleb128 36
 10892 1abf 78000000 		.4byte	.LVL267
 10893 1ac3 24010000 		.4byte	.LVL279
 10894 1ac7 0400     		.2byte	0x4
 10895 1ac9 F3       		.byte	0xf3
 10896 1aca 01       		.uleb128 0x1
 10897 1acb 53       		.byte	0x53
 10898 1acc 9F       		.byte	0x9f
 10899 1acd 24010000 		.4byte	.LVL279
 10900 1ad1 2C010000 		.4byte	.LVL280
 10901 1ad5 0200     		.2byte	0x2
 10902 1ad7 74       		.byte	0x74
 10903 1ad8 24       		.sleb128 36
 10904 1ad9 2C010000 		.4byte	.LVL280
 10905 1add 54010000 		.4byte	.LFE147
 10906 1ae1 0400     		.2byte	0x4
ARM GAS  /tmp/cclL2Tth.s 			page 193


 10907 1ae3 F3       		.byte	0xf3
 10908 1ae4 01       		.uleb128 0x1
 10909 1ae5 53       		.byte	0x53
 10910 1ae6 9F       		.byte	0x9f
 10911 1ae7 00000000 		.4byte	0
 10912 1aeb 00000000 		.4byte	0
 10913              	.LLST147:
 10914 1aef 00000000 		.4byte	.LVL263
 10915 1af3 1A010000 		.4byte	.LVL278
 10916 1af7 0200     		.2byte	0x2
 10917 1af9 91       		.byte	0x91
 10918 1afa 00       		.sleb128 0
 10919 1afb 1A010000 		.4byte	.LVL278
 10920 1aff 54010000 		.4byte	.LFE147
 10921 1b03 0200     		.2byte	0x2
 10922 1b05 91       		.byte	0x91
 10923 1b06 00       		.sleb128 0
 10924 1b07 00000000 		.4byte	0
 10925 1b0b 00000000 		.4byte	0
 10926              	.LLST148:
 10927 1b0f 00000000 		.4byte	.LVL263
 10928 1b13 1A010000 		.4byte	.LVL278
 10929 1b17 0200     		.2byte	0x2
 10930 1b19 91       		.byte	0x91
 10931 1b1a 04       		.sleb128 4
 10932 1b1b 1A010000 		.4byte	.LVL278
 10933 1b1f 54010000 		.4byte	.LFE147
 10934 1b23 0200     		.2byte	0x2
 10935 1b25 91       		.byte	0x91
 10936 1b26 04       		.sleb128 4
 10937 1b27 00000000 		.4byte	0
 10938 1b2b 00000000 		.4byte	0
 10939              	.LLST149:
 10940 1b2f 00000000 		.4byte	.LVL263
 10941 1b33 1A010000 		.4byte	.LVL278
 10942 1b37 0200     		.2byte	0x2
 10943 1b39 91       		.byte	0x91
 10944 1b3a 08       		.sleb128 8
 10945 1b3b 1A010000 		.4byte	.LVL278
 10946 1b3f 54010000 		.4byte	.LFE147
 10947 1b43 0200     		.2byte	0x2
 10948 1b45 91       		.byte	0x91
 10949 1b46 08       		.sleb128 8
 10950 1b47 00000000 		.4byte	0
 10951 1b4b 00000000 		.4byte	0
 10952              	.LLST150:
 10953 1b4f 00000000 		.4byte	.LVL263
 10954 1b53 1A010000 		.4byte	.LVL278
 10955 1b57 0200     		.2byte	0x2
 10956 1b59 91       		.byte	0x91
 10957 1b5a 0C       		.sleb128 12
 10958 1b5b 1A010000 		.4byte	.LVL278
 10959 1b5f 54010000 		.4byte	.LFE147
 10960 1b63 0200     		.2byte	0x2
 10961 1b65 91       		.byte	0x91
 10962 1b66 0C       		.sleb128 12
 10963 1b67 00000000 		.4byte	0
ARM GAS  /tmp/cclL2Tth.s 			page 194


 10964 1b6b 00000000 		.4byte	0
 10965              	.LLST151:
 10966 1b6f 00000000 		.4byte	.LVL263
 10967 1b73 1A010000 		.4byte	.LVL278
 10968 1b77 0200     		.2byte	0x2
 10969 1b79 91       		.byte	0x91
 10970 1b7a 10       		.sleb128 16
 10971 1b7b 1A010000 		.4byte	.LVL278
 10972 1b7f 54010000 		.4byte	.LFE147
 10973 1b83 0200     		.2byte	0x2
 10974 1b85 91       		.byte	0x91
 10975 1b86 10       		.sleb128 16
 10976 1b87 00000000 		.4byte	0
 10977 1b8b 00000000 		.4byte	0
 10978              	.LLST152:
 10979 1b8f 00000000 		.4byte	.LVL263
 10980 1b93 1A010000 		.4byte	.LVL278
 10981 1b97 0200     		.2byte	0x2
 10982 1b99 91       		.byte	0x91
 10983 1b9a 14       		.sleb128 20
 10984 1b9b 1A010000 		.4byte	.LVL278
 10985 1b9f 54010000 		.4byte	.LFE147
 10986 1ba3 0200     		.2byte	0x2
 10987 1ba5 91       		.byte	0x91
 10988 1ba6 14       		.sleb128 20
 10989 1ba7 00000000 		.4byte	0
 10990 1bab 00000000 		.4byte	0
 10991              	.LLST153:
 10992 1baf C6000000 		.4byte	.LVL270
 10993 1bb3 00010000 		.4byte	.LVL276
 10994 1bb7 0100     		.2byte	0x1
 10995 1bb9 54       		.byte	0x54
 10996 1bba 2C010000 		.4byte	.LVL280
 10997 1bbe 54010000 		.4byte	.LFE147
 10998 1bc2 0100     		.2byte	0x1
 10999 1bc4 54       		.byte	0x54
 11000 1bc5 00000000 		.4byte	0
 11001 1bc9 00000000 		.4byte	0
 11002              	.LLST154:
 11003 1bcd 00000000 		.4byte	.LVL284
 11004 1bd1 10000000 		.4byte	.LVL285
 11005 1bd5 0100     		.2byte	0x1
 11006 1bd7 50       		.byte	0x50
 11007 1bd8 10000000 		.4byte	.LVL285
 11008 1bdc 14000000 		.4byte	.LVL286
 11009 1be0 0400     		.2byte	0x4
 11010 1be2 F3       		.byte	0xf3
 11011 1be3 01       		.uleb128 0x1
 11012 1be4 50       		.byte	0x50
 11013 1be5 9F       		.byte	0x9f
 11014 1be6 14000000 		.4byte	.LVL286
 11015 1bea 16000000 		.4byte	.LVL287
 11016 1bee 0100     		.2byte	0x1
 11017 1bf0 50       		.byte	0x50
 11018 1bf1 16000000 		.4byte	.LVL287
 11019 1bf5 1A000000 		.4byte	.LVL288
 11020 1bf9 0400     		.2byte	0x4
ARM GAS  /tmp/cclL2Tth.s 			page 195


 11021 1bfb F3       		.byte	0xf3
 11022 1bfc 01       		.uleb128 0x1
 11023 1bfd 50       		.byte	0x50
 11024 1bfe 9F       		.byte	0x9f
 11025 1bff 1A000000 		.4byte	.LVL288
 11026 1c03 1C000000 		.4byte	.LVL289
 11027 1c07 0100     		.2byte	0x1
 11028 1c09 50       		.byte	0x50
 11029 1c0a 1C000000 		.4byte	.LVL289
 11030 1c0e 20000000 		.4byte	.LVL290
 11031 1c12 0400     		.2byte	0x4
 11032 1c14 F3       		.byte	0xf3
 11033 1c15 01       		.uleb128 0x1
 11034 1c16 50       		.byte	0x50
 11035 1c17 9F       		.byte	0x9f
 11036 1c18 20000000 		.4byte	.LVL290
 11037 1c1c 26000000 		.4byte	.LVL291
 11038 1c20 0100     		.2byte	0x1
 11039 1c22 50       		.byte	0x50
 11040 1c23 26000000 		.4byte	.LVL291
 11041 1c27 2C000000 		.4byte	.LVL292
 11042 1c2b 0400     		.2byte	0x4
 11043 1c2d F3       		.byte	0xf3
 11044 1c2e 01       		.uleb128 0x1
 11045 1c2f 50       		.byte	0x50
 11046 1c30 9F       		.byte	0x9f
 11047 1c31 2C000000 		.4byte	.LVL292
 11048 1c35 2E000000 		.4byte	.LVL293
 11049 1c39 0100     		.2byte	0x1
 11050 1c3b 50       		.byte	0x50
 11051 1c3c 2E000000 		.4byte	.LVL293
 11052 1c40 32000000 		.4byte	.LVL294
 11053 1c44 0400     		.2byte	0x4
 11054 1c46 F3       		.byte	0xf3
 11055 1c47 01       		.uleb128 0x1
 11056 1c48 50       		.byte	0x50
 11057 1c49 9F       		.byte	0x9f
 11058 1c4a 32000000 		.4byte	.LVL294
 11059 1c4e 34000000 		.4byte	.LVL295
 11060 1c52 0100     		.2byte	0x1
 11061 1c54 50       		.byte	0x50
 11062 1c55 34000000 		.4byte	.LVL295
 11063 1c59 38000000 		.4byte	.LFE148
 11064 1c5d 0400     		.2byte	0x4
 11065 1c5f F3       		.byte	0xf3
 11066 1c60 01       		.uleb128 0x1
 11067 1c61 50       		.byte	0x50
 11068 1c62 9F       		.byte	0x9f
 11069 1c63 00000000 		.4byte	0
 11070 1c67 00000000 		.4byte	0
 11071              	.LLST155:
 11072 1c6b 00000000 		.4byte	.LVL296
 11073 1c6f 06000000 		.4byte	.LVL297
 11074 1c73 0100     		.2byte	0x1
 11075 1c75 50       		.byte	0x50
 11076 1c76 06000000 		.4byte	.LVL297
 11077 1c7a 10000000 		.4byte	.LFE149
ARM GAS  /tmp/cclL2Tth.s 			page 196


 11078 1c7e 0400     		.2byte	0x4
 11079 1c80 F3       		.byte	0xf3
 11080 1c81 01       		.uleb128 0x1
 11081 1c82 50       		.byte	0x50
 11082 1c83 9F       		.byte	0x9f
 11083 1c84 00000000 		.4byte	0
 11084 1c88 00000000 		.4byte	0
 11085              	.LLST156:
 11086 1c8c 00000000 		.4byte	.LVL296
 11087 1c90 08000000 		.4byte	.LVL298
 11088 1c94 0100     		.2byte	0x1
 11089 1c96 51       		.byte	0x51
 11090 1c97 08000000 		.4byte	.LVL298
 11091 1c9b 0B000000 		.4byte	.LVL299-1
 11092 1c9f 0100     		.2byte	0x1
 11093 1ca1 50       		.byte	0x50
 11094 1ca2 0B000000 		.4byte	.LVL299-1
 11095 1ca6 10000000 		.4byte	.LFE149
 11096 1caa 0400     		.2byte	0x4
 11097 1cac F3       		.byte	0xf3
 11098 1cad 01       		.uleb128 0x1
 11099 1cae 51       		.byte	0x51
 11100 1caf 9F       		.byte	0x9f
 11101 1cb0 00000000 		.4byte	0
 11102 1cb4 00000000 		.4byte	0
 11103              	.LLST157:
 11104 1cb8 00000000 		.4byte	.LVL300
 11105 1cbc 0A000000 		.4byte	.LVL301
 11106 1cc0 0100     		.2byte	0x1
 11107 1cc2 50       		.byte	0x50
 11108 1cc3 0A000000 		.4byte	.LVL301
 11109 1cc7 10000000 		.4byte	.LVL303
 11110 1ccb 0100     		.2byte	0x1
 11111 1ccd 54       		.byte	0x54
 11112 1cce 10000000 		.4byte	.LVL303
 11113 1cd2 13000000 		.4byte	.LVL304-1
 11114 1cd6 0100     		.2byte	0x1
 11115 1cd8 51       		.byte	0x51
 11116 1cd9 13000000 		.4byte	.LVL304-1
 11117 1cdd 14000000 		.4byte	.LFE150
 11118 1ce1 0400     		.2byte	0x4
 11119 1ce3 F3       		.byte	0xf3
 11120 1ce4 01       		.uleb128 0x1
 11121 1ce5 50       		.byte	0x50
 11122 1ce6 9F       		.byte	0x9f
 11123 1ce7 00000000 		.4byte	0
 11124 1ceb 00000000 		.4byte	0
 11125              	.LLST158:
 11126 1cef 00000000 		.4byte	.LVL300
 11127 1cf3 0C000000 		.4byte	.LVL302
 11128 1cf7 0100     		.2byte	0x1
 11129 1cf9 51       		.byte	0x51
 11130 1cfa 0C000000 		.4byte	.LVL302
 11131 1cfe 13000000 		.4byte	.LVL304-1
 11132 1d02 0100     		.2byte	0x1
 11133 1d04 50       		.byte	0x50
 11134 1d05 13000000 		.4byte	.LVL304-1
ARM GAS  /tmp/cclL2Tth.s 			page 197


 11135 1d09 14000000 		.4byte	.LFE150
 11136 1d0d 0400     		.2byte	0x4
 11137 1d0f F3       		.byte	0xf3
 11138 1d10 01       		.uleb128 0x1
 11139 1d11 51       		.byte	0x51
 11140 1d12 9F       		.byte	0x9f
 11141 1d13 00000000 		.4byte	0
 11142 1d17 00000000 		.4byte	0
 11143              	.LLST159:
 11144 1d1b 00000000 		.4byte	.LVL305
 11145 1d1f 2C000000 		.4byte	.LVL309
 11146 1d23 0100     		.2byte	0x1
 11147 1d25 50       		.byte	0x50
 11148 1d26 2C000000 		.4byte	.LVL309
 11149 1d2a 5A000000 		.4byte	.LFE151
 11150 1d2e 0400     		.2byte	0x4
 11151 1d30 F3       		.byte	0xf3
 11152 1d31 01       		.uleb128 0x1
 11153 1d32 50       		.byte	0x50
 11154 1d33 9F       		.byte	0x9f
 11155 1d34 00000000 		.4byte	0
 11156 1d38 00000000 		.4byte	0
 11157              	.LLST160:
 11158 1d3c 00000000 		.4byte	.LVL305
 11159 1d40 36000000 		.4byte	.LVL311
 11160 1d44 0100     		.2byte	0x1
 11161 1d46 51       		.byte	0x51
 11162 1d47 36000000 		.4byte	.LVL311
 11163 1d4b 5A000000 		.4byte	.LFE151
 11164 1d4f 0400     		.2byte	0x4
 11165 1d51 F3       		.byte	0xf3
 11166 1d52 01       		.uleb128 0x1
 11167 1d53 51       		.byte	0x51
 11168 1d54 9F       		.byte	0x9f
 11169 1d55 00000000 		.4byte	0
 11170 1d59 00000000 		.4byte	0
 11171              	.LLST161:
 11172 1d5d 00000000 		.4byte	.LVL305
 11173 1d61 16000000 		.4byte	.LVL307
 11174 1d65 0100     		.2byte	0x1
 11175 1d67 52       		.byte	0x52
 11176 1d68 16000000 		.4byte	.LVL307
 11177 1d6c 5A000000 		.4byte	.LFE151
 11178 1d70 0400     		.2byte	0x4
 11179 1d72 F3       		.byte	0xf3
 11180 1d73 01       		.uleb128 0x1
 11181 1d74 52       		.byte	0x52
 11182 1d75 9F       		.byte	0x9f
 11183 1d76 00000000 		.4byte	0
 11184 1d7a 00000000 		.4byte	0
 11185              	.LLST162:
 11186 1d7e 08000000 		.4byte	.LVL306
 11187 1d82 3E000000 		.4byte	.LVL312
 11188 1d86 0100     		.2byte	0x1
 11189 1d88 53       		.byte	0x53
 11190 1d89 00000000 		.4byte	0
 11191 1d8d 00000000 		.4byte	0
ARM GAS  /tmp/cclL2Tth.s 			page 198


 11192              	.LLST163:
 11193 1d91 1C000000 		.4byte	.LVL308
 11194 1d95 4E000000 		.4byte	.LVL313
 11195 1d99 0100     		.2byte	0x1
 11196 1d9b 52       		.byte	0x52
 11197 1d9c 00000000 		.4byte	0
 11198 1da0 00000000 		.4byte	0
 11199              	.LLST164:
 11200 1da4 30000000 		.4byte	.LVL310
 11201 1da8 3E000000 		.4byte	.LVL312
 11202 1dac 0700     		.2byte	0x7
 11203 1dae 75       		.byte	0x75
 11204 1daf 00       		.sleb128 0
 11205 1db0 0A       		.byte	0xa
 11206 1db1 F8FF     		.2byte	0xfff8
 11207 1db3 1A       		.byte	0x1a
 11208 1db4 9F       		.byte	0x9f
 11209 1db5 00000000 		.4byte	0
 11210 1db9 00000000 		.4byte	0
 11211              	.LLST165:
 11212 1dbd 30000000 		.4byte	.LVL310
 11213 1dc1 3E000000 		.4byte	.LVL312
 11214 1dc5 0700     		.2byte	0x7
 11215 1dc7 77       		.byte	0x77
 11216 1dc8 00       		.sleb128 0
 11217 1dc9 0A       		.byte	0xa
 11218 1dca FCFF     		.2byte	0xfffc
 11219 1dcc 1A       		.byte	0x1a
 11220 1dcd 9F       		.byte	0x9f
 11221 1dce 3E000000 		.4byte	.LVL312
 11222 1dd2 4E000000 		.4byte	.LVL313
 11223 1dd6 1300     		.2byte	0x13
 11224 1dd8 7C       		.byte	0x7c
 11225 1dd9 00       		.sleb128 0
 11226 1dda 72       		.byte	0x72
 11227 1ddb 00       		.sleb128 0
 11228 1ddc 1E       		.byte	0x1e
 11229 1ddd 77       		.byte	0x77
 11230 1dde 00       		.sleb128 0
 11231 1ddf 0A       		.byte	0xa
 11232 1de0 FCFF     		.2byte	0xfffc
 11233 1de2 1A       		.byte	0x1a
 11234 1de3 22       		.byte	0x22
 11235 1de4 0A       		.byte	0xa
 11236 1de5 FCFF     		.2byte	0xfffc
 11237 1de7 1A       		.byte	0x1a
 11238 1de8 38       		.byte	0x38
 11239 1de9 25       		.byte	0x25
 11240 1dea 9F       		.byte	0x9f
 11241 1deb 00000000 		.4byte	0
 11242 1def 00000000 		.4byte	0
 11243              	.LLST166:
 11244 1df3 3E000000 		.4byte	.LVL312
 11245 1df7 4E000000 		.4byte	.LVL313
 11246 1dfb 0700     		.2byte	0x7
 11247 1dfd 73       		.byte	0x73
 11248 1dfe 00       		.sleb128 0
ARM GAS  /tmp/cclL2Tth.s 			page 199


 11249 1dff 0A       		.byte	0xa
 11250 1e00 F8FF     		.2byte	0xfff8
 11251 1e02 1A       		.byte	0x1a
 11252 1e03 9F       		.byte	0x9f
 11253 1e04 4E000000 		.4byte	.LVL313
 11254 1e08 54000000 		.4byte	.LVL314
 11255 1e0c 0500     		.2byte	0x5
 11256 1e0e 72       		.byte	0x72
 11257 1e0f 00       		.sleb128 0
 11258 1e10 38       		.byte	0x38
 11259 1e11 25       		.byte	0x25
 11260 1e12 9F       		.byte	0x9f
 11261 1e13 00000000 		.4byte	0
 11262 1e17 00000000 		.4byte	0
 11263              	.LLST167:
 11264 1e1b 00000000 		.4byte	.LVL315
 11265 1e1f 10000000 		.4byte	.LVL316
 11266 1e23 0100     		.2byte	0x1
 11267 1e25 50       		.byte	0x50
 11268 1e26 10000000 		.4byte	.LVL316
 11269 1e2a 36000000 		.4byte	.LFE152
 11270 1e2e 0400     		.2byte	0x4
 11271 1e30 F3       		.byte	0xf3
 11272 1e31 01       		.uleb128 0x1
 11273 1e32 50       		.byte	0x50
 11274 1e33 9F       		.byte	0x9f
 11275 1e34 00000000 		.4byte	0
 11276 1e38 00000000 		.4byte	0
 11277              		.section	.debug_aranges,"",%progbits
 11278 0000 FC000000 		.4byte	0xfc
 11279 0004 0200     		.2byte	0x2
 11280 0006 00000000 		.4byte	.Ldebug_info0
 11281 000a 04       		.byte	0x4
 11282 000b 00       		.byte	0
 11283 000c 0000     		.2byte	0
 11284 000e 0000     		.2byte	0
 11285 0010 00000000 		.4byte	.LFB140
 11286 0014 24000000 		.4byte	.LFE140-.LFB140
 11287 0018 00000000 		.4byte	.LFB141
 11288 001c 24000000 		.4byte	.LFE141-.LFB141
 11289 0020 00000000 		.4byte	.LFB122
 11290 0024 A8000000 		.4byte	.LFE122-.LFB122
 11291 0028 00000000 		.4byte	.LFB139
 11292 002c 62000000 		.4byte	.LFE139-.LFB139
 11293 0030 00000000 		.4byte	.LFB123
 11294 0034 A8000000 		.4byte	.LFE123-.LFB123
 11295 0038 00000000 		.4byte	.LFB127
 11296 003c 02000000 		.4byte	.LFE127-.LFB127
 11297 0040 00000000 		.4byte	.LFB128
 11298 0044 10000000 		.4byte	.LFE128-.LFB128
 11299 0048 00000000 		.4byte	.LFB129
 11300 004c 0C000000 		.4byte	.LFE129-.LFB129
 11301 0050 00000000 		.4byte	.LFB130
 11302 0054 02000000 		.4byte	.LFE130-.LFB130
 11303 0058 00000000 		.4byte	.LFB131
 11304 005c 80000000 		.4byte	.LFE131-.LFB131
 11305 0060 00000000 		.4byte	.LFB132
ARM GAS  /tmp/cclL2Tth.s 			page 200


 11306 0064 10020000 		.4byte	.LFE132-.LFB132
 11307 0068 00000000 		.4byte	.LFB133
 11308 006c 18000000 		.4byte	.LFE133-.LFB133
 11309 0070 00000000 		.4byte	.LFB134
 11310 0074 82000000 		.4byte	.LFE134-.LFB134
 11311 0078 00000000 		.4byte	.LFB135
 11312 007c BA000000 		.4byte	.LFE135-.LFB135
 11313 0080 00000000 		.4byte	.LFB136
 11314 0084 64000000 		.4byte	.LFE136-.LFB136
 11315 0088 00000000 		.4byte	.LFB137
 11316 008c 60000000 		.4byte	.LFE137-.LFB137
 11317 0090 00000000 		.4byte	.LFB126
 11318 0094 00010000 		.4byte	.LFE126-.LFB126
 11319 0098 00000000 		.4byte	.LFB138
 11320 009c C4000000 		.4byte	.LFE138-.LFB138
 11321 00a0 00000000 		.4byte	.LFB142
 11322 00a4 70000000 		.4byte	.LFE142-.LFB142
 11323 00a8 00000000 		.4byte	.LFB143
 11324 00ac 10010000 		.4byte	.LFE143-.LFB143
 11325 00b0 00000000 		.4byte	.LFB144
 11326 00b4 80000000 		.4byte	.LFE144-.LFB144
 11327 00b8 00000000 		.4byte	.LFB145
 11328 00bc 24010000 		.4byte	.LFE145-.LFB145
 11329 00c0 00000000 		.4byte	.LFB146
 11330 00c4 A8000000 		.4byte	.LFE146-.LFB146
 11331 00c8 00000000 		.4byte	.LFB147
 11332 00cc 54010000 		.4byte	.LFE147-.LFB147
 11333 00d0 00000000 		.4byte	.LFB148
 11334 00d4 38000000 		.4byte	.LFE148-.LFB148
 11335 00d8 00000000 		.4byte	.LFB149
 11336 00dc 10000000 		.4byte	.LFE149-.LFB149
 11337 00e0 00000000 		.4byte	.LFB150
 11338 00e4 14000000 		.4byte	.LFE150-.LFB150
 11339 00e8 00000000 		.4byte	.LFB151
 11340 00ec 5A000000 		.4byte	.LFE151-.LFB151
 11341 00f0 00000000 		.4byte	.LFB152
 11342 00f4 36000000 		.4byte	.LFE152-.LFB152
 11343 00f8 00000000 		.4byte	0
 11344 00fc 00000000 		.4byte	0
 11345              		.section	.debug_ranges,"",%progbits
 11346              	.Ldebug_ranges0:
 11347 0000 2A000000 		.4byte	.LBB20
 11348 0004 5C000000 		.4byte	.LBE20
 11349 0008 60000000 		.4byte	.LBB30
 11350 000c A0000000 		.4byte	.LBE30
 11351 0010 A4000000 		.4byte	.LBB31
 11352 0014 A8000000 		.4byte	.LBE31
 11353 0018 00000000 		.4byte	0
 11354 001c 00000000 		.4byte	0
 11355 0020 70000000 		.4byte	.LBB22
 11356 0024 A0000000 		.4byte	.LBE22
 11357 0028 A4000000 		.4byte	.LBB27
 11358 002c A8000000 		.4byte	.LBE27
 11359 0030 00000000 		.4byte	0
 11360 0034 00000000 		.4byte	0
 11361 0038 14000000 		.4byte	.LBB34
 11362 003c 58000000 		.4byte	.LBE34
ARM GAS  /tmp/cclL2Tth.s 			page 201


 11363 0040 5A000000 		.4byte	.LBB37
 11364 0044 5E000000 		.4byte	.LBE37
 11365 0048 00000000 		.4byte	0
 11366 004c 00000000 		.4byte	0
 11367 0050 2A000000 		.4byte	.LBB44
 11368 0054 5C000000 		.4byte	.LBE44
 11369 0058 60000000 		.4byte	.LBB54
 11370 005c A0000000 		.4byte	.LBE54
 11371 0060 A4000000 		.4byte	.LBB55
 11372 0064 A8000000 		.4byte	.LBE55
 11373 0068 00000000 		.4byte	0
 11374 006c 00000000 		.4byte	0
 11375 0070 70000000 		.4byte	.LBB46
 11376 0074 A0000000 		.4byte	.LBE46
 11377 0078 A4000000 		.4byte	.LBB51
 11378 007c A8000000 		.4byte	.LBE51
 11379 0080 00000000 		.4byte	0
 11380 0084 00000000 		.4byte	0
 11381 0088 02000000 		.4byte	.LBB64
 11382 008c 06000000 		.4byte	.LBE64
 11383 0090 08000000 		.4byte	.LBB77
 11384 0094 0A000000 		.4byte	.LBE77
 11385 0098 12000000 		.4byte	.LBB78
 11386 009c 2C000000 		.4byte	.LBE78
 11387 00a0 44000000 		.4byte	.LBB79
 11388 00a4 80000000 		.4byte	.LBE79
 11389 00a8 00000000 		.4byte	0
 11390 00ac 00000000 		.4byte	0
 11391 00b0 1C000000 		.4byte	.LBB66
 11392 00b4 2C000000 		.4byte	.LBE66
 11393 00b8 44000000 		.4byte	.LBB73
 11394 00bc 80000000 		.4byte	.LBE73
 11395 00c0 00000000 		.4byte	0
 11396 00c4 00000000 		.4byte	0
 11397 00c8 12000000 		.4byte	.LBB98
 11398 00cc 14000000 		.4byte	.LBE98
 11399 00d0 1E000000 		.4byte	.LBB126
 11400 00d4 C0000000 		.4byte	.LBE126
 11401 00d8 DA000000 		.4byte	.LBB127
 11402 00dc 10020000 		.4byte	.LBE127
 11403 00e0 00000000 		.4byte	0
 11404 00e4 00000000 		.4byte	0
 11405 00e8 84000000 		.4byte	.LBB100
 11406 00ec AC000000 		.4byte	.LBE100
 11407 00f0 BC010000 		.4byte	.LBB123
 11408 00f4 04020000 		.4byte	.LBE123
 11409 00f8 00000000 		.4byte	0
 11410 00fc 00000000 		.4byte	0
 11411 0100 96000000 		.4byte	.LBB102
 11412 0104 AC000000 		.4byte	.LBE102
 11413 0108 BC010000 		.4byte	.LBB109
 11414 010c 04020000 		.4byte	.LBE109
 11415 0110 00000000 		.4byte	0
 11416 0114 00000000 		.4byte	0
 11417 0118 3A010000 		.4byte	.LBB111
 11418 011c 60010000 		.4byte	.LBE111
 11419 0120 70010000 		.4byte	.LBB122
ARM GAS  /tmp/cclL2Tth.s 			page 202


 11420 0124 BC010000 		.4byte	.LBE122
 11421 0128 00000000 		.4byte	0
 11422 012c 00000000 		.4byte	0
 11423 0130 4C010000 		.4byte	.LBB113
 11424 0134 60010000 		.4byte	.LBE113
 11425 0138 70010000 		.4byte	.LBB120
 11426 013c BC010000 		.4byte	.LBE120
 11427 0140 00000000 		.4byte	0
 11428 0144 00000000 		.4byte	0
 11429 0148 C6000000 		.4byte	.LBB140
 11430 014c D8000000 		.4byte	.LBE140
 11431 0150 DE000000 		.4byte	.LBB143
 11432 0154 00010000 		.4byte	.LBE143
 11433 0158 00000000 		.4byte	0
 11434 015c 00000000 		.4byte	0
 11435 0160 00000000 		.4byte	.LFB140
 11436 0164 24000000 		.4byte	.LFE140
 11437 0168 00000000 		.4byte	.LFB141
 11438 016c 24000000 		.4byte	.LFE141
 11439 0170 00000000 		.4byte	.LFB122
 11440 0174 A8000000 		.4byte	.LFE122
 11441 0178 00000000 		.4byte	.LFB139
 11442 017c 62000000 		.4byte	.LFE139
 11443 0180 00000000 		.4byte	.LFB123
 11444 0184 A8000000 		.4byte	.LFE123
 11445 0188 00000000 		.4byte	.LFB127
 11446 018c 02000000 		.4byte	.LFE127
 11447 0190 00000000 		.4byte	.LFB128
 11448 0194 10000000 		.4byte	.LFE128
 11449 0198 00000000 		.4byte	.LFB129
 11450 019c 0C000000 		.4byte	.LFE129
 11451 01a0 00000000 		.4byte	.LFB130
 11452 01a4 02000000 		.4byte	.LFE130
 11453 01a8 00000000 		.4byte	.LFB131
 11454 01ac 80000000 		.4byte	.LFE131
 11455 01b0 00000000 		.4byte	.LFB132
 11456 01b4 10020000 		.4byte	.LFE132
 11457 01b8 00000000 		.4byte	.LFB133
 11458 01bc 18000000 		.4byte	.LFE133
 11459 01c0 00000000 		.4byte	.LFB134
 11460 01c4 82000000 		.4byte	.LFE134
 11461 01c8 00000000 		.4byte	.LFB135
 11462 01cc BA000000 		.4byte	.LFE135
 11463 01d0 00000000 		.4byte	.LFB136
 11464 01d4 64000000 		.4byte	.LFE136
 11465 01d8 00000000 		.4byte	.LFB137
 11466 01dc 60000000 		.4byte	.LFE137
 11467 01e0 00000000 		.4byte	.LFB126
 11468 01e4 00010000 		.4byte	.LFE126
 11469 01e8 00000000 		.4byte	.LFB138
 11470 01ec C4000000 		.4byte	.LFE138
 11471 01f0 00000000 		.4byte	.LFB142
 11472 01f4 70000000 		.4byte	.LFE142
 11473 01f8 00000000 		.4byte	.LFB143
 11474 01fc 10010000 		.4byte	.LFE143
 11475 0200 00000000 		.4byte	.LFB144
 11476 0204 80000000 		.4byte	.LFE144
ARM GAS  /tmp/cclL2Tth.s 			page 203


 11477 0208 00000000 		.4byte	.LFB145
 11478 020c 24010000 		.4byte	.LFE145
 11479 0210 00000000 		.4byte	.LFB146
 11480 0214 A8000000 		.4byte	.LFE146
 11481 0218 00000000 		.4byte	.LFB147
 11482 021c 54010000 		.4byte	.LFE147
 11483 0220 00000000 		.4byte	.LFB148
 11484 0224 38000000 		.4byte	.LFE148
 11485 0228 00000000 		.4byte	.LFB149
 11486 022c 10000000 		.4byte	.LFE149
 11487 0230 00000000 		.4byte	.LFB150
 11488 0234 14000000 		.4byte	.LFE150
 11489 0238 00000000 		.4byte	.LFB151
 11490 023c 5A000000 		.4byte	.LFE151
 11491 0240 00000000 		.4byte	.LFB152
 11492 0244 36000000 		.4byte	.LFE152
 11493 0248 00000000 		.4byte	0
 11494 024c 00000000 		.4byte	0
 11495              		.section	.debug_line,"",%progbits
 11496              	.Ldebug_line0:
 11497 0000 3D080000 		.section	.debug_str,"MS",%progbits,1
 11497      0200BA01 
 11497      00000201 
 11497      FB0E0D00 
 11497      01010101 
 11498              	.LASF100:
 11499 0000 636F756E 		.ascii	"count\000"
 11499      7400
 11500              	.LASF90:
 11501 0006 6D665F73 		.ascii	"mf_str\000"
 11501      747200
 11502              	.LASF63:
 11503 000d 706F7765 		.ascii	"powerSleep\000"
 11503      72536C65 
 11503      657000
 11504              	.LASF51:
 11505 0018 63686172 		.ascii	"character_width\000"
 11505      61637465 
 11505      725F7769 
 11505      64746800 
 11506              	.LASF164:
 11507 0028 2F686F6D 		.ascii	"/home/makkmarci/devel/ugfx/src/gdisp/gdisp.c\000"
 11507      652F6D61 
 11507      6B6B6D61 
 11507      7263692F 
 11507      64657665 
 11508              	.LASF70:
 11509 0055 48656967 		.ascii	"Height\000"
 11509      687400
 11510              	.LASF108:
 11511 005c 73657467 		.ascii	"setglobalwindow\000"
 11511      6C6F6261 
 11511      6C77696E 
 11511      646F7700 
 11512              	.LASF35:
 11513 006c 666F6E74 		.ascii	"fontCharPadding\000"
 11513      43686172 
ARM GAS  /tmp/cclL2Tth.s 			page 204


 11513      50616464 
 11513      696E6700 
 11514              	.LASF3:
 11515 007c 5F5F7569 		.ascii	"__uint8_t\000"
 11515      6E74385F 
 11515      7400
 11516              	.LASF9:
 11517 0086 6C6F6E67 		.ascii	"long int\000"
 11517      20696E74 
 11517      00
 11518              	.LASF13:
 11519 008f 6C6F6E67 		.ascii	"long long unsigned int\000"
 11519      206C6F6E 
 11519      6720756E 
 11519      7369676E 
 11519      65642069 
 11520              	.LASF33:
 11521 00a6 666F6E74 		.ascii	"fontDescendersHeight\000"
 11521      44657363 
 11521      656E6465 
 11521      72734865 
 11521      69676874 
 11522              	.LASF19:
 11523 00bb 626F6F6C 		.ascii	"bool_t\000"
 11523      5F7400
 11524              	.LASF116:
 11525 00c2 64696666 		.ascii	"diff\000"
 11525      00
 11526              	.LASF8:
 11527 00c7 5F5F696E 		.ascii	"__int32_t\000"
 11527      7433325F 
 11527      7400
 11528              	.LASF124:
 11529 00d1 67646973 		.ascii	"gdispGSetClip\000"
 11529      70475365 
 11529      74436C69 
 11529      7000
 11530              	.LASF115:
 11531 00df 61646479 		.ascii	"addy\000"
 11531      00
 11532              	.LASF148:
 11533 00e4 49544D5F 		.ascii	"ITM_RxBuffer\000"
 11533      52784275 
 11533      66666572 
 11533      00
 11534              	.LASF110:
 11535 00f1 67646973 		.ascii	"gdispSetDisplay\000"
 11535      70536574 
 11535      44697370 
 11535      6C617900 
 11536              	.LASF89:
 11537 0101 6D665F63 		.ascii	"mf_char\000"
 11537      68617200 
 11538              	.LASF15:
 11539 0109 696E7431 		.ascii	"int16_t\000"
 11539      365F7400 
 11540              	.LASF12:
ARM GAS  /tmp/cclL2Tth.s 			page 205


 11541 0111 6C6F6E67 		.ascii	"long long int\000"
 11541      206C6F6E 
 11541      6720696E 
 11541      7400
 11542              	.LASF1:
 11543 011f 7369676E 		.ascii	"signed char\000"
 11543      65642063 
 11543      68617200 
 11544              	.LASF32:
 11545 012b 666F6E74 		.ascii	"fontHeight\000"
 11545      48656967 
 11545      687400
 11546              	.LASF101:
 11547 0136 616C7068 		.ascii	"alpha\000"
 11547      6100
 11548              	.LASF118:
 11549 013c 67646973 		.ascii	"gdispGFillArea\000"
 11549      70474669 
 11549      6C6C4172 
 11549      656100
 11550              	.LASF156:
 11551 014b 67646973 		.ascii	"gdisp_lld_blit_area\000"
 11551      705F6C6C 
 11551      645F626C 
 11551      69745F61 
 11551      72656100 
 11552              	.LASF66:
 11553 015f 706F7765 		.ascii	"powermode_t\000"
 11553      726D6F64 
 11553      655F7400 
 11554              	.LASF31:
 11555 016b 666F6E74 		.ascii	"fontmetric\000"
 11555      6D657472 
 11555      696300
 11556              	.LASF71:
 11557 0176 4F726965 		.ascii	"Orientation\000"
 11557      6E746174 
 11557      696F6E00 
 11558              	.LASF102:
 11559 0182 73746174 		.ascii	"state\000"
 11559      6500
 11560              	.LASF98:
 11561 0188 686C696E 		.ascii	"hline_clip\000"
 11561      655F636C 
 11561      697000
 11562              	.LASF159:
 11563 0193 67646973 		.ascii	"gdisp_lld_init\000"
 11563      705F6C6C 
 11563      645F696E 
 11563      697400
 11564              	.LASF27:
 11565 01a2 6A757374 		.ascii	"justifyCenter\000"
 11565      69667943 
 11565      656E7465 
 11565      7200
 11566              	.LASF104:
 11567 01b0 66696C6C 		.ascii	"fillarea\000"
ARM GAS  /tmp/cclL2Tth.s 			page 206


 11567      61726561 
 11567      00
 11568              	.LASF132:
 11569 01b9 67646973 		.ascii	"gdispGDrawChar\000"
 11569      70474472 
 11569      61774368 
 11569      617200
 11570              	.LASF68:
 11571 01c8 47444953 		.ascii	"GDISPControl\000"
 11571      50436F6E 
 11571      74726F6C 
 11571      00
 11572              	.LASF113:
 11573 01d5 6C696E65 		.ascii	"line_clip\000"
 11573      5F636C69 
 11573      7000
 11574              	.LASF125:
 11575 01df 67646973 		.ascii	"gdispGControl\000"
 11575      7047436F 
 11575      6E74726F 
 11575      6C00
 11576              	.LASF121:
 11577 01ed 73726379 		.ascii	"srcy\000"
 11577      00
 11578              	.LASF111:
 11579 01f2 67646973 		.ascii	"gdispGFlush\000"
 11579      7047466C 
 11579      75736800 
 11580              	.LASF123:
 11581 01fe 62756666 		.ascii	"buffer\000"
 11581      657200
 11582              	.LASF105:
 11583 0205 64726177 		.ascii	"drawcharglyph\000"
 11583      63686172 
 11583      676C7970 
 11583      6800
 11584              	.LASF7:
 11585 0213 73686F72 		.ascii	"short unsigned int\000"
 11585      7420756E 
 11585      7369676E 
 11585      65642069 
 11585      6E7400
 11586              	.LASF145:
 11587 0226 62675F72 		.ascii	"bg_ratio\000"
 11587      6174696F 
 11587      00
 11588              	.LASF10:
 11589 022f 5F5F7569 		.ascii	"__uint32_t\000"
 11589      6E743332 
 11589      5F7400
 11590              	.LASF4:
 11591 023a 5F5F696E 		.ascii	"__int16_t\000"
 11591      7431365F 
 11591      7400
 11592              	.LASF109:
 11593 0244 64697370 		.ascii	"display\000"
 11593      6C617900 
ARM GAS  /tmp/cclL2Tth.s 			page 207


 11594              	.LASF127:
 11595 024c 76616C75 		.ascii	"value\000"
 11595      6500
 11596              	.LASF133:
 11597 0252 67646973 		.ascii	"gdispGFillChar\000"
 11597      70474669 
 11597      6C6C4368 
 11597      617200
 11598              	.LASF42:
 11599 0261 77696474 		.ascii	"width\000"
 11599      6800
 11600              	.LASF0:
 11601 0267 756E7369 		.ascii	"unsigned int\000"
 11601      676E6564 
 11601      20696E74 
 11601      00
 11602              	.LASF62:
 11603 0274 706F7765 		.ascii	"powerOff\000"
 11603      724F6666 
 11603      00
 11604              	.LASF154:
 11605 027d 67646973 		.ascii	"gdisp_lld_fill_area\000"
 11605      705F6C6C 
 11605      645F6669 
 11605      6C6C5F61 
 11605      72656100 
 11606              	.LASF16:
 11607 0291 75696E74 		.ascii	"uint16_t\000"
 11607      31365F74 
 11607      00
 11608              	.LASF119:
 11609 029a 67646973 		.ascii	"gdispGBlitArea\000"
 11609      7047426C 
 11609      69744172 
 11609      656100
 11610              	.LASF96:
 11611 02a9 6D665F63 		.ascii	"mf_character_callback_t\000"
 11611      68617261 
 11611      63746572 
 11611      5F63616C 
 11611      6C626163 
 11612              	.LASF155:
 11613 02c1 67646973 		.ascii	"gdisp_lld_write_stop\000"
 11613      705F6C6C 
 11613      645F7772 
 11613      6974655F 
 11613      73746F70 
 11614              	.LASF151:
 11615 02d6 67646973 		.ascii	"gdisp_lld_write_start\000"
 11615      705F6C6C 
 11615      645F7772 
 11615      6974655F 
 11615      73746172 
 11616              	.LASF28:
 11617 02ec 6A757374 		.ascii	"justifyRight\000"
 11617      69667952 
 11617      69676874 
ARM GAS  /tmp/cclL2Tth.s 			page 208


 11617      00
 11618              	.LASF11:
 11619 02f9 6C6F6E67 		.ascii	"long unsigned int\000"
 11619      20756E73 
 11619      69676E65 
 11619      6420696E 
 11619      7400
 11620              	.LASF162:
 11621 030b 6D665F67 		.ascii	"mf_get_string_width\000"
 11621      65745F73 
 11621      7472696E 
 11621      675F7769 
 11621      64746800 
 11622              	.LASF144:
 11623 031f 66675F72 		.ascii	"fg_ratio\000"
 11623      6174696F 
 11623      00
 11624              	.LASF34:
 11625 0328 666F6E74 		.ascii	"fontLineSpacing\000"
 11625      4C696E65 
 11625      53706163 
 11625      696E6700 
 11626              	.LASF65:
 11627 0338 706F7765 		.ascii	"powerOn\000"
 11627      724F6E00 
 11628              	.LASF157:
 11629 0340 67646973 		.ascii	"gdisp_lld_control\000"
 11629      705F6C6C 
 11629      645F636F 
 11629      6E74726F 
 11629      6C00
 11630              	.LASF117:
 11631 0352 67646973 		.ascii	"gdispGDrawLine\000"
 11631      70474472 
 11631      61774C69 
 11631      6E6500
 11632              	.LASF138:
 11633 0361 67646973 		.ascii	"gdispGetDisplay\000"
 11633      70476574 
 11633      44697370 
 11633      6C617900 
 11634              	.LASF146:
 11635 0371 67646973 		.ascii	"gdispContrastColor\000"
 11635      70436F6E 
 11635      74726173 
 11635      74436F6C 
 11635      6F7200
 11636              	.LASF48:
 11637 0384 6C696E65 		.ascii	"line_height\000"
 11637      5F686569 
 11637      67687400 
 11638              	.LASF50:
 11639 0390 66616C6C 		.ascii	"fallback_character\000"
 11639      6261636B 
 11639      5F636861 
 11639      72616374 
 11639      657200
ARM GAS  /tmp/cclL2Tth.s 			page 209


 11640              	.LASF161:
 11641 03a3 6D665F63 		.ascii	"mf_character_width\000"
 11641      68617261 
 11641      63746572 
 11641      5F776964 
 11641      746800
 11642              	.LASF75:
 11643 03b6 47446973 		.ascii	"GDisplay\000"
 11643      706C6179 
 11643      00
 11644              	.LASF88:
 11645 03bf 6267636F 		.ascii	"bgcolor\000"
 11645      6C6F7200 
 11646              	.LASF95:
 11647 03c7 4D465F41 		.ascii	"MF_ALIGN_RIGHT\000"
 11647      4C49474E 
 11647      5F524947 
 11647      485400
 11648              	.LASF153:
 11649 03d6 67646973 		.ascii	"gdisp_lld_write_color\000"
 11649      705F6C6C 
 11649      645F7772 
 11649      6974655F 
 11649      636F6C6F 
 11650              	.LASF139:
 11651 03ec 67646973 		.ascii	"gdispGetFontMetric\000"
 11651      70476574 
 11651      466F6E74 
 11651      4D657472 
 11651      696300
 11652              	.LASF149:
 11653 03ff 47444953 		.ascii	"GDISP\000"
 11653      5000
 11654              	.LASF106:
 11655 0405 66696C6C 		.ascii	"fillcharglyph\000"
 11655      63686172 
 11655      676C7970 
 11655      6800
 11656              	.LASF60:
 11657 0413 6F726965 		.ascii	"orientation_t\000"
 11657      6E746174 
 11657      696F6E5F 
 11657      7400
 11658              	.LASF84:
 11659 0421 636F6C6F 		.ascii	"color_t\000"
 11659      725F7400 
 11660              	.LASF99:
 11661 0429 64726177 		.ascii	"drawcharline\000"
 11661      63686172 
 11661      6C696E65 
 11661      00
 11662              	.LASF77:
 11663 0436 626F6172 		.ascii	"board\000"
 11663      6400
 11664              	.LASF152:
 11665 043c 67646973 		.ascii	"gdisp_lld_write_pos\000"
 11665      705F6C6C 
ARM GAS  /tmp/cclL2Tth.s 			page 210


 11665      645F7772 
 11665      6974655F 
 11665      706F7300 
 11666              	.LASF80:
 11667 0450 636C6970 		.ascii	"clipx0\000"
 11667      783000
 11668              	.LASF82:
 11669 0457 636C6970 		.ascii	"clipx1\000"
 11669      783100
 11670              	.LASF22:
 11671 045e 73697A65 		.ascii	"sizetype\000"
 11671      74797065 
 11671      00
 11672              	.LASF41:
 11673 0467 73686F72 		.ascii	"short_name\000"
 11673      745F6E61 
 11673      6D6500
 11674              	.LASF26:
 11675 0472 6A757374 		.ascii	"justifyLeft\000"
 11675      6966794C 
 11675      65667400 
 11676              	.LASF59:
 11677 047e 47444953 		.ascii	"GDISP_ROTATE_LANDSCAPE\000"
 11677      505F524F 
 11677      54415445 
 11677      5F4C414E 
 11677      44534341 
 11678              	.LASF58:
 11679 0495 47444953 		.ascii	"GDISP_ROTATE_PORTRAIT\000"
 11679      505F524F 
 11679      54415445 
 11679      5F504F52 
 11679      54524149 
 11680              	.LASF150:
 11681 04ab 67646973 		.ascii	"gdispGClear\000"
 11681      7047436C 
 11681      65617200 
 11682              	.LASF93:
 11683 04b7 4D465F41 		.ascii	"MF_ALIGN_LEFT\000"
 11683      4C49474E 
 11683      5F4C4546 
 11683      5400
 11684              	.LASF53:
 11685 04c5 6F726965 		.ascii	"orientation\000"
 11685      6E746174 
 11685      696F6E00 
 11686              	.LASF25:
 11687 04d1 636F6F72 		.ascii	"coord_t\000"
 11687      645F7400 
 11688              	.LASF61:
 11689 04d9 706F7765 		.ascii	"powermode\000"
 11689      726D6F64 
 11689      6500
 11690              	.LASF76:
 11691 04e3 70726976 		.ascii	"priv\000"
 11691      00
 11692              	.LASF112:
ARM GAS  /tmp/cclL2Tth.s 			page 211


 11693 04e8 67646973 		.ascii	"gdispGDrawPixel\000"
 11693      70474472 
 11693      61775069 
 11693      78656C00 
 11694              	.LASF131:
 11695 04f8 67646973 		.ascii	"gdispGDrawBox\000"
 11695      70474472 
 11695      6177426F 
 11695      7800
 11696              	.LASF94:
 11697 0506 4D465F41 		.ascii	"MF_ALIGN_CENTER\000"
 11697      4C49474E 
 11697      5F43454E 
 11697      54455200 
 11698              	.LASF135:
 11699 0516 67646973 		.ascii	"gdispGFillString\000"
 11699      70474669 
 11699      6C6C5374 
 11699      72696E67 
 11699      00
 11700              	.LASF81:
 11701 0527 636C6970 		.ascii	"clipy0\000"
 11701      793000
 11702              	.LASF83:
 11703 052e 636C6970 		.ascii	"clipy1\000"
 11703      793100
 11704              	.LASF20:
 11705 0535 5F426F6F 		.ascii	"_Bool\000"
 11705      6C00
 11706              	.LASF17:
 11707 053b 696E7433 		.ascii	"int32_t\000"
 11707      325F7400 
 11708              	.LASF2:
 11709 0543 756E7369 		.ascii	"unsigned char\000"
 11709      676E6564 
 11709      20636861 
 11709      7200
 11710              	.LASF64:
 11711 0551 706F7765 		.ascii	"powerDeepSleep\000"
 11711      72446565 
 11711      70536C65 
 11711      657000
 11712              	.LASF57:
 11713 0560 47444953 		.ascii	"GDISP_ROTATE_270\000"
 11713      505F524F 
 11713      54415445 
 11713      5F323730 
 11713      00
 11714              	.LASF114:
 11715 0571 61646478 		.ascii	"addx\000"
 11715      00
 11716              	.LASF5:
 11717 0576 73686F72 		.ascii	"short int\000"
 11717      7420696E 
 11717      7400
 11718              	.LASF92:
 11719 0580 6D665F61 		.ascii	"mf_align_t\000"
ARM GAS  /tmp/cclL2Tth.s 			page 212


 11719      6C69676E 
 11719      5F7400
 11720              	.LASF141:
 11721 058b 67646973 		.ascii	"gdispGetCharWidth\000"
 11721      70476574 
 11721      43686172 
 11721      57696474 
 11721      6800
 11722              	.LASF37:
 11723 059d 666F6E74 		.ascii	"fontMaxWidth\000"
 11723      4D617857 
 11723      69647468 
 11723      00
 11724              	.LASF67:
 11725 05aa 6D665F66 		.ascii	"mf_font_s\000"
 11725      6F6E745F 
 11725      7300
 11726              	.LASF142:
 11727 05b4 67646973 		.ascii	"gdispGetStringWidth\000"
 11727      70476574 
 11727      53747269 
 11727      6E675769 
 11727      64746800 
 11728              	.LASF167:
 11729 05c8 6D665F72 		.ascii	"mf_render_aligned\000"
 11729      656E6465 
 11729      725F616C 
 11729      69676E65 
 11729      6400
 11730              	.LASF163:
 11731 05da 474E5520 		.ascii	"GNU C 4.8.4 20140526 (release) [ARM/embedded-4_8-br"
 11731      4320342E 
 11731      382E3420 
 11731      32303134 
 11731      30353236 
 11732 060d 616E6368 		.ascii	"anch revision 211358] -mcpu=cortex-m4 -mfloat-abi=h"
 11732      20726576 
 11732      6973696F 
 11732      6E203231 
 11732      31333538 
 11733 0640 61726420 		.ascii	"ard -mfpu=fpv4-sp-d16 -mno-thumb-interwork -mthumb "
 11733      2D6D6670 
 11733      753D6670 
 11733      76342D73 
 11733      702D6431 
 11734 0673 2D676764 		.ascii	"-ggdb -O2 -fomit-frame-pointer -falign-functions=16"
 11734      62202D4F 
 11734      32202D66 
 11734      6F6D6974 
 11734      2D667261 
 11735 06a6 202D6666 		.ascii	" -ffunction-sections -fdata-sections -fno-common -f"
 11735      756E6374 
 11735      696F6E2D 
 11735      73656374 
 11735      696F6E73 
 11736 06d9 73696E67 		.ascii	"single-precision-constant\000"
 11736      6C652D70 
ARM GAS  /tmp/cclL2Tth.s 			page 213


 11736      72656369 
 11736      73696F6E 
 11736      2D636F6E 
 11737              	.LASF147:
 11738 06f3 47446973 		.ascii	"GDisplayArray\000"
 11738      706C6179 
 11738      41727261 
 11738      7900
 11739              	.LASF24:
 11740 0701 64656C61 		.ascii	"delaytime_t\000"
 11740      7974696D 
 11740      655F7400 
 11741              	.LASF40:
 11742 070d 66756C6C 		.ascii	"full_name\000"
 11742      5F6E616D 
 11742      6500
 11743              	.LASF143:
 11744 0717 67646973 		.ascii	"gdispBlendColor\000"
 11744      70426C65 
 11744      6E64436F 
 11744      6C6F7200 
 11745              	.LASF128:
 11746 0727 53746172 		.ascii	"StartupLogoDisplay\000"
 11746      7475704C 
 11746      6F676F44 
 11746      6973706C 
 11746      617900
 11747              	.LASF18:
 11748 073a 75696E74 		.ascii	"uint32_t\000"
 11748      33325F74 
 11748      00
 11749              	.LASF73:
 11750 0743 4261636B 		.ascii	"Backlight\000"
 11750      6C696768 
 11750      7400
 11751              	.LASF78:
 11752 074d 73797374 		.ascii	"systemdisplay\000"
 11752      656D6469 
 11752      73706C61 
 11752      7900
 11753              	.LASF55:
 11754 075b 47444953 		.ascii	"GDISP_ROTATE_90\000"
 11754      505F524F 
 11754      54415445 
 11754      5F393000 
 11755              	.LASF86:
 11756 076b 636F6C6F 		.ascii	"color\000"
 11756      7200
 11757              	.LASF23:
 11758 0771 63686172 		.ascii	"char\000"
 11758      00
 11759              	.LASF129:
 11760 0776 5F676469 		.ascii	"_gdispInit\000"
 11760      7370496E 
 11760      697400
 11761              	.LASF120:
 11762 0781 73726378 		.ascii	"srcx\000"
ARM GAS  /tmp/cclL2Tth.s 			page 214


 11762      00
 11763              	.LASF140:
 11764 0786 6D657472 		.ascii	"metric\000"
 11764      696300
 11765              	.LASF6:
 11766 078d 5F5F7569 		.ascii	"__uint16_t\000"
 11766      6E743136 
 11766      5F7400
 11767              	.LASF136:
 11768 0798 67646973 		.ascii	"gdispGDrawStringBox\000"
 11768      70474472 
 11768      61775374 
 11768      72696E67 
 11768      426F7800 
 11769              	.LASF97:
 11770 07ac 64726177 		.ascii	"drawpixel_clip\000"
 11770      70697865 
 11770      6C5F636C 
 11770      697000
 11771              	.LASF72:
 11772 07bb 506F7765 		.ascii	"Powermode\000"
 11772      726D6F64 
 11772      6500
 11773              	.LASF21:
 11774 07c5 73797374 		.ascii	"systime_t\000"
 11774      696D655F 
 11774      7400
 11775              	.LASF52:
 11776 07cf 72656E64 		.ascii	"render_character\000"
 11776      65725F63 
 11776      68617261 
 11776      63746572 
 11776      00
 11777              	.LASF29:
 11778 07e0 6A757374 		.ascii	"justify_t\000"
 11778      6966795F 
 11778      7400
 11779              	.LASF91:
 11780 07ea 6D665F70 		.ascii	"mf_pixel_callback_t\000"
 11780      6978656C 
 11780      5F63616C 
 11780      6C626163 
 11780      6B5F7400 
 11781              	.LASF30:
 11782 07fe 6A757374 		.ascii	"justify\000"
 11782      69667900 
 11783              	.LASF165:
 11784 0806 2F686F6D 		.ascii	"/home/makkmarci/devel/ChibiOS_2.6.5/projects/STM32F"
 11784      652F6D61 
 11784      6B6B6D61 
 11784      7263692F 
 11784      64657665 
 11785 0839 345F4368 		.ascii	"4_ChibiOS_uGFX/\000"
 11785      6962694F 
 11785      535F7547 
 11785      46582F00 
 11786              	.LASF122:
ARM GAS  /tmp/cclL2Tth.s 			page 215


 11787 0849 73726363 		.ascii	"srccx\000"
 11787      7800
 11788              	.LASF85:
 11789 084f 70697865 		.ascii	"pixel_t\000"
 11789      6C5F7400 
 11790              	.LASF126:
 11791 0857 77686174 		.ascii	"what\000"
 11791      00
 11792              	.LASF45:
 11793 085c 6D61785F 		.ascii	"max_x_advance\000"
 11793      785F6164 
 11793      76616E63 
 11793      6500
 11794              	.LASF87:
 11795 086a 666F6E74 		.ascii	"font\000"
 11795      00
 11796              	.LASF158:
 11797 086f 6D665F72 		.ascii	"mf_render_character\000"
 11797      656E6465 
 11797      725F6368 
 11797      61726163 
 11797      74657200 
 11798              	.LASF54:
 11799 0883 47444953 		.ascii	"GDISP_ROTATE_0\000"
 11799      505F524F 
 11799      54415445 
 11799      5F3000
 11800              	.LASF79:
 11801 0892 636F6E74 		.ascii	"controllerdisplay\000"
 11801      726F6C6C 
 11801      65726469 
 11801      73706C61 
 11801      7900
 11802              	.LASF44:
 11803 08a4 6D696E5F 		.ascii	"min_x_advance\000"
 11803      785F6164 
 11803      76616E63 
 11803      6500
 11804              	.LASF38:
 11805 08b2 666F6E74 		.ascii	"fontmetric_t\000"
 11805      6D657472 
 11805      69635F74 
 11805      00
 11806              	.LASF14:
 11807 08bf 75696E74 		.ascii	"uint8_t\000"
 11807      385F7400 
 11808              	.LASF160:
 11809 08c7 67667853 		.ascii	"gfxSleepMilliseconds\000"
 11809      6C656570 
 11809      4D696C6C 
 11809      69736563 
 11809      6F6E6473 
 11810              	.LASF49:
 11811 08dc 666C6167 		.ascii	"flags\000"
 11811      7300
 11812              	.LASF39:
 11813 08e2 666F6E74 		.ascii	"font_t\000"
ARM GAS  /tmp/cclL2Tth.s 			page 216


 11813      5F7400
 11814              	.LASF103:
 11815 08e9 766C696E 		.ascii	"vline_clip\000"
 11815      655F636C 
 11815      697000
 11816              	.LASF74:
 11817 08f4 436F6E74 		.ascii	"Contrast\000"
 11817      72617374 
 11817      00
 11818              	.LASF134:
 11819 08fd 67646973 		.ascii	"gdispGDrawString\000"
 11819      70474472 
 11819      61775374 
 11819      72696E67 
 11819      00
 11820              	.LASF107:
 11821 090e 64726177 		.ascii	"drawpixel\000"
 11821      70697865 
 11821      6C00
 11822              	.LASF69:
 11823 0918 57696474 		.ascii	"Width\000"
 11823      6800
 11824              	.LASF43:
 11825 091e 68656967 		.ascii	"height\000"
 11825      687400
 11826              	.LASF56:
 11827 0925 47444953 		.ascii	"GDISP_ROTATE_180\000"
 11827      505F524F 
 11827      54415445 
 11827      5F313830 
 11827      00
 11828              	.LASF46:
 11829 0936 62617365 		.ascii	"baseline_x\000"
 11829      6C696E65 
 11829      5F7800
 11830              	.LASF47:
 11831 0941 62617365 		.ascii	"baseline_y\000"
 11831      6C696E65 
 11831      5F7900
 11832              	.LASF36:
 11833 094c 666F6E74 		.ascii	"fontMinWidth\000"
 11833      4D696E57 
 11833      69647468 
 11833      00
 11834              	.LASF130:
 11835 0959 626C6B73 		.ascii	"blks\000"
 11835      00
 11836              	.LASF137:
 11837 095e 67646973 		.ascii	"gdispGFillStringBox\000"
 11837      70474669 
 11837      6C6C5374 
 11837      72696E67 
 11837      426F7800 
 11838              	.LASF166:
 11839 0972 5F676469 		.ascii	"_gdispDeinit\000"
 11839      73704465 
 11839      696E6974 
ARM GAS  /tmp/cclL2Tth.s 			page 217


 11839      00
 11840              		.ident	"GCC: (GNU Tools for ARM Embedded Processors) 4.8.4 20140526 (release) [ARM/embedded-4_8-br
ARM GAS  /tmp/cclL2Tth.s 			page 218


DEFINED SYMBOLS
                            *ABS*:00000000 gdisp.c
     /tmp/cclL2Tth.s:21     .text.drawcharglyph:00000000 $t
     /tmp/cclL2Tth.s:26     .text.drawcharglyph:00000000 drawcharglyph
     /tmp/cclL2Tth.s:68     .text.drawcharglyph:00000020 $d
     /tmp/cclL2Tth.s:300    .text.drawcharline:00000000 drawcharline
     /tmp/cclL2Tth.s:73     .text.fillcharglyph:00000000 $t
     /tmp/cclL2Tth.s:78     .text.fillcharglyph:00000000 fillcharglyph
     /tmp/cclL2Tth.s:119    .text.fillcharglyph:00000020 $d
     /tmp/cclL2Tth.s:124    .text.hline_clip:00000000 $t
     /tmp/cclL2Tth.s:129    .text.hline_clip:00000000 hline_clip
     /tmp/cclL2Tth.s:295    .text.drawcharline:00000000 $t
     /tmp/cclL2Tth.s:394    .text.vline_clip:00000000 $t
     /tmp/cclL2Tth.s:399    .text.vline_clip:00000000 vline_clip
     /tmp/cclL2Tth.s:565    .text._gdispDeinit:00000000 $t
     /tmp/cclL2Tth.s:571    .text._gdispDeinit:00000000 _gdispDeinit
     /tmp/cclL2Tth.s:583    .text.gdispGetDisplay:00000000 $t
     /tmp/cclL2Tth.s:589    .text.gdispGetDisplay:00000000 gdispGetDisplay
     /tmp/cclL2Tth.s:610    .text.gdispGetDisplay:0000000c $d
     /tmp/cclL2Tth.s:615    .text.gdispSetDisplay:00000000 $t
     /tmp/cclL2Tth.s:621    .text.gdispSetDisplay:00000000 gdispSetDisplay
     /tmp/cclL2Tth.s:639    .text.gdispSetDisplay:00000008 $d
     /tmp/cclL2Tth.s:644    .text.gdispGFlush:00000000 $t
     /tmp/cclL2Tth.s:650    .text.gdispGFlush:00000000 gdispGFlush
     /tmp/cclL2Tth.s:663    .text.gdispGDrawPixel:00000000 $t
     /tmp/cclL2Tth.s:669    .text.gdispGDrawPixel:00000000 gdispGDrawPixel
     /tmp/cclL2Tth.s:811    .text.gdispGDrawLine:00000000 $t
     /tmp/cclL2Tth.s:817    .text.gdispGDrawLine:00000000 gdispGDrawLine
     /tmp/cclL2Tth.s:1294   .text.gdispGClear:00000000 $t
     /tmp/cclL2Tth.s:1300   .text.gdispGClear:00000000 gdispGClear
     /tmp/cclL2Tth.s:1336   .text.gdispGFillArea:00000000 $t
     /tmp/cclL2Tth.s:1342   .text.gdispGFillArea:00000000 gdispGFillArea
     /tmp/cclL2Tth.s:1456   .text.gdispGBlitArea:00000000 $t
     /tmp/cclL2Tth.s:1462   .text.gdispGBlitArea:00000000 gdispGBlitArea
     /tmp/cclL2Tth.s:1593   .text.gdispGSetClip:00000000 $t
     /tmp/cclL2Tth.s:1599   .text.gdispGSetClip:00000000 gdispGSetClip
     /tmp/cclL2Tth.s:1699   .text.gdispGControl:00000000 $t
     /tmp/cclL2Tth.s:1705   .text.gdispGControl:00000000 gdispGControl
     /tmp/cclL2Tth.s:1788   .text._gdispInit:00000000 $t
     /tmp/cclL2Tth.s:1794   .text._gdispInit:00000000 _gdispInit
     /tmp/cclL2Tth.s:1978   .text._gdispInit:000000f8 $d
     /tmp/cclL2Tth.s:1986   .text.gdispGDrawBox:00000000 $t
     /tmp/cclL2Tth.s:1992   .text.gdispGDrawBox:00000000 gdispGDrawBox
     /tmp/cclL2Tth.s:2129   .text.gdispGDrawChar:00000000 $t
     /tmp/cclL2Tth.s:2135   .text.gdispGDrawChar:00000000 gdispGDrawChar
     /tmp/cclL2Tth.s:2224   .text.gdispGDrawChar:0000006c $d
     /tmp/cclL2Tth.s:2229   .text.gdispGFillChar:00000000 $t
     /tmp/cclL2Tth.s:2235   .text.gdispGFillChar:00000000 gdispGFillChar
     /tmp/cclL2Tth.s:2413   .text.gdispGFillChar:0000010c $d
     /tmp/cclL2Tth.s:2418   .text.gdispGDrawString:00000000 $t
     /tmp/cclL2Tth.s:2424   .text.gdispGDrawString:00000000 gdispGDrawString
     /tmp/cclL2Tth.s:2515   .text.gdispGDrawString:0000007c $d
     /tmp/cclL2Tth.s:2520   .text.gdispGFillString:00000000 $t
     /tmp/cclL2Tth.s:2526   .text.gdispGFillString:00000000 gdispGFillString
     /tmp/cclL2Tth.s:2716   .text.gdispGFillString:00000120 $d
     /tmp/cclL2Tth.s:2721   .text.gdispGDrawStringBox:00000000 $t
     /tmp/cclL2Tth.s:2727   .text.gdispGDrawStringBox:00000000 gdispGDrawStringBox
ARM GAS  /tmp/cclL2Tth.s 			page 219


     /tmp/cclL2Tth.s:2847   .text.gdispGDrawStringBox:000000a4 $d
     /tmp/cclL2Tth.s:2852   .text.gdispGFillStringBox:00000000 $t
     /tmp/cclL2Tth.s:2858   .text.gdispGFillStringBox:00000000 gdispGFillStringBox
     /tmp/cclL2Tth.s:3091   .text.gdispGFillStringBox:00000150 $d
     /tmp/cclL2Tth.s:3096   .text.gdispGetFontMetric:00000000 $t
     /tmp/cclL2Tth.s:3102   .text.gdispGetFontMetric:00000000 gdispGetFontMetric
     /tmp/cclL2Tth.s:3115   .text.gdispGetFontMetric:00000008 $d
     /tmp/cclL2Tth.s:3121   .text.gdispGetFontMetric:0000000e $t
     /tmp/cclL2Tth.s:3176   .text.gdispGetCharWidth:00000000 $t
     /tmp/cclL2Tth.s:3182   .text.gdispGetCharWidth:00000000 gdispGetCharWidth
     /tmp/cclL2Tth.s:3209   .text.gdispGetStringWidth:00000000 $t
     /tmp/cclL2Tth.s:3215   .text.gdispGetStringWidth:00000000 gdispGetStringWidth
     /tmp/cclL2Tth.s:3246   .text.gdispBlendColor:00000000 $t
     /tmp/cclL2Tth.s:3252   .text.gdispBlendColor:00000000 gdispBlendColor
     /tmp/cclL2Tth.s:3333   .text.gdispContrastColor:00000000 $t
     /tmp/cclL2Tth.s:3339   .text.gdispContrastColor:00000000 gdispContrastColor
     /tmp/cclL2Tth.s:3387   .data.GDISP:00000000 GDISP
     /tmp/cclL2Tth.s:3383   .data.GDISP:00000000 $d
     /tmp/cclL2Tth.s:3464   .bss.GDisplayArray:00000000 GDisplayArray
     /tmp/cclL2Tth.s:3390   .rodata.blks.7089:00000000 $d
     /tmp/cclL2Tth.s:3394   .rodata.blks.7089:00000000 blks.7089
     /tmp/cclL2Tth.s:3460   .bss.GDisplayArray:00000000 $d
                     .debug_frame:00000010 $d
     /tmp/cclL2Tth.s:72     .text.drawcharglyph:00000024 $t
     /tmp/cclL2Tth.s:123    .text.fillcharglyph:00000024 $t
     /tmp/cclL2Tth.s:643    .text.gdispSetDisplay:0000000c $t
     /tmp/cclL2Tth.s:2720   .text.gdispGFillString:00000124 $t
     /tmp/cclL2Tth.s:2851   .text.gdispGDrawStringBox:000000a8 $t
     /tmp/cclL2Tth.s:3095   .text.gdispGFillStringBox:00000154 $t

UNDEFINED SYMBOLS
mf_render_character
gdisp_lld_fill_area
gdisp_lld_write_start
gdisp_lld_write_pos
gdisp_lld_write_color
gdisp_lld_write_stop
gdisp_lld_blit_area
gdisp_lld_control
gdisp_lld_init
gfxSleepMilliseconds
mf_character_width
mf_get_string_width
mf_render_aligned
