ARM GAS  /tmp/ccOGUWYP.s 			page 1


   1              		.syntax unified
   2              		.cpu cortex-m4
   3              		.eabi_attribute 27, 3
   4              		.eabi_attribute 28, 1
   5              		.fpu fpv4-sp-d16
   6              		.eabi_attribute 20, 1
   7              		.eabi_attribute 21, 1
   8              		.eabi_attribute 23, 3
   9              		.eabi_attribute 24, 1
  10              		.eabi_attribute 25, 1
  11              		.eabi_attribute 26, 1
  12              		.eabi_attribute 30, 2
  13              		.eabi_attribute 34, 1
  14              		.eabi_attribute 18, 4
  15              		.thumb
  16              		.file	"gdisp.c"
  17              		.text
  18              	.Ltext0:
  19              		.cfi_sections	.debug_frame
  20              		.section	.text.drawcharglyph,"ax",%progbits
  21              		.align	2
  22              		.p2align 4,,15
  23              		.thumb
  24              		.thumb_func
  25              		.type	drawcharglyph, %function
  26              	drawcharglyph:
  27              	.LFB133:
  28              		.file 1 "/home/makkmarci/devel/ugfx/src/gdisp/gdisp.c"
  29              		.loc 1 2836 0
  30              		.cfi_startproc
  31              		@ args = 0, pretend = 0, frame = 0
  32              		@ frame_needed = 0, uses_anonymous_args = 0
  33              	.LVL0:
  34 0000 70B5     		push	{r4, r5, r6, lr}
  35              		.cfi_def_cfa_offset 16
  36              		.cfi_offset 4, -16
  37              		.cfi_offset 5, -12
  38              		.cfi_offset 6, -8
  39              		.cfi_offset 14, -4
  40 0002 82B0     		sub	sp, sp, #8
  41              		.cfi_def_cfa_offset 24
  42              		.loc 1 2836 0
  43 0004 0646     		mov	r6, r0
  44 0006 0D46     		mov	r5, r1
  45              		.loc 1 2838 0
  46 0008 054C     		ldr	r4, .L2
  47 000a 986C     		ldr	r0, [r3, #72]
  48              	.LVL1:
  49 000c 0193     		str	r3, [sp, #4]
  50 000e 3146     		mov	r1, r6
  51              	.LVL2:
  52              		.loc 1 2836 0
  53 0010 1346     		mov	r3, r2
  54              	.LVL3:
  55              		.loc 1 2838 0
  56 0012 0094     		str	r4, [sp]
  57 0014 2A46     		mov	r2, r5
ARM GAS  /tmp/ccOGUWYP.s 			page 2


  58              	.LVL4:
  59 0016 FFF7FEFF 		bl	mf_render_character
  60              	.LVL5:
  61              		.loc 1 2840 0
  62 001a 02B0     		add	sp, sp, #8
  63              		@ sp needed
  64 001c 70BD     		pop	{r4, r5, r6, pc}
  65              	.L3:
  66 001e 00BF     		.align	2
  67              	.L2:
  68 0020 00000000 		.word	drawcharline
  69              		.cfi_endproc
  70              	.LFE133:
  71              		.size	drawcharglyph, .-drawcharglyph
  72 0024 AFF30080 		.section	.text.fillcharglyph,"ax",%progbits
  72      AFF30080 
  72      AFF30080 
  73              		.align	2
  74              		.p2align 4,,15
  75              		.thumb
  76              		.thumb_func
  77              		.type	fillcharglyph, %function
  78              	fillcharglyph:
  79              	.LFB134:
  80              		.loc 1 2843 0
  81              		.cfi_startproc
  82              		@ args = 0, pretend = 0, frame = 0
  83              		@ frame_needed = 0, uses_anonymous_args = 0
  84              	.LVL6:
  85 0000 70B5     		push	{r4, r5, r6, lr}
  86              		.cfi_def_cfa_offset 16
  87              		.cfi_offset 4, -16
  88              		.cfi_offset 5, -12
  89              		.cfi_offset 6, -8
  90              		.cfi_offset 14, -4
  91 0002 82B0     		sub	sp, sp, #8
  92              		.cfi_def_cfa_offset 24
  93              		.loc 1 2843 0
  94 0004 0646     		mov	r6, r0
  95 0006 0D46     		mov	r5, r1
  96              		.loc 1 2845 0
  97 0008 054C     		ldr	r4, .L5
  98 000a 986C     		ldr	r0, [r3, #72]
  99              	.LVL7:
 100 000c 0193     		str	r3, [sp, #4]
 101 000e 3146     		mov	r1, r6
 102              	.LVL8:
 103              		.loc 1 2843 0
 104 0010 1346     		mov	r3, r2
 105              	.LVL9:
 106              		.loc 1 2845 0
 107 0012 0094     		str	r4, [sp]
 108 0014 2A46     		mov	r2, r5
 109              	.LVL10:
 110 0016 FFF7FEFF 		bl	mf_render_character
 111              	.LVL11:
 112              		.loc 1 2847 0
ARM GAS  /tmp/ccOGUWYP.s 			page 3


 113 001a 02B0     		add	sp, sp, #8
 114              		@ sp needed
 115 001c 70BD     		pop	{r4, r5, r6, pc}
 116              	.L6:
 117 001e 00BF     		.align	2
 118              	.L5:
 119 0020 00000000 		.word	drawcharline
 120              		.cfi_endproc
 121              	.LFE134:
 122              		.size	fillcharglyph, .-fillcharglyph
 123 0024 AFF30080 		.section	.text.hline_clip,"ax",%progbits
 123      AFF30080 
 123      AFF30080 
 124              		.align	2
 125              		.p2align 4,,15
 126              		.thumb
 127              		.thumb_func
 128              		.type	hline_clip, %function
 129              	hline_clip:
 130              	.LFB115:
 131              		.loc 1 267 0
 132              		.cfi_startproc
 133              		@ args = 0, pretend = 0, frame = 0
 134              		@ frame_needed = 0, uses_anonymous_args = 0
 135              	.LVL12:
 136 0000 F8B5     		push	{r3, r4, r5, r6, r7, lr}
 137              		.cfi_def_cfa_offset 24
 138              		.cfi_offset 3, -24
 139              		.cfi_offset 4, -20
 140              		.cfi_offset 5, -16
 141              		.cfi_offset 6, -12
 142              		.cfi_offset 7, -8
 143              		.cfi_offset 14, -4
 144              		.loc 1 269 0
 145 0002 028F     		ldrh	r2, [r0, #56]
 146 0004 038E     		ldrh	r3, [r0, #48]
 147              		.loc 1 267 0
 148 0006 0446     		mov	r4, r0
 149              		.loc 1 269 0
 150 0008 19B2     		sxth	r1, r3
 151 000a 10B2     		sxth	r0, r2
 152              	.LVL13:
 153 000c 8842     		cmp	r0, r1
 154 000e 02DA     		bge	.L8
 155              		.loc 1 270 0
 156 0010 A386     		strh	r3, [r4, #52]	@ movhi
 157 0012 2286     		strh	r2, [r4, #48]	@ movhi
 158 0014 2387     		strh	r3, [r4, #56]	@ movhi
 159              	.L8:
 160              		.loc 1 279 0
 161 0016 658E     		ldrh	r5, [r4, #50]
 162 0018 B4F92A20 		ldrsh	r2, [r4, #42]
 163 001c 2BB2     		sxth	r3, r5
 164 001e 9A42     		cmp	r2, r3
 165 0020 20DC     		bgt	.L7
 166              		.loc 1 279 0 is_stmt 0 discriminator 2
 167 0022 B4F92E20 		ldrsh	r2, [r4, #46]
ARM GAS  /tmp/ccOGUWYP.s 			page 4


 168 0026 9A42     		cmp	r2, r3
 169 0028 1CDD     		ble	.L7
 170              	.LVL14:
 171              	.LBB16:
 172              	.LBB17:
 173              		.loc 1 280 0 is_stmt 1
 174 002a 268E     		ldrh	r6, [r4, #48]
 175 002c 238D     		ldrh	r3, [r4, #40]
 176 002e 31B2     		sxth	r1, r6
 177 0030 1AB2     		sxth	r2, r3
 178 0032 9142     		cmp	r1, r2
 179 0034 02DA     		bge	.L12
 180 0036 1E46     		mov	r6, r3
 181 0038 2386     		strh	r3, [r4, #48]	@ movhi
 182 003a 19B2     		sxth	r1, r3
 183              	.L12:
 184              		.loc 1 281 0
 185 003c 238F     		ldrh	r3, [r4, #56]
 186 003e A08D     		ldrh	r0, [r4, #44]
 187 0040 1AB2     		sxth	r2, r3
 188 0042 07B2     		sxth	r7, r0
 189 0044 BA42     		cmp	r2, r7
 190 0046 0EDA     		bge	.L17
 191              	.L13:
 192              		.loc 1 282 0
 193 0048 9142     		cmp	r1, r2
 194 004a 0BDC     		bgt	.L7
 195              		.loc 1 290 0
 196 004c 10D0     		beq	.L18
 197              		.loc 1 302 0
 198 004e C6F10106 		rsb	r6, r6, #1
 199 0052 3344     		add	r3, r3, r6
 200              		.loc 1 303 0
 201 0054 0122     		movs	r2, #1
 202              		.loc 1 302 0
 203 0056 A386     		strh	r3, [r4, #52]	@ movhi
 204              		.loc 1 303 0
 205 0058 E286     		strh	r2, [r4, #54]	@ movhi
 206              		.loc 1 304 0
 207 005a 2046     		mov	r0, r4
 208              	.LBE17:
 209              	.LBE16:
 210              		.loc 1 351 0
 211 005c BDE8F840 		pop	{r3, r4, r5, r6, r7, lr}
 212              	.LVL15:
 213              	.LBB26:
 214              	.LBB24:
 215              		.loc 1 304 0
 216 0060 FFF7FEBF 		b	gdisp_lld_fill_area
 217              	.LVL16:
 218              	.L7:
 219 0064 F8BD     		pop	{r3, r4, r5, r6, r7, pc}
 220              	.LVL17:
 221              	.L17:
 222              		.loc 1 281 0
 223 0066 431E     		subs	r3, r0, #1
 224 0068 9BB2     		uxth	r3, r3
ARM GAS  /tmp/ccOGUWYP.s 			page 5


 225 006a 2387     		strh	r3, [r4, #56]	@ movhi
 226 006c 1AB2     		sxth	r2, r3
 227 006e EBE7     		b	.L13
 228              	.L18:
 229              	.LVL18:
 230              	.LBB18:
 231              	.LBB19:
 232              		.loc 1 151 0
 233 0070 E38A     		ldrh	r3, [r4, #22]
 234 0072 03F00203 		and	r3, r3, #2
 235 0076 9BB2     		uxth	r3, r3
 236 0078 73B9     		cbnz	r3, .L15
 237              	.LVL19:
 238              	.LBB20:
 239              	.LBB21:
 240              		.loc 1 100 0
 241 007a 2188     		ldrh	r1, [r4]
 242 007c 6288     		ldrh	r2, [r4, #2]
 243              		.loc 1 99 0
 244 007e 6386     		strh	r3, [r4, #50]	@ movhi
 245 0080 2386     		strh	r3, [r4, #48]	@ movhi
 246              		.loc 1 100 0
 247 0082 A186     		strh	r1, [r4, #52]	@ movhi
 248 0084 E286     		strh	r2, [r4, #54]	@ movhi
 249              		.loc 1 101 0
 250 0086 2046     		mov	r0, r4
 251 0088 FFF7FEFF 		bl	gdisp_lld_write_start
 252              	.LVL20:
 253              		.loc 1 103 0
 254 008c E38A     		ldrh	r3, [r4, #22]
 255              		.loc 1 102 0
 256 008e 2686     		strh	r6, [r4, #48]	@ movhi
 257              		.loc 1 103 0
 258 0090 43F00203 		orr	r3, r3, #2
 259              		.loc 1 102 0
 260 0094 6586     		strh	r5, [r4, #50]	@ movhi
 261              		.loc 1 103 0
 262 0096 E382     		strh	r3, [r4, #22]	@ movhi
 263              	.LVL21:
 264              	.L15:
 265              	.LBE21:
 266              	.LBE20:
 267              		.loc 1 153 0
 268 0098 2046     		mov	r0, r4
 269 009a FFF7FEFF 		bl	gdisp_lld_write_pos
 270              	.LVL22:
 271              		.loc 1 154 0
 272 009e 2046     		mov	r0, r4
 273              	.LBE19:
 274              	.LBE18:
 275              	.LBE24:
 276              	.LBE26:
 277              		.loc 1 351 0
 278 00a0 BDE8F840 		pop	{r3, r4, r5, r6, r7, lr}
 279              	.LVL23:
 280              	.LBB27:
 281              	.LBB25:
ARM GAS  /tmp/ccOGUWYP.s 			page 6


 282              	.LBB23:
 283              	.LBB22:
 284              		.loc 1 154 0
 285 00a4 FFF7FEBF 		b	gdisp_lld_write_color
 286              	.LVL24:
 287              	.LBE22:
 288              	.LBE23:
 289              	.LBE25:
 290              	.LBE27:
 291              		.cfi_endproc
 292              	.LFE115:
 293              		.size	hline_clip, .-hline_clip
 294 00a8 AFF30080 		.section	.text.drawcharline,"ax",%progbits
 294      AFF30080 
 295              		.align	2
 296              		.p2align 4,,15
 297              		.thumb
 298              		.thumb_func
 299              		.type	drawcharline, %function
 300              	drawcharline:
 301              	.LFB132:
 302              		.loc 1 2793 0
 303              		.cfi_startproc
 304              		@ args = 4, pretend = 0, frame = 0
 305              		@ frame_needed = 0, uses_anonymous_args = 0
 306              		@ link register save eliminated.
 307              	.LVL25:
 308 0000 F0B4     		push	{r4, r5, r6, r7}
 309              		.cfi_def_cfa_offset 16
 310              		.cfi_offset 4, -16
 311              		.cfi_offset 5, -12
 312              		.cfi_offset 6, -8
 313              		.cfi_offset 7, -4
 314              		.loc 1 2793 0
 315 0002 049C     		ldr	r4, [sp, #16]
 316              		.loc 1 2795 0
 317 0004 B4F95250 		ldrsh	r5, [r4, #82]
 318 0008 8D42     		cmp	r5, r1
 319 000a 2ADC     		bgt	.L19
 320              		.loc 1 2795 0 is_stmt 0 discriminator 1
 321 000c B4F95650 		ldrsh	r5, [r4, #86]
 322 0010 8D42     		cmp	r5, r1
 323 0012 26DD     		ble	.L19
 324              	.LVL26:
 325              	.LBB30:
 326              	.LBB31:
 327              		.loc 1 2795 0
 328 0014 B4F95050 		ldrsh	r5, [r4, #80]
 329 0018 8618     		adds	r6, r0, r2
 330 001a AE42     		cmp	r6, r5
 331 001c 21DD     		ble	.L19
 332 001e B4F854C0 		ldrh	ip, [r4, #84]
 333 0022 0FFA8CF7 		sxth	r7, ip
 334 0026 B842     		cmp	r0, r7
 335 0028 1BDA     		bge	.L19
 336              		.loc 1 2797 0 is_stmt 1
 337 002a A842     		cmp	r0, r5
ARM GAS  /tmp/ccOGUWYP.s 			page 7


 338 002c 05DA     		bge	.L21
 339              		.loc 1 2798 0
 340 002e 521B     		subs	r2, r2, r5
 341              	.LVL27:
 342 0030 50FA82F2 		uxtab	r2, r0, r2
 343 0034 D2B2     		uxtb	r2, r2
 344              	.LVL28:
 345 0036 AE18     		adds	r6, r5, r2
 346 0038 2846     		mov	r0, r5
 347              	.LVL29:
 348              	.L21:
 349              		.loc 1 2801 0
 350 003a B742     		cmp	r7, r6
 351              		.loc 1 2802 0
 352 003c BCBF     		itt	lt
 353 003e C0EB0C02 		rsblt	r2, r0, ip
 354              	.LVL30:
 355 0042 D2B2     		uxtblt	r2, r2
 356              	.LVL31:
 357              		.loc 1 2803 0
 358 0044 802B     		cmp	r3, #128
 359 0046 0CD9     		bls	.L19
 360              		.loc 1 2804 0
 361 0048 431E     		subs	r3, r0, #1
 362              	.LVL32:
 363 004a 1A44     		add	r2, r2, r3
 364              	.LVL33:
 365 004c B4F84C30 		ldrh	r3, [r4, #76]
 366 0050 2086     		strh	r0, [r4, #48]	@ movhi
 367 0052 2287     		strh	r2, [r4, #56]	@ movhi
 368 0054 6186     		strh	r1, [r4, #50]	@ movhi
 369 0056 A4F84030 		strh	r3, [r4, #64]	@ movhi
 370              		.loc 1 2805 0
 371 005a 2046     		mov	r0, r4
 372              	.LVL34:
 373              	.LBE31:
 374              	.LBE30:
 375              		.loc 1 2808 0
 376 005c F0BC     		pop	{r4, r5, r6, r7}
 377              	.LVL35:
 378              	.LBB33:
 379              	.LBB32:
 380              		.loc 1 2805 0
 381 005e FFF7FEBF 		b	hline_clip
 382              	.LVL36:
 383              	.L19:
 384              	.LBE32:
 385              	.LBE33:
 386              		.loc 1 2808 0
 387 0062 F0BC     		pop	{r4, r5, r6, r7}
 388              	.LVL37:
 389 0064 7047     		bx	lr
 390              		.cfi_endproc
 391              	.LFE132:
 392              		.size	drawcharline, .-drawcharline
 393 0066 00BFAFF3 		.section	.text.vline_clip,"ax",%progbits
 393      0080AFF3 
ARM GAS  /tmp/ccOGUWYP.s 			page 8


 393      0080
 394              		.align	2
 395              		.p2align 4,,15
 396              		.thumb
 397              		.thumb_func
 398              		.type	vline_clip, %function
 399              	vline_clip:
 400              	.LFB116:
 401              		.loc 1 355 0
 402              		.cfi_startproc
 403              		@ args = 0, pretend = 0, frame = 0
 404              		@ frame_needed = 0, uses_anonymous_args = 0
 405              	.LVL38:
 406 0000 F8B5     		push	{r3, r4, r5, r6, r7, lr}
 407              		.cfi_def_cfa_offset 24
 408              		.cfi_offset 3, -24
 409              		.cfi_offset 4, -20
 410              		.cfi_offset 5, -16
 411              		.cfi_offset 6, -12
 412              		.cfi_offset 7, -8
 413              		.cfi_offset 14, -4
 414              		.loc 1 357 0
 415 0002 428F     		ldrh	r2, [r0, #58]
 416 0004 438E     		ldrh	r3, [r0, #50]
 417              		.loc 1 355 0
 418 0006 0446     		mov	r4, r0
 419              		.loc 1 357 0
 420 0008 19B2     		sxth	r1, r3
 421 000a 10B2     		sxth	r0, r2
 422              	.LVL39:
 423 000c 8842     		cmp	r0, r1
 424 000e 02DA     		bge	.L24
 425              		.loc 1 358 0
 426 0010 E386     		strh	r3, [r4, #54]	@ movhi
 427 0012 6286     		strh	r2, [r4, #50]	@ movhi
 428 0014 6387     		strh	r3, [r4, #58]	@ movhi
 429              	.L24:
 430              		.loc 1 367 0
 431 0016 258E     		ldrh	r5, [r4, #48]
 432 0018 B4F92820 		ldrsh	r2, [r4, #40]
 433 001c 2BB2     		sxth	r3, r5
 434 001e 9A42     		cmp	r2, r3
 435 0020 20DC     		bgt	.L23
 436              		.loc 1 367 0 is_stmt 0 discriminator 2
 437 0022 B4F92C20 		ldrsh	r2, [r4, #44]
 438 0026 9A42     		cmp	r2, r3
 439 0028 1CDD     		ble	.L23
 440              	.LVL40:
 441              	.LBB40:
 442              	.LBB41:
 443              		.loc 1 368 0 is_stmt 1
 444 002a 668E     		ldrh	r6, [r4, #50]
 445 002c 638D     		ldrh	r3, [r4, #42]
 446 002e 31B2     		sxth	r1, r6
 447 0030 1AB2     		sxth	r2, r3
 448 0032 9142     		cmp	r1, r2
 449 0034 02DA     		bge	.L28
ARM GAS  /tmp/ccOGUWYP.s 			page 9


 450 0036 1E46     		mov	r6, r3
 451 0038 6386     		strh	r3, [r4, #50]	@ movhi
 452 003a 19B2     		sxth	r1, r3
 453              	.L28:
 454              		.loc 1 369 0
 455 003c 638F     		ldrh	r3, [r4, #58]
 456 003e E08D     		ldrh	r0, [r4, #46]
 457 0040 1AB2     		sxth	r2, r3
 458 0042 07B2     		sxth	r7, r0
 459 0044 BA42     		cmp	r2, r7
 460 0046 0EDA     		bge	.L32
 461              	.L29:
 462              		.loc 1 370 0
 463 0048 9142     		cmp	r1, r2
 464 004a 0BDC     		bgt	.L23
 465              		.loc 1 378 0
 466 004c 10D0     		beq	.L33
 467              		.loc 1 390 0
 468 004e C6F10106 		rsb	r6, r6, #1
 469 0052 3344     		add	r3, r3, r6
 470              		.loc 1 391 0
 471 0054 0122     		movs	r2, #1
 472              		.loc 1 390 0
 473 0056 E386     		strh	r3, [r4, #54]	@ movhi
 474              		.loc 1 391 0
 475 0058 A286     		strh	r2, [r4, #52]	@ movhi
 476              		.loc 1 392 0
 477 005a 2046     		mov	r0, r4
 478              	.LBE41:
 479              	.LBE40:
 480              		.loc 1 436 0
 481 005c BDE8F840 		pop	{r3, r4, r5, r6, r7, lr}
 482              	.LVL41:
 483              	.LBB50:
 484              	.LBB48:
 485              		.loc 1 392 0
 486 0060 FFF7FEBF 		b	gdisp_lld_fill_area
 487              	.LVL42:
 488              	.L23:
 489 0064 F8BD     		pop	{r3, r4, r5, r6, r7, pc}
 490              	.LVL43:
 491              	.L32:
 492              		.loc 1 369 0
 493 0066 431E     		subs	r3, r0, #1
 494 0068 9BB2     		uxth	r3, r3
 495 006a 6387     		strh	r3, [r4, #58]	@ movhi
 496 006c 1AB2     		sxth	r2, r3
 497 006e EBE7     		b	.L29
 498              	.L33:
 499              	.LVL44:
 500              	.LBB42:
 501              	.LBB43:
 502              		.loc 1 151 0
 503 0070 E38A     		ldrh	r3, [r4, #22]
 504 0072 03F00203 		and	r3, r3, #2
 505 0076 9BB2     		uxth	r3, r3
 506 0078 73B9     		cbnz	r3, .L31
ARM GAS  /tmp/ccOGUWYP.s 			page 10


 507              	.LVL45:
 508              	.LBB44:
 509              	.LBB45:
 510              		.loc 1 100 0
 511 007a 2188     		ldrh	r1, [r4]
 512 007c 6288     		ldrh	r2, [r4, #2]
 513              		.loc 1 99 0
 514 007e 6386     		strh	r3, [r4, #50]	@ movhi
 515 0080 2386     		strh	r3, [r4, #48]	@ movhi
 516              		.loc 1 100 0
 517 0082 A186     		strh	r1, [r4, #52]	@ movhi
 518 0084 E286     		strh	r2, [r4, #54]	@ movhi
 519              		.loc 1 101 0
 520 0086 2046     		mov	r0, r4
 521 0088 FFF7FEFF 		bl	gdisp_lld_write_start
 522              	.LVL46:
 523              		.loc 1 103 0
 524 008c E38A     		ldrh	r3, [r4, #22]
 525              		.loc 1 102 0
 526 008e 2586     		strh	r5, [r4, #48]	@ movhi
 527              		.loc 1 103 0
 528 0090 43F00203 		orr	r3, r3, #2
 529              		.loc 1 102 0
 530 0094 6686     		strh	r6, [r4, #50]	@ movhi
 531              		.loc 1 103 0
 532 0096 E382     		strh	r3, [r4, #22]	@ movhi
 533              	.LVL47:
 534              	.L31:
 535              	.LBE45:
 536              	.LBE44:
 537              		.loc 1 153 0
 538 0098 2046     		mov	r0, r4
 539 009a FFF7FEFF 		bl	gdisp_lld_write_pos
 540              	.LVL48:
 541              		.loc 1 154 0
 542 009e 2046     		mov	r0, r4
 543              	.LBE43:
 544              	.LBE42:
 545              	.LBE48:
 546              	.LBE50:
 547              		.loc 1 436 0
 548 00a0 BDE8F840 		pop	{r3, r4, r5, r6, r7, lr}
 549              	.LVL49:
 550              	.LBB51:
 551              	.LBB49:
 552              	.LBB47:
 553              	.LBB46:
 554              		.loc 1 154 0
 555 00a4 FFF7FEBF 		b	gdisp_lld_write_color
 556              	.LVL50:
 557              	.LBE46:
 558              	.LBE47:
 559              	.LBE49:
 560              	.LBE51:
 561              		.cfi_endproc
 562              	.LFE116:
 563              		.size	vline_clip, .-vline_clip
ARM GAS  /tmp/ccOGUWYP.s 			page 11


 564 00a8 AFF30080 		.section	.text._gdispDeinit,"ax",%progbits
 564      AFF30080 
 565              		.align	2
 566              		.p2align 4,,15
 567              		.global	_gdispDeinit
 568              		.thumb
 569              		.thumb_func
 570              		.type	_gdispDeinit, %function
 571              	_gdispDeinit:
 572              	.LFB120:
 573              		.loc 1 631 0
 574              		.cfi_startproc
 575              		@ args = 0, pretend = 0, frame = 0
 576              		@ frame_needed = 0, uses_anonymous_args = 0
 577              		@ link register save eliminated.
 578 0000 7047     		bx	lr
 579              		.cfi_endproc
 580              	.LFE120:
 581              		.size	_gdispDeinit, .-_gdispDeinit
 582 0002 00BFAFF3 		.section	.text.gdispGetDisplay,"ax",%progbits
 582      0080AFF3 
 582      0080AFF3 
 582      0080
 583              		.align	2
 584              		.p2align 4,,15
 585              		.global	gdispGetDisplay
 586              		.thumb
 587              		.thumb_func
 588              		.type	gdispGetDisplay, %function
 589              	gdispGetDisplay:
 590              	.LFB121:
 591              		.loc 1 635 0
 592              		.cfi_startproc
 593              		@ args = 0, pretend = 0, frame = 0
 594              		@ frame_needed = 0, uses_anonymous_args = 0
 595              		@ link register save eliminated.
 596              	.LVL51:
 597              		.loc 1 637 0
 598 0000 024B     		ldr	r3, .L38
 599              		.loc 1 636 0
 600 0002 0028     		cmp	r0, #0
 601              		.loc 1 639 0
 602 0004 0CBF     		ite	eq
 603 0006 1846     		moveq	r0, r3
 604 0008 0020     		movne	r0, #0
 605              	.LVL52:
 606 000a 7047     		bx	lr
 607              	.L39:
 608              		.align	2
 609              	.L38:
 610 000c 00000000 		.word	.LANCHOR0
 611              		.cfi_endproc
 612              	.LFE121:
 613              		.size	gdispGetDisplay, .-gdispGetDisplay
 614              		.section	.text.gdispSetDisplay,"ax",%progbits
 615              		.align	2
 616              		.p2align 4,,15
ARM GAS  /tmp/ccOGUWYP.s 			page 12


 617              		.global	gdispSetDisplay
 618              		.thumb
 619              		.thumb_func
 620              		.type	gdispSetDisplay, %function
 621              	gdispSetDisplay:
 622              	.LFB122:
 623              		.loc 1 641 0
 624              		.cfi_startproc
 625              		@ args = 0, pretend = 0, frame = 0
 626              		@ frame_needed = 0, uses_anonymous_args = 0
 627              		@ link register save eliminated.
 628              	.LVL53:
 629              		.loc 1 642 0
 630 0000 08B1     		cbz	r0, .L40
 631              		.loc 1 642 0 is_stmt 0 discriminator 1
 632 0002 014B     		ldr	r3, .L45
 633 0004 1860     		str	r0, [r3]
 634              	.L40:
 635 0006 7047     		bx	lr
 636              	.L46:
 637              		.align	2
 638              	.L45:
 639 0008 00000000 		.word	.LANCHOR1
 640              		.cfi_endproc
 641              	.LFE122:
 642              		.size	gdispSetDisplay, .-gdispSetDisplay
 643 000c AFF30080 		.section	.text.gdispGFlush,"ax",%progbits
 644              		.align	2
 645              		.p2align 4,,15
 646              		.global	gdispGFlush
 647              		.thumb
 648              		.thumb_func
 649              		.type	gdispGFlush, %function
 650              	gdispGFlush:
 651              	.LFB123:
 652              		.loc 1 645 0 is_stmt 1
 653              		.cfi_startproc
 654              		@ args = 0, pretend = 0, frame = 0
 655              		@ frame_needed = 0, uses_anonymous_args = 0
 656              		@ link register save eliminated.
 657              	.LVL54:
 658 0000 7047     		bx	lr
 659              		.cfi_endproc
 660              	.LFE123:
 661              		.size	gdispGFlush, .-gdispGFlush
 662 0002 00BFAFF3 		.section	.text.gdispGDrawPixel,"ax",%progbits
 662      0080AFF3 
 662      0080AFF3 
 662      0080
 663              		.align	2
 664              		.p2align 4,,15
 665              		.global	gdispGDrawPixel
 666              		.thumb
 667              		.thumb_func
 668              		.type	gdispGDrawPixel, %function
 669              	gdispGDrawPixel:
 670              	.LFB124:
ARM GAS  /tmp/ccOGUWYP.s 			page 13


 671              		.loc 1 907 0
 672              		.cfi_startproc
 673              		@ args = 0, pretend = 0, frame = 0
 674              		@ frame_needed = 0, uses_anonymous_args = 0
 675              	.LVL55:
 676              		.loc 1 907 0
 677 0000 F8B5     		push	{r3, r4, r5, r6, r7, lr}
 678              		.cfi_def_cfa_offset 24
 679              		.cfi_offset 3, -24
 680              		.cfi_offset 4, -20
 681              		.cfi_offset 5, -16
 682              		.cfi_offset 6, -12
 683              		.cfi_offset 7, -8
 684              		.cfi_offset 14, -4
 685              		.loc 1 907 0
 686 0002 0446     		mov	r4, r0
 687              		.loc 1 908 0
 688 0004 1830     		adds	r0, r0, #24
 689              	.LVL56:
 690              		.loc 1 907 0
 691 0006 0D46     		mov	r5, r1
 692 0008 1F46     		mov	r7, r3
 693 000a 1646     		mov	r6, r2
 694              		.loc 1 908 0
 695 000c FFF7FEFF 		bl	chMtxLock
 696              	.LVL57:
 697              	.LBB60:
 698              	.LBB61:
 699              		.loc 1 184 0
 700 0010 B4F92830 		ldrsh	r3, [r4, #40]
 701              	.LBE61:
 702              	.LBE60:
 703              		.loc 1 911 0
 704 0014 A4F84070 		strh	r7, [r4, #64]	@ movhi
 705              	.LVL58:
 706              	.LBB73:
 707              	.LBB70:
 708              		.loc 1 184 0
 709 0018 AB42     		cmp	r3, r5
 710              	.LBE70:
 711              	.LBE73:
 712              		.loc 1 909 0
 713 001a 2586     		strh	r5, [r4, #48]	@ movhi
 714              		.loc 1 910 0
 715 001c 6686     		strh	r6, [r4, #50]	@ movhi
 716              	.LBB74:
 717              	.LBB71:
 718              		.loc 1 184 0
 719 001e 0BDC     		bgt	.L49
 720 0020 B4F92C30 		ldrsh	r3, [r4, #44]
 721 0024 AB42     		cmp	r3, r5
 722 0026 07DD     		ble	.L49
 723              	.LVL59:
 724              	.LBB62:
 725              	.LBB63:
 726 0028 B4F92A30 		ldrsh	r3, [r4, #42]
 727 002c B342     		cmp	r3, r6
ARM GAS  /tmp/ccOGUWYP.s 			page 14


 728 002e 03DC     		bgt	.L49
 729 0030 B4F92E30 		ldrsh	r3, [r4, #46]
 730 0034 B342     		cmp	r3, r6
 731 0036 0DDC     		bgt	.L55
 732              	.LVL60:
 733              	.L49:
 734              	.LBE63:
 735              	.LBE62:
 736              	.LBE71:
 737              	.LBE74:
 738              		.loc 1 913 0
 739 0038 E38A     		ldrh	r3, [r4, #22]
 740 003a 9B07     		lsls	r3, r3, #30
 741 003c 06D5     		bpl	.L51
 742              		.loc 1 913 0 is_stmt 0 discriminator 1
 743 003e 2046     		mov	r0, r4
 744 0040 FFF7FEFF 		bl	gdisp_lld_write_stop
 745              	.LVL61:
 746 0044 E38A     		ldrh	r3, [r4, #22]
 747 0046 23F00203 		bic	r3, r3, #2
 748 004a E382     		strh	r3, [r4, #22]	@ movhi
 749              	.L51:
 750              		.loc 1 915 0 is_stmt 1
 751 004c BDE8F840 		pop	{r3, r4, r5, r6, r7, lr}
 752              	.LVL62:
 753              		.loc 1 914 0
 754 0050 FFF7FEBF 		b	chMtxUnlock
 755              	.LVL63:
 756              	.L55:
 757              	.LBB75:
 758              	.LBB72:
 759              	.LBB69:
 760              	.LBB68:
 761              	.LBB64:
 762              	.LBB65:
 763              		.loc 1 151 0
 764 0054 E38A     		ldrh	r3, [r4, #22]
 765 0056 03F00203 		and	r3, r3, #2
 766 005a 9BB2     		uxth	r3, r3
 767 005c 73B9     		cbnz	r3, .L50
 768              	.LVL64:
 769              	.LBB66:
 770              	.LBB67:
 771              		.loc 1 100 0
 772 005e 2188     		ldrh	r1, [r4]
 773 0060 6288     		ldrh	r2, [r4, #2]
 774              		.loc 1 99 0
 775 0062 6386     		strh	r3, [r4, #50]	@ movhi
 776 0064 2386     		strh	r3, [r4, #48]	@ movhi
 777              		.loc 1 100 0
 778 0066 A186     		strh	r1, [r4, #52]	@ movhi
 779 0068 E286     		strh	r2, [r4, #54]	@ movhi
 780              		.loc 1 101 0
 781 006a 2046     		mov	r0, r4
 782 006c FFF7FEFF 		bl	gdisp_lld_write_start
 783              	.LVL65:
 784              		.loc 1 103 0
ARM GAS  /tmp/ccOGUWYP.s 			page 15


 785 0070 E38A     		ldrh	r3, [r4, #22]
 786              		.loc 1 102 0
 787 0072 2586     		strh	r5, [r4, #48]	@ movhi
 788              		.loc 1 103 0
 789 0074 43F00203 		orr	r3, r3, #2
 790              		.loc 1 102 0
 791 0078 6686     		strh	r6, [r4, #50]	@ movhi
 792              		.loc 1 103 0
 793 007a E382     		strh	r3, [r4, #22]	@ movhi
 794              	.LVL66:
 795              	.L50:
 796              	.LBE67:
 797              	.LBE66:
 798              		.loc 1 153 0
 799 007c 2046     		mov	r0, r4
 800 007e FFF7FEFF 		bl	gdisp_lld_write_pos
 801              	.LVL67:
 802              		.loc 1 154 0
 803 0082 2046     		mov	r0, r4
 804 0084 FFF7FEFF 		bl	gdisp_lld_write_color
 805              	.LVL68:
 806 0088 D6E7     		b	.L49
 807              	.LBE65:
 808              	.LBE64:
 809              	.LBE68:
 810              	.LBE69:
 811              	.LBE72:
 812              	.LBE75:
 813              		.cfi_endproc
 814              	.LFE124:
 815              		.size	gdispGDrawPixel, .-gdispGDrawPixel
 816 008a 00BFAFF3 		.section	.text.gdispGDrawLine,"ax",%progbits
 816      0080
 817              		.align	2
 818              		.p2align 4,,15
 819              		.global	gdispGDrawLine
 820              		.thumb
 821              		.thumb_func
 822              		.type	gdispGDrawLine, %function
 823              	gdispGDrawLine:
 824              	.LFB125:
 825              		.loc 1 917 0
 826              		.cfi_startproc
 827              		@ args = 8, pretend = 0, frame = 8
 828              		@ frame_needed = 0, uses_anonymous_args = 0
 829              	.LVL69:
 830 0000 2DE9F04F 		push	{r4, r5, r6, r7, r8, r9, r10, fp, lr}
 831              		.cfi_def_cfa_offset 36
 832              		.cfi_offset 4, -36
 833              		.cfi_offset 5, -32
 834              		.cfi_offset 6, -28
 835              		.cfi_offset 7, -24
 836              		.cfi_offset 8, -20
 837              		.cfi_offset 9, -16
 838              		.cfi_offset 10, -12
 839              		.cfi_offset 11, -8
 840              		.cfi_offset 14, -4
ARM GAS  /tmp/ccOGUWYP.s 			page 16


 841 0004 83B0     		sub	sp, sp, #12
 842              		.cfi_def_cfa_offset 48
 843              		.loc 1 917 0
 844 0006 0446     		mov	r4, r0
 845 0008 BDF93060 		ldrsh	r6, [sp, #48]
 846 000c BDF83490 		ldrh	r9, [sp, #52]
 847 0010 1746     		mov	r7, r2
 848              		.loc 1 918 0
 849 0012 1830     		adds	r0, r0, #24
 850              	.LVL70:
 851              		.loc 1 917 0
 852 0014 0D46     		mov	r5, r1
 853 0016 9846     		mov	r8, r3
 854              		.loc 1 918 0
 855 0018 FFF7FEFF 		bl	chMtxLock
 856              	.LVL71:
 857              	.LBB94:
 858              	.LBB95:
 859              		.loc 1 446 0
 860 001c B742     		cmp	r7, r6
 861              	.LBE95:
 862              	.LBE94:
 863              		.loc 1 923 0
 864 001e A4F84090 		strh	r9, [r4, #64]	@ movhi
 865              	.LVL72:
 866              		.loc 1 919 0
 867 0022 2586     		strh	r5, [r4, #48]	@ movhi
 868              		.loc 1 920 0
 869 0024 6786     		strh	r7, [r4, #50]	@ movhi
 870              		.loc 1 921 0
 871 0026 A4F83880 		strh	r8, [r4, #56]	@ movhi
 872              		.loc 1 922 0
 873 002a 6687     		strh	r6, [r4, #58]	@ movhi
 874              	.LBB122:
 875              	.LBB120:
 876              		.loc 1 446 0
 877 002c 00F0F580 		beq	.L81
 878              		.loc 1 452 0
 879 0030 4545     		cmp	r5, r8
 880 0032 00F0F680 		beq	.L82
 881              		.loc 1 465 0
 882 0036 5ADD     		ble	.L83
 883              		.loc 1 469 0
 884 0038 C8EB0508 		rsb	r8, r8, r5
 885              		.loc 1 472 0
 886 003c B742     		cmp	r7, r6
 887              		.loc 1 469 0
 888 003e 1FFA88F3 		uxth	r3, r8
 889              	.LVL73:
 890              		.loc 1 470 0
 891 0042 4FF6FF79 		movw	r9, #65535
 892              	.LVL74:
 893              		.loc 1 472 0
 894 0046 5ADC     		bgt	.L62
 895              	.LVL75:
 896              	.L86:
 897              		.loc 1 473 0
ARM GAS  /tmp/ccOGUWYP.s 			page 17


 898 0048 F61B     		subs	r6, r6, r7
 899 004a B6B2     		uxth	r6, r6
 900              	.LVL76:
 901              		.loc 1 480 0
 902 004c 0FFA83F8 		sxth	r8, r3
 903 0050 0FFA86FB 		sxth	fp, r6
 904 0054 D845     		cmp	r8, fp
 905              		.loc 1 474 0
 906 0056 4FF0010A 		mov	r10, #1
 907              	.LVL77:
 908              		.loc 1 480 0
 909 005a 5ADB     		blt	.L64
 910              	.LVL78:
 911              	.L87:
 912              		.loc 1 481 0
 913 005c 4FEA4B0B 		lsl	fp, fp, #1
 914              		.loc 1 482 0
 915 0060 1FFA8BF2 		uxth	r2, fp
 916 0064 9BB2     		uxth	r3, r3
 917 0066 D61A     		subs	r6, r2, r3
 918 0068 B6B2     		uxth	r6, r6
 919              		.loc 1 483 0
 920 006a F31A     		subs	r3, r6, r3
 921              		.loc 1 485 0
 922 006c B8F1000F 		cmp	r8, #0
 923              		.loc 1 483 0
 924 0070 1FFA83FB 		uxth	fp, r3
 925              		.loc 1 482 0
 926 0074 B6B2     		uxth	r6, r6
 927              	.LVL79:
 928              		.loc 1 485 0
 929 0076 2BDB     		blt	.L58
 930 0078 0027     		movs	r7, #0
 931 007a 0BE0     		b	.L71
 932              	.LVL80:
 933              	.L68:
 934              		.loc 1 493 0
 935 007c 638E     		ldrh	r3, [r4, #50]
 936 007e 0137     		adds	r7, r7, #1
 937              	.LVL81:
 938 0080 5344     		add	r3, r3, r10
 939 0082 6386     		strh	r3, [r4, #50]	@ movhi
 940              		.loc 1 485 0
 941 0084 3BB2     		sxth	r3, r7
 942              		.loc 1 491 0
 943 0086 5E44     		add	r6, r6, fp
 944              	.LVL82:
 945              		.loc 1 492 0
 946 0088 4D44     		add	r5, r5, r9
 947              		.loc 1 485 0
 948 008a 9845     		cmp	r8, r3
 949              		.loc 1 491 0
 950 008c B6B2     		uxth	r6, r6
 951              	.LVL83:
 952              		.loc 1 492 0
 953 008e 2586     		strh	r5, [r4, #48]	@ movhi
 954              		.loc 1 485 0
ARM GAS  /tmp/ccOGUWYP.s 			page 18


 955 0090 1EDB     		blt	.L58
 956              	.LVL84:
 957              	.L85:
 958 0092 258E     		ldrh	r5, [r4, #48]
 959              	.LVL85:
 960              	.L71:
 961              	.LBB96:
 962              	.LBB97:
 963              		.loc 1 184 0
 964 0094 B4F92810 		ldrsh	r1, [r4, #40]
 965 0098 2BB2     		sxth	r3, r5
 966 009a 9942     		cmp	r1, r3
 967 009c 0EDC     		bgt	.L66
 968 009e B4F92C10 		ldrsh	r1, [r4, #44]
 969 00a2 9942     		cmp	r1, r3
 970 00a4 0ADD     		ble	.L66
 971              	.LVL86:
 972              	.LBB98:
 973              	.LBB99:
 974 00a6 618E     		ldrh	r1, [r4, #50]
 975 00a8 B4F92A00 		ldrsh	r0, [r4, #42]
 976 00ac 0BB2     		sxth	r3, r1
 977 00ae 9842     		cmp	r0, r3
 978 00b0 04DC     		bgt	.L66
 979 00b2 B4F92E00 		ldrsh	r0, [r4, #46]
 980 00b6 9842     		cmp	r0, r3
 981 00b8 00F38B80 		bgt	.L84
 982              	.LVL87:
 983              	.L66:
 984              	.LBE99:
 985              	.LBE98:
 986              	.LBE97:
 987              	.LBE96:
 988              		.loc 1 487 0
 989 00bc 3004     		lsls	r0, r6, #16
 990 00be DDD5     		bpl	.L68
 991 00c0 0137     		adds	r7, r7, #1
 992              	.LVL88:
 993              		.loc 1 485 0
 994 00c2 3BB2     		sxth	r3, r7
 995              		.loc 1 488 0
 996 00c4 1644     		add	r6, r6, r2
 997              	.LVL89:
 998              		.loc 1 489 0
 999 00c6 4D44     		add	r5, r5, r9
 1000              		.loc 1 485 0
 1001 00c8 9845     		cmp	r8, r3
 1002              		.loc 1 488 0
 1003 00ca B6B2     		uxth	r6, r6
 1004              	.LVL90:
 1005              		.loc 1 489 0
 1006 00cc 2586     		strh	r5, [r4, #48]	@ movhi
 1007              	.LVL91:
 1008              		.loc 1 485 0
 1009 00ce E0DA     		bge	.L85
 1010              	.LVL92:
 1011              	.L58:
ARM GAS  /tmp/ccOGUWYP.s 			page 19


 1012              	.LBE120:
 1013              	.LBE122:
 1014              		.loc 1 925 0
 1015 00d0 E38A     		ldrh	r3, [r4, #22]
 1016 00d2 9B07     		lsls	r3, r3, #30
 1017 00d4 06D5     		bpl	.L77
 1018              		.loc 1 925 0 is_stmt 0 discriminator 1
 1019 00d6 2046     		mov	r0, r4
 1020 00d8 FFF7FEFF 		bl	gdisp_lld_write_stop
 1021              	.LVL93:
 1022 00dc E38A     		ldrh	r3, [r4, #22]
 1023 00de 23F00203 		bic	r3, r3, #2
 1024 00e2 E382     		strh	r3, [r4, #22]	@ movhi
 1025              	.L77:
 1026              		.loc 1 927 0 is_stmt 1
 1027 00e4 03B0     		add	sp, sp, #12
 1028              		@ sp needed
 1029 00e6 BDE8F04F 		pop	{r4, r5, r6, r7, r8, r9, r10, fp, lr}
 1030              	.LVL94:
 1031              		.loc 1 926 0
 1032 00ea FFF7FEBF 		b	chMtxUnlock
 1033              	.LVL95:
 1034              	.L83:
 1035              	.LBB123:
 1036              	.LBB121:
 1037              		.loc 1 466 0
 1038 00ee C5EB0808 		rsb	r8, r5, r8
 1039              		.loc 1 472 0
 1040 00f2 B742     		cmp	r7, r6
 1041              		.loc 1 466 0
 1042 00f4 1FFA88F3 		uxth	r3, r8
 1043              	.LVL96:
 1044              		.loc 1 467 0
 1045 00f8 4FF00109 		mov	r9, #1
 1046              	.LVL97:
 1047              		.loc 1 472 0
 1048 00fc A4DD     		ble	.L86
 1049              	.LVL98:
 1050              	.L62:
 1051              		.loc 1 476 0
 1052 00fe BE1B     		subs	r6, r7, r6
 1053 0100 B6B2     		uxth	r6, r6
 1054              	.LVL99:
 1055              		.loc 1 480 0
 1056 0102 0FFA83F8 		sxth	r8, r3
 1057 0106 0FFA86FB 		sxth	fp, r6
 1058 010a D845     		cmp	r8, fp
 1059              		.loc 1 477 0
 1060 010c 4FF6FF7A 		movw	r10, #65535
 1061              	.LVL100:
 1062              		.loc 1 480 0
 1063 0110 A4DA     		bge	.L87
 1064              	.LVL101:
 1065              	.L64:
 1066              		.loc 1 497 0
 1067 0112 4FEA4802 		lsl	r2, r8, #1
 1068              		.loc 1 498 0
ARM GAS  /tmp/ccOGUWYP.s 			page 20


 1069 0116 B6B2     		uxth	r6, r6
 1070 0118 92B2     		uxth	r2, r2
 1071 011a 931B     		subs	r3, r2, r6
 1072 011c 9BB2     		uxth	r3, r3
 1073              		.loc 1 499 0
 1074 011e 9E1B     		subs	r6, r3, r6
 1075              		.loc 1 501 0
 1076 0120 BBF1000F 		cmp	fp, #0
 1077              		.loc 1 499 0
 1078 0124 1FFA86FC 		uxth	ip, r6
 1079              		.loc 1 498 0
 1080 0128 9EB2     		uxth	r6, r3
 1081              	.LVL102:
 1082              		.loc 1 501 0
 1083 012a D1DB     		blt	.L58
 1084 012c B846     		mov	r8, r7
 1085 012e 0027     		movs	r7, #0
 1086 0130 0EE0     		b	.L76
 1087              	.LVL103:
 1088              	.L74:
 1089              		.loc 1 508 0
 1090 0132 238E     		ldrh	r3, [r4, #48]
 1091              		.loc 1 507 0
 1092 0134 6644     		add	r6, r6, ip
 1093              	.LVL104:
 1094              		.loc 1 509 0
 1095 0136 D044     		add	r8, r8, r10
 1096              		.loc 1 508 0
 1097 0138 4B44     		add	r3, r3, r9
 1098              		.loc 1 507 0
 1099 013a B6B2     		uxth	r6, r6
 1100              	.LVL105:
 1101              		.loc 1 509 0
 1102 013c A4F83280 		strh	r8, [r4, #50]	@ movhi
 1103              		.loc 1 508 0
 1104 0140 2386     		strh	r3, [r4, #48]	@ movhi
 1105              	.LVL106:
 1106              	.L75:
 1107 0142 0137     		adds	r7, r7, #1
 1108              	.LVL107:
 1109              		.loc 1 501 0
 1110 0144 3BB2     		sxth	r3, r7
 1111 0146 9B45     		cmp	fp, r3
 1112 0148 C2DB     		blt	.L58
 1113 014a 258E     		ldrh	r5, [r4, #48]
 1114 014c B4F83280 		ldrh	r8, [r4, #50]
 1115              	.LVL108:
 1116              	.L76:
 1117              	.LBB107:
 1118              	.LBB108:
 1119              		.loc 1 184 0
 1120 0150 B4F92810 		ldrsh	r1, [r4, #40]
 1121 0154 2BB2     		sxth	r3, r5
 1122 0156 9942     		cmp	r1, r3
 1123 0158 0DDC     		bgt	.L72
 1124 015a B4F92C10 		ldrsh	r1, [r4, #44]
 1125 015e 9942     		cmp	r1, r3
ARM GAS  /tmp/ccOGUWYP.s 			page 21


 1126 0160 09DD     		ble	.L72
 1127              	.LVL109:
 1128              	.LBB109:
 1129              	.LBB110:
 1130 0162 B4F92A10 		ldrsh	r1, [r4, #42]
 1131 0166 0FFA88F3 		sxth	r3, r8
 1132 016a 9942     		cmp	r1, r3
 1133 016c 03DC     		bgt	.L72
 1134 016e B4F92E10 		ldrsh	r1, [r4, #46]
 1135 0172 9942     		cmp	r1, r3
 1136 0174 07DC     		bgt	.L88
 1137              	.LVL110:
 1138              	.L72:
 1139              	.LBE110:
 1140              	.LBE109:
 1141              	.LBE108:
 1142              	.LBE107:
 1143              		.loc 1 503 0
 1144 0176 3104     		lsls	r1, r6, #16
 1145 0178 DBD5     		bpl	.L74
 1146              		.loc 1 504 0
 1147 017a 1644     		add	r6, r6, r2
 1148              	.LVL111:
 1149              		.loc 1 505 0
 1150 017c D044     		add	r8, r8, r10
 1151              		.loc 1 504 0
 1152 017e B6B2     		uxth	r6, r6
 1153              	.LVL112:
 1154              		.loc 1 505 0
 1155 0180 A4F83280 		strh	r8, [r4, #50]	@ movhi
 1156 0184 DDE7     		b	.L75
 1157              	.LVL113:
 1158              	.L88:
 1159              	.LBB118:
 1160              	.LBB117:
 1161              	.LBB116:
 1162              	.LBB115:
 1163              	.LBB111:
 1164              	.LBB112:
 1165              		.loc 1 151 0
 1166 0186 E38A     		ldrh	r3, [r4, #22]
 1167 0188 03F00203 		and	r3, r3, #2
 1168 018c 9BB2     		uxth	r3, r3
 1169 018e 9BB9     		cbnz	r3, .L73
 1170              	.LVL114:
 1171              	.LBB113:
 1172              	.LBB114:
 1173              		.loc 1 100 0
 1174 0190 2088     		ldrh	r0, [r4]
 1175 0192 6188     		ldrh	r1, [r4, #2]
 1176              		.loc 1 99 0
 1177 0194 6386     		strh	r3, [r4, #50]	@ movhi
 1178 0196 2386     		strh	r3, [r4, #48]	@ movhi
 1179              		.loc 1 100 0
 1180 0198 A086     		strh	r0, [r4, #52]	@ movhi
 1181 019a E186     		strh	r1, [r4, #54]	@ movhi
 1182              		.loc 1 101 0
ARM GAS  /tmp/ccOGUWYP.s 			page 22


 1183 019c 2046     		mov	r0, r4
 1184 019e 8DE80410 		stmia	sp, {r2, ip}
 1185 01a2 FFF7FEFF 		bl	gdisp_lld_write_start
 1186              	.LVL115:
 1187              		.loc 1 103 0
 1188 01a6 E38A     		ldrh	r3, [r4, #22]
 1189              		.loc 1 102 0
 1190 01a8 2586     		strh	r5, [r4, #48]	@ movhi
 1191              		.loc 1 103 0
 1192 01aa 9DE80410 		ldmia	sp, {r2, ip}
 1193 01ae 43F00203 		orr	r3, r3, #2
 1194              		.loc 1 102 0
 1195 01b2 A4F83280 		strh	r8, [r4, #50]	@ movhi
 1196              		.loc 1 103 0
 1197 01b6 E382     		strh	r3, [r4, #22]	@ movhi
 1198              	.LVL116:
 1199              	.L73:
 1200              	.LBE114:
 1201              	.LBE113:
 1202              		.loc 1 153 0
 1203 01b8 2046     		mov	r0, r4
 1204 01ba 8DE80410 		stmia	sp, {r2, ip}
 1205 01be FFF7FEFF 		bl	gdisp_lld_write_pos
 1206              	.LVL117:
 1207              		.loc 1 154 0
 1208 01c2 2046     		mov	r0, r4
 1209 01c4 FFF7FEFF 		bl	gdisp_lld_write_color
 1210              	.LVL118:
 1211 01c8 B4F83280 		ldrh	r8, [r4, #50]
 1212 01cc 9DE80410 		ldmia	sp, {r2, ip}
 1213 01d0 D1E7     		b	.L72
 1214              	.LVL119:
 1215              	.L84:
 1216              	.LBE112:
 1217              	.LBE111:
 1218              	.LBE115:
 1219              	.LBE116:
 1220              	.LBE117:
 1221              	.LBE118:
 1222              	.LBB119:
 1223              	.LBB106:
 1224              	.LBB105:
 1225              	.LBB104:
 1226              	.LBB100:
 1227              	.LBB101:
 1228              		.loc 1 151 0
 1229 01d2 E38A     		ldrh	r3, [r4, #22]
 1230 01d4 03F00203 		and	r3, r3, #2
 1231 01d8 9BB2     		uxth	r3, r3
 1232 01da A3B9     		cbnz	r3, .L67
 1233              	.LVL120:
 1234              	.LBB102:
 1235              	.LBB103:
 1236              		.loc 1 100 0
 1237 01dc 6088     		ldrh	r0, [r4, #2]
 1238 01de B4F800E0 		ldrh	lr, [r4]
 1239              		.loc 1 99 0
ARM GAS  /tmp/ccOGUWYP.s 			page 23


 1240 01e2 6386     		strh	r3, [r4, #50]	@ movhi
 1241 01e4 2386     		strh	r3, [r4, #48]	@ movhi
 1242              		.loc 1 100 0
 1243 01e6 E086     		strh	r0, [r4, #54]	@ movhi
 1244 01e8 A4F834E0 		strh	lr, [r4, #52]	@ movhi
 1245              		.loc 1 101 0
 1246 01ec 2046     		mov	r0, r4
 1247 01ee 0191     		str	r1, [sp, #4]
 1248 01f0 0092     		str	r2, [sp]
 1249 01f2 FFF7FEFF 		bl	gdisp_lld_write_start
 1250              	.LVL121:
 1251              		.loc 1 103 0
 1252 01f6 E38A     		ldrh	r3, [r4, #22]
 1253              		.loc 1 102 0
 1254 01f8 0199     		ldr	r1, [sp, #4]
 1255              		.loc 1 103 0
 1256 01fa 009A     		ldr	r2, [sp]
 1257              		.loc 1 102 0
 1258 01fc 2586     		strh	r5, [r4, #48]	@ movhi
 1259              		.loc 1 103 0
 1260 01fe 43F00203 		orr	r3, r3, #2
 1261              		.loc 1 102 0
 1262 0202 6186     		strh	r1, [r4, #50]	@ movhi
 1263              		.loc 1 103 0
 1264 0204 E382     		strh	r3, [r4, #22]	@ movhi
 1265              	.LVL122:
 1266              	.L67:
 1267              	.LBE103:
 1268              	.LBE102:
 1269              		.loc 1 153 0
 1270 0206 2046     		mov	r0, r4
 1271 0208 0092     		str	r2, [sp]
 1272 020a FFF7FEFF 		bl	gdisp_lld_write_pos
 1273              	.LVL123:
 1274              		.loc 1 154 0
 1275 020e 2046     		mov	r0, r4
 1276 0210 FFF7FEFF 		bl	gdisp_lld_write_color
 1277              	.LVL124:
 1278 0214 258E     		ldrh	r5, [r4, #48]
 1279 0216 009A     		ldr	r2, [sp]
 1280 0218 50E7     		b	.L66
 1281              	.LVL125:
 1282              	.L81:
 1283              	.LBE101:
 1284              	.LBE100:
 1285              	.LBE104:
 1286              	.LBE105:
 1287              	.LBE106:
 1288              	.LBE119:
 1289              		.loc 1 447 0
 1290 021a 2046     		mov	r0, r4
 1291 021c FFF7FEFF 		bl	hline_clip
 1292              	.LVL126:
 1293 0220 56E7     		b	.L58
 1294              	.L82:
 1295              		.loc 1 453 0
 1296 0222 2046     		mov	r0, r4
ARM GAS  /tmp/ccOGUWYP.s 			page 24


 1297 0224 FFF7FEFF 		bl	vline_clip
 1298              	.LVL127:
 1299 0228 52E7     		b	.L58
 1300              	.LBE121:
 1301              	.LBE123:
 1302              		.cfi_endproc
 1303              	.LFE125:
 1304              		.size	gdispGDrawLine, .-gdispGDrawLine
 1305 022a 00BFAFF3 		.section	.text.gdispGClear,"ax",%progbits
 1305      0080
 1306              		.align	2
 1307              		.p2align 4,,15
 1308              		.global	gdispGClear
 1309              		.thumb
 1310              		.thumb_func
 1311              		.type	gdispGClear, %function
 1312              	gdispGClear:
 1313              	.LFB126:
 1314              		.loc 1 929 0
 1315              		.cfi_startproc
 1316              		@ args = 0, pretend = 0, frame = 0
 1317              		@ frame_needed = 0, uses_anonymous_args = 0
 1318              	.LVL128:
 1319 0000 38B5     		push	{r3, r4, r5, lr}
 1320              		.cfi_def_cfa_offset 16
 1321              		.cfi_offset 3, -16
 1322              		.cfi_offset 4, -12
 1323              		.cfi_offset 5, -8
 1324              		.cfi_offset 14, -4
 1325              		.loc 1 929 0
 1326 0002 0446     		mov	r4, r0
 1327              		.loc 1 931 0
 1328 0004 1830     		adds	r0, r0, #24
 1329              	.LVL129:
 1330              		.loc 1 929 0
 1331 0006 0D46     		mov	r5, r1
 1332              		.loc 1 931 0
 1333 0008 FFF7FEFF 		bl	chMtxLock
 1334              	.LVL130:
 1335              		.loc 1 953 0
 1336 000c 0023     		movs	r3, #0
 1337              		.loc 1 954 0
 1338 000e 2188     		ldrh	r1, [r4]
 1339              		.loc 1 955 0
 1340 0010 6288     		ldrh	r2, [r4, #2]
 1341              		.loc 1 956 0
 1342 0012 A4F84050 		strh	r5, [r4, #64]	@ movhi
 1343              		.loc 1 954 0
 1344 0016 A186     		strh	r1, [r4, #52]	@ movhi
 1345              		.loc 1 955 0
 1346 0018 E286     		strh	r2, [r4, #54]	@ movhi
 1347              		.loc 1 953 0
 1348 001a 6386     		strh	r3, [r4, #50]	@ movhi
 1349 001c 2386     		strh	r3, [r4, #48]	@ movhi
 1350              		.loc 1 957 0
 1351 001e 2046     		mov	r0, r4
 1352 0020 FFF7FEFF 		bl	gdisp_lld_fill_area
ARM GAS  /tmp/ccOGUWYP.s 			page 25


 1353              	.LVL131:
 1354              		.loc 1 1010 0
 1355 0024 BDE83840 		pop	{r3, r4, r5, lr}
 1356              	.LVL132:
 1357              		.loc 1 959 0
 1358 0028 FFF7FEBF 		b	chMtxUnlock
 1359              	.LVL133:
 1360              		.cfi_endproc
 1361              	.LFE126:
 1362              		.size	gdispGClear, .-gdispGClear
 1363 002c AFF30080 		.section	.text.gdispGFillArea,"ax",%progbits
 1364              		.align	2
 1365              		.p2align 4,,15
 1366              		.global	gdispGFillArea
 1367              		.thumb
 1368              		.thumb_func
 1369              		.type	gdispGFillArea, %function
 1370              	gdispGFillArea:
 1371              	.LFB127:
 1372              		.loc 1 1012 0
 1373              		.cfi_startproc
 1374              		@ args = 8, pretend = 0, frame = 0
 1375              		@ frame_needed = 0, uses_anonymous_args = 0
 1376              	.LVL134:
 1377 0000 2DE9F047 		push	{r4, r5, r6, r7, r8, r9, r10, lr}
 1378              		.cfi_def_cfa_offset 32
 1379              		.cfi_offset 4, -32
 1380              		.cfi_offset 5, -28
 1381              		.cfi_offset 6, -24
 1382              		.cfi_offset 7, -20
 1383              		.cfi_offset 8, -16
 1384              		.cfi_offset 9, -12
 1385              		.cfi_offset 10, -8
 1386              		.cfi_offset 14, -4
 1387              		.loc 1 1012 0
 1388 0004 0446     		mov	r4, r0
 1389              		.loc 1 1013 0
 1390 0006 1830     		adds	r0, r0, #24
 1391              	.LVL135:
 1392              		.loc 1 1012 0
 1393 0008 0E46     		mov	r6, r1
 1394 000a 1746     		mov	r7, r2
 1395 000c 9946     		mov	r9, r3
 1396 000e BDF92080 		ldrsh	r8, [sp, #32]
 1397 0012 BDF824A0 		ldrh	r10, [sp, #36]
 1398              		.loc 1 1013 0
 1399 0016 FFF7FEFF 		bl	chMtxLock
 1400              	.LVL136:
 1401              		.loc 1 1019 0
 1402 001a 258D     		ldrh	r5, [r4, #40]
 1403              		.loc 1 1018 0
 1404 001c A4F840A0 		strh	r10, [r4, #64]	@ movhi
 1405              		.loc 1 1019 0
 1406 0020 29B2     		sxth	r1, r5
 1407 0022 8E42     		cmp	r6, r1
 1408              		.loc 1 1014 0
 1409 0024 2686     		strh	r6, [r4, #48]	@ movhi
ARM GAS  /tmp/ccOGUWYP.s 			page 26


 1410              		.loc 1 1015 0
 1411 0026 6786     		strh	r7, [r4, #50]	@ movhi
 1412              		.loc 1 1016 0
 1413 0028 A4F83490 		strh	r9, [r4, #52]	@ movhi
 1414              		.loc 1 1017 0
 1415 002c A4F83680 		strh	r8, [r4, #54]	@ movhi
 1416              		.loc 1 1019 0
 1417 0030 34DA     		bge	.L96
 1418              		.loc 1 1019 0 is_stmt 0 discriminator 1
 1419 0032 C5EB0909 		rsb	r9, r5, r9
 1420 0036 4E44     		add	r6, r6, r9
 1421 0038 B3B2     		uxth	r3, r6
 1422 003a A386     		strh	r3, [r4, #52]	@ movhi
 1423 003c 2586     		strh	r5, [r4, #48]	@ movhi
 1424              	.L91:
 1425              		.loc 1 1019 0 discriminator 2
 1426 003e 608D     		ldrh	r0, [r4, #42]
 1427 0040 02B2     		sxth	r2, r0
 1428 0042 9742     		cmp	r7, r2
 1429 0044 27DA     		bge	.L97
 1430              		.loc 1 1019 0 discriminator 1
 1431 0046 C0EB0808 		rsb	r8, r0, r8
 1432 004a B844     		add	r8, r8, r7
 1433 004c 1FFA88F8 		uxth	r8, r8
 1434 0050 A4F83680 		strh	r8, [r4, #54]	@ movhi
 1435 0054 6086     		strh	r0, [r4, #50]	@ movhi
 1436              	.L92:
 1437              		.loc 1 1019 0 discriminator 2
 1438 0056 A68D     		ldrh	r6, [r4, #44]
 1439 0058 1BB2     		sxth	r3, r3
 1440 005a 1944     		add	r1, r1, r3
 1441 005c 37B2     		sxth	r7, r6
 1442 005e B942     		cmp	r1, r7
 1443 0060 03DD     		ble	.L93
 1444              		.loc 1 1019 0 discriminator 1
 1445 0062 751B     		subs	r5, r6, r5
 1446 0064 ABB2     		uxth	r3, r5
 1447 0066 A386     		strh	r3, [r4, #52]	@ movhi
 1448 0068 1BB2     		sxth	r3, r3
 1449              	.L93:
 1450              		.loc 1 1019 0 discriminator 2
 1451 006a E18D     		ldrh	r1, [r4, #46]
 1452 006c 02FA88F8 		sxtah	r8, r2, r8
 1453 0070 0DB2     		sxth	r5, r1
 1454 0072 A845     		cmp	r8, r5
 1455 0074 C4BF     		itt	gt
 1456 0076 C0EB0100 		rsbgt	r0, r0, r1
 1457 007a E086     		strhgt	r0, [r4, #54]	@ movhi
 1458 007c 002B     		cmp	r3, #0
 1459 007e 06DD     		ble	.L95
 1460              		.loc 1 1019 0 discriminator 1
 1461 0080 B4F93630 		ldrsh	r3, [r4, #54]
 1462 0084 002B     		cmp	r3, #0
 1463 0086 02DD     		ble	.L95
 1464              	.LVL137:
 1465              	.LBB124:
 1466              	.LBB125:
ARM GAS  /tmp/ccOGUWYP.s 			page 27


 1467              		.loc 1 206 0 is_stmt 1
 1468 0088 2046     		mov	r0, r4
 1469 008a FFF7FEFF 		bl	gdisp_lld_fill_area
 1470              	.LVL138:
 1471              	.L95:
 1472              	.LBE125:
 1473              	.LBE124:
 1474              		.loc 1 1024 0
 1475 008e BDE8F047 		pop	{r4, r5, r6, r7, r8, r9, r10, lr}
 1476              	.LVL139:
 1477              		.loc 1 1023 0
 1478 0092 FFF7FEBF 		b	chMtxUnlock
 1479              	.LVL140:
 1480              	.L97:
 1481 0096 3846     		mov	r0, r7
 1482 0098 3AB2     		sxth	r2, r7
 1483 009a DCE7     		b	.L92
 1484              	.L96:
 1485 009c 3546     		mov	r5, r6
 1486 009e 4B46     		mov	r3, r9
 1487 00a0 31B2     		sxth	r1, r6
 1488 00a2 CCE7     		b	.L91
 1489              		.cfi_endproc
 1490              	.LFE127:
 1491              		.size	gdispGFillArea, .-gdispGFillArea
 1492 00a4 AFF30080 		.section	.text.gdispGBlitArea,"ax",%progbits
 1492      AFF30080 
 1492      AFF30080 
 1493              		.align	2
 1494              		.p2align 4,,15
 1495              		.global	gdispGBlitArea
 1496              		.thumb
 1497              		.thumb_func
 1498              		.type	gdispGBlitArea, %function
 1499              	gdispGBlitArea:
 1500              	.LFB128:
 1501              		.loc 1 1026 0
 1502              		.cfi_startproc
 1503              		@ args = 20, pretend = 0, frame = 8
 1504              		@ frame_needed = 0, uses_anonymous_args = 0
 1505              	.LVL141:
 1506 0000 2DE9F04F 		push	{r4, r5, r6, r7, r8, r9, r10, fp, lr}
 1507              		.cfi_def_cfa_offset 36
 1508              		.cfi_offset 4, -36
 1509              		.cfi_offset 5, -32
 1510              		.cfi_offset 6, -28
 1511              		.cfi_offset 7, -24
 1512              		.cfi_offset 8, -20
 1513              		.cfi_offset 9, -16
 1514              		.cfi_offset 10, -12
 1515              		.cfi_offset 11, -8
 1516              		.cfi_offset 14, -4
 1517 0004 83B0     		sub	sp, sp, #12
 1518              		.cfi_def_cfa_offset 48
 1519              		.loc 1 1026 0
 1520 0006 0446     		mov	r4, r0
 1521 0008 1D46     		mov	r5, r3
ARM GAS  /tmp/ccOGUWYP.s 			page 28


 1522              		.loc 1 1027 0
 1523 000a 1830     		adds	r0, r0, #24
 1524              	.LVL142:
 1525              		.loc 1 1026 0
 1526 000c 109B     		ldr	r3, [sp, #64]
 1527              	.LVL143:
 1528 000e 0193     		str	r3, [sp, #4]
 1529 0010 0E46     		mov	r6, r1
 1530 0012 1746     		mov	r7, r2
 1531 0014 BDF93080 		ldrsh	r8, [sp, #48]
 1532 0018 BDF93490 		ldrsh	r9, [sp, #52]
 1533 001c BDF938B0 		ldrsh	fp, [sp, #56]
 1534 0020 BDF93CA0 		ldrsh	r10, [sp, #60]
 1535              		.loc 1 1027 0
 1536 0024 FFF7FEFF 		bl	chMtxLock
 1537              	.LVL144:
 1538              		.loc 1 1035 0
 1539 0028 B4F92830 		ldrsh	r3, [r4, #40]
 1540 002c B342     		cmp	r3, r6
 1541 002e 0ADD     		ble	.L99
 1542              		.loc 1 1035 0 is_stmt 0 discriminator 1
 1543 0030 99B2     		uxth	r1, r3
 1544 0032 B6B2     		uxth	r6, r6
 1545 0034 8944     		add	r9, r9, r1
 1546 0036 6D1A     		subs	r5, r5, r1
 1547 0038 3544     		add	r5, r5, r6
 1548 003a C6EB0906 		rsb	r6, r6, r9
 1549 003e 0FFA86F9 		sxth	r9, r6
 1550 0042 2DB2     		sxth	r5, r5
 1551              	.LVL145:
 1552 0044 1E46     		mov	r6, r3
 1553              	.LVL146:
 1554              	.L99:
 1555              		.loc 1 1036 0 is_stmt 1
 1556 0046 B4F92A30 		ldrsh	r3, [r4, #42]
 1557 004a BB42     		cmp	r3, r7
 1558 004c 0BDD     		ble	.L100
 1559              		.loc 1 1036 0 is_stmt 0 discriminator 1
 1560 004e 99B2     		uxth	r1, r3
 1561 0050 01EB0B02 		add	r2, r1, fp
 1562 0054 C1EB0808 		rsb	r8, r1, r8
 1563 0058 B844     		add	r8, r8, r7
 1564 005a 921B     		subs	r2, r2, r6
 1565 005c 0FFA88F8 		sxth	r8, r8
 1566              	.LVL147:
 1567 0060 0FFA82FB 		sxth	fp, r2
 1568              	.LVL148:
 1569 0064 1F46     		mov	r7, r3
 1570              	.LVL149:
 1571              	.L100:
 1572              		.loc 1 1037 0 is_stmt 1
 1573 0066 A38D     		ldrh	r3, [r4, #44]
 1574 0068 7019     		adds	r0, r6, r5
 1575 006a 19B2     		sxth	r1, r3
 1576 006c 8842     		cmp	r0, r1
 1577 006e C8BF     		it	gt
 1578 0070 C6EB0305 		rsbgt	r5, r6, r3
ARM GAS  /tmp/ccOGUWYP.s 			page 29


 1579              	.LVL150:
 1580              		.loc 1 1038 0
 1581 0074 E38D     		ldrh	r3, [r4, #46]
 1582 0076 07EB0800 		add	r0, r7, r8
 1583 007a 19B2     		sxth	r1, r3
 1584              		.loc 1 1037 0
 1585 007c C8BF     		it	gt
 1586 007e 2DB2     		sxthgt	r5, r5
 1587              	.LVL151:
 1588              		.loc 1 1038 0
 1589 0080 8842     		cmp	r0, r1
 1590 0082 C8BF     		it	gt
 1591 0084 C7EB0308 		rsbgt	r8, r7, r3
 1592              	.LVL152:
 1593              		.loc 1 1039 0
 1594 0088 09EB0503 		add	r3, r9, r5
 1595              		.loc 1 1038 0
 1596 008c C8BF     		it	gt
 1597 008e 0FFA88F8 		sxthgt	r8, r8
 1598              	.LVL153:
 1599              		.loc 1 1039 0
 1600 0092 5345     		cmp	r3, r10
 1601 0094 C4BF     		itt	gt
 1602 0096 C9EB0A05 		rsbgt	r5, r9, r10
 1603              	.LVL154:
 1604 009a 2DB2     		sxthgt	r5, r5
 1605              	.LVL155:
 1606              		.loc 1 1040 0
 1607 009c 002D     		cmp	r5, #0
 1608 009e 12DD     		ble	.L106
 1609              		.loc 1 1040 0 is_stmt 0 discriminator 2
 1610 00a0 B8F1000F 		cmp	r8, #0
 1611 00a4 0FDD     		ble	.L106
 1612              		.loc 1 1057 0 is_stmt 1
 1613 00a6 019B     		ldr	r3, [sp, #4]
 1614              		.loc 1 1050 0
 1615 00a8 2686     		strh	r6, [r4, #48]	@ movhi
 1616              		.loc 1 1051 0
 1617 00aa 6786     		strh	r7, [r4, #50]	@ movhi
 1618              		.loc 1 1052 0
 1619 00ac A586     		strh	r5, [r4, #52]	@ movhi
 1620              		.loc 1 1053 0
 1621 00ae A4F83680 		strh	r8, [r4, #54]	@ movhi
 1622              		.loc 1 1054 0
 1623 00b2 A4F83890 		strh	r9, [r4, #56]	@ movhi
 1624              		.loc 1 1055 0
 1625 00b6 A4F83AB0 		strh	fp, [r4, #58]	@ movhi
 1626              		.loc 1 1056 0
 1627 00ba A4F83CA0 		strh	r10, [r4, #60]	@ movhi
 1628              		.loc 1 1057 0
 1629 00be 6364     		str	r3, [r4, #68]
 1630              		.loc 1 1058 0
 1631 00c0 2046     		mov	r0, r4
 1632 00c2 FFF7FEFF 		bl	gdisp_lld_blit_area
 1633              	.LVL156:
 1634              	.L106:
 1635              		.loc 1 1160 0
ARM GAS  /tmp/ccOGUWYP.s 			page 30


 1636 00c6 03B0     		add	sp, sp, #12
 1637              		@ sp needed
 1638 00c8 BDE8F04F 		pop	{r4, r5, r6, r7, r8, r9, r10, fp, lr}
 1639              	.LVL157:
 1640              		.loc 1 1060 0
 1641 00cc FFF7FEBF 		b	chMtxUnlock
 1642              	.LVL158:
 1643              		.cfi_endproc
 1644              	.LFE128:
 1645              		.size	gdispGBlitArea, .-gdispGBlitArea
 1646              		.section	.text.gdispGSetClip,"ax",%progbits
 1647              		.align	2
 1648              		.p2align 4,,15
 1649              		.global	gdispGSetClip
 1650              		.thumb
 1651              		.thumb_func
 1652              		.type	gdispGSetClip, %function
 1653              	gdispGSetClip:
 1654              	.LFB129:
 1655              		.loc 1 1163 0
 1656              		.cfi_startproc
 1657              		@ args = 4, pretend = 0, frame = 0
 1658              		@ frame_needed = 0, uses_anonymous_args = 0
 1659              	.LVL159:
 1660 0000 2DE9F843 		push	{r3, r4, r5, r6, r7, r8, r9, lr}
 1661              		.cfi_def_cfa_offset 32
 1662              		.cfi_offset 3, -32
 1663              		.cfi_offset 4, -28
 1664              		.cfi_offset 5, -24
 1665              		.cfi_offset 6, -20
 1666              		.cfi_offset 7, -16
 1667              		.cfi_offset 8, -12
 1668              		.cfi_offset 9, -8
 1669              		.cfi_offset 14, -4
 1670              		.loc 1 1163 0
 1671 0004 0D46     		mov	r5, r1
 1672 0006 0446     		mov	r4, r0
 1673              		.loc 1 1164 0
 1674 0008 1830     		adds	r0, r0, #24
 1675              	.LVL160:
 1676              		.loc 1 1163 0
 1677 000a 1646     		mov	r6, r2
 1678 000c 1F46     		mov	r7, r3
 1679 000e BDF92080 		ldrsh	r8, [sp, #32]
 1680              		.loc 1 1164 0
 1681 0012 FFF7FEFF 		bl	chMtxLock
 1682              	.LVL161:
 1683              		.loc 1 1186 0
 1684 0016 002D     		cmp	r5, #0
 1685 0018 2ADB     		blt	.L118
 1686              	.LVL162:
 1687              	.L108:
 1688              		.loc 1 1187 0
 1689 001a 002E     		cmp	r6, #0
 1690 001c 23DB     		blt	.L119
 1691              	.LVL163:
 1692              	.L109:
ARM GAS  /tmp/ccOGUWYP.s 			page 31


 1693              		.loc 1 1188 0
 1694 001e 002F     		cmp	r7, #0
 1695 0020 1DDD     		ble	.L111
 1696              		.loc 1 1188 0 is_stmt 0 discriminator 2
 1697 0022 B8F1000F 		cmp	r8, #0
 1698 0026 1ADD     		ble	.L111
 1699              		.loc 1 1188 0 discriminator 1
 1700 0028 2388     		ldrh	r3, [r4]
 1701 002a 1AB2     		sxth	r2, r3
 1702 002c 9542     		cmp	r5, r2
 1703 002e 16DA     		bge	.L111
 1704 0030 6188     		ldrh	r1, [r4, #2]
 1705 0032 08B2     		sxth	r0, r1
 1706 0034 8642     		cmp	r6, r0
 1707 0036 12DA     		bge	.L111
 1708              		.loc 1 1191 0 is_stmt 1
 1709 0038 2F44     		add	r7, r7, r5
 1710              	.LVL164:
 1711              		.loc 1 1192 0
 1712 003a B044     		add	r8, r8, r6
 1713              	.LVL165:
 1714              		.loc 1 1191 0
 1715 003c BFB2     		uxth	r7, r7
 1716              		.loc 1 1192 0
 1717 003e 1FFA88F8 		uxth	r8, r8
 1718              		.loc 1 1191 0
 1719 0042 0FFA87F9 		sxth	r9, r7
 1720              		.loc 1 1192 0
 1721 0046 0FFA88FC 		sxth	ip, r8
 1722              		.loc 1 1191 0
 1723 004a 4A45     		cmp	r2, r9
 1724 004c A8BF     		it	ge
 1725 004e 3B46     		movge	r3, r7
 1726              		.loc 1 1192 0
 1727 0050 6045     		cmp	r0, ip
 1728 0052 A8BF     		it	ge
 1729 0054 4146     		movge	r1, r8
 1730              		.loc 1 1189 0
 1731 0056 2585     		strh	r5, [r4, #40]	@ movhi
 1732              		.loc 1 1190 0
 1733 0058 6685     		strh	r6, [r4, #42]	@ movhi
 1734              		.loc 1 1191 0
 1735 005a A385     		strh	r3, [r4, #44]	@ movhi
 1736              		.loc 1 1192 0
 1737 005c E185     		strh	r1, [r4, #46]	@ movhi
 1738              	.L111:
 1739              		.loc 1 1196 0 discriminator 1
 1740 005e BDE8F843 		pop	{r3, r4, r5, r6, r7, r8, r9, lr}
 1741              	.LVL166:
 1742              		.loc 1 1188 0 discriminator 1
 1743 0062 FFF7FEBF 		b	chMtxUnlock
 1744              	.LVL167:
 1745              	.L119:
 1746              		.loc 1 1187 0 discriminator 1
 1747 0066 B044     		add	r8, r8, r6
 1748 0068 0FFA88F8 		sxth	r8, r8
 1749              	.LVL168:
ARM GAS  /tmp/ccOGUWYP.s 			page 32


 1750 006c 0026     		movs	r6, #0
 1751 006e D6E7     		b	.L109
 1752              	.LVL169:
 1753              	.L118:
 1754              		.loc 1 1186 0 discriminator 1
 1755 0070 2F44     		add	r7, r7, r5
 1756 0072 3FB2     		sxth	r7, r7
 1757              	.LVL170:
 1758 0074 0025     		movs	r5, #0
 1759 0076 D0E7     		b	.L108
 1760              		.cfi_endproc
 1761              	.LFE129:
 1762              		.size	gdispGSetClip, .-gdispGSetClip
 1763 0078 AFF30080 		.section	.text.gdispGControl,"ax",%progbits
 1763      AFF30080 
 1764              		.align	2
 1765              		.p2align 4,,15
 1766              		.global	gdispGControl
 1767              		.thumb
 1768              		.thumb_func
 1769              		.type	gdispGControl, %function
 1770              	gdispGControl:
 1771              	.LFB130:
 1772              		.loc 1 2353 0
 1773              		.cfi_startproc
 1774              		@ args = 0, pretend = 0, frame = 0
 1775              		@ frame_needed = 0, uses_anonymous_args = 0
 1776              	.LVL171:
 1777 0000 70B5     		push	{r4, r5, r6, lr}
 1778              		.cfi_def_cfa_offset 16
 1779              		.cfi_offset 4, -16
 1780              		.cfi_offset 5, -12
 1781              		.cfi_offset 6, -8
 1782              		.cfi_offset 14, -4
 1783              		.loc 1 2353 0
 1784 0002 0446     		mov	r4, r0
 1785 0004 0D46     		mov	r5, r1
 1786              		.loc 1 2358 0
 1787 0006 1830     		adds	r0, r0, #24
 1788              	.LVL172:
 1789              		.loc 1 2353 0
 1790 0008 1646     		mov	r6, r2
 1791              		.loc 1 2358 0
 1792 000a FFF7FEFF 		bl	chMtxLock
 1793              	.LVL173:
 1794              		.loc 1 2361 0
 1795 000e 012D     		cmp	r5, #1
 1796              		.loc 1 2359 0
 1797 0010 2586     		strh	r5, [r4, #48]	@ movhi
 1798              		.loc 1 2360 0
 1799 0012 6664     		str	r6, [r4, #68]
 1800              		.loc 1 2361 0
 1801 0014 06D0     		beq	.L130
 1802              		.loc 1 2373 0
 1803 0016 2046     		mov	r0, r4
 1804 0018 FFF7FEFF 		bl	gdisp_lld_control
 1805              	.LVL174:
ARM GAS  /tmp/ccOGUWYP.s 			page 33


 1806              		.loc 1 2405 0
 1807 001c BDE87040 		pop	{r4, r5, r6, lr}
 1808              	.LVL175:
 1809              		.loc 1 2404 0
 1810 0020 FFF7FEBF 		b	chMtxUnlock
 1811              	.LVL176:
 1812              	.L130:
 1813              		.loc 1 2362 0
 1814 0024 B6B2     		uxth	r6, r6
 1815              	.LVL177:
 1816 0026 B6F57A7F 		cmp	r6, #1000
 1817 002a 1AD0     		beq	.L123
 1818 002c 40F2E933 		movw	r3, #1001
 1819 0030 9E42     		cmp	r6, r3
 1820 0032 08D1     		bne	.L122
 1821              		.loc 1 2364 0
 1822 0034 B4F90020 		ldrsh	r2, [r4]
 1823 0038 B4F90230 		ldrsh	r3, [r4, #2]
 1824 003c 9A42     		cmp	r2, r3
 1825 003e B4BF     		ite	lt
 1826 0040 5A23     		movlt	r3, #90
 1827 0042 0023     		movge	r3, #0
 1828 0044 6364     		str	r3, [r4, #68]
 1829              	.LVL178:
 1830              	.L122:
 1831              		.loc 1 2373 0
 1832 0046 2046     		mov	r0, r4
 1833 0048 FFF7FEFF 		bl	gdisp_lld_control
 1834              	.LVL179:
 1835              		.loc 1 2396 0
 1836 004c 0023     		movs	r3, #0
 1837              		.loc 1 2398 0
 1838 004e 2188     		ldrh	r1, [r4]
 1839              		.loc 1 2399 0
 1840 0050 6288     		ldrh	r2, [r4, #2]
 1841              		.loc 1 2396 0
 1842 0052 2385     		strh	r3, [r4, #40]	@ movhi
 1843              		.loc 1 2397 0
 1844 0054 6385     		strh	r3, [r4, #42]	@ movhi
 1845              		.loc 1 2398 0
 1846 0056 A185     		strh	r1, [r4, #44]	@ movhi
 1847              		.loc 1 2399 0
 1848 0058 E285     		strh	r2, [r4, #46]	@ movhi
 1849              		.loc 1 2405 0
 1850 005a BDE87040 		pop	{r4, r5, r6, lr}
 1851              	.LVL180:
 1852              		.loc 1 2404 0
 1853 005e FFF7FEBF 		b	chMtxUnlock
 1854              	.LVL181:
 1855              	.L123:
 1856              		.loc 1 2367 0
 1857 0062 B4F90020 		ldrsh	r2, [r4]
 1858 0066 B4F90230 		ldrsh	r3, [r4, #2]
 1859 006a 9A42     		cmp	r2, r3
 1860 006c ACBF     		ite	ge
 1861 006e 5A23     		movge	r3, #90
 1862 0070 0023     		movlt	r3, #0
ARM GAS  /tmp/ccOGUWYP.s 			page 34


 1863 0072 6364     		str	r3, [r4, #68]
 1864              	.LVL182:
 1865              		.loc 1 2368 0
 1866 0074 E7E7     		b	.L122
 1867              		.cfi_endproc
 1868              	.LFE130:
 1869              		.size	gdispGControl, .-gdispGControl
 1870 0076 00BFAFF3 		.section	.text._gdispInit,"ax",%progbits
 1870      0080AFF3 
 1870      0080
 1871              		.align	2
 1872              		.p2align 4,,15
 1873              		.global	_gdispInit
 1874              		.thumb
 1875              		.thumb_func
 1876              		.type	_gdispInit, %function
 1877              	_gdispInit:
 1878              	.LFB119:
 1879              		.loc 1 570 0
 1880              		.cfi_startproc
 1881              		@ args = 0, pretend = 0, frame = 0
 1882              		@ frame_needed = 0, uses_anonymous_args = 0
 1883              	.LVL183:
 1884 0000 2DE9F043 		push	{r4, r5, r6, r7, r8, r9, lr}
 1885              		.cfi_def_cfa_offset 28
 1886              		.cfi_offset 4, -28
 1887              		.cfi_offset 5, -24
 1888              		.cfi_offset 6, -20
 1889              		.cfi_offset 7, -16
 1890              		.cfi_offset 8, -12
 1891              		.cfi_offset 9, -8
 1892              		.cfi_offset 14, -4
 1893              		.loc 1 585 0
 1894 0004 394C     		ldr	r4, .L138
 1895 0006 0025     		movs	r5, #0
 1896              		.loc 1 570 0
 1897 0008 83B0     		sub	sp, sp, #12
 1898              		.cfi_def_cfa_offset 40
 1899              		.loc 1 588 0
 1900 000a 04F11800 		add	r0, r4, #24
 1901              		.loc 1 585 0
 1902 000e 2575     		strb	r5, [r4, #20]
 1903              		.loc 1 586 0
 1904 0010 6575     		strb	r5, [r4, #21]
 1905              		.loc 1 588 0
 1906 0012 FFF7FEFF 		bl	chMtxInit
 1907              	.LVL184:
 1908              		.loc 1 589 0
 1909 0016 04F11800 		add	r0, r4, #24
 1910 001a FFF7FEFF 		bl	chMtxLock
 1911              	.LVL185:
 1912              		.loc 1 590 0
 1913 001e E582     		strh	r5, [r4, #22]	@ movhi
 1914              		.loc 1 591 0
 1915 0020 2046     		mov	r0, r4
 1916 0022 FFF7FEFF 		bl	gdisp_lld_init
 1917              	.LVL186:
ARM GAS  /tmp/ccOGUWYP.s 			page 35


 1918              		.loc 1 592 0
 1919 0026 FFF7FEFF 		bl	chMtxUnlock
 1920              	.LVL187:
 1921              		.loc 1 598 0
 1922 002a 2046     		mov	r0, r4
 1923 002c 0121     		movs	r1, #1
 1924 002e 5A22     		movs	r2, #90
 1925 0030 FFF7FEFF 		bl	gdispGControl
 1926              	.LVL188:
 1927              		.loc 1 601 0
 1928 0034 B4F90220 		ldrsh	r2, [r4, #2]
 1929 0038 B4F90030 		ldrsh	r3, [r4]
 1930 003c 0092     		str	r2, [sp]
 1931 003e 2946     		mov	r1, r5
 1932 0040 2A46     		mov	r2, r5
 1933 0042 2046     		mov	r0, r4
 1934 0044 FFF7FEFF 		bl	gdispGSetClip
 1935              	.LVL189:
 1936              		.loc 1 603 0
 1937 0048 2946     		mov	r1, r5
 1938 004a 2046     		mov	r0, r4
 1939 004c FFF7FEFF 		bl	gdispGClear
 1940              	.LVL190:
 1941              	.LBB128:
 1942              	.LBB129:
 1943              		.loc 1 544 0
 1944 0050 B4F90080 		ldrsh	r8, [r4]
 1945 0054 B8F1000F 		cmp	r8, #0
 1946 0058 4546     		mov	r5, r8
 1947 005a B8BF     		it	lt
 1948 005c 08F13F05 		addlt	r5, r8, #63
 1949 0060 C5F38F15 		ubfx	r5, r5, #6, #16
 1950              	.LVL191:
 1951              		.loc 1 545 0
 1952 0064 002D     		cmp	r5, #0
 1953 0066 37D1     		bne	.L137
 1954 0068 0125     		movs	r5, #1
 1955              	.LVL192:
 1956 006a 6FF00F09 		mvn	r9, #15
 1957 006e 6FF01F01 		mvn	r1, #31
 1958              	.L133:
 1959              	.LVL193:
 1960              		.loc 1 547 0
 1961 0072 B4F90220 		ldrsh	r2, [r4, #2]
 1962              		.loc 1 550 0
 1963 0076 1E4C     		ldr	r4, .L138+4
 1964              		.loc 1 547 0
 1965 0078 9144     		add	r9, r9, r2
 1966              	.LVL194:
 1967              		.loc 1 546 0
 1968 007a 8844     		add	r8, r8, r1
 1969              		.loc 1 547 0
 1970 007c 09EBD979 		add	r9, r9, r9, lsr #31
 1971              		.loc 1 546 0
 1972 0080 08EBD878 		add	r8, r8, r8, lsr #31
 1973 0084 C9F34F09 		ubfx	r9, r9, #1, #16
 1974 0088 C8F34F08 		ubfx	r8, r8, #1, #16
ARM GAS  /tmp/ccOGUWYP.s 			page 36


 1975 008c 04F18007 		add	r7, r4, #128
 1976              		.loc 1 551 0
 1977 0090 1F26     		movs	r6, #31
 1978              	.LVL195:
 1979              	.L135:
 1980 0092 E088     		ldrh	r0, [r4, #6]
 1981 0094 2188     		ldrh	r1, [r4]
 1982 0096 6288     		ldrh	r2, [r4, #2]
 1983 0098 A388     		ldrh	r3, [r4, #4]
 1984 009a 0196     		str	r6, [sp, #4]
 1985 009c 00FB05F0 		mul	r0, r0, r5
 1986 00a0 00B2     		sxth	r0, r0
 1987 00a2 05FB0181 		mla	r1, r5, r1, r8
 1988 00a6 05FB0292 		mla	r2, r5, r2, r9
 1989 00aa 03FB05F3 		mul	r3, r3, r5
 1990 00ae 0090     		str	r0, [sp]
 1991 00b0 09B2     		sxth	r1, r1
 1992 00b2 12B2     		sxth	r2, r2
 1993 00b4 1BB2     		sxth	r3, r3
 1994              		.loc 1 550 0
 1995 00b6 0834     		adds	r4, r4, #8
 1996              	.LVL196:
 1997              		.loc 1 551 0
 1998 00b8 0C48     		ldr	r0, .L138
 1999 00ba FFF7FEFF 		bl	gdispGFillArea
 2000              	.LVL197:
 2001              		.loc 1 550 0
 2002 00be BC42     		cmp	r4, r7
 2003 00c0 E7D3     		bcc	.L135
 2004              	.LVL198:
 2005              	.LBE129:
 2006              	.LBE128:
 2007              		.loc 1 614 0 discriminator 2
 2008 00c2 4FF47A70 		mov	r0, #1000
 2009 00c6 FFF7FEFF 		bl	gfxSleepMilliseconds
 2010              	.LVL199:
 2011              		.loc 1 616 0 discriminator 2
 2012 00ca 0848     		ldr	r0, .L138
 2013 00cc 0021     		movs	r1, #0
 2014              		.loc 1 628 0 discriminator 2
 2015 00ce 03B0     		add	sp, sp, #12
 2016              		@ sp needed
 2017 00d0 BDE8F043 		pop	{r4, r5, r6, r7, r8, r9, lr}
 2018              	.LVL200:
 2019              		.loc 1 616 0 discriminator 2
 2020 00d4 FFF7FEBF 		b	gdispGClear
 2021              	.LVL201:
 2022              	.L137:
 2023 00d8 2BB2     		sxth	r3, r5
 2024 00da C3EBC361 		rsb	r1, r3, r3, lsl #27
 2025 00de C3EB0373 		rsb	r3, r3, r3, lsl #28
 2026 00e2 ADB2     		uxth	r5, r5
 2027              	.LVL202:
 2028 00e4 4901     		lsls	r1, r1, #5
 2029 00e6 4FEA0319 		lsl	r9, r3, #4
 2030 00ea C2E7     		b	.L133
 2031              	.L139:
ARM GAS  /tmp/ccOGUWYP.s 			page 37


 2032              		.align	2
 2033              	.L138:
 2034 00ec 00000000 		.word	.LANCHOR0
 2035 00f0 00000000 		.word	.LANCHOR2
 2036              		.cfi_endproc
 2037              	.LFE119:
 2038              		.size	_gdispInit, .-_gdispInit
 2039 00f4 AFF30080 		.section	.text.gdispGDrawBox,"ax",%progbits
 2039      AFF30080 
 2039      AFF30080 
 2040              		.align	2
 2041              		.p2align 4,,15
 2042              		.global	gdispGDrawBox
 2043              		.thumb
 2044              		.thumb_func
 2045              		.type	gdispGDrawBox, %function
 2046              	gdispGDrawBox:
 2047              	.LFB131:
 2048              		.loc 1 2443 0
 2049              		.cfi_startproc
 2050              		@ args = 8, pretend = 0, frame = 0
 2051              		@ frame_needed = 0, uses_anonymous_args = 0
 2052              	.LVL203:
 2053 0000 2DE9F84F 		push	{r3, r4, r5, r6, r7, r8, r9, r10, fp, lr}
 2054              		.cfi_def_cfa_offset 40
 2055              		.cfi_offset 3, -40
 2056              		.cfi_offset 4, -36
 2057              		.cfi_offset 5, -32
 2058              		.cfi_offset 6, -28
 2059              		.cfi_offset 7, -24
 2060              		.cfi_offset 8, -20
 2061              		.cfi_offset 9, -16
 2062              		.cfi_offset 10, -12
 2063              		.cfi_offset 11, -8
 2064              		.cfi_offset 14, -4
 2065              		.loc 1 2444 0
 2066 0004 002B     		cmp	r3, #0
 2067              	.LVL204:
 2068              		.loc 1 2443 0
 2069 0006 1646     		mov	r6, r2
 2070 0008 0446     		mov	r4, r0
 2071 000a 0D46     		mov	r5, r1
 2072 000c BDF92820 		ldrsh	r2, [sp, #40]
 2073              	.LVL205:
 2074 0010 BDF82C80 		ldrh	r8, [sp, #44]
 2075              		.loc 1 2444 0
 2076 0014 4BDD     		ble	.L140
 2077              		.loc 1 2444 0 is_stmt 0 discriminator 2
 2078 0016 002A     		cmp	r2, #0
 2079 0018 49DD     		ble	.L140
 2080              		.loc 1 2445 0 is_stmt 1
 2081 001a 4F1E     		subs	r7, r1, #1
 2082 001c 1F44     		add	r7, r7, r3
 2083 001e 1FFA86F9 		uxth	r9, r6
 2084 0022 4A44     		add	r2, r2, r9
 2085 0024 3FB2     		sxth	r7, r7
 2086              	.LVL206:
ARM GAS  /tmp/ccOGUWYP.s 			page 38


 2087              		.loc 1 2447 0
 2088 0026 1830     		adds	r0, r0, #24
 2089              	.LVL207:
 2090              		.loc 1 2445 0
 2091 0028 1FFA82FA 		uxth	r10, r2
 2092              		.loc 1 2447 0
 2093 002c FFF7FEFF 		bl	chMtxLock
 2094              	.LVL208:
 2095              		.loc 1 2451 0
 2096 0030 7B1B     		subs	r3, r7, r5
 2097              		.loc 1 2445 0
 2098 0032 0AF1FF3B 		add	fp, r10, #-1
 2099              		.loc 1 2451 0
 2100 0036 022B     		cmp	r3, #2
 2101              		.loc 1 2445 0
 2102 0038 0FFA8BFB 		sxth	fp, fp
 2103              	.LVL209:
 2104              		.loc 1 2449 0
 2105 003c A4F84080 		strh	r8, [r4, #64]	@ movhi
 2106              		.loc 1 2452 0
 2107 0040 2586     		strh	r5, [r4, #48]	@ movhi
 2108 0042 6686     		strh	r6, [r4, #50]	@ movhi
 2109              		.loc 1 2451 0
 2110 0044 17DD     		ble	.L142
 2111              		.loc 1 2452 0
 2112 0046 2787     		strh	r7, [r4, #56]	@ movhi
 2113 0048 2046     		mov	r0, r4
 2114 004a FFF7FEFF 		bl	hline_clip
 2115              	.LVL210:
 2116              		.loc 1 2453 0
 2117 004e 5E45     		cmp	r6, fp
 2118 0050 0AD0     		beq	.L144
 2119              		.loc 1 2454 0
 2120 0052 2586     		strh	r5, [r4, #48]	@ movhi
 2121 0054 A4F832B0 		strh	fp, [r4, #50]	@ movhi
 2122 0058 2787     		strh	r7, [r4, #56]	@ movhi
 2123 005a 2046     		mov	r0, r4
 2124              		.loc 1 2455 0
 2125 005c C6EB0B06 		rsb	r6, r6, fp
 2126              		.loc 1 2454 0
 2127 0060 FFF7FEFF 		bl	hline_clip
 2128              	.LVL211:
 2129              		.loc 1 2455 0
 2130 0064 022E     		cmp	r6, #2
 2131 0066 24DC     		bgt	.L150
 2132              	.LVL212:
 2133              	.L144:
 2134              		.loc 1 2468 0
 2135 0068 E38A     		ldrh	r3, [r4, #22]
 2136 006a 9B07     		lsls	r3, r3, #30
 2137 006c 14D4     		bmi	.L151
 2138              	.L146:
 2139              		.loc 1 2470 0
 2140 006e BDE8F84F 		pop	{r3, r4, r5, r6, r7, r8, r9, r10, fp, lr}
 2141              	.LVL213:
 2142              		.loc 1 2469 0
 2143 0072 FFF7FEBF 		b	chMtxUnlock
ARM GAS  /tmp/ccOGUWYP.s 			page 39


 2144              	.LVL214:
 2145              	.L142:
 2146              		.loc 1 2462 0
 2147 0076 A4F83AB0 		strh	fp, [r4, #58]	@ movhi
 2148 007a 2046     		mov	r0, r4
 2149 007c FFF7FEFF 		bl	vline_clip
 2150              	.LVL215:
 2151              		.loc 1 2463 0
 2152 0080 BD42     		cmp	r5, r7
 2153 0082 F1D0     		beq	.L144
 2154              		.loc 1 2464 0
 2155 0084 2786     		strh	r7, [r4, #48]	@ movhi
 2156 0086 6686     		strh	r6, [r4, #50]	@ movhi
 2157 0088 A4F83AB0 		strh	fp, [r4, #58]	@ movhi
 2158 008c 2046     		mov	r0, r4
 2159 008e FFF7FEFF 		bl	vline_clip
 2160              	.LVL216:
 2161              		.loc 1 2468 0
 2162 0092 E38A     		ldrh	r3, [r4, #22]
 2163 0094 9B07     		lsls	r3, r3, #30
 2164 0096 EAD5     		bpl	.L146
 2165              	.LVL217:
 2166              	.L151:
 2167              		.loc 1 2468 0 is_stmt 0 discriminator 1
 2168 0098 2046     		mov	r0, r4
 2169 009a FFF7FEFF 		bl	gdisp_lld_write_stop
 2170              	.LVL218:
 2171 009e E38A     		ldrh	r3, [r4, #22]
 2172 00a0 23F00203 		bic	r3, r3, #2
 2173 00a4 E382     		strh	r3, [r4, #22]	@ movhi
 2174              		.loc 1 2470 0 is_stmt 1 discriminator 1
 2175 00a6 BDE8F84F 		pop	{r3, r4, r5, r6, r7, r8, r9, r10, fp, lr}
 2176              	.LVL219:
 2177              		.loc 1 2469 0 discriminator 1
 2178 00aa FFF7FEBF 		b	chMtxUnlock
 2179              	.LVL220:
 2180              	.L140:
 2181 00ae BDE8F88F 		pop	{r3, r4, r5, r6, r7, r8, r9, r10, fp, pc}
 2182              	.LVL221:
 2183              	.L150:
 2184              		.loc 1 2456 0
 2185 00b2 09F10109 		add	r9, r9, #1
 2186 00b6 AAF1020A 		sub	r10, r10, #2
 2187 00ba 0FFA89F9 		sxth	r9, r9
 2188              	.LVL222:
 2189 00be 0FFA8AFA 		sxth	r10, r10
 2190              	.LVL223:
 2191              		.loc 1 2457 0
 2192 00c2 2046     		mov	r0, r4
 2193 00c4 A4F83290 		strh	r9, [r4, #50]	@ movhi
 2194 00c8 A4F83AA0 		strh	r10, [r4, #58]	@ movhi
 2195 00cc 2586     		strh	r5, [r4, #48]	@ movhi
 2196 00ce FFF7FEFF 		bl	vline_clip
 2197              	.LVL224:
 2198              		.loc 1 2458 0
 2199 00d2 A4F83290 		strh	r9, [r4, #50]	@ movhi
 2200 00d6 A4F83AA0 		strh	r10, [r4, #58]	@ movhi
ARM GAS  /tmp/ccOGUWYP.s 			page 40


 2201 00da 2786     		strh	r7, [r4, #48]	@ movhi
 2202 00dc 2046     		mov	r0, r4
 2203 00de FFF7FEFF 		bl	vline_clip
 2204              	.LVL225:
 2205 00e2 C1E7     		b	.L144
 2206              		.cfi_endproc
 2207              	.LFE131:
 2208              		.size	gdispGDrawBox, .-gdispGDrawBox
 2209 00e4 AFF30080 		.section	.text.gdispGDrawChar,"ax",%progbits
 2209      AFF30080 
 2209      AFF30080 
 2210              		.align	2
 2211              		.p2align 4,,15
 2212              		.global	gdispGDrawChar
 2213              		.thumb
 2214              		.thumb_func
 2215              		.type	gdispGDrawChar, %function
 2216              	gdispGDrawChar:
 2217              	.LFB135:
 2218              		.loc 1 2849 0
 2219              		.cfi_startproc
 2220              		@ args = 8, pretend = 0, frame = 0
 2221              		@ frame_needed = 0, uses_anonymous_args = 0
 2222              	.LVL226:
 2223 0000 2DE9F043 		push	{r4, r5, r6, r7, r8, r9, lr}
 2224              		.cfi_def_cfa_offset 28
 2225              		.cfi_offset 4, -28
 2226              		.cfi_offset 5, -24
 2227              		.cfi_offset 6, -20
 2228              		.cfi_offset 7, -16
 2229              		.cfi_offset 8, -12
 2230              		.cfi_offset 9, -8
 2231              		.cfi_offset 14, -4
 2232 0004 83B0     		sub	sp, sp, #12
 2233              		.cfi_def_cfa_offset 40
 2234              		.loc 1 2849 0
 2235 0006 0446     		mov	r4, r0
 2236 0008 0A9D     		ldr	r5, [sp, #40]
 2237 000a BDF82C90 		ldrh	r9, [sp, #44]
 2238 000e 1746     		mov	r7, r2
 2239 0010 0E46     		mov	r6, r1
 2240 0012 9846     		mov	r8, r3
 2241              		.loc 1 2850 0
 2242 0014 1830     		adds	r0, r0, #24
 2243              	.LVL227:
 2244 0016 FFF7FEFF 		bl	chMtxLock
 2245              	.LVL228:
 2246              		.loc 1 2854 0
 2247 001a 4146     		mov	r1, r8
 2248              		.loc 1 2851 0
 2249 001c A564     		str	r5, [r4, #72]
 2250              		.loc 1 2852 0
 2251 001e A4F85060 		strh	r6, [r4, #80]	@ movhi
 2252              		.loc 1 2853 0
 2253 0022 A4F85270 		strh	r7, [r4, #82]	@ movhi
 2254              		.loc 1 2854 0
 2255 0026 2846     		mov	r0, r5
ARM GAS  /tmp/ccOGUWYP.s 			page 41


 2256 0028 FFF7FEFF 		bl	mf_character_width
 2257              	.LVL229:
 2258 002c 2A7B     		ldrb	r2, [r5, #12]	@ zero_extendqisi2
 2259              		.loc 1 2857 0
 2260 002e 0194     		str	r4, [sp, #4]
 2261              		.loc 1 2854 0
 2262 0030 3244     		add	r2, r2, r6
 2263 0032 1044     		add	r0, r0, r2
 2264 0034 A4F85400 		strh	r0, [r4, #84]	@ movhi
 2265              		.loc 1 2855 0
 2266 0038 6A7A     		ldrb	r2, [r5, #9]	@ zero_extendqisi2
 2267              		.loc 1 2857 0
 2268 003a 0E4B     		ldr	r3, .L157
 2269 003c 0093     		str	r3, [sp]
 2270              		.loc 1 2855 0
 2271 003e 3A44     		add	r2, r2, r7
 2272              		.loc 1 2857 0
 2273 0040 4346     		mov	r3, r8
 2274              		.loc 1 2855 0
 2275 0042 A4F85620 		strh	r2, [r4, #86]	@ movhi
 2276              		.loc 1 2857 0
 2277 0046 3146     		mov	r1, r6
 2278              		.loc 1 2856 0
 2279 0048 A4F84C90 		strh	r9, [r4, #76]	@ movhi
 2280              		.loc 1 2857 0
 2281 004c 2846     		mov	r0, r5
 2282 004e 3A46     		mov	r2, r7
 2283 0050 FFF7FEFF 		bl	mf_render_character
 2284              	.LVL230:
 2285              		.loc 1 2858 0
 2286 0054 E38A     		ldrh	r3, [r4, #22]
 2287 0056 9B07     		lsls	r3, r3, #30
 2288 0058 06D5     		bpl	.L153
 2289              		.loc 1 2858 0 is_stmt 0 discriminator 1
 2290 005a 2046     		mov	r0, r4
 2291 005c FFF7FEFF 		bl	gdisp_lld_write_stop
 2292              	.LVL231:
 2293 0060 E38A     		ldrh	r3, [r4, #22]
 2294 0062 23F00203 		bic	r3, r3, #2
 2295 0066 E382     		strh	r3, [r4, #22]	@ movhi
 2296              	.L153:
 2297              		.loc 1 2860 0 is_stmt 1
 2298 0068 03B0     		add	sp, sp, #12
 2299              		@ sp needed
 2300 006a BDE8F043 		pop	{r4, r5, r6, r7, r8, r9, lr}
 2301              	.LVL232:
 2302              		.loc 1 2859 0
 2303 006e FFF7FEBF 		b	chMtxUnlock
 2304              	.LVL233:
 2305              	.L158:
 2306 0072 00BF     		.align	2
 2307              	.L157:
 2308 0074 00000000 		.word	drawcharline
 2309              		.cfi_endproc
 2310              	.LFE135:
 2311              		.size	gdispGDrawChar, .-gdispGDrawChar
 2312 0078 AFF30080 		.section	.text.gdispGFillChar,"ax",%progbits
ARM GAS  /tmp/ccOGUWYP.s 			page 42


 2312      AFF30080 
 2313              		.align	2
 2314              		.p2align 4,,15
 2315              		.global	gdispGFillChar
 2316              		.thumb
 2317              		.thumb_func
 2318              		.type	gdispGFillChar, %function
 2319              	gdispGFillChar:
 2320              	.LFB136:
 2321              		.loc 1 2862 0
 2322              		.cfi_startproc
 2323              		@ args = 12, pretend = 0, frame = 8
 2324              		@ frame_needed = 0, uses_anonymous_args = 0
 2325              	.LVL234:
 2326 0000 2DE9F04F 		push	{r4, r5, r6, r7, r8, r9, r10, fp, lr}
 2327              		.cfi_def_cfa_offset 36
 2328              		.cfi_offset 4, -36
 2329              		.cfi_offset 5, -32
 2330              		.cfi_offset 6, -28
 2331              		.cfi_offset 7, -24
 2332              		.cfi_offset 8, -20
 2333              		.cfi_offset 9, -16
 2334              		.cfi_offset 10, -12
 2335              		.cfi_offset 11, -8
 2336              		.cfi_offset 14, -4
 2337 0004 85B0     		sub	sp, sp, #20
 2338              		.cfi_def_cfa_offset 56
 2339              		.loc 1 2862 0
 2340 0006 0446     		mov	r4, r0
 2341 0008 0E9F     		ldr	r7, [sp, #56]
 2342 000a 0393     		str	r3, [sp, #12]
 2343              		.loc 1 2863 0
 2344 000c 1830     		adds	r0, r0, #24
 2345              	.LVL235:
 2346              		.loc 1 2862 0
 2347 000e 0D46     		mov	r5, r1
 2348 0010 1646     		mov	r6, r2
 2349 0012 BDF83C90 		ldrh	r9, [sp, #60]
 2350 0016 BDF84080 		ldrh	r8, [sp, #64]
 2351              		.loc 1 2863 0
 2352 001a FFF7FEFF 		bl	chMtxLock
 2353              	.LVL236:
 2354              		.loc 1 2864 0
 2355 001e 0399     		ldr	r1, [sp, #12]
 2356 0020 3846     		mov	r0, r7
 2357 0022 FFF7FEFF 		bl	mf_character_width
 2358              	.LVL237:
 2359 0026 3A7B     		ldrb	r2, [r7, #12]	@ zero_extendqisi2
 2360              		.loc 1 2874 0
 2361 0028 218D     		ldrh	r1, [r4, #40]
 2362              		.loc 1 2864 0
 2363 002a 1044     		add	r0, r0, r2
 2364 002c 80B2     		uxth	r0, r0
 2365 002e 82B2     		uxth	r2, r0
 2366 0030 A286     		strh	r2, [r4, #52]	@ movhi
 2367              		.loc 1 2865 0
 2368 0032 7B7A     		ldrb	r3, [r7, #9]	@ zero_extendqisi2
ARM GAS  /tmp/ccOGUWYP.s 			page 43


 2369              		.loc 1 2871 0
 2370 0034 A4F84C90 		strh	r9, [r4, #76]	@ movhi
 2371              		.loc 1 2869 0
 2372 0038 1FFA85FA 		uxth	r10, r5
 2373 003c 00EB0A0B 		add	fp, r0, r10
 2374              		.loc 1 2870 0
 2375 0040 1FFA86FC 		uxth	ip, r6
 2376              		.loc 1 2874 0
 2377 0044 0FFA81F9 		sxth	r9, r1
 2378              		.loc 1 2869 0
 2379 0048 A4F854B0 		strh	fp, [r4, #84]	@ movhi
 2380              		.loc 1 2874 0
 2381 004c 4D45     		cmp	r5, r9
 2382              		.loc 1 2870 0
 2383 004e 0CEB030B 		add	fp, ip, r3
 2384              		.loc 1 2865 0
 2385 0052 E386     		strh	r3, [r4, #54]	@ movhi
 2386              		.loc 1 2866 0
 2387 0054 A764     		str	r7, [r4, #72]
 2388              		.loc 1 2867 0
 2389 0056 2586     		strh	r5, [r4, #48]	@ movhi
 2390 0058 A4F85050 		strh	r5, [r4, #80]	@ movhi
 2391              		.loc 1 2868 0
 2392 005c 6686     		strh	r6, [r4, #50]	@ movhi
 2393 005e A4F85260 		strh	r6, [r4, #82]	@ movhi
 2394              		.loc 1 2872 0
 2395 0062 A4F84080 		strh	r8, [r4, #64]	@ movhi
 2396 0066 A4F84E80 		strh	r8, [r4, #78]	@ movhi
 2397              		.loc 1 2870 0
 2398 006a A4F856B0 		strh	fp, [r4, #86]	@ movhi
 2399              		.loc 1 2874 0
 2400 006e 4DDA     		bge	.L166
 2401              		.loc 1 2874 0 is_stmt 0 discriminator 1
 2402 0070 C1EB0A02 		rsb	r2, r1, r10
 2403 0074 0244     		add	r2, r2, r0
 2404 0076 92B2     		uxth	r2, r2
 2405 0078 A286     		strh	r2, [r4, #52]	@ movhi
 2406 007a 2186     		strh	r1, [r4, #48]	@ movhi
 2407              	.L160:
 2408              		.loc 1 2874 0 discriminator 2
 2409 007c 608D     		ldrh	r0, [r4, #42]
 2410 007e 0FFA80F8 		sxth	r8, r0
 2411 0082 4645     		cmp	r6, r8
 2412 0084 3EDA     		bge	.L167
 2413              		.loc 1 2874 0 discriminator 1
 2414 0086 1B1A     		subs	r3, r3, r0
 2415 0088 6344     		add	r3, r3, ip
 2416 008a 9BB2     		uxth	r3, r3
 2417 008c E386     		strh	r3, [r4, #54]	@ movhi
 2418 008e 6086     		strh	r0, [r4, #50]	@ movhi
 2419              	.L161:
 2420              		.loc 1 2874 0 discriminator 2
 2421 0090 B4F82CC0 		ldrh	ip, [r4, #44]
 2422 0094 12B2     		sxth	r2, r2
 2423 0096 9144     		add	r9, r9, r2
 2424 0098 0FFA8CFA 		sxth	r10, ip
 2425 009c D145     		cmp	r9, r10
ARM GAS  /tmp/ccOGUWYP.s 			page 44


 2426 009e 04DD     		ble	.L162
 2427              		.loc 1 2874 0 discriminator 1
 2428 00a0 C1EB0C02 		rsb	r2, r1, ip
 2429 00a4 92B2     		uxth	r2, r2
 2430 00a6 A286     		strh	r2, [r4, #52]	@ movhi
 2431 00a8 12B2     		sxth	r2, r2
 2432              	.L162:
 2433              		.loc 1 2874 0 discriminator 2
 2434 00aa E18D     		ldrh	r1, [r4, #46]
 2435 00ac 08FA83F3 		sxtah	r3, r8, r3
 2436 00b0 0FFA81FC 		sxth	ip, r1
 2437 00b4 6345     		cmp	r3, ip
 2438 00b6 C4BF     		itt	gt
 2439 00b8 C0EB0100 		rsbgt	r0, r0, r1
 2440 00bc E086     		strhgt	r0, [r4, #54]	@ movhi
 2441 00be 002A     		cmp	r2, #0
 2442 00c0 11DD     		ble	.L164
 2443              		.loc 1 2874 0 discriminator 1
 2444 00c2 B4F93630 		ldrsh	r3, [r4, #54]
 2445 00c6 002B     		cmp	r3, #0
 2446 00c8 0DDD     		ble	.L164
 2447              	.LVL238:
 2448              	.LBB130:
 2449              	.LBB131:
 2450              		.loc 1 206 0 is_stmt 1
 2451 00ca 2046     		mov	r0, r4
 2452 00cc FFF7FEFF 		bl	gdisp_lld_fill_area
 2453              	.LVL239:
 2454              	.LBE131:
 2455              	.LBE130:
 2456              		.loc 1 2876 0
 2457 00d0 DFF840E0 		ldr	lr, .L171
 2458 00d4 0194     		str	r4, [sp, #4]
 2459 00d6 3846     		mov	r0, r7
 2460 00d8 2946     		mov	r1, r5
 2461 00da 3246     		mov	r2, r6
 2462 00dc 039B     		ldr	r3, [sp, #12]
 2463 00de CDF800E0 		str	lr, [sp]
 2464 00e2 FFF7FEFF 		bl	mf_render_character
 2465              	.LVL240:
 2466              	.L164:
 2467              		.loc 1 2878 0
 2468 00e6 E38A     		ldrh	r3, [r4, #22]
 2469 00e8 9B07     		lsls	r3, r3, #30
 2470 00ea 06D5     		bpl	.L165
 2471              		.loc 1 2878 0 is_stmt 0 discriminator 1
 2472 00ec 2046     		mov	r0, r4
 2473 00ee FFF7FEFF 		bl	gdisp_lld_write_stop
 2474              	.LVL241:
 2475 00f2 E38A     		ldrh	r3, [r4, #22]
 2476 00f4 23F00203 		bic	r3, r3, #2
 2477 00f8 E382     		strh	r3, [r4, #22]	@ movhi
 2478              	.L165:
 2479              		.loc 1 2880 0 is_stmt 1
 2480 00fa 05B0     		add	sp, sp, #20
 2481              		@ sp needed
 2482 00fc BDE8F04F 		pop	{r4, r5, r6, r7, r8, r9, r10, fp, lr}
ARM GAS  /tmp/ccOGUWYP.s 			page 45


 2483              	.LVL242:
 2484              		.loc 1 2879 0
 2485 0100 FFF7FEBF 		b	chMtxUnlock
 2486              	.LVL243:
 2487              	.L167:
 2488 0104 3046     		mov	r0, r6
 2489 0106 0FFA86F8 		sxth	r8, r6
 2490 010a C1E7     		b	.L161
 2491              	.L166:
 2492 010c 2946     		mov	r1, r5
 2493 010e 0FFA85F9 		sxth	r9, r5
 2494 0112 B3E7     		b	.L160
 2495              	.L172:
 2496              		.align	2
 2497              	.L171:
 2498 0114 00000000 		.word	drawcharline
 2499              		.cfi_endproc
 2500              	.LFE136:
 2501              		.size	gdispGFillChar, .-gdispGFillChar
 2502 0118 AFF30080 		.section	.text.gdispGDrawString,"ax",%progbits
 2502      AFF30080 
 2503              		.align	2
 2504              		.p2align 4,,15
 2505              		.global	gdispGDrawString
 2506              		.thumb
 2507              		.thumb_func
 2508              		.type	gdispGDrawString, %function
 2509              	gdispGDrawString:
 2510              	.LFB137:
 2511              		.loc 1 2882 0
 2512              		.cfi_startproc
 2513              		@ args = 8, pretend = 0, frame = 0
 2514              		@ frame_needed = 0, uses_anonymous_args = 0
 2515              	.LVL244:
 2516 0000 2DE9F043 		push	{r4, r5, r6, r7, r8, r9, lr}
 2517              		.cfi_def_cfa_offset 28
 2518              		.cfi_offset 4, -28
 2519              		.cfi_offset 5, -24
 2520              		.cfi_offset 6, -20
 2521              		.cfi_offset 7, -16
 2522              		.cfi_offset 8, -12
 2523              		.cfi_offset 9, -8
 2524              		.cfi_offset 14, -4
 2525 0004 85B0     		sub	sp, sp, #20
 2526              		.cfi_def_cfa_offset 48
 2527              		.loc 1 2882 0
 2528 0006 0446     		mov	r4, r0
 2529 0008 0C9D     		ldr	r5, [sp, #48]
 2530 000a BDF83490 		ldrh	r9, [sp, #52]
 2531              		.loc 1 2883 0
 2532 000e 1830     		adds	r0, r0, #24
 2533              	.LVL245:
 2534              		.loc 1 2882 0
 2535 0010 1646     		mov	r6, r2
 2536 0012 8846     		mov	r8, r1
 2537 0014 1F46     		mov	r7, r3
 2538              		.loc 1 2883 0
ARM GAS  /tmp/ccOGUWYP.s 			page 46


 2539 0016 FFF7FEFF 		bl	chMtxLock
 2540              	.LVL246:
 2541              		.loc 1 2887 0
 2542 001a 0022     		movs	r2, #0
 2543 001c 1346     		mov	r3, r2
 2544              		.loc 1 2885 0
 2545 001e A4F85080 		strh	r8, [r4, #80]	@ movhi
 2546              		.loc 1 2887 0
 2547 0022 3946     		mov	r1, r7
 2548              		.loc 1 2884 0
 2549 0024 A564     		str	r5, [r4, #72]
 2550              		.loc 1 2886 0
 2551 0026 A4F85260 		strh	r6, [r4, #82]	@ movhi
 2552              		.loc 1 2887 0
 2553 002a 2846     		mov	r0, r5
 2554 002c FFF7FEFF 		bl	mf_get_string_width
 2555              	.LVL247:
 2556 0030 1FFA88F8 		uxth	r8, r8
 2557 0034 4044     		add	r0, r0, r8
 2558 0036 A4F85400 		strh	r0, [r4, #84]	@ movhi
 2559              		.loc 1 2888 0
 2560 003a 6B7A     		ldrb	r3, [r5, #9]	@ zero_extendqisi2
 2561              		.loc 1 2889 0
 2562 003c A4F84C90 		strh	r9, [r4, #76]	@ movhi
 2563              		.loc 1 2888 0
 2564 0040 3344     		add	r3, r3, r6
 2565 0042 A4F85630 		strh	r3, [r4, #86]	@ movhi
 2566              		.loc 1 2891 0
 2567 0046 2B7B     		ldrb	r3, [r5, #12]	@ zero_extendqisi2
 2568 0048 DFF838E0 		ldr	lr, .L178
 2569 004c 0097     		str	r7, [sp]
 2570 004e 08EB0301 		add	r1, r8, r3
 2571 0052 0023     		movs	r3, #0
 2572 0054 0193     		str	r3, [sp, #4]
 2573 0056 0394     		str	r4, [sp, #12]
 2574 0058 3246     		mov	r2, r6
 2575 005a 09B2     		sxth	r1, r1
 2576 005c 2846     		mov	r0, r5
 2577 005e CDF808E0 		str	lr, [sp, #8]
 2578 0062 FFF7FEFF 		bl	mf_render_aligned
 2579              	.LVL248:
 2580              		.loc 1 2892 0
 2581 0066 E38A     		ldrh	r3, [r4, #22]
 2582 0068 9B07     		lsls	r3, r3, #30
 2583 006a 06D5     		bpl	.L174
 2584              		.loc 1 2892 0 is_stmt 0 discriminator 1
 2585 006c 2046     		mov	r0, r4
 2586 006e FFF7FEFF 		bl	gdisp_lld_write_stop
 2587              	.LVL249:
 2588 0072 E38A     		ldrh	r3, [r4, #22]
 2589 0074 23F00203 		bic	r3, r3, #2
 2590 0078 E382     		strh	r3, [r4, #22]	@ movhi
 2591              	.L174:
 2592              		.loc 1 2894 0 is_stmt 1
 2593 007a 05B0     		add	sp, sp, #20
 2594              		@ sp needed
 2595 007c BDE8F043 		pop	{r4, r5, r6, r7, r8, r9, lr}
ARM GAS  /tmp/ccOGUWYP.s 			page 47


 2596              	.LVL250:
 2597              		.loc 1 2893 0
 2598 0080 FFF7FEBF 		b	chMtxUnlock
 2599              	.LVL251:
 2600              	.L179:
 2601              		.align	2
 2602              	.L178:
 2603 0084 00000000 		.word	drawcharglyph
 2604              		.cfi_endproc
 2605              	.LFE137:
 2606              		.size	gdispGDrawString, .-gdispGDrawString
 2607 0088 AFF30080 		.section	.text.gdispGFillString,"ax",%progbits
 2607      AFF30080 
 2608              		.align	2
 2609              		.p2align 4,,15
 2610              		.global	gdispGFillString
 2611              		.thumb
 2612              		.thumb_func
 2613              		.type	gdispGFillString, %function
 2614              	gdispGFillString:
 2615              	.LFB138:
 2616              		.loc 1 2896 0
 2617              		.cfi_startproc
 2618              		@ args = 12, pretend = 0, frame = 8
 2619              		@ frame_needed = 0, uses_anonymous_args = 0
 2620              	.LVL252:
 2621 0000 2DE9F04F 		push	{r4, r5, r6, r7, r8, r9, r10, fp, lr}
 2622              		.cfi_def_cfa_offset 36
 2623              		.cfi_offset 4, -36
 2624              		.cfi_offset 5, -32
 2625              		.cfi_offset 6, -28
 2626              		.cfi_offset 7, -24
 2627              		.cfi_offset 8, -20
 2628              		.cfi_offset 9, -16
 2629              		.cfi_offset 10, -12
 2630              		.cfi_offset 11, -8
 2631              		.cfi_offset 14, -4
 2632 0004 87B0     		sub	sp, sp, #28
 2633              		.cfi_def_cfa_offset 64
 2634              		.loc 1 2896 0
 2635 0006 0446     		mov	r4, r0
 2636 0008 109F     		ldr	r7, [sp, #64]
 2637 000a BDF844A0 		ldrh	r10, [sp, #68]
 2638 000e BDF84880 		ldrh	r8, [sp, #72]
 2639 0012 CDF810A0 		str	r10, [sp, #16]
 2640              		.loc 1 2897 0
 2641 0016 1830     		adds	r0, r0, #24
 2642              	.LVL253:
 2643              		.loc 1 2896 0
 2644 0018 0E46     		mov	r6, r1
 2645 001a 1546     		mov	r5, r2
 2646 001c 9946     		mov	r9, r3
 2647              		.loc 1 2897 0
 2648 001e FFF7FEFF 		bl	chMtxLock
 2649              	.LVL254:
 2650              		.loc 1 2898 0
 2651 0022 0022     		movs	r2, #0
ARM GAS  /tmp/ccOGUWYP.s 			page 48


 2652 0024 1346     		mov	r3, r2
 2653 0026 4946     		mov	r1, r9
 2654 0028 3846     		mov	r0, r7
 2655 002a FFF7FEFF 		bl	mf_get_string_width
 2656              	.LVL255:
 2657              		.loc 1 2903 0
 2658 002e 1FFA86FB 		uxth	fp, r6
 2659              		.loc 1 2898 0
 2660 0032 A086     		strh	r0, [r4, #52]	@ movhi
 2661              		.loc 1 2903 0
 2662 0034 1FFA80FC 		uxth	ip, r0
 2663              		.loc 1 2899 0
 2664 0038 7A7A     		ldrb	r2, [r7, #9]	@ zero_extendqisi2
 2665              		.loc 1 2908 0
 2666 003a 238D     		ldrh	r3, [r4, #40]
 2667              		.loc 1 2906 0
 2668 003c A4F84080 		strh	r8, [r4, #64]	@ movhi
 2669              		.loc 1 2903 0
 2670 0040 0CEB0B0A 		add	r10, ip, fp
 2671 0044 CDF814A0 		str	r10, [sp, #20]
 2672              		.loc 1 2904 0
 2673 0048 A9B2     		uxth	r1, r5
 2674              		.loc 1 2905 0
 2675 004a DDF810A0 		ldr	r10, [sp, #16]
 2676 004e A4F84CA0 		strh	r10, [r4, #76]	@ movhi
 2677              		.loc 1 2904 0
 2678 0052 01EB020A 		add	r10, r1, r2
 2679 0056 CDF810A0 		str	r10, [sp, #16]
 2680              		.loc 1 2906 0
 2681 005a A4F84E80 		strh	r8, [r4, #78]	@ movhi
 2682              		.loc 1 2903 0
 2683 005e DDF814A0 		ldr	r10, [sp, #20]
 2684 0062 A4F854A0 		strh	r10, [r4, #84]	@ movhi
 2685              		.loc 1 2908 0
 2686 0066 0FFA83F8 		sxth	r8, r3
 2687              		.loc 1 2904 0
 2688 006a DDF810A0 		ldr	r10, [sp, #16]
 2689              		.loc 1 2899 0
 2690 006e E286     		strh	r2, [r4, #54]	@ movhi
 2691              		.loc 1 2908 0
 2692 0070 4645     		cmp	r6, r8
 2693              		.loc 1 2900 0
 2694 0072 A764     		str	r7, [r4, #72]
 2695              		.loc 1 2901 0
 2696 0074 2686     		strh	r6, [r4, #48]	@ movhi
 2697 0076 A4F85060 		strh	r6, [r4, #80]	@ movhi
 2698              		.loc 1 2902 0
 2699 007a 6586     		strh	r5, [r4, #50]	@ movhi
 2700 007c A4F85250 		strh	r5, [r4, #82]	@ movhi
 2701              		.loc 1 2904 0
 2702 0080 A4F856A0 		strh	r10, [r4, #86]	@ movhi
 2703              		.loc 1 2908 0
 2704 0084 4EDA     		bge	.L187
 2705              		.loc 1 2908 0 is_stmt 0 discriminator 1
 2706 0086 C3EB0B00 		rsb	r0, r3, fp
 2707 008a 6044     		add	r0, r0, ip
 2708 008c 80B2     		uxth	r0, r0
ARM GAS  /tmp/ccOGUWYP.s 			page 49


 2709 008e 2386     		strh	r3, [r4, #48]	@ movhi
 2710 0090 A086     		strh	r0, [r4, #52]	@ movhi
 2711              	.L181:
 2712              		.loc 1 2908 0 discriminator 2
 2713 0092 668D     		ldrh	r6, [r4, #42]
 2714 0094 0FFA86FC 		sxth	ip, r6
 2715 0098 6545     		cmp	r5, ip
 2716 009a 3FDA     		bge	.L188
 2717              		.loc 1 2908 0 discriminator 1
 2718 009c 921B     		subs	r2, r2, r6
 2719 009e 0A44     		add	r2, r2, r1
 2720 00a0 92B2     		uxth	r2, r2
 2721 00a2 E286     		strh	r2, [r4, #54]	@ movhi
 2722 00a4 6686     		strh	r6, [r4, #50]	@ movhi
 2723              	.L182:
 2724              		.loc 1 2908 0 discriminator 2
 2725 00a6 A18D     		ldrh	r1, [r4, #44]
 2726 00a8 00B2     		sxth	r0, r0
 2727 00aa 8044     		add	r8, r8, r0
 2728 00ac 0FFA81FA 		sxth	r10, r1
 2729 00b0 D045     		cmp	r8, r10
 2730 00b2 03DD     		ble	.L183
 2731              		.loc 1 2908 0 discriminator 1
 2732 00b4 C81A     		subs	r0, r1, r3
 2733 00b6 80B2     		uxth	r0, r0
 2734 00b8 A086     		strh	r0, [r4, #52]	@ movhi
 2735 00ba 00B2     		sxth	r0, r0
 2736              	.L183:
 2737              		.loc 1 2908 0 discriminator 2
 2738 00bc E38D     		ldrh	r3, [r4, #46]
 2739 00be 0CFA82F2 		sxtah	r2, ip, r2
 2740 00c2 19B2     		sxth	r1, r3
 2741 00c4 8A42     		cmp	r2, r1
 2742 00c6 C4BF     		itt	gt
 2743 00c8 C6EB0306 		rsbgt	r6, r6, r3
 2744 00cc E686     		strhgt	r6, [r4, #54]	@ movhi
 2745 00ce 0028     		cmp	r0, #0
 2746 00d0 15DD     		ble	.L185
 2747              		.loc 1 2908 0 discriminator 1
 2748 00d2 B4F93630 		ldrsh	r3, [r4, #54]
 2749 00d6 002B     		cmp	r3, #0
 2750 00d8 11DD     		ble	.L185
 2751              	.LVL256:
 2752              	.LBB132:
 2753              	.LBB133:
 2754              		.loc 1 206 0 is_stmt 1
 2755 00da 2046     		mov	r0, r4
 2756 00dc FFF7FEFF 		bl	gdisp_lld_fill_area
 2757              	.LVL257:
 2758              	.LBE133:
 2759              	.LBE132:
 2760              		.loc 1 2910 0
 2761 00e0 3B7B     		ldrb	r3, [r7, #12]	@ zero_extendqisi2
 2762 00e2 124E     		ldr	r6, .L192
 2763 00e4 CDF80090 		str	r9, [sp]
 2764 00e8 0BEB0301 		add	r1, fp, r3
 2765 00ec 0023     		movs	r3, #0
ARM GAS  /tmp/ccOGUWYP.s 			page 50


 2766 00ee 0394     		str	r4, [sp, #12]
 2767 00f0 2A46     		mov	r2, r5
 2768 00f2 09B2     		sxth	r1, r1
 2769 00f4 3846     		mov	r0, r7
 2770 00f6 0193     		str	r3, [sp, #4]
 2771 00f8 0296     		str	r6, [sp, #8]
 2772 00fa FFF7FEFF 		bl	mf_render_aligned
 2773              	.LVL258:
 2774              	.L185:
 2775              		.loc 1 2913 0
 2776 00fe E38A     		ldrh	r3, [r4, #22]
 2777 0100 9B07     		lsls	r3, r3, #30
 2778 0102 06D5     		bpl	.L186
 2779              		.loc 1 2913 0 is_stmt 0 discriminator 1
 2780 0104 2046     		mov	r0, r4
 2781 0106 FFF7FEFF 		bl	gdisp_lld_write_stop
 2782              	.LVL259:
 2783 010a E38A     		ldrh	r3, [r4, #22]
 2784 010c 23F00203 		bic	r3, r3, #2
 2785 0110 E382     		strh	r3, [r4, #22]	@ movhi
 2786              	.L186:
 2787              		.loc 1 2915 0 is_stmt 1
 2788 0112 07B0     		add	sp, sp, #28
 2789              		@ sp needed
 2790 0114 BDE8F04F 		pop	{r4, r5, r6, r7, r8, r9, r10, fp, lr}
 2791              	.LVL260:
 2792              		.loc 1 2914 0
 2793 0118 FFF7FEBF 		b	chMtxUnlock
 2794              	.LVL261:
 2795              	.L188:
 2796 011c 2E46     		mov	r6, r5
 2797 011e 0FFA85FC 		sxth	ip, r5
 2798 0122 C0E7     		b	.L182
 2799              	.L187:
 2800 0124 3346     		mov	r3, r6
 2801 0126 0FFA86F8 		sxth	r8, r6
 2802 012a B2E7     		b	.L181
 2803              	.L193:
 2804              		.align	2
 2805              	.L192:
 2806 012c 00000000 		.word	fillcharglyph
 2807              		.cfi_endproc
 2808              	.LFE138:
 2809              		.size	gdispGFillString, .-gdispGFillString
 2810              		.section	.text.gdispGDrawStringBox,"ax",%progbits
 2811              		.align	2
 2812              		.p2align 4,,15
 2813              		.global	gdispGDrawStringBox
 2814              		.thumb
 2815              		.thumb_func
 2816              		.type	gdispGDrawStringBox, %function
 2817              	gdispGDrawStringBox:
 2818              	.LFB139:
 2819              		.loc 1 2917 0
 2820              		.cfi_startproc
 2821              		@ args = 20, pretend = 0, frame = 8
 2822              		@ frame_needed = 0, uses_anonymous_args = 0
ARM GAS  /tmp/ccOGUWYP.s 			page 51


 2823              	.LVL262:
 2824 0000 2DE9F04F 		push	{r4, r5, r6, r7, r8, r9, r10, fp, lr}
 2825              		.cfi_def_cfa_offset 36
 2826              		.cfi_offset 4, -36
 2827              		.cfi_offset 5, -32
 2828              		.cfi_offset 6, -28
 2829              		.cfi_offset 7, -24
 2830              		.cfi_offset 8, -20
 2831              		.cfi_offset 9, -16
 2832              		.cfi_offset 10, -12
 2833              		.cfi_offset 11, -8
 2834              		.cfi_offset 14, -4
 2835 0004 87B0     		sub	sp, sp, #28
 2836              		.cfi_def_cfa_offset 64
 2837              		.loc 1 2917 0
 2838 0006 0446     		mov	r4, r0
 2839 0008 0F46     		mov	r7, r1
 2840              		.loc 1 2918 0
 2841 000a 1830     		adds	r0, r0, #24
 2842              	.LVL263:
 2843              		.loc 1 2917 0
 2844 000c 9B46     		mov	fp, r3
 2845 000e 119B     		ldr	r3, [sp, #68]
 2846              	.LVL264:
 2847 0010 BDF94090 		ldrsh	r9, [sp, #64]
 2848 0014 129D     		ldr	r5, [sp, #72]
 2849 0016 BDF84CA0 		ldrh	r10, [sp, #76]
 2850 001a 9DF85060 		ldrb	r6, [sp, #80]	@ zero_extendqisi2
 2851 001e 0593     		str	r3, [sp, #20]
 2852 0020 9046     		mov	r8, r2
 2853              		.loc 1 2918 0
 2854 0022 FFF7FEFF 		bl	chMtxLock
 2855              	.LVL265:
 2856              		.loc 1 2922 0
 2857 0026 B8B2     		uxth	r0, r7
 2858              		.loc 1 2923 0
 2859 0028 1FFA88F2 		uxth	r2, r8
 2860              		.loc 1 2922 0
 2861 002c 00EB0B01 		add	r1, r0, fp
 2862              		.loc 1 2923 0
 2863 0030 02EB090E 		add	lr, r2, r9
 2864              		.loc 1 2922 0
 2865 0034 09B2     		sxth	r1, r1
 2866              		.loc 1 2927 0
 2867 0036 012E     		cmp	r6, #1
 2868              		.loc 1 2919 0
 2869 0038 A564     		str	r5, [r4, #72]
 2870              		.loc 1 2920 0
 2871 003a A4F85070 		strh	r7, [r4, #80]	@ movhi
 2872              		.loc 1 2921 0
 2873 003e A4F85280 		strh	r8, [r4, #82]	@ movhi
 2874              		.loc 1 2924 0
 2875 0042 A4F84CA0 		strh	r10, [r4, #76]	@ movhi
 2876              		.loc 1 2923 0
 2877 0046 A4F856E0 		strh	lr, [r4, #86]	@ movhi
 2878              		.loc 1 2922 0
 2879 004a A4F85410 		strh	r1, [r4, #84]	@ movhi
ARM GAS  /tmp/ccOGUWYP.s 			page 52


 2880              		.loc 1 2927 0
 2881 004e 2BD0     		beq	.L196
 2882 0050 022E     		cmp	r6, #2
 2883 0052 25D1     		bne	.L206
 2884              	.LVL266:
 2885              	.L197:
 2886              		.loc 1 2938 0
 2887 0054 6B7A     		ldrb	r3, [r5, #9]	@ zero_extendqisi2
 2888              		.loc 1 2940 0
 2889 0056 0598     		ldr	r0, [sp, #20]
 2890 0058 174F     		ldr	r7, .L207
 2891 005a 0090     		str	r0, [sp]
 2892              	.LVL267:
 2893              		.loc 1 2938 0
 2894 005c 09F10109 		add	r9, r9, #1
 2895              	.LVL268:
 2896 0060 C3EB0909 		rsb	r9, r3, r9
 2897 0064 09EBD979 		add	r9, r9, r9, lsr #31
 2898              		.loc 1 2940 0
 2899 0068 4FF0000E 		mov	lr, #0
 2900              		.loc 1 2938 0
 2901 006c 02EB6902 		add	r2, r2, r9, asr #1
 2902              	.LVL269:
 2903              		.loc 1 2940 0
 2904 0070 3346     		mov	r3, r6
 2905              	.LVL270:
 2906 0072 0394     		str	r4, [sp, #12]
 2907 0074 12B2     		sxth	r2, r2
 2908 0076 2846     		mov	r0, r5
 2909 0078 CDF804E0 		str	lr, [sp, #4]
 2910 007c 0297     		str	r7, [sp, #8]
 2911 007e FFF7FEFF 		bl	mf_render_aligned
 2912              	.LVL271:
 2913              		.loc 1 2942 0
 2914 0082 E38A     		ldrh	r3, [r4, #22]
 2915 0084 9B07     		lsls	r3, r3, #30
 2916 0086 06D5     		bpl	.L198
 2917              		.loc 1 2942 0 is_stmt 0 discriminator 1
 2918 0088 2046     		mov	r0, r4
 2919 008a FFF7FEFF 		bl	gdisp_lld_write_stop
 2920              	.LVL272:
 2921 008e E38A     		ldrh	r3, [r4, #22]
 2922 0090 23F00203 		bic	r3, r3, #2
 2923 0094 E382     		strh	r3, [r4, #22]	@ movhi
 2924              	.L198:
 2925              		.loc 1 2944 0 is_stmt 1
 2926 0096 07B0     		add	sp, sp, #28
 2927              		@ sp needed
 2928 0098 BDE8F04F 		pop	{r4, r5, r6, r7, r8, r9, r10, fp, lr}
 2929              	.LVL273:
 2930              		.loc 1 2943 0
 2931 009c FFF7FEBF 		b	chMtxUnlock
 2932              	.LVL274:
 2933              	.L206:
 2934              		.loc 1 2935 0
 2935 00a0 297B     		ldrb	r1, [r5, #12]	@ zero_extendqisi2
 2936 00a2 0144     		add	r1, r1, r0
ARM GAS  /tmp/ccOGUWYP.s 			page 53


 2937 00a4 09B2     		sxth	r1, r1
 2938              	.LVL275:
 2939              		.loc 1 2936 0
 2940 00a6 D5E7     		b	.L197
 2941              	.LVL276:
 2942              	.L196:
 2943              		.loc 1 2929 0
 2944 00a8 0BF1010B 		add	fp, fp, #1
 2945 00ac 0BEBDB7B 		add	fp, fp, fp, lsr #31
 2946 00b0 00EB6B01 		add	r1, r0, fp, asr #1
 2947 00b4 09B2     		sxth	r1, r1
 2948              	.LVL277:
 2949              		.loc 1 2930 0
 2950 00b6 CDE7     		b	.L197
 2951              	.L208:
 2952              		.align	2
 2953              	.L207:
 2954 00b8 00000000 		.word	drawcharglyph
 2955              		.cfi_endproc
 2956              	.LFE139:
 2957              		.size	gdispGDrawStringBox, .-gdispGDrawStringBox
 2958 00bc AFF30080 		.section	.text.gdispGFillStringBox,"ax",%progbits
 2959              		.align	2
 2960              		.p2align 4,,15
 2961              		.global	gdispGFillStringBox
 2962              		.thumb
 2963              		.thumb_func
 2964              		.type	gdispGFillStringBox, %function
 2965              	gdispGFillStringBox:
 2966              	.LFB140:
 2967              		.loc 1 2946 0
 2968              		.cfi_startproc
 2969              		@ args = 24, pretend = 0, frame = 24
 2970              		@ frame_needed = 0, uses_anonymous_args = 0
 2971              	.LVL278:
 2972 0000 2DE9F04F 		push	{r4, r5, r6, r7, r8, r9, r10, fp, lr}
 2973              		.cfi_def_cfa_offset 36
 2974              		.cfi_offset 4, -36
 2975              		.cfi_offset 5, -32
 2976              		.cfi_offset 6, -28
 2977              		.cfi_offset 7, -24
 2978              		.cfi_offset 8, -20
 2979              		.cfi_offset 9, -16
 2980              		.cfi_offset 10, -12
 2981              		.cfi_offset 11, -8
 2982              		.cfi_offset 14, -4
 2983 0004 8BB0     		sub	sp, sp, #44
 2984              		.cfi_def_cfa_offset 80
 2985              		.loc 1 2946 0
 2986 0006 9A46     		mov	r10, r3
 2987 0008 169E     		ldr	r6, [sp, #88]
 2988 000a 159B     		ldr	r3, [sp, #84]
 2989              	.LVL279:
 2990 000c 0993     		str	r3, [sp, #36]
 2991 000e 0446     		mov	r4, r0
 2992 0010 0D46     		mov	r5, r1
 2993 0012 BDF86030 		ldrh	r3, [sp, #96]
ARM GAS  /tmp/ccOGUWYP.s 			page 54


 2994 0016 BDF85C10 		ldrh	r1, [sp, #92]
 2995              	.LVL280:
 2996 001a 0696     		str	r6, [sp, #24]
 2997              		.loc 1 2947 0
 2998 001c 1830     		adds	r0, r0, #24
 2999              	.LVL281:
 3000              		.loc 1 2946 0
 3001 001e 9DF86460 		ldrb	r6, [sp, #100]	@ zero_extendqisi2
 3002 0022 BDF95080 		ldrsh	r8, [sp, #80]
 3003 0026 0896     		str	r6, [sp, #32]
 3004              		.loc 1 2947 0
 3005 0028 0591     		str	r1, [sp, #20]
 3006              		.loc 1 2946 0
 3007 002a 1646     		mov	r6, r2
 3008              		.loc 1 2947 0
 3009 002c 0493     		str	r3, [sp, #16]
 3010              		.loc 1 2953 0
 3011 002e 1FFA85F9 		uxth	r9, r5
 3012              		.loc 1 2947 0
 3013 0032 FFF7FEFF 		bl	chMtxLock
 3014              	.LVL282:
 3015              		.loc 1 2953 0
 3016 0036 1FFA8AFC 		uxth	ip, r10
 3017 003a 0CEB0902 		add	r2, ip, r9
 3018 003e 12B2     		sxth	r2, r2
 3019              		.loc 1 2958 0
 3020 0040 278D     		ldrh	r7, [r4, #40]
 3021              		.loc 1 2953 0
 3022 0042 0792     		str	r2, [sp, #28]
 3023              		.loc 1 2950 0
 3024 0044 069A     		ldr	r2, [sp, #24]
 3025              		.loc 1 2955 0
 3026 0046 0599     		ldr	r1, [sp, #20]
 3027              		.loc 1 2956 0
 3028 0048 049B     		ldr	r3, [sp, #16]
 3029              		.loc 1 2950 0
 3030 004a A264     		str	r2, [r4, #72]
 3031              		.loc 1 2954 0
 3032 004c 1FFA86FB 		uxth	fp, r6
 3033 0050 1FFA88F0 		uxth	r0, r8
 3034              		.loc 1 2958 0
 3035 0054 3AB2     		sxth	r2, r7
 3036              		.loc 1 2955 0
 3037 0056 A4F84C10 		strh	r1, [r4, #76]	@ movhi
 3038              		.loc 1 2956 0
 3039 005a A4F84030 		strh	r3, [r4, #64]	@ movhi
 3040              		.loc 1 2954 0
 3041 005e 00EB0B01 		add	r1, r0, fp
 3042              		.loc 1 2956 0
 3043 0062 A4F84E30 		strh	r3, [r4, #78]	@ movhi
 3044              		.loc 1 2958 0
 3045 0066 9542     		cmp	r5, r2
 3046              		.loc 1 2953 0
 3047 0068 079B     		ldr	r3, [sp, #28]
 3048              		.loc 1 2948 0
 3049 006a A4F834A0 		strh	r10, [r4, #52]	@ movhi
 3050              		.loc 1 2949 0
ARM GAS  /tmp/ccOGUWYP.s 			page 55


 3051 006e A4F83680 		strh	r8, [r4, #54]	@ movhi
 3052              		.loc 1 2951 0
 3053 0072 2586     		strh	r5, [r4, #48]	@ movhi
 3054 0074 A4F85050 		strh	r5, [r4, #80]	@ movhi
 3055              		.loc 1 2952 0
 3056 0078 6686     		strh	r6, [r4, #50]	@ movhi
 3057 007a A4F85260 		strh	r6, [r4, #82]	@ movhi
 3058              		.loc 1 2954 0
 3059 007e A4F85610 		strh	r1, [r4, #86]	@ movhi
 3060              		.loc 1 2953 0
 3061 0082 A4F85430 		strh	r3, [r4, #84]	@ movhi
 3062              		.loc 1 2958 0
 3063 0086 5BDA     		bge	.L219
 3064              		.loc 1 2958 0 is_stmt 0 discriminator 1
 3065 0088 C7EB0905 		rsb	r5, r7, r9
 3066 008c 6544     		add	r5, r5, ip
 3067 008e ADB2     		uxth	r5, r5
 3068 0090 2786     		strh	r7, [r4, #48]	@ movhi
 3069 0092 A586     		strh	r5, [r4, #52]	@ movhi
 3070              	.L210:
 3071              		.loc 1 2958 0 discriminator 2
 3072 0094 618D     		ldrh	r1, [r4, #42]
 3073 0096 0BB2     		sxth	r3, r1
 3074 0098 9E42     		cmp	r6, r3
 3075 009a 4DDA     		bge	.L220
 3076              		.loc 1 2958 0 discriminator 1
 3077 009c C1EB0B06 		rsb	r6, r1, fp
 3078 00a0 3044     		add	r0, r0, r6
 3079 00a2 80B2     		uxth	r0, r0
 3080 00a4 6186     		strh	r1, [r4, #50]	@ movhi
 3081 00a6 E086     		strh	r0, [r4, #54]	@ movhi
 3082              	.L211:
 3083              		.loc 1 2958 0 discriminator 2
 3084 00a8 A68D     		ldrh	r6, [r4, #44]
 3085 00aa 2DB2     		sxth	r5, r5
 3086 00ac 2A44     		add	r2, r2, r5
 3087 00ae 0FFA86FC 		sxth	ip, r6
 3088 00b2 6245     		cmp	r2, ip
 3089 00b4 03DD     		ble	.L212
 3090              		.loc 1 2958 0 discriminator 1
 3091 00b6 F71B     		subs	r7, r6, r7
 3092 00b8 BDB2     		uxth	r5, r7
 3093 00ba A586     		strh	r5, [r4, #52]	@ movhi
 3094 00bc 2DB2     		sxth	r5, r5
 3095              	.L212:
 3096              		.loc 1 2958 0 discriminator 2
 3097 00be E28D     		ldrh	r2, [r4, #46]
 3098 00c0 03FA80F3 		sxtah	r3, r3, r0
 3099 00c4 16B2     		sxth	r6, r2
 3100 00c6 B342     		cmp	r3, r6
 3101 00c8 C4BF     		itt	gt
 3102 00ca C1EB0201 		rsbgt	r1, r1, r2
 3103 00ce E186     		strhgt	r1, [r4, #54]	@ movhi
 3104 00d0 002D     		cmp	r5, #0
 3105 00d2 22DD     		ble	.L214
 3106              		.loc 1 2958 0 discriminator 1
 3107 00d4 B4F93630 		ldrsh	r3, [r4, #54]
ARM GAS  /tmp/ccOGUWYP.s 			page 56


 3108 00d8 002B     		cmp	r3, #0
 3109 00da 1EDD     		ble	.L214
 3110              	.LVL283:
 3111              	.LBB134:
 3112              	.LBB135:
 3113              		.loc 1 206 0 is_stmt 1
 3114 00dc 2046     		mov	r0, r4
 3115 00de FFF7FEFF 		bl	gdisp_lld_fill_area
 3116              	.LVL284:
 3117              	.LBE135:
 3118              	.LBE134:
 3119              		.loc 1 2964 0
 3120 00e2 089E     		ldr	r6, [sp, #32]
 3121 00e4 012E     		cmp	r6, #1
 3122 00e6 35D0     		beq	.L216
 3123 00e8 022E     		cmp	r6, #2
 3124 00ea 2DD1     		bne	.L228
 3125              	.LVL285:
 3126              	.L217:
 3127              		.loc 1 2975 0
 3128 00ec 069E     		ldr	r6, [sp, #24]
 3129              		.loc 1 2978 0
 3130 00ee 1F4D     		ldr	r5, .L229
 3131              		.loc 1 2975 0
 3132 00f0 737A     		ldrb	r3, [r6, #9]	@ zero_extendqisi2
 3133              		.loc 1 2978 0
 3134 00f2 099E     		ldr	r6, [sp, #36]
 3135 00f4 0096     		str	r6, [sp]
 3136              	.LVL286:
 3137              		.loc 1 2975 0
 3138 00f6 08F10108 		add	r8, r8, #1
 3139              	.LVL287:
 3140 00fa C3EB0808 		rsb	r8, r3, r8
 3141 00fe 08EBD878 		add	r8, r8, r8, lsr #31
 3142 0102 0BEB6802 		add	r2, fp, r8, asr #1
 3143              		.loc 1 2978 0
 3144 0106 0026     		movs	r6, #0
 3145 0108 0394     		str	r4, [sp, #12]
 3146 010a 0799     		ldr	r1, [sp, #28]
 3147 010c 089B     		ldr	r3, [sp, #32]
 3148              	.LVL288:
 3149 010e 0698     		ldr	r0, [sp, #24]
 3150 0110 0196     		str	r6, [sp, #4]
 3151 0112 12B2     		sxth	r2, r2
 3152 0114 0295     		str	r5, [sp, #8]
 3153 0116 FFF7FEFF 		bl	mf_render_aligned
 3154              	.LVL289:
 3155              	.L214:
 3156              		.loc 1 2981 0
 3157 011a E38A     		ldrh	r3, [r4, #22]
 3158 011c 9B07     		lsls	r3, r3, #30
 3159 011e 06D5     		bpl	.L218
 3160              		.loc 1 2981 0 is_stmt 0 discriminator 1
 3161 0120 2046     		mov	r0, r4
 3162 0122 FFF7FEFF 		bl	gdisp_lld_write_stop
 3163              	.LVL290:
 3164 0126 E38A     		ldrh	r3, [r4, #22]
ARM GAS  /tmp/ccOGUWYP.s 			page 57


 3165 0128 23F00203 		bic	r3, r3, #2
 3166 012c E382     		strh	r3, [r4, #22]	@ movhi
 3167              	.L218:
 3168              		.loc 1 2983 0 is_stmt 1
 3169 012e 0BB0     		add	sp, sp, #44
 3170              		@ sp needed
 3171 0130 BDE8F04F 		pop	{r4, r5, r6, r7, r8, r9, r10, fp, lr}
 3172              	.LVL291:
 3173              		.loc 1 2982 0
 3174 0134 FFF7FEBF 		b	chMtxUnlock
 3175              	.LVL292:
 3176              	.L220:
 3177 0138 3146     		mov	r1, r6
 3178 013a 33B2     		sxth	r3, r6
 3179 013c 4046     		mov	r0, r8
 3180 013e B3E7     		b	.L211
 3181              	.L219:
 3182 0140 2F46     		mov	r7, r5
 3183 0142 2AB2     		sxth	r2, r5
 3184 0144 5546     		mov	r5, r10
 3185 0146 A5E7     		b	.L210
 3186              	.LVL293:
 3187              	.L228:
 3188              		.loc 1 2972 0
 3189 0148 069E     		ldr	r6, [sp, #24]
 3190 014a 337B     		ldrb	r3, [r6, #12]	@ zero_extendqisi2
 3191 014c 4B44     		add	r3, r3, r9
 3192 014e 1BB2     		sxth	r3, r3
 3193 0150 0793     		str	r3, [sp, #28]
 3194              	.LVL294:
 3195              		.loc 1 2973 0
 3196 0152 CBE7     		b	.L217
 3197              	.LVL295:
 3198              	.L216:
 3199              		.loc 1 2966 0
 3200 0154 0AF1010A 		add	r10, r10, #1
 3201 0158 0AEBDA7A 		add	r10, r10, r10, lsr #31
 3202 015c 09EB6A0A 		add	r10, r9, r10, asr #1
 3203 0160 0FFA8AFA 		sxth	r10, r10
 3204 0164 CDF81CA0 		str	r10, [sp, #28]
 3205              	.LVL296:
 3206              		.loc 1 2967 0
 3207 0168 C0E7     		b	.L217
 3208              	.L230:
 3209 016a 00BF     		.align	2
 3210              	.L229:
 3211 016c 00000000 		.word	fillcharglyph
 3212              		.cfi_endproc
 3213              	.LFE140:
 3214              		.size	gdispGFillStringBox, .-gdispGFillStringBox
 3215              		.section	.text.gdispGetFontMetric,"ax",%progbits
 3216              		.align	2
 3217              		.p2align 4,,15
 3218              		.global	gdispGetFontMetric
 3219              		.thumb
 3220              		.thumb_func
 3221              		.type	gdispGetFontMetric, %function
ARM GAS  /tmp/ccOGUWYP.s 			page 58


 3222              	gdispGetFontMetric:
 3223              	.LFB141:
 3224              		.loc 1 2985 0
 3225              		.cfi_startproc
 3226              		@ args = 0, pretend = 0, frame = 0
 3227              		@ frame_needed = 0, uses_anonymous_args = 0
 3228              		@ link register save eliminated.
 3229              	.LVL297:
 3230              		.loc 1 2987 0
 3231 0000 0529     		cmp	r1, #5
 3232 0002 04D8     		bhi	.L239
 3233 0004 DFE801F0 		tbb	[pc, r1]
 3234              	.L234:
 3235 0008 09       		.byte	(.L233-.L234)/2
 3236 0009 0C       		.byte	(.L235-.L234)/2
 3237 000a 12       		.byte	(.L236-.L234)/2
 3238 000b 03       		.byte	(.L239-.L234)/2
 3239 000c 06       		.byte	(.L237-.L234)/2
 3240 000d 15       		.byte	(.L238-.L234)/2
 3241              		.p2align 1
 3242              	.L239:
 3243              		.loc 1 2991 0
 3244 000e 0020     		movs	r0, #0
 3245              	.LVL298:
 3246              		.loc 1 2996 0
 3247 0010 00B2     		sxth	r0, r0
 3248 0012 7047     		bx	lr
 3249              	.LVL299:
 3250              	.L237:
 3251              		.loc 1 2992 0
 3252 0014 807A     		ldrb	r0, [r0, #10]	@ zero_extendqisi2
 3253              	.LVL300:
 3254              		.loc 1 2996 0
 3255 0016 00B2     		sxth	r0, r0
 3256 0018 7047     		bx	lr
 3257              	.LVL301:
 3258              	.L233:
 3259              		.loc 1 2988 0
 3260 001a 407A     		ldrb	r0, [r0, #9]	@ zero_extendqisi2
 3261              	.LVL302:
 3262              		.loc 1 2996 0
 3263 001c 00B2     		sxth	r0, r0
 3264 001e 7047     		bx	lr
 3265              	.LVL303:
 3266              	.L235:
 3267              		.loc 1 2989 0
 3268 0020 427A     		ldrb	r2, [r0, #9]	@ zero_extendqisi2
 3269 0022 437B     		ldrb	r3, [r0, #13]	@ zero_extendqisi2
 3270 0024 D01A     		subs	r0, r2, r3
 3271              	.LVL304:
 3272 0026 80B2     		uxth	r0, r0
 3273              		.loc 1 2996 0
 3274 0028 00B2     		sxth	r0, r0
 3275 002a 7047     		bx	lr
 3276              	.LVL305:
 3277              	.L236:
 3278              		.loc 1 2990 0
ARM GAS  /tmp/ccOGUWYP.s 			page 59


 3279 002c 807B     		ldrb	r0, [r0, #14]	@ zero_extendqisi2
 3280              	.LVL306:
 3281              		.loc 1 2996 0
 3282 002e 00B2     		sxth	r0, r0
 3283 0030 7047     		bx	lr
 3284              	.LVL307:
 3285              	.L238:
 3286              		.loc 1 2993 0
 3287 0032 C07A     		ldrb	r0, [r0, #11]	@ zero_extendqisi2
 3288              	.LVL308:
 3289              		.loc 1 2996 0
 3290 0034 00B2     		sxth	r0, r0
 3291 0036 7047     		bx	lr
 3292              		.cfi_endproc
 3293              	.LFE141:
 3294              		.size	gdispGetFontMetric, .-gdispGetFontMetric
 3295 0038 AFF30080 		.section	.text.gdispGetCharWidth,"ax",%progbits
 3295      AFF30080 
 3296              		.align	2
 3297              		.p2align 4,,15
 3298              		.global	gdispGetCharWidth
 3299              		.thumb
 3300              		.thumb_func
 3301              		.type	gdispGetCharWidth, %function
 3302              	gdispGetCharWidth:
 3303              	.LFB142:
 3304              		.loc 1 2998 0
 3305              		.cfi_startproc
 3306              		@ args = 0, pretend = 0, frame = 0
 3307              		@ frame_needed = 0, uses_anonymous_args = 0
 3308              	.LVL309:
 3309 0000 08B5     		push	{r3, lr}
 3310              		.cfi_def_cfa_offset 8
 3311              		.cfi_offset 3, -8
 3312              		.cfi_offset 14, -4
 3313              		.loc 1 2998 0
 3314 0002 0346     		mov	r3, r0
 3315              		.loc 1 3000 0
 3316 0004 0846     		mov	r0, r1
 3317              	.LVL310:
 3318 0006 1946     		mov	r1, r3
 3319              	.LVL311:
 3320 0008 FFF7FEFF 		bl	mf_character_width
 3321              	.LVL312:
 3322              		.loc 1 3001 0
 3323 000c 00B2     		sxth	r0, r0
 3324 000e 08BD     		pop	{r3, pc}
 3325              		.cfi_endproc
 3326              	.LFE142:
 3327              		.size	gdispGetCharWidth, .-gdispGetCharWidth
 3328              		.section	.text.gdispGetStringWidth,"ax",%progbits
 3329              		.align	2
 3330              		.p2align 4,,15
 3331              		.global	gdispGetStringWidth
 3332              		.thumb
 3333              		.thumb_func
 3334              		.type	gdispGetStringWidth, %function
ARM GAS  /tmp/ccOGUWYP.s 			page 60


 3335              	gdispGetStringWidth:
 3336              	.LFB143:
 3337              		.loc 1 3003 0
 3338              		.cfi_startproc
 3339              		@ args = 0, pretend = 0, frame = 0
 3340              		@ frame_needed = 0, uses_anonymous_args = 0
 3341              		@ link register save eliminated.
 3342              	.LVL313:
 3343 0000 10B4     		push	{r4}
 3344              		.cfi_def_cfa_offset 4
 3345              		.cfi_offset 4, -4
 3346              		.loc 1 3005 0
 3347 0002 0022     		movs	r2, #0
 3348              		.loc 1 3003 0
 3349 0004 0446     		mov	r4, r0
 3350              		.loc 1 3005 0
 3351 0006 1346     		mov	r3, r2
 3352 0008 0846     		mov	r0, r1
 3353              	.LVL314:
 3354 000a 2146     		mov	r1, r4
 3355              	.LVL315:
 3356              		.loc 1 3006 0
 3357 000c 5DF8044B 		ldr	r4, [sp], #4
 3358              	.LVL316:
 3359              		.loc 1 3005 0
 3360 0010 FFF7FEBF 		b	mf_get_string_width
 3361              	.LVL317:
 3362              		.cfi_endproc
 3363              	.LFE143:
 3364              		.size	gdispGetStringWidth, .-gdispGetStringWidth
 3365 0014 AFF30080 		.section	.text.gdispBlendColor,"ax",%progbits
 3365      AFF30080 
 3365      AFF30080 
 3366              		.align	2
 3367              		.p2align 4,,15
 3368              		.global	gdispBlendColor
 3369              		.thumb
 3370              		.thumb_func
 3371              		.type	gdispBlendColor, %function
 3372              	gdispBlendColor:
 3373              	.LFB144:
 3374              		.loc 1 3010 0
 3375              		.cfi_startproc
 3376              		@ args = 0, pretend = 0, frame = 0
 3377              		@ frame_needed = 0, uses_anonymous_args = 0
 3378              		@ link register save eliminated.
 3379              	.LVL318:
 3380 0000 F0B4     		push	{r4, r5, r6, r7}
 3381              		.cfi_def_cfa_offset 16
 3382              		.cfi_offset 4, -16
 3383              		.cfi_offset 5, -12
 3384              		.cfi_offset 6, -8
 3385              		.cfi_offset 7, -4
 3386              		.loc 1 3016 0
 3387 0002 00F4FC67 		and	r7, r0, #2016
 3388              		.loc 1 3011 0
 3389 0006 531C     		adds	r3, r2, #1
ARM GAS  /tmp/ccOGUWYP.s 			page 61


 3390              	.LVL319:
 3391              		.loc 1 3020 0
 3392 0008 01F4FC6C 		and	ip, r1, #2016
 3393              		.loc 1 3015 0
 3394 000c 00F47845 		and	r5, r0, #63488
 3395              		.loc 1 3016 0
 3396 0010 FF10     		asrs	r7, r7, #3
 3397              		.loc 1 3012 0
 3398 0012 C2F58072 		rsb	r2, r2, #256
 3399              	.LVL320:
 3400              		.loc 1 3016 0
 3401 0016 07FB03F7 		mul	r7, r7, r3
 3402              		.loc 1 3012 0
 3403 001a 92B2     		uxth	r2, r2
 3404              	.LVL321:
 3405              		.loc 1 3017 0
 3406 001c C600     		lsls	r6, r0, #3
 3407              		.loc 1 3019 0
 3408 001e 01F47844 		and	r4, r1, #63488
 3409              		.loc 1 3020 0
 3410 0022 4FEAEC0C 		asr	ip, ip, #3
 3411              		.loc 1 3015 0
 3412 0026 2D12     		asrs	r5, r5, #8
 3413              		.loc 1 3020 0
 3414 0028 0CFB0270 		mla	r0, ip, r2, r7
 3415              	.LVL322:
 3416              		.loc 1 3015 0
 3417 002c 05FB03F5 		mul	r5, r5, r3
 3418              	.LVL323:
 3419              		.loc 1 3017 0
 3420 0030 F6B2     		uxtb	r6, r6
 3421              		.loc 1 3019 0
 3422 0032 2412     		asrs	r4, r4, #8
 3423              		.loc 1 3021 0
 3424 0034 C900     		lsls	r1, r1, #3
 3425              	.LVL324:
 3426              		.loc 1 3019 0
 3427 0036 04FB0254 		mla	r4, r4, r2, r5
 3428              		.loc 1 3017 0
 3429 003a 06FB03F3 		mul	r3, r6, r3
 3430              	.LVL325:
 3431              		.loc 1 3027 0
 3432 003e 4009     		lsrs	r0, r0, #5
 3433              		.loc 1 3021 0
 3434 0040 C9B2     		uxtb	r1, r1
 3435              		.loc 1 3027 0
 3436 0042 04F47844 		and	r4, r4, #63488
 3437 0046 00F4FC60 		and	r0, r0, #2016
 3438              		.loc 1 3021 0
 3439 004a 01FB0232 		mla	r2, r1, r2, r3
 3440              	.LVL326:
 3441              		.loc 1 3027 0
 3442 004e 2043     		orrs	r0, r0, r4
 3443 0050 C2F3C422 		ubfx	r2, r2, #11, #5
 3444              	.LVL327:
 3445              		.loc 1 3028 0
 3446 0054 1043     		orrs	r0, r0, r2
ARM GAS  /tmp/ccOGUWYP.s 			page 62


 3447 0056 F0BC     		pop	{r4, r5, r6, r7}
 3448 0058 7047     		bx	lr
 3449              		.cfi_endproc
 3450              	.LFE144:
 3451              		.size	gdispBlendColor, .-gdispBlendColor
 3452 005a 00BFAFF3 		.section	.text.gdispContrastColor,"ax",%progbits
 3452      0080
 3453              		.align	2
 3454              		.p2align 4,,15
 3455              		.global	gdispContrastColor
 3456              		.thumb
 3457              		.thumb_func
 3458              		.type	gdispContrastColor, %function
 3459              	gdispContrastColor:
 3460              	.LFB145:
 3461              		.loc 1 3030 0
 3462              		.cfi_startproc
 3463              		@ args = 0, pretend = 0, frame = 0
 3464              		@ frame_needed = 0, uses_anonymous_args = 0
 3465              		@ link register save eliminated.
 3466              	.LVL328:
 3467              		.loc 1 3033 0
 3468 0000 00F47843 		and	r3, r0, #63488
 3469              		.loc 1 3034 0
 3470 0004 00F4FC61 		and	r1, r0, #2016
 3471              		.loc 1 3033 0
 3472 0008 B3F5004F 		cmp	r3, #32768
 3473              		.loc 1 3035 0
 3474 000c 4FEAC000 		lsl	r0, r0, #3
 3475              	.LVL329:
 3476              		.loc 1 3033 0
 3477 0010 94BF     		ite	ls
 3478 0012 4FF47843 		movls	r3, #63488
 3479 0016 0023     		movhi	r3, #0
 3480              		.loc 1 3035 0
 3481 0018 C2B2     		uxtb	r2, r0
 3482              		.loc 1 3034 0
 3483 001a B1F5806F 		cmp	r1, #1024
 3484 001e 94BF     		ite	ls
 3485 0020 4FF4FC60 		movls	r0, #2016
 3486 0024 0020     		movhi	r0, #0
 3487              		.loc 1 3035 0
 3488 0026 812A     		cmp	r2, #129
 3489              		.loc 1 3037 0
 3490 0028 40EA0300 		orr	r0, r0, r3
 3491              		.loc 1 3035 0
 3492 002c B4BF     		ite	lt
 3493 002e 1F23     		movlt	r3, #31
 3494 0030 0023     		movge	r3, #0
 3495              		.loc 1 3038 0
 3496 0032 1843     		orrs	r0, r0, r3
 3497 0034 7047     		bx	lr
 3498              		.cfi_endproc
 3499              	.LFE145:
 3500              		.size	gdispContrastColor, .-gdispContrastColor
 3501              		.global	GDISP
 3502 0036 00BFAFF3 		.section	.data.GDISP,"aw",%progbits
ARM GAS  /tmp/ccOGUWYP.s 			page 63


 3502      0080AFF3 
 3502      0080
 3503              		.align	2
 3504              		.set	.LANCHOR1,. + 0
 3505              		.type	GDISP, %object
 3506              		.size	GDISP, 4
 3507              	GDISP:
 3508 0000 00000000 		.word	GDisplayArray
 3509              		.section	.rodata.blks.7903,"a",%progbits
 3510              		.align	2
 3511              		.set	.LANCHOR2,. + 0
 3512              		.type	blks.7903, %object
 3513              		.size	blks.7903, 128
 3514              	blks.7903:
 3515 0000 0200     		.short	2
 3516 0002 0600     		.short	6
 3517 0004 0100     		.short	1
 3518 0006 0A00     		.short	10
 3519 0008 0300     		.short	3
 3520 000a 0B00     		.short	11
 3521 000c 0400     		.short	4
 3522 000e 0100     		.short	1
 3523 0010 0600     		.short	6
 3524 0012 0600     		.short	6
 3525 0014 0100     		.short	1
 3526 0016 0600     		.short	6
 3527 0018 0800     		.short	8
 3528 001a 0000     		.short	0
 3529 001c 0100     		.short	1
 3530 001e 0C00     		.short	12
 3531 0020 0900     		.short	9
 3532 0022 0000     		.short	0
 3533 0024 0600     		.short	6
 3534 0026 0100     		.short	1
 3535 0028 0900     		.short	9
 3536 002a 0B00     		.short	11
 3537 002c 0600     		.short	6
 3538 002e 0100     		.short	1
 3539 0030 0E00     		.short	14
 3540 0032 0600     		.short	6
 3541 0034 0100     		.short	1
 3542 0036 0500     		.short	5
 3543 0038 0C00     		.short	12
 3544 003a 0600     		.short	6
 3545 003c 0200     		.short	2
 3546 003e 0100     		.short	1
 3547 0040 1000     		.short	16
 3548 0042 0000     		.short	0
 3549 0044 0100     		.short	1
 3550 0046 0C00     		.short	12
 3551 0048 1100     		.short	17
 3552 004a 0000     		.short	0
 3553 004c 0600     		.short	6
 3554 004e 0100     		.short	1
 3555 0050 1100     		.short	17
 3556 0052 0600     		.short	6
 3557 0054 0300     		.short	3
ARM GAS  /tmp/ccOGUWYP.s 			page 64


 3558 0056 0100     		.short	1
 3559 0058 1600     		.short	22
 3560 005a 0600     		.short	6
 3561 005c 0700     		.short	7
 3562 005e 0100     		.short	1
 3563 0060 1800     		.short	24
 3564 0062 0000     		.short	0
 3565 0064 0100     		.short	1
 3566 0066 0600     		.short	6
 3567 0068 1600     		.short	22
 3568 006a 0700     		.short	7
 3569 006c 0100     		.short	1
 3570 006e 0500     		.short	5
 3571 0070 1C00     		.short	28
 3572 0072 0000     		.short	0
 3573 0074 0100     		.short	1
 3574 0076 0600     		.short	6
 3575 0078 1A00     		.short	26
 3576 007a 0700     		.short	7
 3577 007c 0100     		.short	1
 3578 007e 0500     		.short	5
 3579              		.section	.bss.GDisplayArray,"aw",%nobits
 3580              		.align	2
 3581              		.set	.LANCHOR0,. + 0
 3582              		.type	GDisplayArray, %object
 3583              		.size	GDisplayArray, 88
 3584              	GDisplayArray:
 3585 0000 00000000 		.space	88
 3585      00000000 
 3585      00000000 
 3585      00000000 
 3585      00000000 
 3586              		.text
 3587              	.Letext0:
 3588              		.file 2 "/opt/ARM/arm-none-eabi/include/machine/_default_types.h"
 3589              		.file 3 "/opt/ARM/arm-none-eabi/include/stdint.h"
 3590              		.file 4 "../../os/ports/GCC/ARMCMx/chtypes.h"
 3591              		.file 5 "../../os/kernel/include/chlists.h"
 3592              		.file 6 "../../os/kernel/include/chthreads.h"
 3593              		.file 7 "../../os/ports/GCC/ARMCMx/chcore_v7m.h"
 3594              		.file 8 "../../os/kernel/include/chmtx.h"
 3595              		.file 9 "/home/makkmarci/devel/ugfx/src/gos/chibios.h"
 3596              		.file 10 "/home/makkmarci/devel/ugfx/src/gdisp/sys_defs.h"
 3597              		.file 11 "/home/makkmarci/devel/ugfx/src/gdisp/mcufont/mf_font.h"
 3598              		.file 12 "/home/makkmarci/devel/ugfx/src/gdisp/driver.h"
 3599              		.file 13 "/home/makkmarci/devel/ugfx/src/gdisp/colors.h"
 3600              		.file 14 "/home/makkmarci/devel/ugfx/src/gdisp/mcufont/mf_encoding.h"
 3601              		.file 15 "/home/makkmarci/devel/ugfx/src/gdisp/mcufont/mf_justify.h"
 3602              		.file 16 "../../os/ports/common/ARMCMx/CMSIS/include/core_cm4.h"
 3603              		.section	.debug_info,"",%progbits
 3604              	.Ldebug_info0:
 3605 0000 C3220000 		.4byte	0x22c3
 3606 0004 0400     		.2byte	0x4
 3607 0006 00000000 		.4byte	.Ldebug_abbrev0
 3608 000a 04       		.byte	0x4
 3609 000b 01       		.uleb128 0x1
 3610 000c 6A070000 		.4byte	.LASF211
ARM GAS  /tmp/ccOGUWYP.s 			page 65


 3611 0010 01       		.byte	0x1
 3612 0011 3B030000 		.4byte	.LASF212
 3613 0015 8F050000 		.4byte	.LASF213
 3614 0019 48010000 		.4byte	.Ldebug_ranges0+0x148
 3615 001d 00000000 		.4byte	0
 3616 0021 00000000 		.4byte	.Ldebug_line0
 3617 0025 02       		.uleb128 0x2
 3618 0026 04       		.byte	0x4
 3619 0027 05       		.byte	0x5
 3620 0028 696E7400 		.ascii	"int\000"
 3621 002c 03       		.uleb128 0x3
 3622 002d 04       		.byte	0x4
 3623 002e 07       		.byte	0x7
 3624 002f 39050000 		.4byte	.LASF0
 3625 0033 03       		.uleb128 0x3
 3626 0034 01       		.byte	0x1
 3627 0035 06       		.byte	0x6
 3628 0036 3C020000 		.4byte	.LASF1
 3629 003a 04       		.uleb128 0x4
 3630 003b 47010000 		.4byte	.LASF3
 3631 003f 02       		.byte	0x2
 3632 0040 1C       		.byte	0x1c
 3633 0041 45000000 		.4byte	0x45
 3634 0045 03       		.uleb128 0x3
 3635 0046 01       		.byte	0x1
 3636 0047 08       		.byte	0x8
 3637 0048 93020000 		.4byte	.LASF2
 3638 004c 04       		.uleb128 0x4
 3639 004d 2E070000 		.4byte	.LASF4
 3640 0051 02       		.byte	0x2
 3641 0052 25       		.byte	0x25
 3642 0053 57000000 		.4byte	0x57
 3643 0057 03       		.uleb128 0x3
 3644 0058 02       		.byte	0x2
 3645 0059 05       		.byte	0x5
 3646 005a DB080000 		.4byte	.LASF5
 3647 005e 04       		.uleb128 0x4
 3648 005f 1A030000 		.4byte	.LASF6
 3649 0063 02       		.byte	0x2
 3650 0064 26       		.byte	0x26
 3651 0065 69000000 		.4byte	0x69
 3652 0069 03       		.uleb128 0x3
 3653 006a 02       		.byte	0x2
 3654 006b 07       		.byte	0x7
 3655 006c 180A0000 		.4byte	.LASF7
 3656 0070 04       		.uleb128 0x4
 3657 0071 930A0000 		.4byte	.LASF8
 3658 0075 02       		.byte	0x2
 3659 0076 37       		.byte	0x37
 3660 0077 7B000000 		.4byte	0x7b
 3661 007b 03       		.uleb128 0x3
 3662 007c 04       		.byte	0x4
 3663 007d 05       		.byte	0x5
 3664 007e 81010000 		.4byte	.LASF9
 3665 0082 04       		.uleb128 0x4
 3666 0083 70040000 		.4byte	.LASF10
 3667 0087 02       		.byte	0x2
ARM GAS  /tmp/ccOGUWYP.s 			page 66


 3668 0088 38       		.byte	0x38
 3669 0089 8D000000 		.4byte	0x8d
 3670 008d 03       		.uleb128 0x3
 3671 008e 04       		.byte	0x4
 3672 008f 07       		.byte	0x7
 3673 0090 F9030000 		.4byte	.LASF11
 3674 0094 03       		.uleb128 0x3
 3675 0095 08       		.byte	0x8
 3676 0096 05       		.byte	0x5
 3677 0097 8F040000 		.4byte	.LASF12
 3678 009b 04       		.uleb128 0x4
 3679 009c EE030000 		.4byte	.LASF13
 3680 00a0 02       		.byte	0x2
 3681 00a1 4E       		.byte	0x4e
 3682 00a2 A6000000 		.4byte	0xa6
 3683 00a6 03       		.uleb128 0x3
 3684 00a7 08       		.byte	0x8
 3685 00a8 07       		.byte	0x7
 3686 00a9 BA060000 		.4byte	.LASF14
 3687 00ad 04       		.uleb128 0x4
 3688 00ae 52020000 		.4byte	.LASF15
 3689 00b2 03       		.byte	0x3
 3690 00b3 2A       		.byte	0x2a
 3691 00b4 3A000000 		.4byte	0x3a
 3692 00b8 04       		.uleb128 0x4
 3693 00b9 20090000 		.4byte	.LASF16
 3694 00bd 03       		.byte	0x3
 3695 00be 35       		.byte	0x35
 3696 00bf 4C000000 		.4byte	0x4c
 3697 00c3 04       		.uleb128 0x4
 3698 00c4 DE060000 		.4byte	.LASF17
 3699 00c8 03       		.byte	0x3
 3700 00c9 36       		.byte	0x36
 3701 00ca 5E000000 		.4byte	0x5e
 3702 00ce 04       		.uleb128 0x4
 3703 00cf 78000000 		.4byte	.LASF18
 3704 00d3 03       		.byte	0x3
 3705 00d4 41       		.byte	0x41
 3706 00d5 70000000 		.4byte	0x70
 3707 00d9 04       		.uleb128 0x4
 3708 00da 96090000 		.4byte	.LASF19
 3709 00de 03       		.byte	0x3
 3710 00df 42       		.byte	0x42
 3711 00e0 82000000 		.4byte	0x82
 3712 00e4 04       		.uleb128 0x4
 3713 00e5 E5080000 		.4byte	.LASF20
 3714 00e9 03       		.byte	0x3
 3715 00ea 4E       		.byte	0x4e
 3716 00eb 9B000000 		.4byte	0x9b
 3717 00ef 04       		.uleb128 0x4
 3718 00f0 65090000 		.4byte	.LASF21
 3719 00f4 04       		.byte	0x4
 3720 00f5 2B       		.byte	0x2b
 3721 00f6 FA000000 		.4byte	0xfa
 3722 00fa 03       		.uleb128 0x3
 3723 00fb 01       		.byte	0x1
 3724 00fc 02       		.byte	0x2
ARM GAS  /tmp/ccOGUWYP.s 			page 67


 3725 00fd D3020000 		.4byte	.LASF22
 3726 0101 04       		.uleb128 0x4
 3727 0102 83080000 		.4byte	.LASF23
 3728 0106 04       		.byte	0x4
 3729 0107 2C       		.byte	0x2c
 3730 0108 AD000000 		.4byte	0xad
 3731 010c 04       		.uleb128 0x4
 3732 010d BA010000 		.4byte	.LASF24
 3733 0111 04       		.byte	0x4
 3734 0112 2D       		.byte	0x2d
 3735 0113 AD000000 		.4byte	0xad
 3736 0117 04       		.uleb128 0x4
 3737 0118 7E090000 		.4byte	.LASF25
 3738 011c 04       		.byte	0x4
 3739 011d 2E       		.byte	0x2e
 3740 011e AD000000 		.4byte	0xad
 3741 0122 04       		.uleb128 0x4
 3742 0123 FA060000 		.4byte	.LASF26
 3743 0127 04       		.byte	0x4
 3744 0128 2F       		.byte	0x2f
 3745 0129 AD000000 		.4byte	0xad
 3746 012d 04       		.uleb128 0x4
 3747 012e 53000000 		.4byte	.LASF27
 3748 0132 04       		.byte	0x4
 3749 0133 30       		.byte	0x30
 3750 0134 D9000000 		.4byte	0xd9
 3751 0138 04       		.uleb128 0x4
 3752 0139 F4060000 		.4byte	.LASF28
 3753 013d 04       		.byte	0x4
 3754 013e 31       		.byte	0x31
 3755 013f CE000000 		.4byte	0xce
 3756 0143 04       		.uleb128 0x4
 3757 0144 6D020000 		.4byte	.LASF29
 3758 0148 04       		.byte	0x4
 3759 0149 33       		.byte	0x33
 3760 014a D9000000 		.4byte	0xd9
 3761 014e 04       		.uleb128 0x4
 3762 014f 1F000000 		.4byte	.LASF30
 3763 0153 04       		.byte	0x4
 3764 0154 35       		.byte	0x35
 3765 0155 D9000000 		.4byte	0xd9
 3766 0159 04       		.uleb128 0x4
 3767 015a 6C090000 		.4byte	.LASF31
 3768 015e 05       		.byte	0x5
 3769 015f 2A       		.byte	0x2a
 3770 0160 64010000 		.4byte	0x164
 3771 0164 05       		.uleb128 0x5
 3772 0165 6C090000 		.4byte	.LASF31
 3773 0169 4C       		.byte	0x4c
 3774 016a 06       		.byte	0x6
 3775 016b 5E       		.byte	0x5e
 3776 016c 6D020000 		.4byte	0x26d
 3777 0170 06       		.uleb128 0x6
 3778 0171 8A010000 		.4byte	.LASF32
 3779 0175 06       		.byte	0x6
 3780 0176 5F       		.byte	0x5f
 3781 0177 8E020000 		.4byte	0x28e
ARM GAS  /tmp/ccOGUWYP.s 			page 68


 3782 017b 00       		.byte	0
 3783 017c 06       		.uleb128 0x6
 3784 017d B3010000 		.4byte	.LASF33
 3785 0181 06       		.byte	0x6
 3786 0182 61       		.byte	0x61
 3787 0183 8E020000 		.4byte	0x28e
 3788 0187 04       		.byte	0x4
 3789 0188 06       		.uleb128 0x6
 3790 0189 13030000 		.4byte	.LASF34
 3791 018d 06       		.byte	0x6
 3792 018e 63       		.byte	0x63
 3793 018f 2D010000 		.4byte	0x12d
 3794 0193 08       		.byte	0x8
 3795 0194 06       		.uleb128 0x6
 3796 0195 4D000000 		.4byte	.LASF35
 3797 0199 06       		.byte	0x6
 3798 019a 64       		.byte	0x64
 3799 019b 23040000 		.4byte	0x423
 3800 019f 0C       		.byte	0xc
 3801 01a0 06       		.uleb128 0x6
 3802 01a1 79010000 		.4byte	.LASF36
 3803 01a5 06       		.byte	0x6
 3804 01a6 66       		.byte	0x66
 3805 01a7 8E020000 		.4byte	0x28e
 3806 01ab 10       		.byte	0x10
 3807 01ac 06       		.uleb128 0x6
 3808 01ad D6060000 		.4byte	.LASF37
 3809 01b1 06       		.byte	0x6
 3810 01b2 67       		.byte	0x67
 3811 01b3 8E020000 		.4byte	0x28e
 3812 01b7 14       		.byte	0x14
 3813 01b8 06       		.uleb128 0x6
 3814 01b9 D90A0000 		.4byte	.LASF38
 3815 01bd 06       		.byte	0x6
 3816 01be 6E       		.byte	0x6e
 3817 01bf C7040000 		.4byte	0x4c7
 3818 01c3 18       		.byte	0x18
 3819 01c4 06       		.uleb128 0x6
 3820 01c5 740A0000 		.4byte	.LASF39
 3821 01c9 06       		.byte	0x6
 3822 01ca 74       		.byte	0x74
 3823 01cb D9040000 		.4byte	0x4d9
 3824 01cf 1C       		.byte	0x1c
 3825 01d0 06       		.uleb128 0x6
 3826 01d1 240B0000 		.4byte	.LASF40
 3827 01d5 06       		.byte	0x6
 3828 01d6 79       		.byte	0x79
 3829 01d7 0C010000 		.4byte	0x10c
 3830 01db 20       		.byte	0x20
 3831 01dc 06       		.uleb128 0x6
 3832 01dd 2C050000 		.4byte	.LASF41
 3833 01e1 06       		.byte	0x6
 3834 01e2 7D       		.byte	0x7d
 3835 01e3 01010000 		.4byte	0x101
 3836 01e7 21       		.byte	0x21
 3837 01e8 06       		.uleb128 0x6
 3838 01e9 88050000 		.4byte	.LASF42
ARM GAS  /tmp/ccOGUWYP.s 			page 69


 3839 01ed 06       		.byte	0x6
 3840 01ee 82       		.byte	0x82
 3841 01ef 17010000 		.4byte	0x117
 3842 01f3 22       		.byte	0x22
 3843 01f4 06       		.uleb128 0x6
 3844 01f5 48020000 		.4byte	.LASF43
 3845 01f9 06       		.byte	0x6
 3846 01fa 88       		.byte	0x88
 3847 01fb 22010000 		.4byte	0x122
 3848 01ff 23       		.byte	0x23
 3849 0200 06       		.uleb128 0x6
 3850 0201 04060000 		.4byte	.LASF44
 3851 0205 06       		.byte	0x6
 3852 0206 8F       		.byte	0x8f
 3853 0207 4B040000 		.4byte	0x44b
 3854 020b 24       		.byte	0x24
 3855 020c 07       		.uleb128 0x7
 3856 020d 705F7500 		.ascii	"p_u\000"
 3857 0211 06       		.byte	0x6
 3858 0212 B4       		.byte	0xb4
 3859 0213 92040000 		.4byte	0x492
 3860 0217 28       		.byte	0x28
 3861 0218 06       		.uleb128 0x6
 3862 0219 22050000 		.4byte	.LASF45
 3863 021d 06       		.byte	0x6
 3864 021e B9       		.byte	0xb9
 3865 021f B4020000 		.4byte	0x2b4
 3866 0223 2C       		.byte	0x2c
 3867 0224 06       		.uleb128 0x6
 3868 0225 63000000 		.4byte	.LASF46
 3869 0229 06       		.byte	0x6
 3870 022a BF       		.byte	0xbf
 3871 022b 94020000 		.4byte	0x294
 3872 022f 30       		.byte	0x30
 3873 0230 06       		.uleb128 0x6
 3874 0231 0A0B0000 		.4byte	.LASF47
 3875 0235 06       		.byte	0x6
 3876 0236 C3       		.byte	0xc3
 3877 0237 38010000 		.4byte	0x138
 3878 023b 38       		.byte	0x38
 3879 023c 06       		.uleb128 0x6
 3880 023d C6030000 		.4byte	.LASF48
 3881 0241 06       		.byte	0x6
 3882 0242 C9       		.byte	0xc9
 3883 0243 43010000 		.4byte	0x143
 3884 0247 3C       		.byte	0x3c
 3885 0248 06       		.uleb128 0x6
 3886 0249 C3010000 		.4byte	.LASF49
 3887 024d 06       		.byte	0x6
 3888 024e D0       		.byte	0xd0
 3889 024f DF040000 		.4byte	0x4df
 3890 0253 40       		.byte	0x40
 3891 0254 06       		.uleb128 0x6
 3892 0255 8E060000 		.4byte	.LASF50
 3893 0259 06       		.byte	0x6
 3894 025a D4       		.byte	0xd4
 3895 025b 2D010000 		.4byte	0x12d
ARM GAS  /tmp/ccOGUWYP.s 			page 70


 3896 025f 44       		.byte	0x44
 3897 0260 06       		.uleb128 0x6
 3898 0261 5C050000 		.4byte	.LASF51
 3899 0265 06       		.byte	0x6
 3900 0266 DA       		.byte	0xda
 3901 0267 CA020000 		.4byte	0x2ca
 3902 026b 48       		.byte	0x48
 3903 026c 00       		.byte	0
 3904 026d 08       		.uleb128 0x8
 3905 026e 08       		.byte	0x8
 3906 026f 05       		.byte	0x5
 3907 0270 61       		.byte	0x61
 3908 0271 8E020000 		.4byte	0x28e
 3909 0275 06       		.uleb128 0x6
 3910 0276 8A010000 		.4byte	.LASF32
 3911 027a 05       		.byte	0x5
 3912 027b 62       		.byte	0x62
 3913 027c 8E020000 		.4byte	0x28e
 3914 0280 00       		.byte	0
 3915 0281 06       		.uleb128 0x6
 3916 0282 B3010000 		.4byte	.LASF33
 3917 0286 05       		.byte	0x5
 3918 0287 64       		.byte	0x64
 3919 0288 8E020000 		.4byte	0x28e
 3920 028c 04       		.byte	0x4
 3921 028d 00       		.byte	0
 3922 028e 09       		.uleb128 0x9
 3923 028f 04       		.byte	0x4
 3924 0290 59010000 		.4byte	0x159
 3925 0294 04       		.uleb128 0x4
 3926 0295 C0090000 		.4byte	.LASF52
 3927 0299 05       		.byte	0x5
 3928 029a 66       		.byte	0x66
 3929 029b 6D020000 		.4byte	0x26d
 3930 029f 08       		.uleb128 0x8
 3931 02a0 04       		.byte	0x4
 3932 02a1 05       		.byte	0x5
 3933 02a2 6B       		.byte	0x6b
 3934 02a3 B4020000 		.4byte	0x2b4
 3935 02a7 06       		.uleb128 0x6
 3936 02a8 8A010000 		.4byte	.LASF32
 3937 02ac 05       		.byte	0x5
 3938 02ad 6D       		.byte	0x6d
 3939 02ae 8E020000 		.4byte	0x28e
 3940 02b2 00       		.byte	0
 3941 02b3 00       		.byte	0
 3942 02b4 04       		.uleb128 0x4
 3943 02b5 D9050000 		.4byte	.LASF53
 3944 02b9 05       		.byte	0x5
 3945 02ba 70       		.byte	0x70
 3946 02bb 9F020000 		.4byte	0x29f
 3947 02bf 04       		.uleb128 0x4
 3948 02c0 DD010000 		.4byte	.LASF54
 3949 02c4 07       		.byte	0x7
 3950 02c5 E5       		.byte	0xe5
 3951 02c6 CA020000 		.4byte	0x2ca
 3952 02ca 0A       		.uleb128 0xa
ARM GAS  /tmp/ccOGUWYP.s 			page 71


 3953 02cb 04       		.byte	0x4
 3954 02cc 04       		.uleb128 0x4
 3955 02cd 68030000 		.4byte	.LASF55
 3956 02d1 07       		.byte	0x7
 3957 02d2 EB       		.byte	0xeb
 3958 02d3 E4000000 		.4byte	0xe4
 3959 02d7 0B       		.uleb128 0xb
 3960 02d8 BF030000 		.4byte	.LASF56
 3961 02dc 64       		.byte	0x64
 3962 02dd 07       		.byte	0x7
 3963 02de 0C01     		.2byte	0x10c
 3964 02e0 23040000 		.4byte	0x423
 3965 02e4 0C       		.uleb128 0xc
 3966 02e5 73313600 		.ascii	"s16\000"
 3967 02e9 07       		.byte	0x7
 3968 02ea 0E01     		.2byte	0x10e
 3969 02ec BF020000 		.4byte	0x2bf
 3970 02f0 00       		.byte	0
 3971 02f1 0C       		.uleb128 0xc
 3972 02f2 73313700 		.ascii	"s17\000"
 3973 02f6 07       		.byte	0x7
 3974 02f7 0F01     		.2byte	0x10f
 3975 02f9 BF020000 		.4byte	0x2bf
 3976 02fd 04       		.byte	0x4
 3977 02fe 0C       		.uleb128 0xc
 3978 02ff 73313800 		.ascii	"s18\000"
 3979 0303 07       		.byte	0x7
 3980 0304 1001     		.2byte	0x110
 3981 0306 BF020000 		.4byte	0x2bf
 3982 030a 08       		.byte	0x8
 3983 030b 0C       		.uleb128 0xc
 3984 030c 73313900 		.ascii	"s19\000"
 3985 0310 07       		.byte	0x7
 3986 0311 1101     		.2byte	0x111
 3987 0313 BF020000 		.4byte	0x2bf
 3988 0317 0C       		.byte	0xc
 3989 0318 0C       		.uleb128 0xc
 3990 0319 73323000 		.ascii	"s20\000"
 3991 031d 07       		.byte	0x7
 3992 031e 1201     		.2byte	0x112
 3993 0320 BF020000 		.4byte	0x2bf
 3994 0324 10       		.byte	0x10
 3995 0325 0C       		.uleb128 0xc
 3996 0326 73323100 		.ascii	"s21\000"
 3997 032a 07       		.byte	0x7
 3998 032b 1301     		.2byte	0x113
 3999 032d BF020000 		.4byte	0x2bf
 4000 0331 14       		.byte	0x14
 4001 0332 0C       		.uleb128 0xc
 4002 0333 73323200 		.ascii	"s22\000"
 4003 0337 07       		.byte	0x7
 4004 0338 1401     		.2byte	0x114
 4005 033a BF020000 		.4byte	0x2bf
 4006 033e 18       		.byte	0x18
 4007 033f 0C       		.uleb128 0xc
 4008 0340 73323300 		.ascii	"s23\000"
 4009 0344 07       		.byte	0x7
ARM GAS  /tmp/ccOGUWYP.s 			page 72


 4010 0345 1501     		.2byte	0x115
 4011 0347 BF020000 		.4byte	0x2bf
 4012 034b 1C       		.byte	0x1c
 4013 034c 0C       		.uleb128 0xc
 4014 034d 73323400 		.ascii	"s24\000"
 4015 0351 07       		.byte	0x7
 4016 0352 1601     		.2byte	0x116
 4017 0354 BF020000 		.4byte	0x2bf
 4018 0358 20       		.byte	0x20
 4019 0359 0C       		.uleb128 0xc
 4020 035a 73323500 		.ascii	"s25\000"
 4021 035e 07       		.byte	0x7
 4022 035f 1701     		.2byte	0x117
 4023 0361 BF020000 		.4byte	0x2bf
 4024 0365 24       		.byte	0x24
 4025 0366 0C       		.uleb128 0xc
 4026 0367 73323600 		.ascii	"s26\000"
 4027 036b 07       		.byte	0x7
 4028 036c 1801     		.2byte	0x118
 4029 036e BF020000 		.4byte	0x2bf
 4030 0372 28       		.byte	0x28
 4031 0373 0C       		.uleb128 0xc
 4032 0374 73323700 		.ascii	"s27\000"
 4033 0378 07       		.byte	0x7
 4034 0379 1901     		.2byte	0x119
 4035 037b BF020000 		.4byte	0x2bf
 4036 037f 2C       		.byte	0x2c
 4037 0380 0C       		.uleb128 0xc
 4038 0381 73323800 		.ascii	"s28\000"
 4039 0385 07       		.byte	0x7
 4040 0386 1A01     		.2byte	0x11a
 4041 0388 BF020000 		.4byte	0x2bf
 4042 038c 30       		.byte	0x30
 4043 038d 0C       		.uleb128 0xc
 4044 038e 73323900 		.ascii	"s29\000"
 4045 0392 07       		.byte	0x7
 4046 0393 1B01     		.2byte	0x11b
 4047 0395 BF020000 		.4byte	0x2bf
 4048 0399 34       		.byte	0x34
 4049 039a 0C       		.uleb128 0xc
 4050 039b 73333000 		.ascii	"s30\000"
 4051 039f 07       		.byte	0x7
 4052 03a0 1C01     		.2byte	0x11c
 4053 03a2 BF020000 		.4byte	0x2bf
 4054 03a6 38       		.byte	0x38
 4055 03a7 0C       		.uleb128 0xc
 4056 03a8 73333100 		.ascii	"s31\000"
 4057 03ac 07       		.byte	0x7
 4058 03ad 1D01     		.2byte	0x11d
 4059 03af BF020000 		.4byte	0x2bf
 4060 03b3 3C       		.byte	0x3c
 4061 03b4 0C       		.uleb128 0xc
 4062 03b5 723400   		.ascii	"r4\000"
 4063 03b8 07       		.byte	0x7
 4064 03b9 1F01     		.2byte	0x11f
 4065 03bb BF020000 		.4byte	0x2bf
 4066 03bf 40       		.byte	0x40
ARM GAS  /tmp/ccOGUWYP.s 			page 73


 4067 03c0 0C       		.uleb128 0xc
 4068 03c1 723500   		.ascii	"r5\000"
 4069 03c4 07       		.byte	0x7
 4070 03c5 2001     		.2byte	0x120
 4071 03c7 BF020000 		.4byte	0x2bf
 4072 03cb 44       		.byte	0x44
 4073 03cc 0C       		.uleb128 0xc
 4074 03cd 723600   		.ascii	"r6\000"
 4075 03d0 07       		.byte	0x7
 4076 03d1 2101     		.2byte	0x121
 4077 03d3 BF020000 		.4byte	0x2bf
 4078 03d7 48       		.byte	0x48
 4079 03d8 0C       		.uleb128 0xc
 4080 03d9 723700   		.ascii	"r7\000"
 4081 03dc 07       		.byte	0x7
 4082 03dd 2201     		.2byte	0x122
 4083 03df BF020000 		.4byte	0x2bf
 4084 03e3 4C       		.byte	0x4c
 4085 03e4 0C       		.uleb128 0xc
 4086 03e5 723800   		.ascii	"r8\000"
 4087 03e8 07       		.byte	0x7
 4088 03e9 2301     		.2byte	0x123
 4089 03eb BF020000 		.4byte	0x2bf
 4090 03ef 50       		.byte	0x50
 4091 03f0 0C       		.uleb128 0xc
 4092 03f1 723900   		.ascii	"r9\000"
 4093 03f4 07       		.byte	0x7
 4094 03f5 2401     		.2byte	0x124
 4095 03f7 BF020000 		.4byte	0x2bf
 4096 03fb 54       		.byte	0x54
 4097 03fc 0C       		.uleb128 0xc
 4098 03fd 72313000 		.ascii	"r10\000"
 4099 0401 07       		.byte	0x7
 4100 0402 2501     		.2byte	0x125
 4101 0404 BF020000 		.4byte	0x2bf
 4102 0408 58       		.byte	0x58
 4103 0409 0C       		.uleb128 0xc
 4104 040a 72313100 		.ascii	"r11\000"
 4105 040e 07       		.byte	0x7
 4106 040f 2601     		.2byte	0x126
 4107 0411 BF020000 		.4byte	0x2bf
 4108 0415 5C       		.byte	0x5c
 4109 0416 0C       		.uleb128 0xc
 4110 0417 6C7200   		.ascii	"lr\000"
 4111 041a 07       		.byte	0x7
 4112 041b 2701     		.2byte	0x127
 4113 041d BF020000 		.4byte	0x2bf
 4114 0421 60       		.byte	0x60
 4115 0422 00       		.byte	0
 4116 0423 0B       		.uleb128 0xb
 4117 0424 79020000 		.4byte	.LASF57
 4118 0428 04       		.byte	0x4
 4119 0429 07       		.byte	0x7
 4120 042a 3101     		.2byte	0x131
 4121 042c 3E040000 		.4byte	0x43e
 4122 0430 0C       		.uleb128 0xc
 4123 0431 72313300 		.ascii	"r13\000"
ARM GAS  /tmp/ccOGUWYP.s 			page 74


 4124 0435 07       		.byte	0x7
 4125 0436 3201     		.2byte	0x132
 4126 0438 3E040000 		.4byte	0x43e
 4127 043c 00       		.byte	0
 4128 043d 00       		.byte	0
 4129 043e 09       		.uleb128 0x9
 4130 043f 04       		.byte	0x4
 4131 0440 D7020000 		.4byte	0x2d7
 4132 0444 03       		.uleb128 0x3
 4133 0445 04       		.byte	0x4
 4134 0446 07       		.byte	0x7
 4135 0447 16000000 		.4byte	.LASF58
 4136 044b 0D       		.uleb128 0xd
 4137 044c 4E010000 		.4byte	0x14e
 4138 0450 05       		.uleb128 0x5
 4139 0451 7B040000 		.4byte	.LASF59
 4140 0455 10       		.byte	0x10
 4141 0456 08       		.byte	0x8
 4142 0457 2C       		.byte	0x2c
 4143 0458 81040000 		.4byte	0x481
 4144 045c 06       		.uleb128 0x6
 4145 045d A3040000 		.4byte	.LASF60
 4146 0461 08       		.byte	0x8
 4147 0462 2D       		.byte	0x2d
 4148 0463 94020000 		.4byte	0x294
 4149 0467 00       		.byte	0
 4150 0468 06       		.uleb128 0x6
 4151 0469 36010000 		.4byte	.LASF61
 4152 046d 08       		.byte	0x8
 4153 046e 2F       		.byte	0x2f
 4154 046f 8E020000 		.4byte	0x28e
 4155 0473 08       		.byte	0x8
 4156 0474 06       		.uleb128 0x6
 4157 0475 F80A0000 		.4byte	.LASF62
 4158 0479 08       		.byte	0x8
 4159 047a 31       		.byte	0x31
 4160 047b 81040000 		.4byte	0x481
 4161 047f 0C       		.byte	0xc
 4162 0480 00       		.byte	0
 4163 0481 09       		.uleb128 0x9
 4164 0482 04       		.byte	0x4
 4165 0483 50040000 		.4byte	0x450
 4166 0487 04       		.uleb128 0x4
 4167 0488 7B040000 		.4byte	.LASF59
 4168 048c 08       		.byte	0x8
 4169 048d 33       		.byte	0x33
 4170 048e 50040000 		.4byte	0x450
 4171 0492 0E       		.uleb128 0xe
 4172 0493 04       		.byte	0x4
 4173 0494 06       		.byte	0x6
 4174 0495 96       		.byte	0x96
 4175 0496 C7040000 		.4byte	0x4c7
 4176 049a 0F       		.uleb128 0xf
 4177 049b 110A0000 		.4byte	.LASF63
 4178 049f 06       		.byte	0x6
 4179 04a0 9D       		.byte	0x9d
 4180 04a1 38010000 		.4byte	0x138
ARM GAS  /tmp/ccOGUWYP.s 			page 75


 4181 04a5 0F       		.uleb128 0xf
 4182 04a6 3E010000 		.4byte	.LASF64
 4183 04aa 06       		.byte	0x6
 4184 04ab A4       		.byte	0xa4
 4185 04ac 38010000 		.4byte	0x138
 4186 04b0 0F       		.uleb128 0xf
 4187 04b1 34030000 		.4byte	.LASF65
 4188 04b5 06       		.byte	0x6
 4189 04b6 AB       		.byte	0xab
 4190 04b7 CA020000 		.4byte	0x2ca
 4191 04bb 0F       		.uleb128 0xf
 4192 04bc 51010000 		.4byte	.LASF66
 4193 04c0 06       		.byte	0x6
 4194 04c1 B2       		.byte	0xb2
 4195 04c2 43010000 		.4byte	0x143
 4196 04c6 00       		.byte	0
 4197 04c7 09       		.uleb128 0x9
 4198 04c8 04       		.byte	0x4
 4199 04c9 CD040000 		.4byte	0x4cd
 4200 04cd 10       		.uleb128 0x10
 4201 04ce D2040000 		.4byte	0x4d2
 4202 04d2 03       		.uleb128 0x3
 4203 04d3 01       		.byte	0x1
 4204 04d4 08       		.byte	0x8
 4205 04d5 F2020000 		.4byte	.LASF67
 4206 04d9 09       		.uleb128 0x9
 4207 04da 04       		.byte	0x4
 4208 04db CC020000 		.4byte	0x2cc
 4209 04df 09       		.uleb128 0x9
 4210 04e0 04       		.byte	0x4
 4211 04e1 87040000 		.4byte	0x487
 4212 04e5 0D       		.uleb128 0xd
 4213 04e6 CE000000 		.4byte	0xce
 4214 04ea 04       		.uleb128 0x4
 4215 04eb 16050000 		.4byte	.LASF68
 4216 04ef 09       		.byte	0x9
 4217 04f0 1F       		.byte	0x1f
 4218 04f1 4E010000 		.4byte	0x14e
 4219 04f5 04       		.uleb128 0x4
 4220 04f6 64020000 		.4byte	.LASF69
 4221 04fa 09       		.byte	0x9
 4222 04fb 33       		.byte	0x33
 4223 04fc 87040000 		.4byte	0x487
 4224 0500 04       		.uleb128 0x4
 4225 0501 5B000000 		.4byte	.LASF70
 4226 0505 0A       		.byte	0xa
 4227 0506 27       		.byte	0x27
 4228 0507 B8000000 		.4byte	0xb8
 4229 050b 11       		.uleb128 0x11
 4230 050c B0030000 		.4byte	.LASF75
 4231 0510 01       		.byte	0x1
 4232 0511 0A       		.byte	0xa
 4233 0512 36       		.byte	0x36
 4234 0513 2A050000 		.4byte	0x52a
 4235 0517 12       		.uleb128 0x12
 4236 0518 3E060000 		.4byte	.LASF71
 4237 051c 00       		.sleb128 0
ARM GAS  /tmp/ccOGUWYP.s 			page 76


 4238 051d 12       		.uleb128 0x12
 4239 051e 560A0000 		.4byte	.LASF72
 4240 0522 01       		.sleb128 1
 4241 0523 12       		.uleb128 0x12
 4242 0524 B3090000 		.4byte	.LASF73
 4243 0528 02       		.sleb128 2
 4244 0529 00       		.byte	0
 4245 052a 04       		.uleb128 0x4
 4246 052b E00A0000 		.4byte	.LASF74
 4247 052f 0A       		.byte	0xa
 4248 0530 36       		.byte	0x36
 4249 0531 0B050000 		.4byte	0x50b
 4250 0535 11       		.uleb128 0x11
 4251 0536 FF0A0000 		.4byte	.LASF76
 4252 053a 01       		.byte	0x1
 4253 053b 0A       		.byte	0xa
 4254 053c 3A       		.byte	0x3a
 4255 053d 66050000 		.4byte	0x566
 4256 0541 12       		.uleb128 0x12
 4257 0542 5A090000 		.4byte	.LASF77
 4258 0546 00       		.sleb128 0
 4259 0547 12       		.uleb128 0x12
 4260 0548 C6000000 		.4byte	.LASF78
 4261 054c 01       		.sleb128 1
 4262 054d 12       		.uleb128 0x12
 4263 054e F4000000 		.4byte	.LASF79
 4264 0552 02       		.sleb128 2
 4265 0553 12       		.uleb128 0x12
 4266 0554 78050000 		.4byte	.LASF80
 4267 0558 03       		.sleb128 3
 4268 0559 12       		.uleb128 0x12
 4269 055a AB040000 		.4byte	.LASF81
 4270 055e 04       		.sleb128 4
 4271 055f 12       		.uleb128 0x12
 4272 0560 DA090000 		.4byte	.LASF82
 4273 0564 05       		.sleb128 5
 4274 0565 00       		.byte	0
 4275 0566 04       		.uleb128 0x4
 4276 0567 CD090000 		.4byte	.LASF83
 4277 056b 0A       		.byte	0xa
 4278 056c 3A       		.byte	0x3a
 4279 056d 35050000 		.4byte	0x535
 4280 0571 04       		.uleb128 0x4
 4281 0572 27070000 		.4byte	.LASF84
 4282 0576 0A       		.byte	0xa
 4283 0577 3E       		.byte	0x3e
 4284 0578 7C050000 		.4byte	0x57c
 4285 057c 09       		.uleb128 0x9
 4286 057d 04       		.byte	0x4
 4287 057e 82050000 		.4byte	0x582
 4288 0582 10       		.uleb128 0x10
 4289 0583 87050000 		.4byte	0x587
 4290 0587 05       		.uleb128 0x5
 4291 0588 7B030000 		.4byte	.LASF85
 4292 058c 1C       		.byte	0x1c
 4293 058d 0B       		.byte	0xb
 4294 058e 1D       		.byte	0x1d
ARM GAS  /tmp/ccOGUWYP.s 			page 77


 4295 058f 30060000 		.4byte	0x630
 4296 0593 06       		.uleb128 0x6
 4297 0594 80000000 		.4byte	.LASF86
 4298 0598 0B       		.byte	0xb
 4299 0599 20       		.byte	0x20
 4300 059a C7040000 		.4byte	0x4c7
 4301 059e 00       		.byte	0
 4302 059f 06       		.uleb128 0x6
 4303 05a0 0B020000 		.4byte	.LASF87
 4304 05a4 0B       		.byte	0xb
 4305 05a5 23       		.byte	0x23
 4306 05a6 C7040000 		.4byte	0x4c7
 4307 05aa 04       		.byte	0x4
 4308 05ab 06       		.uleb128 0x6
 4309 05ac 9D040000 		.4byte	.LASF88
 4310 05b0 0B       		.byte	0xb
 4311 05b1 26       		.byte	0x26
 4312 05b2 AD000000 		.4byte	0xad
 4313 05b6 08       		.byte	0x8
 4314 05b7 06       		.uleb128 0x6
 4315 05b8 100B0000 		.4byte	.LASF89
 4316 05bc 0B       		.byte	0xb
 4317 05bd 27       		.byte	0x27
 4318 05be AD000000 		.4byte	0xad
 4319 05c2 09       		.byte	0x9
 4320 05c3 06       		.uleb128 0x6
 4321 05c4 F7020000 		.4byte	.LASF90
 4322 05c8 0B       		.byte	0xb
 4323 05c9 2A       		.byte	0x2a
 4324 05ca AD000000 		.4byte	0xad
 4325 05ce 0A       		.byte	0xa
 4326 05cf 06       		.uleb128 0x6
 4327 05d0 A1020000 		.4byte	.LASF91
 4328 05d4 0B       		.byte	0xb
 4329 05d5 2B       		.byte	0x2b
 4330 05d6 AD000000 		.4byte	0xad
 4331 05da 0B       		.byte	0xb
 4332 05db 06       		.uleb128 0x6
 4333 05dc 9D010000 		.4byte	.LASF92
 4334 05e0 0B       		.byte	0xb
 4335 05e1 2E       		.byte	0x2e
 4336 05e2 AD000000 		.4byte	0xad
 4337 05e6 0C       		.byte	0xc
 4338 05e7 06       		.uleb128 0x6
 4339 05e8 A8010000 		.4byte	.LASF93
 4340 05ec 0B       		.byte	0xb
 4341 05ed 2F       		.byte	0x2f
 4342 05ee AD000000 		.4byte	0xad
 4343 05f2 0D       		.byte	0xd
 4344 05f3 06       		.uleb128 0x6
 4345 05f4 8A000000 		.4byte	.LASF94
 4346 05f8 0B       		.byte	0xb
 4347 05f9 32       		.byte	0x32
 4348 05fa AD000000 		.4byte	0xad
 4349 05fe 0E       		.byte	0xe
 4350 05ff 06       		.uleb128 0x6
 4351 0600 DF020000 		.4byte	.LASF95
ARM GAS  /tmp/ccOGUWYP.s 			page 78


 4352 0604 0B       		.byte	0xb
 4353 0605 35       		.byte	0x35
 4354 0606 AD000000 		.4byte	0xad
 4355 060a 0F       		.byte	0xf
 4356 060b 06       		.uleb128 0x6
 4357 060c 55040000 		.4byte	.LASF96
 4358 0610 0B       		.byte	0xb
 4359 0611 38       		.byte	0x38
 4360 0612 A0080000 		.4byte	0x8a0
 4361 0616 10       		.byte	0x10
 4362 0617 06       		.uleb128 0x6
 4363 0618 E6010000 		.4byte	.LASF97
 4364 061c 0B       		.byte	0xb
 4365 061d 3C       		.byte	0x3c
 4366 061e FA080000 		.4byte	0x8fa
 4367 0622 14       		.byte	0x14
 4368 0623 06       		.uleb128 0x6
 4369 0624 18010000 		.4byte	.LASF98
 4370 0628 0B       		.byte	0xb
 4371 0629 40       		.byte	0x40
 4372 062a 28090000 		.4byte	0x928
 4373 062e 18       		.byte	0x18
 4374 062f 00       		.byte	0
 4375 0630 11       		.uleb128 0x11
 4376 0631 EE080000 		.4byte	.LASF99
 4377 0635 02       		.byte	0x2
 4378 0636 0A       		.byte	0xa
 4379 0637 44       		.byte	0x44
 4380 0638 66060000 		.4byte	0x666
 4381 063c 12       		.uleb128 0x12
 4382 063d 25030000 		.4byte	.LASF100
 4383 0641 00       		.sleb128 0
 4384 0642 12       		.uleb128 0x12
 4385 0643 640A0000 		.4byte	.LASF101
 4386 0647 DA00     		.sleb128 90
 4387 0649 12       		.uleb128 0x12
 4388 064a E5050000 		.4byte	.LASF102
 4389 064e B401     		.sleb128 180
 4390 0650 12       		.uleb128 0x12
 4391 0651 59070000 		.4byte	.LASF103
 4392 0655 8E02     		.sleb128 270
 4393 0657 12       		.uleb128 0x12
 4394 0658 63010000 		.4byte	.LASF104
 4395 065c E807     		.sleb128 1000
 4396 065e 12       		.uleb128 0x12
 4397 065f A30A0000 		.4byte	.LASF105
 4398 0663 E907     		.sleb128 1001
 4399 0665 00       		.byte	0
 4400 0666 04       		.uleb128 0x4
 4401 0667 05030000 		.4byte	.LASF106
 4402 066b 0A       		.byte	0xa
 4403 066c 44       		.byte	0x44
 4404 066d 30060000 		.4byte	0x630
 4405 0671 11       		.uleb128 0x11
 4406 0672 5A020000 		.4byte	.LASF107
 4407 0676 01       		.byte	0x1
 4408 0677 0A       		.byte	0xa
ARM GAS  /tmp/ccOGUWYP.s 			page 79


 4409 0678 48       		.byte	0x48
 4410 0679 96060000 		.4byte	0x696
 4411 067d 12       		.uleb128 0x12
 4412 067e 17040000 		.4byte	.LASF108
 4413 0682 00       		.sleb128 0
 4414 0683 12       		.uleb128 0x12
 4415 0684 86090000 		.4byte	.LASF109
 4416 0688 01       		.sleb128 1
 4417 0689 12       		.uleb128 0x12
 4418 068a 6E060000 		.4byte	.LASF110
 4419 068e 02       		.sleb128 2
 4420 068f 12       		.uleb128 0x12
 4421 0690 68040000 		.4byte	.LASF111
 4422 0694 03       		.sleb128 3
 4423 0695 00       		.byte	0
 4424 0696 04       		.uleb128 0x4
 4425 0697 0B040000 		.4byte	.LASF112
 4426 069b 0A       		.byte	0xa
 4427 069c 48       		.byte	0x48
 4428 069d 71060000 		.4byte	0x671
 4429 06a1 05       		.uleb128 0x5
 4430 06a2 E7060000 		.4byte	.LASF113
 4431 06a6 0A       		.byte	0xa
 4432 06a7 0A       		.byte	0xa
 4433 06a8 4F       		.byte	0x4f
 4434 06a9 F6060000 		.4byte	0x6f6
 4435 06ad 06       		.uleb128 0x6
 4436 06ae 9D0A0000 		.4byte	.LASF114
 4437 06b2 0A       		.byte	0xa
 4438 06b3 50       		.byte	0x50
 4439 06b4 00050000 		.4byte	0x500
 4440 06b8 00       		.byte	0
 4441 06b9 06       		.uleb128 0x6
 4442 06ba A5000000 		.4byte	.LASF115
 4443 06be 0A       		.byte	0xa
 4444 06bf 51       		.byte	0x51
 4445 06c0 00050000 		.4byte	0x500
 4446 06c4 02       		.byte	0x2
 4447 06c5 06       		.uleb128 0x6
 4448 06c6 AF020000 		.4byte	.LASF116
 4449 06ca 0A       		.byte	0xa
 4450 06cb 52       		.byte	0x52
 4451 06cc 66060000 		.4byte	0x666
 4452 06d0 04       		.byte	0x4
 4453 06d1 06       		.uleb128 0x6
 4454 06d2 6E000000 		.4byte	.LASF117
 4455 06d6 0A       		.byte	0xa
 4456 06d7 53       		.byte	0x53
 4457 06d8 96060000 		.4byte	0x696
 4458 06dc 06       		.byte	0x6
 4459 06dd 06       		.uleb128 0x6
 4460 06de 50090000 		.4byte	.LASF118
 4461 06e2 0A       		.byte	0xa
 4462 06e3 54       		.byte	0x54
 4463 06e4 AD000000 		.4byte	0xad
 4464 06e8 07       		.byte	0x7
 4465 06e9 06       		.uleb128 0x6
ARM GAS  /tmp/ccOGUWYP.s 			page 80


 4466 06ea E5030000 		.4byte	.LASF119
 4467 06ee 0A       		.byte	0xa
 4468 06ef 55       		.byte	0x55
 4469 06f0 AD000000 		.4byte	0xad
 4470 06f4 08       		.byte	0x8
 4471 06f5 00       		.byte	0
 4472 06f6 04       		.uleb128 0x4
 4473 06f7 E7060000 		.4byte	.LASF113
 4474 06fb 0A       		.byte	0xa
 4475 06fc 56       		.byte	0x56
 4476 06fd A1060000 		.4byte	0x6a1
 4477 0701 04       		.uleb128 0x4
 4478 0702 33020000 		.4byte	.LASF120
 4479 0706 0A       		.byte	0xa
 4480 0707 5C       		.byte	0x5c
 4481 0708 0C070000 		.4byte	0x70c
 4482 070c 05       		.uleb128 0x5
 4483 070d 33020000 		.4byte	.LASF120
 4484 0711 58       		.byte	0x58
 4485 0712 0C       		.byte	0xc
 4486 0713 B9       		.byte	0xb9
 4487 0714 AF070000 		.4byte	0x7af
 4488 0718 07       		.uleb128 0x7
 4489 0719 6700     		.ascii	"g\000"
 4490 071b 0C       		.byte	0xc
 4491 071c BB       		.byte	0xbb
 4492 071d F6060000 		.4byte	0x6f6
 4493 0721 00       		.byte	0
 4494 0722 06       		.uleb128 0x6
 4495 0723 31010000 		.4byte	.LASF121
 4496 0727 0C       		.byte	0xc
 4497 0728 C1       		.byte	0xc1
 4498 0729 CA020000 		.4byte	0x2ca
 4499 072d 0C       		.byte	0xc
 4500 072e 06       		.uleb128 0x6
 4501 072f B9080000 		.4byte	.LASF122
 4502 0733 0C       		.byte	0xc
 4503 0734 C2       		.byte	0xc2
 4504 0735 CA020000 		.4byte	0x2ca
 4505 0739 10       		.byte	0x10
 4506 073a 06       		.uleb128 0x6
 4507 073b EA0A0000 		.4byte	.LASF123
 4508 073f 0C       		.byte	0xc
 4509 0740 C4       		.byte	0xc4
 4510 0741 AD000000 		.4byte	0xad
 4511 0745 14       		.byte	0x14
 4512 0746 06       		.uleb128 0x6
 4513 0747 81020000 		.4byte	.LASF124
 4514 074b 0C       		.byte	0xc
 4515 074c C5       		.byte	0xc5
 4516 074d AD000000 		.4byte	0xad
 4517 0751 15       		.byte	0x15
 4518 0752 06       		.uleb128 0x6
 4519 0753 DF020000 		.4byte	.LASF95
 4520 0757 0C       		.byte	0xc
 4521 0758 C6       		.byte	0xc6
 4522 0759 C3000000 		.4byte	0xc3
ARM GAS  /tmp/ccOGUWYP.s 			page 81


 4523 075d 16       		.byte	0x16
 4524 075e 06       		.uleb128 0x6
 4525 075f F7040000 		.4byte	.LASF125
 4526 0763 0C       		.byte	0xc
 4527 0764 CD       		.byte	0xcd
 4528 0765 F5040000 		.4byte	0x4f5
 4529 0769 18       		.byte	0x18
 4530 076a 06       		.uleb128 0x6
 4531 076b 81040000 		.4byte	.LASF126
 4532 076f 0C       		.byte	0xc
 4533 0770 D2       		.byte	0xd2
 4534 0771 00050000 		.4byte	0x500
 4535 0775 28       		.byte	0x28
 4536 0776 06       		.uleb128 0x6
 4537 0777 CF040000 		.4byte	.LASF127
 4538 077b 0C       		.byte	0xc
 4539 077c D2       		.byte	0xd2
 4540 077d 00050000 		.4byte	0x500
 4541 0781 2A       		.byte	0x2a
 4542 0782 06       		.uleb128 0x6
 4543 0783 88040000 		.4byte	.LASF128
 4544 0787 0C       		.byte	0xc
 4545 0788 D3       		.byte	0xd3
 4546 0789 00050000 		.4byte	0x500
 4547 078d 2C       		.byte	0x2c
 4548 078e 06       		.uleb128 0x6
 4549 078f D6040000 		.4byte	.LASF129
 4550 0793 0C       		.byte	0xc
 4551 0794 D3       		.byte	0xd3
 4552 0795 00050000 		.4byte	0x500
 4553 0799 2E       		.byte	0x2e
 4554 079a 07       		.uleb128 0x7
 4555 079b 7000     		.ascii	"p\000"
 4556 079d 0C       		.byte	0xc
 4557 079e DE       		.byte	0xde
 4558 079f CC070000 		.4byte	0x7cc
 4559 07a3 30       		.byte	0x30
 4560 07a4 07       		.uleb128 0x7
 4561 07a5 7400     		.ascii	"t\000"
 4562 07a7 0C       		.byte	0xc
 4563 07a8 EA       		.byte	0xea
 4564 07a9 43080000 		.4byte	0x843
 4565 07ad 48       		.byte	0x48
 4566 07ae 00       		.byte	0
 4567 07af 13       		.uleb128 0x13
 4568 07b0 BF080000 		.4byte	.LASF130
 4569 07b4 0D       		.byte	0xd
 4570 07b5 7401     		.2byte	0x174
 4571 07b7 C3000000 		.4byte	0xc3
 4572 07bb 04       		.uleb128 0x4
 4573 07bc 73030000 		.4byte	.LASF131
 4574 07c0 0A       		.byte	0xa
 4575 07c1 C1       		.byte	0xc1
 4576 07c2 AF070000 		.4byte	0x7af
 4577 07c6 09       		.uleb128 0x9
 4578 07c7 04       		.byte	0x4
 4579 07c8 01070000 		.4byte	0x701
ARM GAS  /tmp/ccOGUWYP.s 			page 82


 4580 07cc 08       		.uleb128 0x8
 4581 07cd 18       		.byte	0x18
 4582 07ce 0C       		.byte	0xc
 4583 07cf D7       		.byte	0xd7
 4584 07d0 43080000 		.4byte	0x843
 4585 07d4 07       		.uleb128 0x7
 4586 07d5 7800     		.ascii	"x\000"
 4587 07d7 0C       		.byte	0xc
 4588 07d8 D8       		.byte	0xd8
 4589 07d9 00050000 		.4byte	0x500
 4590 07dd 00       		.byte	0
 4591 07de 07       		.uleb128 0x7
 4592 07df 7900     		.ascii	"y\000"
 4593 07e1 0C       		.byte	0xc
 4594 07e2 D8       		.byte	0xd8
 4595 07e3 00050000 		.4byte	0x500
 4596 07e7 02       		.byte	0x2
 4597 07e8 07       		.uleb128 0x7
 4598 07e9 637800   		.ascii	"cx\000"
 4599 07ec 0C       		.byte	0xc
 4600 07ed D9       		.byte	0xd9
 4601 07ee 00050000 		.4byte	0x500
 4602 07f2 04       		.byte	0x4
 4603 07f3 07       		.uleb128 0x7
 4604 07f4 637900   		.ascii	"cy\000"
 4605 07f7 0C       		.byte	0xc
 4606 07f8 D9       		.byte	0xd9
 4607 07f9 00050000 		.4byte	0x500
 4608 07fd 06       		.byte	0x6
 4609 07fe 07       		.uleb128 0x7
 4610 07ff 783100   		.ascii	"x1\000"
 4611 0802 0C       		.byte	0xc
 4612 0803 DA       		.byte	0xda
 4613 0804 00050000 		.4byte	0x500
 4614 0808 08       		.byte	0x8
 4615 0809 07       		.uleb128 0x7
 4616 080a 793100   		.ascii	"y1\000"
 4617 080d 0C       		.byte	0xc
 4618 080e DA       		.byte	0xda
 4619 080f 00050000 		.4byte	0x500
 4620 0813 0A       		.byte	0xa
 4621 0814 07       		.uleb128 0x7
 4622 0815 783200   		.ascii	"x2\000"
 4623 0818 0C       		.byte	0xc
 4624 0819 DB       		.byte	0xdb
 4625 081a 00050000 		.4byte	0x500
 4626 081e 0C       		.byte	0xc
 4627 081f 07       		.uleb128 0x7
 4628 0820 793200   		.ascii	"y2\000"
 4629 0823 0C       		.byte	0xc
 4630 0824 DB       		.byte	0xdb
 4631 0825 00050000 		.4byte	0x500
 4632 0829 0E       		.byte	0xe
 4633 082a 06       		.uleb128 0x6
 4634 082b 53070000 		.4byte	.LASF132
 4635 082f 0C       		.byte	0xc
 4636 0830 DC       		.byte	0xdc
ARM GAS  /tmp/ccOGUWYP.s 			page 83


 4637 0831 AF070000 		.4byte	0x7af
 4638 0835 10       		.byte	0x10
 4639 0836 07       		.uleb128 0x7
 4640 0837 70747200 		.ascii	"ptr\000"
 4641 083b 0C       		.byte	0xc
 4642 083c DD       		.byte	0xdd
 4643 083d CA020000 		.4byte	0x2ca
 4644 0841 14       		.byte	0x14
 4645 0842 00       		.byte	0
 4646 0843 08       		.uleb128 0x8
 4647 0844 10       		.byte	0x10
 4648 0845 0C       		.byte	0xc
 4649 0846 E4       		.byte	0xe4
 4650 0847 A0080000 		.4byte	0x8a0
 4651 084b 06       		.uleb128 0x6
 4652 084c 2D060000 		.4byte	.LASF133
 4653 0850 0C       		.byte	0xc
 4654 0851 E5       		.byte	0xe5
 4655 0852 71050000 		.4byte	0x571
 4656 0856 00       		.byte	0
 4657 0857 06       		.uleb128 0x6
 4658 0858 53070000 		.4byte	.LASF132
 4659 085c 0C       		.byte	0xc
 4660 085d E6       		.byte	0xe6
 4661 085e AF070000 		.4byte	0x7af
 4662 0862 04       		.byte	0x4
 4663 0863 06       		.uleb128 0x6
 4664 0864 54050000 		.4byte	.LASF134
 4665 0868 0C       		.byte	0xc
 4666 0869 E7       		.byte	0xe7
 4667 086a AF070000 		.4byte	0x7af
 4668 086e 06       		.byte	0x6
 4669 086f 06       		.uleb128 0x6
 4670 0870 81040000 		.4byte	.LASF126
 4671 0874 0C       		.byte	0xc
 4672 0875 E8       		.byte	0xe8
 4673 0876 00050000 		.4byte	0x500
 4674 087a 08       		.byte	0x8
 4675 087b 06       		.uleb128 0x6
 4676 087c CF040000 		.4byte	.LASF127
 4677 0880 0C       		.byte	0xc
 4678 0881 E8       		.byte	0xe8
 4679 0882 00050000 		.4byte	0x500
 4680 0886 0A       		.byte	0xa
 4681 0887 06       		.uleb128 0x6
 4682 0888 88040000 		.4byte	.LASF128
 4683 088c 0C       		.byte	0xc
 4684 088d E9       		.byte	0xe9
 4685 088e 00050000 		.4byte	0x500
 4686 0892 0C       		.byte	0xc
 4687 0893 06       		.uleb128 0x6
 4688 0894 D6040000 		.4byte	.LASF129
 4689 0898 0C       		.byte	0xc
 4690 0899 E9       		.byte	0xe9
 4691 089a 00050000 		.4byte	0x500
 4692 089e 0E       		.byte	0xe
 4693 089f 00       		.byte	0
ARM GAS  /tmp/ccOGUWYP.s 			page 84


 4694 08a0 04       		.uleb128 0x4
 4695 08a1 29010000 		.4byte	.LASF135
 4696 08a5 0E       		.byte	0xe
 4697 08a6 18       		.byte	0x18
 4698 08a7 C3000000 		.4byte	0xc3
 4699 08ab 04       		.uleb128 0x4
 4700 08ac 00000000 		.4byte	.LASF136
 4701 08b0 0E       		.byte	0xe
 4702 08b1 1F       		.byte	0x1f
 4703 08b2 C7040000 		.4byte	0x4c7
 4704 08b6 04       		.uleb128 0x4
 4705 08b7 AC000000 		.4byte	.LASF137
 4706 08bb 0B       		.byte	0xb
 4707 08bc 19       		.byte	0x19
 4708 08bd C1080000 		.4byte	0x8c1
 4709 08c1 09       		.uleb128 0x9
 4710 08c2 04       		.byte	0x4
 4711 08c3 C7080000 		.4byte	0x8c7
 4712 08c7 14       		.uleb128 0x14
 4713 08c8 E6080000 		.4byte	0x8e6
 4714 08cc 15       		.uleb128 0x15
 4715 08cd B8000000 		.4byte	0xb8
 4716 08d1 15       		.uleb128 0x15
 4717 08d2 B8000000 		.4byte	0xb8
 4718 08d6 15       		.uleb128 0x15
 4719 08d7 AD000000 		.4byte	0xad
 4720 08db 15       		.uleb128 0x15
 4721 08dc AD000000 		.4byte	0xad
 4722 08e0 15       		.uleb128 0x15
 4723 08e1 CA020000 		.4byte	0x2ca
 4724 08e5 00       		.byte	0
 4725 08e6 16       		.uleb128 0x16
 4726 08e7 AD000000 		.4byte	0xad
 4727 08eb FA080000 		.4byte	0x8fa
 4728 08ef 15       		.uleb128 0x15
 4729 08f0 7C050000 		.4byte	0x57c
 4730 08f4 15       		.uleb128 0x15
 4731 08f5 A0080000 		.4byte	0x8a0
 4732 08f9 00       		.byte	0
 4733 08fa 09       		.uleb128 0x9
 4734 08fb 04       		.byte	0x4
 4735 08fc E6080000 		.4byte	0x8e6
 4736 0900 16       		.uleb128 0x16
 4737 0901 AD000000 		.4byte	0xad
 4738 0905 28090000 		.4byte	0x928
 4739 0909 15       		.uleb128 0x15
 4740 090a 7C050000 		.4byte	0x57c
 4741 090e 15       		.uleb128 0x15
 4742 090f B8000000 		.4byte	0xb8
 4743 0913 15       		.uleb128 0x15
 4744 0914 B8000000 		.4byte	0xb8
 4745 0918 15       		.uleb128 0x15
 4746 0919 A0080000 		.4byte	0x8a0
 4747 091d 15       		.uleb128 0x15
 4748 091e B6080000 		.4byte	0x8b6
 4749 0922 15       		.uleb128 0x15
 4750 0923 CA020000 		.4byte	0x2ca
ARM GAS  /tmp/ccOGUWYP.s 			page 85


 4751 0927 00       		.byte	0
 4752 0928 09       		.uleb128 0x9
 4753 0929 04       		.byte	0x4
 4754 092a 00090000 		.4byte	0x900
 4755 092e 11       		.uleb128 0x11
 4756 092f 85030000 		.4byte	.LASF138
 4757 0933 01       		.byte	0x1
 4758 0934 0F       		.byte	0xf
 4759 0935 12       		.byte	0x12
 4760 0936 4D090000 		.4byte	0x94d
 4761 093a 12       		.uleb128 0x12
 4762 093b D7030000 		.4byte	.LASF139
 4763 093f 00       		.sleb128 0
 4764 0940 12       		.uleb128 0x12
 4765 0941 29000000 		.4byte	.LASF140
 4766 0945 01       		.sleb128 1
 4767 0946 12       		.uleb128 0x12
 4768 0947 DB000000 		.4byte	.LASF141
 4769 094b 02       		.sleb128 2
 4770 094c 00       		.byte	0
 4771 094d 04       		.uleb128 0x4
 4772 094e BB020000 		.4byte	.LASF142
 4773 0952 0F       		.byte	0xf
 4774 0953 20       		.byte	0x20
 4775 0954 58090000 		.4byte	0x958
 4776 0958 09       		.uleb128 0x9
 4777 0959 04       		.byte	0x4
 4778 095a 5E090000 		.4byte	0x95e
 4779 095e 16       		.uleb128 0x16
 4780 095f AD000000 		.4byte	0xad
 4781 0963 7C090000 		.4byte	0x97c
 4782 0967 15       		.uleb128 0x15
 4783 0968 B8000000 		.4byte	0xb8
 4784 096c 15       		.uleb128 0x15
 4785 096d B8000000 		.4byte	0xb8
 4786 0971 15       		.uleb128 0x15
 4787 0972 A0080000 		.4byte	0x8a0
 4788 0976 15       		.uleb128 0x15
 4789 0977 CA020000 		.4byte	0x2ca
 4790 097b 00       		.byte	0
 4791 097c 17       		.uleb128 0x17
 4792 097d ED090000 		.4byte	.LASF143
 4793 0981 01       		.byte	0x1
 4794 0982 B3       		.byte	0xb3
 4795 0983 03       		.byte	0x3
 4796 0984 92090000 		.4byte	0x992
 4797 0988 18       		.uleb128 0x18
 4798 0989 6700     		.ascii	"g\000"
 4799 098b 01       		.byte	0x1
 4800 098c B3       		.byte	0xb3
 4801 098d C6070000 		.4byte	0x7c6
 4802 0991 00       		.byte	0
 4803 0992 19       		.uleb128 0x19
 4804 0993 04070000 		.4byte	.LASF144
 4805 0997 01       		.byte	0x1
 4806 0998 0B01     		.2byte	0x10b
 4807 099a 01       		.byte	0x1
ARM GAS  /tmp/ccOGUWYP.s 			page 86


 4808 099b AA090000 		.4byte	0x9aa
 4809 099f 1A       		.uleb128 0x1a
 4810 09a0 6700     		.ascii	"g\000"
 4811 09a2 01       		.byte	0x1
 4812 09a3 0B01     		.2byte	0x10b
 4813 09a5 C6070000 		.4byte	0x7c6
 4814 09a9 00       		.byte	0
 4815 09aa 19       		.uleb128 0x19
 4816 09ab 170B0000 		.4byte	.LASF145
 4817 09af 01       		.byte	0x1
 4818 09b0 E90A     		.2byte	0xae9
 4819 09b2 01       		.byte	0x1
 4820 09b3 F0090000 		.4byte	0x9f0
 4821 09b7 1A       		.uleb128 0x1a
 4822 09b8 7800     		.ascii	"x\000"
 4823 09ba 01       		.byte	0x1
 4824 09bb E90A     		.2byte	0xae9
 4825 09bd B8000000 		.4byte	0xb8
 4826 09c1 1A       		.uleb128 0x1a
 4827 09c2 7900     		.ascii	"y\000"
 4828 09c4 01       		.byte	0x1
 4829 09c5 E90A     		.2byte	0xae9
 4830 09c7 B8000000 		.4byte	0xb8
 4831 09cb 1B       		.uleb128 0x1b
 4832 09cc B4060000 		.4byte	.LASF146
 4833 09d0 01       		.byte	0x1
 4834 09d1 E90A     		.2byte	0xae9
 4835 09d3 AD000000 		.4byte	0xad
 4836 09d7 1B       		.uleb128 0x1b
 4837 09d8 58010000 		.4byte	.LASF147
 4838 09dc 01       		.byte	0x1
 4839 09dd E90A     		.2byte	0xae9
 4840 09df AD000000 		.4byte	0xad
 4841 09e3 1B       		.uleb128 0x1b
 4842 09e4 C0000000 		.4byte	.LASF148
 4843 09e8 01       		.byte	0x1
 4844 09e9 E90A     		.2byte	0xae9
 4845 09eb CA020000 		.4byte	0x2ca
 4846 09ef 00       		.byte	0
 4847 09f0 19       		.uleb128 0x19
 4848 09f1 73090000 		.4byte	.LASF149
 4849 09f5 01       		.byte	0x1
 4850 09f6 6301     		.2byte	0x163
 4851 09f8 01       		.byte	0x1
 4852 09f9 080A0000 		.4byte	0xa08
 4853 09fd 1A       		.uleb128 0x1a
 4854 09fe 6700     		.ascii	"g\000"
 4855 0a00 01       		.byte	0x1
 4856 0a01 6301     		.2byte	0x163
 4857 0a03 C6070000 		.4byte	0x7c6
 4858 0a07 00       		.byte	0
 4859 0a08 17       		.uleb128 0x17
 4860 0a09 0F070000 		.4byte	.LASF150
 4861 0a0d 01       		.byte	0x1
 4862 0a0e C6       		.byte	0xc6
 4863 0a0f 03       		.byte	0x3
 4864 0a10 1E0A0000 		.4byte	0xa1e
ARM GAS  /tmp/ccOGUWYP.s 			page 87


 4865 0a14 18       		.uleb128 0x18
 4866 0a15 6700     		.ascii	"g\000"
 4867 0a17 01       		.byte	0x1
 4868 0a18 C6       		.byte	0xc6
 4869 0a19 C6070000 		.4byte	0x7c6
 4870 0a1d 00       		.byte	0
 4871 0a1e 1C       		.uleb128 0x1c
 4872 0a1f 4A060000 		.4byte	.LASF151
 4873 0a23 01       		.byte	0x1
 4874 0a24 140B     		.2byte	0xb14
 4875 0a26 AD000000 		.4byte	0xad
 4876 0a2a 00000000 		.4byte	.LFB133
 4877 0a2e 24000000 		.4byte	.LFE133-.LFB133
 4878 0a32 01       		.uleb128 0x1
 4879 0a33 9C       		.byte	0x9c
 4880 0a34 990A0000 		.4byte	0xa99
 4881 0a38 1D       		.uleb128 0x1d
 4882 0a39 7800     		.ascii	"x\000"
 4883 0a3b 01       		.byte	0x1
 4884 0a3c 140B     		.2byte	0xb14
 4885 0a3e B8000000 		.4byte	0xb8
 4886 0a42 00000000 		.4byte	.LLST0
 4887 0a46 1D       		.uleb128 0x1d
 4888 0a47 7900     		.ascii	"y\000"
 4889 0a49 01       		.byte	0x1
 4890 0a4a 140B     		.2byte	0xb14
 4891 0a4c B8000000 		.4byte	0xb8
 4892 0a50 21000000 		.4byte	.LLST1
 4893 0a54 1D       		.uleb128 0x1d
 4894 0a55 636800   		.ascii	"ch\000"
 4895 0a58 01       		.byte	0x1
 4896 0a59 140B     		.2byte	0xb14
 4897 0a5b A0080000 		.4byte	0x8a0
 4898 0a5f 42000000 		.4byte	.LLST2
 4899 0a63 1E       		.uleb128 0x1e
 4900 0a64 C0000000 		.4byte	.LASF148
 4901 0a68 01       		.byte	0x1
 4902 0a69 140B     		.2byte	0xb14
 4903 0a6b CA020000 		.4byte	0x2ca
 4904 0a6f 63000000 		.4byte	.LLST3
 4905 0a73 1F       		.uleb128 0x1f
 4906 0a74 1A000000 		.4byte	.LVL5
 4907 0a78 58210000 		.4byte	0x2158
 4908 0a7c 20       		.uleb128 0x20
 4909 0a7d 01       		.uleb128 0x1
 4910 0a7e 52       		.byte	0x52
 4911 0a7f 02       		.uleb128 0x2
 4912 0a80 75       		.byte	0x75
 4913 0a81 00       		.sleb128 0
 4914 0a82 20       		.uleb128 0x20
 4915 0a83 01       		.uleb128 0x1
 4916 0a84 51       		.byte	0x51
 4917 0a85 02       		.uleb128 0x2
 4918 0a86 76       		.byte	0x76
 4919 0a87 00       		.sleb128 0
 4920 0a88 20       		.uleb128 0x20
 4921 0a89 02       		.uleb128 0x2
ARM GAS  /tmp/ccOGUWYP.s 			page 88


 4922 0a8a 7D       		.byte	0x7d
 4923 0a8b 04       		.sleb128 4
 4924 0a8c 03       		.uleb128 0x3
 4925 0a8d F3       		.byte	0xf3
 4926 0a8e 01       		.uleb128 0x1
 4927 0a8f 53       		.byte	0x53
 4928 0a90 20       		.uleb128 0x20
 4929 0a91 02       		.uleb128 0x2
 4930 0a92 7D       		.byte	0x7d
 4931 0a93 00       		.sleb128 0
 4932 0a94 02       		.uleb128 0x2
 4933 0a95 74       		.byte	0x74
 4934 0a96 00       		.sleb128 0
 4935 0a97 00       		.byte	0
 4936 0a98 00       		.byte	0
 4937 0a99 1C       		.uleb128 0x1c
 4938 0a9a F6050000 		.4byte	.LASF152
 4939 0a9e 01       		.byte	0x1
 4940 0a9f 1B0B     		.2byte	0xb1b
 4941 0aa1 AD000000 		.4byte	0xad
 4942 0aa5 00000000 		.4byte	.LFB134
 4943 0aa9 24000000 		.4byte	.LFE134-.LFB134
 4944 0aad 01       		.uleb128 0x1
 4945 0aae 9C       		.byte	0x9c
 4946 0aaf 140B0000 		.4byte	0xb14
 4947 0ab3 1D       		.uleb128 0x1d
 4948 0ab4 7800     		.ascii	"x\000"
 4949 0ab6 01       		.byte	0x1
 4950 0ab7 1B0B     		.2byte	0xb1b
 4951 0ab9 B8000000 		.4byte	0xb8
 4952 0abd 90000000 		.4byte	.LLST4
 4953 0ac1 1D       		.uleb128 0x1d
 4954 0ac2 7900     		.ascii	"y\000"
 4955 0ac4 01       		.byte	0x1
 4956 0ac5 1B0B     		.2byte	0xb1b
 4957 0ac7 B8000000 		.4byte	0xb8
 4958 0acb B1000000 		.4byte	.LLST5
 4959 0acf 1D       		.uleb128 0x1d
 4960 0ad0 636800   		.ascii	"ch\000"
 4961 0ad3 01       		.byte	0x1
 4962 0ad4 1B0B     		.2byte	0xb1b
 4963 0ad6 A0080000 		.4byte	0x8a0
 4964 0ada D2000000 		.4byte	.LLST6
 4965 0ade 1E       		.uleb128 0x1e
 4966 0adf C0000000 		.4byte	.LASF148
 4967 0ae3 01       		.byte	0x1
 4968 0ae4 1B0B     		.2byte	0xb1b
 4969 0ae6 CA020000 		.4byte	0x2ca
 4970 0aea F3000000 		.4byte	.LLST7
 4971 0aee 1F       		.uleb128 0x1f
 4972 0aef 1A000000 		.4byte	.LVL11
 4973 0af3 58210000 		.4byte	0x2158
 4974 0af7 20       		.uleb128 0x20
 4975 0af8 01       		.uleb128 0x1
 4976 0af9 52       		.byte	0x52
 4977 0afa 02       		.uleb128 0x2
 4978 0afb 75       		.byte	0x75
ARM GAS  /tmp/ccOGUWYP.s 			page 89


 4979 0afc 00       		.sleb128 0
 4980 0afd 20       		.uleb128 0x20
 4981 0afe 01       		.uleb128 0x1
 4982 0aff 51       		.byte	0x51
 4983 0b00 02       		.uleb128 0x2
 4984 0b01 76       		.byte	0x76
 4985 0b02 00       		.sleb128 0
 4986 0b03 20       		.uleb128 0x20
 4987 0b04 02       		.uleb128 0x2
 4988 0b05 7D       		.byte	0x7d
 4989 0b06 04       		.sleb128 4
 4990 0b07 03       		.uleb128 0x3
 4991 0b08 F3       		.byte	0xf3
 4992 0b09 01       		.uleb128 0x1
 4993 0b0a 53       		.byte	0x53
 4994 0b0b 20       		.uleb128 0x20
 4995 0b0c 02       		.uleb128 0x2
 4996 0b0d 7D       		.byte	0x7d
 4997 0b0e 00       		.sleb128 0
 4998 0b0f 02       		.uleb128 0x2
 4999 0b10 74       		.byte	0x74
 5000 0b11 00       		.sleb128 0
 5001 0b12 00       		.byte	0
 5002 0b13 00       		.byte	0
 5003 0b14 17       		.uleb128 0x17
 5004 0b15 0E010000 		.4byte	.LASF153
 5005 0b19 01       		.byte	0x1
 5006 0b1a 84       		.byte	0x84
 5007 0b1b 03       		.byte	0x3
 5008 0b1c 2A0B0000 		.4byte	0xb2a
 5009 0b20 18       		.uleb128 0x18
 5010 0b21 6700     		.ascii	"g\000"
 5011 0b23 01       		.byte	0x1
 5012 0b24 84       		.byte	0x84
 5013 0b25 C6070000 		.4byte	0x7c6
 5014 0b29 00       		.byte	0
 5015 0b2a 17       		.uleb128 0x17
 5016 0b2b 3D0A0000 		.4byte	.LASF154
 5017 0b2f 01       		.byte	0x1
 5018 0b30 60       		.byte	0x60
 5019 0b31 03       		.byte	0x3
 5020 0b32 520B0000 		.4byte	0xb52
 5021 0b36 18       		.uleb128 0x18
 5022 0b37 6700     		.ascii	"g\000"
 5023 0b39 01       		.byte	0x1
 5024 0b3a 60       		.byte	0x60
 5025 0b3b C6070000 		.4byte	0x7c6
 5026 0b3f 21       		.uleb128 0x21
 5027 0b40 7800     		.ascii	"x\000"
 5028 0b42 01       		.byte	0x1
 5029 0b43 61       		.byte	0x61
 5030 0b44 00050000 		.4byte	0x500
 5031 0b48 21       		.uleb128 0x21
 5032 0b49 7900     		.ascii	"y\000"
 5033 0b4b 01       		.byte	0x1
 5034 0b4c 61       		.byte	0x61
 5035 0b4d 00050000 		.4byte	0x500
ARM GAS  /tmp/ccOGUWYP.s 			page 90


 5036 0b51 00       		.byte	0
 5037 0b52 22       		.uleb128 0x22
 5038 0b53 92090000 		.4byte	0x992
 5039 0b57 00000000 		.4byte	.LFB115
 5040 0b5b A8000000 		.4byte	.LFE115-.LFB115
 5041 0b5f 01       		.uleb128 0x1
 5042 0b60 9C       		.byte	0x9c
 5043 0b61 1B0C0000 		.4byte	0xc1b
 5044 0b65 23       		.uleb128 0x23
 5045 0b66 9F090000 		.4byte	0x99f
 5046 0b6a 20010000 		.4byte	.LLST8
 5047 0b6e 24       		.uleb128 0x24
 5048 0b6f 00000000 		.4byte	.Ldebug_ranges0+0
 5049 0b73 23       		.uleb128 0x23
 5050 0b74 9F090000 		.4byte	0x99f
 5051 0b78 7B010000 		.4byte	.LLST9
 5052 0b7c 25       		.uleb128 0x25
 5053 0b7d 140B0000 		.4byte	0xb14
 5054 0b81 70000000 		.4byte	.LBB18
 5055 0b85 20000000 		.4byte	.Ldebug_ranges0+0x20
 5056 0b89 01       		.byte	0x1
 5057 0b8a 2301     		.2byte	0x123
 5058 0b8c 080C0000 		.4byte	0xc08
 5059 0b90 23       		.uleb128 0x23
 5060 0b91 200B0000 		.4byte	0xb20
 5061 0b95 CB010000 		.4byte	.LLST10
 5062 0b99 26       		.uleb128 0x26
 5063 0b9a 2A0B0000 		.4byte	0xb2a
 5064 0b9e 7A000000 		.4byte	.LBB20
 5065 0ba2 1E000000 		.4byte	.LBE20-.LBB20
 5066 0ba6 01       		.byte	0x1
 5067 0ba7 98       		.byte	0x98
 5068 0ba8 E20B0000 		.4byte	0xbe2
 5069 0bac 23       		.uleb128 0x23
 5070 0bad 360B0000 		.4byte	0xb36
 5071 0bb1 F7010000 		.4byte	.LLST11
 5072 0bb5 27       		.uleb128 0x27
 5073 0bb6 7A000000 		.4byte	.LBB21
 5074 0bba 1E000000 		.4byte	.LBE21-.LBB21
 5075 0bbe 28       		.uleb128 0x28
 5076 0bbf 3F0B0000 		.4byte	0xb3f
 5077 0bc3 0A020000 		.4byte	.LLST12
 5078 0bc7 28       		.uleb128 0x28
 5079 0bc8 480B0000 		.4byte	0xb48
 5080 0bcc 1D020000 		.4byte	.LLST13
 5081 0bd0 1F       		.uleb128 0x1f
 5082 0bd1 8C000000 		.4byte	.LVL20
 5083 0bd5 86210000 		.4byte	0x2186
 5084 0bd9 20       		.uleb128 0x20
 5085 0bda 01       		.uleb128 0x1
 5086 0bdb 50       		.byte	0x50
 5087 0bdc 02       		.uleb128 0x2
 5088 0bdd 74       		.byte	0x74
 5089 0bde 00       		.sleb128 0
 5090 0bdf 00       		.byte	0
 5091 0be0 00       		.byte	0
 5092 0be1 00       		.byte	0
ARM GAS  /tmp/ccOGUWYP.s 			page 91


 5093 0be2 29       		.uleb128 0x29
 5094 0be3 9E000000 		.4byte	.LVL22
 5095 0be7 98210000 		.4byte	0x2198
 5096 0beb F60B0000 		.4byte	0xbf6
 5097 0bef 20       		.uleb128 0x20
 5098 0bf0 01       		.uleb128 0x1
 5099 0bf1 50       		.byte	0x50
 5100 0bf2 02       		.uleb128 0x2
 5101 0bf3 74       		.byte	0x74
 5102 0bf4 00       		.sleb128 0
 5103 0bf5 00       		.byte	0
 5104 0bf6 2A       		.uleb128 0x2a
 5105 0bf7 A8000000 		.4byte	.LVL24
 5106 0bfb AA210000 		.4byte	0x21aa
 5107 0bff 20       		.uleb128 0x20
 5108 0c00 01       		.uleb128 0x1
 5109 0c01 50       		.byte	0x50
 5110 0c02 03       		.uleb128 0x3
 5111 0c03 F3       		.byte	0xf3
 5112 0c04 01       		.uleb128 0x1
 5113 0c05 50       		.byte	0x50
 5114 0c06 00       		.byte	0
 5115 0c07 00       		.byte	0
 5116 0c08 2A       		.uleb128 0x2a
 5117 0c09 64000000 		.4byte	.LVL16
 5118 0c0d BC210000 		.4byte	0x21bc
 5119 0c11 20       		.uleb128 0x20
 5120 0c12 01       		.uleb128 0x1
 5121 0c13 50       		.byte	0x50
 5122 0c14 03       		.uleb128 0x3
 5123 0c15 F3       		.byte	0xf3
 5124 0c16 01       		.uleb128 0x1
 5125 0c17 50       		.byte	0x50
 5126 0c18 00       		.byte	0
 5127 0c19 00       		.byte	0
 5128 0c1a 00       		.byte	0
 5129 0c1b 22       		.uleb128 0x22
 5130 0c1c AA090000 		.4byte	0x9aa
 5131 0c20 00000000 		.4byte	.LFB132
 5132 0c24 66000000 		.4byte	.LFE132-.LFB132
 5133 0c28 01       		.uleb128 0x1
 5134 0c29 9C       		.byte	0x9c
 5135 0c2a A00C0000 		.4byte	0xca0
 5136 0c2e 23       		.uleb128 0x23
 5137 0c2f B7090000 		.4byte	0x9b7
 5138 0c33 30020000 		.4byte	.LLST14
 5139 0c37 23       		.uleb128 0x23
 5140 0c38 C1090000 		.4byte	0x9c1
 5141 0c3c 51020000 		.4byte	.LLST15
 5142 0c40 23       		.uleb128 0x23
 5143 0c41 CB090000 		.4byte	0x9cb
 5144 0c45 7D020000 		.4byte	.LLST16
 5145 0c49 23       		.uleb128 0x23
 5146 0c4a D7090000 		.4byte	0x9d7
 5147 0c4e 9E020000 		.4byte	.LLST17
 5148 0c52 23       		.uleb128 0x23
 5149 0c53 E3090000 		.4byte	0x9e3
ARM GAS  /tmp/ccOGUWYP.s 			page 92


 5150 0c57 CA020000 		.4byte	.LLST18
 5151 0c5b 24       		.uleb128 0x24
 5152 0c5c 38000000 		.4byte	.Ldebug_ranges0+0x38
 5153 0c60 23       		.uleb128 0x23
 5154 0c61 E3090000 		.4byte	0x9e3
 5155 0c65 02030000 		.4byte	.LLST19
 5156 0c69 23       		.uleb128 0x23
 5157 0c6a D7090000 		.4byte	0x9d7
 5158 0c6e 21030000 		.4byte	.LLST20
 5159 0c72 23       		.uleb128 0x23
 5160 0c73 CB090000 		.4byte	0x9cb
 5161 0c77 34030000 		.4byte	.LLST21
 5162 0c7b 23       		.uleb128 0x23
 5163 0c7c C1090000 		.4byte	0x9c1
 5164 0c80 5D030000 		.4byte	.LLST22
 5165 0c84 23       		.uleb128 0x23
 5166 0c85 B7090000 		.4byte	0x9b7
 5167 0c89 70030000 		.4byte	.LLST23
 5168 0c8d 2A       		.uleb128 0x2a
 5169 0c8e 62000000 		.4byte	.LVL36
 5170 0c92 92090000 		.4byte	0x992
 5171 0c96 20       		.uleb128 0x20
 5172 0c97 01       		.uleb128 0x1
 5173 0c98 50       		.byte	0x50
 5174 0c99 03       		.uleb128 0x3
 5175 0c9a 7D       		.byte	0x7d
 5176 0c9b 00       		.sleb128 0
 5177 0c9c 06       		.byte	0x6
 5178 0c9d 00       		.byte	0
 5179 0c9e 00       		.byte	0
 5180 0c9f 00       		.byte	0
 5181 0ca0 22       		.uleb128 0x22
 5182 0ca1 F0090000 		.4byte	0x9f0
 5183 0ca5 00000000 		.4byte	.LFB116
 5184 0ca9 A8000000 		.4byte	.LFE116-.LFB116
 5185 0cad 01       		.uleb128 0x1
 5186 0cae 9C       		.byte	0x9c
 5187 0caf 690D0000 		.4byte	0xd69
 5188 0cb3 23       		.uleb128 0x23
 5189 0cb4 FD090000 		.4byte	0x9fd
 5190 0cb8 9B030000 		.4byte	.LLST24
 5191 0cbc 24       		.uleb128 0x24
 5192 0cbd 50000000 		.4byte	.Ldebug_ranges0+0x50
 5193 0cc1 23       		.uleb128 0x23
 5194 0cc2 FD090000 		.4byte	0x9fd
 5195 0cc6 F6030000 		.4byte	.LLST25
 5196 0cca 25       		.uleb128 0x25
 5197 0ccb 140B0000 		.4byte	0xb14
 5198 0ccf 70000000 		.4byte	.LBB42
 5199 0cd3 70000000 		.4byte	.Ldebug_ranges0+0x70
 5200 0cd7 01       		.byte	0x1
 5201 0cd8 7B01     		.2byte	0x17b
 5202 0cda 560D0000 		.4byte	0xd56
 5203 0cde 23       		.uleb128 0x23
 5204 0cdf 200B0000 		.4byte	0xb20
 5205 0ce3 46040000 		.4byte	.LLST26
 5206 0ce7 26       		.uleb128 0x26
ARM GAS  /tmp/ccOGUWYP.s 			page 93


 5207 0ce8 2A0B0000 		.4byte	0xb2a
 5208 0cec 7A000000 		.4byte	.LBB44
 5209 0cf0 1E000000 		.4byte	.LBE44-.LBB44
 5210 0cf4 01       		.byte	0x1
 5211 0cf5 98       		.byte	0x98
 5212 0cf6 300D0000 		.4byte	0xd30
 5213 0cfa 23       		.uleb128 0x23
 5214 0cfb 360B0000 		.4byte	0xb36
 5215 0cff 72040000 		.4byte	.LLST27
 5216 0d03 27       		.uleb128 0x27
 5217 0d04 7A000000 		.4byte	.LBB45
 5218 0d08 1E000000 		.4byte	.LBE45-.LBB45
 5219 0d0c 28       		.uleb128 0x28
 5220 0d0d 3F0B0000 		.4byte	0xb3f
 5221 0d11 85040000 		.4byte	.LLST28
 5222 0d15 28       		.uleb128 0x28
 5223 0d16 480B0000 		.4byte	0xb48
 5224 0d1a 98040000 		.4byte	.LLST29
 5225 0d1e 1F       		.uleb128 0x1f
 5226 0d1f 8C000000 		.4byte	.LVL46
 5227 0d23 86210000 		.4byte	0x2186
 5228 0d27 20       		.uleb128 0x20
 5229 0d28 01       		.uleb128 0x1
 5230 0d29 50       		.byte	0x50
 5231 0d2a 02       		.uleb128 0x2
 5232 0d2b 74       		.byte	0x74
 5233 0d2c 00       		.sleb128 0
 5234 0d2d 00       		.byte	0
 5235 0d2e 00       		.byte	0
 5236 0d2f 00       		.byte	0
 5237 0d30 29       		.uleb128 0x29
 5238 0d31 9E000000 		.4byte	.LVL48
 5239 0d35 98210000 		.4byte	0x2198
 5240 0d39 440D0000 		.4byte	0xd44
 5241 0d3d 20       		.uleb128 0x20
 5242 0d3e 01       		.uleb128 0x1
 5243 0d3f 50       		.byte	0x50
 5244 0d40 02       		.uleb128 0x2
 5245 0d41 74       		.byte	0x74
 5246 0d42 00       		.sleb128 0
 5247 0d43 00       		.byte	0
 5248 0d44 2A       		.uleb128 0x2a
 5249 0d45 A8000000 		.4byte	.LVL50
 5250 0d49 AA210000 		.4byte	0x21aa
 5251 0d4d 20       		.uleb128 0x20
 5252 0d4e 01       		.uleb128 0x1
 5253 0d4f 50       		.byte	0x50
 5254 0d50 03       		.uleb128 0x3
 5255 0d51 F3       		.byte	0xf3
 5256 0d52 01       		.uleb128 0x1
 5257 0d53 50       		.byte	0x50
 5258 0d54 00       		.byte	0
 5259 0d55 00       		.byte	0
 5260 0d56 2A       		.uleb128 0x2a
 5261 0d57 64000000 		.4byte	.LVL42
 5262 0d5b BC210000 		.4byte	0x21bc
 5263 0d5f 20       		.uleb128 0x20
ARM GAS  /tmp/ccOGUWYP.s 			page 94


 5264 0d60 01       		.uleb128 0x1
 5265 0d61 50       		.byte	0x50
 5266 0d62 03       		.uleb128 0x3
 5267 0d63 F3       		.byte	0xf3
 5268 0d64 01       		.uleb128 0x1
 5269 0d65 50       		.byte	0x50
 5270 0d66 00       		.byte	0
 5271 0d67 00       		.byte	0
 5272 0d68 00       		.byte	0
 5273 0d69 2B       		.uleb128 0x2b
 5274 0d6a E5020000 		.4byte	.LASF214
 5275 0d6e 01       		.byte	0x1
 5276 0d6f 7602     		.2byte	0x276
 5277 0d71 00000000 		.4byte	.LFB120
 5278 0d75 02000000 		.4byte	.LFE120-.LFB120
 5279 0d79 01       		.uleb128 0x1
 5280 0d7a 9C       		.byte	0x9c
 5281 0d7b 2C       		.uleb128 0x2c
 5282 0d7c 99060000 		.4byte	.LASF185
 5283 0d80 01       		.byte	0x1
 5284 0d81 7B02     		.2byte	0x27b
 5285 0d83 C6070000 		.4byte	0x7c6
 5286 0d87 00000000 		.4byte	.LFB121
 5287 0d8b 10000000 		.4byte	.LFE121-.LFB121
 5288 0d8f 01       		.uleb128 0x1
 5289 0d90 9C       		.byte	0x9c
 5290 0d91 A60D0000 		.4byte	0xda6
 5291 0d95 1E       		.uleb128 0x1e
 5292 0d96 9D080000 		.4byte	.LASF155
 5293 0d9a 01       		.byte	0x1
 5294 0d9b 7B02     		.2byte	0x27b
 5295 0d9d 2C000000 		.4byte	0x2c
 5296 0da1 AB040000 		.4byte	.LLST30
 5297 0da5 00       		.byte	0
 5298 0da6 2D       		.uleb128 0x2d
 5299 0da7 CD010000 		.4byte	.LASF156
 5300 0dab 01       		.byte	0x1
 5301 0dac 8102     		.2byte	0x281
 5302 0dae 00000000 		.4byte	.LFB122
 5303 0db2 0C000000 		.4byte	.LFE122-.LFB122
 5304 0db6 01       		.uleb128 0x1
 5305 0db7 9C       		.byte	0x9c
 5306 0db8 C90D0000 		.4byte	0xdc9
 5307 0dbc 2E       		.uleb128 0x2e
 5308 0dbd 6700     		.ascii	"g\000"
 5309 0dbf 01       		.byte	0x1
 5310 0dc0 8102     		.2byte	0x281
 5311 0dc2 C6070000 		.4byte	0x7c6
 5312 0dc6 01       		.uleb128 0x1
 5313 0dc7 50       		.byte	0x50
 5314 0dc8 00       		.byte	0
 5315 0dc9 2D       		.uleb128 0x2d
 5316 0dca 0A050000 		.4byte	.LASF157
 5317 0dce 01       		.byte	0x1
 5318 0dcf 8502     		.2byte	0x285
 5319 0dd1 00000000 		.4byte	.LFB123
 5320 0dd5 02000000 		.4byte	.LFE123-.LFB123
ARM GAS  /tmp/ccOGUWYP.s 			page 95


 5321 0dd9 01       		.uleb128 0x1
 5322 0dda 9C       		.byte	0x9c
 5323 0ddb EC0D0000 		.4byte	0xdec
 5324 0ddf 2E       		.uleb128 0x2e
 5325 0de0 6700     		.ascii	"g\000"
 5326 0de2 01       		.byte	0x1
 5327 0de3 8502     		.2byte	0x285
 5328 0de5 C6070000 		.4byte	0x7c6
 5329 0de9 01       		.uleb128 0x1
 5330 0dea 50       		.byte	0x50
 5331 0deb 00       		.byte	0
 5332 0dec 2D       		.uleb128 0x2d
 5333 0ded DD040000 		.4byte	.LASF158
 5334 0df1 01       		.byte	0x1
 5335 0df2 8B03     		.2byte	0x38b
 5336 0df4 00000000 		.4byte	.LFB124
 5337 0df8 8A000000 		.4byte	.LFE124-.LFB124
 5338 0dfc 01       		.uleb128 0x1
 5339 0dfd 9C       		.byte	0x9c
 5340 0dfe 1F0F0000 		.4byte	0xf1f
 5341 0e02 1D       		.uleb128 0x1d
 5342 0e03 6700     		.ascii	"g\000"
 5343 0e05 01       		.byte	0x1
 5344 0e06 8B03     		.2byte	0x38b
 5345 0e08 C6070000 		.4byte	0x7c6
 5346 0e0c CC040000 		.4byte	.LLST31
 5347 0e10 1D       		.uleb128 0x1d
 5348 0e11 7800     		.ascii	"x\000"
 5349 0e13 01       		.byte	0x1
 5350 0e14 8B03     		.2byte	0x38b
 5351 0e16 00050000 		.4byte	0x500
 5352 0e1a 03050000 		.4byte	.LLST32
 5353 0e1e 1D       		.uleb128 0x1d
 5354 0e1f 7900     		.ascii	"y\000"
 5355 0e21 01       		.byte	0x1
 5356 0e22 8B03     		.2byte	0x38b
 5357 0e24 00050000 		.4byte	0x500
 5358 0e28 24050000 		.4byte	.LLST33
 5359 0e2c 1E       		.uleb128 0x1e
 5360 0e2d 53070000 		.4byte	.LASF132
 5361 0e31 01       		.byte	0x1
 5362 0e32 8B03     		.2byte	0x38b
 5363 0e34 AF070000 		.4byte	0x7af
 5364 0e38 45050000 		.4byte	.LLST34
 5365 0e3c 25       		.uleb128 0x25
 5366 0e3d 7C090000 		.4byte	0x97c
 5367 0e41 10000000 		.4byte	.LBB60
 5368 0e45 88000000 		.4byte	.Ldebug_ranges0+0x88
 5369 0e49 01       		.byte	0x1
 5370 0e4a 9003     		.2byte	0x390
 5371 0e4c ED0E0000 		.4byte	0xeed
 5372 0e50 23       		.uleb128 0x23
 5373 0e51 88090000 		.4byte	0x988
 5374 0e55 66050000 		.4byte	.LLST35
 5375 0e59 24       		.uleb128 0x24
 5376 0e5a B0000000 		.4byte	.Ldebug_ranges0+0xb0
 5377 0e5e 23       		.uleb128 0x23
ARM GAS  /tmp/ccOGUWYP.s 			page 96


 5378 0e5f 88090000 		.4byte	0x988
 5379 0e63 92050000 		.4byte	.LLST36
 5380 0e67 2F       		.uleb128 0x2f
 5381 0e68 140B0000 		.4byte	0xb14
 5382 0e6c 54000000 		.4byte	.LBB64
 5383 0e70 36000000 		.4byte	.LBE64-.LBB64
 5384 0e74 01       		.byte	0x1
 5385 0e75 BB       		.byte	0xbb
 5386 0e76 30       		.uleb128 0x30
 5387 0e77 200B0000 		.4byte	0xb20
 5388 0e7b 01       		.uleb128 0x1
 5389 0e7c 54       		.byte	0x54
 5390 0e7d 26       		.uleb128 0x26
 5391 0e7e 2A0B0000 		.4byte	0xb2a
 5392 0e82 5E000000 		.4byte	.LBB66
 5393 0e86 1E000000 		.4byte	.LBE66-.LBB66
 5394 0e8a 01       		.byte	0x1
 5395 0e8b 98       		.byte	0x98
 5396 0e8c C60E0000 		.4byte	0xec6
 5397 0e90 23       		.uleb128 0x23
 5398 0e91 360B0000 		.4byte	0xb36
 5399 0e95 B0050000 		.4byte	.LLST37
 5400 0e99 27       		.uleb128 0x27
 5401 0e9a 5E000000 		.4byte	.LBB67
 5402 0e9e 1E000000 		.4byte	.LBE67-.LBB67
 5403 0ea2 28       		.uleb128 0x28
 5404 0ea3 3F0B0000 		.4byte	0xb3f
 5405 0ea7 C3050000 		.4byte	.LLST38
 5406 0eab 28       		.uleb128 0x28
 5407 0eac 480B0000 		.4byte	0xb48
 5408 0eb0 D6050000 		.4byte	.LLST39
 5409 0eb4 1F       		.uleb128 0x1f
 5410 0eb5 70000000 		.4byte	.LVL65
 5411 0eb9 86210000 		.4byte	0x2186
 5412 0ebd 20       		.uleb128 0x20
 5413 0ebe 01       		.uleb128 0x1
 5414 0ebf 50       		.byte	0x50
 5415 0ec0 02       		.uleb128 0x2
 5416 0ec1 74       		.byte	0x74
 5417 0ec2 00       		.sleb128 0
 5418 0ec3 00       		.byte	0
 5419 0ec4 00       		.byte	0
 5420 0ec5 00       		.byte	0
 5421 0ec6 29       		.uleb128 0x29
 5422 0ec7 82000000 		.4byte	.LVL67
 5423 0ecb 98210000 		.4byte	0x2198
 5424 0ecf DA0E0000 		.4byte	0xeda
 5425 0ed3 20       		.uleb128 0x20
 5426 0ed4 01       		.uleb128 0x1
 5427 0ed5 50       		.byte	0x50
 5428 0ed6 02       		.uleb128 0x2
 5429 0ed7 74       		.byte	0x74
 5430 0ed8 00       		.sleb128 0
 5431 0ed9 00       		.byte	0
 5432 0eda 1F       		.uleb128 0x1f
 5433 0edb 88000000 		.4byte	.LVL68
 5434 0edf AA210000 		.4byte	0x21aa
ARM GAS  /tmp/ccOGUWYP.s 			page 97


 5435 0ee3 20       		.uleb128 0x20
 5436 0ee4 01       		.uleb128 0x1
 5437 0ee5 50       		.byte	0x50
 5438 0ee6 02       		.uleb128 0x2
 5439 0ee7 74       		.byte	0x74
 5440 0ee8 00       		.sleb128 0
 5441 0ee9 00       		.byte	0
 5442 0eea 00       		.byte	0
 5443 0eeb 00       		.byte	0
 5444 0eec 00       		.byte	0
 5445 0eed 29       		.uleb128 0x29
 5446 0eee 10000000 		.4byte	.LVL57
 5447 0ef2 CE210000 		.4byte	0x21ce
 5448 0ef6 010F0000 		.4byte	0xf01
 5449 0efa 20       		.uleb128 0x20
 5450 0efb 01       		.uleb128 0x1
 5451 0efc 50       		.byte	0x50
 5452 0efd 02       		.uleb128 0x2
 5453 0efe 74       		.byte	0x74
 5454 0eff 18       		.sleb128 24
 5455 0f00 00       		.byte	0
 5456 0f01 29       		.uleb128 0x29
 5457 0f02 44000000 		.4byte	.LVL61
 5458 0f06 DF210000 		.4byte	0x21df
 5459 0f0a 150F0000 		.4byte	0xf15
 5460 0f0e 20       		.uleb128 0x20
 5461 0f0f 01       		.uleb128 0x1
 5462 0f10 50       		.byte	0x50
 5463 0f11 02       		.uleb128 0x2
 5464 0f12 74       		.byte	0x74
 5465 0f13 00       		.sleb128 0
 5466 0f14 00       		.byte	0
 5467 0f15 31       		.uleb128 0x31
 5468 0f16 54000000 		.4byte	.LVL63
 5469 0f1a F1210000 		.4byte	0x21f1
 5470 0f1e 00       		.byte	0
 5471 0f1f 19       		.uleb128 0x19
 5472 0f20 EA000000 		.4byte	.LASF159
 5473 0f24 01       		.byte	0x1
 5474 0f25 B801     		.2byte	0x1b8
 5475 0f27 01       		.byte	0x1
 5476 0f28 850F0000 		.4byte	0xf85
 5477 0f2c 1A       		.uleb128 0x1a
 5478 0f2d 6700     		.ascii	"g\000"
 5479 0f2f 01       		.byte	0x1
 5480 0f30 B801     		.2byte	0x1b8
 5481 0f32 C6070000 		.4byte	0x7c6
 5482 0f36 32       		.uleb128 0x32
 5483 0f37 647900   		.ascii	"dy\000"
 5484 0f3a 01       		.byte	0x1
 5485 0f3b B901     		.2byte	0x1b9
 5486 0f3d B8000000 		.4byte	0xb8
 5487 0f41 32       		.uleb128 0x32
 5488 0f42 647800   		.ascii	"dx\000"
 5489 0f45 01       		.byte	0x1
 5490 0f46 B901     		.2byte	0x1b9
 5491 0f48 B8000000 		.4byte	0xb8
ARM GAS  /tmp/ccOGUWYP.s 			page 98


 5492 0f4c 33       		.uleb128 0x33
 5493 0f4d 9F090000 		.4byte	.LASF160
 5494 0f51 01       		.byte	0x1
 5495 0f52 BA01     		.2byte	0x1ba
 5496 0f54 B8000000 		.4byte	0xb8
 5497 0f58 33       		.uleb128 0x33
 5498 0f59 34050000 		.4byte	.LASF161
 5499 0f5d 01       		.byte	0x1
 5500 0f5e BA01     		.2byte	0x1ba
 5501 0f60 B8000000 		.4byte	0xb8
 5502 0f64 32       		.uleb128 0x32
 5503 0f65 5000     		.ascii	"P\000"
 5504 0f67 01       		.byte	0x1
 5505 0f68 BB01     		.2byte	0x1bb
 5506 0f6a B8000000 		.4byte	0xb8
 5507 0f6e 33       		.uleb128 0x33
 5508 0f6f 5E010000 		.4byte	.LASF162
 5509 0f73 01       		.byte	0x1
 5510 0f74 BB01     		.2byte	0x1bb
 5511 0f76 B8000000 		.4byte	0xb8
 5512 0f7a 32       		.uleb128 0x32
 5513 0f7b 6900     		.ascii	"i\000"
 5514 0f7d 01       		.byte	0x1
 5515 0f7e BB01     		.2byte	0x1bb
 5516 0f80 B8000000 		.4byte	0xb8
 5517 0f84 00       		.byte	0
 5518 0f85 2D       		.uleb128 0x2d
 5519 0f86 A4090000 		.4byte	.LASF163
 5520 0f8a 01       		.byte	0x1
 5521 0f8b 9503     		.2byte	0x395
 5522 0f8d 00000000 		.4byte	.LFB125
 5523 0f91 2A020000 		.4byte	.LFE125-.LFB125
 5524 0f95 01       		.uleb128 0x1
 5525 0f96 9C       		.byte	0x9c
 5526 0f97 14120000 		.4byte	0x1214
 5527 0f9b 1D       		.uleb128 0x1d
 5528 0f9c 6700     		.ascii	"g\000"
 5529 0f9e 01       		.byte	0x1
 5530 0f9f 9503     		.2byte	0x395
 5531 0fa1 C6070000 		.4byte	0x7c6
 5532 0fa5 E9050000 		.4byte	.LLST40
 5533 0fa9 1D       		.uleb128 0x1d
 5534 0faa 783000   		.ascii	"x0\000"
 5535 0fad 01       		.byte	0x1
 5536 0fae 9503     		.2byte	0x395
 5537 0fb0 00050000 		.4byte	0x500
 5538 0fb4 20060000 		.4byte	.LLST41
 5539 0fb8 1D       		.uleb128 0x1d
 5540 0fb9 793000   		.ascii	"y0\000"
 5541 0fbc 01       		.byte	0x1
 5542 0fbd 9503     		.2byte	0x395
 5543 0fbf 00050000 		.4byte	0x500
 5544 0fc3 41060000 		.4byte	.LLST42
 5545 0fc7 1D       		.uleb128 0x1d
 5546 0fc8 783100   		.ascii	"x1\000"
 5547 0fcb 01       		.byte	0x1
 5548 0fcc 9503     		.2byte	0x395
ARM GAS  /tmp/ccOGUWYP.s 			page 99


 5549 0fce 00050000 		.4byte	0x500
 5550 0fd2 62060000 		.4byte	.LLST43
 5551 0fd6 1D       		.uleb128 0x1d
 5552 0fd7 793100   		.ascii	"y1\000"
 5553 0fda 01       		.byte	0x1
 5554 0fdb 9503     		.2byte	0x395
 5555 0fdd 00050000 		.4byte	0x500
 5556 0fe1 83060000 		.4byte	.LLST44
 5557 0fe5 1E       		.uleb128 0x1e
 5558 0fe6 53070000 		.4byte	.LASF132
 5559 0fea 01       		.byte	0x1
 5560 0feb 9503     		.2byte	0x395
 5561 0fed AF070000 		.4byte	0x7af
 5562 0ff1 AF060000 		.4byte	.LLST45
 5563 0ff5 25       		.uleb128 0x25
 5564 0ff6 1F0F0000 		.4byte	0xf1f
 5565 0ffa 1C000000 		.4byte	.LBB94
 5566 0ffe C8000000 		.4byte	.Ldebug_ranges0+0xc8
 5567 1002 01       		.byte	0x1
 5568 1003 9C03     		.2byte	0x39c
 5569 1005 E2110000 		.4byte	0x11e2
 5570 1009 23       		.uleb128 0x23
 5571 100a 2C0F0000 		.4byte	0xf2c
 5572 100e DB060000 		.4byte	.LLST46
 5573 1012 24       		.uleb128 0x24
 5574 1013 C8000000 		.4byte	.Ldebug_ranges0+0xc8
 5575 1017 28       		.uleb128 0x28
 5576 1018 360F0000 		.4byte	0xf36
 5577 101c 07070000 		.4byte	.LLST47
 5578 1020 28       		.uleb128 0x28
 5579 1021 410F0000 		.4byte	0xf41
 5580 1025 25070000 		.4byte	.LLST48
 5581 1029 28       		.uleb128 0x28
 5582 102a 4C0F0000 		.4byte	0xf4c
 5583 102e 43070000 		.4byte	.LLST49
 5584 1032 28       		.uleb128 0x28
 5585 1033 580F0000 		.4byte	0xf58
 5586 1037 7A070000 		.4byte	.LLST50
 5587 103b 28       		.uleb128 0x28
 5588 103c 640F0000 		.4byte	0xf64
 5589 1040 B1070000 		.4byte	.LLST51
 5590 1044 28       		.uleb128 0x28
 5591 1045 6E0F0000 		.4byte	0xf6e
 5592 1049 11080000 		.4byte	.LLST52
 5593 104d 28       		.uleb128 0x28
 5594 104e 7A0F0000 		.4byte	0xf7a
 5595 1052 45080000 		.4byte	.LLST53
 5596 1056 25       		.uleb128 0x25
 5597 1057 7C090000 		.4byte	0x97c
 5598 105b 94000000 		.4byte	.LBB96
 5599 105f E8000000 		.4byte	.Ldebug_ranges0+0xe8
 5600 1063 01       		.byte	0x1
 5601 1064 E601     		.2byte	0x1e6
 5602 1066 09110000 		.4byte	0x1109
 5603 106a 23       		.uleb128 0x23
 5604 106b 88090000 		.4byte	0x988
 5605 106f C5080000 		.4byte	.LLST54
ARM GAS  /tmp/ccOGUWYP.s 			page 100


 5606 1073 24       		.uleb128 0x24
 5607 1074 00010000 		.4byte	.Ldebug_ranges0+0x100
 5608 1078 23       		.uleb128 0x23
 5609 1079 88090000 		.4byte	0x988
 5610 107d E3080000 		.4byte	.LLST55
 5611 1081 2F       		.uleb128 0x2f
 5612 1082 140B0000 		.4byte	0xb14
 5613 1086 D2010000 		.4byte	.LBB100
 5614 108a 48000000 		.4byte	.LBE100-.LBB100
 5615 108e 01       		.byte	0x1
 5616 108f BB       		.byte	0xbb
 5617 1090 23       		.uleb128 0x23
 5618 1091 200B0000 		.4byte	0xb20
 5619 1095 01090000 		.4byte	.LLST56
 5620 1099 26       		.uleb128 0x26
 5621 109a 2A0B0000 		.4byte	0xb2a
 5622 109e DC010000 		.4byte	.LBB102
 5623 10a2 2A000000 		.4byte	.LBE102-.LBB102
 5624 10a6 01       		.byte	0x1
 5625 10a7 98       		.byte	0x98
 5626 10a8 E2100000 		.4byte	0x10e2
 5627 10ac 23       		.uleb128 0x23
 5628 10ad 360B0000 		.4byte	0xb36
 5629 10b1 14090000 		.4byte	.LLST57
 5630 10b5 27       		.uleb128 0x27
 5631 10b6 DC010000 		.4byte	.LBB103
 5632 10ba 2A000000 		.4byte	.LBE103-.LBB103
 5633 10be 28       		.uleb128 0x28
 5634 10bf 3F0B0000 		.4byte	0xb3f
 5635 10c3 27090000 		.4byte	.LLST58
 5636 10c7 28       		.uleb128 0x28
 5637 10c8 480B0000 		.4byte	0xb48
 5638 10cc 3A090000 		.4byte	.LLST59
 5639 10d0 1F       		.uleb128 0x1f
 5640 10d1 F6010000 		.4byte	.LVL121
 5641 10d5 86210000 		.4byte	0x2186
 5642 10d9 20       		.uleb128 0x20
 5643 10da 01       		.uleb128 0x1
 5644 10db 50       		.byte	0x50
 5645 10dc 02       		.uleb128 0x2
 5646 10dd 74       		.byte	0x74
 5647 10de 00       		.sleb128 0
 5648 10df 00       		.byte	0
 5649 10e0 00       		.byte	0
 5650 10e1 00       		.byte	0
 5651 10e2 29       		.uleb128 0x29
 5652 10e3 0E020000 		.4byte	.LVL123
 5653 10e7 98210000 		.4byte	0x2198
 5654 10eb F6100000 		.4byte	0x10f6
 5655 10ef 20       		.uleb128 0x20
 5656 10f0 01       		.uleb128 0x1
 5657 10f1 50       		.byte	0x50
 5658 10f2 02       		.uleb128 0x2
 5659 10f3 74       		.byte	0x74
 5660 10f4 00       		.sleb128 0
 5661 10f5 00       		.byte	0
 5662 10f6 1F       		.uleb128 0x1f
ARM GAS  /tmp/ccOGUWYP.s 			page 101


 5663 10f7 14020000 		.4byte	.LVL124
 5664 10fb AA210000 		.4byte	0x21aa
 5665 10ff 20       		.uleb128 0x20
 5666 1100 01       		.uleb128 0x1
 5667 1101 50       		.byte	0x50
 5668 1102 02       		.uleb128 0x2
 5669 1103 74       		.byte	0x74
 5670 1104 00       		.sleb128 0
 5671 1105 00       		.byte	0
 5672 1106 00       		.byte	0
 5673 1107 00       		.byte	0
 5674 1108 00       		.byte	0
 5675 1109 25       		.uleb128 0x25
 5676 110a 7C090000 		.4byte	0x97c
 5677 110e 50010000 		.4byte	.LBB107
 5678 1112 18010000 		.4byte	.Ldebug_ranges0+0x118
 5679 1116 01       		.byte	0x1
 5680 1117 F601     		.2byte	0x1f6
 5681 1119 BC110000 		.4byte	0x11bc
 5682 111d 23       		.uleb128 0x23
 5683 111e 88090000 		.4byte	0x988
 5684 1122 4D090000 		.4byte	.LLST60
 5685 1126 24       		.uleb128 0x24
 5686 1127 30010000 		.4byte	.Ldebug_ranges0+0x130
 5687 112b 23       		.uleb128 0x23
 5688 112c 88090000 		.4byte	0x988
 5689 1130 60090000 		.4byte	.LLST61
 5690 1134 2F       		.uleb128 0x2f
 5691 1135 140B0000 		.4byte	0xb14
 5692 1139 86010000 		.4byte	.LBB111
 5693 113d 4C000000 		.4byte	.LBE111-.LBB111
 5694 1141 01       		.byte	0x1
 5695 1142 BB       		.byte	0xbb
 5696 1143 23       		.uleb128 0x23
 5697 1144 200B0000 		.4byte	0xb20
 5698 1148 7E090000 		.4byte	.LLST62
 5699 114c 26       		.uleb128 0x26
 5700 114d 2A0B0000 		.4byte	0xb2a
 5701 1151 90010000 		.4byte	.LBB113
 5702 1155 28000000 		.4byte	.LBE113-.LBB113
 5703 1159 01       		.byte	0x1
 5704 115a 98       		.byte	0x98
 5705 115b 95110000 		.4byte	0x1195
 5706 115f 23       		.uleb128 0x23
 5707 1160 360B0000 		.4byte	0xb36
 5708 1164 91090000 		.4byte	.LLST63
 5709 1168 27       		.uleb128 0x27
 5710 1169 90010000 		.4byte	.LBB114
 5711 116d 28000000 		.4byte	.LBE114-.LBB114
 5712 1171 28       		.uleb128 0x28
 5713 1172 3F0B0000 		.4byte	0xb3f
 5714 1176 A4090000 		.4byte	.LLST64
 5715 117a 28       		.uleb128 0x28
 5716 117b 480B0000 		.4byte	0xb48
 5717 117f B7090000 		.4byte	.LLST65
 5718 1183 1F       		.uleb128 0x1f
 5719 1184 A6010000 		.4byte	.LVL115
ARM GAS  /tmp/ccOGUWYP.s 			page 102


 5720 1188 86210000 		.4byte	0x2186
 5721 118c 20       		.uleb128 0x20
 5722 118d 01       		.uleb128 0x1
 5723 118e 50       		.byte	0x50
 5724 118f 02       		.uleb128 0x2
 5725 1190 74       		.byte	0x74
 5726 1191 00       		.sleb128 0
 5727 1192 00       		.byte	0
 5728 1193 00       		.byte	0
 5729 1194 00       		.byte	0
 5730 1195 29       		.uleb128 0x29
 5731 1196 C2010000 		.4byte	.LVL117
 5732 119a 98210000 		.4byte	0x2198
 5733 119e A9110000 		.4byte	0x11a9
 5734 11a2 20       		.uleb128 0x20
 5735 11a3 01       		.uleb128 0x1
 5736 11a4 50       		.byte	0x50
 5737 11a5 02       		.uleb128 0x2
 5738 11a6 74       		.byte	0x74
 5739 11a7 00       		.sleb128 0
 5740 11a8 00       		.byte	0
 5741 11a9 1F       		.uleb128 0x1f
 5742 11aa C8010000 		.4byte	.LVL118
 5743 11ae AA210000 		.4byte	0x21aa
 5744 11b2 20       		.uleb128 0x20
 5745 11b3 01       		.uleb128 0x1
 5746 11b4 50       		.byte	0x50
 5747 11b5 02       		.uleb128 0x2
 5748 11b6 74       		.byte	0x74
 5749 11b7 00       		.sleb128 0
 5750 11b8 00       		.byte	0
 5751 11b9 00       		.byte	0
 5752 11ba 00       		.byte	0
 5753 11bb 00       		.byte	0
 5754 11bc 29       		.uleb128 0x29
 5755 11bd 20020000 		.4byte	.LVL126
 5756 11c1 92090000 		.4byte	0x992
 5757 11c5 D0110000 		.4byte	0x11d0
 5758 11c9 20       		.uleb128 0x20
 5759 11ca 01       		.uleb128 0x1
 5760 11cb 50       		.byte	0x50
 5761 11cc 02       		.uleb128 0x2
 5762 11cd 74       		.byte	0x74
 5763 11ce 00       		.sleb128 0
 5764 11cf 00       		.byte	0
 5765 11d0 1F       		.uleb128 0x1f
 5766 11d1 28020000 		.4byte	.LVL127
 5767 11d5 F0090000 		.4byte	0x9f0
 5768 11d9 20       		.uleb128 0x20
 5769 11da 01       		.uleb128 0x1
 5770 11db 50       		.byte	0x50
 5771 11dc 02       		.uleb128 0x2
 5772 11dd 74       		.byte	0x74
 5773 11de 00       		.sleb128 0
 5774 11df 00       		.byte	0
 5775 11e0 00       		.byte	0
 5776 11e1 00       		.byte	0
ARM GAS  /tmp/ccOGUWYP.s 			page 103


 5777 11e2 29       		.uleb128 0x29
 5778 11e3 1C000000 		.4byte	.LVL71
 5779 11e7 CE210000 		.4byte	0x21ce
 5780 11eb F6110000 		.4byte	0x11f6
 5781 11ef 20       		.uleb128 0x20
 5782 11f0 01       		.uleb128 0x1
 5783 11f1 50       		.byte	0x50
 5784 11f2 02       		.uleb128 0x2
 5785 11f3 74       		.byte	0x74
 5786 11f4 18       		.sleb128 24
 5787 11f5 00       		.byte	0
 5788 11f6 29       		.uleb128 0x29
 5789 11f7 DC000000 		.4byte	.LVL93
 5790 11fb DF210000 		.4byte	0x21df
 5791 11ff 0A120000 		.4byte	0x120a
 5792 1203 20       		.uleb128 0x20
 5793 1204 01       		.uleb128 0x1
 5794 1205 50       		.byte	0x50
 5795 1206 02       		.uleb128 0x2
 5796 1207 74       		.byte	0x74
 5797 1208 00       		.sleb128 0
 5798 1209 00       		.byte	0
 5799 120a 31       		.uleb128 0x31
 5800 120b EE000000 		.4byte	.LVL95
 5801 120f F1210000 		.4byte	0x21f1
 5802 1213 00       		.byte	0
 5803 1214 2D       		.uleb128 0x2d
 5804 1215 32060000 		.4byte	.LASF164
 5805 1219 01       		.byte	0x1
 5806 121a A103     		.2byte	0x3a1
 5807 121c 00000000 		.4byte	.LFB126
 5808 1220 2C000000 		.4byte	.LFE126-.LFB126
 5809 1224 01       		.uleb128 0x1
 5810 1225 9C       		.byte	0x9c
 5811 1226 7A120000 		.4byte	0x127a
 5812 122a 1D       		.uleb128 0x1d
 5813 122b 6700     		.ascii	"g\000"
 5814 122d 01       		.byte	0x1
 5815 122e A103     		.2byte	0x3a1
 5816 1230 C6070000 		.4byte	0x7c6
 5817 1234 CA090000 		.4byte	.LLST66
 5818 1238 1E       		.uleb128 0x1e
 5819 1239 53070000 		.4byte	.LASF132
 5820 123d 01       		.byte	0x1
 5821 123e A103     		.2byte	0x3a1
 5822 1240 AF070000 		.4byte	0x7af
 5823 1244 F6090000 		.4byte	.LLST67
 5824 1248 29       		.uleb128 0x29
 5825 1249 0C000000 		.4byte	.LVL130
 5826 124d CE210000 		.4byte	0x21ce
 5827 1251 5C120000 		.4byte	0x125c
 5828 1255 20       		.uleb128 0x20
 5829 1256 01       		.uleb128 0x1
 5830 1257 50       		.byte	0x50
 5831 1258 02       		.uleb128 0x2
 5832 1259 74       		.byte	0x74
 5833 125a 18       		.sleb128 24
ARM GAS  /tmp/ccOGUWYP.s 			page 104


 5834 125b 00       		.byte	0
 5835 125c 29       		.uleb128 0x29
 5836 125d 24000000 		.4byte	.LVL131
 5837 1261 BC210000 		.4byte	0x21bc
 5838 1265 70120000 		.4byte	0x1270
 5839 1269 20       		.uleb128 0x20
 5840 126a 01       		.uleb128 0x1
 5841 126b 50       		.byte	0x50
 5842 126c 02       		.uleb128 0x2
 5843 126d 74       		.byte	0x74
 5844 126e 00       		.sleb128 0
 5845 126f 00       		.byte	0
 5846 1270 31       		.uleb128 0x31
 5847 1271 2C000000 		.4byte	.LVL133
 5848 1275 F1210000 		.4byte	0x21f1
 5849 1279 00       		.byte	0
 5850 127a 2D       		.uleb128 0x2d
 5851 127b CA0A0000 		.4byte	.LASF165
 5852 127f 01       		.byte	0x1
 5853 1280 F403     		.2byte	0x3f4
 5854 1282 00000000 		.4byte	.LFB127
 5855 1286 A4000000 		.4byte	.LFE127-.LFB127
 5856 128a 01       		.uleb128 0x1
 5857 128b 9C       		.byte	0x9c
 5858 128c 34130000 		.4byte	0x1334
 5859 1290 1D       		.uleb128 0x1d
 5860 1291 6700     		.ascii	"g\000"
 5861 1293 01       		.byte	0x1
 5862 1294 F403     		.2byte	0x3f4
 5863 1296 C6070000 		.4byte	0x7c6
 5864 129a 170A0000 		.4byte	.LLST68
 5865 129e 1D       		.uleb128 0x1d
 5866 129f 7800     		.ascii	"x\000"
 5867 12a1 01       		.byte	0x1
 5868 12a2 F403     		.2byte	0x3f4
 5869 12a4 00050000 		.4byte	0x500
 5870 12a8 4E0A0000 		.4byte	.LLST69
 5871 12ac 1D       		.uleb128 0x1d
 5872 12ad 7900     		.ascii	"y\000"
 5873 12af 01       		.byte	0x1
 5874 12b0 F403     		.2byte	0x3f4
 5875 12b2 00050000 		.4byte	0x500
 5876 12b6 6F0A0000 		.4byte	.LLST70
 5877 12ba 1D       		.uleb128 0x1d
 5878 12bb 637800   		.ascii	"cx\000"
 5879 12be 01       		.byte	0x1
 5880 12bf F403     		.2byte	0x3f4
 5881 12c1 00050000 		.4byte	0x500
 5882 12c5 900A0000 		.4byte	.LLST71
 5883 12c9 1D       		.uleb128 0x1d
 5884 12ca 637900   		.ascii	"cy\000"
 5885 12cd 01       		.byte	0x1
 5886 12ce F403     		.2byte	0x3f4
 5887 12d0 00050000 		.4byte	0x500
 5888 12d4 B10A0000 		.4byte	.LLST72
 5889 12d8 1E       		.uleb128 0x1e
 5890 12d9 53070000 		.4byte	.LASF132
ARM GAS  /tmp/ccOGUWYP.s 			page 105


 5891 12dd 01       		.byte	0x1
 5892 12de F403     		.2byte	0x3f4
 5893 12e0 AF070000 		.4byte	0x7af
 5894 12e4 DD0A0000 		.4byte	.LLST73
 5895 12e8 34       		.uleb128 0x34
 5896 12e9 080A0000 		.4byte	0xa08
 5897 12ed 88000000 		.4byte	.LBB124
 5898 12f1 06000000 		.4byte	.LBE124-.LBB124
 5899 12f5 01       		.byte	0x1
 5900 12f6 FC03     		.2byte	0x3fc
 5901 12f8 16130000 		.4byte	0x1316
 5902 12fc 23       		.uleb128 0x23
 5903 12fd 140A0000 		.4byte	0xa14
 5904 1301 090B0000 		.4byte	.LLST74
 5905 1305 1F       		.uleb128 0x1f
 5906 1306 8E000000 		.4byte	.LVL138
 5907 130a BC210000 		.4byte	0x21bc
 5908 130e 20       		.uleb128 0x20
 5909 130f 01       		.uleb128 0x1
 5910 1310 50       		.byte	0x50
 5911 1311 02       		.uleb128 0x2
 5912 1312 74       		.byte	0x74
 5913 1313 00       		.sleb128 0
 5914 1314 00       		.byte	0
 5915 1315 00       		.byte	0
 5916 1316 29       		.uleb128 0x29
 5917 1317 1A000000 		.4byte	.LVL136
 5918 131b CE210000 		.4byte	0x21ce
 5919 131f 2A130000 		.4byte	0x132a
 5920 1323 20       		.uleb128 0x20
 5921 1324 01       		.uleb128 0x1
 5922 1325 50       		.byte	0x50
 5923 1326 02       		.uleb128 0x2
 5924 1327 74       		.byte	0x74
 5925 1328 18       		.sleb128 24
 5926 1329 00       		.byte	0
 5927 132a 31       		.uleb128 0x31
 5928 132b 96000000 		.4byte	.LVL140
 5929 132f F1210000 		.4byte	0x21f1
 5930 1333 00       		.byte	0
 5931 1334 2D       		.uleb128 0x2d
 5932 1335 1E060000 		.4byte	.LASF166
 5933 1339 01       		.byte	0x1
 5934 133a 0204     		.2byte	0x402
 5935 133c 00000000 		.4byte	.LFB128
 5936 1340 D0000000 		.4byte	.LFE128-.LFB128
 5937 1344 01       		.uleb128 0x1
 5938 1345 9C       		.byte	0x9c
 5939 1346 04140000 		.4byte	0x1404
 5940 134a 1D       		.uleb128 0x1d
 5941 134b 6700     		.ascii	"g\000"
 5942 134d 01       		.byte	0x1
 5943 134e 0204     		.2byte	0x402
 5944 1350 C6070000 		.4byte	0x7c6
 5945 1354 1C0B0000 		.4byte	.LLST75
 5946 1358 1D       		.uleb128 0x1d
 5947 1359 7800     		.ascii	"x\000"
ARM GAS  /tmp/ccOGUWYP.s 			page 106


 5948 135b 01       		.byte	0x1
 5949 135c 0204     		.2byte	0x402
 5950 135e 00050000 		.4byte	0x500
 5951 1362 480B0000 		.4byte	.LLST76
 5952 1366 1D       		.uleb128 0x1d
 5953 1367 7900     		.ascii	"y\000"
 5954 1369 01       		.byte	0x1
 5955 136a 0204     		.2byte	0x402
 5956 136c 00050000 		.4byte	0x500
 5957 1370 800B0000 		.4byte	.LLST77
 5958 1374 1D       		.uleb128 0x1d
 5959 1375 637800   		.ascii	"cx\000"
 5960 1378 01       		.byte	0x1
 5961 1379 0204     		.2byte	0x402
 5962 137b 00050000 		.4byte	0x500
 5963 137f B80B0000 		.4byte	.LLST78
 5964 1383 1D       		.uleb128 0x1d
 5965 1384 637900   		.ascii	"cy\000"
 5966 1387 01       		.byte	0x1
 5967 1388 0204     		.2byte	0x402
 5968 138a 00050000 		.4byte	0x500
 5969 138e FA0B0000 		.4byte	.LLST79
 5970 1392 1E       		.uleb128 0x1e
 5971 1393 49070000 		.4byte	.LASF167
 5972 1397 01       		.byte	0x1
 5973 1398 0204     		.2byte	0x402
 5974 139a 00050000 		.4byte	0x500
 5975 139e 240C0000 		.4byte	.LLST80
 5976 13a2 1E       		.uleb128 0x1e
 5977 13a3 4E070000 		.4byte	.LASF168
 5978 13a7 01       		.byte	0x1
 5979 13a8 0204     		.2byte	0x402
 5980 13aa 00050000 		.4byte	0x500
 5981 13ae 4E0C0000 		.4byte	.LLST81
 5982 13b2 1E       		.uleb128 0x1e
 5983 13b3 E7090000 		.4byte	.LASF169
 5984 13b7 01       		.byte	0x1
 5985 13b8 0204     		.2byte	0x402
 5986 13ba 00050000 		.4byte	0x500
 5987 13be 780C0000 		.4byte	.LLST82
 5988 13c2 1E       		.uleb128 0x1e
 5989 13c3 B8030000 		.4byte	.LASF170
 5990 13c7 01       		.byte	0x1
 5991 13c8 0204     		.2byte	0x402
 5992 13ca 04140000 		.4byte	0x1404
 5993 13ce 980C0000 		.4byte	.LLST83
 5994 13d2 29       		.uleb128 0x29
 5995 13d3 28000000 		.4byte	.LVL144
 5996 13d7 CE210000 		.4byte	0x21ce
 5997 13db E6130000 		.4byte	0x13e6
 5998 13df 20       		.uleb128 0x20
 5999 13e0 01       		.uleb128 0x1
 6000 13e1 50       		.byte	0x50
 6001 13e2 02       		.uleb128 0x2
 6002 13e3 74       		.byte	0x74
 6003 13e4 18       		.sleb128 24
 6004 13e5 00       		.byte	0
ARM GAS  /tmp/ccOGUWYP.s 			page 107


 6005 13e6 29       		.uleb128 0x29
 6006 13e7 C6000000 		.4byte	.LVL156
 6007 13eb FC210000 		.4byte	0x21fc
 6008 13ef FA130000 		.4byte	0x13fa
 6009 13f3 20       		.uleb128 0x20
 6010 13f4 01       		.uleb128 0x1
 6011 13f5 50       		.byte	0x50
 6012 13f6 02       		.uleb128 0x2
 6013 13f7 74       		.byte	0x74
 6014 13f8 00       		.sleb128 0
 6015 13f9 00       		.byte	0
 6016 13fa 31       		.uleb128 0x31
 6017 13fb D0000000 		.4byte	.LVL158
 6018 13ff F1210000 		.4byte	0x21f1
 6019 1403 00       		.byte	0
 6020 1404 09       		.uleb128 0x9
 6021 1405 04       		.byte	0x4
 6022 1406 0A140000 		.4byte	0x140a
 6023 140a 10       		.uleb128 0x10
 6024 140b BB070000 		.4byte	0x7bb
 6025 140f 2D       		.uleb128 0x2d
 6026 1410 A2030000 		.4byte	.LASF171
 6027 1414 01       		.byte	0x1
 6028 1415 8B04     		.2byte	0x48b
 6029 1417 00000000 		.4byte	.LFB129
 6030 141b 78000000 		.4byte	.LFE129-.LFB129
 6031 141f 01       		.uleb128 0x1
 6032 1420 9C       		.byte	0x9c
 6033 1421 8B140000 		.4byte	0x148b
 6034 1425 1D       		.uleb128 0x1d
 6035 1426 6700     		.ascii	"g\000"
 6036 1428 01       		.byte	0x1
 6037 1429 8B04     		.2byte	0x48b
 6038 142b C6070000 		.4byte	0x7c6
 6039 142f B80C0000 		.4byte	.LLST84
 6040 1433 1D       		.uleb128 0x1d
 6041 1434 7800     		.ascii	"x\000"
 6042 1436 01       		.byte	0x1
 6043 1437 8B04     		.2byte	0x48b
 6044 1439 00050000 		.4byte	0x500
 6045 143d EF0C0000 		.4byte	.LLST85
 6046 1441 1D       		.uleb128 0x1d
 6047 1442 7900     		.ascii	"y\000"
 6048 1444 01       		.byte	0x1
 6049 1445 8B04     		.2byte	0x48b
 6050 1447 00050000 		.4byte	0x500
 6051 144b 400D0000 		.4byte	.LLST86
 6052 144f 1D       		.uleb128 0x1d
 6053 1450 637800   		.ascii	"cx\000"
 6054 1453 01       		.byte	0x1
 6055 1454 8B04     		.2byte	0x48b
 6056 1456 00050000 		.4byte	0x500
 6057 145a 940D0000 		.4byte	.LLST87
 6058 145e 1D       		.uleb128 0x1d
 6059 145f 637900   		.ascii	"cy\000"
 6060 1462 01       		.byte	0x1
 6061 1463 8B04     		.2byte	0x48b
ARM GAS  /tmp/ccOGUWYP.s 			page 108


 6062 1465 00050000 		.4byte	0x500
 6063 1469 E40D0000 		.4byte	.LLST88
 6064 146d 29       		.uleb128 0x29
 6065 146e 16000000 		.4byte	.LVL161
 6066 1472 CE210000 		.4byte	0x21ce
 6067 1476 81140000 		.4byte	0x1481
 6068 147a 20       		.uleb128 0x20
 6069 147b 01       		.uleb128 0x1
 6070 147c 50       		.byte	0x50
 6071 147d 02       		.uleb128 0x2
 6072 147e 74       		.byte	0x74
 6073 147f 18       		.sleb128 24
 6074 1480 00       		.byte	0
 6075 1481 31       		.uleb128 0x31
 6076 1482 66000000 		.4byte	.LVL167
 6077 1486 F1210000 		.4byte	0x21f1
 6078 148a 00       		.byte	0
 6079 148b 2D       		.uleb128 0x2d
 6080 148c 33040000 		.4byte	.LASF172
 6081 1490 01       		.byte	0x1
 6082 1491 3109     		.2byte	0x931
 6083 1493 00000000 		.4byte	.LFB130
 6084 1497 76000000 		.4byte	.LFE130-.LFB130
 6085 149b 01       		.uleb128 0x1
 6086 149c 9C       		.byte	0x9c
 6087 149d 1E150000 		.4byte	0x151e
 6088 14a1 1D       		.uleb128 0x1d
 6089 14a2 6700     		.ascii	"g\000"
 6090 14a4 01       		.byte	0x1
 6091 14a5 3109     		.2byte	0x931
 6092 14a7 C6070000 		.4byte	0x7c6
 6093 14ab 260E0000 		.4byte	.LLST89
 6094 14af 1E       		.uleb128 0x1e
 6095 14b0 D1060000 		.4byte	.LASF173
 6096 14b4 01       		.byte	0x1
 6097 14b5 3109     		.2byte	0x931
 6098 14b7 2C000000 		.4byte	0x2c
 6099 14bb 760E0000 		.4byte	.LLST90
 6100 14bf 1E       		.uleb128 0x1e
 6101 14c0 D9020000 		.4byte	.LASF174
 6102 14c4 01       		.byte	0x1
 6103 14c5 3109     		.2byte	0x931
 6104 14c7 CA020000 		.4byte	0x2ca
 6105 14cb C60E0000 		.4byte	.LLST91
 6106 14cf 29       		.uleb128 0x29
 6107 14d0 0E000000 		.4byte	.LVL173
 6108 14d4 CE210000 		.4byte	0x21ce
 6109 14d8 E3140000 		.4byte	0x14e3
 6110 14dc 20       		.uleb128 0x20
 6111 14dd 01       		.uleb128 0x1
 6112 14de 50       		.byte	0x50
 6113 14df 02       		.uleb128 0x2
 6114 14e0 74       		.byte	0x74
 6115 14e1 18       		.sleb128 24
 6116 14e2 00       		.byte	0
 6117 14e3 29       		.uleb128 0x29
 6118 14e4 1C000000 		.4byte	.LVL174
ARM GAS  /tmp/ccOGUWYP.s 			page 109


 6119 14e8 0E220000 		.4byte	0x220e
 6120 14ec F7140000 		.4byte	0x14f7
 6121 14f0 20       		.uleb128 0x20
 6122 14f1 01       		.uleb128 0x1
 6123 14f2 50       		.byte	0x50
 6124 14f3 02       		.uleb128 0x2
 6125 14f4 74       		.byte	0x74
 6126 14f5 00       		.sleb128 0
 6127 14f6 00       		.byte	0
 6128 14f7 31       		.uleb128 0x31
 6129 14f8 24000000 		.4byte	.LVL176
 6130 14fc F1210000 		.4byte	0x21f1
 6131 1500 29       		.uleb128 0x29
 6132 1501 4C000000 		.4byte	.LVL179
 6133 1505 0E220000 		.4byte	0x220e
 6134 1509 14150000 		.4byte	0x1514
 6135 150d 20       		.uleb128 0x20
 6136 150e 01       		.uleb128 0x1
 6137 150f 50       		.byte	0x50
 6138 1510 02       		.uleb128 0x2
 6139 1511 74       		.byte	0x74
 6140 1512 00       		.sleb128 0
 6141 1513 00       		.byte	0
 6142 1514 31       		.uleb128 0x31
 6143 1515 62000000 		.4byte	.LVL181
 6144 1519 F1210000 		.4byte	0x21f1
 6145 151d 00       		.byte	0
 6146 151e 19       		.uleb128 0x19
 6147 151f 0D090000 		.4byte	.LASF175
 6148 1523 01       		.byte	0x1
 6149 1524 0402     		.2byte	0x204
 6150 1526 01       		.byte	0x1
 6151 1527 EB150000 		.4byte	0x15eb
 6152 152b 1A       		.uleb128 0x1a
 6153 152c 6700     		.ascii	"g\000"
 6154 152e 01       		.byte	0x1
 6155 152f 0402     		.2byte	0x204
 6156 1531 C6070000 		.4byte	0x7c6
 6157 1535 32       		.uleb128 0x32
 6158 1536 7800     		.ascii	"x\000"
 6159 1538 01       		.byte	0x1
 6160 1539 0502     		.2byte	0x205
 6161 153b 00050000 		.4byte	0x500
 6162 153f 32       		.uleb128 0x32
 6163 1540 7900     		.ascii	"y\000"
 6164 1542 01       		.byte	0x1
 6165 1543 0502     		.2byte	0x205
 6166 1545 00050000 		.4byte	0x500
 6167 1549 32       		.uleb128 0x32
 6168 154a 7700     		.ascii	"w\000"
 6169 154c 01       		.byte	0x1
 6170 154d 0502     		.2byte	0x205
 6171 154f 00050000 		.4byte	0x500
 6172 1553 32       		.uleb128 0x32
 6173 1554 7000     		.ascii	"p\000"
 6174 1556 01       		.byte	0x1
 6175 1557 0602     		.2byte	0x206
ARM GAS  /tmp/ccOGUWYP.s 			page 110


 6176 1559 EB150000 		.4byte	0x15eb
 6177 155d 35       		.uleb128 0x35
 6178 155e 91090000 		.4byte	.LASF177
 6179 1562 01       		.byte	0x1
 6180 1563 0702     		.2byte	0x207
 6181 1565 06160000 		.4byte	0x1606
 6182 1569 80       		.byte	0x80
 6183 156a 02       		.byte	0x2
 6184 156b 00       		.byte	0
 6185 156c 06       		.byte	0x6
 6186 156d 00       		.byte	0
 6187 156e 01       		.byte	0x1
 6188 156f 00       		.byte	0
 6189 1570 0A       		.byte	0xa
 6190 1571 00       		.byte	0
 6191 1572 03       		.byte	0x3
 6192 1573 00       		.byte	0
 6193 1574 0B       		.byte	0xb
 6194 1575 00       		.byte	0
 6195 1576 04       		.byte	0x4
 6196 1577 00       		.byte	0
 6197 1578 01       		.byte	0x1
 6198 1579 00       		.byte	0
 6199 157a 06       		.byte	0x6
 6200 157b 00       		.byte	0
 6201 157c 06       		.byte	0x6
 6202 157d 00       		.byte	0
 6203 157e 01       		.byte	0x1
 6204 157f 00       		.byte	0
 6205 1580 06       		.byte	0x6
 6206 1581 00       		.byte	0
 6207 1582 08       		.byte	0x8
 6208 1583 00       		.byte	0
 6209 1584 00       		.byte	0
 6210 1585 00       		.byte	0
 6211 1586 01       		.byte	0x1
 6212 1587 00       		.byte	0
 6213 1588 0C       		.byte	0xc
 6214 1589 00       		.byte	0
 6215 158a 09       		.byte	0x9
 6216 158b 00       		.byte	0
 6217 158c 00       		.byte	0
 6218 158d 00       		.byte	0
 6219 158e 06       		.byte	0x6
 6220 158f 00       		.byte	0
 6221 1590 01       		.byte	0x1
 6222 1591 00       		.byte	0
 6223 1592 09       		.byte	0x9
 6224 1593 00       		.byte	0
 6225 1594 0B       		.byte	0xb
 6226 1595 00       		.byte	0
 6227 1596 06       		.byte	0x6
 6228 1597 00       		.byte	0
 6229 1598 01       		.byte	0x1
 6230 1599 00       		.byte	0
 6231 159a 0E       		.byte	0xe
 6232 159b 00       		.byte	0
ARM GAS  /tmp/ccOGUWYP.s 			page 111


 6233 159c 06       		.byte	0x6
 6234 159d 00       		.byte	0
 6235 159e 01       		.byte	0x1
 6236 159f 00       		.byte	0
 6237 15a0 05       		.byte	0x5
 6238 15a1 00       		.byte	0
 6239 15a2 0C       		.byte	0xc
 6240 15a3 00       		.byte	0
 6241 15a4 06       		.byte	0x6
 6242 15a5 00       		.byte	0
 6243 15a6 02       		.byte	0x2
 6244 15a7 00       		.byte	0
 6245 15a8 01       		.byte	0x1
 6246 15a9 00       		.byte	0
 6247 15aa 10       		.byte	0x10
 6248 15ab 00       		.byte	0
 6249 15ac 00       		.byte	0
 6250 15ad 00       		.byte	0
 6251 15ae 01       		.byte	0x1
 6252 15af 00       		.byte	0
 6253 15b0 0C       		.byte	0xc
 6254 15b1 00       		.byte	0
 6255 15b2 11       		.byte	0x11
 6256 15b3 00       		.byte	0
 6257 15b4 00       		.byte	0
 6258 15b5 00       		.byte	0
 6259 15b6 06       		.byte	0x6
 6260 15b7 00       		.byte	0
 6261 15b8 01       		.byte	0x1
 6262 15b9 00       		.byte	0
 6263 15ba 11       		.byte	0x11
 6264 15bb 00       		.byte	0
 6265 15bc 06       		.byte	0x6
 6266 15bd 00       		.byte	0
 6267 15be 03       		.byte	0x3
 6268 15bf 00       		.byte	0
 6269 15c0 01       		.byte	0x1
 6270 15c1 00       		.byte	0
 6271 15c2 16       		.byte	0x16
 6272 15c3 00       		.byte	0
 6273 15c4 06       		.byte	0x6
 6274 15c5 00       		.byte	0
 6275 15c6 07       		.byte	0x7
 6276 15c7 00       		.byte	0
 6277 15c8 01       		.byte	0x1
 6278 15c9 00       		.byte	0
 6279 15ca 18       		.byte	0x18
 6280 15cb 00       		.byte	0
 6281 15cc 00       		.byte	0
 6282 15cd 00       		.byte	0
 6283 15ce 01       		.byte	0x1
 6284 15cf 00       		.byte	0
 6285 15d0 06       		.byte	0x6
 6286 15d1 00       		.byte	0
 6287 15d2 16       		.byte	0x16
 6288 15d3 00       		.byte	0
 6289 15d4 07       		.byte	0x7
ARM GAS  /tmp/ccOGUWYP.s 			page 112


 6290 15d5 00       		.byte	0
 6291 15d6 01       		.byte	0x1
 6292 15d7 00       		.byte	0
 6293 15d8 05       		.byte	0x5
 6294 15d9 00       		.byte	0
 6295 15da 1C       		.byte	0x1c
 6296 15db 00       		.byte	0
 6297 15dc 00       		.byte	0
 6298 15dd 00       		.byte	0
 6299 15de 01       		.byte	0x1
 6300 15df 00       		.byte	0
 6301 15e0 06       		.byte	0x6
 6302 15e1 00       		.byte	0
 6303 15e2 1A       		.byte	0x1a
 6304 15e3 00       		.byte	0
 6305 15e4 07       		.byte	0x7
 6306 15e5 00       		.byte	0
 6307 15e6 01       		.byte	0x1
 6308 15e7 00       		.byte	0
 6309 15e8 05       		.byte	0x5
 6310 15e9 00       		.byte	0
 6311 15ea 00       		.byte	0
 6312 15eb 09       		.uleb128 0x9
 6313 15ec 04       		.byte	0x4
 6314 15ed F1150000 		.4byte	0x15f1
 6315 15f1 10       		.uleb128 0x10
 6316 15f2 00050000 		.4byte	0x500
 6317 15f6 36       		.uleb128 0x36
 6318 15f7 00050000 		.4byte	0x500
 6319 15fb 06160000 		.4byte	0x1606
 6320 15ff 37       		.uleb128 0x37
 6321 1600 44040000 		.4byte	0x444
 6322 1604 3F       		.byte	0x3f
 6323 1605 00       		.byte	0
 6324 1606 10       		.uleb128 0x10
 6325 1607 F6150000 		.4byte	0x15f6
 6326 160b 2D       		.uleb128 0x2d
 6327 160c A9060000 		.4byte	.LASF176
 6328 1610 01       		.byte	0x1
 6329 1611 3902     		.2byte	0x239
 6330 1613 00000000 		.4byte	.LFB119
 6331 1617 F4000000 		.4byte	.LFE119-.LFB119
 6332 161b 01       		.uleb128 0x1
 6333 161c 9C       		.byte	0x9c
 6334 161d 7D170000 		.4byte	0x177d
 6335 1621 38       		.uleb128 0x38
 6336 1622 6700     		.ascii	"g\000"
 6337 1624 01       		.byte	0x1
 6338 1625 3B02     		.2byte	0x23b
 6339 1627 C6070000 		.4byte	0x7c6
 6340 162b 330F0000 		.4byte	.LLST92
 6341 162f 38       		.uleb128 0x38
 6342 1630 6900     		.ascii	"i\000"
 6343 1632 01       		.byte	0x1
 6344 1633 3C02     		.2byte	0x23c
 6345 1635 C3000000 		.4byte	0xc3
 6346 1639 6B0F0000 		.4byte	.LLST93
ARM GAS  /tmp/ccOGUWYP.s 			page 113


 6347 163d 34       		.uleb128 0x34
 6348 163e 1E150000 		.4byte	0x151e
 6349 1642 50000000 		.4byte	.LBB128
 6350 1646 72000000 		.4byte	.LBE128-.LBB128
 6351 164a 01       		.byte	0x1
 6352 164b 5D02     		.2byte	0x25d
 6353 164d B1160000 		.4byte	0x16b1
 6354 1651 30       		.uleb128 0x30
 6355 1652 2B150000 		.4byte	0x152b
 6356 1656 06       		.uleb128 0x6
 6357 1657 03       		.byte	0x3
 6358 1658 00000000 		.4byte	GDisplayArray
 6359 165c 9F       		.byte	0x9f
 6360 165d 27       		.uleb128 0x27
 6361 165e 50000000 		.4byte	.LBB129
 6362 1662 72000000 		.4byte	.LBE129-.LBB129
 6363 1666 28       		.uleb128 0x28
 6364 1667 35150000 		.4byte	0x1535
 6365 166b 970F0000 		.4byte	.LLST94
 6366 166f 28       		.uleb128 0x28
 6367 1670 3F150000 		.4byte	0x153f
 6368 1674 BA0F0000 		.4byte	.LLST95
 6369 1678 28       		.uleb128 0x28
 6370 1679 49150000 		.4byte	0x1549
 6371 167d DD0F0000 		.4byte	.LLST96
 6372 1681 28       		.uleb128 0x28
 6373 1682 53150000 		.4byte	0x1553
 6374 1686 37100000 		.4byte	.LLST97
 6375 168a 39       		.uleb128 0x39
 6376 168b 5D150000 		.4byte	0x155d
 6377 168f 05       		.uleb128 0x5
 6378 1690 03       		.byte	0x3
 6379 1691 00000000 		.4byte	blks.7903
 6380 1695 1F       		.uleb128 0x1f
 6381 1696 BE000000 		.4byte	.LVL197
 6382 169a 7A120000 		.4byte	0x127a
 6383 169e 20       		.uleb128 0x20
 6384 169f 01       		.uleb128 0x1
 6385 16a0 50       		.byte	0x50
 6386 16a1 05       		.uleb128 0x5
 6387 16a2 03       		.byte	0x3
 6388 16a3 00000000 		.4byte	.LANCHOR0
 6389 16a7 20       		.uleb128 0x20
 6390 16a8 02       		.uleb128 0x2
 6391 16a9 7D       		.byte	0x7d
 6392 16aa 04       		.sleb128 4
 6393 16ab 02       		.uleb128 0x2
 6394 16ac 76       		.byte	0x76
 6395 16ad 00       		.sleb128 0
 6396 16ae 00       		.byte	0
 6397 16af 00       		.byte	0
 6398 16b0 00       		.byte	0
 6399 16b1 29       		.uleb128 0x29
 6400 16b2 16000000 		.4byte	.LVL184
 6401 16b6 20220000 		.4byte	0x2220
 6402 16ba C5160000 		.4byte	0x16c5
 6403 16be 20       		.uleb128 0x20
ARM GAS  /tmp/ccOGUWYP.s 			page 114


 6404 16bf 01       		.uleb128 0x1
 6405 16c0 50       		.byte	0x50
 6406 16c1 02       		.uleb128 0x2
 6407 16c2 74       		.byte	0x74
 6408 16c3 18       		.sleb128 24
 6409 16c4 00       		.byte	0
 6410 16c5 29       		.uleb128 0x29
 6411 16c6 1E000000 		.4byte	.LVL185
 6412 16ca CE210000 		.4byte	0x21ce
 6413 16ce D9160000 		.4byte	0x16d9
 6414 16d2 20       		.uleb128 0x20
 6415 16d3 01       		.uleb128 0x1
 6416 16d4 50       		.byte	0x50
 6417 16d5 02       		.uleb128 0x2
 6418 16d6 74       		.byte	0x74
 6419 16d7 18       		.sleb128 24
 6420 16d8 00       		.byte	0
 6421 16d9 29       		.uleb128 0x29
 6422 16da 26000000 		.4byte	.LVL186
 6423 16de 31220000 		.4byte	0x2231
 6424 16e2 ED160000 		.4byte	0x16ed
 6425 16e6 20       		.uleb128 0x20
 6426 16e7 01       		.uleb128 0x1
 6427 16e8 50       		.byte	0x50
 6428 16e9 02       		.uleb128 0x2
 6429 16ea 74       		.byte	0x74
 6430 16eb 00       		.sleb128 0
 6431 16ec 00       		.byte	0
 6432 16ed 3A       		.uleb128 0x3a
 6433 16ee 2A000000 		.4byte	.LVL187
 6434 16f2 F1210000 		.4byte	0x21f1
 6435 16f6 29       		.uleb128 0x29
 6436 16f7 34000000 		.4byte	.LVL188
 6437 16fb 8B140000 		.4byte	0x148b
 6438 16ff 15170000 		.4byte	0x1715
 6439 1703 20       		.uleb128 0x20
 6440 1704 01       		.uleb128 0x1
 6441 1705 52       		.byte	0x52
 6442 1706 02       		.uleb128 0x2
 6443 1707 08       		.byte	0x8
 6444 1708 5A       		.byte	0x5a
 6445 1709 20       		.uleb128 0x20
 6446 170a 01       		.uleb128 0x1
 6447 170b 51       		.byte	0x51
 6448 170c 01       		.uleb128 0x1
 6449 170d 31       		.byte	0x31
 6450 170e 20       		.uleb128 0x20
 6451 170f 01       		.uleb128 0x1
 6452 1710 50       		.byte	0x50
 6453 1711 02       		.uleb128 0x2
 6454 1712 74       		.byte	0x74
 6455 1713 00       		.sleb128 0
 6456 1714 00       		.byte	0
 6457 1715 29       		.uleb128 0x29
 6458 1716 48000000 		.4byte	.LVL189
 6459 171a 0F140000 		.4byte	0x140f
 6460 171e 35170000 		.4byte	0x1735
ARM GAS  /tmp/ccOGUWYP.s 			page 115


 6461 1722 20       		.uleb128 0x20
 6462 1723 01       		.uleb128 0x1
 6463 1724 52       		.byte	0x52
 6464 1725 02       		.uleb128 0x2
 6465 1726 75       		.byte	0x75
 6466 1727 00       		.sleb128 0
 6467 1728 20       		.uleb128 0x20
 6468 1729 01       		.uleb128 0x1
 6469 172a 51       		.byte	0x51
 6470 172b 02       		.uleb128 0x2
 6471 172c 75       		.byte	0x75
 6472 172d 00       		.sleb128 0
 6473 172e 20       		.uleb128 0x20
 6474 172f 01       		.uleb128 0x1
 6475 1730 50       		.byte	0x50
 6476 1731 02       		.uleb128 0x2
 6477 1732 74       		.byte	0x74
 6478 1733 00       		.sleb128 0
 6479 1734 00       		.byte	0
 6480 1735 29       		.uleb128 0x29
 6481 1736 50000000 		.4byte	.LVL190
 6482 173a 14120000 		.4byte	0x1214
 6483 173e 4F170000 		.4byte	0x174f
 6484 1742 20       		.uleb128 0x20
 6485 1743 01       		.uleb128 0x1
 6486 1744 51       		.byte	0x51
 6487 1745 02       		.uleb128 0x2
 6488 1746 75       		.byte	0x75
 6489 1747 00       		.sleb128 0
 6490 1748 20       		.uleb128 0x20
 6491 1749 01       		.uleb128 0x1
 6492 174a 50       		.byte	0x50
 6493 174b 02       		.uleb128 0x2
 6494 174c 74       		.byte	0x74
 6495 174d 00       		.sleb128 0
 6496 174e 00       		.byte	0
 6497 174f 29       		.uleb128 0x29
 6498 1750 CA000000 		.4byte	.LVL199
 6499 1754 47220000 		.4byte	0x2247
 6500 1758 64170000 		.4byte	0x1764
 6501 175c 20       		.uleb128 0x20
 6502 175d 01       		.uleb128 0x1
 6503 175e 50       		.byte	0x50
 6504 175f 03       		.uleb128 0x3
 6505 1760 0A       		.byte	0xa
 6506 1761 E803     		.2byte	0x3e8
 6507 1763 00       		.byte	0
 6508 1764 2A       		.uleb128 0x2a
 6509 1765 D8000000 		.4byte	.LVL201
 6510 1769 14120000 		.4byte	0x1214
 6511 176d 20       		.uleb128 0x20
 6512 176e 01       		.uleb128 0x1
 6513 176f 51       		.byte	0x51
 6514 1770 01       		.uleb128 0x1
 6515 1771 30       		.byte	0x30
 6516 1772 20       		.uleb128 0x20
 6517 1773 01       		.uleb128 0x1
ARM GAS  /tmp/ccOGUWYP.s 			page 116


 6518 1774 50       		.byte	0x50
 6519 1775 05       		.uleb128 0x5
 6520 1776 03       		.byte	0x3
 6521 1777 00000000 		.4byte	.LANCHOR0
 6522 177b 00       		.byte	0
 6523 177c 00       		.byte	0
 6524 177d 2D       		.uleb128 0x2d
 6525 177e C1040000 		.4byte	.LASF178
 6526 1782 01       		.byte	0x1
 6527 1783 8B09     		.2byte	0x98b
 6528 1785 00000000 		.4byte	.LFB131
 6529 1789 E4000000 		.4byte	.LFE131-.LFB131
 6530 178d 01       		.uleb128 0x1
 6531 178e 9C       		.byte	0x9c
 6532 178f 9A180000 		.4byte	0x189a
 6533 1793 1D       		.uleb128 0x1d
 6534 1794 6700     		.ascii	"g\000"
 6535 1796 01       		.byte	0x1
 6536 1797 8B09     		.2byte	0x98b
 6537 1799 C6070000 		.4byte	0x7c6
 6538 179d 72100000 		.4byte	.LLST98
 6539 17a1 1D       		.uleb128 0x1d
 6540 17a2 7800     		.ascii	"x\000"
 6541 17a4 01       		.byte	0x1
 6542 17a5 8B09     		.2byte	0x98b
 6543 17a7 00050000 		.4byte	0x500
 6544 17ab CD100000 		.4byte	.LLST99
 6545 17af 1D       		.uleb128 0x1d
 6546 17b0 7900     		.ascii	"y\000"
 6547 17b2 01       		.byte	0x1
 6548 17b3 8B09     		.2byte	0x98b
 6549 17b5 00050000 		.4byte	0x500
 6550 17b9 07110000 		.4byte	.LLST100
 6551 17bd 1D       		.uleb128 0x1d
 6552 17be 637800   		.ascii	"cx\000"
 6553 17c1 01       		.byte	0x1
 6554 17c2 8B09     		.2byte	0x98b
 6555 17c4 00050000 		.4byte	0x500
 6556 17c8 4F110000 		.4byte	.LLST101
 6557 17cc 1D       		.uleb128 0x1d
 6558 17cd 637900   		.ascii	"cy\000"
 6559 17d0 01       		.byte	0x1
 6560 17d1 8B09     		.2byte	0x98b
 6561 17d3 00050000 		.4byte	0x500
 6562 17d7 9F110000 		.4byte	.LLST102
 6563 17db 1E       		.uleb128 0x1e
 6564 17dc 53070000 		.4byte	.LASF132
 6565 17e0 01       		.byte	0x1
 6566 17e1 8B09     		.2byte	0x98b
 6567 17e3 AF070000 		.4byte	0x7af
 6568 17e7 EB110000 		.4byte	.LLST103
 6569 17eb 29       		.uleb128 0x29
 6570 17ec 30000000 		.4byte	.LVL208
 6571 17f0 CE210000 		.4byte	0x21ce
 6572 17f4 FF170000 		.4byte	0x17ff
 6573 17f8 20       		.uleb128 0x20
 6574 17f9 01       		.uleb128 0x1
ARM GAS  /tmp/ccOGUWYP.s 			page 117


 6575 17fa 50       		.byte	0x50
 6576 17fb 02       		.uleb128 0x2
 6577 17fc 74       		.byte	0x74
 6578 17fd 18       		.sleb128 24
 6579 17fe 00       		.byte	0
 6580 17ff 29       		.uleb128 0x29
 6581 1800 4E000000 		.4byte	.LVL210
 6582 1804 92090000 		.4byte	0x992
 6583 1808 13180000 		.4byte	0x1813
 6584 180c 20       		.uleb128 0x20
 6585 180d 01       		.uleb128 0x1
 6586 180e 50       		.byte	0x50
 6587 180f 02       		.uleb128 0x2
 6588 1810 74       		.byte	0x74
 6589 1811 00       		.sleb128 0
 6590 1812 00       		.byte	0
 6591 1813 29       		.uleb128 0x29
 6592 1814 64000000 		.4byte	.LVL211
 6593 1818 92090000 		.4byte	0x992
 6594 181c 27180000 		.4byte	0x1827
 6595 1820 20       		.uleb128 0x20
 6596 1821 01       		.uleb128 0x1
 6597 1822 50       		.byte	0x50
 6598 1823 02       		.uleb128 0x2
 6599 1824 74       		.byte	0x74
 6600 1825 00       		.sleb128 0
 6601 1826 00       		.byte	0
 6602 1827 31       		.uleb128 0x31
 6603 1828 76000000 		.4byte	.LVL214
 6604 182c F1210000 		.4byte	0x21f1
 6605 1830 29       		.uleb128 0x29
 6606 1831 80000000 		.4byte	.LVL215
 6607 1835 F0090000 		.4byte	0x9f0
 6608 1839 44180000 		.4byte	0x1844
 6609 183d 20       		.uleb128 0x20
 6610 183e 01       		.uleb128 0x1
 6611 183f 50       		.byte	0x50
 6612 1840 02       		.uleb128 0x2
 6613 1841 74       		.byte	0x74
 6614 1842 00       		.sleb128 0
 6615 1843 00       		.byte	0
 6616 1844 29       		.uleb128 0x29
 6617 1845 92000000 		.4byte	.LVL216
 6618 1849 F0090000 		.4byte	0x9f0
 6619 184d 58180000 		.4byte	0x1858
 6620 1851 20       		.uleb128 0x20
 6621 1852 01       		.uleb128 0x1
 6622 1853 50       		.byte	0x50
 6623 1854 02       		.uleb128 0x2
 6624 1855 74       		.byte	0x74
 6625 1856 00       		.sleb128 0
 6626 1857 00       		.byte	0
 6627 1858 29       		.uleb128 0x29
 6628 1859 9E000000 		.4byte	.LVL218
 6629 185d DF210000 		.4byte	0x21df
 6630 1861 6C180000 		.4byte	0x186c
 6631 1865 20       		.uleb128 0x20
ARM GAS  /tmp/ccOGUWYP.s 			page 118


 6632 1866 01       		.uleb128 0x1
 6633 1867 50       		.byte	0x50
 6634 1868 02       		.uleb128 0x2
 6635 1869 74       		.byte	0x74
 6636 186a 00       		.sleb128 0
 6637 186b 00       		.byte	0
 6638 186c 31       		.uleb128 0x31
 6639 186d AE000000 		.4byte	.LVL220
 6640 1871 F1210000 		.4byte	0x21f1
 6641 1875 29       		.uleb128 0x29
 6642 1876 D2000000 		.4byte	.LVL224
 6643 187a F0090000 		.4byte	0x9f0
 6644 187e 89180000 		.4byte	0x1889
 6645 1882 20       		.uleb128 0x20
 6646 1883 01       		.uleb128 0x1
 6647 1884 50       		.byte	0x50
 6648 1885 02       		.uleb128 0x2
 6649 1886 74       		.byte	0x74
 6650 1887 00       		.sleb128 0
 6651 1888 00       		.byte	0
 6652 1889 1F       		.uleb128 0x1f
 6653 188a E2000000 		.4byte	.LVL225
 6654 188e F0090000 		.4byte	0x9f0
 6655 1892 20       		.uleb128 0x20
 6656 1893 01       		.uleb128 0x1
 6657 1894 50       		.byte	0x50
 6658 1895 02       		.uleb128 0x2
 6659 1896 74       		.byte	0x74
 6660 1897 00       		.sleb128 0
 6661 1898 00       		.byte	0
 6662 1899 00       		.byte	0
 6663 189a 2D       		.uleb128 0x2d
 6664 189b 18070000 		.4byte	.LASF179
 6665 189f 01       		.byte	0x1
 6666 18a0 210B     		.2byte	0xb21
 6667 18a2 00000000 		.4byte	.LFB135
 6668 18a6 78000000 		.4byte	.LFE135-.LFB135
 6669 18aa 01       		.uleb128 0x1
 6670 18ab 9C       		.byte	0x9c
 6671 18ac 7A190000 		.4byte	0x197a
 6672 18b0 1D       		.uleb128 0x1d
 6673 18b1 6700     		.ascii	"g\000"
 6674 18b3 01       		.byte	0x1
 6675 18b4 210B     		.2byte	0xb21
 6676 18b6 C6070000 		.4byte	0x7c6
 6677 18ba 2F120000 		.4byte	.LLST104
 6678 18be 1D       		.uleb128 0x1d
 6679 18bf 7800     		.ascii	"x\000"
 6680 18c1 01       		.byte	0x1
 6681 18c2 210B     		.2byte	0xb21
 6682 18c4 00050000 		.4byte	0x500
 6683 18c8 5B120000 		.4byte	.LLST105
 6684 18cc 1D       		.uleb128 0x1d
 6685 18cd 7900     		.ascii	"y\000"
 6686 18cf 01       		.byte	0x1
 6687 18d0 210B     		.2byte	0xb21
 6688 18d2 00050000 		.4byte	0x500
ARM GAS  /tmp/ccOGUWYP.s 			page 119


 6689 18d6 7C120000 		.4byte	.LLST106
 6690 18da 1D       		.uleb128 0x1d
 6691 18db 6300     		.ascii	"c\000"
 6692 18dd 01       		.byte	0x1
 6693 18de 210B     		.2byte	0xb21
 6694 18e0 C3000000 		.4byte	0xc3
 6695 18e4 9D120000 		.4byte	.LLST107
 6696 18e8 1E       		.uleb128 0x1e
 6697 18e9 2D060000 		.4byte	.LASF133
 6698 18ed 01       		.byte	0x1
 6699 18ee 210B     		.2byte	0xb21
 6700 18f0 71050000 		.4byte	0x571
 6701 18f4 BE120000 		.4byte	.LLST108
 6702 18f8 1E       		.uleb128 0x1e
 6703 18f9 53070000 		.4byte	.LASF132
 6704 18fd 01       		.byte	0x1
 6705 18fe 210B     		.2byte	0xb21
 6706 1900 AF070000 		.4byte	0x7af
 6707 1904 DE120000 		.4byte	.LLST109
 6708 1908 29       		.uleb128 0x29
 6709 1909 1A000000 		.4byte	.LVL228
 6710 190d CE210000 		.4byte	0x21ce
 6711 1911 1C190000 		.4byte	0x191c
 6712 1915 20       		.uleb128 0x20
 6713 1916 01       		.uleb128 0x1
 6714 1917 50       		.byte	0x50
 6715 1918 02       		.uleb128 0x2
 6716 1919 74       		.byte	0x74
 6717 191a 18       		.sleb128 24
 6718 191b 00       		.byte	0
 6719 191c 29       		.uleb128 0x29
 6720 191d 2C000000 		.4byte	.LVL229
 6721 1921 58220000 		.4byte	0x2258
 6722 1925 36190000 		.4byte	0x1936
 6723 1929 20       		.uleb128 0x20
 6724 192a 01       		.uleb128 0x1
 6725 192b 51       		.byte	0x51
 6726 192c 02       		.uleb128 0x2
 6727 192d 78       		.byte	0x78
 6728 192e 00       		.sleb128 0
 6729 192f 20       		.uleb128 0x20
 6730 1930 01       		.uleb128 0x1
 6731 1931 50       		.byte	0x50
 6732 1932 02       		.uleb128 0x2
 6733 1933 75       		.byte	0x75
 6734 1934 00       		.sleb128 0
 6735 1935 00       		.byte	0
 6736 1936 29       		.uleb128 0x29
 6737 1937 54000000 		.4byte	.LVL230
 6738 193b 58210000 		.4byte	0x2158
 6739 193f 5C190000 		.4byte	0x195c
 6740 1943 20       		.uleb128 0x20
 6741 1944 01       		.uleb128 0x1
 6742 1945 53       		.byte	0x53
 6743 1946 02       		.uleb128 0x2
 6744 1947 78       		.byte	0x78
 6745 1948 00       		.sleb128 0
ARM GAS  /tmp/ccOGUWYP.s 			page 120


 6746 1949 20       		.uleb128 0x20
 6747 194a 01       		.uleb128 0x1
 6748 194b 52       		.byte	0x52
 6749 194c 02       		.uleb128 0x2
 6750 194d 77       		.byte	0x77
 6751 194e 00       		.sleb128 0
 6752 194f 20       		.uleb128 0x20
 6753 1950 01       		.uleb128 0x1
 6754 1951 51       		.byte	0x51
 6755 1952 02       		.uleb128 0x2
 6756 1953 76       		.byte	0x76
 6757 1954 00       		.sleb128 0
 6758 1955 20       		.uleb128 0x20
 6759 1956 01       		.uleb128 0x1
 6760 1957 50       		.byte	0x50
 6761 1958 02       		.uleb128 0x2
 6762 1959 75       		.byte	0x75
 6763 195a 00       		.sleb128 0
 6764 195b 00       		.byte	0
 6765 195c 29       		.uleb128 0x29
 6766 195d 60000000 		.4byte	.LVL231
 6767 1961 DF210000 		.4byte	0x21df
 6768 1965 70190000 		.4byte	0x1970
 6769 1969 20       		.uleb128 0x20
 6770 196a 01       		.uleb128 0x1
 6771 196b 50       		.byte	0x50
 6772 196c 02       		.uleb128 0x2
 6773 196d 74       		.byte	0x74
 6774 196e 00       		.sleb128 0
 6775 196f 00       		.byte	0
 6776 1970 31       		.uleb128 0x31
 6777 1971 72000000 		.4byte	.LVL233
 6778 1975 F1210000 		.4byte	0x21f1
 6779 1979 00       		.byte	0
 6780 197a 2D       		.uleb128 0x2d
 6781 197b 07000000 		.4byte	.LASF180
 6782 197f 01       		.byte	0x1
 6783 1980 2E0B     		.2byte	0xb2e
 6784 1982 00000000 		.4byte	.LFB136
 6785 1986 18010000 		.4byte	.LFE136-.LFB136
 6786 198a 01       		.uleb128 0x1
 6787 198b 9C       		.byte	0x9c
 6788 198c AD1A0000 		.4byte	0x1aad
 6789 1990 1D       		.uleb128 0x1d
 6790 1991 6700     		.ascii	"g\000"
 6791 1993 01       		.byte	0x1
 6792 1994 2E0B     		.2byte	0xb2e
 6793 1996 C6070000 		.4byte	0x7c6
 6794 199a FE120000 		.4byte	.LLST110
 6795 199e 1D       		.uleb128 0x1d
 6796 199f 7800     		.ascii	"x\000"
 6797 19a1 01       		.byte	0x1
 6798 19a2 2E0B     		.2byte	0xb2e
 6799 19a4 00050000 		.4byte	0x500
 6800 19a8 35130000 		.4byte	.LLST111
 6801 19ac 1D       		.uleb128 0x1d
 6802 19ad 7900     		.ascii	"y\000"
ARM GAS  /tmp/ccOGUWYP.s 			page 121


 6803 19af 01       		.byte	0x1
 6804 19b0 2E0B     		.2byte	0xb2e
 6805 19b2 00050000 		.4byte	0x500
 6806 19b6 56130000 		.4byte	.LLST112
 6807 19ba 1D       		.uleb128 0x1d
 6808 19bb 6300     		.ascii	"c\000"
 6809 19bd 01       		.byte	0x1
 6810 19be 2E0B     		.2byte	0xb2e
 6811 19c0 C3000000 		.4byte	0xc3
 6812 19c4 77130000 		.4byte	.LLST113
 6813 19c8 1E       		.uleb128 0x1e
 6814 19c9 2D060000 		.4byte	.LASF133
 6815 19cd 01       		.byte	0x1
 6816 19ce 2E0B     		.2byte	0xb2e
 6817 19d0 71050000 		.4byte	0x571
 6818 19d4 98130000 		.4byte	.LLST114
 6819 19d8 1E       		.uleb128 0x1e
 6820 19d9 53070000 		.4byte	.LASF132
 6821 19dd 01       		.byte	0x1
 6822 19de 2E0B     		.2byte	0xb2e
 6823 19e0 AF070000 		.4byte	0x7af
 6824 19e4 C4130000 		.4byte	.LLST115
 6825 19e8 1E       		.uleb128 0x1e
 6826 19e9 54050000 		.4byte	.LASF134
 6827 19ed 01       		.byte	0x1
 6828 19ee 2E0B     		.2byte	0xb2e
 6829 19f0 AF070000 		.4byte	0x7af
 6830 19f4 F0130000 		.4byte	.LLST116
 6831 19f8 34       		.uleb128 0x34
 6832 19f9 080A0000 		.4byte	0xa08
 6833 19fd CA000000 		.4byte	.LBB130
 6834 1a01 06000000 		.4byte	.LBE130-.LBB130
 6835 1a05 01       		.byte	0x1
 6836 1a06 3B0B     		.2byte	0xb3b
 6837 1a08 261A0000 		.4byte	0x1a26
 6838 1a0c 23       		.uleb128 0x23
 6839 1a0d 140A0000 		.4byte	0xa14
 6840 1a11 1C140000 		.4byte	.LLST117
 6841 1a15 1F       		.uleb128 0x1f
 6842 1a16 D0000000 		.4byte	.LVL239
 6843 1a1a BC210000 		.4byte	0x21bc
 6844 1a1e 20       		.uleb128 0x20
 6845 1a1f 01       		.uleb128 0x1
 6846 1a20 50       		.byte	0x50
 6847 1a21 02       		.uleb128 0x2
 6848 1a22 74       		.byte	0x74
 6849 1a23 00       		.sleb128 0
 6850 1a24 00       		.byte	0
 6851 1a25 00       		.byte	0
 6852 1a26 29       		.uleb128 0x29
 6853 1a27 1E000000 		.4byte	.LVL236
 6854 1a2b CE210000 		.4byte	0x21ce
 6855 1a2f 3A1A0000 		.4byte	0x1a3a
 6856 1a33 20       		.uleb128 0x20
 6857 1a34 01       		.uleb128 0x1
 6858 1a35 50       		.byte	0x50
 6859 1a36 02       		.uleb128 0x2
ARM GAS  /tmp/ccOGUWYP.s 			page 122


 6860 1a37 74       		.byte	0x74
 6861 1a38 18       		.sleb128 24
 6862 1a39 00       		.byte	0
 6863 1a3a 29       		.uleb128 0x29
 6864 1a3b 26000000 		.4byte	.LVL237
 6865 1a3f 58220000 		.4byte	0x2258
 6866 1a43 561A0000 		.4byte	0x1a56
 6867 1a47 20       		.uleb128 0x20
 6868 1a48 01       		.uleb128 0x1
 6869 1a49 51       		.byte	0x51
 6870 1a4a 04       		.uleb128 0x4
 6871 1a4b 91       		.byte	0x91
 6872 1a4c 54       		.sleb128 -44
 6873 1a4d 94       		.byte	0x94
 6874 1a4e 02       		.byte	0x2
 6875 1a4f 20       		.uleb128 0x20
 6876 1a50 01       		.uleb128 0x1
 6877 1a51 50       		.byte	0x50
 6878 1a52 02       		.uleb128 0x2
 6879 1a53 77       		.byte	0x77
 6880 1a54 00       		.sleb128 0
 6881 1a55 00       		.byte	0
 6882 1a56 29       		.uleb128 0x29
 6883 1a57 E6000000 		.4byte	.LVL240
 6884 1a5b 58210000 		.4byte	0x2158
 6885 1a5f 8F1A0000 		.4byte	0x1a8f
 6886 1a63 20       		.uleb128 0x20
 6887 1a64 01       		.uleb128 0x1
 6888 1a65 53       		.byte	0x53
 6889 1a66 04       		.uleb128 0x4
 6890 1a67 91       		.byte	0x91
 6891 1a68 54       		.sleb128 -44
 6892 1a69 94       		.byte	0x94
 6893 1a6a 02       		.byte	0x2
 6894 1a6b 20       		.uleb128 0x20
 6895 1a6c 01       		.uleb128 0x1
 6896 1a6d 52       		.byte	0x52
 6897 1a6e 02       		.uleb128 0x2
 6898 1a6f 76       		.byte	0x76
 6899 1a70 00       		.sleb128 0
 6900 1a71 20       		.uleb128 0x20
 6901 1a72 01       		.uleb128 0x1
 6902 1a73 51       		.byte	0x51
 6903 1a74 02       		.uleb128 0x2
 6904 1a75 75       		.byte	0x75
 6905 1a76 00       		.sleb128 0
 6906 1a77 20       		.uleb128 0x20
 6907 1a78 01       		.uleb128 0x1
 6908 1a79 50       		.byte	0x50
 6909 1a7a 02       		.uleb128 0x2
 6910 1a7b 77       		.byte	0x77
 6911 1a7c 00       		.sleb128 0
 6912 1a7d 20       		.uleb128 0x20
 6913 1a7e 02       		.uleb128 0x2
 6914 1a7f 7D       		.byte	0x7d
 6915 1a80 04       		.sleb128 4
 6916 1a81 02       		.uleb128 0x2
ARM GAS  /tmp/ccOGUWYP.s 			page 123


 6917 1a82 74       		.byte	0x74
 6918 1a83 00       		.sleb128 0
 6919 1a84 20       		.uleb128 0x20
 6920 1a85 02       		.uleb128 0x2
 6921 1a86 7D       		.byte	0x7d
 6922 1a87 00       		.sleb128 0
 6923 1a88 05       		.uleb128 0x5
 6924 1a89 03       		.byte	0x3
 6925 1a8a 00000000 		.4byte	drawcharline
 6926 1a8e 00       		.byte	0
 6927 1a8f 29       		.uleb128 0x29
 6928 1a90 F2000000 		.4byte	.LVL241
 6929 1a94 DF210000 		.4byte	0x21df
 6930 1a98 A31A0000 		.4byte	0x1aa3
 6931 1a9c 20       		.uleb128 0x20
 6932 1a9d 01       		.uleb128 0x1
 6933 1a9e 50       		.byte	0x50
 6934 1a9f 02       		.uleb128 0x2
 6935 1aa0 74       		.byte	0x74
 6936 1aa1 00       		.sleb128 0
 6937 1aa2 00       		.byte	0
 6938 1aa3 31       		.uleb128 0x31
 6939 1aa4 04010000 		.4byte	.LVL243
 6940 1aa8 F1210000 		.4byte	0x21f1
 6941 1aac 00       		.byte	0
 6942 1aad 2D       		.uleb128 0x2d
 6943 1aae 7D060000 		.4byte	.LASF181
 6944 1ab2 01       		.byte	0x1
 6945 1ab3 420B     		.2byte	0xb42
 6946 1ab5 00000000 		.4byte	.LFB137
 6947 1ab9 88000000 		.4byte	.LFE137-.LFB137
 6948 1abd 01       		.uleb128 0x1
 6949 1abe 9C       		.byte	0x9c
 6950 1abf B01B0000 		.4byte	0x1bb0
 6951 1ac3 1D       		.uleb128 0x1d
 6952 1ac4 6700     		.ascii	"g\000"
 6953 1ac6 01       		.byte	0x1
 6954 1ac7 420B     		.2byte	0xb42
 6955 1ac9 C6070000 		.4byte	0x7c6
 6956 1acd 2F140000 		.4byte	.LLST118
 6957 1ad1 1D       		.uleb128 0x1d
 6958 1ad2 7800     		.ascii	"x\000"
 6959 1ad4 01       		.byte	0x1
 6960 1ad5 420B     		.2byte	0xb42
 6961 1ad7 00050000 		.4byte	0x500
 6962 1adb 5B140000 		.4byte	.LLST119
 6963 1adf 1D       		.uleb128 0x1d
 6964 1ae0 7900     		.ascii	"y\000"
 6965 1ae2 01       		.byte	0x1
 6966 1ae3 420B     		.2byte	0xb42
 6967 1ae5 00050000 		.4byte	0x500
 6968 1ae9 7C140000 		.4byte	.LLST120
 6969 1aed 1D       		.uleb128 0x1d
 6970 1aee 73747200 		.ascii	"str\000"
 6971 1af2 01       		.byte	0x1
 6972 1af3 420B     		.2byte	0xb42
 6973 1af5 C7040000 		.4byte	0x4c7
ARM GAS  /tmp/ccOGUWYP.s 			page 124


 6974 1af9 9D140000 		.4byte	.LLST121
 6975 1afd 1E       		.uleb128 0x1e
 6976 1afe 2D060000 		.4byte	.LASF133
 6977 1b02 01       		.byte	0x1
 6978 1b03 420B     		.2byte	0xb42
 6979 1b05 71050000 		.4byte	0x571
 6980 1b09 C9140000 		.4byte	.LLST122
 6981 1b0d 1E       		.uleb128 0x1e
 6982 1b0e 53070000 		.4byte	.LASF132
 6983 1b12 01       		.byte	0x1
 6984 1b13 420B     		.2byte	0xb42
 6985 1b15 AF070000 		.4byte	0x7af
 6986 1b19 E9140000 		.4byte	.LLST123
 6987 1b1d 29       		.uleb128 0x29
 6988 1b1e 1A000000 		.4byte	.LVL246
 6989 1b22 CE210000 		.4byte	0x21ce
 6990 1b26 311B0000 		.4byte	0x1b31
 6991 1b2a 20       		.uleb128 0x20
 6992 1b2b 01       		.uleb128 0x1
 6993 1b2c 50       		.byte	0x50
 6994 1b2d 02       		.uleb128 0x2
 6995 1b2e 74       		.byte	0x74
 6996 1b2f 18       		.sleb128 24
 6997 1b30 00       		.byte	0
 6998 1b31 29       		.uleb128 0x29
 6999 1b32 30000000 		.4byte	.LVL247
 7000 1b36 72220000 		.4byte	0x2272
 7001 1b3a 551B0000 		.4byte	0x1b55
 7002 1b3e 20       		.uleb128 0x20
 7003 1b3f 01       		.uleb128 0x1
 7004 1b40 53       		.byte	0x53
 7005 1b41 01       		.uleb128 0x1
 7006 1b42 30       		.byte	0x30
 7007 1b43 20       		.uleb128 0x20
 7008 1b44 01       		.uleb128 0x1
 7009 1b45 52       		.byte	0x52
 7010 1b46 01       		.uleb128 0x1
 7011 1b47 30       		.byte	0x30
 7012 1b48 20       		.uleb128 0x20
 7013 1b49 01       		.uleb128 0x1
 7014 1b4a 51       		.byte	0x51
 7015 1b4b 02       		.uleb128 0x2
 7016 1b4c 77       		.byte	0x77
 7017 1b4d 00       		.sleb128 0
 7018 1b4e 20       		.uleb128 0x20
 7019 1b4f 01       		.uleb128 0x1
 7020 1b50 50       		.byte	0x50
 7021 1b51 02       		.uleb128 0x2
 7022 1b52 75       		.byte	0x75
 7023 1b53 00       		.sleb128 0
 7024 1b54 00       		.byte	0
 7025 1b55 29       		.uleb128 0x29
 7026 1b56 66000000 		.4byte	.LVL248
 7027 1b5a 96220000 		.4byte	0x2296
 7028 1b5e 921B0000 		.4byte	0x1b92
 7029 1b62 20       		.uleb128 0x20
 7030 1b63 01       		.uleb128 0x1
ARM GAS  /tmp/ccOGUWYP.s 			page 125


 7031 1b64 53       		.byte	0x53
 7032 1b65 01       		.uleb128 0x1
 7033 1b66 30       		.byte	0x30
 7034 1b67 20       		.uleb128 0x20
 7035 1b68 01       		.uleb128 0x1
 7036 1b69 52       		.byte	0x52
 7037 1b6a 02       		.uleb128 0x2
 7038 1b6b 76       		.byte	0x76
 7039 1b6c 00       		.sleb128 0
 7040 1b6d 20       		.uleb128 0x20
 7041 1b6e 01       		.uleb128 0x1
 7042 1b6f 50       		.byte	0x50
 7043 1b70 02       		.uleb128 0x2
 7044 1b71 75       		.byte	0x75
 7045 1b72 00       		.sleb128 0
 7046 1b73 20       		.uleb128 0x20
 7047 1b74 02       		.uleb128 0x2
 7048 1b75 7D       		.byte	0x7d
 7049 1b76 0C       		.sleb128 12
 7050 1b77 02       		.uleb128 0x2
 7051 1b78 74       		.byte	0x74
 7052 1b79 00       		.sleb128 0
 7053 1b7a 20       		.uleb128 0x20
 7054 1b7b 02       		.uleb128 0x2
 7055 1b7c 7D       		.byte	0x7d
 7056 1b7d 08       		.sleb128 8
 7057 1b7e 05       		.uleb128 0x5
 7058 1b7f 03       		.byte	0x3
 7059 1b80 00000000 		.4byte	drawcharglyph
 7060 1b84 20       		.uleb128 0x20
 7061 1b85 02       		.uleb128 0x2
 7062 1b86 7D       		.byte	0x7d
 7063 1b87 04       		.sleb128 4
 7064 1b88 01       		.uleb128 0x1
 7065 1b89 30       		.byte	0x30
 7066 1b8a 20       		.uleb128 0x20
 7067 1b8b 02       		.uleb128 0x2
 7068 1b8c 7D       		.byte	0x7d
 7069 1b8d 00       		.sleb128 0
 7070 1b8e 02       		.uleb128 0x2
 7071 1b8f 77       		.byte	0x77
 7072 1b90 00       		.sleb128 0
 7073 1b91 00       		.byte	0
 7074 1b92 29       		.uleb128 0x29
 7075 1b93 72000000 		.4byte	.LVL249
 7076 1b97 DF210000 		.4byte	0x21df
 7077 1b9b A61B0000 		.4byte	0x1ba6
 7078 1b9f 20       		.uleb128 0x20
 7079 1ba0 01       		.uleb128 0x1
 7080 1ba1 50       		.byte	0x50
 7081 1ba2 02       		.uleb128 0x2
 7082 1ba3 74       		.byte	0x74
 7083 1ba4 00       		.sleb128 0
 7084 1ba5 00       		.byte	0
 7085 1ba6 31       		.uleb128 0x31
 7086 1ba7 84000000 		.4byte	.LVL251
 7087 1bab F1210000 		.4byte	0x21f1
ARM GAS  /tmp/ccOGUWYP.s 			page 126


 7088 1baf 00       		.byte	0
 7089 1bb0 2D       		.uleb128 0x2d
 7090 1bb1 38070000 		.4byte	.LASF182
 7091 1bb5 01       		.byte	0x1
 7092 1bb6 500B     		.2byte	0xb50
 7093 1bb8 00000000 		.4byte	.LFB138
 7094 1bbc 30010000 		.4byte	.LFE138-.LFB138
 7095 1bc0 01       		.uleb128 0x1
 7096 1bc1 9C       		.byte	0x9c
 7097 1bc2 EE1C0000 		.4byte	0x1cee
 7098 1bc6 1D       		.uleb128 0x1d
 7099 1bc7 6700     		.ascii	"g\000"
 7100 1bc9 01       		.byte	0x1
 7101 1bca 500B     		.2byte	0xb50
 7102 1bcc C6070000 		.4byte	0x7c6
 7103 1bd0 09150000 		.4byte	.LLST124
 7104 1bd4 1D       		.uleb128 0x1d
 7105 1bd5 7800     		.ascii	"x\000"
 7106 1bd7 01       		.byte	0x1
 7107 1bd8 500B     		.2byte	0xb50
 7108 1bda 00050000 		.4byte	0x500
 7109 1bde 40150000 		.4byte	.LLST125
 7110 1be2 1D       		.uleb128 0x1d
 7111 1be3 7900     		.ascii	"y\000"
 7112 1be5 01       		.byte	0x1
 7113 1be6 500B     		.2byte	0xb50
 7114 1be8 00050000 		.4byte	0x500
 7115 1bec 61150000 		.4byte	.LLST126
 7116 1bf0 1D       		.uleb128 0x1d
 7117 1bf1 73747200 		.ascii	"str\000"
 7118 1bf5 01       		.byte	0x1
 7119 1bf6 500B     		.2byte	0xb50
 7120 1bf8 C7040000 		.4byte	0x4c7
 7121 1bfc 82150000 		.4byte	.LLST127
 7122 1c00 1E       		.uleb128 0x1e
 7123 1c01 2D060000 		.4byte	.LASF133
 7124 1c05 01       		.byte	0x1
 7125 1c06 500B     		.2byte	0xb50
 7126 1c08 71050000 		.4byte	0x571
 7127 1c0c B9150000 		.4byte	.LLST128
 7128 1c10 1E       		.uleb128 0x1e
 7129 1c11 53070000 		.4byte	.LASF132
 7130 1c15 01       		.byte	0x1
 7131 1c16 500B     		.2byte	0xb50
 7132 1c18 AF070000 		.4byte	0x7af
 7133 1c1c E5150000 		.4byte	.LLST129
 7134 1c20 1E       		.uleb128 0x1e
 7135 1c21 54050000 		.4byte	.LASF134
 7136 1c25 01       		.byte	0x1
 7137 1c26 500B     		.2byte	0xb50
 7138 1c28 AF070000 		.4byte	0x7af
 7139 1c2c 11160000 		.4byte	.LLST130
 7140 1c30 34       		.uleb128 0x34
 7141 1c31 080A0000 		.4byte	0xa08
 7142 1c35 DA000000 		.4byte	.LBB132
 7143 1c39 06000000 		.4byte	.LBE132-.LBB132
 7144 1c3d 01       		.byte	0x1
ARM GAS  /tmp/ccOGUWYP.s 			page 127


 7145 1c3e 5D0B     		.2byte	0xb5d
 7146 1c40 5E1C0000 		.4byte	0x1c5e
 7147 1c44 23       		.uleb128 0x23
 7148 1c45 140A0000 		.4byte	0xa14
 7149 1c49 3D160000 		.4byte	.LLST131
 7150 1c4d 1F       		.uleb128 0x1f
 7151 1c4e E0000000 		.4byte	.LVL257
 7152 1c52 BC210000 		.4byte	0x21bc
 7153 1c56 20       		.uleb128 0x20
 7154 1c57 01       		.uleb128 0x1
 7155 1c58 50       		.byte	0x50
 7156 1c59 02       		.uleb128 0x2
 7157 1c5a 74       		.byte	0x74
 7158 1c5b 00       		.sleb128 0
 7159 1c5c 00       		.byte	0
 7160 1c5d 00       		.byte	0
 7161 1c5e 29       		.uleb128 0x29
 7162 1c5f 22000000 		.4byte	.LVL254
 7163 1c63 CE210000 		.4byte	0x21ce
 7164 1c67 721C0000 		.4byte	0x1c72
 7165 1c6b 20       		.uleb128 0x20
 7166 1c6c 01       		.uleb128 0x1
 7167 1c6d 50       		.byte	0x50
 7168 1c6e 02       		.uleb128 0x2
 7169 1c6f 74       		.byte	0x74
 7170 1c70 18       		.sleb128 24
 7171 1c71 00       		.byte	0
 7172 1c72 29       		.uleb128 0x29
 7173 1c73 2E000000 		.4byte	.LVL255
 7174 1c77 72220000 		.4byte	0x2272
 7175 1c7b 961C0000 		.4byte	0x1c96
 7176 1c7f 20       		.uleb128 0x20
 7177 1c80 01       		.uleb128 0x1
 7178 1c81 53       		.byte	0x53
 7179 1c82 01       		.uleb128 0x1
 7180 1c83 30       		.byte	0x30
 7181 1c84 20       		.uleb128 0x20
 7182 1c85 01       		.uleb128 0x1
 7183 1c86 52       		.byte	0x52
 7184 1c87 01       		.uleb128 0x1
 7185 1c88 30       		.byte	0x30
 7186 1c89 20       		.uleb128 0x20
 7187 1c8a 01       		.uleb128 0x1
 7188 1c8b 51       		.byte	0x51
 7189 1c8c 02       		.uleb128 0x2
 7190 1c8d 79       		.byte	0x79
 7191 1c8e 00       		.sleb128 0
 7192 1c8f 20       		.uleb128 0x20
 7193 1c90 01       		.uleb128 0x1
 7194 1c91 50       		.byte	0x50
 7195 1c92 02       		.uleb128 0x2
 7196 1c93 77       		.byte	0x77
 7197 1c94 00       		.sleb128 0
 7198 1c95 00       		.byte	0
 7199 1c96 29       		.uleb128 0x29
 7200 1c97 FE000000 		.4byte	.LVL258
 7201 1c9b 96220000 		.4byte	0x2296
ARM GAS  /tmp/ccOGUWYP.s 			page 128


 7202 1c9f D01C0000 		.4byte	0x1cd0
 7203 1ca3 20       		.uleb128 0x20
 7204 1ca4 01       		.uleb128 0x1
 7205 1ca5 53       		.byte	0x53
 7206 1ca6 01       		.uleb128 0x1
 7207 1ca7 30       		.byte	0x30
 7208 1ca8 20       		.uleb128 0x20
 7209 1ca9 01       		.uleb128 0x1
 7210 1caa 52       		.byte	0x52
 7211 1cab 02       		.uleb128 0x2
 7212 1cac 75       		.byte	0x75
 7213 1cad 00       		.sleb128 0
 7214 1cae 20       		.uleb128 0x20
 7215 1caf 01       		.uleb128 0x1
 7216 1cb0 50       		.byte	0x50
 7217 1cb1 02       		.uleb128 0x2
 7218 1cb2 77       		.byte	0x77
 7219 1cb3 00       		.sleb128 0
 7220 1cb4 20       		.uleb128 0x20
 7221 1cb5 02       		.uleb128 0x2
 7222 1cb6 7D       		.byte	0x7d
 7223 1cb7 0C       		.sleb128 12
 7224 1cb8 02       		.uleb128 0x2
 7225 1cb9 74       		.byte	0x74
 7226 1cba 00       		.sleb128 0
 7227 1cbb 20       		.uleb128 0x20
 7228 1cbc 02       		.uleb128 0x2
 7229 1cbd 7D       		.byte	0x7d
 7230 1cbe 08       		.sleb128 8
 7231 1cbf 02       		.uleb128 0x2
 7232 1cc0 76       		.byte	0x76
 7233 1cc1 00       		.sleb128 0
 7234 1cc2 20       		.uleb128 0x20
 7235 1cc3 02       		.uleb128 0x2
 7236 1cc4 7D       		.byte	0x7d
 7237 1cc5 04       		.sleb128 4
 7238 1cc6 01       		.uleb128 0x1
 7239 1cc7 30       		.byte	0x30
 7240 1cc8 20       		.uleb128 0x20
 7241 1cc9 02       		.uleb128 0x2
 7242 1cca 7D       		.byte	0x7d
 7243 1ccb 00       		.sleb128 0
 7244 1ccc 02       		.uleb128 0x2
 7245 1ccd 79       		.byte	0x79
 7246 1cce 00       		.sleb128 0
 7247 1ccf 00       		.byte	0
 7248 1cd0 29       		.uleb128 0x29
 7249 1cd1 0A010000 		.4byte	.LVL259
 7250 1cd5 DF210000 		.4byte	0x21df
 7251 1cd9 E41C0000 		.4byte	0x1ce4
 7252 1cdd 20       		.uleb128 0x20
 7253 1cde 01       		.uleb128 0x1
 7254 1cdf 50       		.byte	0x50
 7255 1ce0 02       		.uleb128 0x2
 7256 1ce1 74       		.byte	0x74
 7257 1ce2 00       		.sleb128 0
 7258 1ce3 00       		.byte	0
ARM GAS  /tmp/ccOGUWYP.s 			page 129


 7259 1ce4 31       		.uleb128 0x31
 7260 1ce5 1C010000 		.4byte	.LVL261
 7261 1ce9 F1210000 		.4byte	0x21f1
 7262 1ced 00       		.byte	0
 7263 1cee 2D       		.uleb128 0x2d
 7264 1cef 3C090000 		.4byte	.LASF183
 7265 1cf3 01       		.byte	0x1
 7266 1cf4 650B     		.2byte	0xb65
 7267 1cf6 00000000 		.4byte	.LFB139
 7268 1cfa BC000000 		.4byte	.LFE139-.LFB139
 7269 1cfe 01       		.uleb128 0x1
 7270 1cff 9C       		.byte	0x9c
 7271 1d00 031E0000 		.4byte	0x1e03
 7272 1d04 1D       		.uleb128 0x1d
 7273 1d05 6700     		.ascii	"g\000"
 7274 1d07 01       		.byte	0x1
 7275 1d08 650B     		.2byte	0xb65
 7276 1d0a C6070000 		.4byte	0x7c6
 7277 1d0e 50160000 		.4byte	.LLST132
 7278 1d12 1D       		.uleb128 0x1d
 7279 1d13 7800     		.ascii	"x\000"
 7280 1d15 01       		.byte	0x1
 7281 1d16 650B     		.2byte	0xb65
 7282 1d18 00050000 		.4byte	0x500
 7283 1d1c 87160000 		.4byte	.LLST133
 7284 1d20 1D       		.uleb128 0x1d
 7285 1d21 7900     		.ascii	"y\000"
 7286 1d23 01       		.byte	0x1
 7287 1d24 650B     		.2byte	0xb65
 7288 1d26 00050000 		.4byte	0x500
 7289 1d2a E5160000 		.4byte	.LLST134
 7290 1d2e 1D       		.uleb128 0x1d
 7291 1d2f 637800   		.ascii	"cx\000"
 7292 1d32 01       		.byte	0x1
 7293 1d33 650B     		.2byte	0xb65
 7294 1d35 00050000 		.4byte	0x500
 7295 1d39 92170000 		.4byte	.LLST135
 7296 1d3d 1D       		.uleb128 0x1d
 7297 1d3e 637900   		.ascii	"cy\000"
 7298 1d41 01       		.byte	0x1
 7299 1d42 650B     		.2byte	0xb65
 7300 1d44 00050000 		.4byte	0x500
 7301 1d48 B3170000 		.4byte	.LLST136
 7302 1d4c 1D       		.uleb128 0x1d
 7303 1d4d 73747200 		.ascii	"str\000"
 7304 1d51 01       		.byte	0x1
 7305 1d52 650B     		.2byte	0xb65
 7306 1d54 C7040000 		.4byte	0x4c7
 7307 1d58 DF170000 		.4byte	.LLST137
 7308 1d5c 1E       		.uleb128 0x1e
 7309 1d5d 2D060000 		.4byte	.LASF133
 7310 1d61 01       		.byte	0x1
 7311 1d62 650B     		.2byte	0xb65
 7312 1d64 71050000 		.4byte	0x571
 7313 1d68 0B180000 		.4byte	.LLST138
 7314 1d6c 1E       		.uleb128 0x1e
 7315 1d6d 53070000 		.4byte	.LASF132
ARM GAS  /tmp/ccOGUWYP.s 			page 130


 7316 1d71 01       		.byte	0x1
 7317 1d72 650B     		.2byte	0xb65
 7318 1d74 AF070000 		.4byte	0x7af
 7319 1d78 37180000 		.4byte	.LLST139
 7320 1d7c 1E       		.uleb128 0x1e
 7321 1d7d B0030000 		.4byte	.LASF75
 7322 1d81 01       		.byte	0x1
 7323 1d82 650B     		.2byte	0xb65
 7324 1d84 2A050000 		.4byte	0x52a
 7325 1d88 63180000 		.4byte	.LLST140
 7326 1d8c 29       		.uleb128 0x29
 7327 1d8d 26000000 		.4byte	.LVL265
 7328 1d91 CE210000 		.4byte	0x21ce
 7329 1d95 A01D0000 		.4byte	0x1da0
 7330 1d99 20       		.uleb128 0x20
 7331 1d9a 01       		.uleb128 0x1
 7332 1d9b 50       		.byte	0x50
 7333 1d9c 02       		.uleb128 0x2
 7334 1d9d 74       		.byte	0x74
 7335 1d9e 18       		.sleb128 24
 7336 1d9f 00       		.byte	0
 7337 1da0 29       		.uleb128 0x29
 7338 1da1 82000000 		.4byte	.LVL271
 7339 1da5 96220000 		.4byte	0x2296
 7340 1da9 E51D0000 		.4byte	0x1de5
 7341 1dad 20       		.uleb128 0x20
 7342 1dae 01       		.uleb128 0x1
 7343 1daf 53       		.byte	0x53
 7344 1db0 02       		.uleb128 0x2
 7345 1db1 76       		.byte	0x76
 7346 1db2 00       		.sleb128 0
 7347 1db3 20       		.uleb128 0x20
 7348 1db4 01       		.uleb128 0x1
 7349 1db5 52       		.byte	0x52
 7350 1db6 0B       		.uleb128 0xb
 7351 1db7 79       		.byte	0x79
 7352 1db8 00       		.sleb128 0
 7353 1db9 31       		.byte	0x31
 7354 1dba 26       		.byte	0x26
 7355 1dbb 78       		.byte	0x78
 7356 1dbc 00       		.sleb128 0
 7357 1dbd 0A       		.byte	0xa
 7358 1dbe FFFF     		.2byte	0xffff
 7359 1dc0 1A       		.byte	0x1a
 7360 1dc1 22       		.byte	0x22
 7361 1dc2 20       		.uleb128 0x20
 7362 1dc3 01       		.uleb128 0x1
 7363 1dc4 50       		.byte	0x50
 7364 1dc5 02       		.uleb128 0x2
 7365 1dc6 75       		.byte	0x75
 7366 1dc7 00       		.sleb128 0
 7367 1dc8 20       		.uleb128 0x20
 7368 1dc9 02       		.uleb128 0x2
 7369 1dca 7D       		.byte	0x7d
 7370 1dcb 0C       		.sleb128 12
 7371 1dcc 02       		.uleb128 0x2
 7372 1dcd 74       		.byte	0x74
ARM GAS  /tmp/ccOGUWYP.s 			page 131


 7373 1dce 00       		.sleb128 0
 7374 1dcf 20       		.uleb128 0x20
 7375 1dd0 02       		.uleb128 0x2
 7376 1dd1 7D       		.byte	0x7d
 7377 1dd2 08       		.sleb128 8
 7378 1dd3 02       		.uleb128 0x2
 7379 1dd4 77       		.byte	0x77
 7380 1dd5 00       		.sleb128 0
 7381 1dd6 20       		.uleb128 0x20
 7382 1dd7 02       		.uleb128 0x2
 7383 1dd8 7D       		.byte	0x7d
 7384 1dd9 04       		.sleb128 4
 7385 1dda 01       		.uleb128 0x1
 7386 1ddb 30       		.byte	0x30
 7387 1ddc 20       		.uleb128 0x20
 7388 1ddd 02       		.uleb128 0x2
 7389 1dde 7D       		.byte	0x7d
 7390 1ddf 00       		.sleb128 0
 7391 1de0 03       		.uleb128 0x3
 7392 1de1 91       		.byte	0x91
 7393 1de2 54       		.sleb128 -44
 7394 1de3 06       		.byte	0x6
 7395 1de4 00       		.byte	0
 7396 1de5 29       		.uleb128 0x29
 7397 1de6 8E000000 		.4byte	.LVL272
 7398 1dea DF210000 		.4byte	0x21df
 7399 1dee F91D0000 		.4byte	0x1df9
 7400 1df2 20       		.uleb128 0x20
 7401 1df3 01       		.uleb128 0x1
 7402 1df4 50       		.byte	0x50
 7403 1df5 02       		.uleb128 0x2
 7404 1df6 74       		.byte	0x74
 7405 1df7 00       		.sleb128 0
 7406 1df8 00       		.byte	0
 7407 1df9 31       		.uleb128 0x31
 7408 1dfa A0000000 		.4byte	.LVL274
 7409 1dfe F1210000 		.4byte	0x21f1
 7410 1e02 00       		.byte	0
 7411 1e03 2D       		.uleb128 0x2d
 7412 1e04 C7080000 		.4byte	.LASF184
 7413 1e08 01       		.byte	0x1
 7414 1e09 820B     		.2byte	0xb82
 7415 1e0b 00000000 		.4byte	.LFB140
 7416 1e0f 70010000 		.4byte	.LFE140-.LFB140
 7417 1e13 01       		.uleb128 0x1
 7418 1e14 9C       		.byte	0x9c
 7419 1e15 5E1F0000 		.4byte	0x1f5e
 7420 1e19 1D       		.uleb128 0x1d
 7421 1e1a 6700     		.ascii	"g\000"
 7422 1e1c 01       		.byte	0x1
 7423 1e1d 820B     		.2byte	0xb82
 7424 1e1f C6070000 		.4byte	0x7c6
 7425 1e23 8F180000 		.4byte	.LLST141
 7426 1e27 1D       		.uleb128 0x1d
 7427 1e28 7800     		.ascii	"x\000"
 7428 1e2a 01       		.byte	0x1
 7429 1e2b 820B     		.2byte	0xb82
ARM GAS  /tmp/ccOGUWYP.s 			page 132


 7430 1e2d 00050000 		.4byte	0x500
 7431 1e31 C6180000 		.4byte	.LLST142
 7432 1e35 1D       		.uleb128 0x1d
 7433 1e36 7900     		.ascii	"y\000"
 7434 1e38 01       		.byte	0x1
 7435 1e39 820B     		.2byte	0xb82
 7436 1e3b 00050000 		.4byte	0x500
 7437 1e3f 27190000 		.4byte	.LLST143
 7438 1e43 1D       		.uleb128 0x1d
 7439 1e44 637800   		.ascii	"cx\000"
 7440 1e47 01       		.byte	0x1
 7441 1e48 820B     		.2byte	0xb82
 7442 1e4a 00050000 		.4byte	0x500
 7443 1e4e B7190000 		.4byte	.LLST144
 7444 1e52 1D       		.uleb128 0x1d
 7445 1e53 637900   		.ascii	"cy\000"
 7446 1e56 01       		.byte	0x1
 7447 1e57 820B     		.2byte	0xb82
 7448 1e59 00050000 		.4byte	0x500
 7449 1e5d D8190000 		.4byte	.LLST145
 7450 1e61 1D       		.uleb128 0x1d
 7451 1e62 73747200 		.ascii	"str\000"
 7452 1e66 01       		.byte	0x1
 7453 1e67 820B     		.2byte	0xb82
 7454 1e69 C7040000 		.4byte	0x4c7
 7455 1e6d 041A0000 		.4byte	.LLST146
 7456 1e71 1E       		.uleb128 0x1e
 7457 1e72 2D060000 		.4byte	.LASF133
 7458 1e76 01       		.byte	0x1
 7459 1e77 820B     		.2byte	0xb82
 7460 1e79 71050000 		.4byte	0x571
 7461 1e7d 301A0000 		.4byte	.LLST147
 7462 1e81 1E       		.uleb128 0x1e
 7463 1e82 53070000 		.4byte	.LASF132
 7464 1e86 01       		.byte	0x1
 7465 1e87 820B     		.2byte	0xb82
 7466 1e89 AF070000 		.4byte	0x7af
 7467 1e8d 5C1A0000 		.4byte	.LLST148
 7468 1e91 1E       		.uleb128 0x1e
 7469 1e92 54050000 		.4byte	.LASF134
 7470 1e96 01       		.byte	0x1
 7471 1e97 820B     		.2byte	0xb82
 7472 1e99 AF070000 		.4byte	0x7af
 7473 1e9d 881A0000 		.4byte	.LLST149
 7474 1ea1 1E       		.uleb128 0x1e
 7475 1ea2 B0030000 		.4byte	.LASF75
 7476 1ea6 01       		.byte	0x1
 7477 1ea7 820B     		.2byte	0xb82
 7478 1ea9 2A050000 		.4byte	0x52a
 7479 1ead B41A0000 		.4byte	.LLST150
 7480 1eb1 34       		.uleb128 0x34
 7481 1eb2 080A0000 		.4byte	0xa08
 7482 1eb6 DC000000 		.4byte	.LBB134
 7483 1eba 06000000 		.4byte	.LBE134-.LBB134
 7484 1ebe 01       		.byte	0x1
 7485 1ebf 910B     		.2byte	0xb91
 7486 1ec1 DF1E0000 		.4byte	0x1edf
ARM GAS  /tmp/ccOGUWYP.s 			page 133


 7487 1ec5 23       		.uleb128 0x23
 7488 1ec6 140A0000 		.4byte	0xa14
 7489 1eca E01A0000 		.4byte	.LLST151
 7490 1ece 1F       		.uleb128 0x1f
 7491 1ecf E2000000 		.4byte	.LVL284
 7492 1ed3 BC210000 		.4byte	0x21bc
 7493 1ed7 20       		.uleb128 0x20
 7494 1ed8 01       		.uleb128 0x1
 7495 1ed9 50       		.byte	0x50
 7496 1eda 02       		.uleb128 0x2
 7497 1edb 74       		.byte	0x74
 7498 1edc 00       		.sleb128 0
 7499 1edd 00       		.byte	0
 7500 1ede 00       		.byte	0
 7501 1edf 29       		.uleb128 0x29
 7502 1ee0 36000000 		.4byte	.LVL282
 7503 1ee4 CE210000 		.4byte	0x21ce
 7504 1ee8 F31E0000 		.4byte	0x1ef3
 7505 1eec 20       		.uleb128 0x20
 7506 1eed 01       		.uleb128 0x1
 7507 1eee 50       		.byte	0x50
 7508 1eef 02       		.uleb128 0x2
 7509 1ef0 74       		.byte	0x74
 7510 1ef1 18       		.sleb128 24
 7511 1ef2 00       		.byte	0
 7512 1ef3 29       		.uleb128 0x29
 7513 1ef4 1A010000 		.4byte	.LVL289
 7514 1ef8 96220000 		.4byte	0x2296
 7515 1efc 401F0000 		.4byte	0x1f40
 7516 1f00 20       		.uleb128 0x20
 7517 1f01 01       		.uleb128 0x1
 7518 1f02 53       		.byte	0x53
 7519 1f03 04       		.uleb128 0x4
 7520 1f04 91       		.byte	0x91
 7521 1f05 50       		.sleb128 -48
 7522 1f06 94       		.byte	0x94
 7523 1f07 01       		.byte	0x1
 7524 1f08 20       		.uleb128 0x20
 7525 1f09 01       		.uleb128 0x1
 7526 1f0a 52       		.byte	0x52
 7527 1f0b 07       		.uleb128 0x7
 7528 1f0c 78       		.byte	0x78
 7529 1f0d 00       		.sleb128 0
 7530 1f0e 31       		.byte	0x31
 7531 1f0f 26       		.byte	0x26
 7532 1f10 7B       		.byte	0x7b
 7533 1f11 00       		.sleb128 0
 7534 1f12 22       		.byte	0x22
 7535 1f13 20       		.uleb128 0x20
 7536 1f14 01       		.uleb128 0x1
 7537 1f15 51       		.byte	0x51
 7538 1f16 04       		.uleb128 0x4
 7539 1f17 91       		.byte	0x91
 7540 1f18 4C       		.sleb128 -52
 7541 1f19 94       		.byte	0x94
 7542 1f1a 02       		.byte	0x2
 7543 1f1b 20       		.uleb128 0x20
ARM GAS  /tmp/ccOGUWYP.s 			page 134


 7544 1f1c 01       		.uleb128 0x1
 7545 1f1d 50       		.byte	0x50
 7546 1f1e 03       		.uleb128 0x3
 7547 1f1f 91       		.byte	0x91
 7548 1f20 48       		.sleb128 -56
 7549 1f21 06       		.byte	0x6
 7550 1f22 20       		.uleb128 0x20
 7551 1f23 02       		.uleb128 0x2
 7552 1f24 7D       		.byte	0x7d
 7553 1f25 0C       		.sleb128 12
 7554 1f26 02       		.uleb128 0x2
 7555 1f27 74       		.byte	0x74
 7556 1f28 00       		.sleb128 0
 7557 1f29 20       		.uleb128 0x20
 7558 1f2a 02       		.uleb128 0x2
 7559 1f2b 7D       		.byte	0x7d
 7560 1f2c 08       		.sleb128 8
 7561 1f2d 02       		.uleb128 0x2
 7562 1f2e 75       		.byte	0x75
 7563 1f2f 00       		.sleb128 0
 7564 1f30 20       		.uleb128 0x20
 7565 1f31 02       		.uleb128 0x2
 7566 1f32 7D       		.byte	0x7d
 7567 1f33 04       		.sleb128 4
 7568 1f34 02       		.uleb128 0x2
 7569 1f35 76       		.byte	0x76
 7570 1f36 00       		.sleb128 0
 7571 1f37 20       		.uleb128 0x20
 7572 1f38 02       		.uleb128 0x2
 7573 1f39 7D       		.byte	0x7d
 7574 1f3a 00       		.sleb128 0
 7575 1f3b 03       		.uleb128 0x3
 7576 1f3c 91       		.byte	0x91
 7577 1f3d 54       		.sleb128 -44
 7578 1f3e 06       		.byte	0x6
 7579 1f3f 00       		.byte	0
 7580 1f40 29       		.uleb128 0x29
 7581 1f41 26010000 		.4byte	.LVL290
 7582 1f45 DF210000 		.4byte	0x21df
 7583 1f49 541F0000 		.4byte	0x1f54
 7584 1f4d 20       		.uleb128 0x20
 7585 1f4e 01       		.uleb128 0x1
 7586 1f4f 50       		.byte	0x50
 7587 1f50 02       		.uleb128 0x2
 7588 1f51 74       		.byte	0x74
 7589 1f52 00       		.sleb128 0
 7590 1f53 00       		.byte	0
 7591 1f54 31       		.uleb128 0x31
 7592 1f55 38010000 		.4byte	.LVL292
 7593 1f59 F1210000 		.4byte	0x21f1
 7594 1f5d 00       		.byte	0
 7595 1f5e 2C       		.uleb128 0x2c
 7596 1f5f 20040000 		.4byte	.LASF186
 7597 1f63 01       		.byte	0x1
 7598 1f64 A90B     		.2byte	0xba9
 7599 1f66 00050000 		.4byte	0x500
 7600 1f6a 00000000 		.4byte	.LFB141
ARM GAS  /tmp/ccOGUWYP.s 			page 135


 7601 1f6e 38000000 		.4byte	.LFE141-.LFB141
 7602 1f72 01       		.uleb128 0x1
 7603 1f73 9C       		.byte	0x9c
 7604 1f74 971F0000 		.4byte	0x1f97
 7605 1f78 1E       		.uleb128 0x1e
 7606 1f79 2D060000 		.4byte	.LASF133
 7607 1f7d 01       		.byte	0x1
 7608 1f7e A90B     		.2byte	0xba9
 7609 1f80 71050000 		.4byte	0x571
 7610 1f84 FE1A0000 		.4byte	.LLST152
 7611 1f88 3B       		.uleb128 0x3b
 7612 1f89 16020000 		.4byte	.LASF187
 7613 1f8d 01       		.byte	0x1
 7614 1f8e A90B     		.2byte	0xba9
 7615 1f90 66050000 		.4byte	0x566
 7616 1f94 01       		.uleb128 0x1
 7617 1f95 51       		.byte	0x51
 7618 1f96 00       		.byte	0
 7619 1f97 2C       		.uleb128 0x2c
 7620 1f98 2B0A0000 		.4byte	.LASF188
 7621 1f9c 01       		.byte	0x1
 7622 1f9d B60B     		.2byte	0xbb6
 7623 1f9f 00050000 		.4byte	0x500
 7624 1fa3 00000000 		.4byte	.LFB142
 7625 1fa7 10000000 		.4byte	.LFE142-.LFB142
 7626 1fab 01       		.uleb128 0x1
 7627 1fac 9C       		.byte	0x9c
 7628 1fad E11F0000 		.4byte	0x1fe1
 7629 1fb1 1D       		.uleb128 0x1d
 7630 1fb2 6300     		.ascii	"c\000"
 7631 1fb4 01       		.byte	0x1
 7632 1fb5 B60B     		.2byte	0xbb6
 7633 1fb7 D2040000 		.4byte	0x4d2
 7634 1fbb 9C1B0000 		.4byte	.LLST153
 7635 1fbf 1E       		.uleb128 0x1e
 7636 1fc0 2D060000 		.4byte	.LASF133
 7637 1fc4 01       		.byte	0x1
 7638 1fc5 B60B     		.2byte	0xbb6
 7639 1fc7 71050000 		.4byte	0x571
 7640 1fcb BD1B0000 		.4byte	.LLST154
 7641 1fcf 1F       		.uleb128 0x1f
 7642 1fd0 0C000000 		.4byte	.LVL312
 7643 1fd4 58220000 		.4byte	0x2258
 7644 1fd8 20       		.uleb128 0x20
 7645 1fd9 01       		.uleb128 0x1
 7646 1fda 50       		.byte	0x50
 7647 1fdb 03       		.uleb128 0x3
 7648 1fdc F3       		.byte	0xf3
 7649 1fdd 01       		.uleb128 0x1
 7650 1fde 51       		.byte	0x51
 7651 1fdf 00       		.byte	0
 7652 1fe0 00       		.byte	0
 7653 1fe1 2C       		.uleb128 0x2c
 7654 1fe2 7F0A0000 		.4byte	.LASF189
 7655 1fe6 01       		.byte	0x1
 7656 1fe7 BB0B     		.2byte	0xbbb
 7657 1fe9 00050000 		.4byte	0x500
ARM GAS  /tmp/ccOGUWYP.s 			page 136


 7658 1fed 00000000 		.4byte	.LFB143
 7659 1ff1 14000000 		.4byte	.LFE143-.LFB143
 7660 1ff5 01       		.uleb128 0x1
 7661 1ff6 9C       		.byte	0x9c
 7662 1ff7 3E200000 		.4byte	0x203e
 7663 1ffb 1D       		.uleb128 0x1d
 7664 1ffc 73747200 		.ascii	"str\000"
 7665 2000 01       		.byte	0x1
 7666 2001 BB0B     		.2byte	0xbbb
 7667 2003 C7040000 		.4byte	0x4c7
 7668 2007 E91B0000 		.4byte	.LLST155
 7669 200b 1E       		.uleb128 0x1e
 7670 200c 2D060000 		.4byte	.LASF133
 7671 2010 01       		.byte	0x1
 7672 2011 BB0B     		.2byte	0xbbb
 7673 2013 71050000 		.4byte	0x571
 7674 2017 201C0000 		.4byte	.LLST156
 7675 201b 2A       		.uleb128 0x2a
 7676 201c 14000000 		.4byte	.LVL317
 7677 2020 72220000 		.4byte	0x2272
 7678 2024 20       		.uleb128 0x20
 7679 2025 01       		.uleb128 0x1
 7680 2026 53       		.byte	0x53
 7681 2027 01       		.uleb128 0x1
 7682 2028 30       		.byte	0x30
 7683 2029 20       		.uleb128 0x20
 7684 202a 01       		.uleb128 0x1
 7685 202b 52       		.byte	0x52
 7686 202c 01       		.uleb128 0x1
 7687 202d 30       		.byte	0x30
 7688 202e 20       		.uleb128 0x20
 7689 202f 01       		.uleb128 0x1
 7690 2030 51       		.byte	0x51
 7691 2031 03       		.uleb128 0x3
 7692 2032 F3       		.byte	0xf3
 7693 2033 01       		.uleb128 0x1
 7694 2034 50       		.byte	0x50
 7695 2035 20       		.uleb128 0x20
 7696 2036 01       		.uleb128 0x1
 7697 2037 50       		.byte	0x50
 7698 2038 03       		.uleb128 0x3
 7699 2039 F3       		.byte	0xf3
 7700 203a 01       		.uleb128 0x1
 7701 203b 51       		.byte	0x51
 7702 203c 00       		.byte	0
 7703 203d 00       		.byte	0
 7704 203e 2C       		.uleb128 0x2c
 7705 203f BA0A0000 		.4byte	.LASF190
 7706 2043 01       		.byte	0x1
 7707 2044 C10B     		.2byte	0xbc1
 7708 2046 AF070000 		.4byte	0x7af
 7709 204a 00000000 		.4byte	.LFB144
 7710 204e 5A000000 		.4byte	.LFE144-.LFB144
 7711 2052 01       		.uleb128 0x1
 7712 2053 9C       		.byte	0x9c
 7713 2054 D1200000 		.4byte	0x20d1
 7714 2058 1D       		.uleb128 0x1d
ARM GAS  /tmp/ccOGUWYP.s 			page 137


 7715 2059 666700   		.ascii	"fg\000"
 7716 205c 01       		.byte	0x1
 7717 205d C10B     		.2byte	0xbc1
 7718 205f AF070000 		.4byte	0x7af
 7719 2063 4C1C0000 		.4byte	.LLST157
 7720 2067 1D       		.uleb128 0x1d
 7721 2068 626700   		.ascii	"bg\000"
 7722 206b 01       		.byte	0x1
 7723 206c C10B     		.2byte	0xbc1
 7724 206e AF070000 		.4byte	0x7af
 7725 2072 6D1C0000 		.4byte	.LLST158
 7726 2076 1E       		.uleb128 0x1e
 7727 2077 58010000 		.4byte	.LASF147
 7728 207b 01       		.byte	0x1
 7729 207c C10B     		.2byte	0xbc1
 7730 207e AD000000 		.4byte	0xad
 7731 2082 8E1C0000 		.4byte	.LLST159
 7732 2086 3C       		.uleb128 0x3c
 7733 2087 4D0A0000 		.4byte	.LASF191
 7734 208b 01       		.byte	0x1
 7735 208c C30B     		.2byte	0xbc3
 7736 208e C3000000 		.4byte	0xc3
 7737 2092 AF1C0000 		.4byte	.LLST160
 7738 2096 3C       		.uleb128 0x3c
 7739 2097 B8040000 		.4byte	.LASF192
 7740 209b 01       		.byte	0x1
 7741 209c C40B     		.2byte	0xbc4
 7742 209e C3000000 		.4byte	0xc3
 7743 20a2 C21C0000 		.4byte	.LLST161
 7744 20a6 38       		.uleb128 0x38
 7745 20a7 7200     		.ascii	"r\000"
 7746 20a9 01       		.byte	0x1
 7747 20aa C50B     		.2byte	0xbc5
 7748 20ac C3000000 		.4byte	0xc3
 7749 20b0 D51C0000 		.4byte	.LLST162
 7750 20b4 38       		.uleb128 0x38
 7751 20b5 6700     		.ascii	"g\000"
 7752 20b7 01       		.byte	0x1
 7753 20b8 C50B     		.2byte	0xbc5
 7754 20ba C3000000 		.4byte	0xc3
 7755 20be EE1C0000 		.4byte	.LLST163
 7756 20c2 38       		.uleb128 0x38
 7757 20c3 6200     		.ascii	"b\000"
 7758 20c5 01       		.byte	0x1
 7759 20c6 C50B     		.2byte	0xbc5
 7760 20c8 C3000000 		.4byte	0xc3
 7761 20cc 241D0000 		.4byte	.LLST164
 7762 20d0 00       		.byte	0
 7763 20d1 2C       		.uleb128 0x2c
 7764 20d2 FA080000 		.4byte	.LASF193
 7765 20d6 01       		.byte	0x1
 7766 20d7 D60B     		.2byte	0xbd6
 7767 20d9 AF070000 		.4byte	0x7af
 7768 20dd 00000000 		.4byte	.LFB145
 7769 20e1 36000000 		.4byte	.LFE145-.LFB145
 7770 20e5 01       		.uleb128 0x1
 7771 20e6 9C       		.byte	0x9c
ARM GAS  /tmp/ccOGUWYP.s 			page 138


 7772 20e7 1A210000 		.4byte	0x211a
 7773 20eb 1E       		.uleb128 0x1e
 7774 20ec 53070000 		.4byte	.LASF132
 7775 20f0 01       		.byte	0x1
 7776 20f1 D60B     		.2byte	0xbd6
 7777 20f3 AF070000 		.4byte	0x7af
 7778 20f7 4C1D0000 		.4byte	.LLST165
 7779 20fb 32       		.uleb128 0x32
 7780 20fc 7200     		.ascii	"r\000"
 7781 20fe 01       		.byte	0x1
 7782 20ff D70B     		.2byte	0xbd7
 7783 2101 C3000000 		.4byte	0xc3
 7784 2105 32       		.uleb128 0x32
 7785 2106 6700     		.ascii	"g\000"
 7786 2108 01       		.byte	0x1
 7787 2109 D70B     		.2byte	0xbd7
 7788 210b C3000000 		.4byte	0xc3
 7789 210f 32       		.uleb128 0x32
 7790 2110 6200     		.ascii	"b\000"
 7791 2112 01       		.byte	0x1
 7792 2113 D70B     		.2byte	0xbd7
 7793 2115 C3000000 		.4byte	0xc3
 7794 2119 00       		.byte	0
 7795 211a 36       		.uleb128 0x36
 7796 211b 01070000 		.4byte	0x701
 7797 211f 2A210000 		.4byte	0x212a
 7798 2123 37       		.uleb128 0x37
 7799 2124 44040000 		.4byte	0x444
 7800 2128 00       		.byte	0
 7801 2129 00       		.byte	0
 7802 212a 3D       		.uleb128 0x3d
 7803 212b 46050000 		.4byte	.LASF194
 7804 212f 01       		.byte	0x1
 7805 2130 38       		.byte	0x38
 7806 2131 1A210000 		.4byte	0x211a
 7807 2135 05       		.uleb128 0x5
 7808 2136 03       		.byte	0x3
 7809 2137 00000000 		.4byte	GDisplayArray
 7810 213b 3E       		.uleb128 0x3e
 7811 213c FD040000 		.4byte	.LASF195
 7812 2140 10       		.byte	0x10
 7813 2141 9806     		.2byte	0x698
 7814 2143 E5040000 		.4byte	0x4e5
 7815 2147 3F       		.uleb128 0x3f
 7816 2148 D1030000 		.4byte	.LASF196
 7817 214c 01       		.byte	0x1
 7818 214d 39       		.byte	0x39
 7819 214e C6070000 		.4byte	0x7c6
 7820 2152 05       		.uleb128 0x5
 7821 2153 03       		.byte	0x3
 7822 2154 00000000 		.4byte	GDISP
 7823 2158 40       		.uleb128 0x40
 7824 2159 28090000 		.4byte	.LASF206
 7825 215d 0B       		.byte	0xb
 7826 215e 5D       		.byte	0x5d
 7827 215f AD000000 		.4byte	0xad
 7828 2163 86210000 		.4byte	0x2186
ARM GAS  /tmp/ccOGUWYP.s 			page 139


 7829 2167 15       		.uleb128 0x15
 7830 2168 7C050000 		.4byte	0x57c
 7831 216c 15       		.uleb128 0x15
 7832 216d B8000000 		.4byte	0xb8
 7833 2171 15       		.uleb128 0x15
 7834 2172 B8000000 		.4byte	0xb8
 7835 2176 15       		.uleb128 0x15
 7836 2177 A0080000 		.4byte	0x8a0
 7837 217b 15       		.uleb128 0x15
 7838 217c B6080000 		.4byte	0x8b6
 7839 2180 15       		.uleb128 0x15
 7840 2181 CA020000 		.4byte	0x2ca
 7841 2185 00       		.byte	0
 7842 2186 41       		.uleb128 0x41
 7843 2187 1D020000 		.4byte	.LASF197
 7844 218b 0C       		.byte	0xc
 7845 218c 2101     		.2byte	0x121
 7846 218e 98210000 		.4byte	0x2198
 7847 2192 15       		.uleb128 0x15
 7848 2193 C6070000 		.4byte	0x7c6
 7849 2197 00       		.byte	0
 7850 2198 41       		.uleb128 0x41
 7851 2199 64050000 		.4byte	.LASF198
 7852 219d 0C       		.byte	0xc
 7853 219e 4201     		.2byte	0x142
 7854 21a0 AA210000 		.4byte	0x21aa
 7855 21a4 15       		.uleb128 0x15
 7856 21a5 C6070000 		.4byte	0x7c6
 7857 21a9 00       		.byte	0
 7858 21aa 41       		.uleb128 0x41
 7859 21ab 58060000 		.4byte	.LASF199
 7860 21af 0C       		.byte	0xc
 7861 21b0 2C01     		.2byte	0x12c
 7862 21b2 BC210000 		.4byte	0x21bc
 7863 21b6 15       		.uleb128 0x15
 7864 21b7 C6070000 		.4byte	0x7c6
 7865 21bb 00       		.byte	0
 7866 21bc 41       		.uleb128 0x41
 7867 21bd 39000000 		.4byte	.LASF200
 7868 21c1 0C       		.byte	0xc
 7869 21c2 9201     		.2byte	0x192
 7870 21c4 CE210000 		.4byte	0x21ce
 7871 21c8 15       		.uleb128 0x15
 7872 21c9 C6070000 		.4byte	0x7c6
 7873 21cd 00       		.byte	0
 7874 21ce 42       		.uleb128 0x42
 7875 21cf ED040000 		.4byte	.LASF201
 7876 21d3 08       		.byte	0x8
 7877 21d4 39       		.byte	0x39
 7878 21d5 DF210000 		.4byte	0x21df
 7879 21d9 15       		.uleb128 0x15
 7880 21da DF040000 		.4byte	0x4df
 7881 21de 00       		.byte	0
 7882 21df 41       		.uleb128 0x41
 7883 21e0 FC090000 		.4byte	.LASF202
 7884 21e4 0C       		.byte	0xc
 7885 21e5 3601     		.2byte	0x136
ARM GAS  /tmp/ccOGUWYP.s 			page 140


 7886 21e7 F1210000 		.4byte	0x21f1
 7887 21eb 15       		.uleb128 0x15
 7888 21ec C6070000 		.4byte	0x7c6
 7889 21f0 00       		.byte	0
 7890 21f1 43       		.uleb128 0x43
 7891 21f2 91010000 		.4byte	.LASF215
 7892 21f6 08       		.byte	0x8
 7893 21f7 3D       		.byte	0x3d
 7894 21f8 DF040000 		.4byte	0x4df
 7895 21fc 41       		.uleb128 0x41
 7896 21fd A5080000 		.4byte	.LASF203
 7897 2201 0C       		.byte	0xc
 7898 2202 A301     		.2byte	0x1a3
 7899 2204 0E220000 		.4byte	0x220e
 7900 2208 15       		.uleb128 0x15
 7901 2209 C6070000 		.4byte	0x7c6
 7902 220d 00       		.byte	0
 7903 220e 41       		.uleb128 0x41
 7904 220f 8B080000 		.4byte	.LASF204
 7905 2213 0C       		.byte	0xc
 7906 2214 D201     		.2byte	0x1d2
 7907 2216 20220000 		.4byte	0x2220
 7908 221a 15       		.uleb128 0x15
 7909 221b C6070000 		.4byte	0x7c6
 7910 221f 00       		.byte	0
 7911 2220 42       		.uleb128 0x42
 7912 2221 04010000 		.4byte	.LASF205
 7913 2225 08       		.byte	0x8
 7914 2226 38       		.byte	0x38
 7915 2227 31220000 		.4byte	0x2231
 7916 222b 15       		.uleb128 0x15
 7917 222c DF040000 		.4byte	0x4df
 7918 2230 00       		.byte	0
 7919 2231 44       		.uleb128 0x44
 7920 2232 96000000 		.4byte	.LASF207
 7921 2236 0C       		.byte	0xc
 7922 2237 0401     		.2byte	0x104
 7923 2239 EF000000 		.4byte	0xef
 7924 223d 47220000 		.4byte	0x2247
 7925 2241 15       		.uleb128 0x15
 7926 2242 C6070000 		.4byte	0x7c6
 7927 2246 00       		.byte	0
 7928 2247 42       		.uleb128 0x42
 7929 2248 F6010000 		.4byte	.LASF208
 7930 224c 09       		.byte	0x9
 7931 224d 62       		.byte	0x62
 7932 224e 58220000 		.4byte	0x2258
 7933 2252 15       		.uleb128 0x15
 7934 2253 EA040000 		.4byte	0x4ea
 7935 2257 00       		.byte	0
 7936 2258 40       		.uleb128 0x40
 7937 2259 0B060000 		.4byte	.LASF209
 7938 225d 0B       		.byte	0xb
 7939 225e 6C       		.byte	0x6c
 7940 225f AD000000 		.4byte	0xad
 7941 2263 72220000 		.4byte	0x2272
 7942 2267 15       		.uleb128 0x15
ARM GAS  /tmp/ccOGUWYP.s 			page 141


 7943 2268 7C050000 		.4byte	0x57c
 7944 226c 15       		.uleb128 0x15
 7945 226d A0080000 		.4byte	0x8a0
 7946 2271 00       		.byte	0
 7947 2272 40       		.uleb128 0x40
 7948 2273 41040000 		.4byte	.LASF210
 7949 2277 0F       		.byte	0xf
 7950 2278 2A       		.byte	0x2a
 7951 2279 B8000000 		.4byte	0xb8
 7952 227d 96220000 		.4byte	0x2296
 7953 2281 15       		.uleb128 0x15
 7954 2282 7C050000 		.4byte	0x57c
 7955 2286 15       		.uleb128 0x15
 7956 2287 AB080000 		.4byte	0x8ab
 7957 228b 15       		.uleb128 0x15
 7958 228c C3000000 		.4byte	0xc3
 7959 2290 15       		.uleb128 0x15
 7960 2291 FA000000 		.4byte	0xfa
 7961 2295 00       		.byte	0
 7962 2296 45       		.uleb128 0x45
 7963 2297 90030000 		.4byte	.LASF216
 7964 229b 0F       		.byte	0xf
 7965 229c 38       		.byte	0x38
 7966 229d 15       		.uleb128 0x15
 7967 229e 7C050000 		.4byte	0x57c
 7968 22a2 15       		.uleb128 0x15
 7969 22a3 B8000000 		.4byte	0xb8
 7970 22a7 15       		.uleb128 0x15
 7971 22a8 B8000000 		.4byte	0xb8
 7972 22ac 15       		.uleb128 0x15
 7973 22ad 2E090000 		.4byte	0x92e
 7974 22b1 15       		.uleb128 0x15
 7975 22b2 AB080000 		.4byte	0x8ab
 7976 22b6 15       		.uleb128 0x15
 7977 22b7 C3000000 		.4byte	0xc3
 7978 22bb 15       		.uleb128 0x15
 7979 22bc 4D090000 		.4byte	0x94d
 7980 22c0 15       		.uleb128 0x15
 7981 22c1 CA020000 		.4byte	0x2ca
 7982 22c5 00       		.byte	0
 7983 22c6 00       		.byte	0
 7984              		.section	.debug_abbrev,"",%progbits
 7985              	.Ldebug_abbrev0:
 7986 0000 01       		.uleb128 0x1
 7987 0001 11       		.uleb128 0x11
 7988 0002 01       		.byte	0x1
 7989 0003 25       		.uleb128 0x25
 7990 0004 0E       		.uleb128 0xe
 7991 0005 13       		.uleb128 0x13
 7992 0006 0B       		.uleb128 0xb
 7993 0007 03       		.uleb128 0x3
 7994 0008 0E       		.uleb128 0xe
 7995 0009 1B       		.uleb128 0x1b
 7996 000a 0E       		.uleb128 0xe
 7997 000b 55       		.uleb128 0x55
 7998 000c 17       		.uleb128 0x17
 7999 000d 11       		.uleb128 0x11
ARM GAS  /tmp/ccOGUWYP.s 			page 142


 8000 000e 01       		.uleb128 0x1
 8001 000f 10       		.uleb128 0x10
 8002 0010 17       		.uleb128 0x17
 8003 0011 00       		.byte	0
 8004 0012 00       		.byte	0
 8005 0013 02       		.uleb128 0x2
 8006 0014 24       		.uleb128 0x24
 8007 0015 00       		.byte	0
 8008 0016 0B       		.uleb128 0xb
 8009 0017 0B       		.uleb128 0xb
 8010 0018 3E       		.uleb128 0x3e
 8011 0019 0B       		.uleb128 0xb
 8012 001a 03       		.uleb128 0x3
 8013 001b 08       		.uleb128 0x8
 8014 001c 00       		.byte	0
 8015 001d 00       		.byte	0
 8016 001e 03       		.uleb128 0x3
 8017 001f 24       		.uleb128 0x24
 8018 0020 00       		.byte	0
 8019 0021 0B       		.uleb128 0xb
 8020 0022 0B       		.uleb128 0xb
 8021 0023 3E       		.uleb128 0x3e
 8022 0024 0B       		.uleb128 0xb
 8023 0025 03       		.uleb128 0x3
 8024 0026 0E       		.uleb128 0xe
 8025 0027 00       		.byte	0
 8026 0028 00       		.byte	0
 8027 0029 04       		.uleb128 0x4
 8028 002a 16       		.uleb128 0x16
 8029 002b 00       		.byte	0
 8030 002c 03       		.uleb128 0x3
 8031 002d 0E       		.uleb128 0xe
 8032 002e 3A       		.uleb128 0x3a
 8033 002f 0B       		.uleb128 0xb
 8034 0030 3B       		.uleb128 0x3b
 8035 0031 0B       		.uleb128 0xb
 8036 0032 49       		.uleb128 0x49
 8037 0033 13       		.uleb128 0x13
 8038 0034 00       		.byte	0
 8039 0035 00       		.byte	0
 8040 0036 05       		.uleb128 0x5
 8041 0037 13       		.uleb128 0x13
 8042 0038 01       		.byte	0x1
 8043 0039 03       		.uleb128 0x3
 8044 003a 0E       		.uleb128 0xe
 8045 003b 0B       		.uleb128 0xb
 8046 003c 0B       		.uleb128 0xb
 8047 003d 3A       		.uleb128 0x3a
 8048 003e 0B       		.uleb128 0xb
 8049 003f 3B       		.uleb128 0x3b
 8050 0040 0B       		.uleb128 0xb
 8051 0041 01       		.uleb128 0x1
 8052 0042 13       		.uleb128 0x13
 8053 0043 00       		.byte	0
 8054 0044 00       		.byte	0
 8055 0045 06       		.uleb128 0x6
 8056 0046 0D       		.uleb128 0xd
ARM GAS  /tmp/ccOGUWYP.s 			page 143


 8057 0047 00       		.byte	0
 8058 0048 03       		.uleb128 0x3
 8059 0049 0E       		.uleb128 0xe
 8060 004a 3A       		.uleb128 0x3a
 8061 004b 0B       		.uleb128 0xb
 8062 004c 3B       		.uleb128 0x3b
 8063 004d 0B       		.uleb128 0xb
 8064 004e 49       		.uleb128 0x49
 8065 004f 13       		.uleb128 0x13
 8066 0050 38       		.uleb128 0x38
 8067 0051 0B       		.uleb128 0xb
 8068 0052 00       		.byte	0
 8069 0053 00       		.byte	0
 8070 0054 07       		.uleb128 0x7
 8071 0055 0D       		.uleb128 0xd
 8072 0056 00       		.byte	0
 8073 0057 03       		.uleb128 0x3
 8074 0058 08       		.uleb128 0x8
 8075 0059 3A       		.uleb128 0x3a
 8076 005a 0B       		.uleb128 0xb
 8077 005b 3B       		.uleb128 0x3b
 8078 005c 0B       		.uleb128 0xb
 8079 005d 49       		.uleb128 0x49
 8080 005e 13       		.uleb128 0x13
 8081 005f 38       		.uleb128 0x38
 8082 0060 0B       		.uleb128 0xb
 8083 0061 00       		.byte	0
 8084 0062 00       		.byte	0
 8085 0063 08       		.uleb128 0x8
 8086 0064 13       		.uleb128 0x13
 8087 0065 01       		.byte	0x1
 8088 0066 0B       		.uleb128 0xb
 8089 0067 0B       		.uleb128 0xb
 8090 0068 3A       		.uleb128 0x3a
 8091 0069 0B       		.uleb128 0xb
 8092 006a 3B       		.uleb128 0x3b
 8093 006b 0B       		.uleb128 0xb
 8094 006c 01       		.uleb128 0x1
 8095 006d 13       		.uleb128 0x13
 8096 006e 00       		.byte	0
 8097 006f 00       		.byte	0
 8098 0070 09       		.uleb128 0x9
 8099 0071 0F       		.uleb128 0xf
 8100 0072 00       		.byte	0
 8101 0073 0B       		.uleb128 0xb
 8102 0074 0B       		.uleb128 0xb
 8103 0075 49       		.uleb128 0x49
 8104 0076 13       		.uleb128 0x13
 8105 0077 00       		.byte	0
 8106 0078 00       		.byte	0
 8107 0079 0A       		.uleb128 0xa
 8108 007a 0F       		.uleb128 0xf
 8109 007b 00       		.byte	0
 8110 007c 0B       		.uleb128 0xb
 8111 007d 0B       		.uleb128 0xb
 8112 007e 00       		.byte	0
 8113 007f 00       		.byte	0
ARM GAS  /tmp/ccOGUWYP.s 			page 144


 8114 0080 0B       		.uleb128 0xb
 8115 0081 13       		.uleb128 0x13
 8116 0082 01       		.byte	0x1
 8117 0083 03       		.uleb128 0x3
 8118 0084 0E       		.uleb128 0xe
 8119 0085 0B       		.uleb128 0xb
 8120 0086 0B       		.uleb128 0xb
 8121 0087 3A       		.uleb128 0x3a
 8122 0088 0B       		.uleb128 0xb
 8123 0089 3B       		.uleb128 0x3b
 8124 008a 05       		.uleb128 0x5
 8125 008b 01       		.uleb128 0x1
 8126 008c 13       		.uleb128 0x13
 8127 008d 00       		.byte	0
 8128 008e 00       		.byte	0
 8129 008f 0C       		.uleb128 0xc
 8130 0090 0D       		.uleb128 0xd
 8131 0091 00       		.byte	0
 8132 0092 03       		.uleb128 0x3
 8133 0093 08       		.uleb128 0x8
 8134 0094 3A       		.uleb128 0x3a
 8135 0095 0B       		.uleb128 0xb
 8136 0096 3B       		.uleb128 0x3b
 8137 0097 05       		.uleb128 0x5
 8138 0098 49       		.uleb128 0x49
 8139 0099 13       		.uleb128 0x13
 8140 009a 38       		.uleb128 0x38
 8141 009b 0B       		.uleb128 0xb
 8142 009c 00       		.byte	0
 8143 009d 00       		.byte	0
 8144 009e 0D       		.uleb128 0xd
 8145 009f 35       		.uleb128 0x35
 8146 00a0 00       		.byte	0
 8147 00a1 49       		.uleb128 0x49
 8148 00a2 13       		.uleb128 0x13
 8149 00a3 00       		.byte	0
 8150 00a4 00       		.byte	0
 8151 00a5 0E       		.uleb128 0xe
 8152 00a6 17       		.uleb128 0x17
 8153 00a7 01       		.byte	0x1
 8154 00a8 0B       		.uleb128 0xb
 8155 00a9 0B       		.uleb128 0xb
 8156 00aa 3A       		.uleb128 0x3a
 8157 00ab 0B       		.uleb128 0xb
 8158 00ac 3B       		.uleb128 0x3b
 8159 00ad 0B       		.uleb128 0xb
 8160 00ae 01       		.uleb128 0x1
 8161 00af 13       		.uleb128 0x13
 8162 00b0 00       		.byte	0
 8163 00b1 00       		.byte	0
 8164 00b2 0F       		.uleb128 0xf
 8165 00b3 0D       		.uleb128 0xd
 8166 00b4 00       		.byte	0
 8167 00b5 03       		.uleb128 0x3
 8168 00b6 0E       		.uleb128 0xe
 8169 00b7 3A       		.uleb128 0x3a
 8170 00b8 0B       		.uleb128 0xb
ARM GAS  /tmp/ccOGUWYP.s 			page 145


 8171 00b9 3B       		.uleb128 0x3b
 8172 00ba 0B       		.uleb128 0xb
 8173 00bb 49       		.uleb128 0x49
 8174 00bc 13       		.uleb128 0x13
 8175 00bd 00       		.byte	0
 8176 00be 00       		.byte	0
 8177 00bf 10       		.uleb128 0x10
 8178 00c0 26       		.uleb128 0x26
 8179 00c1 00       		.byte	0
 8180 00c2 49       		.uleb128 0x49
 8181 00c3 13       		.uleb128 0x13
 8182 00c4 00       		.byte	0
 8183 00c5 00       		.byte	0
 8184 00c6 11       		.uleb128 0x11
 8185 00c7 04       		.uleb128 0x4
 8186 00c8 01       		.byte	0x1
 8187 00c9 03       		.uleb128 0x3
 8188 00ca 0E       		.uleb128 0xe
 8189 00cb 0B       		.uleb128 0xb
 8190 00cc 0B       		.uleb128 0xb
 8191 00cd 3A       		.uleb128 0x3a
 8192 00ce 0B       		.uleb128 0xb
 8193 00cf 3B       		.uleb128 0x3b
 8194 00d0 0B       		.uleb128 0xb
 8195 00d1 01       		.uleb128 0x1
 8196 00d2 13       		.uleb128 0x13
 8197 00d3 00       		.byte	0
 8198 00d4 00       		.byte	0
 8199 00d5 12       		.uleb128 0x12
 8200 00d6 28       		.uleb128 0x28
 8201 00d7 00       		.byte	0
 8202 00d8 03       		.uleb128 0x3
 8203 00d9 0E       		.uleb128 0xe
 8204 00da 1C       		.uleb128 0x1c
 8205 00db 0D       		.uleb128 0xd
 8206 00dc 00       		.byte	0
 8207 00dd 00       		.byte	0
 8208 00de 13       		.uleb128 0x13
 8209 00df 16       		.uleb128 0x16
 8210 00e0 00       		.byte	0
 8211 00e1 03       		.uleb128 0x3
 8212 00e2 0E       		.uleb128 0xe
 8213 00e3 3A       		.uleb128 0x3a
 8214 00e4 0B       		.uleb128 0xb
 8215 00e5 3B       		.uleb128 0x3b
 8216 00e6 05       		.uleb128 0x5
 8217 00e7 49       		.uleb128 0x49
 8218 00e8 13       		.uleb128 0x13
 8219 00e9 00       		.byte	0
 8220 00ea 00       		.byte	0
 8221 00eb 14       		.uleb128 0x14
 8222 00ec 15       		.uleb128 0x15
 8223 00ed 01       		.byte	0x1
 8224 00ee 27       		.uleb128 0x27
 8225 00ef 19       		.uleb128 0x19
 8226 00f0 01       		.uleb128 0x1
 8227 00f1 13       		.uleb128 0x13
ARM GAS  /tmp/ccOGUWYP.s 			page 146


 8228 00f2 00       		.byte	0
 8229 00f3 00       		.byte	0
 8230 00f4 15       		.uleb128 0x15
 8231 00f5 05       		.uleb128 0x5
 8232 00f6 00       		.byte	0
 8233 00f7 49       		.uleb128 0x49
 8234 00f8 13       		.uleb128 0x13
 8235 00f9 00       		.byte	0
 8236 00fa 00       		.byte	0
 8237 00fb 16       		.uleb128 0x16
 8238 00fc 15       		.uleb128 0x15
 8239 00fd 01       		.byte	0x1
 8240 00fe 27       		.uleb128 0x27
 8241 00ff 19       		.uleb128 0x19
 8242 0100 49       		.uleb128 0x49
 8243 0101 13       		.uleb128 0x13
 8244 0102 01       		.uleb128 0x1
 8245 0103 13       		.uleb128 0x13
 8246 0104 00       		.byte	0
 8247 0105 00       		.byte	0
 8248 0106 17       		.uleb128 0x17
 8249 0107 2E       		.uleb128 0x2e
 8250 0108 01       		.byte	0x1
 8251 0109 03       		.uleb128 0x3
 8252 010a 0E       		.uleb128 0xe
 8253 010b 3A       		.uleb128 0x3a
 8254 010c 0B       		.uleb128 0xb
 8255 010d 3B       		.uleb128 0x3b
 8256 010e 0B       		.uleb128 0xb
 8257 010f 27       		.uleb128 0x27
 8258 0110 19       		.uleb128 0x19
 8259 0111 20       		.uleb128 0x20
 8260 0112 0B       		.uleb128 0xb
 8261 0113 01       		.uleb128 0x1
 8262 0114 13       		.uleb128 0x13
 8263 0115 00       		.byte	0
 8264 0116 00       		.byte	0
 8265 0117 18       		.uleb128 0x18
 8266 0118 05       		.uleb128 0x5
 8267 0119 00       		.byte	0
 8268 011a 03       		.uleb128 0x3
 8269 011b 08       		.uleb128 0x8
 8270 011c 3A       		.uleb128 0x3a
 8271 011d 0B       		.uleb128 0xb
 8272 011e 3B       		.uleb128 0x3b
 8273 011f 0B       		.uleb128 0xb
 8274 0120 49       		.uleb128 0x49
 8275 0121 13       		.uleb128 0x13
 8276 0122 00       		.byte	0
 8277 0123 00       		.byte	0
 8278 0124 19       		.uleb128 0x19
 8279 0125 2E       		.uleb128 0x2e
 8280 0126 01       		.byte	0x1
 8281 0127 03       		.uleb128 0x3
 8282 0128 0E       		.uleb128 0xe
 8283 0129 3A       		.uleb128 0x3a
 8284 012a 0B       		.uleb128 0xb
ARM GAS  /tmp/ccOGUWYP.s 			page 147


 8285 012b 3B       		.uleb128 0x3b
 8286 012c 05       		.uleb128 0x5
 8287 012d 27       		.uleb128 0x27
 8288 012e 19       		.uleb128 0x19
 8289 012f 20       		.uleb128 0x20
 8290 0130 0B       		.uleb128 0xb
 8291 0131 01       		.uleb128 0x1
 8292 0132 13       		.uleb128 0x13
 8293 0133 00       		.byte	0
 8294 0134 00       		.byte	0
 8295 0135 1A       		.uleb128 0x1a
 8296 0136 05       		.uleb128 0x5
 8297 0137 00       		.byte	0
 8298 0138 03       		.uleb128 0x3
 8299 0139 08       		.uleb128 0x8
 8300 013a 3A       		.uleb128 0x3a
 8301 013b 0B       		.uleb128 0xb
 8302 013c 3B       		.uleb128 0x3b
 8303 013d 05       		.uleb128 0x5
 8304 013e 49       		.uleb128 0x49
 8305 013f 13       		.uleb128 0x13
 8306 0140 00       		.byte	0
 8307 0141 00       		.byte	0
 8308 0142 1B       		.uleb128 0x1b
 8309 0143 05       		.uleb128 0x5
 8310 0144 00       		.byte	0
 8311 0145 03       		.uleb128 0x3
 8312 0146 0E       		.uleb128 0xe
 8313 0147 3A       		.uleb128 0x3a
 8314 0148 0B       		.uleb128 0xb
 8315 0149 3B       		.uleb128 0x3b
 8316 014a 05       		.uleb128 0x5
 8317 014b 49       		.uleb128 0x49
 8318 014c 13       		.uleb128 0x13
 8319 014d 00       		.byte	0
 8320 014e 00       		.byte	0
 8321 014f 1C       		.uleb128 0x1c
 8322 0150 2E       		.uleb128 0x2e
 8323 0151 01       		.byte	0x1
 8324 0152 03       		.uleb128 0x3
 8325 0153 0E       		.uleb128 0xe
 8326 0154 3A       		.uleb128 0x3a
 8327 0155 0B       		.uleb128 0xb
 8328 0156 3B       		.uleb128 0x3b
 8329 0157 05       		.uleb128 0x5
 8330 0158 27       		.uleb128 0x27
 8331 0159 19       		.uleb128 0x19
 8332 015a 49       		.uleb128 0x49
 8333 015b 13       		.uleb128 0x13
 8334 015c 11       		.uleb128 0x11
 8335 015d 01       		.uleb128 0x1
 8336 015e 12       		.uleb128 0x12
 8337 015f 06       		.uleb128 0x6
 8338 0160 40       		.uleb128 0x40
 8339 0161 18       		.uleb128 0x18
 8340 0162 9742     		.uleb128 0x2117
 8341 0164 19       		.uleb128 0x19
ARM GAS  /tmp/ccOGUWYP.s 			page 148


 8342 0165 01       		.uleb128 0x1
 8343 0166 13       		.uleb128 0x13
 8344 0167 00       		.byte	0
 8345 0168 00       		.byte	0
 8346 0169 1D       		.uleb128 0x1d
 8347 016a 05       		.uleb128 0x5
 8348 016b 00       		.byte	0
 8349 016c 03       		.uleb128 0x3
 8350 016d 08       		.uleb128 0x8
 8351 016e 3A       		.uleb128 0x3a
 8352 016f 0B       		.uleb128 0xb
 8353 0170 3B       		.uleb128 0x3b
 8354 0171 05       		.uleb128 0x5
 8355 0172 49       		.uleb128 0x49
 8356 0173 13       		.uleb128 0x13
 8357 0174 02       		.uleb128 0x2
 8358 0175 17       		.uleb128 0x17
 8359 0176 00       		.byte	0
 8360 0177 00       		.byte	0
 8361 0178 1E       		.uleb128 0x1e
 8362 0179 05       		.uleb128 0x5
 8363 017a 00       		.byte	0
 8364 017b 03       		.uleb128 0x3
 8365 017c 0E       		.uleb128 0xe
 8366 017d 3A       		.uleb128 0x3a
 8367 017e 0B       		.uleb128 0xb
 8368 017f 3B       		.uleb128 0x3b
 8369 0180 05       		.uleb128 0x5
 8370 0181 49       		.uleb128 0x49
 8371 0182 13       		.uleb128 0x13
 8372 0183 02       		.uleb128 0x2
 8373 0184 17       		.uleb128 0x17
 8374 0185 00       		.byte	0
 8375 0186 00       		.byte	0
 8376 0187 1F       		.uleb128 0x1f
 8377 0188 898201   		.uleb128 0x4109
 8378 018b 01       		.byte	0x1
 8379 018c 11       		.uleb128 0x11
 8380 018d 01       		.uleb128 0x1
 8381 018e 31       		.uleb128 0x31
 8382 018f 13       		.uleb128 0x13
 8383 0190 00       		.byte	0
 8384 0191 00       		.byte	0
 8385 0192 20       		.uleb128 0x20
 8386 0193 8A8201   		.uleb128 0x410a
 8387 0196 00       		.byte	0
 8388 0197 02       		.uleb128 0x2
 8389 0198 18       		.uleb128 0x18
 8390 0199 9142     		.uleb128 0x2111
 8391 019b 18       		.uleb128 0x18
 8392 019c 00       		.byte	0
 8393 019d 00       		.byte	0
 8394 019e 21       		.uleb128 0x21
 8395 019f 34       		.uleb128 0x34
 8396 01a0 00       		.byte	0
 8397 01a1 03       		.uleb128 0x3
 8398 01a2 08       		.uleb128 0x8
ARM GAS  /tmp/ccOGUWYP.s 			page 149


 8399 01a3 3A       		.uleb128 0x3a
 8400 01a4 0B       		.uleb128 0xb
 8401 01a5 3B       		.uleb128 0x3b
 8402 01a6 0B       		.uleb128 0xb
 8403 01a7 49       		.uleb128 0x49
 8404 01a8 13       		.uleb128 0x13
 8405 01a9 00       		.byte	0
 8406 01aa 00       		.byte	0
 8407 01ab 22       		.uleb128 0x22
 8408 01ac 2E       		.uleb128 0x2e
 8409 01ad 01       		.byte	0x1
 8410 01ae 31       		.uleb128 0x31
 8411 01af 13       		.uleb128 0x13
 8412 01b0 11       		.uleb128 0x11
 8413 01b1 01       		.uleb128 0x1
 8414 01b2 12       		.uleb128 0x12
 8415 01b3 06       		.uleb128 0x6
 8416 01b4 40       		.uleb128 0x40
 8417 01b5 18       		.uleb128 0x18
 8418 01b6 9742     		.uleb128 0x2117
 8419 01b8 19       		.uleb128 0x19
 8420 01b9 01       		.uleb128 0x1
 8421 01ba 13       		.uleb128 0x13
 8422 01bb 00       		.byte	0
 8423 01bc 00       		.byte	0
 8424 01bd 23       		.uleb128 0x23
 8425 01be 05       		.uleb128 0x5
 8426 01bf 00       		.byte	0
 8427 01c0 31       		.uleb128 0x31
 8428 01c1 13       		.uleb128 0x13
 8429 01c2 02       		.uleb128 0x2
 8430 01c3 17       		.uleb128 0x17
 8431 01c4 00       		.byte	0
 8432 01c5 00       		.byte	0
 8433 01c6 24       		.uleb128 0x24
 8434 01c7 0B       		.uleb128 0xb
 8435 01c8 01       		.byte	0x1
 8436 01c9 55       		.uleb128 0x55
 8437 01ca 17       		.uleb128 0x17
 8438 01cb 00       		.byte	0
 8439 01cc 00       		.byte	0
 8440 01cd 25       		.uleb128 0x25
 8441 01ce 1D       		.uleb128 0x1d
 8442 01cf 01       		.byte	0x1
 8443 01d0 31       		.uleb128 0x31
 8444 01d1 13       		.uleb128 0x13
 8445 01d2 52       		.uleb128 0x52
 8446 01d3 01       		.uleb128 0x1
 8447 01d4 55       		.uleb128 0x55
 8448 01d5 17       		.uleb128 0x17
 8449 01d6 58       		.uleb128 0x58
 8450 01d7 0B       		.uleb128 0xb
 8451 01d8 59       		.uleb128 0x59
 8452 01d9 05       		.uleb128 0x5
 8453 01da 01       		.uleb128 0x1
 8454 01db 13       		.uleb128 0x13
 8455 01dc 00       		.byte	0
ARM GAS  /tmp/ccOGUWYP.s 			page 150


 8456 01dd 00       		.byte	0
 8457 01de 26       		.uleb128 0x26
 8458 01df 1D       		.uleb128 0x1d
 8459 01e0 01       		.byte	0x1
 8460 01e1 31       		.uleb128 0x31
 8461 01e2 13       		.uleb128 0x13
 8462 01e3 11       		.uleb128 0x11
 8463 01e4 01       		.uleb128 0x1
 8464 01e5 12       		.uleb128 0x12
 8465 01e6 06       		.uleb128 0x6
 8466 01e7 58       		.uleb128 0x58
 8467 01e8 0B       		.uleb128 0xb
 8468 01e9 59       		.uleb128 0x59
 8469 01ea 0B       		.uleb128 0xb
 8470 01eb 01       		.uleb128 0x1
 8471 01ec 13       		.uleb128 0x13
 8472 01ed 00       		.byte	0
 8473 01ee 00       		.byte	0
 8474 01ef 27       		.uleb128 0x27
 8475 01f0 0B       		.uleb128 0xb
 8476 01f1 01       		.byte	0x1
 8477 01f2 11       		.uleb128 0x11
 8478 01f3 01       		.uleb128 0x1
 8479 01f4 12       		.uleb128 0x12
 8480 01f5 06       		.uleb128 0x6
 8481 01f6 00       		.byte	0
 8482 01f7 00       		.byte	0
 8483 01f8 28       		.uleb128 0x28
 8484 01f9 34       		.uleb128 0x34
 8485 01fa 00       		.byte	0
 8486 01fb 31       		.uleb128 0x31
 8487 01fc 13       		.uleb128 0x13
 8488 01fd 02       		.uleb128 0x2
 8489 01fe 17       		.uleb128 0x17
 8490 01ff 00       		.byte	0
 8491 0200 00       		.byte	0
 8492 0201 29       		.uleb128 0x29
 8493 0202 898201   		.uleb128 0x4109
 8494 0205 01       		.byte	0x1
 8495 0206 11       		.uleb128 0x11
 8496 0207 01       		.uleb128 0x1
 8497 0208 31       		.uleb128 0x31
 8498 0209 13       		.uleb128 0x13
 8499 020a 01       		.uleb128 0x1
 8500 020b 13       		.uleb128 0x13
 8501 020c 00       		.byte	0
 8502 020d 00       		.byte	0
 8503 020e 2A       		.uleb128 0x2a
 8504 020f 898201   		.uleb128 0x4109
 8505 0212 01       		.byte	0x1
 8506 0213 11       		.uleb128 0x11
 8507 0214 01       		.uleb128 0x1
 8508 0215 9542     		.uleb128 0x2115
 8509 0217 19       		.uleb128 0x19
 8510 0218 31       		.uleb128 0x31
 8511 0219 13       		.uleb128 0x13
 8512 021a 00       		.byte	0
ARM GAS  /tmp/ccOGUWYP.s 			page 151


 8513 021b 00       		.byte	0
 8514 021c 2B       		.uleb128 0x2b
 8515 021d 2E       		.uleb128 0x2e
 8516 021e 00       		.byte	0
 8517 021f 3F       		.uleb128 0x3f
 8518 0220 19       		.uleb128 0x19
 8519 0221 03       		.uleb128 0x3
 8520 0222 0E       		.uleb128 0xe
 8521 0223 3A       		.uleb128 0x3a
 8522 0224 0B       		.uleb128 0xb
 8523 0225 3B       		.uleb128 0x3b
 8524 0226 05       		.uleb128 0x5
 8525 0227 27       		.uleb128 0x27
 8526 0228 19       		.uleb128 0x19
 8527 0229 11       		.uleb128 0x11
 8528 022a 01       		.uleb128 0x1
 8529 022b 12       		.uleb128 0x12
 8530 022c 06       		.uleb128 0x6
 8531 022d 40       		.uleb128 0x40
 8532 022e 18       		.uleb128 0x18
 8533 022f 9742     		.uleb128 0x2117
 8534 0231 19       		.uleb128 0x19
 8535 0232 00       		.byte	0
 8536 0233 00       		.byte	0
 8537 0234 2C       		.uleb128 0x2c
 8538 0235 2E       		.uleb128 0x2e
 8539 0236 01       		.byte	0x1
 8540 0237 3F       		.uleb128 0x3f
 8541 0238 19       		.uleb128 0x19
 8542 0239 03       		.uleb128 0x3
 8543 023a 0E       		.uleb128 0xe
 8544 023b 3A       		.uleb128 0x3a
 8545 023c 0B       		.uleb128 0xb
 8546 023d 3B       		.uleb128 0x3b
 8547 023e 05       		.uleb128 0x5
 8548 023f 27       		.uleb128 0x27
 8549 0240 19       		.uleb128 0x19
 8550 0241 49       		.uleb128 0x49
 8551 0242 13       		.uleb128 0x13
 8552 0243 11       		.uleb128 0x11
 8553 0244 01       		.uleb128 0x1
 8554 0245 12       		.uleb128 0x12
 8555 0246 06       		.uleb128 0x6
 8556 0247 40       		.uleb128 0x40
 8557 0248 18       		.uleb128 0x18
 8558 0249 9742     		.uleb128 0x2117
 8559 024b 19       		.uleb128 0x19
 8560 024c 01       		.uleb128 0x1
 8561 024d 13       		.uleb128 0x13
 8562 024e 00       		.byte	0
 8563 024f 00       		.byte	0
 8564 0250 2D       		.uleb128 0x2d
 8565 0251 2E       		.uleb128 0x2e
 8566 0252 01       		.byte	0x1
 8567 0253 3F       		.uleb128 0x3f
 8568 0254 19       		.uleb128 0x19
 8569 0255 03       		.uleb128 0x3
ARM GAS  /tmp/ccOGUWYP.s 			page 152


 8570 0256 0E       		.uleb128 0xe
 8571 0257 3A       		.uleb128 0x3a
 8572 0258 0B       		.uleb128 0xb
 8573 0259 3B       		.uleb128 0x3b
 8574 025a 05       		.uleb128 0x5
 8575 025b 27       		.uleb128 0x27
 8576 025c 19       		.uleb128 0x19
 8577 025d 11       		.uleb128 0x11
 8578 025e 01       		.uleb128 0x1
 8579 025f 12       		.uleb128 0x12
 8580 0260 06       		.uleb128 0x6
 8581 0261 40       		.uleb128 0x40
 8582 0262 18       		.uleb128 0x18
 8583 0263 9742     		.uleb128 0x2117
 8584 0265 19       		.uleb128 0x19
 8585 0266 01       		.uleb128 0x1
 8586 0267 13       		.uleb128 0x13
 8587 0268 00       		.byte	0
 8588 0269 00       		.byte	0
 8589 026a 2E       		.uleb128 0x2e
 8590 026b 05       		.uleb128 0x5
 8591 026c 00       		.byte	0
 8592 026d 03       		.uleb128 0x3
 8593 026e 08       		.uleb128 0x8
 8594 026f 3A       		.uleb128 0x3a
 8595 0270 0B       		.uleb128 0xb
 8596 0271 3B       		.uleb128 0x3b
 8597 0272 05       		.uleb128 0x5
 8598 0273 49       		.uleb128 0x49
 8599 0274 13       		.uleb128 0x13
 8600 0275 02       		.uleb128 0x2
 8601 0276 18       		.uleb128 0x18
 8602 0277 00       		.byte	0
 8603 0278 00       		.byte	0
 8604 0279 2F       		.uleb128 0x2f
 8605 027a 1D       		.uleb128 0x1d
 8606 027b 01       		.byte	0x1
 8607 027c 31       		.uleb128 0x31
 8608 027d 13       		.uleb128 0x13
 8609 027e 11       		.uleb128 0x11
 8610 027f 01       		.uleb128 0x1
 8611 0280 12       		.uleb128 0x12
 8612 0281 06       		.uleb128 0x6
 8613 0282 58       		.uleb128 0x58
 8614 0283 0B       		.uleb128 0xb
 8615 0284 59       		.uleb128 0x59
 8616 0285 0B       		.uleb128 0xb
 8617 0286 00       		.byte	0
 8618 0287 00       		.byte	0
 8619 0288 30       		.uleb128 0x30
 8620 0289 05       		.uleb128 0x5
 8621 028a 00       		.byte	0
 8622 028b 31       		.uleb128 0x31
 8623 028c 13       		.uleb128 0x13
 8624 028d 02       		.uleb128 0x2
 8625 028e 18       		.uleb128 0x18
 8626 028f 00       		.byte	0
ARM GAS  /tmp/ccOGUWYP.s 			page 153


 8627 0290 00       		.byte	0
 8628 0291 31       		.uleb128 0x31
 8629 0292 898201   		.uleb128 0x4109
 8630 0295 00       		.byte	0
 8631 0296 11       		.uleb128 0x11
 8632 0297 01       		.uleb128 0x1
 8633 0298 9542     		.uleb128 0x2115
 8634 029a 19       		.uleb128 0x19
 8635 029b 31       		.uleb128 0x31
 8636 029c 13       		.uleb128 0x13
 8637 029d 00       		.byte	0
 8638 029e 00       		.byte	0
 8639 029f 32       		.uleb128 0x32
 8640 02a0 34       		.uleb128 0x34
 8641 02a1 00       		.byte	0
 8642 02a2 03       		.uleb128 0x3
 8643 02a3 08       		.uleb128 0x8
 8644 02a4 3A       		.uleb128 0x3a
 8645 02a5 0B       		.uleb128 0xb
 8646 02a6 3B       		.uleb128 0x3b
 8647 02a7 05       		.uleb128 0x5
 8648 02a8 49       		.uleb128 0x49
 8649 02a9 13       		.uleb128 0x13
 8650 02aa 00       		.byte	0
 8651 02ab 00       		.byte	0
 8652 02ac 33       		.uleb128 0x33
 8653 02ad 34       		.uleb128 0x34
 8654 02ae 00       		.byte	0
 8655 02af 03       		.uleb128 0x3
 8656 02b0 0E       		.uleb128 0xe
 8657 02b1 3A       		.uleb128 0x3a
 8658 02b2 0B       		.uleb128 0xb
 8659 02b3 3B       		.uleb128 0x3b
 8660 02b4 05       		.uleb128 0x5
 8661 02b5 49       		.uleb128 0x49
 8662 02b6 13       		.uleb128 0x13
 8663 02b7 00       		.byte	0
 8664 02b8 00       		.byte	0
 8665 02b9 34       		.uleb128 0x34
 8666 02ba 1D       		.uleb128 0x1d
 8667 02bb 01       		.byte	0x1
 8668 02bc 31       		.uleb128 0x31
 8669 02bd 13       		.uleb128 0x13
 8670 02be 11       		.uleb128 0x11
 8671 02bf 01       		.uleb128 0x1
 8672 02c0 12       		.uleb128 0x12
 8673 02c1 06       		.uleb128 0x6
 8674 02c2 58       		.uleb128 0x58
 8675 02c3 0B       		.uleb128 0xb
 8676 02c4 59       		.uleb128 0x59
 8677 02c5 05       		.uleb128 0x5
 8678 02c6 01       		.uleb128 0x1
 8679 02c7 13       		.uleb128 0x13
 8680 02c8 00       		.byte	0
 8681 02c9 00       		.byte	0
 8682 02ca 35       		.uleb128 0x35
 8683 02cb 34       		.uleb128 0x34
ARM GAS  /tmp/ccOGUWYP.s 			page 154


 8684 02cc 00       		.byte	0
 8685 02cd 03       		.uleb128 0x3
 8686 02ce 0E       		.uleb128 0xe
 8687 02cf 3A       		.uleb128 0x3a
 8688 02d0 0B       		.uleb128 0xb
 8689 02d1 3B       		.uleb128 0x3b
 8690 02d2 05       		.uleb128 0x5
 8691 02d3 49       		.uleb128 0x49
 8692 02d4 13       		.uleb128 0x13
 8693 02d5 1C       		.uleb128 0x1c
 8694 02d6 0A       		.uleb128 0xa
 8695 02d7 00       		.byte	0
 8696 02d8 00       		.byte	0
 8697 02d9 36       		.uleb128 0x36
 8698 02da 01       		.uleb128 0x1
 8699 02db 01       		.byte	0x1
 8700 02dc 49       		.uleb128 0x49
 8701 02dd 13       		.uleb128 0x13
 8702 02de 01       		.uleb128 0x1
 8703 02df 13       		.uleb128 0x13
 8704 02e0 00       		.byte	0
 8705 02e1 00       		.byte	0
 8706 02e2 37       		.uleb128 0x37
 8707 02e3 21       		.uleb128 0x21
 8708 02e4 00       		.byte	0
 8709 02e5 49       		.uleb128 0x49
 8710 02e6 13       		.uleb128 0x13
 8711 02e7 2F       		.uleb128 0x2f
 8712 02e8 0B       		.uleb128 0xb
 8713 02e9 00       		.byte	0
 8714 02ea 00       		.byte	0
 8715 02eb 38       		.uleb128 0x38
 8716 02ec 34       		.uleb128 0x34
 8717 02ed 00       		.byte	0
 8718 02ee 03       		.uleb128 0x3
 8719 02ef 08       		.uleb128 0x8
 8720 02f0 3A       		.uleb128 0x3a
 8721 02f1 0B       		.uleb128 0xb
 8722 02f2 3B       		.uleb128 0x3b
 8723 02f3 05       		.uleb128 0x5
 8724 02f4 49       		.uleb128 0x49
 8725 02f5 13       		.uleb128 0x13
 8726 02f6 02       		.uleb128 0x2
 8727 02f7 17       		.uleb128 0x17
 8728 02f8 00       		.byte	0
 8729 02f9 00       		.byte	0
 8730 02fa 39       		.uleb128 0x39
 8731 02fb 34       		.uleb128 0x34
 8732 02fc 00       		.byte	0
 8733 02fd 31       		.uleb128 0x31
 8734 02fe 13       		.uleb128 0x13
 8735 02ff 02       		.uleb128 0x2
 8736 0300 18       		.uleb128 0x18
 8737 0301 00       		.byte	0
 8738 0302 00       		.byte	0
 8739 0303 3A       		.uleb128 0x3a
 8740 0304 898201   		.uleb128 0x4109
ARM GAS  /tmp/ccOGUWYP.s 			page 155


 8741 0307 00       		.byte	0
 8742 0308 11       		.uleb128 0x11
 8743 0309 01       		.uleb128 0x1
 8744 030a 31       		.uleb128 0x31
 8745 030b 13       		.uleb128 0x13
 8746 030c 00       		.byte	0
 8747 030d 00       		.byte	0
 8748 030e 3B       		.uleb128 0x3b
 8749 030f 05       		.uleb128 0x5
 8750 0310 00       		.byte	0
 8751 0311 03       		.uleb128 0x3
 8752 0312 0E       		.uleb128 0xe
 8753 0313 3A       		.uleb128 0x3a
 8754 0314 0B       		.uleb128 0xb
 8755 0315 3B       		.uleb128 0x3b
 8756 0316 05       		.uleb128 0x5
 8757 0317 49       		.uleb128 0x49
 8758 0318 13       		.uleb128 0x13
 8759 0319 02       		.uleb128 0x2
 8760 031a 18       		.uleb128 0x18
 8761 031b 00       		.byte	0
 8762 031c 00       		.byte	0
 8763 031d 3C       		.uleb128 0x3c
 8764 031e 34       		.uleb128 0x34
 8765 031f 00       		.byte	0
 8766 0320 03       		.uleb128 0x3
 8767 0321 0E       		.uleb128 0xe
 8768 0322 3A       		.uleb128 0x3a
 8769 0323 0B       		.uleb128 0xb
 8770 0324 3B       		.uleb128 0x3b
 8771 0325 05       		.uleb128 0x5
 8772 0326 49       		.uleb128 0x49
 8773 0327 13       		.uleb128 0x13
 8774 0328 02       		.uleb128 0x2
 8775 0329 17       		.uleb128 0x17
 8776 032a 00       		.byte	0
 8777 032b 00       		.byte	0
 8778 032c 3D       		.uleb128 0x3d
 8779 032d 34       		.uleb128 0x34
 8780 032e 00       		.byte	0
 8781 032f 03       		.uleb128 0x3
 8782 0330 0E       		.uleb128 0xe
 8783 0331 3A       		.uleb128 0x3a
 8784 0332 0B       		.uleb128 0xb
 8785 0333 3B       		.uleb128 0x3b
 8786 0334 0B       		.uleb128 0xb
 8787 0335 49       		.uleb128 0x49
 8788 0336 13       		.uleb128 0x13
 8789 0337 02       		.uleb128 0x2
 8790 0338 18       		.uleb128 0x18
 8791 0339 00       		.byte	0
 8792 033a 00       		.byte	0
 8793 033b 3E       		.uleb128 0x3e
 8794 033c 34       		.uleb128 0x34
 8795 033d 00       		.byte	0
 8796 033e 03       		.uleb128 0x3
 8797 033f 0E       		.uleb128 0xe
ARM GAS  /tmp/ccOGUWYP.s 			page 156


 8798 0340 3A       		.uleb128 0x3a
 8799 0341 0B       		.uleb128 0xb
 8800 0342 3B       		.uleb128 0x3b
 8801 0343 05       		.uleb128 0x5
 8802 0344 49       		.uleb128 0x49
 8803 0345 13       		.uleb128 0x13
 8804 0346 3F       		.uleb128 0x3f
 8805 0347 19       		.uleb128 0x19
 8806 0348 3C       		.uleb128 0x3c
 8807 0349 19       		.uleb128 0x19
 8808 034a 00       		.byte	0
 8809 034b 00       		.byte	0
 8810 034c 3F       		.uleb128 0x3f
 8811 034d 34       		.uleb128 0x34
 8812 034e 00       		.byte	0
 8813 034f 03       		.uleb128 0x3
 8814 0350 0E       		.uleb128 0xe
 8815 0351 3A       		.uleb128 0x3a
 8816 0352 0B       		.uleb128 0xb
 8817 0353 3B       		.uleb128 0x3b
 8818 0354 0B       		.uleb128 0xb
 8819 0355 49       		.uleb128 0x49
 8820 0356 13       		.uleb128 0x13
 8821 0357 3F       		.uleb128 0x3f
 8822 0358 19       		.uleb128 0x19
 8823 0359 02       		.uleb128 0x2
 8824 035a 18       		.uleb128 0x18
 8825 035b 00       		.byte	0
 8826 035c 00       		.byte	0
 8827 035d 40       		.uleb128 0x40
 8828 035e 2E       		.uleb128 0x2e
 8829 035f 01       		.byte	0x1
 8830 0360 3F       		.uleb128 0x3f
 8831 0361 19       		.uleb128 0x19
 8832 0362 03       		.uleb128 0x3
 8833 0363 0E       		.uleb128 0xe
 8834 0364 3A       		.uleb128 0x3a
 8835 0365 0B       		.uleb128 0xb
 8836 0366 3B       		.uleb128 0x3b
 8837 0367 0B       		.uleb128 0xb
 8838 0368 27       		.uleb128 0x27
 8839 0369 19       		.uleb128 0x19
 8840 036a 49       		.uleb128 0x49
 8841 036b 13       		.uleb128 0x13
 8842 036c 3C       		.uleb128 0x3c
 8843 036d 19       		.uleb128 0x19
 8844 036e 01       		.uleb128 0x1
 8845 036f 13       		.uleb128 0x13
 8846 0370 00       		.byte	0
 8847 0371 00       		.byte	0
 8848 0372 41       		.uleb128 0x41
 8849 0373 2E       		.uleb128 0x2e
 8850 0374 01       		.byte	0x1
 8851 0375 3F       		.uleb128 0x3f
 8852 0376 19       		.uleb128 0x19
 8853 0377 03       		.uleb128 0x3
 8854 0378 0E       		.uleb128 0xe
ARM GAS  /tmp/ccOGUWYP.s 			page 157


 8855 0379 3A       		.uleb128 0x3a
 8856 037a 0B       		.uleb128 0xb
 8857 037b 3B       		.uleb128 0x3b
 8858 037c 05       		.uleb128 0x5
 8859 037d 27       		.uleb128 0x27
 8860 037e 19       		.uleb128 0x19
 8861 037f 3C       		.uleb128 0x3c
 8862 0380 19       		.uleb128 0x19
 8863 0381 01       		.uleb128 0x1
 8864 0382 13       		.uleb128 0x13
 8865 0383 00       		.byte	0
 8866 0384 00       		.byte	0
 8867 0385 42       		.uleb128 0x42
 8868 0386 2E       		.uleb128 0x2e
 8869 0387 01       		.byte	0x1
 8870 0388 3F       		.uleb128 0x3f
 8871 0389 19       		.uleb128 0x19
 8872 038a 03       		.uleb128 0x3
 8873 038b 0E       		.uleb128 0xe
 8874 038c 3A       		.uleb128 0x3a
 8875 038d 0B       		.uleb128 0xb
 8876 038e 3B       		.uleb128 0x3b
 8877 038f 0B       		.uleb128 0xb
 8878 0390 27       		.uleb128 0x27
 8879 0391 19       		.uleb128 0x19
 8880 0392 3C       		.uleb128 0x3c
 8881 0393 19       		.uleb128 0x19
 8882 0394 01       		.uleb128 0x1
 8883 0395 13       		.uleb128 0x13
 8884 0396 00       		.byte	0
 8885 0397 00       		.byte	0
 8886 0398 43       		.uleb128 0x43
 8887 0399 2E       		.uleb128 0x2e
 8888 039a 00       		.byte	0
 8889 039b 3F       		.uleb128 0x3f
 8890 039c 19       		.uleb128 0x19
 8891 039d 03       		.uleb128 0x3
 8892 039e 0E       		.uleb128 0xe
 8893 039f 3A       		.uleb128 0x3a
 8894 03a0 0B       		.uleb128 0xb
 8895 03a1 3B       		.uleb128 0x3b
 8896 03a2 0B       		.uleb128 0xb
 8897 03a3 27       		.uleb128 0x27
 8898 03a4 19       		.uleb128 0x19
 8899 03a5 49       		.uleb128 0x49
 8900 03a6 13       		.uleb128 0x13
 8901 03a7 3C       		.uleb128 0x3c
 8902 03a8 19       		.uleb128 0x19
 8903 03a9 00       		.byte	0
 8904 03aa 00       		.byte	0
 8905 03ab 44       		.uleb128 0x44
 8906 03ac 2E       		.uleb128 0x2e
 8907 03ad 01       		.byte	0x1
 8908 03ae 3F       		.uleb128 0x3f
 8909 03af 19       		.uleb128 0x19
 8910 03b0 03       		.uleb128 0x3
 8911 03b1 0E       		.uleb128 0xe
ARM GAS  /tmp/ccOGUWYP.s 			page 158


 8912 03b2 3A       		.uleb128 0x3a
 8913 03b3 0B       		.uleb128 0xb
 8914 03b4 3B       		.uleb128 0x3b
 8915 03b5 05       		.uleb128 0x5
 8916 03b6 27       		.uleb128 0x27
 8917 03b7 19       		.uleb128 0x19
 8918 03b8 49       		.uleb128 0x49
 8919 03b9 13       		.uleb128 0x13
 8920 03ba 3C       		.uleb128 0x3c
 8921 03bb 19       		.uleb128 0x19
 8922 03bc 01       		.uleb128 0x1
 8923 03bd 13       		.uleb128 0x13
 8924 03be 00       		.byte	0
 8925 03bf 00       		.byte	0
 8926 03c0 45       		.uleb128 0x45
 8927 03c1 2E       		.uleb128 0x2e
 8928 03c2 01       		.byte	0x1
 8929 03c3 3F       		.uleb128 0x3f
 8930 03c4 19       		.uleb128 0x19
 8931 03c5 03       		.uleb128 0x3
 8932 03c6 0E       		.uleb128 0xe
 8933 03c7 3A       		.uleb128 0x3a
 8934 03c8 0B       		.uleb128 0xb
 8935 03c9 3B       		.uleb128 0x3b
 8936 03ca 0B       		.uleb128 0xb
 8937 03cb 27       		.uleb128 0x27
 8938 03cc 19       		.uleb128 0x19
 8939 03cd 3C       		.uleb128 0x3c
 8940 03ce 19       		.uleb128 0x19
 8941 03cf 00       		.byte	0
 8942 03d0 00       		.byte	0
 8943 03d1 00       		.byte	0
 8944              		.section	.debug_loc,"",%progbits
 8945              	.Ldebug_loc0:
 8946              	.LLST0:
 8947 0000 00000000 		.4byte	.LVL0
 8948 0004 0C000000 		.4byte	.LVL1
 8949 0008 0100     		.2byte	0x1
 8950 000a 50       		.byte	0x50
 8951 000b 0C000000 		.4byte	.LVL1
 8952 000f 24000000 		.4byte	.LFE133
 8953 0013 0400     		.2byte	0x4
 8954 0015 F3       		.byte	0xf3
 8955 0016 01       		.uleb128 0x1
 8956 0017 50       		.byte	0x50
 8957 0018 9F       		.byte	0x9f
 8958 0019 00000000 		.4byte	0
 8959 001d 00000000 		.4byte	0
 8960              	.LLST1:
 8961 0021 00000000 		.4byte	.LVL0
 8962 0025 10000000 		.4byte	.LVL2
 8963 0029 0100     		.2byte	0x1
 8964 002b 51       		.byte	0x51
 8965 002c 10000000 		.4byte	.LVL2
 8966 0030 24000000 		.4byte	.LFE133
 8967 0034 0400     		.2byte	0x4
 8968 0036 F3       		.byte	0xf3
ARM GAS  /tmp/ccOGUWYP.s 			page 159


 8969 0037 01       		.uleb128 0x1
 8970 0038 51       		.byte	0x51
 8971 0039 9F       		.byte	0x9f
 8972 003a 00000000 		.4byte	0
 8973 003e 00000000 		.4byte	0
 8974              	.LLST2:
 8975 0042 00000000 		.4byte	.LVL0
 8976 0046 16000000 		.4byte	.LVL4
 8977 004a 0100     		.2byte	0x1
 8978 004c 52       		.byte	0x52
 8979 004d 16000000 		.4byte	.LVL4
 8980 0051 24000000 		.4byte	.LFE133
 8981 0055 0400     		.2byte	0x4
 8982 0057 F3       		.byte	0xf3
 8983 0058 01       		.uleb128 0x1
 8984 0059 52       		.byte	0x52
 8985 005a 9F       		.byte	0x9f
 8986 005b 00000000 		.4byte	0
 8987 005f 00000000 		.4byte	0
 8988              	.LLST3:
 8989 0063 00000000 		.4byte	.LVL0
 8990 0067 12000000 		.4byte	.LVL3
 8991 006b 0100     		.2byte	0x1
 8992 006d 53       		.byte	0x53
 8993 006e 12000000 		.4byte	.LVL3
 8994 0072 19000000 		.4byte	.LVL5-1
 8995 0076 0200     		.2byte	0x2
 8996 0078 91       		.byte	0x91
 8997 0079 6C       		.sleb128 -20
 8998 007a 19000000 		.4byte	.LVL5-1
 8999 007e 24000000 		.4byte	.LFE133
 9000 0082 0400     		.2byte	0x4
 9001 0084 F3       		.byte	0xf3
 9002 0085 01       		.uleb128 0x1
 9003 0086 53       		.byte	0x53
 9004 0087 9F       		.byte	0x9f
 9005 0088 00000000 		.4byte	0
 9006 008c 00000000 		.4byte	0
 9007              	.LLST4:
 9008 0090 00000000 		.4byte	.LVL6
 9009 0094 0C000000 		.4byte	.LVL7
 9010 0098 0100     		.2byte	0x1
 9011 009a 50       		.byte	0x50
 9012 009b 0C000000 		.4byte	.LVL7
 9013 009f 24000000 		.4byte	.LFE134
 9014 00a3 0400     		.2byte	0x4
 9015 00a5 F3       		.byte	0xf3
 9016 00a6 01       		.uleb128 0x1
 9017 00a7 50       		.byte	0x50
 9018 00a8 9F       		.byte	0x9f
 9019 00a9 00000000 		.4byte	0
 9020 00ad 00000000 		.4byte	0
 9021              	.LLST5:
 9022 00b1 00000000 		.4byte	.LVL6
 9023 00b5 10000000 		.4byte	.LVL8
 9024 00b9 0100     		.2byte	0x1
 9025 00bb 51       		.byte	0x51
ARM GAS  /tmp/ccOGUWYP.s 			page 160


 9026 00bc 10000000 		.4byte	.LVL8
 9027 00c0 24000000 		.4byte	.LFE134
 9028 00c4 0400     		.2byte	0x4
 9029 00c6 F3       		.byte	0xf3
 9030 00c7 01       		.uleb128 0x1
 9031 00c8 51       		.byte	0x51
 9032 00c9 9F       		.byte	0x9f
 9033 00ca 00000000 		.4byte	0
 9034 00ce 00000000 		.4byte	0
 9035              	.LLST6:
 9036 00d2 00000000 		.4byte	.LVL6
 9037 00d6 16000000 		.4byte	.LVL10
 9038 00da 0100     		.2byte	0x1
 9039 00dc 52       		.byte	0x52
 9040 00dd 16000000 		.4byte	.LVL10
 9041 00e1 24000000 		.4byte	.LFE134
 9042 00e5 0400     		.2byte	0x4
 9043 00e7 F3       		.byte	0xf3
 9044 00e8 01       		.uleb128 0x1
 9045 00e9 52       		.byte	0x52
 9046 00ea 9F       		.byte	0x9f
 9047 00eb 00000000 		.4byte	0
 9048 00ef 00000000 		.4byte	0
 9049              	.LLST7:
 9050 00f3 00000000 		.4byte	.LVL6
 9051 00f7 12000000 		.4byte	.LVL9
 9052 00fb 0100     		.2byte	0x1
 9053 00fd 53       		.byte	0x53
 9054 00fe 12000000 		.4byte	.LVL9
 9055 0102 19000000 		.4byte	.LVL11-1
 9056 0106 0200     		.2byte	0x2
 9057 0108 91       		.byte	0x91
 9058 0109 6C       		.sleb128 -20
 9059 010a 19000000 		.4byte	.LVL11-1
 9060 010e 24000000 		.4byte	.LFE134
 9061 0112 0400     		.2byte	0x4
 9062 0114 F3       		.byte	0xf3
 9063 0115 01       		.uleb128 0x1
 9064 0116 53       		.byte	0x53
 9065 0117 9F       		.byte	0x9f
 9066 0118 00000000 		.4byte	0
 9067 011c 00000000 		.4byte	0
 9068              	.LLST8:
 9069 0120 00000000 		.4byte	.LVL12
 9070 0124 0C000000 		.4byte	.LVL13
 9071 0128 0100     		.2byte	0x1
 9072 012a 50       		.byte	0x50
 9073 012b 0C000000 		.4byte	.LVL13
 9074 012f 60000000 		.4byte	.LVL15
 9075 0133 0100     		.2byte	0x1
 9076 0135 54       		.byte	0x54
 9077 0136 60000000 		.4byte	.LVL15
 9078 013a 63000000 		.4byte	.LVL16-1
 9079 013e 0100     		.2byte	0x1
 9080 0140 50       		.byte	0x50
 9081 0141 63000000 		.4byte	.LVL16-1
 9082 0145 64000000 		.4byte	.LVL16
ARM GAS  /tmp/ccOGUWYP.s 			page 161


 9083 0149 0400     		.2byte	0x4
 9084 014b F3       		.byte	0xf3
 9085 014c 01       		.uleb128 0x1
 9086 014d 50       		.byte	0x50
 9087 014e 9F       		.byte	0x9f
 9088 014f 64000000 		.4byte	.LVL16
 9089 0153 A4000000 		.4byte	.LVL23
 9090 0157 0100     		.2byte	0x1
 9091 0159 54       		.byte	0x54
 9092 015a A4000000 		.4byte	.LVL23
 9093 015e A7000000 		.4byte	.LVL24-1
 9094 0162 0100     		.2byte	0x1
 9095 0164 50       		.byte	0x50
 9096 0165 A7000000 		.4byte	.LVL24-1
 9097 0169 A8000000 		.4byte	.LFE115
 9098 016d 0400     		.2byte	0x4
 9099 016f F3       		.byte	0xf3
 9100 0170 01       		.uleb128 0x1
 9101 0171 50       		.byte	0x50
 9102 0172 9F       		.byte	0x9f
 9103 0173 00000000 		.4byte	0
 9104 0177 00000000 		.4byte	0
 9105              	.LLST9:
 9106 017b 2A000000 		.4byte	.LVL14
 9107 017f 60000000 		.4byte	.LVL15
 9108 0183 0100     		.2byte	0x1
 9109 0185 54       		.byte	0x54
 9110 0186 60000000 		.4byte	.LVL15
 9111 018a 63000000 		.4byte	.LVL16-1
 9112 018e 0100     		.2byte	0x1
 9113 0190 50       		.byte	0x50
 9114 0191 63000000 		.4byte	.LVL16-1
 9115 0195 64000000 		.4byte	.LVL16
 9116 0199 0400     		.2byte	0x4
 9117 019b F3       		.byte	0xf3
 9118 019c 01       		.uleb128 0x1
 9119 019d 50       		.byte	0x50
 9120 019e 9F       		.byte	0x9f
 9121 019f 66000000 		.4byte	.LVL17
 9122 01a3 A4000000 		.4byte	.LVL23
 9123 01a7 0100     		.2byte	0x1
 9124 01a9 54       		.byte	0x54
 9125 01aa A4000000 		.4byte	.LVL23
 9126 01ae A7000000 		.4byte	.LVL24-1
 9127 01b2 0100     		.2byte	0x1
 9128 01b4 50       		.byte	0x50
 9129 01b5 A7000000 		.4byte	.LVL24-1
 9130 01b9 A8000000 		.4byte	.LFE115
 9131 01bd 0400     		.2byte	0x4
 9132 01bf F3       		.byte	0xf3
 9133 01c0 01       		.uleb128 0x1
 9134 01c1 50       		.byte	0x50
 9135 01c2 9F       		.byte	0x9f
 9136 01c3 00000000 		.4byte	0
 9137 01c7 00000000 		.4byte	0
 9138              	.LLST10:
 9139 01cb 70000000 		.4byte	.LVL18
ARM GAS  /tmp/ccOGUWYP.s 			page 162


 9140 01cf A4000000 		.4byte	.LVL23
 9141 01d3 0100     		.2byte	0x1
 9142 01d5 54       		.byte	0x54
 9143 01d6 A4000000 		.4byte	.LVL23
 9144 01da A7000000 		.4byte	.LVL24-1
 9145 01de 0100     		.2byte	0x1
 9146 01e0 50       		.byte	0x50
 9147 01e1 A7000000 		.4byte	.LVL24-1
 9148 01e5 A8000000 		.4byte	.LFE115
 9149 01e9 0400     		.2byte	0x4
 9150 01eb F3       		.byte	0xf3
 9151 01ec 01       		.uleb128 0x1
 9152 01ed 50       		.byte	0x50
 9153 01ee 9F       		.byte	0x9f
 9154 01ef 00000000 		.4byte	0
 9155 01f3 00000000 		.4byte	0
 9156              	.LLST11:
 9157 01f7 7A000000 		.4byte	.LVL19
 9158 01fb 98000000 		.4byte	.LVL21
 9159 01ff 0100     		.2byte	0x1
 9160 0201 54       		.byte	0x54
 9161 0202 00000000 		.4byte	0
 9162 0206 00000000 		.4byte	0
 9163              	.LLST12:
 9164 020a 7A000000 		.4byte	.LVL19
 9165 020e 98000000 		.4byte	.LVL21
 9166 0212 0100     		.2byte	0x1
 9167 0214 56       		.byte	0x56
 9168 0215 00000000 		.4byte	0
 9169 0219 00000000 		.4byte	0
 9170              	.LLST13:
 9171 021d 7A000000 		.4byte	.LVL19
 9172 0221 98000000 		.4byte	.LVL21
 9173 0225 0100     		.2byte	0x1
 9174 0227 55       		.byte	0x55
 9175 0228 00000000 		.4byte	0
 9176 022c 00000000 		.4byte	0
 9177              	.LLST14:
 9178 0230 00000000 		.4byte	.LVL25
 9179 0234 3A000000 		.4byte	.LVL29
 9180 0238 0100     		.2byte	0x1
 9181 023a 50       		.byte	0x50
 9182 023b 3A000000 		.4byte	.LVL29
 9183 023f 66000000 		.4byte	.LFE132
 9184 0243 0400     		.2byte	0x4
 9185 0245 F3       		.byte	0xf3
 9186 0246 01       		.uleb128 0x1
 9187 0247 50       		.byte	0x50
 9188 0248 9F       		.byte	0x9f
 9189 0249 00000000 		.4byte	0
 9190 024d 00000000 		.4byte	0
 9191              	.LLST15:
 9192 0251 00000000 		.4byte	.LVL25
 9193 0255 61000000 		.4byte	.LVL36-1
 9194 0259 0100     		.2byte	0x1
 9195 025b 51       		.byte	0x51
 9196 025c 61000000 		.4byte	.LVL36-1
ARM GAS  /tmp/ccOGUWYP.s 			page 163


 9197 0260 62000000 		.4byte	.LVL36
 9198 0264 0400     		.2byte	0x4
 9199 0266 F3       		.byte	0xf3
 9200 0267 01       		.uleb128 0x1
 9201 0268 51       		.byte	0x51
 9202 0269 9F       		.byte	0x9f
 9203 026a 62000000 		.4byte	.LVL36
 9204 026e 66000000 		.4byte	.LFE132
 9205 0272 0100     		.2byte	0x1
 9206 0274 51       		.byte	0x51
 9207 0275 00000000 		.4byte	0
 9208 0279 00000000 		.4byte	0
 9209              	.LLST16:
 9210 027d 00000000 		.4byte	.LVL25
 9211 0281 30000000 		.4byte	.LVL27
 9212 0285 0100     		.2byte	0x1
 9213 0287 52       		.byte	0x52
 9214 0288 30000000 		.4byte	.LVL27
 9215 028c 66000000 		.4byte	.LFE132
 9216 0290 0400     		.2byte	0x4
 9217 0292 F3       		.byte	0xf3
 9218 0293 01       		.uleb128 0x1
 9219 0294 52       		.byte	0x52
 9220 0295 9F       		.byte	0x9f
 9221 0296 00000000 		.4byte	0
 9222 029a 00000000 		.4byte	0
 9223              	.LLST17:
 9224 029e 00000000 		.4byte	.LVL25
 9225 02a2 4A000000 		.4byte	.LVL32
 9226 02a6 0100     		.2byte	0x1
 9227 02a8 53       		.byte	0x53
 9228 02a9 4A000000 		.4byte	.LVL32
 9229 02ad 62000000 		.4byte	.LVL36
 9230 02b1 0400     		.2byte	0x4
 9231 02b3 F3       		.byte	0xf3
 9232 02b4 01       		.uleb128 0x1
 9233 02b5 53       		.byte	0x53
 9234 02b6 9F       		.byte	0x9f
 9235 02b7 62000000 		.4byte	.LVL36
 9236 02bb 66000000 		.4byte	.LFE132
 9237 02bf 0100     		.2byte	0x1
 9238 02c1 53       		.byte	0x53
 9239 02c2 00000000 		.4byte	0
 9240 02c6 00000000 		.4byte	0
 9241              	.LLST18:
 9242 02ca 00000000 		.4byte	.LVL25
 9243 02ce 5E000000 		.4byte	.LVL35
 9244 02d2 0200     		.2byte	0x2
 9245 02d4 91       		.byte	0x91
 9246 02d5 00       		.sleb128 0
 9247 02d6 5E000000 		.4byte	.LVL35
 9248 02da 62000000 		.4byte	.LVL36
 9249 02de 0200     		.2byte	0x2
 9250 02e0 7D       		.byte	0x7d
 9251 02e1 00       		.sleb128 0
 9252 02e2 62000000 		.4byte	.LVL36
 9253 02e6 64000000 		.4byte	.LVL37
ARM GAS  /tmp/ccOGUWYP.s 			page 164


 9254 02ea 0200     		.2byte	0x2
 9255 02ec 7D       		.byte	0x7d
 9256 02ed 10       		.sleb128 16
 9257 02ee 64000000 		.4byte	.LVL37
 9258 02f2 66000000 		.4byte	.LFE132
 9259 02f6 0200     		.2byte	0x2
 9260 02f8 7D       		.byte	0x7d
 9261 02f9 00       		.sleb128 0
 9262 02fa 00000000 		.4byte	0
 9263 02fe 00000000 		.4byte	0
 9264              	.LLST19:
 9265 0302 14000000 		.4byte	.LVL26
 9266 0306 5E000000 		.4byte	.LVL35
 9267 030a 0100     		.2byte	0x1
 9268 030c 54       		.byte	0x54
 9269 030d 5E000000 		.4byte	.LVL35
 9270 0311 62000000 		.4byte	.LVL36
 9271 0315 0200     		.2byte	0x2
 9272 0317 7D       		.byte	0x7d
 9273 0318 00       		.sleb128 0
 9274 0319 00000000 		.4byte	0
 9275 031d 00000000 		.4byte	0
 9276              	.LLST20:
 9277 0321 14000000 		.4byte	.LVL26
 9278 0325 4A000000 		.4byte	.LVL32
 9279 0329 0100     		.2byte	0x1
 9280 032b 53       		.byte	0x53
 9281 032c 00000000 		.4byte	0
 9282 0330 00000000 		.4byte	0
 9283              	.LLST21:
 9284 0334 14000000 		.4byte	.LVL26
 9285 0338 30000000 		.4byte	.LVL27
 9286 033c 0100     		.2byte	0x1
 9287 033e 52       		.byte	0x52
 9288 033f 36000000 		.4byte	.LVL28
 9289 0343 42000000 		.4byte	.LVL30
 9290 0347 0100     		.2byte	0x1
 9291 0349 52       		.byte	0x52
 9292 034a 44000000 		.4byte	.LVL31
 9293 034e 4C000000 		.4byte	.LVL33
 9294 0352 0100     		.2byte	0x1
 9295 0354 52       		.byte	0x52
 9296 0355 00000000 		.4byte	0
 9297 0359 00000000 		.4byte	0
 9298              	.LLST22:
 9299 035d 14000000 		.4byte	.LVL26
 9300 0361 61000000 		.4byte	.LVL36-1
 9301 0365 0100     		.2byte	0x1
 9302 0367 51       		.byte	0x51
 9303 0368 00000000 		.4byte	0
 9304 036c 00000000 		.4byte	0
 9305              	.LLST23:
 9306 0370 14000000 		.4byte	.LVL26
 9307 0374 36000000 		.4byte	.LVL28
 9308 0378 0100     		.2byte	0x1
 9309 037a 50       		.byte	0x50
 9310 037b 36000000 		.4byte	.LVL28
ARM GAS  /tmp/ccOGUWYP.s 			page 165


 9311 037f 3A000000 		.4byte	.LVL29
 9312 0383 0300     		.2byte	0x3
 9313 0385 74       		.byte	0x74
 9314 0386 D000     		.sleb128 80
 9315 0388 3A000000 		.4byte	.LVL29
 9316 038c 5C000000 		.4byte	.LVL34
 9317 0390 0100     		.2byte	0x1
 9318 0392 50       		.byte	0x50
 9319 0393 00000000 		.4byte	0
 9320 0397 00000000 		.4byte	0
 9321              	.LLST24:
 9322 039b 00000000 		.4byte	.LVL38
 9323 039f 0C000000 		.4byte	.LVL39
 9324 03a3 0100     		.2byte	0x1
 9325 03a5 50       		.byte	0x50
 9326 03a6 0C000000 		.4byte	.LVL39
 9327 03aa 60000000 		.4byte	.LVL41
 9328 03ae 0100     		.2byte	0x1
 9329 03b0 54       		.byte	0x54
 9330 03b1 60000000 		.4byte	.LVL41
 9331 03b5 63000000 		.4byte	.LVL42-1
 9332 03b9 0100     		.2byte	0x1
 9333 03bb 50       		.byte	0x50
 9334 03bc 63000000 		.4byte	.LVL42-1
 9335 03c0 64000000 		.4byte	.LVL42
 9336 03c4 0400     		.2byte	0x4
 9337 03c6 F3       		.byte	0xf3
 9338 03c7 01       		.uleb128 0x1
 9339 03c8 50       		.byte	0x50
 9340 03c9 9F       		.byte	0x9f
 9341 03ca 64000000 		.4byte	.LVL42
 9342 03ce A4000000 		.4byte	.LVL49
 9343 03d2 0100     		.2byte	0x1
 9344 03d4 54       		.byte	0x54
 9345 03d5 A4000000 		.4byte	.LVL49
 9346 03d9 A7000000 		.4byte	.LVL50-1
 9347 03dd 0100     		.2byte	0x1
 9348 03df 50       		.byte	0x50
 9349 03e0 A7000000 		.4byte	.LVL50-1
 9350 03e4 A8000000 		.4byte	.LFE116
 9351 03e8 0400     		.2byte	0x4
 9352 03ea F3       		.byte	0xf3
 9353 03eb 01       		.uleb128 0x1
 9354 03ec 50       		.byte	0x50
 9355 03ed 9F       		.byte	0x9f
 9356 03ee 00000000 		.4byte	0
 9357 03f2 00000000 		.4byte	0
 9358              	.LLST25:
 9359 03f6 2A000000 		.4byte	.LVL40
 9360 03fa 60000000 		.4byte	.LVL41
 9361 03fe 0100     		.2byte	0x1
 9362 0400 54       		.byte	0x54
 9363 0401 60000000 		.4byte	.LVL41
 9364 0405 63000000 		.4byte	.LVL42-1
 9365 0409 0100     		.2byte	0x1
 9366 040b 50       		.byte	0x50
 9367 040c 63000000 		.4byte	.LVL42-1
ARM GAS  /tmp/ccOGUWYP.s 			page 166


 9368 0410 64000000 		.4byte	.LVL42
 9369 0414 0400     		.2byte	0x4
 9370 0416 F3       		.byte	0xf3
 9371 0417 01       		.uleb128 0x1
 9372 0418 50       		.byte	0x50
 9373 0419 9F       		.byte	0x9f
 9374 041a 66000000 		.4byte	.LVL43
 9375 041e A4000000 		.4byte	.LVL49
 9376 0422 0100     		.2byte	0x1
 9377 0424 54       		.byte	0x54
 9378 0425 A4000000 		.4byte	.LVL49
 9379 0429 A7000000 		.4byte	.LVL50-1
 9380 042d 0100     		.2byte	0x1
 9381 042f 50       		.byte	0x50
 9382 0430 A7000000 		.4byte	.LVL50-1
 9383 0434 A8000000 		.4byte	.LFE116
 9384 0438 0400     		.2byte	0x4
 9385 043a F3       		.byte	0xf3
 9386 043b 01       		.uleb128 0x1
 9387 043c 50       		.byte	0x50
 9388 043d 9F       		.byte	0x9f
 9389 043e 00000000 		.4byte	0
 9390 0442 00000000 		.4byte	0
 9391              	.LLST26:
 9392 0446 70000000 		.4byte	.LVL44
 9393 044a A4000000 		.4byte	.LVL49
 9394 044e 0100     		.2byte	0x1
 9395 0450 54       		.byte	0x54
 9396 0451 A4000000 		.4byte	.LVL49
 9397 0455 A7000000 		.4byte	.LVL50-1
 9398 0459 0100     		.2byte	0x1
 9399 045b 50       		.byte	0x50
 9400 045c A7000000 		.4byte	.LVL50-1
 9401 0460 A8000000 		.4byte	.LFE116
 9402 0464 0400     		.2byte	0x4
 9403 0466 F3       		.byte	0xf3
 9404 0467 01       		.uleb128 0x1
 9405 0468 50       		.byte	0x50
 9406 0469 9F       		.byte	0x9f
 9407 046a 00000000 		.4byte	0
 9408 046e 00000000 		.4byte	0
 9409              	.LLST27:
 9410 0472 7A000000 		.4byte	.LVL45
 9411 0476 98000000 		.4byte	.LVL47
 9412 047a 0100     		.2byte	0x1
 9413 047c 54       		.byte	0x54
 9414 047d 00000000 		.4byte	0
 9415 0481 00000000 		.4byte	0
 9416              	.LLST28:
 9417 0485 7A000000 		.4byte	.LVL45
 9418 0489 98000000 		.4byte	.LVL47
 9419 048d 0100     		.2byte	0x1
 9420 048f 55       		.byte	0x55
 9421 0490 00000000 		.4byte	0
 9422 0494 00000000 		.4byte	0
 9423              	.LLST29:
 9424 0498 7A000000 		.4byte	.LVL45
ARM GAS  /tmp/ccOGUWYP.s 			page 167


 9425 049c 98000000 		.4byte	.LVL47
 9426 04a0 0100     		.2byte	0x1
 9427 04a2 56       		.byte	0x56
 9428 04a3 00000000 		.4byte	0
 9429 04a7 00000000 		.4byte	0
 9430              	.LLST30:
 9431 04ab 00000000 		.4byte	.LVL51
 9432 04af 0A000000 		.4byte	.LVL52
 9433 04b3 0100     		.2byte	0x1
 9434 04b5 50       		.byte	0x50
 9435 04b6 0A000000 		.4byte	.LVL52
 9436 04ba 10000000 		.4byte	.LFE121
 9437 04be 0400     		.2byte	0x4
 9438 04c0 F3       		.byte	0xf3
 9439 04c1 01       		.uleb128 0x1
 9440 04c2 50       		.byte	0x50
 9441 04c3 9F       		.byte	0x9f
 9442 04c4 00000000 		.4byte	0
 9443 04c8 00000000 		.4byte	0
 9444              	.LLST31:
 9445 04cc 00000000 		.4byte	.LVL55
 9446 04d0 06000000 		.4byte	.LVL56
 9447 04d4 0100     		.2byte	0x1
 9448 04d6 50       		.byte	0x50
 9449 04d7 06000000 		.4byte	.LVL56
 9450 04db 50000000 		.4byte	.LVL62
 9451 04df 0100     		.2byte	0x1
 9452 04e1 54       		.byte	0x54
 9453 04e2 50000000 		.4byte	.LVL62
 9454 04e6 54000000 		.4byte	.LVL63
 9455 04ea 0400     		.2byte	0x4
 9456 04ec F3       		.byte	0xf3
 9457 04ed 01       		.uleb128 0x1
 9458 04ee 50       		.byte	0x50
 9459 04ef 9F       		.byte	0x9f
 9460 04f0 54000000 		.4byte	.LVL63
 9461 04f4 8A000000 		.4byte	.LFE124
 9462 04f8 0100     		.2byte	0x1
 9463 04fa 54       		.byte	0x54
 9464 04fb 00000000 		.4byte	0
 9465 04ff 00000000 		.4byte	0
 9466              	.LLST32:
 9467 0503 00000000 		.4byte	.LVL55
 9468 0507 0F000000 		.4byte	.LVL57-1
 9469 050b 0100     		.2byte	0x1
 9470 050d 51       		.byte	0x51
 9471 050e 0F000000 		.4byte	.LVL57-1
 9472 0512 8A000000 		.4byte	.LFE124
 9473 0516 0400     		.2byte	0x4
 9474 0518 F3       		.byte	0xf3
 9475 0519 01       		.uleb128 0x1
 9476 051a 51       		.byte	0x51
 9477 051b 9F       		.byte	0x9f
 9478 051c 00000000 		.4byte	0
 9479 0520 00000000 		.4byte	0
 9480              	.LLST33:
 9481 0524 00000000 		.4byte	.LVL55
ARM GAS  /tmp/ccOGUWYP.s 			page 168


 9482 0528 0F000000 		.4byte	.LVL57-1
 9483 052c 0100     		.2byte	0x1
 9484 052e 52       		.byte	0x52
 9485 052f 0F000000 		.4byte	.LVL57-1
 9486 0533 8A000000 		.4byte	.LFE124
 9487 0537 0400     		.2byte	0x4
 9488 0539 F3       		.byte	0xf3
 9489 053a 01       		.uleb128 0x1
 9490 053b 52       		.byte	0x52
 9491 053c 9F       		.byte	0x9f
 9492 053d 00000000 		.4byte	0
 9493 0541 00000000 		.4byte	0
 9494              	.LLST34:
 9495 0545 00000000 		.4byte	.LVL55
 9496 0549 0F000000 		.4byte	.LVL57-1
 9497 054d 0100     		.2byte	0x1
 9498 054f 53       		.byte	0x53
 9499 0550 0F000000 		.4byte	.LVL57-1
 9500 0554 8A000000 		.4byte	.LFE124
 9501 0558 0400     		.2byte	0x4
 9502 055a F3       		.byte	0xf3
 9503 055b 01       		.uleb128 0x1
 9504 055c 53       		.byte	0x53
 9505 055d 9F       		.byte	0x9f
 9506 055e 00000000 		.4byte	0
 9507 0562 00000000 		.4byte	0
 9508              	.LLST35:
 9509 0566 18000000 		.4byte	.LVL58
 9510 056a 50000000 		.4byte	.LVL62
 9511 056e 0100     		.2byte	0x1
 9512 0570 54       		.byte	0x54
 9513 0571 50000000 		.4byte	.LVL62
 9514 0575 54000000 		.4byte	.LVL63
 9515 0579 0400     		.2byte	0x4
 9516 057b F3       		.byte	0xf3
 9517 057c 01       		.uleb128 0x1
 9518 057d 50       		.byte	0x50
 9519 057e 9F       		.byte	0x9f
 9520 057f 54000000 		.4byte	.LVL63
 9521 0583 8A000000 		.4byte	.LFE124
 9522 0587 0100     		.2byte	0x1
 9523 0589 54       		.byte	0x54
 9524 058a 00000000 		.4byte	0
 9525 058e 00000000 		.4byte	0
 9526              	.LLST36:
 9527 0592 28000000 		.4byte	.LVL59
 9528 0596 38000000 		.4byte	.LVL60
 9529 059a 0100     		.2byte	0x1
 9530 059c 54       		.byte	0x54
 9531 059d 54000000 		.4byte	.LVL63
 9532 05a1 8A000000 		.4byte	.LFE124
 9533 05a5 0100     		.2byte	0x1
 9534 05a7 54       		.byte	0x54
 9535 05a8 00000000 		.4byte	0
 9536 05ac 00000000 		.4byte	0
 9537              	.LLST37:
 9538 05b0 5E000000 		.4byte	.LVL64
ARM GAS  /tmp/ccOGUWYP.s 			page 169


 9539 05b4 7C000000 		.4byte	.LVL66
 9540 05b8 0100     		.2byte	0x1
 9541 05ba 54       		.byte	0x54
 9542 05bb 00000000 		.4byte	0
 9543 05bf 00000000 		.4byte	0
 9544              	.LLST38:
 9545 05c3 5E000000 		.4byte	.LVL64
 9546 05c7 7C000000 		.4byte	.LVL66
 9547 05cb 0100     		.2byte	0x1
 9548 05cd 55       		.byte	0x55
 9549 05ce 00000000 		.4byte	0
 9550 05d2 00000000 		.4byte	0
 9551              	.LLST39:
 9552 05d6 5E000000 		.4byte	.LVL64
 9553 05da 7C000000 		.4byte	.LVL66
 9554 05de 0100     		.2byte	0x1
 9555 05e0 56       		.byte	0x56
 9556 05e1 00000000 		.4byte	0
 9557 05e5 00000000 		.4byte	0
 9558              	.LLST40:
 9559 05e9 00000000 		.4byte	.LVL69
 9560 05ed 14000000 		.4byte	.LVL70
 9561 05f1 0100     		.2byte	0x1
 9562 05f3 50       		.byte	0x50
 9563 05f4 14000000 		.4byte	.LVL70
 9564 05f8 EA000000 		.4byte	.LVL94
 9565 05fc 0100     		.2byte	0x1
 9566 05fe 54       		.byte	0x54
 9567 05ff EA000000 		.4byte	.LVL94
 9568 0603 EE000000 		.4byte	.LVL95
 9569 0607 0400     		.2byte	0x4
 9570 0609 F3       		.byte	0xf3
 9571 060a 01       		.uleb128 0x1
 9572 060b 50       		.byte	0x50
 9573 060c 9F       		.byte	0x9f
 9574 060d EE000000 		.4byte	.LVL95
 9575 0611 2A020000 		.4byte	.LFE125
 9576 0615 0100     		.2byte	0x1
 9577 0617 54       		.byte	0x54
 9578 0618 00000000 		.4byte	0
 9579 061c 00000000 		.4byte	0
 9580              	.LLST41:
 9581 0620 00000000 		.4byte	.LVL69
 9582 0624 1B000000 		.4byte	.LVL71-1
 9583 0628 0100     		.2byte	0x1
 9584 062a 51       		.byte	0x51
 9585 062b 1B000000 		.4byte	.LVL71-1
 9586 062f 2A020000 		.4byte	.LFE125
 9587 0633 0400     		.2byte	0x4
 9588 0635 F3       		.byte	0xf3
 9589 0636 01       		.uleb128 0x1
 9590 0637 51       		.byte	0x51
 9591 0638 9F       		.byte	0x9f
 9592 0639 00000000 		.4byte	0
 9593 063d 00000000 		.4byte	0
 9594              	.LLST42:
 9595 0641 00000000 		.4byte	.LVL69
ARM GAS  /tmp/ccOGUWYP.s 			page 170


 9596 0645 1B000000 		.4byte	.LVL71-1
 9597 0649 0100     		.2byte	0x1
 9598 064b 52       		.byte	0x52
 9599 064c 1B000000 		.4byte	.LVL71-1
 9600 0650 2A020000 		.4byte	.LFE125
 9601 0654 0400     		.2byte	0x4
 9602 0656 F3       		.byte	0xf3
 9603 0657 01       		.uleb128 0x1
 9604 0658 52       		.byte	0x52
 9605 0659 9F       		.byte	0x9f
 9606 065a 00000000 		.4byte	0
 9607 065e 00000000 		.4byte	0
 9608              	.LLST43:
 9609 0662 00000000 		.4byte	.LVL69
 9610 0666 1B000000 		.4byte	.LVL71-1
 9611 066a 0100     		.2byte	0x1
 9612 066c 53       		.byte	0x53
 9613 066d 1B000000 		.4byte	.LVL71-1
 9614 0671 2A020000 		.4byte	.LFE125
 9615 0675 0400     		.2byte	0x4
 9616 0677 F3       		.byte	0xf3
 9617 0678 01       		.uleb128 0x1
 9618 0679 53       		.byte	0x53
 9619 067a 9F       		.byte	0x9f
 9620 067b 00000000 		.4byte	0
 9621 067f 00000000 		.4byte	0
 9622              	.LLST44:
 9623 0683 00000000 		.4byte	.LVL69
 9624 0687 EA000000 		.4byte	.LVL94
 9625 068b 0200     		.2byte	0x2
 9626 068d 91       		.byte	0x91
 9627 068e 00       		.sleb128 0
 9628 068f EA000000 		.4byte	.LVL94
 9629 0693 EE000000 		.4byte	.LVL95
 9630 0697 0200     		.2byte	0x2
 9631 0699 7D       		.byte	0x7d
 9632 069a 00       		.sleb128 0
 9633 069b EE000000 		.4byte	.LVL95
 9634 069f 2A020000 		.4byte	.LFE125
 9635 06a3 0200     		.2byte	0x2
 9636 06a5 91       		.byte	0x91
 9637 06a6 00       		.sleb128 0
 9638 06a7 00000000 		.4byte	0
 9639 06ab 00000000 		.4byte	0
 9640              	.LLST45:
 9641 06af 00000000 		.4byte	.LVL69
 9642 06b3 EA000000 		.4byte	.LVL94
 9643 06b7 0200     		.2byte	0x2
 9644 06b9 91       		.byte	0x91
 9645 06ba 04       		.sleb128 4
 9646 06bb EA000000 		.4byte	.LVL94
 9647 06bf EE000000 		.4byte	.LVL95
 9648 06c3 0200     		.2byte	0x2
 9649 06c5 7D       		.byte	0x7d
 9650 06c6 04       		.sleb128 4
 9651 06c7 EE000000 		.4byte	.LVL95
 9652 06cb 2A020000 		.4byte	.LFE125
ARM GAS  /tmp/ccOGUWYP.s 			page 171


 9653 06cf 0200     		.2byte	0x2
 9654 06d1 91       		.byte	0x91
 9655 06d2 04       		.sleb128 4
 9656 06d3 00000000 		.4byte	0
 9657 06d7 00000000 		.4byte	0
 9658              	.LLST46:
 9659 06db 22000000 		.4byte	.LVL72
 9660 06df EA000000 		.4byte	.LVL94
 9661 06e3 0100     		.2byte	0x1
 9662 06e5 54       		.byte	0x54
 9663 06e6 EA000000 		.4byte	.LVL94
 9664 06ea EE000000 		.4byte	.LVL95
 9665 06ee 0400     		.2byte	0x4
 9666 06f0 F3       		.byte	0xf3
 9667 06f1 01       		.uleb128 0x1
 9668 06f2 50       		.byte	0x50
 9669 06f3 9F       		.byte	0x9f
 9670 06f4 EE000000 		.4byte	.LVL95
 9671 06f8 2A020000 		.4byte	.LFE125
 9672 06fc 0100     		.2byte	0x1
 9673 06fe 54       		.byte	0x54
 9674 06ff 00000000 		.4byte	0
 9675 0703 00000000 		.4byte	0
 9676              	.LLST47:
 9677 0707 4C000000 		.4byte	.LVL76
 9678 070b 5C000000 		.4byte	.LVL78
 9679 070f 0100     		.2byte	0x1
 9680 0711 56       		.byte	0x56
 9681 0712 02010000 		.4byte	.LVL99
 9682 0716 12010000 		.4byte	.LVL101
 9683 071a 0100     		.2byte	0x1
 9684 071c 56       		.byte	0x56
 9685 071d 00000000 		.4byte	0
 9686 0721 00000000 		.4byte	0
 9687              	.LLST48:
 9688 0725 42000000 		.4byte	.LVL73
 9689 0729 48000000 		.4byte	.LVL75
 9690 072d 0100     		.2byte	0x1
 9691 072f 58       		.byte	0x58
 9692 0730 F8000000 		.4byte	.LVL96
 9693 0734 FE000000 		.4byte	.LVL98
 9694 0738 0100     		.2byte	0x1
 9695 073a 58       		.byte	0x58
 9696 073b 00000000 		.4byte	0
 9697 073f 00000000 		.4byte	0
 9698              	.LLST49:
 9699 0743 42000000 		.4byte	.LVL73
 9700 0747 46000000 		.4byte	.LVL74
 9701 074b 0300     		.2byte	0x3
 9702 074d 09       		.byte	0x9
 9703 074e FF       		.byte	0xff
 9704 074f 9F       		.byte	0x9f
 9705 0750 46000000 		.4byte	.LVL74
 9706 0754 48000000 		.4byte	.LVL75
 9707 0758 0100     		.2byte	0x1
 9708 075a 59       		.byte	0x59
 9709 075b F8000000 		.4byte	.LVL96
ARM GAS  /tmp/ccOGUWYP.s 			page 172


 9710 075f FC000000 		.4byte	.LVL97
 9711 0763 0200     		.2byte	0x2
 9712 0765 31       		.byte	0x31
 9713 0766 9F       		.byte	0x9f
 9714 0767 FC000000 		.4byte	.LVL97
 9715 076b FE000000 		.4byte	.LVL98
 9716 076f 0100     		.2byte	0x1
 9717 0771 59       		.byte	0x59
 9718 0772 00000000 		.4byte	0
 9719 0776 00000000 		.4byte	0
 9720              	.LLST50:
 9721 077a 4C000000 		.4byte	.LVL76
 9722 077e 5A000000 		.4byte	.LVL77
 9723 0782 0200     		.2byte	0x2
 9724 0784 31       		.byte	0x31
 9725 0785 9F       		.byte	0x9f
 9726 0786 5A000000 		.4byte	.LVL77
 9727 078a 5C000000 		.4byte	.LVL78
 9728 078e 0100     		.2byte	0x1
 9729 0790 5A       		.byte	0x5a
 9730 0791 02010000 		.4byte	.LVL99
 9731 0795 10010000 		.4byte	.LVL100
 9732 0799 0300     		.2byte	0x3
 9733 079b 09       		.byte	0x9
 9734 079c FF       		.byte	0xff
 9735 079d 9F       		.byte	0x9f
 9736 079e 10010000 		.4byte	.LVL100
 9737 07a2 12010000 		.4byte	.LVL101
 9738 07a6 0100     		.2byte	0x1
 9739 07a8 5A       		.byte	0x5a
 9740 07a9 00000000 		.4byte	0
 9741 07ad 00000000 		.4byte	0
 9742              	.LLST51:
 9743 07b1 76000000 		.4byte	.LVL79
 9744 07b5 88000000 		.4byte	.LVL82
 9745 07b9 0100     		.2byte	0x1
 9746 07bb 56       		.byte	0x56
 9747 07bc 8E000000 		.4byte	.LVL83
 9748 07c0 92000000 		.4byte	.LVL84
 9749 07c4 0100     		.2byte	0x1
 9750 07c6 56       		.byte	0x56
 9751 07c7 94000000 		.4byte	.LVL85
 9752 07cb C6000000 		.4byte	.LVL89
 9753 07cf 0100     		.2byte	0x1
 9754 07d1 56       		.byte	0x56
 9755 07d2 CC000000 		.4byte	.LVL90
 9756 07d6 D0000000 		.4byte	.LVL92
 9757 07da 0100     		.2byte	0x1
 9758 07dc 56       		.byte	0x56
 9759 07dd 2A010000 		.4byte	.LVL102
 9760 07e1 32010000 		.4byte	.LVL103
 9761 07e5 0100     		.2byte	0x1
 9762 07e7 53       		.byte	0x53
 9763 07e8 32010000 		.4byte	.LVL103
 9764 07ec 36010000 		.4byte	.LVL104
 9765 07f0 0100     		.2byte	0x1
 9766 07f2 56       		.byte	0x56
ARM GAS  /tmp/ccOGUWYP.s 			page 173


 9767 07f3 3C010000 		.4byte	.LVL105
 9768 07f7 7C010000 		.4byte	.LVL111
 9769 07fb 0100     		.2byte	0x1
 9770 07fd 56       		.byte	0x56
 9771 07fe 80010000 		.4byte	.LVL112
 9772 0802 1A020000 		.4byte	.LVL125
 9773 0806 0100     		.2byte	0x1
 9774 0808 56       		.byte	0x56
 9775 0809 00000000 		.4byte	0
 9776 080d 00000000 		.4byte	0
 9777              	.LLST52:
 9778 0811 76000000 		.4byte	.LVL79
 9779 0815 7C000000 		.4byte	.LVL80
 9780 0819 0100     		.2byte	0x1
 9781 081b 53       		.byte	0x53
 9782 081c 7C000000 		.4byte	.LVL80
 9783 0820 D0000000 		.4byte	.LVL92
 9784 0824 0100     		.2byte	0x1
 9785 0826 5B       		.byte	0x5b
 9786 0827 2A010000 		.4byte	.LVL102
 9787 082b 32010000 		.4byte	.LVL103
 9788 082f 0100     		.2byte	0x1
 9789 0831 5C       		.byte	0x5c
 9790 0832 D2010000 		.4byte	.LVL119
 9791 0836 1A020000 		.4byte	.LVL125
 9792 083a 0100     		.2byte	0x1
 9793 083c 5B       		.byte	0x5b
 9794 083d 00000000 		.4byte	0
 9795 0841 00000000 		.4byte	0
 9796              	.LLST53:
 9797 0845 76000000 		.4byte	.LVL79
 9798 0849 7C000000 		.4byte	.LVL80
 9799 084d 0200     		.2byte	0x2
 9800 084f 30       		.byte	0x30
 9801 0850 9F       		.byte	0x9f
 9802 0851 7C000000 		.4byte	.LVL80
 9803 0855 80000000 		.4byte	.LVL81
 9804 0859 0100     		.2byte	0x1
 9805 085b 57       		.byte	0x57
 9806 085c 80000000 		.4byte	.LVL81
 9807 0860 8E000000 		.4byte	.LVL83
 9808 0864 0300     		.2byte	0x3
 9809 0866 77       		.byte	0x77
 9810 0867 7F       		.sleb128 -1
 9811 0868 9F       		.byte	0x9f
 9812 0869 94000000 		.4byte	.LVL85
 9813 086d C2000000 		.4byte	.LVL88
 9814 0871 0100     		.2byte	0x1
 9815 0873 57       		.byte	0x57
 9816 0874 C2000000 		.4byte	.LVL88
 9817 0878 CE000000 		.4byte	.LVL91
 9818 087c 0300     		.2byte	0x3
 9819 087e 77       		.byte	0x77
 9820 087f 7F       		.sleb128 -1
 9821 0880 9F       		.byte	0x9f
 9822 0881 2A010000 		.4byte	.LVL102
 9823 0885 32010000 		.4byte	.LVL103
ARM GAS  /tmp/ccOGUWYP.s 			page 174


 9824 0889 0200     		.2byte	0x2
 9825 088b 30       		.byte	0x30
 9826 088c 9F       		.byte	0x9f
 9827 088d 32010000 		.4byte	.LVL103
 9828 0891 42010000 		.4byte	.LVL106
 9829 0895 0100     		.2byte	0x1
 9830 0897 57       		.byte	0x57
 9831 0898 42010000 		.4byte	.LVL106
 9832 089c 44010000 		.4byte	.LVL107
 9833 08a0 0300     		.2byte	0x3
 9834 08a2 77       		.byte	0x77
 9835 08a3 01       		.sleb128 1
 9836 08a4 9F       		.byte	0x9f
 9837 08a5 44010000 		.4byte	.LVL107
 9838 08a9 50010000 		.4byte	.LVL108
 9839 08ad 0300     		.2byte	0x3
 9840 08af 77       		.byte	0x77
 9841 08b0 00       		.sleb128 0
 9842 08b1 9F       		.byte	0x9f
 9843 08b2 50010000 		.4byte	.LVL108
 9844 08b6 1A020000 		.4byte	.LVL125
 9845 08ba 0100     		.2byte	0x1
 9846 08bc 57       		.byte	0x57
 9847 08bd 00000000 		.4byte	0
 9848 08c1 00000000 		.4byte	0
 9849              	.LLST54:
 9850 08c5 7C000000 		.4byte	.LVL80
 9851 08c9 D0000000 		.4byte	.LVL92
 9852 08cd 0100     		.2byte	0x1
 9853 08cf 54       		.byte	0x54
 9854 08d0 D2010000 		.4byte	.LVL119
 9855 08d4 1A020000 		.4byte	.LVL125
 9856 08d8 0100     		.2byte	0x1
 9857 08da 54       		.byte	0x54
 9858 08db 00000000 		.4byte	0
 9859 08df 00000000 		.4byte	0
 9860              	.LLST55:
 9861 08e3 A6000000 		.4byte	.LVL86
 9862 08e7 BC000000 		.4byte	.LVL87
 9863 08eb 0100     		.2byte	0x1
 9864 08ed 54       		.byte	0x54
 9865 08ee D2010000 		.4byte	.LVL119
 9866 08f2 1A020000 		.4byte	.LVL125
 9867 08f6 0100     		.2byte	0x1
 9868 08f8 54       		.byte	0x54
 9869 08f9 00000000 		.4byte	0
 9870 08fd 00000000 		.4byte	0
 9871              	.LLST56:
 9872 0901 D2010000 		.4byte	.LVL119
 9873 0905 1A020000 		.4byte	.LVL125
 9874 0909 0100     		.2byte	0x1
 9875 090b 54       		.byte	0x54
 9876 090c 00000000 		.4byte	0
 9877 0910 00000000 		.4byte	0
 9878              	.LLST57:
 9879 0914 DC010000 		.4byte	.LVL120
 9880 0918 06020000 		.4byte	.LVL122
ARM GAS  /tmp/ccOGUWYP.s 			page 175


 9881 091c 0100     		.2byte	0x1
 9882 091e 54       		.byte	0x54
 9883 091f 00000000 		.4byte	0
 9884 0923 00000000 		.4byte	0
 9885              	.LLST58:
 9886 0927 DC010000 		.4byte	.LVL120
 9887 092b 06020000 		.4byte	.LVL122
 9888 092f 0100     		.2byte	0x1
 9889 0931 55       		.byte	0x55
 9890 0932 00000000 		.4byte	0
 9891 0936 00000000 		.4byte	0
 9892              	.LLST59:
 9893 093a DC010000 		.4byte	.LVL120
 9894 093e F5010000 		.4byte	.LVL121-1
 9895 0942 0100     		.2byte	0x1
 9896 0944 51       		.byte	0x51
 9897 0945 00000000 		.4byte	0
 9898 0949 00000000 		.4byte	0
 9899              	.LLST60:
 9900 094d 32010000 		.4byte	.LVL103
 9901 0951 D2010000 		.4byte	.LVL119
 9902 0955 0100     		.2byte	0x1
 9903 0957 54       		.byte	0x54
 9904 0958 00000000 		.4byte	0
 9905 095c 00000000 		.4byte	0
 9906              	.LLST61:
 9907 0960 62010000 		.4byte	.LVL109
 9908 0964 76010000 		.4byte	.LVL110
 9909 0968 0100     		.2byte	0x1
 9910 096a 54       		.byte	0x54
 9911 096b 86010000 		.4byte	.LVL113
 9912 096f D2010000 		.4byte	.LVL119
 9913 0973 0100     		.2byte	0x1
 9914 0975 54       		.byte	0x54
 9915 0976 00000000 		.4byte	0
 9916 097a 00000000 		.4byte	0
 9917              	.LLST62:
 9918 097e 86010000 		.4byte	.LVL113
 9919 0982 D2010000 		.4byte	.LVL119
 9920 0986 0100     		.2byte	0x1
 9921 0988 54       		.byte	0x54
 9922 0989 00000000 		.4byte	0
 9923 098d 00000000 		.4byte	0
 9924              	.LLST63:
 9925 0991 90010000 		.4byte	.LVL114
 9926 0995 B8010000 		.4byte	.LVL116
 9927 0999 0100     		.2byte	0x1
 9928 099b 54       		.byte	0x54
 9929 099c 00000000 		.4byte	0
 9930 09a0 00000000 		.4byte	0
 9931              	.LLST64:
 9932 09a4 90010000 		.4byte	.LVL114
 9933 09a8 B8010000 		.4byte	.LVL116
 9934 09ac 0100     		.2byte	0x1
 9935 09ae 55       		.byte	0x55
 9936 09af 00000000 		.4byte	0
 9937 09b3 00000000 		.4byte	0
ARM GAS  /tmp/ccOGUWYP.s 			page 176


 9938              	.LLST65:
 9939 09b7 90010000 		.4byte	.LVL114
 9940 09bb B8010000 		.4byte	.LVL116
 9941 09bf 0100     		.2byte	0x1
 9942 09c1 58       		.byte	0x58
 9943 09c2 00000000 		.4byte	0
 9944 09c6 00000000 		.4byte	0
 9945              	.LLST66:
 9946 09ca 00000000 		.4byte	.LVL128
 9947 09ce 06000000 		.4byte	.LVL129
 9948 09d2 0100     		.2byte	0x1
 9949 09d4 50       		.byte	0x50
 9950 09d5 06000000 		.4byte	.LVL129
 9951 09d9 28000000 		.4byte	.LVL132
 9952 09dd 0100     		.2byte	0x1
 9953 09df 54       		.byte	0x54
 9954 09e0 28000000 		.4byte	.LVL132
 9955 09e4 2C000000 		.4byte	.LFE126
 9956 09e8 0400     		.2byte	0x4
 9957 09ea F3       		.byte	0xf3
 9958 09eb 01       		.uleb128 0x1
 9959 09ec 50       		.byte	0x50
 9960 09ed 9F       		.byte	0x9f
 9961 09ee 00000000 		.4byte	0
 9962 09f2 00000000 		.4byte	0
 9963              	.LLST67:
 9964 09f6 00000000 		.4byte	.LVL128
 9965 09fa 0B000000 		.4byte	.LVL130-1
 9966 09fe 0100     		.2byte	0x1
 9967 0a00 51       		.byte	0x51
 9968 0a01 0B000000 		.4byte	.LVL130-1
 9969 0a05 2C000000 		.4byte	.LFE126
 9970 0a09 0400     		.2byte	0x4
 9971 0a0b F3       		.byte	0xf3
 9972 0a0c 01       		.uleb128 0x1
 9973 0a0d 51       		.byte	0x51
 9974 0a0e 9F       		.byte	0x9f
 9975 0a0f 00000000 		.4byte	0
 9976 0a13 00000000 		.4byte	0
 9977              	.LLST68:
 9978 0a17 00000000 		.4byte	.LVL134
 9979 0a1b 08000000 		.4byte	.LVL135
 9980 0a1f 0100     		.2byte	0x1
 9981 0a21 50       		.byte	0x50
 9982 0a22 08000000 		.4byte	.LVL135
 9983 0a26 92000000 		.4byte	.LVL139
 9984 0a2a 0100     		.2byte	0x1
 9985 0a2c 54       		.byte	0x54
 9986 0a2d 92000000 		.4byte	.LVL139
 9987 0a31 96000000 		.4byte	.LVL140
 9988 0a35 0400     		.2byte	0x4
 9989 0a37 F3       		.byte	0xf3
 9990 0a38 01       		.uleb128 0x1
 9991 0a39 50       		.byte	0x50
 9992 0a3a 9F       		.byte	0x9f
 9993 0a3b 96000000 		.4byte	.LVL140
 9994 0a3f A4000000 		.4byte	.LFE127
ARM GAS  /tmp/ccOGUWYP.s 			page 177


 9995 0a43 0100     		.2byte	0x1
 9996 0a45 54       		.byte	0x54
 9997 0a46 00000000 		.4byte	0
 9998 0a4a 00000000 		.4byte	0
 9999              	.LLST69:
 10000 0a4e 00000000 		.4byte	.LVL134
 10001 0a52 19000000 		.4byte	.LVL136-1
 10002 0a56 0100     		.2byte	0x1
 10003 0a58 51       		.byte	0x51
 10004 0a59 19000000 		.4byte	.LVL136-1
 10005 0a5d A4000000 		.4byte	.LFE127
 10006 0a61 0400     		.2byte	0x4
 10007 0a63 F3       		.byte	0xf3
 10008 0a64 01       		.uleb128 0x1
 10009 0a65 51       		.byte	0x51
 10010 0a66 9F       		.byte	0x9f
 10011 0a67 00000000 		.4byte	0
 10012 0a6b 00000000 		.4byte	0
 10013              	.LLST70:
 10014 0a6f 00000000 		.4byte	.LVL134
 10015 0a73 19000000 		.4byte	.LVL136-1
 10016 0a77 0100     		.2byte	0x1
 10017 0a79 52       		.byte	0x52
 10018 0a7a 19000000 		.4byte	.LVL136-1
 10019 0a7e A4000000 		.4byte	.LFE127
 10020 0a82 0400     		.2byte	0x4
 10021 0a84 F3       		.byte	0xf3
 10022 0a85 01       		.uleb128 0x1
 10023 0a86 52       		.byte	0x52
 10024 0a87 9F       		.byte	0x9f
 10025 0a88 00000000 		.4byte	0
 10026 0a8c 00000000 		.4byte	0
 10027              	.LLST71:
 10028 0a90 00000000 		.4byte	.LVL134
 10029 0a94 19000000 		.4byte	.LVL136-1
 10030 0a98 0100     		.2byte	0x1
 10031 0a9a 53       		.byte	0x53
 10032 0a9b 19000000 		.4byte	.LVL136-1
 10033 0a9f A4000000 		.4byte	.LFE127
 10034 0aa3 0400     		.2byte	0x4
 10035 0aa5 F3       		.byte	0xf3
 10036 0aa6 01       		.uleb128 0x1
 10037 0aa7 53       		.byte	0x53
 10038 0aa8 9F       		.byte	0x9f
 10039 0aa9 00000000 		.4byte	0
 10040 0aad 00000000 		.4byte	0
 10041              	.LLST72:
 10042 0ab1 00000000 		.4byte	.LVL134
 10043 0ab5 92000000 		.4byte	.LVL139
 10044 0ab9 0200     		.2byte	0x2
 10045 0abb 91       		.byte	0x91
 10046 0abc 00       		.sleb128 0
 10047 0abd 92000000 		.4byte	.LVL139
 10048 0ac1 96000000 		.4byte	.LVL140
 10049 0ac5 0200     		.2byte	0x2
 10050 0ac7 7D       		.byte	0x7d
 10051 0ac8 00       		.sleb128 0
ARM GAS  /tmp/ccOGUWYP.s 			page 178


 10052 0ac9 96000000 		.4byte	.LVL140
 10053 0acd A4000000 		.4byte	.LFE127
 10054 0ad1 0200     		.2byte	0x2
 10055 0ad3 7D       		.byte	0x7d
 10056 0ad4 20       		.sleb128 32
 10057 0ad5 00000000 		.4byte	0
 10058 0ad9 00000000 		.4byte	0
 10059              	.LLST73:
 10060 0add 00000000 		.4byte	.LVL134
 10061 0ae1 92000000 		.4byte	.LVL139
 10062 0ae5 0200     		.2byte	0x2
 10063 0ae7 91       		.byte	0x91
 10064 0ae8 04       		.sleb128 4
 10065 0ae9 92000000 		.4byte	.LVL139
 10066 0aed 96000000 		.4byte	.LVL140
 10067 0af1 0200     		.2byte	0x2
 10068 0af3 7D       		.byte	0x7d
 10069 0af4 04       		.sleb128 4
 10070 0af5 96000000 		.4byte	.LVL140
 10071 0af9 A4000000 		.4byte	.LFE127
 10072 0afd 0200     		.2byte	0x2
 10073 0aff 7D       		.byte	0x7d
 10074 0b00 24       		.sleb128 36
 10075 0b01 00000000 		.4byte	0
 10076 0b05 00000000 		.4byte	0
 10077              	.LLST74:
 10078 0b09 88000000 		.4byte	.LVL137
 10079 0b0d 8E000000 		.4byte	.LVL138
 10080 0b11 0100     		.2byte	0x1
 10081 0b13 54       		.byte	0x54
 10082 0b14 00000000 		.4byte	0
 10083 0b18 00000000 		.4byte	0
 10084              	.LLST75:
 10085 0b1c 00000000 		.4byte	.LVL141
 10086 0b20 0C000000 		.4byte	.LVL142
 10087 0b24 0100     		.2byte	0x1
 10088 0b26 50       		.byte	0x50
 10089 0b27 0C000000 		.4byte	.LVL142
 10090 0b2b CC000000 		.4byte	.LVL157
 10091 0b2f 0100     		.2byte	0x1
 10092 0b31 54       		.byte	0x54
 10093 0b32 CC000000 		.4byte	.LVL157
 10094 0b36 D0000000 		.4byte	.LFE128
 10095 0b3a 0400     		.2byte	0x4
 10096 0b3c F3       		.byte	0xf3
 10097 0b3d 01       		.uleb128 0x1
 10098 0b3e 50       		.byte	0x50
 10099 0b3f 9F       		.byte	0x9f
 10100 0b40 00000000 		.4byte	0
 10101 0b44 00000000 		.4byte	0
 10102              	.LLST76:
 10103 0b48 00000000 		.4byte	.LVL141
 10104 0b4c 27000000 		.4byte	.LVL144-1
 10105 0b50 0100     		.2byte	0x1
 10106 0b52 51       		.byte	0x51
 10107 0b53 27000000 		.4byte	.LVL144-1
 10108 0b57 44000000 		.4byte	.LVL145
ARM GAS  /tmp/ccOGUWYP.s 			page 179


 10109 0b5b 0400     		.2byte	0x4
 10110 0b5d F3       		.byte	0xf3
 10111 0b5e 01       		.uleb128 0x1
 10112 0b5f 51       		.byte	0x51
 10113 0b60 9F       		.byte	0x9f
 10114 0b61 44000000 		.4byte	.LVL145
 10115 0b65 46000000 		.4byte	.LVL146
 10116 0b69 0200     		.2byte	0x2
 10117 0b6b 74       		.byte	0x74
 10118 0b6c 28       		.sleb128 40
 10119 0b6d 46000000 		.4byte	.LVL146
 10120 0b71 CC000000 		.4byte	.LVL157
 10121 0b75 0100     		.2byte	0x1
 10122 0b77 56       		.byte	0x56
 10123 0b78 00000000 		.4byte	0
 10124 0b7c 00000000 		.4byte	0
 10125              	.LLST77:
 10126 0b80 00000000 		.4byte	.LVL141
 10127 0b84 27000000 		.4byte	.LVL144-1
 10128 0b88 0100     		.2byte	0x1
 10129 0b8a 52       		.byte	0x52
 10130 0b8b 27000000 		.4byte	.LVL144-1
 10131 0b8f 64000000 		.4byte	.LVL148
 10132 0b93 0400     		.2byte	0x4
 10133 0b95 F3       		.byte	0xf3
 10134 0b96 01       		.uleb128 0x1
 10135 0b97 52       		.byte	0x52
 10136 0b98 9F       		.byte	0x9f
 10137 0b99 64000000 		.4byte	.LVL148
 10138 0b9d 66000000 		.4byte	.LVL149
 10139 0ba1 0200     		.2byte	0x2
 10140 0ba3 74       		.byte	0x74
 10141 0ba4 2A       		.sleb128 42
 10142 0ba5 66000000 		.4byte	.LVL149
 10143 0ba9 CC000000 		.4byte	.LVL157
 10144 0bad 0100     		.2byte	0x1
 10145 0baf 57       		.byte	0x57
 10146 0bb0 00000000 		.4byte	0
 10147 0bb4 00000000 		.4byte	0
 10148              	.LLST78:
 10149 0bb8 00000000 		.4byte	.LVL141
 10150 0bbc 0E000000 		.4byte	.LVL143
 10151 0bc0 0100     		.2byte	0x1
 10152 0bc2 53       		.byte	0x53
 10153 0bc3 0E000000 		.4byte	.LVL143
 10154 0bc7 44000000 		.4byte	.LVL145
 10155 0bcb 0400     		.2byte	0x4
 10156 0bcd F3       		.byte	0xf3
 10157 0bce 01       		.uleb128 0x1
 10158 0bcf 53       		.byte	0x53
 10159 0bd0 9F       		.byte	0x9f
 10160 0bd1 44000000 		.4byte	.LVL145
 10161 0bd5 74000000 		.4byte	.LVL150
 10162 0bd9 0100     		.2byte	0x1
 10163 0bdb 55       		.byte	0x55
 10164 0bdc 80000000 		.4byte	.LVL151
 10165 0be0 9A000000 		.4byte	.LVL154
ARM GAS  /tmp/ccOGUWYP.s 			page 180


 10166 0be4 0100     		.2byte	0x1
 10167 0be6 55       		.byte	0x55
 10168 0be7 9C000000 		.4byte	.LVL155
 10169 0beb CC000000 		.4byte	.LVL157
 10170 0bef 0100     		.2byte	0x1
 10171 0bf1 55       		.byte	0x55
 10172 0bf2 00000000 		.4byte	0
 10173 0bf6 00000000 		.4byte	0
 10174              	.LLST79:
 10175 0bfa 00000000 		.4byte	.LVL141
 10176 0bfe 60000000 		.4byte	.LVL147
 10177 0c02 0200     		.2byte	0x2
 10178 0c04 91       		.byte	0x91
 10179 0c05 00       		.sleb128 0
 10180 0c06 60000000 		.4byte	.LVL147
 10181 0c0a 88000000 		.4byte	.LVL152
 10182 0c0e 0100     		.2byte	0x1
 10183 0c10 58       		.byte	0x58
 10184 0c11 92000000 		.4byte	.LVL153
 10185 0c15 CC000000 		.4byte	.LVL157
 10186 0c19 0100     		.2byte	0x1
 10187 0c1b 58       		.byte	0x58
 10188 0c1c 00000000 		.4byte	0
 10189 0c20 00000000 		.4byte	0
 10190              	.LLST80:
 10191 0c24 00000000 		.4byte	.LVL141
 10192 0c28 44000000 		.4byte	.LVL145
 10193 0c2c 0200     		.2byte	0x2
 10194 0c2e 91       		.byte	0x91
 10195 0c2f 04       		.sleb128 4
 10196 0c30 44000000 		.4byte	.LVL145
 10197 0c34 46000000 		.4byte	.LVL146
 10198 0c38 0100     		.2byte	0x1
 10199 0c3a 56       		.byte	0x56
 10200 0c3b 46000000 		.4byte	.LVL146
 10201 0c3f CC000000 		.4byte	.LVL157
 10202 0c43 0100     		.2byte	0x1
 10203 0c45 59       		.byte	0x59
 10204 0c46 00000000 		.4byte	0
 10205 0c4a 00000000 		.4byte	0
 10206              	.LLST81:
 10207 0c4e 00000000 		.4byte	.LVL141
 10208 0c52 64000000 		.4byte	.LVL148
 10209 0c56 0200     		.2byte	0x2
 10210 0c58 91       		.byte	0x91
 10211 0c59 08       		.sleb128 8
 10212 0c5a 64000000 		.4byte	.LVL148
 10213 0c5e 66000000 		.4byte	.LVL149
 10214 0c62 0100     		.2byte	0x1
 10215 0c64 52       		.byte	0x52
 10216 0c65 66000000 		.4byte	.LVL149
 10217 0c69 CC000000 		.4byte	.LVL157
 10218 0c6d 0100     		.2byte	0x1
 10219 0c6f 5B       		.byte	0x5b
 10220 0c70 00000000 		.4byte	0
 10221 0c74 00000000 		.4byte	0
 10222              	.LLST82:
ARM GAS  /tmp/ccOGUWYP.s 			page 181


 10223 0c78 00000000 		.4byte	.LVL141
 10224 0c7c CC000000 		.4byte	.LVL157
 10225 0c80 0200     		.2byte	0x2
 10226 0c82 91       		.byte	0x91
 10227 0c83 0C       		.sleb128 12
 10228 0c84 CC000000 		.4byte	.LVL157
 10229 0c88 D0000000 		.4byte	.LFE128
 10230 0c8c 0200     		.2byte	0x2
 10231 0c8e 7D       		.byte	0x7d
 10232 0c8f 0C       		.sleb128 12
 10233 0c90 00000000 		.4byte	0
 10234 0c94 00000000 		.4byte	0
 10235              	.LLST83:
 10236 0c98 00000000 		.4byte	.LVL141
 10237 0c9c CC000000 		.4byte	.LVL157
 10238 0ca0 0200     		.2byte	0x2
 10239 0ca2 91       		.byte	0x91
 10240 0ca3 10       		.sleb128 16
 10241 0ca4 CC000000 		.4byte	.LVL157
 10242 0ca8 D0000000 		.4byte	.LFE128
 10243 0cac 0200     		.2byte	0x2
 10244 0cae 7D       		.byte	0x7d
 10245 0caf 10       		.sleb128 16
 10246 0cb0 00000000 		.4byte	0
 10247 0cb4 00000000 		.4byte	0
 10248              	.LLST84:
 10249 0cb8 00000000 		.4byte	.LVL159
 10250 0cbc 0A000000 		.4byte	.LVL160
 10251 0cc0 0100     		.2byte	0x1
 10252 0cc2 50       		.byte	0x50
 10253 0cc3 0A000000 		.4byte	.LVL160
 10254 0cc7 62000000 		.4byte	.LVL166
 10255 0ccb 0100     		.2byte	0x1
 10256 0ccd 54       		.byte	0x54
 10257 0cce 62000000 		.4byte	.LVL166
 10258 0cd2 66000000 		.4byte	.LVL167
 10259 0cd6 0400     		.2byte	0x4
 10260 0cd8 F3       		.byte	0xf3
 10261 0cd9 01       		.uleb128 0x1
 10262 0cda 50       		.byte	0x50
 10263 0cdb 9F       		.byte	0x9f
 10264 0cdc 66000000 		.4byte	.LVL167
 10265 0ce0 78000000 		.4byte	.LFE129
 10266 0ce4 0100     		.2byte	0x1
 10267 0ce6 54       		.byte	0x54
 10268 0ce7 00000000 		.4byte	0
 10269 0ceb 00000000 		.4byte	0
 10270              	.LLST85:
 10271 0cef 00000000 		.4byte	.LVL159
 10272 0cf3 15000000 		.4byte	.LVL161-1
 10273 0cf7 0100     		.2byte	0x1
 10274 0cf9 51       		.byte	0x51
 10275 0cfa 15000000 		.4byte	.LVL161-1
 10276 0cfe 1A000000 		.4byte	.LVL162
 10277 0d02 0400     		.2byte	0x4
 10278 0d04 F3       		.byte	0xf3
 10279 0d05 01       		.uleb128 0x1
ARM GAS  /tmp/ccOGUWYP.s 			page 182


 10280 0d06 51       		.byte	0x51
 10281 0d07 9F       		.byte	0x9f
 10282 0d08 1A000000 		.4byte	.LVL162
 10283 0d0c 62000000 		.4byte	.LVL166
 10284 0d10 0100     		.2byte	0x1
 10285 0d12 55       		.byte	0x55
 10286 0d13 66000000 		.4byte	.LVL167
 10287 0d17 70000000 		.4byte	.LVL169
 10288 0d1b 0100     		.2byte	0x1
 10289 0d1d 55       		.byte	0x55
 10290 0d1e 70000000 		.4byte	.LVL169
 10291 0d22 74000000 		.4byte	.LVL170
 10292 0d26 0400     		.2byte	0x4
 10293 0d28 F3       		.byte	0xf3
 10294 0d29 01       		.uleb128 0x1
 10295 0d2a 51       		.byte	0x51
 10296 0d2b 9F       		.byte	0x9f
 10297 0d2c 74000000 		.4byte	.LVL170
 10298 0d30 78000000 		.4byte	.LFE129
 10299 0d34 0200     		.2byte	0x2
 10300 0d36 30       		.byte	0x30
 10301 0d37 9F       		.byte	0x9f
 10302 0d38 00000000 		.4byte	0
 10303 0d3c 00000000 		.4byte	0
 10304              	.LLST86:
 10305 0d40 00000000 		.4byte	.LVL159
 10306 0d44 15000000 		.4byte	.LVL161-1
 10307 0d48 0100     		.2byte	0x1
 10308 0d4a 52       		.byte	0x52
 10309 0d4b 15000000 		.4byte	.LVL161-1
 10310 0d4f 1E000000 		.4byte	.LVL163
 10311 0d53 0400     		.2byte	0x4
 10312 0d55 F3       		.byte	0xf3
 10313 0d56 01       		.uleb128 0x1
 10314 0d57 52       		.byte	0x52
 10315 0d58 9F       		.byte	0x9f
 10316 0d59 1E000000 		.4byte	.LVL163
 10317 0d5d 62000000 		.4byte	.LVL166
 10318 0d61 0100     		.2byte	0x1
 10319 0d63 56       		.byte	0x56
 10320 0d64 66000000 		.4byte	.LVL167
 10321 0d68 6C000000 		.4byte	.LVL168
 10322 0d6c 0400     		.2byte	0x4
 10323 0d6e F3       		.byte	0xf3
 10324 0d6f 01       		.uleb128 0x1
 10325 0d70 52       		.byte	0x52
 10326 0d71 9F       		.byte	0x9f
 10327 0d72 6C000000 		.4byte	.LVL168
 10328 0d76 70000000 		.4byte	.LVL169
 10329 0d7a 0200     		.2byte	0x2
 10330 0d7c 30       		.byte	0x30
 10331 0d7d 9F       		.byte	0x9f
 10332 0d7e 70000000 		.4byte	.LVL169
 10333 0d82 78000000 		.4byte	.LFE129
 10334 0d86 0400     		.2byte	0x4
 10335 0d88 F3       		.byte	0xf3
 10336 0d89 01       		.uleb128 0x1
ARM GAS  /tmp/ccOGUWYP.s 			page 183


 10337 0d8a 52       		.byte	0x52
 10338 0d8b 9F       		.byte	0x9f
 10339 0d8c 00000000 		.4byte	0
 10340 0d90 00000000 		.4byte	0
 10341              	.LLST87:
 10342 0d94 00000000 		.4byte	.LVL159
 10343 0d98 15000000 		.4byte	.LVL161-1
 10344 0d9c 0100     		.2byte	0x1
 10345 0d9e 53       		.byte	0x53
 10346 0d9f 15000000 		.4byte	.LVL161-1
 10347 0da3 1A000000 		.4byte	.LVL162
 10348 0da7 0400     		.2byte	0x4
 10349 0da9 F3       		.byte	0xf3
 10350 0daa 01       		.uleb128 0x1
 10351 0dab 53       		.byte	0x53
 10352 0dac 9F       		.byte	0x9f
 10353 0dad 1A000000 		.4byte	.LVL162
 10354 0db1 3A000000 		.4byte	.LVL164
 10355 0db5 0100     		.2byte	0x1
 10356 0db7 57       		.byte	0x57
 10357 0db8 66000000 		.4byte	.LVL167
 10358 0dbc 70000000 		.4byte	.LVL169
 10359 0dc0 0100     		.2byte	0x1
 10360 0dc2 57       		.byte	0x57
 10361 0dc3 70000000 		.4byte	.LVL169
 10362 0dc7 74000000 		.4byte	.LVL170
 10363 0dcb 0400     		.2byte	0x4
 10364 0dcd F3       		.byte	0xf3
 10365 0dce 01       		.uleb128 0x1
 10366 0dcf 53       		.byte	0x53
 10367 0dd0 9F       		.byte	0x9f
 10368 0dd1 74000000 		.4byte	.LVL170
 10369 0dd5 78000000 		.4byte	.LFE129
 10370 0dd9 0100     		.2byte	0x1
 10371 0ddb 57       		.byte	0x57
 10372 0ddc 00000000 		.4byte	0
 10373 0de0 00000000 		.4byte	0
 10374              	.LLST88:
 10375 0de4 00000000 		.4byte	.LVL159
 10376 0de8 1E000000 		.4byte	.LVL163
 10377 0dec 0200     		.2byte	0x2
 10378 0dee 91       		.byte	0x91
 10379 0def 00       		.sleb128 0
 10380 0df0 1E000000 		.4byte	.LVL163
 10381 0df4 3C000000 		.4byte	.LVL165
 10382 0df8 0100     		.2byte	0x1
 10383 0dfa 58       		.byte	0x58
 10384 0dfb 66000000 		.4byte	.LVL167
 10385 0dff 6C000000 		.4byte	.LVL168
 10386 0e03 0200     		.2byte	0x2
 10387 0e05 7D       		.byte	0x7d
 10388 0e06 20       		.sleb128 32
 10389 0e07 6C000000 		.4byte	.LVL168
 10390 0e0b 70000000 		.4byte	.LVL169
 10391 0e0f 0100     		.2byte	0x1
 10392 0e11 58       		.byte	0x58
 10393 0e12 70000000 		.4byte	.LVL169
ARM GAS  /tmp/ccOGUWYP.s 			page 184


 10394 0e16 78000000 		.4byte	.LFE129
 10395 0e1a 0200     		.2byte	0x2
 10396 0e1c 7D       		.byte	0x7d
 10397 0e1d 20       		.sleb128 32
 10398 0e1e 00000000 		.4byte	0
 10399 0e22 00000000 		.4byte	0
 10400              	.LLST89:
 10401 0e26 00000000 		.4byte	.LVL171
 10402 0e2a 08000000 		.4byte	.LVL172
 10403 0e2e 0100     		.2byte	0x1
 10404 0e30 50       		.byte	0x50
 10405 0e31 08000000 		.4byte	.LVL172
 10406 0e35 20000000 		.4byte	.LVL175
 10407 0e39 0100     		.2byte	0x1
 10408 0e3b 54       		.byte	0x54
 10409 0e3c 20000000 		.4byte	.LVL175
 10410 0e40 24000000 		.4byte	.LVL176
 10411 0e44 0400     		.2byte	0x4
 10412 0e46 F3       		.byte	0xf3
 10413 0e47 01       		.uleb128 0x1
 10414 0e48 50       		.byte	0x50
 10415 0e49 9F       		.byte	0x9f
 10416 0e4a 24000000 		.4byte	.LVL176
 10417 0e4e 5E000000 		.4byte	.LVL180
 10418 0e52 0100     		.2byte	0x1
 10419 0e54 54       		.byte	0x54
 10420 0e55 5E000000 		.4byte	.LVL180
 10421 0e59 62000000 		.4byte	.LVL181
 10422 0e5d 0400     		.2byte	0x4
 10423 0e5f F3       		.byte	0xf3
 10424 0e60 01       		.uleb128 0x1
 10425 0e61 50       		.byte	0x50
 10426 0e62 9F       		.byte	0x9f
 10427 0e63 62000000 		.4byte	.LVL181
 10428 0e67 76000000 		.4byte	.LFE130
 10429 0e6b 0100     		.2byte	0x1
 10430 0e6d 54       		.byte	0x54
 10431 0e6e 00000000 		.4byte	0
 10432 0e72 00000000 		.4byte	0
 10433              	.LLST90:
 10434 0e76 00000000 		.4byte	.LVL171
 10435 0e7a 0D000000 		.4byte	.LVL173-1
 10436 0e7e 0100     		.2byte	0x1
 10437 0e80 51       		.byte	0x51
 10438 0e81 0D000000 		.4byte	.LVL173-1
 10439 0e85 20000000 		.4byte	.LVL175
 10440 0e89 0100     		.2byte	0x1
 10441 0e8b 55       		.byte	0x55
 10442 0e8c 20000000 		.4byte	.LVL175
 10443 0e90 24000000 		.4byte	.LVL176
 10444 0e94 0400     		.2byte	0x4
 10445 0e96 F3       		.byte	0xf3
 10446 0e97 01       		.uleb128 0x1
 10447 0e98 51       		.byte	0x51
 10448 0e99 9F       		.byte	0x9f
 10449 0e9a 24000000 		.4byte	.LVL176
 10450 0e9e 5E000000 		.4byte	.LVL180
ARM GAS  /tmp/ccOGUWYP.s 			page 185


 10451 0ea2 0100     		.2byte	0x1
 10452 0ea4 55       		.byte	0x55
 10453 0ea5 5E000000 		.4byte	.LVL180
 10454 0ea9 62000000 		.4byte	.LVL181
 10455 0ead 0400     		.2byte	0x4
 10456 0eaf F3       		.byte	0xf3
 10457 0eb0 01       		.uleb128 0x1
 10458 0eb1 51       		.byte	0x51
 10459 0eb2 9F       		.byte	0x9f
 10460 0eb3 62000000 		.4byte	.LVL181
 10461 0eb7 76000000 		.4byte	.LFE130
 10462 0ebb 0100     		.2byte	0x1
 10463 0ebd 55       		.byte	0x55
 10464 0ebe 00000000 		.4byte	0
 10465 0ec2 00000000 		.4byte	0
 10466              	.LLST91:
 10467 0ec6 00000000 		.4byte	.LVL171
 10468 0eca 0D000000 		.4byte	.LVL173-1
 10469 0ece 0100     		.2byte	0x1
 10470 0ed0 52       		.byte	0x52
 10471 0ed1 0D000000 		.4byte	.LVL173-1
 10472 0ed5 20000000 		.4byte	.LVL175
 10473 0ed9 0100     		.2byte	0x1
 10474 0edb 56       		.byte	0x56
 10475 0edc 20000000 		.4byte	.LVL175
 10476 0ee0 24000000 		.4byte	.LVL176
 10477 0ee4 0400     		.2byte	0x4
 10478 0ee6 F3       		.byte	0xf3
 10479 0ee7 01       		.uleb128 0x1
 10480 0ee8 52       		.byte	0x52
 10481 0ee9 9F       		.byte	0x9f
 10482 0eea 24000000 		.4byte	.LVL176
 10483 0eee 26000000 		.4byte	.LVL177
 10484 0ef2 0100     		.2byte	0x1
 10485 0ef4 56       		.byte	0x56
 10486 0ef5 26000000 		.4byte	.LVL177
 10487 0ef9 46000000 		.4byte	.LVL178
 10488 0efd 0300     		.2byte	0x3
 10489 0eff 74       		.byte	0x74
 10490 0f00 C400     		.sleb128 68
 10491 0f02 46000000 		.4byte	.LVL178
 10492 0f06 62000000 		.4byte	.LVL181
 10493 0f0a 0400     		.2byte	0x4
 10494 0f0c F3       		.byte	0xf3
 10495 0f0d 01       		.uleb128 0x1
 10496 0f0e 52       		.byte	0x52
 10497 0f0f 9F       		.byte	0x9f
 10498 0f10 62000000 		.4byte	.LVL181
 10499 0f14 74000000 		.4byte	.LVL182
 10500 0f18 0300     		.2byte	0x3
 10501 0f1a 74       		.byte	0x74
 10502 0f1b C400     		.sleb128 68
 10503 0f1d 74000000 		.4byte	.LVL182
 10504 0f21 76000000 		.4byte	.LFE130
 10505 0f25 0400     		.2byte	0x4
 10506 0f27 F3       		.byte	0xf3
 10507 0f28 01       		.uleb128 0x1
ARM GAS  /tmp/ccOGUWYP.s 			page 186


 10508 0f29 52       		.byte	0x52
 10509 0f2a 9F       		.byte	0x9f
 10510 0f2b 00000000 		.4byte	0
 10511 0f2f 00000000 		.4byte	0
 10512              	.LLST92:
 10513 0f33 00000000 		.4byte	.LVL183
 10514 0f37 C2000000 		.4byte	.LVL198
 10515 0f3b 0600     		.2byte	0x6
 10516 0f3d 03       		.byte	0x3
 10517 0f3e 00000000 		.4byte	GDisplayArray
 10518 0f42 9F       		.byte	0x9f
 10519 0f43 C2000000 		.4byte	.LVL198
 10520 0f47 CA000000 		.4byte	.LVL199
 10521 0f4b 0600     		.2byte	0x6
 10522 0f4d 03       		.byte	0x3
 10523 0f4e 58000000 		.4byte	GDisplayArray+88
 10524 0f52 9F       		.byte	0x9f
 10525 0f53 CA000000 		.4byte	.LVL199
 10526 0f57 F4000000 		.4byte	.LFE119
 10527 0f5b 0600     		.2byte	0x6
 10528 0f5d 03       		.byte	0x3
 10529 0f5e 00000000 		.4byte	GDisplayArray
 10530 0f62 9F       		.byte	0x9f
 10531 0f63 00000000 		.4byte	0
 10532 0f67 00000000 		.4byte	0
 10533              	.LLST93:
 10534 0f6b 00000000 		.4byte	.LVL183
 10535 0f6f C2000000 		.4byte	.LVL198
 10536 0f73 0200     		.2byte	0x2
 10537 0f75 30       		.byte	0x30
 10538 0f76 9F       		.byte	0x9f
 10539 0f77 C2000000 		.4byte	.LVL198
 10540 0f7b CA000000 		.4byte	.LVL199
 10541 0f7f 0200     		.2byte	0x2
 10542 0f81 31       		.byte	0x31
 10543 0f82 9F       		.byte	0x9f
 10544 0f83 CA000000 		.4byte	.LVL199
 10545 0f87 F4000000 		.4byte	.LFE119
 10546 0f8b 0200     		.2byte	0x2
 10547 0f8d 30       		.byte	0x30
 10548 0f8e 9F       		.byte	0x9f
 10549 0f8f 00000000 		.4byte	0
 10550 0f93 00000000 		.4byte	0
 10551              	.LLST94:
 10552 0f97 72000000 		.4byte	.LVL193
 10553 0f9b 92000000 		.4byte	.LVL195
 10554 0f9f 1100     		.2byte	0x11
 10555 0fa1 03       		.byte	0x3
 10556 0fa2 00000000 		.4byte	GDisplayArray
 10557 0fa6 94       		.byte	0x94
 10558 0fa7 02       		.byte	0x2
 10559 0fa8 40       		.byte	0x40
 10560 0fa9 24       		.byte	0x24
 10561 0faa 40       		.byte	0x40
 10562 0fab 26       		.byte	0x26
 10563 0fac 71       		.byte	0x71
 10564 0fad 00       		.sleb128 0
ARM GAS  /tmp/ccOGUWYP.s 			page 187


 10565 0fae 22       		.byte	0x22
 10566 0faf 32       		.byte	0x32
 10567 0fb0 1B       		.byte	0x1b
 10568 0fb1 9F       		.byte	0x9f
 10569 0fb2 00000000 		.4byte	0
 10570 0fb6 00000000 		.4byte	0
 10571              	.LLST95:
 10572 0fba 72000000 		.4byte	.LVL193
 10573 0fbe 7A000000 		.4byte	.LVL194
 10574 0fc2 1100     		.2byte	0x11
 10575 0fc4 03       		.byte	0x3
 10576 0fc5 02000000 		.4byte	GDisplayArray+2
 10577 0fc9 94       		.byte	0x94
 10578 0fca 02       		.byte	0x2
 10579 0fcb 40       		.byte	0x40
 10580 0fcc 24       		.byte	0x24
 10581 0fcd 40       		.byte	0x40
 10582 0fce 26       		.byte	0x26
 10583 0fcf 79       		.byte	0x79
 10584 0fd0 00       		.sleb128 0
 10585 0fd1 22       		.byte	0x22
 10586 0fd2 32       		.byte	0x32
 10587 0fd3 1B       		.byte	0x1b
 10588 0fd4 9F       		.byte	0x9f
 10589 0fd5 00000000 		.4byte	0
 10590 0fd9 00000000 		.4byte	0
 10591              	.LLST96:
 10592 0fdd 64000000 		.4byte	.LVL191
 10593 0fe1 6A000000 		.4byte	.LVL192
 10594 0fe5 0100     		.2byte	0x1
 10595 0fe7 55       		.byte	0x55
 10596 0fe8 6A000000 		.4byte	.LVL192
 10597 0fec 72000000 		.4byte	.LVL193
 10598 0ff0 1400     		.2byte	0x14
 10599 0ff2 78       		.byte	0x78
 10600 0ff3 3F       		.sleb128 63
 10601 0ff4 78       		.byte	0x78
 10602 0ff5 00       		.sleb128 0
 10603 0ff6 78       		.byte	0x78
 10604 0ff7 00       		.sleb128 0
 10605 0ff8 30       		.byte	0x30
 10606 0ff9 2D       		.byte	0x2d
 10607 0ffa 28       		.byte	0x28
 10608 0ffb 0100     		.2byte	0x1
 10609 0ffd 16       		.byte	0x16
 10610 0ffe 13       		.byte	0x13
 10611 0fff 09       		.byte	0x9
 10612 1000 EE       		.byte	0xee
 10613 1001 24       		.byte	0x24
 10614 1002 09       		.byte	0x9
 10615 1003 F4       		.byte	0xf4
 10616 1004 25       		.byte	0x25
 10617 1005 9F       		.byte	0x9f
 10618 1006 D8000000 		.4byte	.LVL201
 10619 100a E4000000 		.4byte	.LVL202
 10620 100e 0100     		.2byte	0x1
 10621 1010 55       		.byte	0x55
ARM GAS  /tmp/ccOGUWYP.s 			page 188


 10622 1011 E4000000 		.4byte	.LVL202
 10623 1015 F4000000 		.4byte	.LFE119
 10624 1019 1400     		.2byte	0x14
 10625 101b 78       		.byte	0x78
 10626 101c 3F       		.sleb128 63
 10627 101d 78       		.byte	0x78
 10628 101e 00       		.sleb128 0
 10629 101f 78       		.byte	0x78
 10630 1020 00       		.sleb128 0
 10631 1021 30       		.byte	0x30
 10632 1022 2D       		.byte	0x2d
 10633 1023 28       		.byte	0x28
 10634 1024 0100     		.2byte	0x1
 10635 1026 16       		.byte	0x16
 10636 1027 13       		.byte	0x13
 10637 1028 09       		.byte	0x9
 10638 1029 EE       		.byte	0xee
 10639 102a 24       		.byte	0x24
 10640 102b 09       		.byte	0x9
 10641 102c F4       		.byte	0xf4
 10642 102d 25       		.byte	0x25
 10643 102e 9F       		.byte	0x9f
 10644 102f 00000000 		.4byte	0
 10645 1033 00000000 		.4byte	0
 10646              	.LLST97:
 10647 1037 72000000 		.4byte	.LVL193
 10648 103b 92000000 		.4byte	.LVL195
 10649 103f 0600     		.2byte	0x6
 10650 1041 03       		.byte	0x3
 10651 1042 00000000 		.4byte	blks.7903
 10652 1046 9F       		.byte	0x9f
 10653 1047 92000000 		.4byte	.LVL195
 10654 104b B8000000 		.4byte	.LVL196
 10655 104f 0100     		.2byte	0x1
 10656 1051 54       		.byte	0x54
 10657 1052 B8000000 		.4byte	.LVL196
 10658 1056 BE000000 		.4byte	.LVL197
 10659 105a 0300     		.2byte	0x3
 10660 105c 74       		.byte	0x74
 10661 105d 78       		.sleb128 -8
 10662 105e 9F       		.byte	0x9f
 10663 105f BE000000 		.4byte	.LVL197
 10664 1063 D4000000 		.4byte	.LVL200
 10665 1067 0100     		.2byte	0x1
 10666 1069 54       		.byte	0x54
 10667 106a 00000000 		.4byte	0
 10668 106e 00000000 		.4byte	0
 10669              	.LLST98:
 10670 1072 00000000 		.4byte	.LVL203
 10671 1076 28000000 		.4byte	.LVL207
 10672 107a 0100     		.2byte	0x1
 10673 107c 50       		.byte	0x50
 10674 107d 28000000 		.4byte	.LVL207
 10675 1081 72000000 		.4byte	.LVL213
 10676 1085 0100     		.2byte	0x1
 10677 1087 54       		.byte	0x54
 10678 1088 72000000 		.4byte	.LVL213
ARM GAS  /tmp/ccOGUWYP.s 			page 189


 10679 108c 76000000 		.4byte	.LVL214
 10680 1090 0400     		.2byte	0x4
 10681 1092 F3       		.byte	0xf3
 10682 1093 01       		.uleb128 0x1
 10683 1094 50       		.byte	0x50
 10684 1095 9F       		.byte	0x9f
 10685 1096 76000000 		.4byte	.LVL214
 10686 109a AA000000 		.4byte	.LVL219
 10687 109e 0100     		.2byte	0x1
 10688 10a0 54       		.byte	0x54
 10689 10a1 AA000000 		.4byte	.LVL219
 10690 10a5 AE000000 		.4byte	.LVL220
 10691 10a9 0400     		.2byte	0x4
 10692 10ab F3       		.byte	0xf3
 10693 10ac 01       		.uleb128 0x1
 10694 10ad 50       		.byte	0x50
 10695 10ae 9F       		.byte	0x9f
 10696 10af AE000000 		.4byte	.LVL220
 10697 10b3 B2000000 		.4byte	.LVL221
 10698 10b7 0100     		.2byte	0x1
 10699 10b9 50       		.byte	0x50
 10700 10ba B2000000 		.4byte	.LVL221
 10701 10be E4000000 		.4byte	.LFE131
 10702 10c2 0100     		.2byte	0x1
 10703 10c4 54       		.byte	0x54
 10704 10c5 00000000 		.4byte	0
 10705 10c9 00000000 		.4byte	0
 10706              	.LLST99:
 10707 10cd 00000000 		.4byte	.LVL203
 10708 10d1 2F000000 		.4byte	.LVL208-1
 10709 10d5 0100     		.2byte	0x1
 10710 10d7 51       		.byte	0x51
 10711 10d8 2F000000 		.4byte	.LVL208-1
 10712 10dc AE000000 		.4byte	.LVL220
 10713 10e0 0400     		.2byte	0x4
 10714 10e2 F3       		.byte	0xf3
 10715 10e3 01       		.uleb128 0x1
 10716 10e4 51       		.byte	0x51
 10717 10e5 9F       		.byte	0x9f
 10718 10e6 AE000000 		.4byte	.LVL220
 10719 10ea B2000000 		.4byte	.LVL221
 10720 10ee 0100     		.2byte	0x1
 10721 10f0 51       		.byte	0x51
 10722 10f1 B2000000 		.4byte	.LVL221
 10723 10f5 E4000000 		.4byte	.LFE131
 10724 10f9 0400     		.2byte	0x4
 10725 10fb F3       		.byte	0xf3
 10726 10fc 01       		.uleb128 0x1
 10727 10fd 51       		.byte	0x51
 10728 10fe 9F       		.byte	0x9f
 10729 10ff 00000000 		.4byte	0
 10730 1103 00000000 		.4byte	0
 10731              	.LLST100:
 10732 1107 00000000 		.4byte	.LVL203
 10733 110b 10000000 		.4byte	.LVL205
 10734 110f 0100     		.2byte	0x1
 10735 1111 52       		.byte	0x52
ARM GAS  /tmp/ccOGUWYP.s 			page 190


 10736 1112 10000000 		.4byte	.LVL205
 10737 1116 68000000 		.4byte	.LVL212
 10738 111a 0400     		.2byte	0x4
 10739 111c F3       		.byte	0xf3
 10740 111d 01       		.uleb128 0x1
 10741 111e 52       		.byte	0x52
 10742 111f 9F       		.byte	0x9f
 10743 1120 76000000 		.4byte	.LVL214
 10744 1124 98000000 		.4byte	.LVL217
 10745 1128 0400     		.2byte	0x4
 10746 112a F3       		.byte	0xf3
 10747 112b 01       		.uleb128 0x1
 10748 112c 52       		.byte	0x52
 10749 112d 9F       		.byte	0x9f
 10750 112e AE000000 		.4byte	.LVL220
 10751 1132 BE000000 		.4byte	.LVL222
 10752 1136 0400     		.2byte	0x4
 10753 1138 F3       		.byte	0xf3
 10754 1139 01       		.uleb128 0x1
 10755 113a 52       		.byte	0x52
 10756 113b 9F       		.byte	0x9f
 10757 113c BE000000 		.4byte	.LVL222
 10758 1140 E4000000 		.4byte	.LFE131
 10759 1144 0100     		.2byte	0x1
 10760 1146 59       		.byte	0x59
 10761 1147 00000000 		.4byte	0
 10762 114b 00000000 		.4byte	0
 10763              	.LLST101:
 10764 114f 00000000 		.4byte	.LVL203
 10765 1153 06000000 		.4byte	.LVL204
 10766 1157 0100     		.2byte	0x1
 10767 1159 53       		.byte	0x53
 10768 115a 06000000 		.4byte	.LVL204
 10769 115e 26000000 		.4byte	.LVL206
 10770 1162 0400     		.2byte	0x4
 10771 1164 F3       		.byte	0xf3
 10772 1165 01       		.uleb128 0x1
 10773 1166 53       		.byte	0x53
 10774 1167 9F       		.byte	0x9f
 10775 1168 26000000 		.4byte	.LVL206
 10776 116c 72000000 		.4byte	.LVL213
 10777 1170 0100     		.2byte	0x1
 10778 1172 57       		.byte	0x57
 10779 1173 76000000 		.4byte	.LVL214
 10780 1177 AA000000 		.4byte	.LVL219
 10781 117b 0100     		.2byte	0x1
 10782 117d 57       		.byte	0x57
 10783 117e AE000000 		.4byte	.LVL220
 10784 1182 B2000000 		.4byte	.LVL221
 10785 1186 0400     		.2byte	0x4
 10786 1188 F3       		.byte	0xf3
 10787 1189 01       		.uleb128 0x1
 10788 118a 53       		.byte	0x53
 10789 118b 9F       		.byte	0x9f
 10790 118c B2000000 		.4byte	.LVL221
 10791 1190 E4000000 		.4byte	.LFE131
 10792 1194 0100     		.2byte	0x1
ARM GAS  /tmp/ccOGUWYP.s 			page 191


 10793 1196 57       		.byte	0x57
 10794 1197 00000000 		.4byte	0
 10795 119b 00000000 		.4byte	0
 10796              	.LLST102:
 10797 119f 00000000 		.4byte	.LVL203
 10798 11a3 3C000000 		.4byte	.LVL209
 10799 11a7 0200     		.2byte	0x2
 10800 11a9 91       		.byte	0x91
 10801 11aa 00       		.sleb128 0
 10802 11ab 3C000000 		.4byte	.LVL209
 10803 11af 68000000 		.4byte	.LVL212
 10804 11b3 0100     		.2byte	0x1
 10805 11b5 5B       		.byte	0x5b
 10806 11b6 76000000 		.4byte	.LVL214
 10807 11ba 98000000 		.4byte	.LVL217
 10808 11be 0100     		.2byte	0x1
 10809 11c0 5B       		.byte	0x5b
 10810 11c1 AE000000 		.4byte	.LVL220
 10811 11c5 B2000000 		.4byte	.LVL221
 10812 11c9 0200     		.2byte	0x2
 10813 11cb 7D       		.byte	0x7d
 10814 11cc 28       		.sleb128 40
 10815 11cd B2000000 		.4byte	.LVL221
 10816 11d1 C2000000 		.4byte	.LVL223
 10817 11d5 0100     		.2byte	0x1
 10818 11d7 5B       		.byte	0x5b
 10819 11d8 C2000000 		.4byte	.LVL223
 10820 11dc E4000000 		.4byte	.LFE131
 10821 11e0 0100     		.2byte	0x1
 10822 11e2 5A       		.byte	0x5a
 10823 11e3 00000000 		.4byte	0
 10824 11e7 00000000 		.4byte	0
 10825              	.LLST103:
 10826 11eb 00000000 		.4byte	.LVL203
 10827 11ef 72000000 		.4byte	.LVL213
 10828 11f3 0200     		.2byte	0x2
 10829 11f5 91       		.byte	0x91
 10830 11f6 04       		.sleb128 4
 10831 11f7 72000000 		.4byte	.LVL213
 10832 11fb 76000000 		.4byte	.LVL214
 10833 11ff 0200     		.2byte	0x2
 10834 1201 7D       		.byte	0x7d
 10835 1202 04       		.sleb128 4
 10836 1203 76000000 		.4byte	.LVL214
 10837 1207 AA000000 		.4byte	.LVL219
 10838 120b 0200     		.2byte	0x2
 10839 120d 7D       		.byte	0x7d
 10840 120e 2C       		.sleb128 44
 10841 120f AA000000 		.4byte	.LVL219
 10842 1213 AE000000 		.4byte	.LVL220
 10843 1217 0200     		.2byte	0x2
 10844 1219 7D       		.byte	0x7d
 10845 121a 04       		.sleb128 4
 10846 121b AE000000 		.4byte	.LVL220
 10847 121f E4000000 		.4byte	.LFE131
 10848 1223 0200     		.2byte	0x2
 10849 1225 7D       		.byte	0x7d
ARM GAS  /tmp/ccOGUWYP.s 			page 192


 10850 1226 2C       		.sleb128 44
 10851 1227 00000000 		.4byte	0
 10852 122b 00000000 		.4byte	0
 10853              	.LLST104:
 10854 122f 00000000 		.4byte	.LVL226
 10855 1233 16000000 		.4byte	.LVL227
 10856 1237 0100     		.2byte	0x1
 10857 1239 50       		.byte	0x50
 10858 123a 16000000 		.4byte	.LVL227
 10859 123e 6E000000 		.4byte	.LVL232
 10860 1242 0100     		.2byte	0x1
 10861 1244 54       		.byte	0x54
 10862 1245 6E000000 		.4byte	.LVL232
 10863 1249 78000000 		.4byte	.LFE135
 10864 124d 0400     		.2byte	0x4
 10865 124f F3       		.byte	0xf3
 10866 1250 01       		.uleb128 0x1
 10867 1251 50       		.byte	0x50
 10868 1252 9F       		.byte	0x9f
 10869 1253 00000000 		.4byte	0
 10870 1257 00000000 		.4byte	0
 10871              	.LLST105:
 10872 125b 00000000 		.4byte	.LVL226
 10873 125f 19000000 		.4byte	.LVL228-1
 10874 1263 0100     		.2byte	0x1
 10875 1265 51       		.byte	0x51
 10876 1266 19000000 		.4byte	.LVL228-1
 10877 126a 78000000 		.4byte	.LFE135
 10878 126e 0400     		.2byte	0x4
 10879 1270 F3       		.byte	0xf3
 10880 1271 01       		.uleb128 0x1
 10881 1272 51       		.byte	0x51
 10882 1273 9F       		.byte	0x9f
 10883 1274 00000000 		.4byte	0
 10884 1278 00000000 		.4byte	0
 10885              	.LLST106:
 10886 127c 00000000 		.4byte	.LVL226
 10887 1280 19000000 		.4byte	.LVL228-1
 10888 1284 0100     		.2byte	0x1
 10889 1286 52       		.byte	0x52
 10890 1287 19000000 		.4byte	.LVL228-1
 10891 128b 78000000 		.4byte	.LFE135
 10892 128f 0400     		.2byte	0x4
 10893 1291 F3       		.byte	0xf3
 10894 1292 01       		.uleb128 0x1
 10895 1293 52       		.byte	0x52
 10896 1294 9F       		.byte	0x9f
 10897 1295 00000000 		.4byte	0
 10898 1299 00000000 		.4byte	0
 10899              	.LLST107:
 10900 129d 00000000 		.4byte	.LVL226
 10901 12a1 19000000 		.4byte	.LVL228-1
 10902 12a5 0100     		.2byte	0x1
 10903 12a7 53       		.byte	0x53
 10904 12a8 19000000 		.4byte	.LVL228-1
 10905 12ac 78000000 		.4byte	.LFE135
 10906 12b0 0400     		.2byte	0x4
ARM GAS  /tmp/ccOGUWYP.s 			page 193


 10907 12b2 F3       		.byte	0xf3
 10908 12b3 01       		.uleb128 0x1
 10909 12b4 53       		.byte	0x53
 10910 12b5 9F       		.byte	0x9f
 10911 12b6 00000000 		.4byte	0
 10912 12ba 00000000 		.4byte	0
 10913              	.LLST108:
 10914 12be 00000000 		.4byte	.LVL226
 10915 12c2 6E000000 		.4byte	.LVL232
 10916 12c6 0200     		.2byte	0x2
 10917 12c8 91       		.byte	0x91
 10918 12c9 00       		.sleb128 0
 10919 12ca 6E000000 		.4byte	.LVL232
 10920 12ce 78000000 		.4byte	.LFE135
 10921 12d2 0200     		.2byte	0x2
 10922 12d4 7D       		.byte	0x7d
 10923 12d5 00       		.sleb128 0
 10924 12d6 00000000 		.4byte	0
 10925 12da 00000000 		.4byte	0
 10926              	.LLST109:
 10927 12de 00000000 		.4byte	.LVL226
 10928 12e2 6E000000 		.4byte	.LVL232
 10929 12e6 0200     		.2byte	0x2
 10930 12e8 91       		.byte	0x91
 10931 12e9 04       		.sleb128 4
 10932 12ea 6E000000 		.4byte	.LVL232
 10933 12ee 78000000 		.4byte	.LFE135
 10934 12f2 0200     		.2byte	0x2
 10935 12f4 7D       		.byte	0x7d
 10936 12f5 04       		.sleb128 4
 10937 12f6 00000000 		.4byte	0
 10938 12fa 00000000 		.4byte	0
 10939              	.LLST110:
 10940 12fe 00000000 		.4byte	.LVL234
 10941 1302 0E000000 		.4byte	.LVL235
 10942 1306 0100     		.2byte	0x1
 10943 1308 50       		.byte	0x50
 10944 1309 0E000000 		.4byte	.LVL235
 10945 130d 00010000 		.4byte	.LVL242
 10946 1311 0100     		.2byte	0x1
 10947 1313 54       		.byte	0x54
 10948 1314 00010000 		.4byte	.LVL242
 10949 1318 04010000 		.4byte	.LVL243
 10950 131c 0400     		.2byte	0x4
 10951 131e F3       		.byte	0xf3
 10952 131f 01       		.uleb128 0x1
 10953 1320 50       		.byte	0x50
 10954 1321 9F       		.byte	0x9f
 10955 1322 04010000 		.4byte	.LVL243
 10956 1326 18010000 		.4byte	.LFE136
 10957 132a 0100     		.2byte	0x1
 10958 132c 54       		.byte	0x54
 10959 132d 00000000 		.4byte	0
 10960 1331 00000000 		.4byte	0
 10961              	.LLST111:
 10962 1335 00000000 		.4byte	.LVL234
 10963 1339 1D000000 		.4byte	.LVL236-1
ARM GAS  /tmp/ccOGUWYP.s 			page 194


 10964 133d 0100     		.2byte	0x1
 10965 133f 51       		.byte	0x51
 10966 1340 1D000000 		.4byte	.LVL236-1
 10967 1344 18010000 		.4byte	.LFE136
 10968 1348 0400     		.2byte	0x4
 10969 134a F3       		.byte	0xf3
 10970 134b 01       		.uleb128 0x1
 10971 134c 51       		.byte	0x51
 10972 134d 9F       		.byte	0x9f
 10973 134e 00000000 		.4byte	0
 10974 1352 00000000 		.4byte	0
 10975              	.LLST112:
 10976 1356 00000000 		.4byte	.LVL234
 10977 135a 1D000000 		.4byte	.LVL236-1
 10978 135e 0100     		.2byte	0x1
 10979 1360 52       		.byte	0x52
 10980 1361 1D000000 		.4byte	.LVL236-1
 10981 1365 18010000 		.4byte	.LFE136
 10982 1369 0400     		.2byte	0x4
 10983 136b F3       		.byte	0xf3
 10984 136c 01       		.uleb128 0x1
 10985 136d 52       		.byte	0x52
 10986 136e 9F       		.byte	0x9f
 10987 136f 00000000 		.4byte	0
 10988 1373 00000000 		.4byte	0
 10989              	.LLST113:
 10990 1377 00000000 		.4byte	.LVL234
 10991 137b 1D000000 		.4byte	.LVL236-1
 10992 137f 0100     		.2byte	0x1
 10993 1381 53       		.byte	0x53
 10994 1382 1D000000 		.4byte	.LVL236-1
 10995 1386 18010000 		.4byte	.LFE136
 10996 138a 0400     		.2byte	0x4
 10997 138c F3       		.byte	0xf3
 10998 138d 01       		.uleb128 0x1
 10999 138e 53       		.byte	0x53
 11000 138f 9F       		.byte	0x9f
 11001 1390 00000000 		.4byte	0
 11002 1394 00000000 		.4byte	0
 11003              	.LLST114:
 11004 1398 00000000 		.4byte	.LVL234
 11005 139c 00010000 		.4byte	.LVL242
 11006 13a0 0200     		.2byte	0x2
 11007 13a2 91       		.byte	0x91
 11008 13a3 00       		.sleb128 0
 11009 13a4 00010000 		.4byte	.LVL242
 11010 13a8 04010000 		.4byte	.LVL243
 11011 13ac 0200     		.2byte	0x2
 11012 13ae 7D       		.byte	0x7d
 11013 13af 00       		.sleb128 0
 11014 13b0 04010000 		.4byte	.LVL243
 11015 13b4 18010000 		.4byte	.LFE136
 11016 13b8 0200     		.2byte	0x2
 11017 13ba 91       		.byte	0x91
 11018 13bb 00       		.sleb128 0
 11019 13bc 00000000 		.4byte	0
 11020 13c0 00000000 		.4byte	0
ARM GAS  /tmp/ccOGUWYP.s 			page 195


 11021              	.LLST115:
 11022 13c4 00000000 		.4byte	.LVL234
 11023 13c8 00010000 		.4byte	.LVL242
 11024 13cc 0200     		.2byte	0x2
 11025 13ce 91       		.byte	0x91
 11026 13cf 04       		.sleb128 4
 11027 13d0 00010000 		.4byte	.LVL242
 11028 13d4 04010000 		.4byte	.LVL243
 11029 13d8 0200     		.2byte	0x2
 11030 13da 7D       		.byte	0x7d
 11031 13db 04       		.sleb128 4
 11032 13dc 04010000 		.4byte	.LVL243
 11033 13e0 18010000 		.4byte	.LFE136
 11034 13e4 0200     		.2byte	0x2
 11035 13e6 91       		.byte	0x91
 11036 13e7 04       		.sleb128 4
 11037 13e8 00000000 		.4byte	0
 11038 13ec 00000000 		.4byte	0
 11039              	.LLST116:
 11040 13f0 00000000 		.4byte	.LVL234
 11041 13f4 00010000 		.4byte	.LVL242
 11042 13f8 0200     		.2byte	0x2
 11043 13fa 91       		.byte	0x91
 11044 13fb 08       		.sleb128 8
 11045 13fc 00010000 		.4byte	.LVL242
 11046 1400 04010000 		.4byte	.LVL243
 11047 1404 0200     		.2byte	0x2
 11048 1406 7D       		.byte	0x7d
 11049 1407 08       		.sleb128 8
 11050 1408 04010000 		.4byte	.LVL243
 11051 140c 18010000 		.4byte	.LFE136
 11052 1410 0200     		.2byte	0x2
 11053 1412 91       		.byte	0x91
 11054 1413 08       		.sleb128 8
 11055 1414 00000000 		.4byte	0
 11056 1418 00000000 		.4byte	0
 11057              	.LLST117:
 11058 141c CA000000 		.4byte	.LVL238
 11059 1420 E6000000 		.4byte	.LVL240
 11060 1424 0100     		.2byte	0x1
 11061 1426 54       		.byte	0x54
 11062 1427 00000000 		.4byte	0
 11063 142b 00000000 		.4byte	0
 11064              	.LLST118:
 11065 142f 00000000 		.4byte	.LVL244
 11066 1433 10000000 		.4byte	.LVL245
 11067 1437 0100     		.2byte	0x1
 11068 1439 50       		.byte	0x50
 11069 143a 10000000 		.4byte	.LVL245
 11070 143e 80000000 		.4byte	.LVL250
 11071 1442 0100     		.2byte	0x1
 11072 1444 54       		.byte	0x54
 11073 1445 80000000 		.4byte	.LVL250
 11074 1449 88000000 		.4byte	.LFE137
 11075 144d 0400     		.2byte	0x4
 11076 144f F3       		.byte	0xf3
 11077 1450 01       		.uleb128 0x1
ARM GAS  /tmp/ccOGUWYP.s 			page 196


 11078 1451 50       		.byte	0x50
 11079 1452 9F       		.byte	0x9f
 11080 1453 00000000 		.4byte	0
 11081 1457 00000000 		.4byte	0
 11082              	.LLST119:
 11083 145b 00000000 		.4byte	.LVL244
 11084 145f 19000000 		.4byte	.LVL246-1
 11085 1463 0100     		.2byte	0x1
 11086 1465 51       		.byte	0x51
 11087 1466 19000000 		.4byte	.LVL246-1
 11088 146a 88000000 		.4byte	.LFE137
 11089 146e 0400     		.2byte	0x4
 11090 1470 F3       		.byte	0xf3
 11091 1471 01       		.uleb128 0x1
 11092 1472 51       		.byte	0x51
 11093 1473 9F       		.byte	0x9f
 11094 1474 00000000 		.4byte	0
 11095 1478 00000000 		.4byte	0
 11096              	.LLST120:
 11097 147c 00000000 		.4byte	.LVL244
 11098 1480 19000000 		.4byte	.LVL246-1
 11099 1484 0100     		.2byte	0x1
 11100 1486 52       		.byte	0x52
 11101 1487 19000000 		.4byte	.LVL246-1
 11102 148b 88000000 		.4byte	.LFE137
 11103 148f 0400     		.2byte	0x4
 11104 1491 F3       		.byte	0xf3
 11105 1492 01       		.uleb128 0x1
 11106 1493 52       		.byte	0x52
 11107 1494 9F       		.byte	0x9f
 11108 1495 00000000 		.4byte	0
 11109 1499 00000000 		.4byte	0
 11110              	.LLST121:
 11111 149d 00000000 		.4byte	.LVL244
 11112 14a1 19000000 		.4byte	.LVL246-1
 11113 14a5 0100     		.2byte	0x1
 11114 14a7 53       		.byte	0x53
 11115 14a8 19000000 		.4byte	.LVL246-1
 11116 14ac 80000000 		.4byte	.LVL250
 11117 14b0 0100     		.2byte	0x1
 11118 14b2 57       		.byte	0x57
 11119 14b3 80000000 		.4byte	.LVL250
 11120 14b7 88000000 		.4byte	.LFE137
 11121 14bb 0400     		.2byte	0x4
 11122 14bd F3       		.byte	0xf3
 11123 14be 01       		.uleb128 0x1
 11124 14bf 53       		.byte	0x53
 11125 14c0 9F       		.byte	0x9f
 11126 14c1 00000000 		.4byte	0
 11127 14c5 00000000 		.4byte	0
 11128              	.LLST122:
 11129 14c9 00000000 		.4byte	.LVL244
 11130 14cd 80000000 		.4byte	.LVL250
 11131 14d1 0200     		.2byte	0x2
 11132 14d3 91       		.byte	0x91
 11133 14d4 00       		.sleb128 0
 11134 14d5 80000000 		.4byte	.LVL250
ARM GAS  /tmp/ccOGUWYP.s 			page 197


 11135 14d9 88000000 		.4byte	.LFE137
 11136 14dd 0200     		.2byte	0x2
 11137 14df 7D       		.byte	0x7d
 11138 14e0 00       		.sleb128 0
 11139 14e1 00000000 		.4byte	0
 11140 14e5 00000000 		.4byte	0
 11141              	.LLST123:
 11142 14e9 00000000 		.4byte	.LVL244
 11143 14ed 80000000 		.4byte	.LVL250
 11144 14f1 0200     		.2byte	0x2
 11145 14f3 91       		.byte	0x91
 11146 14f4 04       		.sleb128 4
 11147 14f5 80000000 		.4byte	.LVL250
 11148 14f9 88000000 		.4byte	.LFE137
 11149 14fd 0200     		.2byte	0x2
 11150 14ff 7D       		.byte	0x7d
 11151 1500 04       		.sleb128 4
 11152 1501 00000000 		.4byte	0
 11153 1505 00000000 		.4byte	0
 11154              	.LLST124:
 11155 1509 00000000 		.4byte	.LVL252
 11156 150d 18000000 		.4byte	.LVL253
 11157 1511 0100     		.2byte	0x1
 11158 1513 50       		.byte	0x50
 11159 1514 18000000 		.4byte	.LVL253
 11160 1518 18010000 		.4byte	.LVL260
 11161 151c 0100     		.2byte	0x1
 11162 151e 54       		.byte	0x54
 11163 151f 18010000 		.4byte	.LVL260
 11164 1523 1C010000 		.4byte	.LVL261
 11165 1527 0400     		.2byte	0x4
 11166 1529 F3       		.byte	0xf3
 11167 152a 01       		.uleb128 0x1
 11168 152b 50       		.byte	0x50
 11169 152c 9F       		.byte	0x9f
 11170 152d 1C010000 		.4byte	.LVL261
 11171 1531 30010000 		.4byte	.LFE138
 11172 1535 0100     		.2byte	0x1
 11173 1537 54       		.byte	0x54
 11174 1538 00000000 		.4byte	0
 11175 153c 00000000 		.4byte	0
 11176              	.LLST125:
 11177 1540 00000000 		.4byte	.LVL252
 11178 1544 21000000 		.4byte	.LVL254-1
 11179 1548 0100     		.2byte	0x1
 11180 154a 51       		.byte	0x51
 11181 154b 21000000 		.4byte	.LVL254-1
 11182 154f 30010000 		.4byte	.LFE138
 11183 1553 0400     		.2byte	0x4
 11184 1555 F3       		.byte	0xf3
 11185 1556 01       		.uleb128 0x1
 11186 1557 51       		.byte	0x51
 11187 1558 9F       		.byte	0x9f
 11188 1559 00000000 		.4byte	0
 11189 155d 00000000 		.4byte	0
 11190              	.LLST126:
 11191 1561 00000000 		.4byte	.LVL252
ARM GAS  /tmp/ccOGUWYP.s 			page 198


 11192 1565 21000000 		.4byte	.LVL254-1
 11193 1569 0100     		.2byte	0x1
 11194 156b 52       		.byte	0x52
 11195 156c 21000000 		.4byte	.LVL254-1
 11196 1570 30010000 		.4byte	.LFE138
 11197 1574 0400     		.2byte	0x4
 11198 1576 F3       		.byte	0xf3
 11199 1577 01       		.uleb128 0x1
 11200 1578 52       		.byte	0x52
 11201 1579 9F       		.byte	0x9f
 11202 157a 00000000 		.4byte	0
 11203 157e 00000000 		.4byte	0
 11204              	.LLST127:
 11205 1582 00000000 		.4byte	.LVL252
 11206 1586 21000000 		.4byte	.LVL254-1
 11207 158a 0100     		.2byte	0x1
 11208 158c 53       		.byte	0x53
 11209 158d 21000000 		.4byte	.LVL254-1
 11210 1591 18010000 		.4byte	.LVL260
 11211 1595 0100     		.2byte	0x1
 11212 1597 59       		.byte	0x59
 11213 1598 18010000 		.4byte	.LVL260
 11214 159c 1C010000 		.4byte	.LVL261
 11215 15a0 0400     		.2byte	0x4
 11216 15a2 F3       		.byte	0xf3
 11217 15a3 01       		.uleb128 0x1
 11218 15a4 53       		.byte	0x53
 11219 15a5 9F       		.byte	0x9f
 11220 15a6 1C010000 		.4byte	.LVL261
 11221 15aa 30010000 		.4byte	.LFE138
 11222 15ae 0100     		.2byte	0x1
 11223 15b0 59       		.byte	0x59
 11224 15b1 00000000 		.4byte	0
 11225 15b5 00000000 		.4byte	0
 11226              	.LLST128:
 11227 15b9 00000000 		.4byte	.LVL252
 11228 15bd 18010000 		.4byte	.LVL260
 11229 15c1 0200     		.2byte	0x2
 11230 15c3 91       		.byte	0x91
 11231 15c4 00       		.sleb128 0
 11232 15c5 18010000 		.4byte	.LVL260
 11233 15c9 1C010000 		.4byte	.LVL261
 11234 15cd 0200     		.2byte	0x2
 11235 15cf 7D       		.byte	0x7d
 11236 15d0 00       		.sleb128 0
 11237 15d1 1C010000 		.4byte	.LVL261
 11238 15d5 30010000 		.4byte	.LFE138
 11239 15d9 0200     		.2byte	0x2
 11240 15db 91       		.byte	0x91
 11241 15dc 00       		.sleb128 0
 11242 15dd 00000000 		.4byte	0
 11243 15e1 00000000 		.4byte	0
 11244              	.LLST129:
 11245 15e5 00000000 		.4byte	.LVL252
 11246 15e9 18010000 		.4byte	.LVL260
 11247 15ed 0200     		.2byte	0x2
 11248 15ef 91       		.byte	0x91
ARM GAS  /tmp/ccOGUWYP.s 			page 199


 11249 15f0 04       		.sleb128 4
 11250 15f1 18010000 		.4byte	.LVL260
 11251 15f5 1C010000 		.4byte	.LVL261
 11252 15f9 0200     		.2byte	0x2
 11253 15fb 7D       		.byte	0x7d
 11254 15fc 04       		.sleb128 4
 11255 15fd 1C010000 		.4byte	.LVL261
 11256 1601 30010000 		.4byte	.LFE138
 11257 1605 0200     		.2byte	0x2
 11258 1607 91       		.byte	0x91
 11259 1608 04       		.sleb128 4
 11260 1609 00000000 		.4byte	0
 11261 160d 00000000 		.4byte	0
 11262              	.LLST130:
 11263 1611 00000000 		.4byte	.LVL252
 11264 1615 18010000 		.4byte	.LVL260
 11265 1619 0200     		.2byte	0x2
 11266 161b 91       		.byte	0x91
 11267 161c 08       		.sleb128 8
 11268 161d 18010000 		.4byte	.LVL260
 11269 1621 1C010000 		.4byte	.LVL261
 11270 1625 0200     		.2byte	0x2
 11271 1627 7D       		.byte	0x7d
 11272 1628 08       		.sleb128 8
 11273 1629 1C010000 		.4byte	.LVL261
 11274 162d 30010000 		.4byte	.LFE138
 11275 1631 0200     		.2byte	0x2
 11276 1633 91       		.byte	0x91
 11277 1634 08       		.sleb128 8
 11278 1635 00000000 		.4byte	0
 11279 1639 00000000 		.4byte	0
 11280              	.LLST131:
 11281 163d DA000000 		.4byte	.LVL256
 11282 1641 FE000000 		.4byte	.LVL258
 11283 1645 0100     		.2byte	0x1
 11284 1647 54       		.byte	0x54
 11285 1648 00000000 		.4byte	0
 11286 164c 00000000 		.4byte	0
 11287              	.LLST132:
 11288 1650 00000000 		.4byte	.LVL262
 11289 1654 0C000000 		.4byte	.LVL263
 11290 1658 0100     		.2byte	0x1
 11291 165a 50       		.byte	0x50
 11292 165b 0C000000 		.4byte	.LVL263
 11293 165f 9C000000 		.4byte	.LVL273
 11294 1663 0100     		.2byte	0x1
 11295 1665 54       		.byte	0x54
 11296 1666 9C000000 		.4byte	.LVL273
 11297 166a A0000000 		.4byte	.LVL274
 11298 166e 0400     		.2byte	0x4
 11299 1670 F3       		.byte	0xf3
 11300 1671 01       		.uleb128 0x1
 11301 1672 50       		.byte	0x50
 11302 1673 9F       		.byte	0x9f
 11303 1674 A0000000 		.4byte	.LVL274
 11304 1678 BC000000 		.4byte	.LFE139
 11305 167c 0100     		.2byte	0x1
ARM GAS  /tmp/ccOGUWYP.s 			page 200


 11306 167e 54       		.byte	0x54
 11307 167f 00000000 		.4byte	0
 11308 1683 00000000 		.4byte	0
 11309              	.LLST133:
 11310 1687 00000000 		.4byte	.LVL262
 11311 168b 25000000 		.4byte	.LVL265-1
 11312 168f 0100     		.2byte	0x1
 11313 1691 51       		.byte	0x51
 11314 1692 25000000 		.4byte	.LVL265-1
 11315 1696 54000000 		.4byte	.LVL266
 11316 169a 0400     		.2byte	0x4
 11317 169c F3       		.byte	0xf3
 11318 169d 01       		.uleb128 0x1
 11319 169e 51       		.byte	0x51
 11320 169f 9F       		.byte	0x9f
 11321 16a0 54000000 		.4byte	.LVL266
 11322 16a4 81000000 		.4byte	.LVL271-1
 11323 16a8 0100     		.2byte	0x1
 11324 16aa 51       		.byte	0x51
 11325 16ab A0000000 		.4byte	.LVL274
 11326 16af A6000000 		.4byte	.LVL275
 11327 16b3 0400     		.2byte	0x4
 11328 16b5 F3       		.byte	0xf3
 11329 16b6 01       		.uleb128 0x1
 11330 16b7 51       		.byte	0x51
 11331 16b8 9F       		.byte	0x9f
 11332 16b9 A6000000 		.4byte	.LVL275
 11333 16bd A8000000 		.4byte	.LVL276
 11334 16c1 0100     		.2byte	0x1
 11335 16c3 51       		.byte	0x51
 11336 16c4 A8000000 		.4byte	.LVL276
 11337 16c8 B6000000 		.4byte	.LVL277
 11338 16cc 0400     		.2byte	0x4
 11339 16ce F3       		.byte	0xf3
 11340 16cf 01       		.uleb128 0x1
 11341 16d0 51       		.byte	0x51
 11342 16d1 9F       		.byte	0x9f
 11343 16d2 B6000000 		.4byte	.LVL277
 11344 16d6 BC000000 		.4byte	.LFE139
 11345 16da 0100     		.2byte	0x1
 11346 16dc 51       		.byte	0x51
 11347 16dd 00000000 		.4byte	0
 11348 16e1 00000000 		.4byte	0
 11349              	.LLST134:
 11350 16e5 00000000 		.4byte	.LVL262
 11351 16e9 25000000 		.4byte	.LVL265-1
 11352 16ed 0100     		.2byte	0x1
 11353 16ef 52       		.byte	0x52
 11354 16f0 25000000 		.4byte	.LVL265-1
 11355 16f4 54000000 		.4byte	.LVL266
 11356 16f8 0400     		.2byte	0x4
 11357 16fa F3       		.byte	0xf3
 11358 16fb 01       		.uleb128 0x1
 11359 16fc 52       		.byte	0x52
 11360 16fd 9F       		.byte	0x9f
 11361 16fe 54000000 		.4byte	.LVL266
 11362 1702 5C000000 		.4byte	.LVL267
ARM GAS  /tmp/ccOGUWYP.s 			page 201


 11363 1706 1600     		.2byte	0x16
 11364 1708 79       		.byte	0x79
 11365 1709 00       		.sleb128 0
 11366 170a 40       		.byte	0x40
 11367 170b 24       		.byte	0x24
 11368 170c 40       		.byte	0x40
 11369 170d 26       		.byte	0x26
 11370 170e 75       		.byte	0x75
 11371 170f 09       		.sleb128 9
 11372 1710 94       		.byte	0x94
 11373 1711 01       		.byte	0x1
 11374 1712 08       		.byte	0x8
 11375 1713 FF       		.byte	0xff
 11376 1714 1A       		.byte	0x1a
 11377 1715 1C       		.byte	0x1c
 11378 1716 23       		.byte	0x23
 11379 1717 01       		.uleb128 0x1
 11380 1718 32       		.byte	0x32
 11381 1719 1B       		.byte	0x1b
 11382 171a 72       		.byte	0x72
 11383 171b 00       		.sleb128 0
 11384 171c 22       		.byte	0x22
 11385 171d 9F       		.byte	0x9f
 11386 171e 5C000000 		.4byte	.LVL267
 11387 1722 60000000 		.4byte	.LVL268
 11388 1726 1400     		.2byte	0x14
 11389 1728 79       		.byte	0x79
 11390 1729 00       		.sleb128 0
 11391 172a 40       		.byte	0x40
 11392 172b 24       		.byte	0x24
 11393 172c 40       		.byte	0x40
 11394 172d 26       		.byte	0x26
 11395 172e 73       		.byte	0x73
 11396 172f 00       		.sleb128 0
 11397 1730 08       		.byte	0x8
 11398 1731 FF       		.byte	0xff
 11399 1732 1A       		.byte	0x1a
 11400 1733 1C       		.byte	0x1c
 11401 1734 23       		.byte	0x23
 11402 1735 01       		.uleb128 0x1
 11403 1736 32       		.byte	0x32
 11404 1737 1B       		.byte	0x1b
 11405 1738 72       		.byte	0x72
 11406 1739 00       		.sleb128 0
 11407 173a 22       		.byte	0x22
 11408 173b 9F       		.byte	0x9f
 11409 173c 60000000 		.4byte	.LVL268
 11410 1740 70000000 		.4byte	.LVL269
 11411 1744 1600     		.2byte	0x16
 11412 1746 91       		.byte	0x91
 11413 1747 00       		.sleb128 0
 11414 1748 94       		.byte	0x94
 11415 1749 02       		.byte	0x2
 11416 174a 40       		.byte	0x40
 11417 174b 24       		.byte	0x24
 11418 174c 40       		.byte	0x40
 11419 174d 26       		.byte	0x26
ARM GAS  /tmp/ccOGUWYP.s 			page 202


 11420 174e 73       		.byte	0x73
 11421 174f 00       		.sleb128 0
 11422 1750 08       		.byte	0x8
 11423 1751 FF       		.byte	0xff
 11424 1752 1A       		.byte	0x1a
 11425 1753 1C       		.byte	0x1c
 11426 1754 23       		.byte	0x23
 11427 1755 01       		.uleb128 0x1
 11428 1756 32       		.byte	0x32
 11429 1757 1B       		.byte	0x1b
 11430 1758 72       		.byte	0x72
 11431 1759 00       		.sleb128 0
 11432 175a 22       		.byte	0x22
 11433 175b 9F       		.byte	0x9f
 11434 175c 70000000 		.4byte	.LVL269
 11435 1760 72000000 		.4byte	.LVL270
 11436 1764 1600     		.2byte	0x16
 11437 1766 91       		.byte	0x91
 11438 1767 00       		.sleb128 0
 11439 1768 94       		.byte	0x94
 11440 1769 02       		.byte	0x2
 11441 176a 40       		.byte	0x40
 11442 176b 24       		.byte	0x24
 11443 176c 40       		.byte	0x40
 11444 176d 26       		.byte	0x26
 11445 176e 73       		.byte	0x73
 11446 176f 00       		.sleb128 0
 11447 1770 08       		.byte	0x8
 11448 1771 FF       		.byte	0xff
 11449 1772 1A       		.byte	0x1a
 11450 1773 1C       		.byte	0x1c
 11451 1774 23       		.byte	0x23
 11452 1775 01       		.uleb128 0x1
 11453 1776 32       		.byte	0x32
 11454 1777 1B       		.byte	0x1b
 11455 1778 78       		.byte	0x78
 11456 1779 00       		.sleb128 0
 11457 177a 22       		.byte	0x22
 11458 177b 9F       		.byte	0x9f
 11459 177c A0000000 		.4byte	.LVL274
 11460 1780 BC000000 		.4byte	.LFE139
 11461 1784 0400     		.2byte	0x4
 11462 1786 F3       		.byte	0xf3
 11463 1787 01       		.uleb128 0x1
 11464 1788 52       		.byte	0x52
 11465 1789 9F       		.byte	0x9f
 11466 178a 00000000 		.4byte	0
 11467 178e 00000000 		.4byte	0
 11468              	.LLST135:
 11469 1792 00000000 		.4byte	.LVL262
 11470 1796 10000000 		.4byte	.LVL264
 11471 179a 0100     		.2byte	0x1
 11472 179c 53       		.byte	0x53
 11473 179d 10000000 		.4byte	.LVL264
 11474 17a1 BC000000 		.4byte	.LFE139
 11475 17a5 0400     		.2byte	0x4
 11476 17a7 F3       		.byte	0xf3
ARM GAS  /tmp/ccOGUWYP.s 			page 203


 11477 17a8 01       		.uleb128 0x1
 11478 17a9 53       		.byte	0x53
 11479 17aa 9F       		.byte	0x9f
 11480 17ab 00000000 		.4byte	0
 11481 17af 00000000 		.4byte	0
 11482              	.LLST136:
 11483 17b3 00000000 		.4byte	.LVL262
 11484 17b7 9C000000 		.4byte	.LVL273
 11485 17bb 0200     		.2byte	0x2
 11486 17bd 91       		.byte	0x91
 11487 17be 00       		.sleb128 0
 11488 17bf 9C000000 		.4byte	.LVL273
 11489 17c3 A0000000 		.4byte	.LVL274
 11490 17c7 0200     		.2byte	0x2
 11491 17c9 7D       		.byte	0x7d
 11492 17ca 00       		.sleb128 0
 11493 17cb A0000000 		.4byte	.LVL274
 11494 17cf BC000000 		.4byte	.LFE139
 11495 17d3 0200     		.2byte	0x2
 11496 17d5 91       		.byte	0x91
 11497 17d6 00       		.sleb128 0
 11498 17d7 00000000 		.4byte	0
 11499 17db 00000000 		.4byte	0
 11500              	.LLST137:
 11501 17df 00000000 		.4byte	.LVL262
 11502 17e3 9C000000 		.4byte	.LVL273
 11503 17e7 0200     		.2byte	0x2
 11504 17e9 91       		.byte	0x91
 11505 17ea 04       		.sleb128 4
 11506 17eb 9C000000 		.4byte	.LVL273
 11507 17ef A0000000 		.4byte	.LVL274
 11508 17f3 0200     		.2byte	0x2
 11509 17f5 7D       		.byte	0x7d
 11510 17f6 04       		.sleb128 4
 11511 17f7 A0000000 		.4byte	.LVL274
 11512 17fb BC000000 		.4byte	.LFE139
 11513 17ff 0200     		.2byte	0x2
 11514 1801 91       		.byte	0x91
 11515 1802 04       		.sleb128 4
 11516 1803 00000000 		.4byte	0
 11517 1807 00000000 		.4byte	0
 11518              	.LLST138:
 11519 180b 00000000 		.4byte	.LVL262
 11520 180f 9C000000 		.4byte	.LVL273
 11521 1813 0200     		.2byte	0x2
 11522 1815 91       		.byte	0x91
 11523 1816 08       		.sleb128 8
 11524 1817 9C000000 		.4byte	.LVL273
 11525 181b A0000000 		.4byte	.LVL274
 11526 181f 0200     		.2byte	0x2
 11527 1821 7D       		.byte	0x7d
 11528 1822 08       		.sleb128 8
 11529 1823 A0000000 		.4byte	.LVL274
 11530 1827 BC000000 		.4byte	.LFE139
 11531 182b 0200     		.2byte	0x2
 11532 182d 91       		.byte	0x91
 11533 182e 08       		.sleb128 8
ARM GAS  /tmp/ccOGUWYP.s 			page 204


 11534 182f 00000000 		.4byte	0
 11535 1833 00000000 		.4byte	0
 11536              	.LLST139:
 11537 1837 00000000 		.4byte	.LVL262
 11538 183b 9C000000 		.4byte	.LVL273
 11539 183f 0200     		.2byte	0x2
 11540 1841 91       		.byte	0x91
 11541 1842 0C       		.sleb128 12
 11542 1843 9C000000 		.4byte	.LVL273
 11543 1847 A0000000 		.4byte	.LVL274
 11544 184b 0200     		.2byte	0x2
 11545 184d 7D       		.byte	0x7d
 11546 184e 0C       		.sleb128 12
 11547 184f A0000000 		.4byte	.LVL274
 11548 1853 BC000000 		.4byte	.LFE139
 11549 1857 0200     		.2byte	0x2
 11550 1859 91       		.byte	0x91
 11551 185a 0C       		.sleb128 12
 11552 185b 00000000 		.4byte	0
 11553 185f 00000000 		.4byte	0
 11554              	.LLST140:
 11555 1863 00000000 		.4byte	.LVL262
 11556 1867 9C000000 		.4byte	.LVL273
 11557 186b 0200     		.2byte	0x2
 11558 186d 91       		.byte	0x91
 11559 186e 10       		.sleb128 16
 11560 186f 9C000000 		.4byte	.LVL273
 11561 1873 A0000000 		.4byte	.LVL274
 11562 1877 0200     		.2byte	0x2
 11563 1879 7D       		.byte	0x7d
 11564 187a 10       		.sleb128 16
 11565 187b A0000000 		.4byte	.LVL274
 11566 187f BC000000 		.4byte	.LFE139
 11567 1883 0200     		.2byte	0x2
 11568 1885 91       		.byte	0x91
 11569 1886 10       		.sleb128 16
 11570 1887 00000000 		.4byte	0
 11571 188b 00000000 		.4byte	0
 11572              	.LLST141:
 11573 188f 00000000 		.4byte	.LVL278
 11574 1893 1E000000 		.4byte	.LVL281
 11575 1897 0100     		.2byte	0x1
 11576 1899 50       		.byte	0x50
 11577 189a 1E000000 		.4byte	.LVL281
 11578 189e 34010000 		.4byte	.LVL291
 11579 18a2 0100     		.2byte	0x1
 11580 18a4 54       		.byte	0x54
 11581 18a5 34010000 		.4byte	.LVL291
 11582 18a9 38010000 		.4byte	.LVL292
 11583 18ad 0400     		.2byte	0x4
 11584 18af F3       		.byte	0xf3
 11585 18b0 01       		.uleb128 0x1
 11586 18b1 50       		.byte	0x50
 11587 18b2 9F       		.byte	0x9f
 11588 18b3 38010000 		.4byte	.LVL292
 11589 18b7 70010000 		.4byte	.LFE140
 11590 18bb 0100     		.2byte	0x1
ARM GAS  /tmp/ccOGUWYP.s 			page 205


 11591 18bd 54       		.byte	0x54
 11592 18be 00000000 		.4byte	0
 11593 18c2 00000000 		.4byte	0
 11594              	.LLST142:
 11595 18c6 00000000 		.4byte	.LVL278
 11596 18ca 1A000000 		.4byte	.LVL280
 11597 18ce 0100     		.2byte	0x1
 11598 18d0 51       		.byte	0x51
 11599 18d1 1A000000 		.4byte	.LVL280
 11600 18d5 EC000000 		.4byte	.LVL285
 11601 18d9 0400     		.2byte	0x4
 11602 18db F3       		.byte	0xf3
 11603 18dc 01       		.uleb128 0x1
 11604 18dd 51       		.byte	0x51
 11605 18de 9F       		.byte	0x9f
 11606 18df EC000000 		.4byte	.LVL285
 11607 18e3 1A010000 		.4byte	.LVL289
 11608 18e7 0200     		.2byte	0x2
 11609 18e9 91       		.byte	0x91
 11610 18ea 4C       		.sleb128 -52
 11611 18eb 38010000 		.4byte	.LVL292
 11612 18ef 52010000 		.4byte	.LVL294
 11613 18f3 0400     		.2byte	0x4
 11614 18f5 F3       		.byte	0xf3
 11615 18f6 01       		.uleb128 0x1
 11616 18f7 51       		.byte	0x51
 11617 18f8 9F       		.byte	0x9f
 11618 18f9 52010000 		.4byte	.LVL294
 11619 18fd 54010000 		.4byte	.LVL295
 11620 1901 0200     		.2byte	0x2
 11621 1903 91       		.byte	0x91
 11622 1904 4C       		.sleb128 -52
 11623 1905 54010000 		.4byte	.LVL295
 11624 1909 68010000 		.4byte	.LVL296
 11625 190d 0400     		.2byte	0x4
 11626 190f F3       		.byte	0xf3
 11627 1910 01       		.uleb128 0x1
 11628 1911 51       		.byte	0x51
 11629 1912 9F       		.byte	0x9f
 11630 1913 68010000 		.4byte	.LVL296
 11631 1917 70010000 		.4byte	.LFE140
 11632 191b 0200     		.2byte	0x2
 11633 191d 91       		.byte	0x91
 11634 191e 4C       		.sleb128 -52
 11635 191f 00000000 		.4byte	0
 11636 1923 00000000 		.4byte	0
 11637              	.LLST143:
 11638 1927 00000000 		.4byte	.LVL278
 11639 192b 35000000 		.4byte	.LVL282-1
 11640 192f 0100     		.2byte	0x1
 11641 1931 52       		.byte	0x52
 11642 1932 35000000 		.4byte	.LVL282-1
 11643 1936 EC000000 		.4byte	.LVL285
 11644 193a 0400     		.2byte	0x4
 11645 193c F3       		.byte	0xf3
 11646 193d 01       		.uleb128 0x1
 11647 193e 52       		.byte	0x52
ARM GAS  /tmp/ccOGUWYP.s 			page 206


 11648 193f 9F       		.byte	0x9f
 11649 1940 EC000000 		.4byte	.LVL285
 11650 1944 F6000000 		.4byte	.LVL286
 11651 1948 1900     		.2byte	0x19
 11652 194a 78       		.byte	0x78
 11653 194b 00       		.sleb128 0
 11654 194c 40       		.byte	0x40
 11655 194d 24       		.byte	0x24
 11656 194e 40       		.byte	0x40
 11657 194f 26       		.byte	0x26
 11658 1950 91       		.byte	0x91
 11659 1951 48       		.sleb128 -56
 11660 1952 06       		.byte	0x6
 11661 1953 23       		.byte	0x23
 11662 1954 09       		.uleb128 0x9
 11663 1955 94       		.byte	0x94
 11664 1956 01       		.byte	0x1
 11665 1957 08       		.byte	0x8
 11666 1958 FF       		.byte	0xff
 11667 1959 1A       		.byte	0x1a
 11668 195a 1C       		.byte	0x1c
 11669 195b 23       		.byte	0x23
 11670 195c 01       		.uleb128 0x1
 11671 195d 32       		.byte	0x32
 11672 195e 1B       		.byte	0x1b
 11673 195f 7B       		.byte	0x7b
 11674 1960 00       		.sleb128 0
 11675 1961 22       		.byte	0x22
 11676 1962 9F       		.byte	0x9f
 11677 1963 F6000000 		.4byte	.LVL286
 11678 1967 FA000000 		.4byte	.LVL287
 11679 196b 1400     		.2byte	0x14
 11680 196d 78       		.byte	0x78
 11681 196e 00       		.sleb128 0
 11682 196f 40       		.byte	0x40
 11683 1970 24       		.byte	0x24
 11684 1971 40       		.byte	0x40
 11685 1972 26       		.byte	0x26
 11686 1973 73       		.byte	0x73
 11687 1974 00       		.sleb128 0
 11688 1975 08       		.byte	0x8
 11689 1976 FF       		.byte	0xff
 11690 1977 1A       		.byte	0x1a
 11691 1978 1C       		.byte	0x1c
 11692 1979 23       		.byte	0x23
 11693 197a 01       		.uleb128 0x1
 11694 197b 32       		.byte	0x32
 11695 197c 1B       		.byte	0x1b
 11696 197d 7B       		.byte	0x7b
 11697 197e 00       		.sleb128 0
 11698 197f 22       		.byte	0x22
 11699 1980 9F       		.byte	0x9f
 11700 1981 FA000000 		.4byte	.LVL287
 11701 1985 0E010000 		.4byte	.LVL288
 11702 1989 1600     		.2byte	0x16
 11703 198b 91       		.byte	0x91
 11704 198c 00       		.sleb128 0
ARM GAS  /tmp/ccOGUWYP.s 			page 207


 11705 198d 94       		.byte	0x94
 11706 198e 02       		.byte	0x2
 11707 198f 40       		.byte	0x40
 11708 1990 24       		.byte	0x24
 11709 1991 40       		.byte	0x40
 11710 1992 26       		.byte	0x26
 11711 1993 73       		.byte	0x73
 11712 1994 00       		.sleb128 0
 11713 1995 08       		.byte	0x8
 11714 1996 FF       		.byte	0xff
 11715 1997 1A       		.byte	0x1a
 11716 1998 1C       		.byte	0x1c
 11717 1999 23       		.byte	0x23
 11718 199a 01       		.uleb128 0x1
 11719 199b 32       		.byte	0x32
 11720 199c 1B       		.byte	0x1b
 11721 199d 7B       		.byte	0x7b
 11722 199e 00       		.sleb128 0
 11723 199f 22       		.byte	0x22
 11724 19a0 9F       		.byte	0x9f
 11725 19a1 38010000 		.4byte	.LVL292
 11726 19a5 70010000 		.4byte	.LFE140
 11727 19a9 0400     		.2byte	0x4
 11728 19ab F3       		.byte	0xf3
 11729 19ac 01       		.uleb128 0x1
 11730 19ad 52       		.byte	0x52
 11731 19ae 9F       		.byte	0x9f
 11732 19af 00000000 		.4byte	0
 11733 19b3 00000000 		.4byte	0
 11734              	.LLST144:
 11735 19b7 00000000 		.4byte	.LVL278
 11736 19bb 0C000000 		.4byte	.LVL279
 11737 19bf 0100     		.2byte	0x1
 11738 19c1 53       		.byte	0x53
 11739 19c2 0C000000 		.4byte	.LVL279
 11740 19c6 70010000 		.4byte	.LFE140
 11741 19ca 0400     		.2byte	0x4
 11742 19cc F3       		.byte	0xf3
 11743 19cd 01       		.uleb128 0x1
 11744 19ce 53       		.byte	0x53
 11745 19cf 9F       		.byte	0x9f
 11746 19d0 00000000 		.4byte	0
 11747 19d4 00000000 		.4byte	0
 11748              	.LLST145:
 11749 19d8 00000000 		.4byte	.LVL278
 11750 19dc 34010000 		.4byte	.LVL291
 11751 19e0 0200     		.2byte	0x2
 11752 19e2 91       		.byte	0x91
 11753 19e3 00       		.sleb128 0
 11754 19e4 34010000 		.4byte	.LVL291
 11755 19e8 38010000 		.4byte	.LVL292
 11756 19ec 0200     		.2byte	0x2
 11757 19ee 7D       		.byte	0x7d
 11758 19ef 00       		.sleb128 0
 11759 19f0 38010000 		.4byte	.LVL292
 11760 19f4 70010000 		.4byte	.LFE140
 11761 19f8 0200     		.2byte	0x2
ARM GAS  /tmp/ccOGUWYP.s 			page 208


 11762 19fa 91       		.byte	0x91
 11763 19fb 00       		.sleb128 0
 11764 19fc 00000000 		.4byte	0
 11765 1a00 00000000 		.4byte	0
 11766              	.LLST146:
 11767 1a04 00000000 		.4byte	.LVL278
 11768 1a08 34010000 		.4byte	.LVL291
 11769 1a0c 0200     		.2byte	0x2
 11770 1a0e 91       		.byte	0x91
 11771 1a0f 04       		.sleb128 4
 11772 1a10 34010000 		.4byte	.LVL291
 11773 1a14 38010000 		.4byte	.LVL292
 11774 1a18 0200     		.2byte	0x2
 11775 1a1a 7D       		.byte	0x7d
 11776 1a1b 04       		.sleb128 4
 11777 1a1c 38010000 		.4byte	.LVL292
 11778 1a20 70010000 		.4byte	.LFE140
 11779 1a24 0200     		.2byte	0x2
 11780 1a26 91       		.byte	0x91
 11781 1a27 04       		.sleb128 4
 11782 1a28 00000000 		.4byte	0
 11783 1a2c 00000000 		.4byte	0
 11784              	.LLST147:
 11785 1a30 00000000 		.4byte	.LVL278
 11786 1a34 34010000 		.4byte	.LVL291
 11787 1a38 0200     		.2byte	0x2
 11788 1a3a 91       		.byte	0x91
 11789 1a3b 08       		.sleb128 8
 11790 1a3c 34010000 		.4byte	.LVL291
 11791 1a40 38010000 		.4byte	.LVL292
 11792 1a44 0200     		.2byte	0x2
 11793 1a46 7D       		.byte	0x7d
 11794 1a47 08       		.sleb128 8
 11795 1a48 38010000 		.4byte	.LVL292
 11796 1a4c 70010000 		.4byte	.LFE140
 11797 1a50 0200     		.2byte	0x2
 11798 1a52 91       		.byte	0x91
 11799 1a53 08       		.sleb128 8
 11800 1a54 00000000 		.4byte	0
 11801 1a58 00000000 		.4byte	0
 11802              	.LLST148:
 11803 1a5c 00000000 		.4byte	.LVL278
 11804 1a60 34010000 		.4byte	.LVL291
 11805 1a64 0200     		.2byte	0x2
 11806 1a66 91       		.byte	0x91
 11807 1a67 0C       		.sleb128 12
 11808 1a68 34010000 		.4byte	.LVL291
 11809 1a6c 38010000 		.4byte	.LVL292
 11810 1a70 0200     		.2byte	0x2
 11811 1a72 7D       		.byte	0x7d
 11812 1a73 0C       		.sleb128 12
 11813 1a74 38010000 		.4byte	.LVL292
 11814 1a78 70010000 		.4byte	.LFE140
 11815 1a7c 0200     		.2byte	0x2
 11816 1a7e 91       		.byte	0x91
 11817 1a7f 0C       		.sleb128 12
 11818 1a80 00000000 		.4byte	0
ARM GAS  /tmp/ccOGUWYP.s 			page 209


 11819 1a84 00000000 		.4byte	0
 11820              	.LLST149:
 11821 1a88 00000000 		.4byte	.LVL278
 11822 1a8c 34010000 		.4byte	.LVL291
 11823 1a90 0200     		.2byte	0x2
 11824 1a92 91       		.byte	0x91
 11825 1a93 10       		.sleb128 16
 11826 1a94 34010000 		.4byte	.LVL291
 11827 1a98 38010000 		.4byte	.LVL292
 11828 1a9c 0200     		.2byte	0x2
 11829 1a9e 7D       		.byte	0x7d
 11830 1a9f 10       		.sleb128 16
 11831 1aa0 38010000 		.4byte	.LVL292
 11832 1aa4 70010000 		.4byte	.LFE140
 11833 1aa8 0200     		.2byte	0x2
 11834 1aaa 91       		.byte	0x91
 11835 1aab 10       		.sleb128 16
 11836 1aac 00000000 		.4byte	0
 11837 1ab0 00000000 		.4byte	0
 11838              	.LLST150:
 11839 1ab4 00000000 		.4byte	.LVL278
 11840 1ab8 34010000 		.4byte	.LVL291
 11841 1abc 0200     		.2byte	0x2
 11842 1abe 91       		.byte	0x91
 11843 1abf 14       		.sleb128 20
 11844 1ac0 34010000 		.4byte	.LVL291
 11845 1ac4 38010000 		.4byte	.LVL292
 11846 1ac8 0200     		.2byte	0x2
 11847 1aca 7D       		.byte	0x7d
 11848 1acb 14       		.sleb128 20
 11849 1acc 38010000 		.4byte	.LVL292
 11850 1ad0 70010000 		.4byte	.LFE140
 11851 1ad4 0200     		.2byte	0x2
 11852 1ad6 91       		.byte	0x91
 11853 1ad7 14       		.sleb128 20
 11854 1ad8 00000000 		.4byte	0
 11855 1adc 00000000 		.4byte	0
 11856              	.LLST151:
 11857 1ae0 DC000000 		.4byte	.LVL283
 11858 1ae4 1A010000 		.4byte	.LVL289
 11859 1ae8 0100     		.2byte	0x1
 11860 1aea 54       		.byte	0x54
 11861 1aeb 48010000 		.4byte	.LVL293
 11862 1aef 70010000 		.4byte	.LFE140
 11863 1af3 0100     		.2byte	0x1
 11864 1af5 54       		.byte	0x54
 11865 1af6 00000000 		.4byte	0
 11866 1afa 00000000 		.4byte	0
 11867              	.LLST152:
 11868 1afe 00000000 		.4byte	.LVL297
 11869 1b02 10000000 		.4byte	.LVL298
 11870 1b06 0100     		.2byte	0x1
 11871 1b08 50       		.byte	0x50
 11872 1b09 10000000 		.4byte	.LVL298
 11873 1b0d 14000000 		.4byte	.LVL299
 11874 1b11 0400     		.2byte	0x4
 11875 1b13 F3       		.byte	0xf3
ARM GAS  /tmp/ccOGUWYP.s 			page 210


 11876 1b14 01       		.uleb128 0x1
 11877 1b15 50       		.byte	0x50
 11878 1b16 9F       		.byte	0x9f
 11879 1b17 14000000 		.4byte	.LVL299
 11880 1b1b 16000000 		.4byte	.LVL300
 11881 1b1f 0100     		.2byte	0x1
 11882 1b21 50       		.byte	0x50
 11883 1b22 16000000 		.4byte	.LVL300
 11884 1b26 1A000000 		.4byte	.LVL301
 11885 1b2a 0400     		.2byte	0x4
 11886 1b2c F3       		.byte	0xf3
 11887 1b2d 01       		.uleb128 0x1
 11888 1b2e 50       		.byte	0x50
 11889 1b2f 9F       		.byte	0x9f
 11890 1b30 1A000000 		.4byte	.LVL301
 11891 1b34 1C000000 		.4byte	.LVL302
 11892 1b38 0100     		.2byte	0x1
 11893 1b3a 50       		.byte	0x50
 11894 1b3b 1C000000 		.4byte	.LVL302
 11895 1b3f 20000000 		.4byte	.LVL303
 11896 1b43 0400     		.2byte	0x4
 11897 1b45 F3       		.byte	0xf3
 11898 1b46 01       		.uleb128 0x1
 11899 1b47 50       		.byte	0x50
 11900 1b48 9F       		.byte	0x9f
 11901 1b49 20000000 		.4byte	.LVL303
 11902 1b4d 26000000 		.4byte	.LVL304
 11903 1b51 0100     		.2byte	0x1
 11904 1b53 50       		.byte	0x50
 11905 1b54 26000000 		.4byte	.LVL304
 11906 1b58 2C000000 		.4byte	.LVL305
 11907 1b5c 0400     		.2byte	0x4
 11908 1b5e F3       		.byte	0xf3
 11909 1b5f 01       		.uleb128 0x1
 11910 1b60 50       		.byte	0x50
 11911 1b61 9F       		.byte	0x9f
 11912 1b62 2C000000 		.4byte	.LVL305
 11913 1b66 2E000000 		.4byte	.LVL306
 11914 1b6a 0100     		.2byte	0x1
 11915 1b6c 50       		.byte	0x50
 11916 1b6d 2E000000 		.4byte	.LVL306
 11917 1b71 32000000 		.4byte	.LVL307
 11918 1b75 0400     		.2byte	0x4
 11919 1b77 F3       		.byte	0xf3
 11920 1b78 01       		.uleb128 0x1
 11921 1b79 50       		.byte	0x50
 11922 1b7a 9F       		.byte	0x9f
 11923 1b7b 32000000 		.4byte	.LVL307
 11924 1b7f 34000000 		.4byte	.LVL308
 11925 1b83 0100     		.2byte	0x1
 11926 1b85 50       		.byte	0x50
 11927 1b86 34000000 		.4byte	.LVL308
 11928 1b8a 38000000 		.4byte	.LFE141
 11929 1b8e 0400     		.2byte	0x4
 11930 1b90 F3       		.byte	0xf3
 11931 1b91 01       		.uleb128 0x1
 11932 1b92 50       		.byte	0x50
ARM GAS  /tmp/ccOGUWYP.s 			page 211


 11933 1b93 9F       		.byte	0x9f
 11934 1b94 00000000 		.4byte	0
 11935 1b98 00000000 		.4byte	0
 11936              	.LLST153:
 11937 1b9c 00000000 		.4byte	.LVL309
 11938 1ba0 06000000 		.4byte	.LVL310
 11939 1ba4 0100     		.2byte	0x1
 11940 1ba6 50       		.byte	0x50
 11941 1ba7 06000000 		.4byte	.LVL310
 11942 1bab 10000000 		.4byte	.LFE142
 11943 1baf 0400     		.2byte	0x4
 11944 1bb1 F3       		.byte	0xf3
 11945 1bb2 01       		.uleb128 0x1
 11946 1bb3 50       		.byte	0x50
 11947 1bb4 9F       		.byte	0x9f
 11948 1bb5 00000000 		.4byte	0
 11949 1bb9 00000000 		.4byte	0
 11950              	.LLST154:
 11951 1bbd 00000000 		.4byte	.LVL309
 11952 1bc1 08000000 		.4byte	.LVL311
 11953 1bc5 0100     		.2byte	0x1
 11954 1bc7 51       		.byte	0x51
 11955 1bc8 08000000 		.4byte	.LVL311
 11956 1bcc 0B000000 		.4byte	.LVL312-1
 11957 1bd0 0100     		.2byte	0x1
 11958 1bd2 50       		.byte	0x50
 11959 1bd3 0B000000 		.4byte	.LVL312-1
 11960 1bd7 10000000 		.4byte	.LFE142
 11961 1bdb 0400     		.2byte	0x4
 11962 1bdd F3       		.byte	0xf3
 11963 1bde 01       		.uleb128 0x1
 11964 1bdf 51       		.byte	0x51
 11965 1be0 9F       		.byte	0x9f
 11966 1be1 00000000 		.4byte	0
 11967 1be5 00000000 		.4byte	0
 11968              	.LLST155:
 11969 1be9 00000000 		.4byte	.LVL313
 11970 1bed 0A000000 		.4byte	.LVL314
 11971 1bf1 0100     		.2byte	0x1
 11972 1bf3 50       		.byte	0x50
 11973 1bf4 0A000000 		.4byte	.LVL314
 11974 1bf8 10000000 		.4byte	.LVL316
 11975 1bfc 0100     		.2byte	0x1
 11976 1bfe 54       		.byte	0x54
 11977 1bff 10000000 		.4byte	.LVL316
 11978 1c03 13000000 		.4byte	.LVL317-1
 11979 1c07 0100     		.2byte	0x1
 11980 1c09 51       		.byte	0x51
 11981 1c0a 13000000 		.4byte	.LVL317-1
 11982 1c0e 14000000 		.4byte	.LFE143
 11983 1c12 0400     		.2byte	0x4
 11984 1c14 F3       		.byte	0xf3
 11985 1c15 01       		.uleb128 0x1
 11986 1c16 50       		.byte	0x50
 11987 1c17 9F       		.byte	0x9f
 11988 1c18 00000000 		.4byte	0
 11989 1c1c 00000000 		.4byte	0
ARM GAS  /tmp/ccOGUWYP.s 			page 212


 11990              	.LLST156:
 11991 1c20 00000000 		.4byte	.LVL313
 11992 1c24 0C000000 		.4byte	.LVL315
 11993 1c28 0100     		.2byte	0x1
 11994 1c2a 51       		.byte	0x51
 11995 1c2b 0C000000 		.4byte	.LVL315
 11996 1c2f 13000000 		.4byte	.LVL317-1
 11997 1c33 0100     		.2byte	0x1
 11998 1c35 50       		.byte	0x50
 11999 1c36 13000000 		.4byte	.LVL317-1
 12000 1c3a 14000000 		.4byte	.LFE143
 12001 1c3e 0400     		.2byte	0x4
 12002 1c40 F3       		.byte	0xf3
 12003 1c41 01       		.uleb128 0x1
 12004 1c42 51       		.byte	0x51
 12005 1c43 9F       		.byte	0x9f
 12006 1c44 00000000 		.4byte	0
 12007 1c48 00000000 		.4byte	0
 12008              	.LLST157:
 12009 1c4c 00000000 		.4byte	.LVL318
 12010 1c50 2C000000 		.4byte	.LVL322
 12011 1c54 0100     		.2byte	0x1
 12012 1c56 50       		.byte	0x50
 12013 1c57 2C000000 		.4byte	.LVL322
 12014 1c5b 5A000000 		.4byte	.LFE144
 12015 1c5f 0400     		.2byte	0x4
 12016 1c61 F3       		.byte	0xf3
 12017 1c62 01       		.uleb128 0x1
 12018 1c63 50       		.byte	0x50
 12019 1c64 9F       		.byte	0x9f
 12020 1c65 00000000 		.4byte	0
 12021 1c69 00000000 		.4byte	0
 12022              	.LLST158:
 12023 1c6d 00000000 		.4byte	.LVL318
 12024 1c71 36000000 		.4byte	.LVL324
 12025 1c75 0100     		.2byte	0x1
 12026 1c77 51       		.byte	0x51
 12027 1c78 36000000 		.4byte	.LVL324
 12028 1c7c 5A000000 		.4byte	.LFE144
 12029 1c80 0400     		.2byte	0x4
 12030 1c82 F3       		.byte	0xf3
 12031 1c83 01       		.uleb128 0x1
 12032 1c84 51       		.byte	0x51
 12033 1c85 9F       		.byte	0x9f
 12034 1c86 00000000 		.4byte	0
 12035 1c8a 00000000 		.4byte	0
 12036              	.LLST159:
 12037 1c8e 00000000 		.4byte	.LVL318
 12038 1c92 16000000 		.4byte	.LVL320
 12039 1c96 0100     		.2byte	0x1
 12040 1c98 52       		.byte	0x52
 12041 1c99 16000000 		.4byte	.LVL320
 12042 1c9d 5A000000 		.4byte	.LFE144
 12043 1ca1 0400     		.2byte	0x4
 12044 1ca3 F3       		.byte	0xf3
 12045 1ca4 01       		.uleb128 0x1
 12046 1ca5 52       		.byte	0x52
ARM GAS  /tmp/ccOGUWYP.s 			page 213


 12047 1ca6 9F       		.byte	0x9f
 12048 1ca7 00000000 		.4byte	0
 12049 1cab 00000000 		.4byte	0
 12050              	.LLST160:
 12051 1caf 08000000 		.4byte	.LVL319
 12052 1cb3 3E000000 		.4byte	.LVL325
 12053 1cb7 0100     		.2byte	0x1
 12054 1cb9 53       		.byte	0x53
 12055 1cba 00000000 		.4byte	0
 12056 1cbe 00000000 		.4byte	0
 12057              	.LLST161:
 12058 1cc2 1C000000 		.4byte	.LVL321
 12059 1cc6 4E000000 		.4byte	.LVL326
 12060 1cca 0100     		.2byte	0x1
 12061 1ccc 52       		.byte	0x52
 12062 1ccd 00000000 		.4byte	0
 12063 1cd1 00000000 		.4byte	0
 12064              	.LLST162:
 12065 1cd5 30000000 		.4byte	.LVL323
 12066 1cd9 3E000000 		.4byte	.LVL325
 12067 1cdd 0700     		.2byte	0x7
 12068 1cdf 75       		.byte	0x75
 12069 1ce0 00       		.sleb128 0
 12070 1ce1 0A       		.byte	0xa
 12071 1ce2 F8FF     		.2byte	0xfff8
 12072 1ce4 1A       		.byte	0x1a
 12073 1ce5 9F       		.byte	0x9f
 12074 1ce6 00000000 		.4byte	0
 12075 1cea 00000000 		.4byte	0
 12076              	.LLST163:
 12077 1cee 30000000 		.4byte	.LVL323
 12078 1cf2 3E000000 		.4byte	.LVL325
 12079 1cf6 0700     		.2byte	0x7
 12080 1cf8 77       		.byte	0x77
 12081 1cf9 00       		.sleb128 0
 12082 1cfa 0A       		.byte	0xa
 12083 1cfb FCFF     		.2byte	0xfffc
 12084 1cfd 1A       		.byte	0x1a
 12085 1cfe 9F       		.byte	0x9f
 12086 1cff 3E000000 		.4byte	.LVL325
 12087 1d03 4E000000 		.4byte	.LVL326
 12088 1d07 1300     		.2byte	0x13
 12089 1d09 7C       		.byte	0x7c
 12090 1d0a 00       		.sleb128 0
 12091 1d0b 72       		.byte	0x72
 12092 1d0c 00       		.sleb128 0
 12093 1d0d 1E       		.byte	0x1e
 12094 1d0e 77       		.byte	0x77
 12095 1d0f 00       		.sleb128 0
 12096 1d10 0A       		.byte	0xa
 12097 1d11 FCFF     		.2byte	0xfffc
 12098 1d13 1A       		.byte	0x1a
 12099 1d14 22       		.byte	0x22
 12100 1d15 0A       		.byte	0xa
 12101 1d16 FCFF     		.2byte	0xfffc
 12102 1d18 1A       		.byte	0x1a
 12103 1d19 38       		.byte	0x38
ARM GAS  /tmp/ccOGUWYP.s 			page 214


 12104 1d1a 25       		.byte	0x25
 12105 1d1b 9F       		.byte	0x9f
 12106 1d1c 00000000 		.4byte	0
 12107 1d20 00000000 		.4byte	0
 12108              	.LLST164:
 12109 1d24 3E000000 		.4byte	.LVL325
 12110 1d28 4E000000 		.4byte	.LVL326
 12111 1d2c 0700     		.2byte	0x7
 12112 1d2e 73       		.byte	0x73
 12113 1d2f 00       		.sleb128 0
 12114 1d30 0A       		.byte	0xa
 12115 1d31 F8FF     		.2byte	0xfff8
 12116 1d33 1A       		.byte	0x1a
 12117 1d34 9F       		.byte	0x9f
 12118 1d35 4E000000 		.4byte	.LVL326
 12119 1d39 54000000 		.4byte	.LVL327
 12120 1d3d 0500     		.2byte	0x5
 12121 1d3f 72       		.byte	0x72
 12122 1d40 00       		.sleb128 0
 12123 1d41 38       		.byte	0x38
 12124 1d42 25       		.byte	0x25
 12125 1d43 9F       		.byte	0x9f
 12126 1d44 00000000 		.4byte	0
 12127 1d48 00000000 		.4byte	0
 12128              	.LLST165:
 12129 1d4c 00000000 		.4byte	.LVL328
 12130 1d50 10000000 		.4byte	.LVL329
 12131 1d54 0100     		.2byte	0x1
 12132 1d56 50       		.byte	0x50
 12133 1d57 10000000 		.4byte	.LVL329
 12134 1d5b 36000000 		.4byte	.LFE145
 12135 1d5f 0400     		.2byte	0x4
 12136 1d61 F3       		.byte	0xf3
 12137 1d62 01       		.uleb128 0x1
 12138 1d63 50       		.byte	0x50
 12139 1d64 9F       		.byte	0x9f
 12140 1d65 00000000 		.4byte	0
 12141 1d69 00000000 		.4byte	0
 12142              		.section	.debug_aranges,"",%progbits
 12143 0000 FC000000 		.4byte	0xfc
 12144 0004 0200     		.2byte	0x2
 12145 0006 00000000 		.4byte	.Ldebug_info0
 12146 000a 04       		.byte	0x4
 12147 000b 00       		.byte	0
 12148 000c 0000     		.2byte	0
 12149 000e 0000     		.2byte	0
 12150 0010 00000000 		.4byte	.LFB133
 12151 0014 24000000 		.4byte	.LFE133-.LFB133
 12152 0018 00000000 		.4byte	.LFB134
 12153 001c 24000000 		.4byte	.LFE134-.LFB134
 12154 0020 00000000 		.4byte	.LFB115
 12155 0024 A8000000 		.4byte	.LFE115-.LFB115
 12156 0028 00000000 		.4byte	.LFB132
 12157 002c 66000000 		.4byte	.LFE132-.LFB132
 12158 0030 00000000 		.4byte	.LFB116
 12159 0034 A8000000 		.4byte	.LFE116-.LFB116
 12160 0038 00000000 		.4byte	.LFB120
ARM GAS  /tmp/ccOGUWYP.s 			page 215


 12161 003c 02000000 		.4byte	.LFE120-.LFB120
 12162 0040 00000000 		.4byte	.LFB121
 12163 0044 10000000 		.4byte	.LFE121-.LFB121
 12164 0048 00000000 		.4byte	.LFB122
 12165 004c 0C000000 		.4byte	.LFE122-.LFB122
 12166 0050 00000000 		.4byte	.LFB123
 12167 0054 02000000 		.4byte	.LFE123-.LFB123
 12168 0058 00000000 		.4byte	.LFB124
 12169 005c 8A000000 		.4byte	.LFE124-.LFB124
 12170 0060 00000000 		.4byte	.LFB125
 12171 0064 2A020000 		.4byte	.LFE125-.LFB125
 12172 0068 00000000 		.4byte	.LFB126
 12173 006c 2C000000 		.4byte	.LFE126-.LFB126
 12174 0070 00000000 		.4byte	.LFB127
 12175 0074 A4000000 		.4byte	.LFE127-.LFB127
 12176 0078 00000000 		.4byte	.LFB128
 12177 007c D0000000 		.4byte	.LFE128-.LFB128
 12178 0080 00000000 		.4byte	.LFB129
 12179 0084 78000000 		.4byte	.LFE129-.LFB129
 12180 0088 00000000 		.4byte	.LFB130
 12181 008c 76000000 		.4byte	.LFE130-.LFB130
 12182 0090 00000000 		.4byte	.LFB119
 12183 0094 F4000000 		.4byte	.LFE119-.LFB119
 12184 0098 00000000 		.4byte	.LFB131
 12185 009c E4000000 		.4byte	.LFE131-.LFB131
 12186 00a0 00000000 		.4byte	.LFB135
 12187 00a4 78000000 		.4byte	.LFE135-.LFB135
 12188 00a8 00000000 		.4byte	.LFB136
 12189 00ac 18010000 		.4byte	.LFE136-.LFB136
 12190 00b0 00000000 		.4byte	.LFB137
 12191 00b4 88000000 		.4byte	.LFE137-.LFB137
 12192 00b8 00000000 		.4byte	.LFB138
 12193 00bc 30010000 		.4byte	.LFE138-.LFB138
 12194 00c0 00000000 		.4byte	.LFB139
 12195 00c4 BC000000 		.4byte	.LFE139-.LFB139
 12196 00c8 00000000 		.4byte	.LFB140
 12197 00cc 70010000 		.4byte	.LFE140-.LFB140
 12198 00d0 00000000 		.4byte	.LFB141
 12199 00d4 38000000 		.4byte	.LFE141-.LFB141
 12200 00d8 00000000 		.4byte	.LFB142
 12201 00dc 10000000 		.4byte	.LFE142-.LFB142
 12202 00e0 00000000 		.4byte	.LFB143
 12203 00e4 14000000 		.4byte	.LFE143-.LFB143
 12204 00e8 00000000 		.4byte	.LFB144
 12205 00ec 5A000000 		.4byte	.LFE144-.LFB144
 12206 00f0 00000000 		.4byte	.LFB145
 12207 00f4 36000000 		.4byte	.LFE145-.LFB145
 12208 00f8 00000000 		.4byte	0
 12209 00fc 00000000 		.4byte	0
 12210              		.section	.debug_ranges,"",%progbits
 12211              	.Ldebug_ranges0:
 12212 0000 2A000000 		.4byte	.LBB16
 12213 0004 5C000000 		.4byte	.LBE16
 12214 0008 60000000 		.4byte	.LBB26
 12215 000c A0000000 		.4byte	.LBE26
 12216 0010 A4000000 		.4byte	.LBB27
 12217 0014 A8000000 		.4byte	.LBE27
ARM GAS  /tmp/ccOGUWYP.s 			page 216


 12218 0018 00000000 		.4byte	0
 12219 001c 00000000 		.4byte	0
 12220 0020 70000000 		.4byte	.LBB18
 12221 0024 A0000000 		.4byte	.LBE18
 12222 0028 A4000000 		.4byte	.LBB23
 12223 002c A8000000 		.4byte	.LBE23
 12224 0030 00000000 		.4byte	0
 12225 0034 00000000 		.4byte	0
 12226 0038 14000000 		.4byte	.LBB30
 12227 003c 5C000000 		.4byte	.LBE30
 12228 0040 5E000000 		.4byte	.LBB33
 12229 0044 62000000 		.4byte	.LBE33
 12230 0048 00000000 		.4byte	0
 12231 004c 00000000 		.4byte	0
 12232 0050 2A000000 		.4byte	.LBB40
 12233 0054 5C000000 		.4byte	.LBE40
 12234 0058 60000000 		.4byte	.LBB50
 12235 005c A0000000 		.4byte	.LBE50
 12236 0060 A4000000 		.4byte	.LBB51
 12237 0064 A8000000 		.4byte	.LBE51
 12238 0068 00000000 		.4byte	0
 12239 006c 00000000 		.4byte	0
 12240 0070 70000000 		.4byte	.LBB42
 12241 0074 A0000000 		.4byte	.LBE42
 12242 0078 A4000000 		.4byte	.LBB47
 12243 007c A8000000 		.4byte	.LBE47
 12244 0080 00000000 		.4byte	0
 12245 0084 00000000 		.4byte	0
 12246 0088 10000000 		.4byte	.LBB60
 12247 008c 14000000 		.4byte	.LBE60
 12248 0090 18000000 		.4byte	.LBB73
 12249 0094 1A000000 		.4byte	.LBE73
 12250 0098 1E000000 		.4byte	.LBB74
 12251 009c 38000000 		.4byte	.LBE74
 12252 00a0 54000000 		.4byte	.LBB75
 12253 00a4 8A000000 		.4byte	.LBE75
 12254 00a8 00000000 		.4byte	0
 12255 00ac 00000000 		.4byte	0
 12256 00b0 28000000 		.4byte	.LBB62
 12257 00b4 38000000 		.4byte	.LBE62
 12258 00b8 54000000 		.4byte	.LBB69
 12259 00bc 8A000000 		.4byte	.LBE69
 12260 00c0 00000000 		.4byte	0
 12261 00c4 00000000 		.4byte	0
 12262 00c8 1C000000 		.4byte	.LBB94
 12263 00cc 1E000000 		.4byte	.LBE94
 12264 00d0 2C000000 		.4byte	.LBB122
 12265 00d4 D0000000 		.4byte	.LBE122
 12266 00d8 EE000000 		.4byte	.LBB123
 12267 00dc 2A020000 		.4byte	.LBE123
 12268 00e0 00000000 		.4byte	0
 12269 00e4 00000000 		.4byte	0
 12270 00e8 94000000 		.4byte	.LBB96
 12271 00ec BC000000 		.4byte	.LBE96
 12272 00f0 D2010000 		.4byte	.LBB119
 12273 00f4 1A020000 		.4byte	.LBE119
 12274 00f8 00000000 		.4byte	0
ARM GAS  /tmp/ccOGUWYP.s 			page 217


 12275 00fc 00000000 		.4byte	0
 12276 0100 A6000000 		.4byte	.LBB98
 12277 0104 BC000000 		.4byte	.LBE98
 12278 0108 D2010000 		.4byte	.LBB105
 12279 010c 1A020000 		.4byte	.LBE105
 12280 0110 00000000 		.4byte	0
 12281 0114 00000000 		.4byte	0
 12282 0118 50010000 		.4byte	.LBB107
 12283 011c 76010000 		.4byte	.LBE107
 12284 0120 86010000 		.4byte	.LBB118
 12285 0124 D2010000 		.4byte	.LBE118
 12286 0128 00000000 		.4byte	0
 12287 012c 00000000 		.4byte	0
 12288 0130 62010000 		.4byte	.LBB109
 12289 0134 76010000 		.4byte	.LBE109
 12290 0138 86010000 		.4byte	.LBB116
 12291 013c D2010000 		.4byte	.LBE116
 12292 0140 00000000 		.4byte	0
 12293 0144 00000000 		.4byte	0
 12294 0148 00000000 		.4byte	.LFB133
 12295 014c 24000000 		.4byte	.LFE133
 12296 0150 00000000 		.4byte	.LFB134
 12297 0154 24000000 		.4byte	.LFE134
 12298 0158 00000000 		.4byte	.LFB115
 12299 015c A8000000 		.4byte	.LFE115
 12300 0160 00000000 		.4byte	.LFB132
 12301 0164 66000000 		.4byte	.LFE132
 12302 0168 00000000 		.4byte	.LFB116
 12303 016c A8000000 		.4byte	.LFE116
 12304 0170 00000000 		.4byte	.LFB120
 12305 0174 02000000 		.4byte	.LFE120
 12306 0178 00000000 		.4byte	.LFB121
 12307 017c 10000000 		.4byte	.LFE121
 12308 0180 00000000 		.4byte	.LFB122
 12309 0184 0C000000 		.4byte	.LFE122
 12310 0188 00000000 		.4byte	.LFB123
 12311 018c 02000000 		.4byte	.LFE123
 12312 0190 00000000 		.4byte	.LFB124
 12313 0194 8A000000 		.4byte	.LFE124
 12314 0198 00000000 		.4byte	.LFB125
 12315 019c 2A020000 		.4byte	.LFE125
 12316 01a0 00000000 		.4byte	.LFB126
 12317 01a4 2C000000 		.4byte	.LFE126
 12318 01a8 00000000 		.4byte	.LFB127
 12319 01ac A4000000 		.4byte	.LFE127
 12320 01b0 00000000 		.4byte	.LFB128
 12321 01b4 D0000000 		.4byte	.LFE128
 12322 01b8 00000000 		.4byte	.LFB129
 12323 01bc 78000000 		.4byte	.LFE129
 12324 01c0 00000000 		.4byte	.LFB130
 12325 01c4 76000000 		.4byte	.LFE130
 12326 01c8 00000000 		.4byte	.LFB119
 12327 01cc F4000000 		.4byte	.LFE119
 12328 01d0 00000000 		.4byte	.LFB131
 12329 01d4 E4000000 		.4byte	.LFE131
 12330 01d8 00000000 		.4byte	.LFB135
 12331 01dc 78000000 		.4byte	.LFE135
ARM GAS  /tmp/ccOGUWYP.s 			page 218


 12332 01e0 00000000 		.4byte	.LFB136
 12333 01e4 18010000 		.4byte	.LFE136
 12334 01e8 00000000 		.4byte	.LFB137
 12335 01ec 88000000 		.4byte	.LFE137
 12336 01f0 00000000 		.4byte	.LFB138
 12337 01f4 30010000 		.4byte	.LFE138
 12338 01f8 00000000 		.4byte	.LFB139
 12339 01fc BC000000 		.4byte	.LFE139
 12340 0200 00000000 		.4byte	.LFB140
 12341 0204 70010000 		.4byte	.LFE140
 12342 0208 00000000 		.4byte	.LFB141
 12343 020c 38000000 		.4byte	.LFE141
 12344 0210 00000000 		.4byte	.LFB142
 12345 0214 10000000 		.4byte	.LFE142
 12346 0218 00000000 		.4byte	.LFB143
 12347 021c 14000000 		.4byte	.LFE143
 12348 0220 00000000 		.4byte	.LFB144
 12349 0224 5A000000 		.4byte	.LFE144
 12350 0228 00000000 		.4byte	.LFB145
 12351 022c 36000000 		.4byte	.LFE145
 12352 0230 00000000 		.4byte	0
 12353 0234 00000000 		.4byte	0
 12354              		.section	.debug_line,"",%progbits
 12355              	.Ldebug_line0:
 12356 0000 80080000 		.section	.debug_str,"MS",%progbits,1
 12356      02000902 
 12356      00000201 
 12356      FB0E0D00 
 12356      01010101 
 12357              	.LASF136:
 12358 0000 6D665F73 		.ascii	"mf_str\000"
 12358      747200
 12359              	.LASF180:
 12360 0007 67646973 		.ascii	"gdispGFillChar\000"
 12360      70474669 
 12360      6C6C4368 
 12360      617200
 12361              	.LASF58:
 12362 0016 73697A65 		.ascii	"sizetype\000"
 12362      74797065 
 12362      00
 12363              	.LASF30:
 12364 001f 73797374 		.ascii	"systime_t\000"
 12364      696D655F 
 12364      7400
 12365              	.LASF140:
 12366 0029 4D465F41 		.ascii	"MF_ALIGN_CENTER\000"
 12366      4C49474E 
 12366      5F43454E 
 12366      54455200 
 12367              	.LASF200:
 12368 0039 67646973 		.ascii	"gdisp_lld_fill_area\000"
 12368      705F6C6C 
 12368      645F6669 
 12368      6C6C5F61 
 12368      72656100 
 12369              	.LASF35:
ARM GAS  /tmp/ccOGUWYP.s 			page 219


 12370 004d 705F6374 		.ascii	"p_ctx\000"
 12370      7800
 12371              	.LASF27:
 12372 0053 74707269 		.ascii	"tprio_t\000"
 12372      6F5F7400 
 12373              	.LASF70:
 12374 005b 636F6F72 		.ascii	"coord_t\000"
 12374      645F7400 
 12375              	.LASF46:
 12376 0063 705F6D73 		.ascii	"p_msgqueue\000"
 12376      67717565 
 12376      756500
 12377              	.LASF117:
 12378 006e 506F7765 		.ascii	"Powermode\000"
 12378      726D6F64 
 12378      6500
 12379              	.LASF18:
 12380 0078 696E7433 		.ascii	"int32_t\000"
 12380      325F7400 
 12381              	.LASF86:
 12382 0080 66756C6C 		.ascii	"full_name\000"
 12382      5F6E616D 
 12382      6500
 12383              	.LASF94:
 12384 008a 6C696E65 		.ascii	"line_height\000"
 12384      5F686569 
 12384      67687400 
 12385              	.LASF207:
 12386 0096 67646973 		.ascii	"gdisp_lld_init\000"
 12386      705F6C6C 
 12386      645F696E 
 12386      697400
 12387              	.LASF115:
 12388 00a5 48656967 		.ascii	"Height\000"
 12388      687400
 12389              	.LASF137:
 12390 00ac 6D665F70 		.ascii	"mf_pixel_callback_t\000"
 12390      6978656C 
 12390      5F63616C 
 12390      6C626163 
 12390      6B5F7400 
 12391              	.LASF148:
 12392 00c0 73746174 		.ascii	"state\000"
 12392      6500
 12393              	.LASF78:
 12394 00c6 666F6E74 		.ascii	"fontDescendersHeight\000"
 12394      44657363 
 12394      656E6465 
 12394      72734865 
 12394      69676874 
 12395              	.LASF141:
 12396 00db 4D465F41 		.ascii	"MF_ALIGN_RIGHT\000"
 12396      4C49474E 
 12396      5F524947 
 12396      485400
 12397              	.LASF159:
 12398 00ea 6C696E65 		.ascii	"line_clip\000"
ARM GAS  /tmp/ccOGUWYP.s 			page 220


 12398      5F636C69 
 12398      7000
 12399              	.LASF79:
 12400 00f4 666F6E74 		.ascii	"fontLineSpacing\000"
 12400      4C696E65 
 12400      53706163 
 12400      696E6700 
 12401              	.LASF205:
 12402 0104 63684D74 		.ascii	"chMtxInit\000"
 12402      78496E69 
 12402      7400
 12403              	.LASF153:
 12404 010e 64726177 		.ascii	"drawpixel\000"
 12404      70697865 
 12404      6C00
 12405              	.LASF98:
 12406 0118 72656E64 		.ascii	"render_character\000"
 12406      65725F63 
 12406      68617261 
 12406      63746572 
 12406      00
 12407              	.LASF135:
 12408 0129 6D665F63 		.ascii	"mf_char\000"
 12408      68617200 
 12409              	.LASF121:
 12410 0131 70726976 		.ascii	"priv\000"
 12410      00
 12411              	.LASF61:
 12412 0136 6D5F6F77 		.ascii	"m_owner\000"
 12412      6E657200 
 12413              	.LASF64:
 12414 013e 65786974 		.ascii	"exitcode\000"
 12414      636F6465 
 12414      00
 12415              	.LASF3:
 12416 0147 5F5F7569 		.ascii	"__uint8_t\000"
 12416      6E74385F 
 12416      7400
 12417              	.LASF66:
 12418 0151 65776D61 		.ascii	"ewmask\000"
 12418      736B00
 12419              	.LASF147:
 12420 0158 616C7068 		.ascii	"alpha\000"
 12420      6100
 12421              	.LASF162:
 12422 015e 64696666 		.ascii	"diff\000"
 12422      00
 12423              	.LASF104:
 12424 0163 47444953 		.ascii	"GDISP_ROTATE_PORTRAIT\000"
 12424      505F524F 
 12424      54415445 
 12424      5F504F52 
 12424      54524149 
 12425              	.LASF36:
 12426 0179 705F6E65 		.ascii	"p_newer\000"
 12426      77657200 
 12427              	.LASF9:
ARM GAS  /tmp/ccOGUWYP.s 			page 221


 12428 0181 6C6F6E67 		.ascii	"long int\000"
 12428      20696E74 
 12428      00
 12429              	.LASF32:
 12430 018a 705F6E65 		.ascii	"p_next\000"
 12430      787400
 12431              	.LASF215:
 12432 0191 63684D74 		.ascii	"chMtxUnlock\000"
 12432      78556E6C 
 12432      6F636B00 
 12433              	.LASF92:
 12434 019d 62617365 		.ascii	"baseline_x\000"
 12434      6C696E65 
 12434      5F7800
 12435              	.LASF93:
 12436 01a8 62617365 		.ascii	"baseline_y\000"
 12436      6C696E65 
 12436      5F7900
 12437              	.LASF33:
 12438 01b3 705F7072 		.ascii	"p_prev\000"
 12438      657600
 12439              	.LASF24:
 12440 01ba 74737461 		.ascii	"tstate_t\000"
 12440      74655F74 
 12440      00
 12441              	.LASF49:
 12442 01c3 705F6D74 		.ascii	"p_mtxlist\000"
 12442      786C6973 
 12442      7400
 12443              	.LASF156:
 12444 01cd 67646973 		.ascii	"gdispSetDisplay\000"
 12444      70536574 
 12444      44697370 
 12444      6C617900 
 12445              	.LASF54:
 12446 01dd 72656761 		.ascii	"regarm_t\000"
 12446      726D5F74 
 12446      00
 12447              	.LASF97:
 12448 01e6 63686172 		.ascii	"character_width\000"
 12448      61637465 
 12448      725F7769 
 12448      64746800 
 12449              	.LASF208:
 12450 01f6 67667853 		.ascii	"gfxSleepMilliseconds\000"
 12450      6C656570 
 12450      4D696C6C 
 12450      69736563 
 12450      6F6E6473 
 12451              	.LASF87:
 12452 020b 73686F72 		.ascii	"short_name\000"
 12452      745F6E61 
 12452      6D6500
 12453              	.LASF187:
 12454 0216 6D657472 		.ascii	"metric\000"
 12454      696300
 12455              	.LASF197:
ARM GAS  /tmp/ccOGUWYP.s 			page 222


 12456 021d 67646973 		.ascii	"gdisp_lld_write_start\000"
 12456      705F6C6C 
 12456      645F7772 
 12456      6974655F 
 12456      73746172 
 12457              	.LASF120:
 12458 0233 47446973 		.ascii	"GDisplay\000"
 12458      706C6179 
 12458      00
 12459              	.LASF1:
 12460 023c 7369676E 		.ascii	"signed char\000"
 12460      65642063 
 12460      68617200 
 12461              	.LASF43:
 12462 0248 705F7072 		.ascii	"p_preempt\000"
 12462      65656D70 
 12462      7400
 12463              	.LASF15:
 12464 0252 75696E74 		.ascii	"uint8_t\000"
 12464      385F7400 
 12465              	.LASF107:
 12466 025a 706F7765 		.ascii	"powermode\000"
 12466      726D6F64 
 12466      6500
 12467              	.LASF69:
 12468 0264 6766784D 		.ascii	"gfxMutex\000"
 12468      75746578 
 12468      00
 12469              	.LASF29:
 12470 026d 6576656E 		.ascii	"eventmask_t\000"
 12470      746D6173 
 12470      6B5F7400 
 12471              	.LASF57:
 12472 0279 636F6E74 		.ascii	"context\000"
 12472      65787400 
 12473              	.LASF124:
 12474 0281 636F6E74 		.ascii	"controllerdisplay\000"
 12474      726F6C6C 
 12474      65726469 
 12474      73706C61 
 12474      7900
 12475              	.LASF2:
 12476 0293 756E7369 		.ascii	"unsigned char\000"
 12476      676E6564 
 12476      20636861 
 12476      7200
 12477              	.LASF91:
 12478 02a1 6D61785F 		.ascii	"max_x_advance\000"
 12478      785F6164 
 12478      76616E63 
 12478      6500
 12479              	.LASF116:
 12480 02af 4F726965 		.ascii	"Orientation\000"
 12480      6E746174 
 12480      696F6E00 
 12481              	.LASF142:
 12482 02bb 6D665F63 		.ascii	"mf_character_callback_t\000"
ARM GAS  /tmp/ccOGUWYP.s 			page 223


 12482      68617261 
 12482      63746572 
 12482      5F63616C 
 12482      6C626163 
 12483              	.LASF22:
 12484 02d3 5F426F6F 		.ascii	"_Bool\000"
 12484      6C00
 12485              	.LASF174:
 12486 02d9 76616C75 		.ascii	"value\000"
 12486      6500
 12487              	.LASF95:
 12488 02df 666C6167 		.ascii	"flags\000"
 12488      7300
 12489              	.LASF214:
 12490 02e5 5F676469 		.ascii	"_gdispDeinit\000"
 12490      73704465 
 12490      696E6974 
 12490      00
 12491              	.LASF67:
 12492 02f2 63686172 		.ascii	"char\000"
 12492      00
 12493              	.LASF90:
 12494 02f7 6D696E5F 		.ascii	"min_x_advance\000"
 12494      785F6164 
 12494      76616E63 
 12494      6500
 12495              	.LASF106:
 12496 0305 6F726965 		.ascii	"orientation_t\000"
 12496      6E746174 
 12496      696F6E5F 
 12496      7400
 12497              	.LASF34:
 12498 0313 705F7072 		.ascii	"p_prio\000"
 12498      696F00
 12499              	.LASF6:
 12500 031a 5F5F7569 		.ascii	"__uint16_t\000"
 12500      6E743136 
 12500      5F7400
 12501              	.LASF100:
 12502 0325 47444953 		.ascii	"GDISP_ROTATE_0\000"
 12502      505F524F 
 12502      54415445 
 12502      5F3000
 12503              	.LASF65:
 12504 0334 77746F62 		.ascii	"wtobjp\000"
 12504      6A7000
 12505              	.LASF212:
 12506 033b 2F686F6D 		.ascii	"/home/makkmarci/devel/ugfx/src/gdisp/gdisp.c\000"
 12506      652F6D61 
 12506      6B6B6D61 
 12506      7263692F 
 12506      64657665 
 12507              	.LASF55:
 12508 0368 73746B61 		.ascii	"stkalign_t\000"
 12508      6C69676E 
 12508      5F7400
 12509              	.LASF131:
ARM GAS  /tmp/ccOGUWYP.s 			page 224


 12510 0373 70697865 		.ascii	"pixel_t\000"
 12510      6C5F7400 
 12511              	.LASF85:
 12512 037b 6D665F66 		.ascii	"mf_font_s\000"
 12512      6F6E745F 
 12512      7300
 12513              	.LASF138:
 12514 0385 6D665F61 		.ascii	"mf_align_t\000"
 12514      6C69676E 
 12514      5F7400
 12515              	.LASF216:
 12516 0390 6D665F72 		.ascii	"mf_render_aligned\000"
 12516      656E6465 
 12516      725F616C 
 12516      69676E65 
 12516      6400
 12517              	.LASF171:
 12518 03a2 67646973 		.ascii	"gdispGSetClip\000"
 12518      70475365 
 12518      74436C69 
 12518      7000
 12519              	.LASF75:
 12520 03b0 6A757374 		.ascii	"justify\000"
 12520      69667900 
 12521              	.LASF170:
 12522 03b8 62756666 		.ascii	"buffer\000"
 12522      657200
 12523              	.LASF56:
 12524 03bf 696E7463 		.ascii	"intctx\000"
 12524      747800
 12525              	.LASF48:
 12526 03c6 705F6570 		.ascii	"p_epending\000"
 12526      656E6469 
 12526      6E6700
 12527              	.LASF196:
 12528 03d1 47444953 		.ascii	"GDISP\000"
 12528      5000
 12529              	.LASF139:
 12530 03d7 4D465F41 		.ascii	"MF_ALIGN_LEFT\000"
 12530      4C49474E 
 12530      5F4C4546 
 12530      5400
 12531              	.LASF119:
 12532 03e5 436F6E74 		.ascii	"Contrast\000"
 12532      72617374 
 12532      00
 12533              	.LASF13:
 12534 03ee 5F5F7569 		.ascii	"__uint64_t\000"
 12534      6E743634 
 12534      5F7400
 12535              	.LASF11:
 12536 03f9 6C6F6E67 		.ascii	"long unsigned int\000"
 12536      20756E73 
 12536      69676E65 
 12536      6420696E 
 12536      7400
 12537              	.LASF112:
ARM GAS  /tmp/ccOGUWYP.s 			page 225


 12538 040b 706F7765 		.ascii	"powermode_t\000"
 12538      726D6F64 
 12538      655F7400 
 12539              	.LASF108:
 12540 0417 706F7765 		.ascii	"powerOff\000"
 12540      724F6666 
 12540      00
 12541              	.LASF186:
 12542 0420 67646973 		.ascii	"gdispGetFontMetric\000"
 12542      70476574 
 12542      466F6E74 
 12542      4D657472 
 12542      696300
 12543              	.LASF172:
 12544 0433 67646973 		.ascii	"gdispGControl\000"
 12544      7047436F 
 12544      6E74726F 
 12544      6C00
 12545              	.LASF210:
 12546 0441 6D665F67 		.ascii	"mf_get_string_width\000"
 12546      65745F73 
 12546      7472696E 
 12546      675F7769 
 12546      64746800 
 12547              	.LASF96:
 12548 0455 66616C6C 		.ascii	"fallback_character\000"
 12548      6261636B 
 12548      5F636861 
 12548      72616374 
 12548      657200
 12549              	.LASF111:
 12550 0468 706F7765 		.ascii	"powerOn\000"
 12550      724F6E00 
 12551              	.LASF10:
 12552 0470 5F5F7569 		.ascii	"__uint32_t\000"
 12552      6E743332 
 12552      5F7400
 12553              	.LASF59:
 12554 047b 4D757465 		.ascii	"Mutex\000"
 12554      7800
 12555              	.LASF126:
 12556 0481 636C6970 		.ascii	"clipx0\000"
 12556      783000
 12557              	.LASF128:
 12558 0488 636C6970 		.ascii	"clipx1\000"
 12558      783100
 12559              	.LASF12:
 12560 048f 6C6F6E67 		.ascii	"long long int\000"
 12560      206C6F6E 
 12560      6720696E 
 12560      7400
 12561              	.LASF88:
 12562 049d 77696474 		.ascii	"width\000"
 12562      6800
 12563              	.LASF60:
 12564 04a3 6D5F7175 		.ascii	"m_queue\000"
 12564      65756500 
ARM GAS  /tmp/ccOGUWYP.s 			page 226


 12565              	.LASF81:
 12566 04ab 666F6E74 		.ascii	"fontMinWidth\000"
 12566      4D696E57 
 12566      69647468 
 12566      00
 12567              	.LASF192:
 12568 04b8 62675F72 		.ascii	"bg_ratio\000"
 12568      6174696F 
 12568      00
 12569              	.LASF178:
 12570 04c1 67646973 		.ascii	"gdispGDrawBox\000"
 12570      70474472 
 12570      6177426F 
 12570      7800
 12571              	.LASF127:
 12572 04cf 636C6970 		.ascii	"clipy0\000"
 12572      793000
 12573              	.LASF129:
 12574 04d6 636C6970 		.ascii	"clipy1\000"
 12574      793100
 12575              	.LASF158:
 12576 04dd 67646973 		.ascii	"gdispGDrawPixel\000"
 12576      70474472 
 12576      61775069 
 12576      78656C00 
 12577              	.LASF201:
 12578 04ed 63684D74 		.ascii	"chMtxLock\000"
 12578      784C6F63 
 12578      6B00
 12579              	.LASF125:
 12580 04f7 6D757465 		.ascii	"mutex\000"
 12580      7800
 12581              	.LASF195:
 12582 04fd 49544D5F 		.ascii	"ITM_RxBuffer\000"
 12582      52784275 
 12582      66666572 
 12582      00
 12583              	.LASF157:
 12584 050a 67646973 		.ascii	"gdispGFlush\000"
 12584      7047466C 
 12584      75736800 
 12585              	.LASF68:
 12586 0516 64656C61 		.ascii	"delaytime_t\000"
 12586      7974696D 
 12586      655F7400 
 12587              	.LASF45:
 12588 0522 705F7761 		.ascii	"p_waiting\000"
 12588      6974696E 
 12588      6700
 12589              	.LASF41:
 12590 052c 705F666C 		.ascii	"p_flags\000"
 12590      61677300 
 12591              	.LASF161:
 12592 0534 61646479 		.ascii	"addy\000"
 12592      00
 12593              	.LASF0:
 12594 0539 756E7369 		.ascii	"unsigned int\000"
ARM GAS  /tmp/ccOGUWYP.s 			page 227


 12594      676E6564 
 12594      20696E74 
 12594      00
 12595              	.LASF194:
 12596 0546 47446973 		.ascii	"GDisplayArray\000"
 12596      706C6179 
 12596      41727261 
 12596      7900
 12597              	.LASF134:
 12598 0554 6267636F 		.ascii	"bgcolor\000"
 12598      6C6F7200 
 12599              	.LASF51:
 12600 055c 705F6D70 		.ascii	"p_mpool\000"
 12600      6F6F6C00 
 12601              	.LASF198:
 12602 0564 67646973 		.ascii	"gdisp_lld_write_pos\000"
 12602      705F6C6C 
 12602      645F7772 
 12602      6974655F 
 12602      706F7300 
 12603              	.LASF80:
 12604 0578 666F6E74 		.ascii	"fontCharPadding\000"
 12604      43686172 
 12604      50616464 
 12604      696E6700 
 12605              	.LASF42:
 12606 0588 705F7265 		.ascii	"p_refs\000"
 12606      667300
 12607              	.LASF213:
 12608 058f 2F686F6D 		.ascii	"/home/makkmarci/devel/ChibiOS_2.6.5/projects/STM32F"
 12608      652F6D61 
 12608      6B6B6D61 
 12608      7263692F 
 12608      64657665 
 12609 05c2 345F4368 		.ascii	"4_ChibiOS_uGFX_gwin_2/\000"
 12609      6962694F 
 12609      535F7547 
 12609      46585F67 
 12609      77696E5F 
 12610              	.LASF53:
 12611 05d9 54687265 		.ascii	"ThreadsList\000"
 12611      6164734C 
 12611      69737400 
 12612              	.LASF102:
 12613 05e5 47444953 		.ascii	"GDISP_ROTATE_180\000"
 12613      505F524F 
 12613      54415445 
 12613      5F313830 
 12613      00
 12614              	.LASF152:
 12615 05f6 66696C6C 		.ascii	"fillcharglyph\000"
 12615      63686172 
 12615      676C7970 
 12615      6800
 12616              	.LASF44:
 12617 0604 705F7469 		.ascii	"p_time\000"
 12617      6D6500
ARM GAS  /tmp/ccOGUWYP.s 			page 228


 12618              	.LASF209:
 12619 060b 6D665F63 		.ascii	"mf_character_width\000"
 12619      68617261 
 12619      63746572 
 12619      5F776964 
 12619      746800
 12620              	.LASF166:
 12621 061e 67646973 		.ascii	"gdispGBlitArea\000"
 12621      7047426C 
 12621      69744172 
 12621      656100
 12622              	.LASF133:
 12623 062d 666F6E74 		.ascii	"font\000"
 12623      00
 12624              	.LASF164:
 12625 0632 67646973 		.ascii	"gdispGClear\000"
 12625      7047436C 
 12625      65617200 
 12626              	.LASF71:
 12627 063e 6A757374 		.ascii	"justifyLeft\000"
 12627      6966794C 
 12627      65667400 
 12628              	.LASF151:
 12629 064a 64726177 		.ascii	"drawcharglyph\000"
 12629      63686172 
 12629      676C7970 
 12629      6800
 12630              	.LASF199:
 12631 0658 67646973 		.ascii	"gdisp_lld_write_color\000"
 12631      705F6C6C 
 12631      645F7772 
 12631      6974655F 
 12631      636F6C6F 
 12632              	.LASF110:
 12633 066e 706F7765 		.ascii	"powerDeepSleep\000"
 12633      72446565 
 12633      70536C65 
 12633      657000
 12634              	.LASF181:
 12635 067d 67646973 		.ascii	"gdispGDrawString\000"
 12635      70474472 
 12635      61775374 
 12635      72696E67 
 12635      00
 12636              	.LASF50:
 12637 068e 705F7265 		.ascii	"p_realprio\000"
 12637      616C7072 
 12637      696F00
 12638              	.LASF185:
 12639 0699 67646973 		.ascii	"gdispGetDisplay\000"
 12639      70476574 
 12639      44697370 
 12639      6C617900 
 12640              	.LASF176:
 12641 06a9 5F676469 		.ascii	"_gdispInit\000"
 12641      7370496E 
 12641      697400
ARM GAS  /tmp/ccOGUWYP.s 			page 229


 12642              	.LASF146:
 12643 06b4 636F756E 		.ascii	"count\000"
 12643      7400
 12644              	.LASF14:
 12645 06ba 6C6F6E67 		.ascii	"long long unsigned int\000"
 12645      206C6F6E 
 12645      6720756E 
 12645      7369676E 
 12645      65642069 
 12646              	.LASF173:
 12647 06d1 77686174 		.ascii	"what\000"
 12647      00
 12648              	.LASF37:
 12649 06d6 705F6F6C 		.ascii	"p_older\000"
 12649      64657200 
 12650              	.LASF17:
 12651 06de 75696E74 		.ascii	"uint16_t\000"
 12651      31365F74 
 12651      00
 12652              	.LASF113:
 12653 06e7 47444953 		.ascii	"GDISPControl\000"
 12653      50436F6E 
 12653      74726F6C 
 12653      00
 12654              	.LASF28:
 12655 06f4 6D73675F 		.ascii	"msg_t\000"
 12655      7400
 12656              	.LASF26:
 12657 06fa 74736C69 		.ascii	"tslices_t\000"
 12657      6365735F 
 12657      7400
 12658              	.LASF144:
 12659 0704 686C696E 		.ascii	"hline_clip\000"
 12659      655F636C 
 12659      697000
 12660              	.LASF150:
 12661 070f 66696C6C 		.ascii	"fillarea\000"
 12661      61726561 
 12661      00
 12662              	.LASF179:
 12663 0718 67646973 		.ascii	"gdispGDrawChar\000"
 12663      70474472 
 12663      61774368 
 12663      617200
 12664              	.LASF84:
 12665 0727 666F6E74 		.ascii	"font_t\000"
 12665      5F7400
 12666              	.LASF4:
 12667 072e 5F5F696E 		.ascii	"__int16_t\000"
 12667      7431365F 
 12667      7400
 12668              	.LASF182:
 12669 0738 67646973 		.ascii	"gdispGFillString\000"
 12669      70474669 
 12669      6C6C5374 
 12669      72696E67 
 12669      00
ARM GAS  /tmp/ccOGUWYP.s 			page 230


 12670              	.LASF167:
 12671 0749 73726378 		.ascii	"srcx\000"
 12671      00
 12672              	.LASF168:
 12673 074e 73726379 		.ascii	"srcy\000"
 12673      00
 12674              	.LASF132:
 12675 0753 636F6C6F 		.ascii	"color\000"
 12675      7200
 12676              	.LASF103:
 12677 0759 47444953 		.ascii	"GDISP_ROTATE_270\000"
 12677      505F524F 
 12677      54415445 
 12677      5F323730 
 12677      00
 12678              	.LASF211:
 12679 076a 474E5520 		.ascii	"GNU C 4.8.4 20140526 (release) [ARM/embedded-4_8-br"
 12679      4320342E 
 12679      382E3420 
 12679      32303134 
 12679      30353236 
 12680 079d 616E6368 		.ascii	"anch revision 211358] -mcpu=cortex-m4 -mfloat-abi=h"
 12680      20726576 
 12680      6973696F 
 12680      6E203231 
 12680      31333538 
 12681 07d0 61726420 		.ascii	"ard -mfpu=fpv4-sp-d16 -mno-thumb-interwork -mthumb "
 12681      2D6D6670 
 12681      753D6670 
 12681      76342D73 
 12681      702D6431 
 12682 0803 2D676764 		.ascii	"-ggdb -O2 -fomit-frame-pointer -falign-functions=16"
 12682      62202D4F 
 12682      32202D66 
 12682      6F6D6974 
 12682      2D667261 
 12683 0836 202D6666 		.ascii	" -ffunction-sections -fdata-sections -fno-common -f"
 12683      756E6374 
 12683      696F6E2D 
 12683      73656374 
 12683      696F6E73 
 12684 0869 73696E67 		.ascii	"single-precision-constant\000"
 12684      6C652D70 
 12684      72656369 
 12684      73696F6E 
 12684      2D636F6E 
 12685              	.LASF23:
 12686 0883 746D6F64 		.ascii	"tmode_t\000"
 12686      655F7400 
 12687              	.LASF204:
 12688 088b 67646973 		.ascii	"gdisp_lld_control\000"
 12688      705F6C6C 
 12688      645F636F 
 12688      6E74726F 
 12688      6C00
 12689              	.LASF155:
 12690 089d 64697370 		.ascii	"display\000"
ARM GAS  /tmp/ccOGUWYP.s 			page 231


 12690      6C617900 
 12691              	.LASF203:
 12692 08a5 67646973 		.ascii	"gdisp_lld_blit_area\000"
 12692      705F6C6C 
 12692      645F626C 
 12692      69745F61 
 12692      72656100 
 12693              	.LASF122:
 12694 08b9 626F6172 		.ascii	"board\000"
 12694      6400
 12695              	.LASF130:
 12696 08bf 636F6C6F 		.ascii	"color_t\000"
 12696      725F7400 
 12697              	.LASF184:
 12698 08c7 67646973 		.ascii	"gdispGFillStringBox\000"
 12698      70474669 
 12698      6C6C5374 
 12698      72696E67 
 12698      426F7800 
 12699              	.LASF5:
 12700 08db 73686F72 		.ascii	"short int\000"
 12700      7420696E 
 12700      7400
 12701              	.LASF20:
 12702 08e5 75696E74 		.ascii	"uint64_t\000"
 12702      36345F74 
 12702      00
 12703              	.LASF99:
 12704 08ee 6F726965 		.ascii	"orientation\000"
 12704      6E746174 
 12704      696F6E00 
 12705              	.LASF193:
 12706 08fa 67646973 		.ascii	"gdispContrastColor\000"
 12706      70436F6E 
 12706      74726173 
 12706      74436F6C 
 12706      6F7200
 12707              	.LASF175:
 12708 090d 53746172 		.ascii	"StartupLogoDisplay\000"
 12708      7475704C 
 12708      6F676F44 
 12708      6973706C 
 12708      617900
 12709              	.LASF16:
 12710 0920 696E7431 		.ascii	"int16_t\000"
 12710      365F7400 
 12711              	.LASF206:
 12712 0928 6D665F72 		.ascii	"mf_render_character\000"
 12712      656E6465 
 12712      725F6368 
 12712      61726163 
 12712      74657200 
 12713              	.LASF183:
 12714 093c 67646973 		.ascii	"gdispGDrawStringBox\000"
 12714      70474472 
 12714      61775374 
 12714      72696E67 
ARM GAS  /tmp/ccOGUWYP.s 			page 232


 12714      426F7800 
 12715              	.LASF118:
 12716 0950 4261636B 		.ascii	"Backlight\000"
 12716      6C696768 
 12716      7400
 12717              	.LASF77:
 12718 095a 666F6E74 		.ascii	"fontHeight\000"
 12718      48656967 
 12718      687400
 12719              	.LASF21:
 12720 0965 626F6F6C 		.ascii	"bool_t\000"
 12720      5F7400
 12721              	.LASF31:
 12722 096c 54687265 		.ascii	"Thread\000"
 12722      616400
 12723              	.LASF149:
 12724 0973 766C696E 		.ascii	"vline_clip\000"
 12724      655F636C 
 12724      697000
 12725              	.LASF25:
 12726 097e 74726566 		.ascii	"trefs_t\000"
 12726      735F7400 
 12727              	.LASF109:
 12728 0986 706F7765 		.ascii	"powerSleep\000"
 12728      72536C65 
 12728      657000
 12729              	.LASF177:
 12730 0991 626C6B73 		.ascii	"blks\000"
 12730      00
 12731              	.LASF19:
 12732 0996 75696E74 		.ascii	"uint32_t\000"
 12732      33325F74 
 12732      00
 12733              	.LASF160:
 12734 099f 61646478 		.ascii	"addx\000"
 12734      00
 12735              	.LASF163:
 12736 09a4 67646973 		.ascii	"gdispGDrawLine\000"
 12736      70474472 
 12736      61774C69 
 12736      6E6500
 12737              	.LASF73:
 12738 09b3 6A757374 		.ascii	"justifyRight\000"
 12738      69667952 
 12738      69676874 
 12738      00
 12739              	.LASF52:
 12740 09c0 54687265 		.ascii	"ThreadsQueue\000"
 12740      61647351 
 12740      75657565 
 12740      00
 12741              	.LASF83:
 12742 09cd 666F6E74 		.ascii	"fontmetric_t\000"
 12742      6D657472 
 12742      69635F74 
 12742      00
 12743              	.LASF82:
ARM GAS  /tmp/ccOGUWYP.s 			page 233


 12744 09da 666F6E74 		.ascii	"fontMaxWidth\000"
 12744      4D617857 
 12744      69647468 
 12744      00
 12745              	.LASF169:
 12746 09e7 73726363 		.ascii	"srccx\000"
 12746      7800
 12747              	.LASF143:
 12748 09ed 64726177 		.ascii	"drawpixel_clip\000"
 12748      70697865 
 12748      6C5F636C 
 12748      697000
 12749              	.LASF202:
 12750 09fc 67646973 		.ascii	"gdisp_lld_write_stop\000"
 12750      705F6C6C 
 12750      645F7772 
 12750      6974655F 
 12750      73746F70 
 12751              	.LASF63:
 12752 0a11 7264796D 		.ascii	"rdymsg\000"
 12752      736700
 12753              	.LASF7:
 12754 0a18 73686F72 		.ascii	"short unsigned int\000"
 12754      7420756E 
 12754      7369676E 
 12754      65642069 
 12754      6E7400
 12755              	.LASF188:
 12756 0a2b 67646973 		.ascii	"gdispGetCharWidth\000"
 12756      70476574 
 12756      43686172 
 12756      57696474 
 12756      6800
 12757              	.LASF154:
 12758 0a3d 73657467 		.ascii	"setglobalwindow\000"
 12758      6C6F6261 
 12758      6C77696E 
 12758      646F7700 
 12759              	.LASF191:
 12760 0a4d 66675F72 		.ascii	"fg_ratio\000"
 12760      6174696F 
 12760      00
 12761              	.LASF72:
 12762 0a56 6A757374 		.ascii	"justifyCenter\000"
 12762      69667943 
 12762      656E7465 
 12762      7200
 12763              	.LASF101:
 12764 0a64 47444953 		.ascii	"GDISP_ROTATE_90\000"
 12764      505F524F 
 12764      54415445 
 12764      5F393000 
 12765              	.LASF39:
 12766 0a74 705F7374 		.ascii	"p_stklimit\000"
 12766      6B6C696D 
 12766      697400
 12767              	.LASF189:
ARM GAS  /tmp/ccOGUWYP.s 			page 234


 12768 0a7f 67646973 		.ascii	"gdispGetStringWidth\000"
 12768      70476574 
 12768      53747269 
 12768      6E675769 
 12768      64746800 
 12769              	.LASF8:
 12770 0a93 5F5F696E 		.ascii	"__int32_t\000"
 12770      7433325F 
 12770      7400
 12771              	.LASF114:
 12772 0a9d 57696474 		.ascii	"Width\000"
 12772      6800
 12773              	.LASF105:
 12774 0aa3 47444953 		.ascii	"GDISP_ROTATE_LANDSCAPE\000"
 12774      505F524F 
 12774      54415445 
 12774      5F4C414E 
 12774      44534341 
 12775              	.LASF190:
 12776 0aba 67646973 		.ascii	"gdispBlendColor\000"
 12776      70426C65 
 12776      6E64436F 
 12776      6C6F7200 
 12777              	.LASF165:
 12778 0aca 67646973 		.ascii	"gdispGFillArea\000"
 12778      70474669 
 12778      6C6C4172 
 12778      656100
 12779              	.LASF38:
 12780 0ad9 705F6E61 		.ascii	"p_name\000"
 12780      6D6500
 12781              	.LASF74:
 12782 0ae0 6A757374 		.ascii	"justify_t\000"
 12782      6966795F 
 12782      7400
 12783              	.LASF123:
 12784 0aea 73797374 		.ascii	"systemdisplay\000"
 12784      656D6469 
 12784      73706C61 
 12784      7900
 12785              	.LASF62:
 12786 0af8 6D5F6E65 		.ascii	"m_next\000"
 12786      787400
 12787              	.LASF76:
 12788 0aff 666F6E74 		.ascii	"fontmetric\000"
 12788      6D657472 
 12788      696300
 12789              	.LASF47:
 12790 0b0a 705F6D73 		.ascii	"p_msg\000"
 12790      6700
 12791              	.LASF89:
 12792 0b10 68656967 		.ascii	"height\000"
 12792      687400
 12793              	.LASF145:
 12794 0b17 64726177 		.ascii	"drawcharline\000"
 12794      63686172 
 12794      6C696E65 
ARM GAS  /tmp/ccOGUWYP.s 			page 235


 12794      00
 12795              	.LASF40:
 12796 0b24 705F7374 		.ascii	"p_state\000"
 12796      61746500 
 12797              		.ident	"GCC: (GNU Tools for ARM Embedded Processors) 4.8.4 20140526 (release) [ARM/embedded-4_8-br
ARM GAS  /tmp/ccOGUWYP.s 			page 236


DEFINED SYMBOLS
                            *ABS*:00000000 gdisp.c
     /tmp/ccOGUWYP.s:21     .text.drawcharglyph:00000000 $t
     /tmp/ccOGUWYP.s:26     .text.drawcharglyph:00000000 drawcharglyph
     /tmp/ccOGUWYP.s:68     .text.drawcharglyph:00000020 $d
     /tmp/ccOGUWYP.s:300    .text.drawcharline:00000000 drawcharline
     /tmp/ccOGUWYP.s:73     .text.fillcharglyph:00000000 $t
     /tmp/ccOGUWYP.s:78     .text.fillcharglyph:00000000 fillcharglyph
     /tmp/ccOGUWYP.s:119    .text.fillcharglyph:00000020 $d
     /tmp/ccOGUWYP.s:124    .text.hline_clip:00000000 $t
     /tmp/ccOGUWYP.s:129    .text.hline_clip:00000000 hline_clip
     /tmp/ccOGUWYP.s:295    .text.drawcharline:00000000 $t
     /tmp/ccOGUWYP.s:394    .text.vline_clip:00000000 $t
     /tmp/ccOGUWYP.s:399    .text.vline_clip:00000000 vline_clip
     /tmp/ccOGUWYP.s:565    .text._gdispDeinit:00000000 $t
     /tmp/ccOGUWYP.s:571    .text._gdispDeinit:00000000 _gdispDeinit
     /tmp/ccOGUWYP.s:583    .text.gdispGetDisplay:00000000 $t
     /tmp/ccOGUWYP.s:589    .text.gdispGetDisplay:00000000 gdispGetDisplay
     /tmp/ccOGUWYP.s:610    .text.gdispGetDisplay:0000000c $d
     /tmp/ccOGUWYP.s:615    .text.gdispSetDisplay:00000000 $t
     /tmp/ccOGUWYP.s:621    .text.gdispSetDisplay:00000000 gdispSetDisplay
     /tmp/ccOGUWYP.s:639    .text.gdispSetDisplay:00000008 $d
     /tmp/ccOGUWYP.s:644    .text.gdispGFlush:00000000 $t
     /tmp/ccOGUWYP.s:650    .text.gdispGFlush:00000000 gdispGFlush
     /tmp/ccOGUWYP.s:663    .text.gdispGDrawPixel:00000000 $t
     /tmp/ccOGUWYP.s:669    .text.gdispGDrawPixel:00000000 gdispGDrawPixel
     /tmp/ccOGUWYP.s:817    .text.gdispGDrawLine:00000000 $t
     /tmp/ccOGUWYP.s:823    .text.gdispGDrawLine:00000000 gdispGDrawLine
     /tmp/ccOGUWYP.s:1306   .text.gdispGClear:00000000 $t
     /tmp/ccOGUWYP.s:1312   .text.gdispGClear:00000000 gdispGClear
     /tmp/ccOGUWYP.s:1364   .text.gdispGFillArea:00000000 $t
     /tmp/ccOGUWYP.s:1370   .text.gdispGFillArea:00000000 gdispGFillArea
     /tmp/ccOGUWYP.s:1493   .text.gdispGBlitArea:00000000 $t
     /tmp/ccOGUWYP.s:1499   .text.gdispGBlitArea:00000000 gdispGBlitArea
     /tmp/ccOGUWYP.s:1647   .text.gdispGSetClip:00000000 $t
     /tmp/ccOGUWYP.s:1653   .text.gdispGSetClip:00000000 gdispGSetClip
     /tmp/ccOGUWYP.s:1764   .text.gdispGControl:00000000 $t
     /tmp/ccOGUWYP.s:1770   .text.gdispGControl:00000000 gdispGControl
     /tmp/ccOGUWYP.s:1871   .text._gdispInit:00000000 $t
     /tmp/ccOGUWYP.s:1877   .text._gdispInit:00000000 _gdispInit
     /tmp/ccOGUWYP.s:2034   .text._gdispInit:000000ec $d
     /tmp/ccOGUWYP.s:2040   .text.gdispGDrawBox:00000000 $t
     /tmp/ccOGUWYP.s:2046   .text.gdispGDrawBox:00000000 gdispGDrawBox
     /tmp/ccOGUWYP.s:2210   .text.gdispGDrawChar:00000000 $t
     /tmp/ccOGUWYP.s:2216   .text.gdispGDrawChar:00000000 gdispGDrawChar
     /tmp/ccOGUWYP.s:2308   .text.gdispGDrawChar:00000074 $d
     /tmp/ccOGUWYP.s:2313   .text.gdispGFillChar:00000000 $t
     /tmp/ccOGUWYP.s:2319   .text.gdispGFillChar:00000000 gdispGFillChar
     /tmp/ccOGUWYP.s:2498   .text.gdispGFillChar:00000114 $d
     /tmp/ccOGUWYP.s:2503   .text.gdispGDrawString:00000000 $t
     /tmp/ccOGUWYP.s:2509   .text.gdispGDrawString:00000000 gdispGDrawString
     /tmp/ccOGUWYP.s:2603   .text.gdispGDrawString:00000084 $d
     /tmp/ccOGUWYP.s:2608   .text.gdispGFillString:00000000 $t
     /tmp/ccOGUWYP.s:2614   .text.gdispGFillString:00000000 gdispGFillString
     /tmp/ccOGUWYP.s:2806   .text.gdispGFillString:0000012c $d
     /tmp/ccOGUWYP.s:2811   .text.gdispGDrawStringBox:00000000 $t
     /tmp/ccOGUWYP.s:2817   .text.gdispGDrawStringBox:00000000 gdispGDrawStringBox
ARM GAS  /tmp/ccOGUWYP.s 			page 237


     /tmp/ccOGUWYP.s:2954   .text.gdispGDrawStringBox:000000b8 $d
     /tmp/ccOGUWYP.s:2959   .text.gdispGFillStringBox:00000000 $t
     /tmp/ccOGUWYP.s:2965   .text.gdispGFillStringBox:00000000 gdispGFillStringBox
     /tmp/ccOGUWYP.s:3211   .text.gdispGFillStringBox:0000016c $d
     /tmp/ccOGUWYP.s:3216   .text.gdispGetFontMetric:00000000 $t
     /tmp/ccOGUWYP.s:3222   .text.gdispGetFontMetric:00000000 gdispGetFontMetric
     /tmp/ccOGUWYP.s:3235   .text.gdispGetFontMetric:00000008 $d
     /tmp/ccOGUWYP.s:3241   .text.gdispGetFontMetric:0000000e $t
     /tmp/ccOGUWYP.s:3296   .text.gdispGetCharWidth:00000000 $t
     /tmp/ccOGUWYP.s:3302   .text.gdispGetCharWidth:00000000 gdispGetCharWidth
     /tmp/ccOGUWYP.s:3329   .text.gdispGetStringWidth:00000000 $t
     /tmp/ccOGUWYP.s:3335   .text.gdispGetStringWidth:00000000 gdispGetStringWidth
     /tmp/ccOGUWYP.s:3366   .text.gdispBlendColor:00000000 $t
     /tmp/ccOGUWYP.s:3372   .text.gdispBlendColor:00000000 gdispBlendColor
     /tmp/ccOGUWYP.s:3453   .text.gdispContrastColor:00000000 $t
     /tmp/ccOGUWYP.s:3459   .text.gdispContrastColor:00000000 gdispContrastColor
     /tmp/ccOGUWYP.s:3507   .data.GDISP:00000000 GDISP
     /tmp/ccOGUWYP.s:3503   .data.GDISP:00000000 $d
     /tmp/ccOGUWYP.s:3584   .bss.GDisplayArray:00000000 GDisplayArray
     /tmp/ccOGUWYP.s:3510   .rodata.blks.7903:00000000 $d
     /tmp/ccOGUWYP.s:3514   .rodata.blks.7903:00000000 blks.7903
     /tmp/ccOGUWYP.s:3580   .bss.GDisplayArray:00000000 $d
                     .debug_frame:00000010 $d
     /tmp/ccOGUWYP.s:72     .text.drawcharglyph:00000024 $t
     /tmp/ccOGUWYP.s:123    .text.fillcharglyph:00000024 $t
     /tmp/ccOGUWYP.s:643    .text.gdispSetDisplay:0000000c $t
     /tmp/ccOGUWYP.s:2039   .text._gdispInit:000000f4 $t
     /tmp/ccOGUWYP.s:2312   .text.gdispGDrawChar:00000078 $t
     /tmp/ccOGUWYP.s:2502   .text.gdispGFillChar:00000118 $t
     /tmp/ccOGUWYP.s:2607   .text.gdispGDrawString:00000088 $t
     /tmp/ccOGUWYP.s:2958   .text.gdispGDrawStringBox:000000bc $t

UNDEFINED SYMBOLS
mf_render_character
gdisp_lld_fill_area
gdisp_lld_write_start
gdisp_lld_write_pos
gdisp_lld_write_color
chMtxLock
gdisp_lld_write_stop
chMtxUnlock
gdisp_lld_blit_area
gdisp_lld_control
chMtxInit
gdisp_lld_init
gfxSleepMilliseconds
mf_character_width
mf_get_string_width
mf_render_aligned
