ARM GAS  /tmp/ccO905hp.s 			page 1


   1              		.syntax unified
   2              		.cpu cortex-m4
   3              		.eabi_attribute 27, 3
   4              		.eabi_attribute 28, 1
   5              		.fpu fpv4-sp-d16
   6              		.eabi_attribute 20, 1
   7              		.eabi_attribute 21, 1
   8              		.eabi_attribute 23, 3
   9              		.eabi_attribute 24, 1
  10              		.eabi_attribute 25, 1
  11              		.eabi_attribute 26, 1
  12              		.eabi_attribute 30, 2
  13              		.eabi_attribute 34, 1
  14              		.eabi_attribute 18, 4
  15              		.thumb
  16              		.file	"gevent.c"
  17              		.text
  18              	.Ltext0:
  19              		.cfi_sections	.debug_frame
  20              		.section	.text.deleteAssignments,"ax",%progbits
  21              		.align	2
  22              		.p2align 4,,15
  23              		.thumb
  24              		.thumb_func
  25              		.type	deleteAssignments, %function
  26              	deleteAssignments:
  27              	.LFB111:
  28              		.file 1 "/home/makkmarci/devel/ugfx/src/gevent/gevent.c"
  29              		.loc 1 33 0
  30              		.cfi_startproc
  31              		@ args = 0, pretend = 0, frame = 0
  32              		@ frame_needed = 0, uses_anonymous_args = 0
  33              	.LVL0:
  34 0000 2DE9F843 		push	{r3, r4, r5, r6, r7, r8, r9, lr}
  35              		.cfi_def_cfa_offset 32
  36              		.cfi_offset 3, -32
  37              		.cfi_offset 4, -28
  38              		.cfi_offset 5, -24
  39              		.cfi_offset 6, -20
  40              		.cfi_offset 7, -16
  41              		.cfi_offset 8, -12
  42              		.cfi_offset 9, -8
  43              		.cfi_offset 14, -4
  44 0004 1C4C     		ldr	r4, .L18
  45              	.LVL1:
  46              		.loc 1 33 0
  47 0006 0546     		mov	r5, r0
  48 0008 0F46     		mov	r7, r1
  49 000a 04F5F876 		add	r6, r4, #496
  50              		.loc 1 44 0
  51 000e 4FF00008 		mov	r8, #0
  52              		.loc 1 40 0
  53 0012 4FF00109 		mov	r9, #1
  54              		.loc 1 37 0
  55 0016 55B1     		cbz	r5, .L2
  56              	.LVL2:
  57              	.L15:
ARM GAS  /tmp/ccO905hp.s 			page 2


  58              		.loc 1 37 0 is_stmt 0 discriminator 2
  59 0018 54F8103C 		ldr	r3, [r4, #-16]
  60 001c AB42     		cmp	r3, r5
  61 001e 06D0     		beq	.L2
  62              	.L3:
  63              	.LVL3:
  64              		.loc 1 36 0 is_stmt 1
  65 0020 B442     		cmp	r4, r6
  66 0022 04F11003 		add	r3, r4, #16
  67 0026 12D2     		bcs	.L1
  68              	.L17:
  69 0028 1C46     		mov	r4, r3
  70              	.LVL4:
  71              		.loc 1 37 0
  72 002a 002D     		cmp	r5, #0
  73 002c F4D1     		bne	.L15
  74              	.LVL5:
  75              	.L2:
  76              		.loc 1 37 0 is_stmt 0 discriminator 1
  77 002e 1FB1     		cbz	r7, .L4
  78 0030 54F80C3C 		ldr	r3, [r4, #-12]
  79 0034 BB42     		cmp	r3, r7
  80 0036 F3D1     		bne	.L3
  81              	.L4:
  82              		.loc 1 38 0 is_stmt 1
  83 0038 54F8100C 		ldr	r0, [r4, #-16]
  84 003c 8368     		ldr	r3, [r0, #8]
  85 003e 002B     		cmp	r3, #0
  86 0040 07DB     		blt	.L16
  87              	.L5:
  88              		.loc 1 36 0
  89 0042 B442     		cmp	r4, r6
  90              		.loc 1 44 0
  91 0044 44F8108C 		str	r8, [r4, #-16]
  92              	.LVL6:
  93 0048 04F11003 		add	r3, r4, #16
  94              		.loc 1 36 0
  95 004c ECD3     		bcc	.L17
  96              	.L1:
  97 004e BDE8F883 		pop	{r3, r4, r5, r6, r7, r8, r9, pc}
  98              	.LVL7:
  99              	.L16:
 100              		.loc 1 39 0
 101 0052 4FF0FF31 		mov	r1, #-1
 102 0056 1030     		adds	r0, r0, #16
 103 0058 FFF7FEFF 		bl	gfxSemWait
 104              	.LVL8:
 105              		.loc 1 40 0
 106 005c 54F8103C 		ldr	r3, [r4, #-16]
 107 0060 A3F82890 		strh	r9, [r3, #40]	@ movhi
 108              		.loc 1 41 0
 109 0064 54F8100C 		ldr	r0, [r4, #-16]
 110 0068 FFF7FEFF 		bl	gfxSemSignal
 111              	.LVL9:
 112              		.loc 1 42 0
 113 006c 54F8100C 		ldr	r0, [r4, #-16]
 114 0070 1030     		adds	r0, r0, #16
ARM GAS  /tmp/ccO905hp.s 			page 3


 115 0072 FFF7FEFF 		bl	gfxSemSignal
 116              	.LVL10:
 117 0076 E4E7     		b	.L5
 118              	.L19:
 119              		.align	2
 120              	.L18:
 121 0078 10000000 		.word	.LANCHOR0+16
 122              		.cfi_endproc
 123              	.LFE111:
 124              		.size	deleteAssignments, .-deleteAssignments
 125 007c AFF30080 		.section	.text._geventInit,"ax",%progbits
 126              		.align	2
 127              		.p2align 4,,15
 128              		.global	_geventInit
 129              		.thumb
 130              		.thumb_func
 131              		.type	_geventInit, %function
 132              	_geventInit:
 133              	.LFB112:
 134              		.loc 1 50 0
 135              		.cfi_startproc
 136              		@ args = 0, pretend = 0, frame = 0
 137              		@ frame_needed = 0, uses_anonymous_args = 0
 138              		@ link register save eliminated.
 139              		.loc 1 51 0
 140 0000 0148     		ldr	r0, .L21
 141 0002 FFF7FEBF 		b	chMtxInit
 142              	.LVL11:
 143              	.L22:
 144 0006 00BF     		.align	2
 145              	.L21:
 146 0008 00000000 		.word	.LANCHOR1
 147              		.cfi_endproc
 148              	.LFE112:
 149              		.size	_geventInit, .-_geventInit
 150 000c AFF30080 		.section	.text._geventDeinit,"ax",%progbits
 151              		.align	2
 152              		.p2align 4,,15
 153              		.global	_geventDeinit
 154              		.thumb
 155              		.thumb_func
 156              		.type	_geventDeinit, %function
 157              	_geventDeinit:
 158              	.LFB113:
 159              		.loc 1 55 0
 160              		.cfi_startproc
 161              		@ args = 0, pretend = 0, frame = 0
 162              		@ frame_needed = 0, uses_anonymous_args = 0
 163              		@ link register save eliminated.
 164 0000 7047     		bx	lr
 165              		.cfi_endproc
 166              	.LFE113:
 167              		.size	_geventDeinit, .-_geventDeinit
 168 0002 00BFAFF3 		.section	.text.geventListenerInit,"ax",%progbits
 168      0080AFF3 
 168      0080AFF3 
 168      0080
ARM GAS  /tmp/ccO905hp.s 			page 4


 169              		.align	2
 170              		.p2align 4,,15
 171              		.global	geventListenerInit
 172              		.thumb
 173              		.thumb_func
 174              		.type	geventListenerInit, %function
 175              	geventListenerInit:
 176              	.LFB114:
 177              		.loc 1 59 0
 178              		.cfi_startproc
 179              		@ args = 0, pretend = 0, frame = 0
 180              		@ frame_needed = 0, uses_anonymous_args = 0
 181              	.LVL12:
 182              		.loc 1 59 0
 183 0000 10B5     		push	{r4, lr}
 184              		.cfi_def_cfa_offset 8
 185              		.cfi_offset 4, -8
 186              		.cfi_offset 14, -4
 187              		.loc 1 60 0
 188 0002 0021     		movs	r1, #0
 189 0004 6FF00042 		mvn	r2, #-2147483648
 190              		.loc 1 59 0
 191 0008 0446     		mov	r4, r0
 192              		.loc 1 60 0
 193 000a FFF7FEFF 		bl	gfxSemInit
 194              	.LVL13:
 195              		.loc 1 61 0
 196 000e 0121     		movs	r1, #1
 197 0010 04F11000 		add	r0, r4, #16
 198 0014 0A46     		mov	r2, r1
 199 0016 FFF7FEFF 		bl	gfxSemInit
 200              	.LVL14:
 201              		.loc 1 62 0
 202 001a 0023     		movs	r3, #0
 203              		.loc 1 63 0
 204 001c 2385     		strh	r3, [r4, #40]	@ movhi
 205              		.loc 1 62 0
 206 001e 2362     		str	r3, [r4, #32]
 207              		.loc 1 63 0
 208 0020 10BD     		pop	{r4, pc}
 209              		.cfi_endproc
 210              	.LFE114:
 211              		.size	geventListenerInit, .-geventListenerInit
 212              		.section	.text.geventAttachSource,"ax",%progbits
 213              		.align	2
 214              		.p2align 4,,15
 215              		.global	geventAttachSource
 216              		.thumb
 217              		.thumb_func
 218              		.type	geventAttachSource, %function
 219              	geventAttachSource:
 220              	.LFB115:
 221              		.loc 1 66 0
 222              		.cfi_startproc
 223              		@ args = 0, pretend = 0, frame = 0
 224              		@ frame_needed = 0, uses_anonymous_args = 0
 225              	.LVL15:
ARM GAS  /tmp/ccO905hp.s 			page 5


 226 0000 2DE9F843 		push	{r3, r4, r5, r6, r7, r8, r9, lr}
 227              		.cfi_def_cfa_offset 32
 228              		.cfi_offset 3, -32
 229              		.cfi_offset 4, -28
 230              		.cfi_offset 5, -24
 231              		.cfi_offset 6, -20
 232              		.cfi_offset 7, -16
 233              		.cfi_offset 8, -12
 234              		.cfi_offset 9, -8
 235              		.cfi_offset 14, -4
 236              		.loc 1 70 0
 237 0004 0746     		mov	r7, r0
 238              		.loc 1 66 0
 239 0006 8846     		mov	r8, r1
 240 0008 9146     		mov	r9, r2
 241              		.loc 1 70 0
 242 000a 0028     		cmp	r0, #0
 243 000c 44D0     		beq	.L34
 244              		.loc 1 70 0 is_stmt 0 discriminator 1
 245 000e 81B3     		cbz	r1, .L35
 246              		.loc 1 75 0 is_stmt 1
 247 0010 2248     		ldr	r0, .L47
 248              	.LVL16:
 249 0012 FFF7FEFF 		bl	chMtxLock
 250              	.LVL17:
 251 0016 224B     		ldr	r3, .L47+4
 252              		.loc 1 79 0
 253 0018 A3F11004 		sub	r4, r3, #16
 254 001c 04F5007E 		add	lr, r4, #512
 255              		.loc 1 78 0
 256 0020 0026     		movs	r6, #0
 257 0022 05E0     		b	.L31
 258              	.LVL18:
 259              	.L27:
 260              		.loc 1 89 0
 261 0024 7EB1     		cbz	r6, .L44
 262              	.LVL19:
 263              	.L29:
 264              		.loc 1 79 0
 265 0026 1034     		adds	r4, r4, #16
 266              	.LVL20:
 267 0028 7445     		cmp	r4, lr
 268 002a 03F11003 		add	r3, r3, #16
 269 002e 12D2     		bcs	.L45
 270              	.LVL21:
 271              	.L31:
 272              		.loc 1 81 0
 273 0030 53F8105C 		ldr	r5, [r3, #-16]
 274 0034 BD42     		cmp	r5, r7
 275 0036 F5D1     		bne	.L27
 276              		.loc 1 81 0 is_stmt 0 discriminator 1
 277 0038 53F80C5C 		ldr	r5, [r3, #-12]
 278 003c 4545     		cmp	r5, r8
 279 003e 1BD0     		beq	.L46
 280              		.loc 1 89 0 is_stmt 1
 281 0040 002E     		cmp	r6, #0
 282 0042 F0D1     		bne	.L29
ARM GAS  /tmp/ccO905hp.s 			page 6


 283 0044 00E0     		b	.L33
 284              	.L44:
 285              		.loc 1 89 0 is_stmt 0 discriminator 1
 286 0046 95B1     		cbz	r5, .L36
 287              	.L33:
 288              		.loc 1 79 0 is_stmt 1
 289 0048 1034     		adds	r4, r4, #16
 290              	.LVL22:
 291 004a 7445     		cmp	r4, lr
 292 004c 4FF00006 		mov	r6, #0
 293              	.LVL23:
 294 0050 03F11003 		add	r3, r3, #16
 295 0054 ECD3     		bcc	.L31
 296              	.L45:
 297              		.loc 1 94 0
 298 0056 1EB1     		cbz	r6, .L32
 299              		.loc 1 97 0
 300 0058 86E88003 		stmia	r6, {r7, r8, r9}
 301              		.loc 1 98 0
 302 005c 0023     		movs	r3, #0
 303 005e F360     		str	r3, [r6, #12]
 304              	.L32:
 305              		.loc 1 100 0
 306 0060 FFF7FEFF 		bl	chMtxUnlock
 307              	.LVL24:
 308              		.loc 1 102 0
 309 0064 301C     		adds	r0, r6, #0
 310 0066 18BF     		it	ne
 311 0068 0120     		movne	r0, #1
 312 006a BDE8F883 		pop	{r3, r4, r5, r6, r7, r8, r9, pc}
 313              	.LVL25:
 314              	.L36:
 315 006e 2646     		mov	r6, r4
 316              	.LVL26:
 317 0070 D9E7     		b	.L29
 318              	.LVL27:
 319              	.L35:
 320              		.loc 1 72 0
 321 0072 0846     		mov	r0, r1
 322              	.LVL28:
 323 0074 BDE8F883 		pop	{r3, r4, r5, r6, r7, r8, r9, pc}
 324              	.LVL29:
 325              	.L46:
 326              		.loc 1 83 0
 327 0078 1037     		adds	r7, r7, #16
 328              	.LVL30:
 329 007a 4FF0FF31 		mov	r1, #-1
 330 007e 3846     		mov	r0, r7
 331 0080 FFF7FEFF 		bl	gfxSemWait
 332              	.LVL31:
 333              		.loc 1 85 0
 334 0084 3846     		mov	r0, r7
 335              		.loc 1 84 0
 336 0086 C4F80890 		str	r9, [r4, #8]
 337              		.loc 1 85 0
 338 008a FFF7FEFF 		bl	gfxSemSignal
 339              	.LVL32:
ARM GAS  /tmp/ccO905hp.s 			page 7


 340              		.loc 1 86 0
 341 008e FFF7FEFF 		bl	chMtxUnlock
 342              	.LVL33:
 343              		.loc 1 87 0
 344 0092 0120     		movs	r0, #1
 345 0094 BDE8F883 		pop	{r3, r4, r5, r6, r7, r8, r9, pc}
 346              	.LVL34:
 347              	.L34:
 348 0098 BDE8F883 		pop	{r3, r4, r5, r6, r7, r8, r9, pc}
 349              	.L48:
 350              		.align	2
 351              	.L47:
 352 009c 00000000 		.word	.LANCHOR1
 353 00a0 10000000 		.word	.LANCHOR0+16
 354              		.cfi_endproc
 355              	.LFE115:
 356              		.size	geventAttachSource, .-geventAttachSource
 357 00a4 AFF30080 		.section	.text.geventDetachSource,"ax",%progbits
 357      AFF30080 
 357      AFF30080 
 358              		.align	2
 359              		.p2align 4,,15
 360              		.global	geventDetachSource
 361              		.thumb
 362              		.thumb_func
 363              		.type	geventDetachSource, %function
 364              	geventDetachSource:
 365              	.LFB116:
 366              		.loc 1 105 0
 367              		.cfi_startproc
 368              		@ args = 0, pretend = 0, frame = 0
 369              		@ frame_needed = 0, uses_anonymous_args = 0
 370              	.LVL35:
 371 0000 38B5     		push	{r3, r4, r5, lr}
 372              		.cfi_def_cfa_offset 16
 373              		.cfi_offset 3, -16
 374              		.cfi_offset 4, -12
 375              		.cfi_offset 5, -8
 376              		.cfi_offset 14, -4
 377              		.loc 1 106 0
 378 0002 0446     		mov	r4, r0
 379              		.loc 1 105 0
 380 0004 0D46     		mov	r5, r1
 381              		.loc 1 106 0
 382 0006 58B1     		cbz	r0, .L49
 383              		.loc 1 107 0
 384 0008 0F48     		ldr	r0, .L53
 385              	.LVL36:
 386 000a FFF7FEFF 		bl	chMtxLock
 387              	.LVL37:
 388              		.loc 1 108 0
 389 000e 2046     		mov	r0, r4
 390 0010 2946     		mov	r1, r5
 391 0012 FFF7FEFF 		bl	deleteAssignments
 392              	.LVL38:
 393              		.loc 1 109 0
 394 0016 25B1     		cbz	r5, .L52
ARM GAS  /tmp/ccO905hp.s 			page 8


 395              	.LVL39:
 396              	.L51:
 397              		.loc 1 117 0
 398 0018 BDE83840 		pop	{r3, r4, r5, lr}
 399              	.LVL40:
 400              		.loc 1 115 0
 401 001c FFF7FEBF 		b	chMtxUnlock
 402              	.LVL41:
 403              	.L49:
 404 0020 38BD     		pop	{r3, r4, r5, pc}
 405              	.LVL42:
 406              	.L52:
 407              		.loc 1 109 0 discriminator 1
 408 0022 A368     		ldr	r3, [r4, #8]
 409 0024 002B     		cmp	r3, #0
 410 0026 F7DA     		bge	.L51
 411              		.loc 1 110 0
 412 0028 04F11005 		add	r5, r4, #16
 413              	.LVL43:
 414 002c 4FF0FF31 		mov	r1, #-1
 415 0030 2846     		mov	r0, r5
 416 0032 FFF7FEFF 		bl	gfxSemWait
 417              	.LVL44:
 418              		.loc 1 111 0
 419 0036 0123     		movs	r3, #1
 420              		.loc 1 112 0
 421 0038 2046     		mov	r0, r4
 422              		.loc 1 111 0
 423 003a 2385     		strh	r3, [r4, #40]	@ movhi
 424              		.loc 1 112 0
 425 003c FFF7FEFF 		bl	gfxSemSignal
 426              	.LVL45:
 427              		.loc 1 113 0
 428 0040 2846     		mov	r0, r5
 429 0042 FFF7FEFF 		bl	gfxSemSignal
 430              	.LVL46:
 431 0046 E7E7     		b	.L51
 432              	.L54:
 433              		.align	2
 434              	.L53:
 435 0048 00000000 		.word	.LANCHOR1
 436              		.cfi_endproc
 437              	.LFE116:
 438              		.size	geventDetachSource, .-geventDetachSource
 439 004c AFF30080 		.section	.text.geventEventWait,"ax",%progbits
 440              		.align	2
 441              		.p2align 4,,15
 442              		.global	geventEventWait
 443              		.thumb
 444              		.thumb_func
 445              		.type	geventEventWait, %function
 446              	geventEventWait:
 447              	.LFB117:
 448              		.loc 1 119 0
 449              		.cfi_startproc
 450              		@ args = 0, pretend = 0, frame = 0
 451              		@ frame_needed = 0, uses_anonymous_args = 0
ARM GAS  /tmp/ccO905hp.s 			page 9


 452              	.LVL47:
 453              		.loc 1 120 0
 454 0000 036A     		ldr	r3, [r0, #32]
 455              		.loc 1 119 0
 456 0002 10B5     		push	{r4, lr}
 457              		.cfi_def_cfa_offset 8
 458              		.cfi_offset 4, -8
 459              		.cfi_offset 14, -4
 460              		.loc 1 119 0
 461 0004 0446     		mov	r4, r0
 462              		.loc 1 120 0
 463 0006 43B9     		cbnz	r3, .L58
 464              		.loc 1 120 0 is_stmt 0 discriminator 1
 465 0008 8368     		ldr	r3, [r0, #8]
 466 000a 002B     		cmp	r3, #0
 467 000c 05DB     		blt	.L58
 468              		.loc 1 122 0 is_stmt 1
 469 000e FFF7FEFF 		bl	gfxSemWait
 470              	.LVL48:
 471 0012 10B1     		cbz	r0, .L58
 472              		.loc 1 122 0 is_stmt 0 discriminator 1
 473 0014 04F12800 		add	r0, r4, #40
 474              		.loc 1 123 0 is_stmt 1 discriminator 1
 475 0018 10BD     		pop	{r4, pc}
 476              	.LVL49:
 477              	.L58:
 478              		.loc 1 121 0
 479 001a 0020     		movs	r0, #0
 480 001c 10BD     		pop	{r4, pc}
 481              		.cfi_endproc
 482              	.LFE117:
 483              		.size	geventEventWait, .-geventEventWait
 484 001e 00BF     		.section	.text.geventRegisterCallback,"ax",%progbits
 485              		.align	2
 486              		.p2align 4,,15
 487              		.global	geventRegisterCallback
 488              		.thumb
 489              		.thumb_func
 490              		.type	geventRegisterCallback, %function
 491              	geventRegisterCallback:
 492              	.LFB118:
 493              		.loc 1 125 0
 494              		.cfi_startproc
 495              		@ args = 0, pretend = 0, frame = 0
 496              		@ frame_needed = 0, uses_anonymous_args = 0
 497              	.LVL50:
 498 0000 F8B5     		push	{r3, r4, r5, r6, r7, lr}
 499              		.cfi_def_cfa_offset 24
 500              		.cfi_offset 3, -24
 501              		.cfi_offset 4, -20
 502              		.cfi_offset 5, -16
 503              		.cfi_offset 6, -12
 504              		.cfi_offset 7, -8
 505              		.cfi_offset 14, -4
 506              		.loc 1 126 0
 507 0002 0446     		mov	r4, r0
 508              		.loc 1 125 0
ARM GAS  /tmp/ccO905hp.s 			page 10


 509 0004 0E46     		mov	r6, r1
 510 0006 1746     		mov	r7, r2
 511              		.loc 1 126 0
 512 0008 A8B1     		cbz	r0, .L62
 513              		.loc 1 127 0
 514 000a 1148     		ldr	r0, .L66
 515              	.LVL51:
 516              		.loc 1 128 0
 517 000c 04F11005 		add	r5, r4, #16
 518              		.loc 1 127 0
 519 0010 FFF7FEFF 		bl	chMtxLock
 520              	.LVL52:
 521              		.loc 1 128 0
 522 0014 2846     		mov	r0, r5
 523 0016 4FF0FF31 		mov	r1, #-1
 524 001a FFF7FEFF 		bl	gfxSemWait
 525              	.LVL53:
 526              		.loc 1 131 0
 527 001e A368     		ldr	r3, [r4, #8]
 528              		.loc 1 129 0
 529 0020 6762     		str	r7, [r4, #36]
 530              		.loc 1 131 0
 531 0022 002B     		cmp	r3, #0
 532              		.loc 1 130 0
 533 0024 2662     		str	r6, [r4, #32]
 534              		.loc 1 131 0
 535 0026 07DB     		blt	.L65
 536              		.loc 1 135 0
 537 0028 2846     		mov	r0, r5
 538 002a FFF7FEFF 		bl	gfxSemSignal
 539              	.LVL54:
 540              		.loc 1 138 0
 541 002e BDE8F840 		pop	{r3, r4, r5, r6, r7, lr}
 542              	.LVL55:
 543              		.loc 1 136 0
 544 0032 FFF7FEBF 		b	chMtxUnlock
 545              	.LVL56:
 546              	.L62:
 547 0036 F8BD     		pop	{r3, r4, r5, r6, r7, pc}
 548              	.LVL57:
 549              	.L65:
 550              		.loc 1 132 0
 551 0038 0123     		movs	r3, #1
 552 003a 2385     		strh	r3, [r4, #40]	@ movhi
 553              		.loc 1 133 0
 554 003c 2046     		mov	r0, r4
 555 003e FFF7FEFF 		bl	gfxSemSignal
 556              	.LVL58:
 557              		.loc 1 135 0
 558 0042 2846     		mov	r0, r5
 559 0044 FFF7FEFF 		bl	gfxSemSignal
 560              	.LVL59:
 561              		.loc 1 138 0
 562 0048 BDE8F840 		pop	{r3, r4, r5, r6, r7, lr}
 563              	.LVL60:
 564              		.loc 1 136 0
 565 004c FFF7FEBF 		b	chMtxUnlock
ARM GAS  /tmp/ccO905hp.s 			page 11


 566              	.LVL61:
 567              	.L67:
 568              		.align	2
 569              	.L66:
 570 0050 00000000 		.word	.LANCHOR1
 571              		.cfi_endproc
 572              	.LFE118:
 573              		.size	geventRegisterCallback, .-geventRegisterCallback
 574 0054 AFF30080 		.section	.text.geventGetSourceListener,"ax",%progbits
 574      AFF30080 
 574      AFF30080 
 575              		.align	2
 576              		.p2align 4,,15
 577              		.global	geventGetSourceListener
 578              		.thumb
 579              		.thumb_func
 580              		.type	geventGetSourceListener, %function
 581              	geventGetSourceListener:
 582              	.LFB119:
 583              		.loc 1 140 0
 584              		.cfi_startproc
 585              		@ args = 0, pretend = 0, frame = 0
 586              		@ frame_needed = 0, uses_anonymous_args = 0
 587              	.LVL62:
 588 0000 38B5     		push	{r3, r4, r5, lr}
 589              		.cfi_def_cfa_offset 16
 590              		.cfi_offset 3, -16
 591              		.cfi_offset 4, -12
 592              		.cfi_offset 5, -8
 593              		.cfi_offset 14, -4
 594              		.loc 1 144 0
 595 0002 0546     		mov	r5, r0
 596              		.loc 1 140 0
 597 0004 0C46     		mov	r4, r1
 598              		.loc 1 144 0
 599 0006 C0B1     		cbz	r0, .L79
 600              		.loc 1 147 0
 601 0008 1348     		ldr	r0, .L80
 602              	.LVL63:
 603 000a FFF7FEFF 		bl	chMtxLock
 604              	.LVL64:
 605              		.loc 1 150 0
 606 000e 04B3     		cbz	r4, .L77
 607              		.loc 1 151 0
 608 0010 54F8100B 		ldr	r0, [r4], #16
 609              	.LVL65:
 610 0014 1030     		adds	r0, r0, #16
 611 0016 FFF7FEFF 		bl	gfxSemSignal
 612              	.LVL66:
 613              		.loc 1 154 0
 614 001a 104A     		ldr	r2, .L80+4
 615 001c 9442     		cmp	r4, r2
 616 001e 0AD2     		bcs	.L75
 617              	.LVL67:
 618              	.L70:
 619              		.loc 1 155 0
 620 0020 6368     		ldr	r3, [r4, #4]
ARM GAS  /tmp/ccO905hp.s 			page 12


 621 0022 AB42     		cmp	r3, r5
 622 0024 0BD0     		beq	.L71
 623 0026 0D4A     		ldr	r2, .L80+4
 624 0028 02E0     		b	.L73
 625              	.L74:
 626 002a 6368     		ldr	r3, [r4, #4]
 627 002c AB42     		cmp	r3, r5
 628 002e 06D0     		beq	.L71
 629              	.L73:
 630              		.loc 1 154 0
 631 0030 1034     		adds	r4, r4, #16
 632              	.LVL68:
 633 0032 9442     		cmp	r4, r2
 634 0034 F9D3     		bcc	.L74
 635              	.L75:
 636              		.loc 1 161 0
 637 0036 FFF7FEFF 		bl	chMtxUnlock
 638              	.LVL69:
 639              	.L79:
 640              		.loc 1 162 0
 641 003a 0020     		movs	r0, #0
 642 003c 38BD     		pop	{r3, r4, r5, pc}
 643              	.LVL70:
 644              	.L71:
 645              		.loc 1 156 0
 646 003e 2068     		ldr	r0, [r4]
 647 0040 4FF0FF31 		mov	r1, #-1
 648 0044 1030     		adds	r0, r0, #16
 649 0046 FFF7FEFF 		bl	gfxSemWait
 650              	.LVL71:
 651              		.loc 1 157 0
 652 004a FFF7FEFF 		bl	chMtxUnlock
 653              	.LVL72:
 654              		.loc 1 158 0
 655 004e 2046     		mov	r0, r4
 656 0050 38BD     		pop	{r3, r4, r5, pc}
 657              	.LVL73:
 658              	.L77:
 659              		.loc 1 154 0
 660 0052 034C     		ldr	r4, .L80+8
 661              	.LVL74:
 662 0054 E4E7     		b	.L70
 663              	.L81:
 664 0056 00BF     		.align	2
 665              	.L80:
 666 0058 00000000 		.word	.LANCHOR1
 667 005c 00020000 		.word	.LANCHOR0+512
 668 0060 00000000 		.word	.LANCHOR0
 669              		.cfi_endproc
 670              	.LFE119:
 671              		.size	geventGetSourceListener, .-geventGetSourceListener
 672 0064 AFF30080 		.section	.text.geventGetEventBuffer,"ax",%progbits
 672      AFF30080 
 672      AFF30080 
 673              		.align	2
 674              		.p2align 4,,15
 675              		.global	geventGetEventBuffer
ARM GAS  /tmp/ccO905hp.s 			page 13


 676              		.thumb
 677              		.thumb_func
 678              		.type	geventGetEventBuffer, %function
 679              	geventGetEventBuffer:
 680              	.LFB120:
 681              		.loc 1 165 0
 682              		.cfi_startproc
 683              		@ args = 0, pretend = 0, frame = 0
 684              		@ frame_needed = 0, uses_anonymous_args = 0
 685              		@ link register save eliminated.
 686              	.LVL75:
 687              		.loc 1 167 0
 688 0000 0068     		ldr	r0, [r0]
 689              	.LVL76:
 690 0002 10F12003 		adds	r3, r0, #32
 691 0006 01D0     		beq	.L86
 692              	.L83:
 693              		.loc 1 167 0 is_stmt 0 discriminator 1
 694 0008 2830     		adds	r0, r0, #40
 695 000a 7047     		bx	lr
 696              	.L86:
 697              		.loc 1 167 0 discriminator 2
 698 000c 8268     		ldr	r2, [r0, #8]
 699 000e 002A     		cmp	r2, #0
 700 0010 FADB     		blt	.L83
 701              		.loc 1 167 0
 702 0012 1846     		mov	r0, r3
 703              		.loc 1 168 0 is_stmt 1
 704 0014 7047     		bx	lr
 705              		.cfi_endproc
 706              	.LFE120:
 707              		.size	geventGetEventBuffer, .-geventGetEventBuffer
 708 0016 00BFAFF3 		.section	.text.geventSendEvent,"ax",%progbits
 708      0080AFF3 
 708      0080
 709              		.align	2
 710              		.p2align 4,,15
 711              		.global	geventSendEvent
 712              		.thumb
 713              		.thumb_func
 714              		.type	geventSendEvent, %function
 715              	geventSendEvent:
 716              	.LFB121:
 717              		.loc 1 170 0
 718              		.cfi_startproc
 719              		@ args = 0, pretend = 0, frame = 0
 720              		@ frame_needed = 0, uses_anonymous_args = 0
 721              	.LVL77:
 722 0000 10B5     		push	{r4, lr}
 723              		.cfi_def_cfa_offset 8
 724              		.cfi_offset 4, -8
 725              		.cfi_offset 14, -4
 726              		.loc 1 170 0
 727 0002 0446     		mov	r4, r0
 728              		.loc 1 171 0
 729 0004 0B48     		ldr	r0, .L93
 730              	.LVL78:
ARM GAS  /tmp/ccO905hp.s 			page 14


 731 0006 FFF7FEFF 		bl	chMtxLock
 732              	.LVL79:
 733              		.loc 1 172 0
 734 000a 2068     		ldr	r0, [r4]
 735 000c 036A     		ldr	r3, [r0, #32]
 736 000e 3BB1     		cbz	r3, .L88
 737              		.loc 1 173 0
 738 0010 FFF7FEFF 		bl	chMtxUnlock
 739              	.LVL80:
 740              		.loc 1 175 0
 741 0014 2168     		ldr	r1, [r4]
 742 0016 0B6A     		ldr	r3, [r1, #32]
 743 0018 486A     		ldr	r0, [r1, #36]
 744 001a 2831     		adds	r1, r1, #40
 745 001c 9847     		blx	r3
 746              	.LVL81:
 747 001e 10BD     		pop	{r4, pc}
 748              	.LVL82:
 749              	.L88:
 750              		.loc 1 179 0
 751 0020 8368     		ldr	r3, [r0, #8]
 752 0022 002B     		cmp	r3, #0
 753 0024 03DD     		ble	.L92
 754              	.L90:
 755              		.loc 1 183 0
 756 0026 BDE81040 		pop	{r4, lr}
 757              	.LVL83:
 758              		.loc 1 181 0
 759 002a FFF7FEBF 		b	chMtxUnlock
 760              	.LVL84:
 761              	.L92:
 762              		.loc 1 180 0
 763 002e FFF7FEFF 		bl	gfxSemSignal
 764              	.LVL85:
 765 0032 F8E7     		b	.L90
 766              	.L94:
 767              		.align	2
 768              	.L93:
 769 0034 00000000 		.word	.LANCHOR1
 770              		.cfi_endproc
 771              	.LFE121:
 772              		.size	geventSendEvent, .-geventSendEvent
 773 0038 AFF30080 		.section	.text.geventDetachSourceListeners,"ax",%progbits
 773      AFF30080 
 774              		.align	2
 775              		.p2align 4,,15
 776              		.global	geventDetachSourceListeners
 777              		.thumb
 778              		.thumb_func
 779              		.type	geventDetachSourceListeners, %function
 780              	geventDetachSourceListeners:
 781              	.LFB122:
 782              		.loc 1 185 0
 783              		.cfi_startproc
 784              		@ args = 0, pretend = 0, frame = 0
 785              		@ frame_needed = 0, uses_anonymous_args = 0
 786              	.LVL86:
ARM GAS  /tmp/ccO905hp.s 			page 15


 787 0000 10B5     		push	{r4, lr}
 788              		.cfi_def_cfa_offset 8
 789              		.cfi_offset 4, -8
 790              		.cfi_offset 14, -4
 791              		.loc 1 185 0
 792 0002 0446     		mov	r4, r0
 793              		.loc 1 186 0
 794 0004 0548     		ldr	r0, .L96
 795              	.LVL87:
 796 0006 FFF7FEFF 		bl	chMtxLock
 797              	.LVL88:
 798              		.loc 1 187 0
 799 000a 2146     		mov	r1, r4
 800 000c 0020     		movs	r0, #0
 801 000e FFF7FEFF 		bl	deleteAssignments
 802              	.LVL89:
 803              		.loc 1 189 0
 804 0012 BDE81040 		pop	{r4, lr}
 805              	.LVL90:
 806              		.loc 1 188 0
 807 0016 FFF7FEBF 		b	chMtxUnlock
 808              	.LVL91:
 809              	.L97:
 810 001a 00BF     		.align	2
 811              	.L96:
 812 001c 00000000 		.word	.LANCHOR1
 813              		.cfi_endproc
 814              	.LFE122:
 815              		.size	geventDetachSourceListeners, .-geventDetachSourceListeners
 816              		.section	.bss.Assignments,"aw",%nobits
 817              		.align	2
 818              		.set	.LANCHOR0,. + 0
 819              		.type	Assignments, %object
 820              		.size	Assignments, 512
 821              	Assignments:
 822 0000 00000000 		.space	512
 822      00000000 
 822      00000000 
 822      00000000 
 822      00000000 
 823              		.section	.bss.geventMutex,"aw",%nobits
 824              		.align	2
 825              		.set	.LANCHOR1,. + 0
 826              		.type	geventMutex, %object
 827              		.size	geventMutex, 16
 828              	geventMutex:
 829 0000 00000000 		.space	16
 829      00000000 
 829      00000000 
 829      00000000 
 830              		.text
 831              	.Letext0:
 832              		.file 2 "/opt/ARM/arm-none-eabi/include/machine/_default_types.h"
 833              		.file 3 "/opt/ARM/arm-none-eabi/include/stdint.h"
 834              		.file 4 "../../os/ports/GCC/ARMCMx/chtypes.h"
 835              		.file 5 "../../os/kernel/include/chlists.h"
 836              		.file 6 "../../os/kernel/include/chthreads.h"
ARM GAS  /tmp/ccO905hp.s 			page 16


 837              		.file 7 "../../os/ports/GCC/ARMCMx/chcore_v7m.h"
 838              		.file 8 "../../os/kernel/include/chsem.h"
 839              		.file 9 "../../os/kernel/include/chmtx.h"
 840              		.file 10 "/home/makkmarci/devel/ugfx/src/gos/chibios.h"
 841              		.file 11 "/home/makkmarci/devel/ugfx/src/gevent/sys_defs.h"
 842              		.file 12 "../../os/ports/common/ARMCMx/CMSIS/include/core_cm4.h"
 843              		.section	.debug_info,"",%progbits
 844              	.Ldebug_info0:
 845 0000 300C0000 		.4byte	0xc30
 846 0004 0400     		.2byte	0x4
 847 0006 00000000 		.4byte	.Ldebug_abbrev0
 848 000a 04       		.byte	0x4
 849 000b 01       		.uleb128 0x1
 850 000c 1B040000 		.4byte	.LASF113
 851 0010 01       		.byte	0x1
 852 0011 8E000000 		.4byte	.LASF114
 853 0015 D9000000 		.4byte	.LASF115
 854 0019 00000000 		.4byte	.Ldebug_ranges0+0
 855 001d 00000000 		.4byte	0
 856 0021 00000000 		.4byte	.Ldebug_line0
 857 0025 02       		.uleb128 0x2
 858 0026 04       		.byte	0x4
 859 0027 05       		.byte	0x5
 860 0028 696E7400 		.ascii	"int\000"
 861 002c 03       		.uleb128 0x3
 862 002d 04       		.byte	0x4
 863 002e 07       		.byte	0x7
 864 002f CF010000 		.4byte	.LASF0
 865 0033 03       		.uleb128 0x3
 866 0034 01       		.byte	0x1
 867 0035 06       		.byte	0x6
 868 0036 37010000 		.4byte	.LASF1
 869 003a 04       		.uleb128 0x4
 870 003b 3A000000 		.4byte	.LASF4
 871 003f 02       		.byte	0x2
 872 0040 1C       		.byte	0x1c
 873 0041 45000000 		.4byte	0x45
 874 0045 03       		.uleb128 0x3
 875 0046 01       		.byte	0x1
 876 0047 08       		.byte	0x8
 877 0048 D1030000 		.4byte	.LASF2
 878 004c 03       		.uleb128 0x3
 879 004d 02       		.byte	0x2
 880 004e 05       		.byte	0x5
 881 004f E9030000 		.4byte	.LASF3
 882 0053 04       		.uleb128 0x4
 883 0054 8D050000 		.4byte	.LASF5
 884 0058 02       		.byte	0x2
 885 0059 26       		.byte	0x26
 886 005a 5E000000 		.4byte	0x5e
 887 005e 03       		.uleb128 0x3
 888 005f 02       		.byte	0x2
 889 0060 07       		.byte	0x7
 890 0061 50020000 		.4byte	.LASF6
 891 0065 04       		.uleb128 0x4
 892 0066 B4050000 		.4byte	.LASF7
 893 006a 02       		.byte	0x2
ARM GAS  /tmp/ccO905hp.s 			page 17


 894 006b 37       		.byte	0x37
 895 006c 70000000 		.4byte	0x70
 896 0070 03       		.uleb128 0x3
 897 0071 04       		.byte	0x4
 898 0072 05       		.byte	0x5
 899 0073 64010000 		.4byte	.LASF8
 900 0077 04       		.uleb128 0x4
 901 0078 98010000 		.4byte	.LASF9
 902 007c 02       		.byte	0x2
 903 007d 38       		.byte	0x38
 904 007e 82000000 		.4byte	0x82
 905 0082 03       		.uleb128 0x3
 906 0083 04       		.byte	0x4
 907 0084 07       		.byte	0x7
 908 0085 76050000 		.4byte	.LASF10
 909 0089 03       		.uleb128 0x3
 910 008a 08       		.byte	0x8
 911 008b 05       		.byte	0x5
 912 008c 63020000 		.4byte	.LASF11
 913 0090 04       		.uleb128 0x4
 914 0091 6F030000 		.4byte	.LASF12
 915 0095 02       		.byte	0x2
 916 0096 4E       		.byte	0x4e
 917 0097 9B000000 		.4byte	0x9b
 918 009b 03       		.uleb128 0x3
 919 009c 08       		.byte	0x8
 920 009d 07       		.byte	0x7
 921 009e 77000000 		.4byte	.LASF13
 922 00a2 04       		.uleb128 0x4
 923 00a3 08060000 		.4byte	.LASF14
 924 00a7 03       		.byte	0x3
 925 00a8 2A       		.byte	0x2a
 926 00a9 3A000000 		.4byte	0x3a
 927 00ad 04       		.uleb128 0x4
 928 00ae E6010000 		.4byte	.LASF15
 929 00b2 03       		.byte	0x3
 930 00b3 36       		.byte	0x36
 931 00b4 53000000 		.4byte	0x53
 932 00b8 04       		.uleb128 0x4
 933 00b9 C9030000 		.4byte	.LASF16
 934 00bd 03       		.byte	0x3
 935 00be 41       		.byte	0x41
 936 00bf 65000000 		.4byte	0x65
 937 00c3 04       		.uleb128 0x4
 938 00c4 6D050000 		.4byte	.LASF17
 939 00c8 03       		.byte	0x3
 940 00c9 42       		.byte	0x42
 941 00ca 77000000 		.4byte	0x77
 942 00ce 04       		.uleb128 0x4
 943 00cf 1B000000 		.4byte	.LASF18
 944 00d3 03       		.byte	0x3
 945 00d4 4E       		.byte	0x4e
 946 00d5 90000000 		.4byte	0x90
 947 00d9 04       		.uleb128 0x4
 948 00da 4B010000 		.4byte	.LASF19
 949 00de 04       		.byte	0x4
 950 00df 2B       		.byte	0x2b
ARM GAS  /tmp/ccO905hp.s 			page 18


 951 00e0 E4000000 		.4byte	0xe4
 952 00e4 03       		.uleb128 0x3
 953 00e5 01       		.byte	0x1
 954 00e6 02       		.byte	0x2
 955 00e7 C3030000 		.4byte	.LASF20
 956 00eb 04       		.uleb128 0x4
 957 00ec 80020000 		.4byte	.LASF21
 958 00f0 04       		.byte	0x4
 959 00f1 2C       		.byte	0x2c
 960 00f2 A2000000 		.4byte	0xa2
 961 00f6 04       		.uleb128 0x4
 962 00f7 6D010000 		.4byte	.LASF22
 963 00fb 04       		.byte	0x4
 964 00fc 2D       		.byte	0x2d
 965 00fd A2000000 		.4byte	0xa2
 966 0101 04       		.uleb128 0x4
 967 0102 86030000 		.4byte	.LASF23
 968 0106 04       		.byte	0x4
 969 0107 2E       		.byte	0x2e
 970 0108 A2000000 		.4byte	0xa2
 971 010c 04       		.uleb128 0x4
 972 010d 5A010000 		.4byte	.LASF24
 973 0111 04       		.byte	0x4
 974 0112 2F       		.byte	0x2f
 975 0113 A2000000 		.4byte	0xa2
 976 0117 04       		.uleb128 0x4
 977 0118 BB030000 		.4byte	.LASF25
 978 011c 04       		.byte	0x4
 979 011d 30       		.byte	0x30
 980 011e C3000000 		.4byte	0xc3
 981 0122 04       		.uleb128 0x4
 982 0123 71020000 		.4byte	.LASF26
 983 0127 04       		.byte	0x4
 984 0128 31       		.byte	0x31
 985 0129 B8000000 		.4byte	0xb8
 986 012d 04       		.uleb128 0x4
 987 012e 9D020000 		.4byte	.LASF27
 988 0132 04       		.byte	0x4
 989 0133 33       		.byte	0x33
 990 0134 C3000000 		.4byte	0xc3
 991 0138 04       		.uleb128 0x4
 992 0139 9F050000 		.4byte	.LASF28
 993 013d 04       		.byte	0x4
 994 013e 35       		.byte	0x35
 995 013f C3000000 		.4byte	0xc3
 996 0143 04       		.uleb128 0x4
 997 0144 BE010000 		.4byte	.LASF29
 998 0148 04       		.byte	0x4
 999 0149 36       		.byte	0x36
 1000 014a B8000000 		.4byte	0xb8
 1001 014e 04       		.uleb128 0x4
 1002 014f 3E050000 		.4byte	.LASF30
 1003 0153 05       		.byte	0x5
 1004 0154 2A       		.byte	0x2a
 1005 0155 59010000 		.4byte	0x159
 1006 0159 05       		.uleb128 0x5
 1007 015a 3E050000 		.4byte	.LASF30
ARM GAS  /tmp/ccO905hp.s 			page 19


 1008 015e 4C       		.byte	0x4c
 1009 015f 06       		.byte	0x6
 1010 0160 5E       		.byte	0x5e
 1011 0161 62020000 		.4byte	0x262
 1012 0165 06       		.uleb128 0x6
 1013 0166 0C040000 		.4byte	.LASF31
 1014 016a 06       		.byte	0x6
 1015 016b 5F       		.byte	0x5f
 1016 016c 83020000 		.4byte	0x283
 1017 0170 00       		.byte	0
 1018 0171 06       		.uleb128 0x6
 1019 0172 98030000 		.4byte	.LASF32
 1020 0176 06       		.byte	0x6
 1021 0177 61       		.byte	0x61
 1022 0178 83020000 		.4byte	0x283
 1023 017c 04       		.byte	0x4
 1024 017d 06       		.uleb128 0x6
 1025 017e 26030000 		.4byte	.LASF33
 1026 0182 06       		.byte	0x6
 1027 0183 63       		.byte	0x63
 1028 0184 17010000 		.4byte	0x117
 1029 0188 08       		.byte	0x8
 1030 0189 06       		.uleb128 0x6
 1031 018a 70060000 		.4byte	.LASF34
 1032 018e 06       		.byte	0x6
 1033 018f 64       		.byte	0x64
 1034 0190 18040000 		.4byte	0x418
 1035 0194 0C       		.byte	0xc
 1036 0195 06       		.uleb128 0x6
 1037 0196 7D010000 		.4byte	.LASF35
 1038 019a 06       		.byte	0x6
 1039 019b 66       		.byte	0x66
 1040 019c 83020000 		.4byte	0x283
 1041 01a0 10       		.byte	0x10
 1042 01a1 06       		.uleb128 0x6
 1043 01a2 3D030000 		.4byte	.LASF36
 1044 01a6 06       		.byte	0x6
 1045 01a7 67       		.byte	0x67
 1046 01a8 83020000 		.4byte	0x283
 1047 01ac 14       		.byte	0x14
 1048 01ad 06       		.uleb128 0x6
 1049 01ae 26060000 		.4byte	.LASF37
 1050 01b2 06       		.byte	0x6
 1051 01b3 6E       		.byte	0x6e
 1052 01b4 EC040000 		.4byte	0x4ec
 1053 01b8 18       		.byte	0x18
 1054 01b9 06       		.uleb128 0x6
 1055 01ba C4010000 		.4byte	.LASF38
 1056 01be 06       		.byte	0x6
 1057 01bf 74       		.byte	0x74
 1058 01c0 FE040000 		.4byte	0x4fe
 1059 01c4 1C       		.byte	0x1c
 1060 01c5 06       		.uleb128 0x6
 1061 01c6 F3030000 		.4byte	.LASF39
 1062 01ca 06       		.byte	0x6
 1063 01cb 79       		.byte	0x79
 1064 01cc F6000000 		.4byte	0xf6
ARM GAS  /tmp/ccO905hp.s 			page 20


 1065 01d0 20       		.byte	0x20
 1066 01d1 06       		.uleb128 0x6
 1067 01d2 13040000 		.4byte	.LASF40
 1068 01d6 06       		.byte	0x6
 1069 01d7 7D       		.byte	0x7d
 1070 01d8 EB000000 		.4byte	0xeb
 1071 01dc 21       		.byte	0x21
 1072 01dd 06       		.uleb128 0x6
 1073 01de E8050000 		.4byte	.LASF41
 1074 01e2 06       		.byte	0x6
 1075 01e3 82       		.byte	0x82
 1076 01e4 01010000 		.4byte	0x101
 1077 01e8 22       		.byte	0x22
 1078 01e9 06       		.uleb128 0x6
 1079 01ea FB030000 		.4byte	.LASF42
 1080 01ee 06       		.byte	0x6
 1081 01ef 88       		.byte	0x88
 1082 01f0 0C010000 		.4byte	0x10c
 1083 01f4 23       		.byte	0x23
 1084 01f5 06       		.uleb128 0x6
 1085 01f6 0B000000 		.4byte	.LASF43
 1086 01fa 06       		.byte	0x6
 1087 01fb 8F       		.byte	0x8f
 1088 01fc 40040000 		.4byte	0x440
 1089 0200 24       		.byte	0x24
 1090 0201 07       		.uleb128 0x7
 1091 0202 705F7500 		.ascii	"p_u\000"
 1092 0206 06       		.byte	0x6
 1093 0207 B4       		.byte	0xb4
 1094 0208 B7040000 		.4byte	0x4b7
 1095 020c 28       		.byte	0x28
 1096 020d 06       		.uleb128 0x6
 1097 020e 76060000 		.4byte	.LASF44
 1098 0212 06       		.byte	0x6
 1099 0213 B9       		.byte	0xb9
 1100 0214 A9020000 		.4byte	0x2a9
 1101 0218 2C       		.byte	0x2c
 1102 0219 06       		.uleb128 0x6
 1103 021a 0F020000 		.4byte	.LASF45
 1104 021e 06       		.byte	0x6
 1105 021f BF       		.byte	0xbf
 1106 0220 89020000 		.4byte	0x289
 1107 0224 30       		.byte	0x30
 1108 0225 06       		.uleb128 0x6
 1109 0226 50060000 		.4byte	.LASF46
 1110 022a 06       		.byte	0x6
 1111 022b C3       		.byte	0xc3
 1112 022c 22010000 		.4byte	0x122
 1113 0230 38       		.byte	0x38
 1114 0231 06       		.uleb128 0x6
 1115 0232 58050000 		.4byte	.LASF47
 1116 0236 06       		.byte	0x6
 1117 0237 C9       		.byte	0xc9
 1118 0238 2D010000 		.4byte	0x12d
 1119 023c 3C       		.byte	0x3c
 1120 023d 06       		.uleb128 0x6
 1121 023e DF030000 		.4byte	.LASF48
ARM GAS  /tmp/ccO905hp.s 			page 21


 1122 0242 06       		.byte	0x6
 1123 0243 D0       		.byte	0xd0
 1124 0244 04050000 		.4byte	0x504
 1125 0248 40       		.byte	0x40
 1126 0249 06       		.uleb128 0x6
 1127 024a A9050000 		.4byte	.LASF49
 1128 024e 06       		.byte	0x6
 1129 024f D4       		.byte	0xd4
 1130 0250 17010000 		.4byte	0x117
 1131 0254 44       		.byte	0x44
 1132 0255 06       		.uleb128 0x6
 1133 0256 43010000 		.4byte	.LASF50
 1134 025a 06       		.byte	0x6
 1135 025b DA       		.byte	0xda
 1136 025c BF020000 		.4byte	0x2bf
 1137 0260 48       		.byte	0x48
 1138 0261 00       		.byte	0
 1139 0262 08       		.uleb128 0x8
 1140 0263 08       		.byte	0x8
 1141 0264 05       		.byte	0x5
 1142 0265 61       		.byte	0x61
 1143 0266 83020000 		.4byte	0x283
 1144 026a 06       		.uleb128 0x6
 1145 026b 0C040000 		.4byte	.LASF31
 1146 026f 05       		.byte	0x5
 1147 0270 62       		.byte	0x62
 1148 0271 83020000 		.4byte	0x283
 1149 0275 00       		.byte	0
 1150 0276 06       		.uleb128 0x6
 1151 0277 98030000 		.4byte	.LASF32
 1152 027b 05       		.byte	0x5
 1153 027c 64       		.byte	0x64
 1154 027d 83020000 		.4byte	0x283
 1155 0281 04       		.byte	0x4
 1156 0282 00       		.byte	0
 1157 0283 09       		.uleb128 0x9
 1158 0284 04       		.byte	0x4
 1159 0285 4E010000 		.4byte	0x14e
 1160 0289 04       		.uleb128 0x4
 1161 028a 45030000 		.4byte	.LASF51
 1162 028e 05       		.byte	0x5
 1163 028f 66       		.byte	0x66
 1164 0290 62020000 		.4byte	0x262
 1165 0294 08       		.uleb128 0x8
 1166 0295 04       		.byte	0x4
 1167 0296 05       		.byte	0x5
 1168 0297 6B       		.byte	0x6b
 1169 0298 A9020000 		.4byte	0x2a9
 1170 029c 06       		.uleb128 0x6
 1171 029d 0C040000 		.4byte	.LASF31
 1172 02a1 05       		.byte	0x5
 1173 02a2 6D       		.byte	0x6d
 1174 02a3 83020000 		.4byte	0x283
 1175 02a7 00       		.byte	0
 1176 02a8 00       		.byte	0
 1177 02a9 04       		.uleb128 0x4
 1178 02aa 91020000 		.4byte	.LASF52
ARM GAS  /tmp/ccO905hp.s 			page 22


 1179 02ae 05       		.byte	0x5
 1180 02af 70       		.byte	0x70
 1181 02b0 94020000 		.4byte	0x294
 1182 02b4 04       		.uleb128 0x4
 1183 02b5 A3010000 		.4byte	.LASF53
 1184 02b9 07       		.byte	0x7
 1185 02ba E5       		.byte	0xe5
 1186 02bb BF020000 		.4byte	0x2bf
 1187 02bf 0A       		.uleb128 0xa
 1188 02c0 04       		.byte	0x4
 1189 02c1 04       		.uleb128 0x4
 1190 02c2 C3020000 		.4byte	.LASF54
 1191 02c6 07       		.byte	0x7
 1192 02c7 EB       		.byte	0xeb
 1193 02c8 CE000000 		.4byte	0xce
 1194 02cc 0B       		.uleb128 0xb
 1195 02cd D0050000 		.4byte	.LASF55
 1196 02d1 64       		.byte	0x64
 1197 02d2 07       		.byte	0x7
 1198 02d3 0C01     		.2byte	0x10c
 1199 02d5 18040000 		.4byte	0x418
 1200 02d9 0C       		.uleb128 0xc
 1201 02da 73313600 		.ascii	"s16\000"
 1202 02de 07       		.byte	0x7
 1203 02df 0E01     		.2byte	0x10e
 1204 02e1 B4020000 		.4byte	0x2b4
 1205 02e5 00       		.byte	0
 1206 02e6 0C       		.uleb128 0xc
 1207 02e7 73313700 		.ascii	"s17\000"
 1208 02eb 07       		.byte	0x7
 1209 02ec 0F01     		.2byte	0x10f
 1210 02ee B4020000 		.4byte	0x2b4
 1211 02f2 04       		.byte	0x4
 1212 02f3 0C       		.uleb128 0xc
 1213 02f4 73313800 		.ascii	"s18\000"
 1214 02f8 07       		.byte	0x7
 1215 02f9 1001     		.2byte	0x110
 1216 02fb B4020000 		.4byte	0x2b4
 1217 02ff 08       		.byte	0x8
 1218 0300 0C       		.uleb128 0xc
 1219 0301 73313900 		.ascii	"s19\000"
 1220 0305 07       		.byte	0x7
 1221 0306 1101     		.2byte	0x111
 1222 0308 B4020000 		.4byte	0x2b4
 1223 030c 0C       		.byte	0xc
 1224 030d 0C       		.uleb128 0xc
 1225 030e 73323000 		.ascii	"s20\000"
 1226 0312 07       		.byte	0x7
 1227 0313 1201     		.2byte	0x112
 1228 0315 B4020000 		.4byte	0x2b4
 1229 0319 10       		.byte	0x10
 1230 031a 0C       		.uleb128 0xc
 1231 031b 73323100 		.ascii	"s21\000"
 1232 031f 07       		.byte	0x7
 1233 0320 1301     		.2byte	0x113
 1234 0322 B4020000 		.4byte	0x2b4
 1235 0326 14       		.byte	0x14
ARM GAS  /tmp/ccO905hp.s 			page 23


 1236 0327 0C       		.uleb128 0xc
 1237 0328 73323200 		.ascii	"s22\000"
 1238 032c 07       		.byte	0x7
 1239 032d 1401     		.2byte	0x114
 1240 032f B4020000 		.4byte	0x2b4
 1241 0333 18       		.byte	0x18
 1242 0334 0C       		.uleb128 0xc
 1243 0335 73323300 		.ascii	"s23\000"
 1244 0339 07       		.byte	0x7
 1245 033a 1501     		.2byte	0x115
 1246 033c B4020000 		.4byte	0x2b4
 1247 0340 1C       		.byte	0x1c
 1248 0341 0C       		.uleb128 0xc
 1249 0342 73323400 		.ascii	"s24\000"
 1250 0346 07       		.byte	0x7
 1251 0347 1601     		.2byte	0x116
 1252 0349 B4020000 		.4byte	0x2b4
 1253 034d 20       		.byte	0x20
 1254 034e 0C       		.uleb128 0xc
 1255 034f 73323500 		.ascii	"s25\000"
 1256 0353 07       		.byte	0x7
 1257 0354 1701     		.2byte	0x117
 1258 0356 B4020000 		.4byte	0x2b4
 1259 035a 24       		.byte	0x24
 1260 035b 0C       		.uleb128 0xc
 1261 035c 73323600 		.ascii	"s26\000"
 1262 0360 07       		.byte	0x7
 1263 0361 1801     		.2byte	0x118
 1264 0363 B4020000 		.4byte	0x2b4
 1265 0367 28       		.byte	0x28
 1266 0368 0C       		.uleb128 0xc
 1267 0369 73323700 		.ascii	"s27\000"
 1268 036d 07       		.byte	0x7
 1269 036e 1901     		.2byte	0x119
 1270 0370 B4020000 		.4byte	0x2b4
 1271 0374 2C       		.byte	0x2c
 1272 0375 0C       		.uleb128 0xc
 1273 0376 73323800 		.ascii	"s28\000"
 1274 037a 07       		.byte	0x7
 1275 037b 1A01     		.2byte	0x11a
 1276 037d B4020000 		.4byte	0x2b4
 1277 0381 30       		.byte	0x30
 1278 0382 0C       		.uleb128 0xc
 1279 0383 73323900 		.ascii	"s29\000"
 1280 0387 07       		.byte	0x7
 1281 0388 1B01     		.2byte	0x11b
 1282 038a B4020000 		.4byte	0x2b4
 1283 038e 34       		.byte	0x34
 1284 038f 0C       		.uleb128 0xc
 1285 0390 73333000 		.ascii	"s30\000"
 1286 0394 07       		.byte	0x7
 1287 0395 1C01     		.2byte	0x11c
 1288 0397 B4020000 		.4byte	0x2b4
 1289 039b 38       		.byte	0x38
 1290 039c 0C       		.uleb128 0xc
 1291 039d 73333100 		.ascii	"s31\000"
 1292 03a1 07       		.byte	0x7
ARM GAS  /tmp/ccO905hp.s 			page 24


 1293 03a2 1D01     		.2byte	0x11d
 1294 03a4 B4020000 		.4byte	0x2b4
 1295 03a8 3C       		.byte	0x3c
 1296 03a9 0C       		.uleb128 0xc
 1297 03aa 723400   		.ascii	"r4\000"
 1298 03ad 07       		.byte	0x7
 1299 03ae 1F01     		.2byte	0x11f
 1300 03b0 B4020000 		.4byte	0x2b4
 1301 03b4 40       		.byte	0x40
 1302 03b5 0C       		.uleb128 0xc
 1303 03b6 723500   		.ascii	"r5\000"
 1304 03b9 07       		.byte	0x7
 1305 03ba 2001     		.2byte	0x120
 1306 03bc B4020000 		.4byte	0x2b4
 1307 03c0 44       		.byte	0x44
 1308 03c1 0C       		.uleb128 0xc
 1309 03c2 723600   		.ascii	"r6\000"
 1310 03c5 07       		.byte	0x7
 1311 03c6 2101     		.2byte	0x121
 1312 03c8 B4020000 		.4byte	0x2b4
 1313 03cc 48       		.byte	0x48
 1314 03cd 0C       		.uleb128 0xc
 1315 03ce 723700   		.ascii	"r7\000"
 1316 03d1 07       		.byte	0x7
 1317 03d2 2201     		.2byte	0x122
 1318 03d4 B4020000 		.4byte	0x2b4
 1319 03d8 4C       		.byte	0x4c
 1320 03d9 0C       		.uleb128 0xc
 1321 03da 723800   		.ascii	"r8\000"
 1322 03dd 07       		.byte	0x7
 1323 03de 2301     		.2byte	0x123
 1324 03e0 B4020000 		.4byte	0x2b4
 1325 03e4 50       		.byte	0x50
 1326 03e5 0C       		.uleb128 0xc
 1327 03e6 723900   		.ascii	"r9\000"
 1328 03e9 07       		.byte	0x7
 1329 03ea 2401     		.2byte	0x124
 1330 03ec B4020000 		.4byte	0x2b4
 1331 03f0 54       		.byte	0x54
 1332 03f1 0C       		.uleb128 0xc
 1333 03f2 72313000 		.ascii	"r10\000"
 1334 03f6 07       		.byte	0x7
 1335 03f7 2501     		.2byte	0x125
 1336 03f9 B4020000 		.4byte	0x2b4
 1337 03fd 58       		.byte	0x58
 1338 03fe 0C       		.uleb128 0xc
 1339 03ff 72313100 		.ascii	"r11\000"
 1340 0403 07       		.byte	0x7
 1341 0404 2601     		.2byte	0x126
 1342 0406 B4020000 		.4byte	0x2b4
 1343 040a 5C       		.byte	0x5c
 1344 040b 0C       		.uleb128 0xc
 1345 040c 6C7200   		.ascii	"lr\000"
 1346 040f 07       		.byte	0x7
 1347 0410 2701     		.2byte	0x127
 1348 0412 B4020000 		.4byte	0x2b4
 1349 0416 60       		.byte	0x60
ARM GAS  /tmp/ccO905hp.s 			page 25


 1350 0417 00       		.byte	0
 1351 0418 0B       		.uleb128 0xb
 1352 0419 BE050000 		.4byte	.LASF56
 1353 041d 04       		.byte	0x4
 1354 041e 07       		.byte	0x7
 1355 041f 3101     		.2byte	0x131
 1356 0421 33040000 		.4byte	0x433
 1357 0425 0C       		.uleb128 0xc
 1358 0426 72313300 		.ascii	"r13\000"
 1359 042a 07       		.byte	0x7
 1360 042b 3201     		.2byte	0x132
 1361 042d 33040000 		.4byte	0x433
 1362 0431 00       		.byte	0
 1363 0432 00       		.byte	0
 1364 0433 09       		.uleb128 0x9
 1365 0434 04       		.byte	0x4
 1366 0435 CC020000 		.4byte	0x2cc
 1367 0439 03       		.uleb128 0x3
 1368 043a 04       		.byte	0x4
 1369 043b 07       		.byte	0x7
 1370 043c 17030000 		.4byte	.LASF57
 1371 0440 0D       		.uleb128 0xd
 1372 0441 38010000 		.4byte	0x138
 1373 0445 05       		.uleb128 0x5
 1374 0446 63050000 		.4byte	.LASF58
 1375 044a 0C       		.byte	0xc
 1376 044b 08       		.byte	0x8
 1377 044c 2C       		.byte	0x2c
 1378 044d 6A040000 		.4byte	0x46a
 1379 0451 06       		.uleb128 0x6
 1380 0452 85010000 		.4byte	.LASF59
 1381 0456 08       		.byte	0x8
 1382 0457 2D       		.byte	0x2d
 1383 0458 89020000 		.4byte	0x289
 1384 045c 00       		.byte	0
 1385 045d 06       		.uleb128 0x6
 1386 045e 44020000 		.4byte	.LASF60
 1387 0462 08       		.byte	0x8
 1388 0463 2F       		.byte	0x2f
 1389 0464 43010000 		.4byte	0x143
 1390 0468 08       		.byte	0x8
 1391 0469 00       		.byte	0
 1392 046a 04       		.uleb128 0x4
 1393 046b 63050000 		.4byte	.LASF58
 1394 046f 08       		.byte	0x8
 1395 0470 30       		.byte	0x30
 1396 0471 45040000 		.4byte	0x445
 1397 0475 05       		.uleb128 0x5
 1398 0476 20030000 		.4byte	.LASF61
 1399 047a 10       		.byte	0x10
 1400 047b 09       		.byte	0x9
 1401 047c 2C       		.byte	0x2c
 1402 047d A6040000 		.4byte	0x4a6
 1403 0481 06       		.uleb128 0x6
 1404 0482 52010000 		.4byte	.LASF62
 1405 0486 09       		.byte	0x9
 1406 0487 2D       		.byte	0x2d
ARM GAS  /tmp/ccO905hp.s 			page 26


 1407 0488 89020000 		.4byte	0x289
 1408 048c 00       		.byte	0
 1409 048d 06       		.uleb128 0x6
 1410 048e 68060000 		.4byte	.LASF63
 1411 0492 09       		.byte	0x9
 1412 0493 2F       		.byte	0x2f
 1413 0494 83020000 		.4byte	0x283
 1414 0498 08       		.byte	0x8
 1415 0499 06       		.uleb128 0x6
 1416 049a 98050000 		.4byte	.LASF64
 1417 049e 09       		.byte	0x9
 1418 049f 31       		.byte	0x31
 1419 04a0 A6040000 		.4byte	0x4a6
 1420 04a4 0C       		.byte	0xc
 1421 04a5 00       		.byte	0
 1422 04a6 09       		.uleb128 0x9
 1423 04a7 04       		.byte	0x4
 1424 04a8 75040000 		.4byte	0x475
 1425 04ac 04       		.uleb128 0x4
 1426 04ad 20030000 		.4byte	.LASF61
 1427 04b1 09       		.byte	0x9
 1428 04b2 33       		.byte	0x33
 1429 04b3 75040000 		.4byte	0x475
 1430 04b7 0E       		.uleb128 0xe
 1431 04b8 04       		.byte	0x4
 1432 04b9 06       		.byte	0x6
 1433 04ba 96       		.byte	0x96
 1434 04bb EC040000 		.4byte	0x4ec
 1435 04bf 0F       		.uleb128 0xf
 1436 04c0 E1050000 		.4byte	.LASF65
 1437 04c4 06       		.byte	0x6
 1438 04c5 9D       		.byte	0x9d
 1439 04c6 22010000 		.4byte	0x122
 1440 04ca 0F       		.uleb128 0xf
 1441 04cb BD000000 		.4byte	.LASF66
 1442 04cf 06       		.byte	0x6
 1443 04d0 A4       		.byte	0xa4
 1444 04d1 22010000 		.4byte	0x122
 1445 04d5 0F       		.uleb128 0xf
 1446 04d6 1F060000 		.4byte	.LASF67
 1447 04da 06       		.byte	0x6
 1448 04db AB       		.byte	0xab
 1449 04dc BF020000 		.4byte	0x2bf
 1450 04e0 0F       		.uleb128 0xf
 1451 04e1 05040000 		.4byte	.LASF68
 1452 04e5 06       		.byte	0x6
 1453 04e6 B2       		.byte	0xb2
 1454 04e7 2D010000 		.4byte	0x12d
 1455 04eb 00       		.byte	0
 1456 04ec 09       		.uleb128 0x9
 1457 04ed 04       		.byte	0x4
 1458 04ee F2040000 		.4byte	0x4f2
 1459 04f2 10       		.uleb128 0x10
 1460 04f3 F7040000 		.4byte	0x4f7
 1461 04f7 03       		.uleb128 0x3
 1462 04f8 01       		.byte	0x1
 1463 04f9 08       		.byte	0x8
ARM GAS  /tmp/ccO905hp.s 			page 27


 1464 04fa 88050000 		.4byte	.LASF69
 1465 04fe 09       		.uleb128 0x9
 1466 04ff 04       		.byte	0x4
 1467 0500 C1020000 		.4byte	0x2c1
 1468 0504 09       		.uleb128 0x9
 1469 0505 04       		.byte	0x4
 1470 0506 AC040000 		.4byte	0x4ac
 1471 050a 0D       		.uleb128 0xd
 1472 050b B8000000 		.4byte	0xb8
 1473 050f 04       		.uleb128 0x4
 1474 0510 45050000 		.4byte	.LASF70
 1475 0514 0A       		.byte	0xa
 1476 0515 1F       		.byte	0x1f
 1477 0516 38010000 		.4byte	0x138
 1478 051a 04       		.uleb128 0x4
 1479 051b 00000000 		.4byte	.LASF71
 1480 051f 0A       		.byte	0xa
 1481 0520 21       		.byte	0x21
 1482 0521 43010000 		.4byte	0x143
 1483 0525 08       		.uleb128 0x8
 1484 0526 10       		.byte	0x10
 1485 0527 0A       		.byte	0xa
 1486 0528 2E       		.byte	0x2e
 1487 0529 46050000 		.4byte	0x546
 1488 052d 07       		.uleb128 0x7
 1489 052e 73656D00 		.ascii	"sem\000"
 1490 0532 0A       		.byte	0xa
 1491 0533 2F       		.byte	0x2f
 1492 0534 6A040000 		.4byte	0x46a
 1493 0538 00       		.byte	0
 1494 0539 06       		.uleb128 0x6
 1495 053a C6000000 		.4byte	.LASF72
 1496 053e 0A       		.byte	0xa
 1497 053f 30       		.byte	0x30
 1498 0540 1A050000 		.4byte	0x51a
 1499 0544 0C       		.byte	0xc
 1500 0545 00       		.byte	0
 1501 0546 04       		.uleb128 0x4
 1502 0547 51050000 		.4byte	.LASF73
 1503 054b 0A       		.byte	0xa
 1504 054c 31       		.byte	0x31
 1505 054d 25050000 		.4byte	0x525
 1506 0551 04       		.uleb128 0x4
 1507 0552 12000000 		.4byte	.LASF74
 1508 0556 0A       		.byte	0xa
 1509 0557 33       		.byte	0x33
 1510 0558 AC040000 		.4byte	0x4ac
 1511 055c 04       		.uleb128 0x4
 1512 055d AC010000 		.4byte	.LASF75
 1513 0561 0B       		.byte	0xb
 1514 0562 21       		.byte	0x21
 1515 0563 AD000000 		.4byte	0xad
 1516 0567 11       		.uleb128 0x11
 1517 0568 88020000 		.4byte	.LASF116
 1518 056c 20       		.byte	0x20
 1519 056d 0B       		.byte	0xb
 1520 056e 30       		.byte	0x30
ARM GAS  /tmp/ccO905hp.s 			page 28


 1521 056f 8A050000 		.4byte	0x58a
 1522 0573 0F       		.uleb128 0xf
 1523 0574 4C000000 		.4byte	.LASF76
 1524 0578 0B       		.byte	0xb
 1525 0579 31       		.byte	0x31
 1526 057a 5C050000 		.4byte	0x55c
 1527 057e 12       		.uleb128 0x12
 1528 057f 70616400 		.ascii	"pad\000"
 1529 0583 0B       		.byte	0xb
 1530 0584 32       		.byte	0x32
 1531 0585 8A050000 		.4byte	0x58a
 1532 0589 00       		.byte	0
 1533 058a 13       		.uleb128 0x13
 1534 058b F7040000 		.4byte	0x4f7
 1535 058f 9A050000 		.4byte	0x59a
 1536 0593 14       		.uleb128 0x14
 1537 0594 39040000 		.4byte	0x439
 1538 0598 1F       		.byte	0x1f
 1539 0599 00       		.byte	0
 1540 059a 04       		.uleb128 0x4
 1541 059b 76010000 		.4byte	.LASF77
 1542 059f 0B       		.byte	0xb
 1543 05a0 33       		.byte	0x33
 1544 05a1 67050000 		.4byte	0x567
 1545 05a5 04       		.uleb128 0x4
 1546 05a6 5E030000 		.4byte	.LASF78
 1547 05aa 0B       		.byte	0xb
 1548 05ab 36       		.byte	0x36
 1549 05ac B0050000 		.4byte	0x5b0
 1550 05b0 09       		.uleb128 0x9
 1551 05b1 04       		.byte	0x4
 1552 05b2 B6050000 		.4byte	0x5b6
 1553 05b6 15       		.uleb128 0x15
 1554 05b7 C6050000 		.4byte	0x5c6
 1555 05bb 16       		.uleb128 0x16
 1556 05bc BF020000 		.4byte	0x2bf
 1557 05c0 16       		.uleb128 0x16
 1558 05c1 C6050000 		.4byte	0x5c6
 1559 05c5 00       		.byte	0
 1560 05c6 09       		.uleb128 0x9
 1561 05c7 04       		.byte	0x4
 1562 05c8 9A050000 		.4byte	0x59a
 1563 05cc 05       		.uleb128 0x5
 1564 05cd 34050000 		.4byte	.LASF79
 1565 05d1 48       		.byte	0x48
 1566 05d2 0B       		.byte	0xb
 1567 05d3 39       		.byte	0x39
 1568 05d4 15060000 		.4byte	0x615
 1569 05d8 06       		.uleb128 0x6
 1570 05d9 8E030000 		.4byte	.LASF80
 1571 05dd 0B       		.byte	0xb
 1572 05de 3A       		.byte	0x3a
 1573 05df 46050000 		.4byte	0x546
 1574 05e3 00       		.byte	0
 1575 05e4 06       		.uleb128 0x6
 1576 05e5 F5020000 		.4byte	.LASF81
 1577 05e9 0B       		.byte	0xb
ARM GAS  /tmp/ccO905hp.s 			page 29


 1578 05ea 3B       		.byte	0x3b
 1579 05eb 46050000 		.4byte	0x546
 1580 05ef 10       		.byte	0x10
 1581 05f0 06       		.uleb128 0x6
 1582 05f1 77020000 		.4byte	.LASF82
 1583 05f5 0B       		.byte	0xb
 1584 05f6 3C       		.byte	0x3c
 1585 05f7 A5050000 		.4byte	0x5a5
 1586 05fb 20       		.byte	0x20
 1587 05fc 06       		.uleb128 0x6
 1588 05fd 2D030000 		.4byte	.LASF83
 1589 0601 0B       		.byte	0xb
 1590 0602 3D       		.byte	0x3d
 1591 0603 BF020000 		.4byte	0x2bf
 1592 0607 24       		.byte	0x24
 1593 0608 06       		.uleb128 0x6
 1594 0609 4A020000 		.4byte	.LASF84
 1595 060d 0B       		.byte	0xb
 1596 060e 3E       		.byte	0x3e
 1597 060f 9A050000 		.4byte	0x59a
 1598 0613 28       		.byte	0x28
 1599 0614 00       		.byte	0
 1600 0615 04       		.uleb128 0x4
 1601 0616 34050000 		.4byte	.LASF79
 1602 061a 0B       		.byte	0xb
 1603 061b 3F       		.byte	0x3f
 1604 061c CC050000 		.4byte	0x5cc
 1605 0620 04       		.uleb128 0x4
 1606 0621 32000000 		.4byte	.LASF85
 1607 0625 0B       		.byte	0xb
 1608 0626 42       		.byte	0x42
 1609 0627 2B060000 		.4byte	0x62b
 1610 062b 17       		.uleb128 0x17
 1611 062c DC010000 		.4byte	.LASF117
 1612 0630 04       		.uleb128 0x4
 1613 0631 24000000 		.4byte	.LASF86
 1614 0635 0B       		.byte	0xb
 1615 0636 42       		.byte	0x42
 1616 0637 3B060000 		.4byte	0x63b
 1617 063b 09       		.uleb128 0x9
 1618 063c 04       		.byte	0x4
 1619 063d 2B060000 		.4byte	0x62b
 1620 0641 05       		.uleb128 0x5
 1621 0642 56060000 		.4byte	.LASF87
 1622 0646 10       		.byte	0x10
 1623 0647 0B       		.byte	0xb
 1624 0648 45       		.byte	0x45
 1625 0649 7E060000 		.4byte	0x67e
 1626 064d 06       		.uleb128 0x6
 1627 064e C6050000 		.4byte	.LASF88
 1628 0652 0B       		.byte	0xb
 1629 0653 46       		.byte	0x46
 1630 0654 7E060000 		.4byte	0x67e
 1631 0658 00       		.byte	0
 1632 0659 06       		.uleb128 0x6
 1633 065a 44000000 		.4byte	.LASF89
 1634 065e 0B       		.byte	0xb
ARM GAS  /tmp/ccO905hp.s 			page 30


 1635 065f 47       		.byte	0x47
 1636 0660 84060000 		.4byte	0x684
 1637 0664 04       		.byte	0x4
 1638 0665 06       		.uleb128 0x6
 1639 0666 FC050000 		.4byte	.LASF90
 1640 066a 0B       		.byte	0xb
 1641 066b 48       		.byte	0x48
 1642 066c 2C000000 		.4byte	0x2c
 1643 0670 08       		.byte	0x8
 1644 0671 06       		.uleb128 0x6
 1645 0672 10060000 		.4byte	.LASF91
 1646 0676 0B       		.byte	0xb
 1647 0677 49       		.byte	0x49
 1648 0678 2C000000 		.4byte	0x2c
 1649 067c 0C       		.byte	0xc
 1650 067d 00       		.byte	0
 1651 067e 09       		.uleb128 0x9
 1652 067f 04       		.byte	0x4
 1653 0680 15060000 		.4byte	0x615
 1654 0684 09       		.uleb128 0x9
 1655 0685 04       		.byte	0x4
 1656 0686 20060000 		.4byte	0x620
 1657 068a 04       		.uleb128 0x4
 1658 068b 2D060000 		.4byte	.LASF92
 1659 068f 0B       		.byte	0xb
 1660 0690 4A       		.byte	0x4a
 1661 0691 41060000 		.4byte	0x641
 1662 0695 18       		.uleb128 0x18
 1663 0696 2A020000 		.4byte	.LASF118
 1664 069a 01       		.byte	0x1
 1665 069b 21       		.byte	0x21
 1666 069c 00000000 		.4byte	.LFB111
 1667 06a0 7C000000 		.4byte	.LFE111-.LFB111
 1668 06a4 01       		.uleb128 0x1
 1669 06a5 9C       		.byte	0x9c
 1670 06a6 FD060000 		.4byte	0x6fd
 1671 06aa 19       		.uleb128 0x19
 1672 06ab 706C00   		.ascii	"pl\000"
 1673 06ae 01       		.byte	0x1
 1674 06af 21       		.byte	0x21
 1675 06b0 7E060000 		.4byte	0x67e
 1676 06b4 00000000 		.4byte	.LLST0
 1677 06b8 19       		.uleb128 0x19
 1678 06b9 67736800 		.ascii	"gsh\000"
 1679 06bd 01       		.byte	0x1
 1680 06be 21       		.byte	0x21
 1681 06bf 30060000 		.4byte	0x630
 1682 06c3 1E000000 		.4byte	.LLST1
 1683 06c7 1A       		.uleb128 0x1a
 1684 06c8 70736C00 		.ascii	"psl\000"
 1685 06cc 01       		.byte	0x1
 1686 06cd 22       		.byte	0x22
 1687 06ce FD060000 		.4byte	0x6fd
 1688 06d2 3C000000 		.4byte	.LLST2
 1689 06d6 1B       		.uleb128 0x1b
 1690 06d7 5C000000 		.4byte	.LVL8
 1691 06db BA0B0000 		.4byte	0xbba
ARM GAS  /tmp/ccO905hp.s 			page 31


 1692 06df EA060000 		.4byte	0x6ea
 1693 06e3 1C       		.uleb128 0x1c
 1694 06e4 01       		.uleb128 0x1
 1695 06e5 51       		.byte	0x51
 1696 06e6 02       		.uleb128 0x2
 1697 06e7 09       		.byte	0x9
 1698 06e8 FF       		.byte	0xff
 1699 06e9 00       		.byte	0
 1700 06ea 1D       		.uleb128 0x1d
 1701 06eb 6C000000 		.4byte	.LVL9
 1702 06ef DA0B0000 		.4byte	0xbda
 1703 06f3 1D       		.uleb128 0x1d
 1704 06f4 76000000 		.4byte	.LVL10
 1705 06f8 DA0B0000 		.4byte	0xbda
 1706 06fc 00       		.byte	0
 1707 06fd 09       		.uleb128 0x9
 1708 06fe 04       		.byte	0x4
 1709 06ff 8A060000 		.4byte	0x68a
 1710 0703 1E       		.uleb128 0x1e
 1711 0704 7A030000 		.4byte	.LASF93
 1712 0708 01       		.byte	0x1
 1713 0709 31       		.byte	0x31
 1714 070a 00000000 		.4byte	.LFB112
 1715 070e 0C000000 		.4byte	.LFE112-.LFB112
 1716 0712 01       		.uleb128 0x1
 1717 0713 9C       		.byte	0x9c
 1718 0714 2C070000 		.4byte	0x72c
 1719 0718 1F       		.uleb128 0x1f
 1720 0719 06000000 		.4byte	.LVL11
 1721 071d EB0B0000 		.4byte	0xbeb
 1722 0721 1C       		.uleb128 0x1c
 1723 0722 01       		.uleb128 0x1
 1724 0723 50       		.byte	0x50
 1725 0724 05       		.uleb128 0x5
 1726 0725 03       		.byte	0x3
 1727 0726 00000000 		.4byte	.LANCHOR1
 1728 072a 00       		.byte	0
 1729 072b 00       		.byte	0
 1730 072c 20       		.uleb128 0x20
 1731 072d A9020000 		.4byte	.LASF119
 1732 0731 01       		.byte	0x1
 1733 0732 36       		.byte	0x36
 1734 0733 00000000 		.4byte	.LFB113
 1735 0737 02000000 		.4byte	.LFE113-.LFB113
 1736 073b 01       		.uleb128 0x1
 1737 073c 9C       		.byte	0x9c
 1738 073d 1E       		.uleb128 0x1e
 1739 073e 3D060000 		.4byte	.LASF94
 1740 0742 01       		.byte	0x1
 1741 0743 3B       		.byte	0x3b
 1742 0744 00000000 		.4byte	.LFB114
 1743 0748 22000000 		.4byte	.LFE114-.LFB114
 1744 074c 01       		.uleb128 0x1
 1745 074d 9C       		.byte	0x9c
 1746 074e 9D070000 		.4byte	0x79d
 1747 0752 19       		.uleb128 0x19
 1748 0753 706C00   		.ascii	"pl\000"
ARM GAS  /tmp/ccO905hp.s 			page 32


 1749 0756 01       		.byte	0x1
 1750 0757 3B       		.byte	0x3b
 1751 0758 7E060000 		.4byte	0x67e
 1752 075c 84000000 		.4byte	.LLST3
 1753 0760 1B       		.uleb128 0x1b
 1754 0761 0E000000 		.4byte	.LVL13
 1755 0765 FC0B0000 		.4byte	0xbfc
 1756 0769 82070000 		.4byte	0x782
 1757 076d 1C       		.uleb128 0x1c
 1758 076e 01       		.uleb128 0x1
 1759 076f 52       		.byte	0x52
 1760 0770 05       		.uleb128 0x5
 1761 0771 0C       		.byte	0xc
 1762 0772 FFFFFF7F 		.4byte	0x7fffffff
 1763 0776 1C       		.uleb128 0x1c
 1764 0777 01       		.uleb128 0x1
 1765 0778 51       		.byte	0x51
 1766 0779 01       		.uleb128 0x1
 1767 077a 30       		.byte	0x30
 1768 077b 1C       		.uleb128 0x1c
 1769 077c 01       		.uleb128 0x1
 1770 077d 50       		.byte	0x50
 1771 077e 02       		.uleb128 0x2
 1772 077f 74       		.byte	0x74
 1773 0780 00       		.sleb128 0
 1774 0781 00       		.byte	0
 1775 0782 21       		.uleb128 0x21
 1776 0783 1A000000 		.4byte	.LVL14
 1777 0787 FC0B0000 		.4byte	0xbfc
 1778 078b 1C       		.uleb128 0x1c
 1779 078c 01       		.uleb128 0x1
 1780 078d 52       		.byte	0x52
 1781 078e 01       		.uleb128 0x1
 1782 078f 31       		.byte	0x31
 1783 0790 1C       		.uleb128 0x1c
 1784 0791 01       		.uleb128 0x1
 1785 0792 51       		.byte	0x51
 1786 0793 01       		.uleb128 0x1
 1787 0794 31       		.byte	0x31
 1788 0795 1C       		.uleb128 0x1c
 1789 0796 01       		.uleb128 0x1
 1790 0797 50       		.byte	0x50
 1791 0798 02       		.uleb128 0x2
 1792 0799 74       		.byte	0x74
 1793 079a 10       		.sleb128 16
 1794 079b 00       		.byte	0
 1795 079c 00       		.byte	0
 1796 079d 22       		.uleb128 0x22
 1797 079e 51000000 		.4byte	.LASF98
 1798 07a2 01       		.byte	0x1
 1799 07a3 42       		.byte	0x42
 1800 07a4 D9000000 		.4byte	0xd9
 1801 07a8 00000000 		.4byte	.LFB115
 1802 07ac A4000000 		.4byte	.LFE115-.LFB115
 1803 07b0 01       		.uleb128 0x1
 1804 07b1 9C       		.byte	0x9c
 1805 07b2 58080000 		.4byte	0x858
ARM GAS  /tmp/ccO905hp.s 			page 33


 1806 07b6 19       		.uleb128 0x19
 1807 07b7 706C00   		.ascii	"pl\000"
 1808 07ba 01       		.byte	0x1
 1809 07bb 42       		.byte	0x42
 1810 07bc 7E060000 		.4byte	0x67e
 1811 07c0 A2000000 		.4byte	.LLST4
 1812 07c4 19       		.uleb128 0x19
 1813 07c5 67736800 		.ascii	"gsh\000"
 1814 07c9 01       		.byte	0x1
 1815 07ca 42       		.byte	0x42
 1816 07cb 30060000 		.4byte	0x630
 1817 07cf EE000000 		.4byte	.LLST5
 1818 07d3 23       		.uleb128 0x23
 1819 07d4 19060000 		.4byte	.LASF95
 1820 07d8 01       		.byte	0x1
 1821 07d9 42       		.byte	0x42
 1822 07da 2C000000 		.4byte	0x2c
 1823 07de 2D010000 		.4byte	.LLST6
 1824 07e2 1A       		.uleb128 0x1a
 1825 07e3 70736C00 		.ascii	"psl\000"
 1826 07e7 01       		.byte	0x1
 1827 07e8 43       		.byte	0x43
 1828 07e9 FD060000 		.4byte	0x6fd
 1829 07ed 6C010000 		.4byte	.LLST7
 1830 07f1 24       		.uleb128 0x24
 1831 07f2 23010000 		.4byte	.LASF96
 1832 07f6 01       		.byte	0x1
 1833 07f7 43       		.byte	0x43
 1834 07f8 FD060000 		.4byte	0x6fd
 1835 07fc B2010000 		.4byte	.LLST8
 1836 0800 1B       		.uleb128 0x1b
 1837 0801 16000000 		.4byte	.LVL17
 1838 0805 170C0000 		.4byte	0xc17
 1839 0809 17080000 		.4byte	0x817
 1840 080d 1C       		.uleb128 0x1c
 1841 080e 01       		.uleb128 0x1
 1842 080f 50       		.byte	0x50
 1843 0810 05       		.uleb128 0x5
 1844 0811 03       		.byte	0x3
 1845 0812 00000000 		.4byte	.LANCHOR1
 1846 0816 00       		.byte	0
 1847 0817 1D       		.uleb128 0x1d
 1848 0818 64000000 		.4byte	.LVL24
 1849 081c 280C0000 		.4byte	0xc28
 1850 0820 1B       		.uleb128 0x1b
 1851 0821 84000000 		.4byte	.LVL31
 1852 0825 BA0B0000 		.4byte	0xbba
 1853 0829 3A080000 		.4byte	0x83a
 1854 082d 1C       		.uleb128 0x1c
 1855 082e 01       		.uleb128 0x1
 1856 082f 51       		.byte	0x51
 1857 0830 02       		.uleb128 0x2
 1858 0831 09       		.byte	0x9
 1859 0832 FF       		.byte	0xff
 1860 0833 1C       		.uleb128 0x1c
 1861 0834 01       		.uleb128 0x1
 1862 0835 50       		.byte	0x50
ARM GAS  /tmp/ccO905hp.s 			page 34


 1863 0836 02       		.uleb128 0x2
 1864 0837 77       		.byte	0x77
 1865 0838 00       		.sleb128 0
 1866 0839 00       		.byte	0
 1867 083a 1B       		.uleb128 0x1b
 1868 083b 8E000000 		.4byte	.LVL32
 1869 083f DA0B0000 		.4byte	0xbda
 1870 0843 4E080000 		.4byte	0x84e
 1871 0847 1C       		.uleb128 0x1c
 1872 0848 01       		.uleb128 0x1
 1873 0849 50       		.byte	0x50
 1874 084a 02       		.uleb128 0x2
 1875 084b 77       		.byte	0x77
 1876 084c 00       		.sleb128 0
 1877 084d 00       		.byte	0
 1878 084e 1D       		.uleb128 0x1d
 1879 084f 92000000 		.4byte	.LVL33
 1880 0853 280C0000 		.4byte	0xc28
 1881 0857 00       		.byte	0
 1882 0858 1E       		.uleb128 0x1e
 1883 0859 64000000 		.4byte	.LASF97
 1884 085d 01       		.byte	0x1
 1885 085e 69       		.byte	0x69
 1886 085f 00000000 		.4byte	.LFB116
 1887 0863 4C000000 		.4byte	.LFE116-.LFB116
 1888 0867 01       		.uleb128 0x1
 1889 0868 9C       		.byte	0x9c
 1890 0869 03090000 		.4byte	0x903
 1891 086d 19       		.uleb128 0x19
 1892 086e 706C00   		.ascii	"pl\000"
 1893 0871 01       		.byte	0x1
 1894 0872 69       		.byte	0x69
 1895 0873 7E060000 		.4byte	0x67e
 1896 0877 DC010000 		.4byte	.LLST9
 1897 087b 19       		.uleb128 0x19
 1898 087c 67736800 		.ascii	"gsh\000"
 1899 0880 01       		.byte	0x1
 1900 0881 69       		.byte	0x69
 1901 0882 30060000 		.4byte	0x630
 1902 0886 1E020000 		.4byte	.LLST10
 1903 088a 1B       		.uleb128 0x1b
 1904 088b 0E000000 		.4byte	.LVL37
 1905 088f 170C0000 		.4byte	0xc17
 1906 0893 A1080000 		.4byte	0x8a1
 1907 0897 1C       		.uleb128 0x1c
 1908 0898 01       		.uleb128 0x1
 1909 0899 50       		.byte	0x50
 1910 089a 05       		.uleb128 0x5
 1911 089b 03       		.byte	0x3
 1912 089c 00000000 		.4byte	.LANCHOR1
 1913 08a0 00       		.byte	0
 1914 08a1 1B       		.uleb128 0x1b
 1915 08a2 16000000 		.4byte	.LVL38
 1916 08a6 95060000 		.4byte	0x695
 1917 08aa BB080000 		.4byte	0x8bb
 1918 08ae 1C       		.uleb128 0x1c
 1919 08af 01       		.uleb128 0x1
ARM GAS  /tmp/ccO905hp.s 			page 35


 1920 08b0 51       		.byte	0x51
 1921 08b1 02       		.uleb128 0x2
 1922 08b2 75       		.byte	0x75
 1923 08b3 00       		.sleb128 0
 1924 08b4 1C       		.uleb128 0x1c
 1925 08b5 01       		.uleb128 0x1
 1926 08b6 50       		.byte	0x50
 1927 08b7 02       		.uleb128 0x2
 1928 08b8 74       		.byte	0x74
 1929 08b9 00       		.sleb128 0
 1930 08ba 00       		.byte	0
 1931 08bb 25       		.uleb128 0x25
 1932 08bc 20000000 		.4byte	.LVL41
 1933 08c0 280C0000 		.4byte	0xc28
 1934 08c4 1B       		.uleb128 0x1b
 1935 08c5 36000000 		.4byte	.LVL44
 1936 08c9 BA0B0000 		.4byte	0xbba
 1937 08cd DE080000 		.4byte	0x8de
 1938 08d1 1C       		.uleb128 0x1c
 1939 08d2 01       		.uleb128 0x1
 1940 08d3 51       		.byte	0x51
 1941 08d4 02       		.uleb128 0x2
 1942 08d5 09       		.byte	0x9
 1943 08d6 FF       		.byte	0xff
 1944 08d7 1C       		.uleb128 0x1c
 1945 08d8 01       		.uleb128 0x1
 1946 08d9 50       		.byte	0x50
 1947 08da 02       		.uleb128 0x2
 1948 08db 75       		.byte	0x75
 1949 08dc 00       		.sleb128 0
 1950 08dd 00       		.byte	0
 1951 08de 1B       		.uleb128 0x1b
 1952 08df 40000000 		.4byte	.LVL45
 1953 08e3 DA0B0000 		.4byte	0xbda
 1954 08e7 F2080000 		.4byte	0x8f2
 1955 08eb 1C       		.uleb128 0x1c
 1956 08ec 01       		.uleb128 0x1
 1957 08ed 50       		.byte	0x50
 1958 08ee 02       		.uleb128 0x2
 1959 08ef 74       		.byte	0x74
 1960 08f0 00       		.sleb128 0
 1961 08f1 00       		.byte	0
 1962 08f2 21       		.uleb128 0x21
 1963 08f3 46000000 		.4byte	.LVL46
 1964 08f7 DA0B0000 		.4byte	0xbda
 1965 08fb 1C       		.uleb128 0x1c
 1966 08fc 01       		.uleb128 0x1
 1967 08fd 50       		.byte	0x50
 1968 08fe 02       		.uleb128 0x2
 1969 08ff 75       		.byte	0x75
 1970 0900 00       		.sleb128 0
 1971 0901 00       		.byte	0
 1972 0902 00       		.byte	0
 1973 0903 22       		.uleb128 0x22
 1974 0904 1A020000 		.4byte	.LASF99
 1975 0908 01       		.byte	0x1
 1976 0909 77       		.byte	0x77
ARM GAS  /tmp/ccO905hp.s 			page 36


 1977 090a C6050000 		.4byte	0x5c6
 1978 090e 00000000 		.4byte	.LFB117
 1979 0912 1E000000 		.4byte	.LFE117-.LFB117
 1980 0916 01       		.uleb128 0x1
 1981 0917 9C       		.byte	0x9c
 1982 0918 51090000 		.4byte	0x951
 1983 091c 19       		.uleb128 0x19
 1984 091d 706C00   		.ascii	"pl\000"
 1985 0920 01       		.byte	0x1
 1986 0921 77       		.byte	0x77
 1987 0922 7E060000 		.4byte	0x67e
 1988 0926 6E020000 		.4byte	.LLST11
 1989 092a 23       		.uleb128 0x23
 1990 092b 3C020000 		.4byte	.LASF100
 1991 092f 01       		.byte	0x1
 1992 0930 77       		.byte	0x77
 1993 0931 0F050000 		.4byte	0x50f
 1994 0935 8C020000 		.4byte	.LLST12
 1995 0939 21       		.uleb128 0x21
 1996 093a 12000000 		.4byte	.LVL48
 1997 093e BA0B0000 		.4byte	0xbba
 1998 0942 1C       		.uleb128 0x1c
 1999 0943 01       		.uleb128 0x1
 2000 0944 51       		.byte	0x51
 2001 0945 03       		.uleb128 0x3
 2002 0946 F3       		.byte	0xf3
 2003 0947 01       		.uleb128 0x1
 2004 0948 51       		.byte	0x51
 2005 0949 1C       		.uleb128 0x1c
 2006 094a 01       		.uleb128 0x1
 2007 094b 50       		.byte	0x50
 2008 094c 02       		.uleb128 0x2
 2009 094d 74       		.byte	0x74
 2010 094e 00       		.sleb128 0
 2011 094f 00       		.byte	0
 2012 0950 00       		.byte	0
 2013 0951 1E       		.uleb128 0x1e
 2014 0952 DE020000 		.4byte	.LASF101
 2015 0956 01       		.byte	0x1
 2016 0957 7D       		.byte	0x7d
 2017 0958 00000000 		.4byte	.LFB118
 2018 095c 54000000 		.4byte	.LFE118-.LFB118
 2019 0960 01       		.uleb128 0x1
 2020 0961 9C       		.byte	0x9c
 2021 0962 110A0000 		.4byte	0xa11
 2022 0966 19       		.uleb128 0x19
 2023 0967 706C00   		.ascii	"pl\000"
 2024 096a 01       		.byte	0x1
 2025 096b 7D       		.byte	0x7d
 2026 096c 7E060000 		.4byte	0x67e
 2027 0970 AD020000 		.4byte	.LLST13
 2028 0974 19       		.uleb128 0x19
 2029 0975 666E00   		.ascii	"fn\000"
 2030 0978 01       		.byte	0x1
 2031 0979 7D       		.byte	0x7d
 2032 097a A5050000 		.4byte	0x5a5
 2033 097e FD020000 		.4byte	.LLST14
ARM GAS  /tmp/ccO905hp.s 			page 37


 2034 0982 23       		.uleb128 0x23
 2035 0983 2D030000 		.4byte	.LASF83
 2036 0987 01       		.byte	0x1
 2037 0988 7D       		.byte	0x7d
 2038 0989 BF020000 		.4byte	0x2bf
 2039 098d 4D030000 		.4byte	.LLST15
 2040 0991 1B       		.uleb128 0x1b
 2041 0992 14000000 		.4byte	.LVL52
 2042 0996 170C0000 		.4byte	0xc17
 2043 099a A8090000 		.4byte	0x9a8
 2044 099e 1C       		.uleb128 0x1c
 2045 099f 01       		.uleb128 0x1
 2046 09a0 50       		.byte	0x50
 2047 09a1 05       		.uleb128 0x5
 2048 09a2 03       		.byte	0x3
 2049 09a3 00000000 		.4byte	.LANCHOR1
 2050 09a7 00       		.byte	0
 2051 09a8 1B       		.uleb128 0x1b
 2052 09a9 1E000000 		.4byte	.LVL53
 2053 09ad BA0B0000 		.4byte	0xbba
 2054 09b1 C2090000 		.4byte	0x9c2
 2055 09b5 1C       		.uleb128 0x1c
 2056 09b6 01       		.uleb128 0x1
 2057 09b7 51       		.byte	0x51
 2058 09b8 02       		.uleb128 0x2
 2059 09b9 09       		.byte	0x9
 2060 09ba FF       		.byte	0xff
 2061 09bb 1C       		.uleb128 0x1c
 2062 09bc 01       		.uleb128 0x1
 2063 09bd 50       		.byte	0x50
 2064 09be 02       		.uleb128 0x2
 2065 09bf 75       		.byte	0x75
 2066 09c0 00       		.sleb128 0
 2067 09c1 00       		.byte	0
 2068 09c2 1B       		.uleb128 0x1b
 2069 09c3 2E000000 		.4byte	.LVL54
 2070 09c7 DA0B0000 		.4byte	0xbda
 2071 09cb D6090000 		.4byte	0x9d6
 2072 09cf 1C       		.uleb128 0x1c
 2073 09d0 01       		.uleb128 0x1
 2074 09d1 50       		.byte	0x50
 2075 09d2 02       		.uleb128 0x2
 2076 09d3 75       		.byte	0x75
 2077 09d4 00       		.sleb128 0
 2078 09d5 00       		.byte	0
 2079 09d6 25       		.uleb128 0x25
 2080 09d7 36000000 		.4byte	.LVL56
 2081 09db 280C0000 		.4byte	0xc28
 2082 09df 1B       		.uleb128 0x1b
 2083 09e0 42000000 		.4byte	.LVL58
 2084 09e4 DA0B0000 		.4byte	0xbda
 2085 09e8 F3090000 		.4byte	0x9f3
 2086 09ec 1C       		.uleb128 0x1c
 2087 09ed 01       		.uleb128 0x1
 2088 09ee 50       		.byte	0x50
 2089 09ef 02       		.uleb128 0x2
 2090 09f0 74       		.byte	0x74
ARM GAS  /tmp/ccO905hp.s 			page 38


 2091 09f1 00       		.sleb128 0
 2092 09f2 00       		.byte	0
 2093 09f3 1B       		.uleb128 0x1b
 2094 09f4 48000000 		.4byte	.LVL59
 2095 09f8 DA0B0000 		.4byte	0xbda
 2096 09fc 070A0000 		.4byte	0xa07
 2097 0a00 1C       		.uleb128 0x1c
 2098 0a01 01       		.uleb128 0x1
 2099 0a02 50       		.byte	0x50
 2100 0a03 02       		.uleb128 0x2
 2101 0a04 75       		.byte	0x75
 2102 0a05 00       		.sleb128 0
 2103 0a06 00       		.byte	0
 2104 0a07 25       		.uleb128 0x25
 2105 0a08 50000000 		.4byte	.LVL61
 2106 0a0c 280C0000 		.4byte	0xc28
 2107 0a10 00       		.byte	0
 2108 0a11 22       		.uleb128 0x22
 2109 0a12 FF020000 		.4byte	.LASF102
 2110 0a16 01       		.byte	0x1
 2111 0a17 8C       		.byte	0x8c
 2112 0a18 FD060000 		.4byte	0x6fd
 2113 0a1c 00000000 		.4byte	.LFB119
 2114 0a20 64000000 		.4byte	.LFE119-.LFB119
 2115 0a24 01       		.uleb128 0x1
 2116 0a25 9C       		.byte	0x9c
 2117 0a26 9E0A0000 		.4byte	0xa9e
 2118 0a2a 19       		.uleb128 0x19
 2119 0a2b 67736800 		.ascii	"gsh\000"
 2120 0a2f 01       		.byte	0x1
 2121 0a30 8C       		.byte	0x8c
 2122 0a31 30060000 		.4byte	0x630
 2123 0a35 9D030000 		.4byte	.LLST16
 2124 0a39 23       		.uleb128 0x23
 2125 0a3a B7010000 		.4byte	.LASF103
 2126 0a3e 01       		.byte	0x1
 2127 0a3f 8C       		.byte	0x8c
 2128 0a40 FD060000 		.4byte	0x6fd
 2129 0a44 BB030000 		.4byte	.LLST17
 2130 0a48 1A       		.uleb128 0x1a
 2131 0a49 70736C00 		.ascii	"psl\000"
 2132 0a4d 01       		.byte	0x1
 2133 0a4e 8D       		.byte	0x8d
 2134 0a4f FD060000 		.4byte	0x6fd
 2135 0a53 0D040000 		.4byte	.LLST18
 2136 0a57 1B       		.uleb128 0x1b
 2137 0a58 0E000000 		.4byte	.LVL64
 2138 0a5c 170C0000 		.4byte	0xc17
 2139 0a60 6E0A0000 		.4byte	0xa6e
 2140 0a64 1C       		.uleb128 0x1c
 2141 0a65 01       		.uleb128 0x1
 2142 0a66 50       		.byte	0x50
 2143 0a67 05       		.uleb128 0x5
 2144 0a68 03       		.byte	0x3
 2145 0a69 00000000 		.4byte	.LANCHOR1
 2146 0a6d 00       		.byte	0
 2147 0a6e 1D       		.uleb128 0x1d
ARM GAS  /tmp/ccO905hp.s 			page 39


 2148 0a6f 1A000000 		.4byte	.LVL66
 2149 0a73 DA0B0000 		.4byte	0xbda
 2150 0a77 1D       		.uleb128 0x1d
 2151 0a78 3A000000 		.4byte	.LVL69
 2152 0a7c 280C0000 		.4byte	0xc28
 2153 0a80 1B       		.uleb128 0x1b
 2154 0a81 4A000000 		.4byte	.LVL71
 2155 0a85 BA0B0000 		.4byte	0xbba
 2156 0a89 940A0000 		.4byte	0xa94
 2157 0a8d 1C       		.uleb128 0x1c
 2158 0a8e 01       		.uleb128 0x1
 2159 0a8f 51       		.byte	0x51
 2160 0a90 02       		.uleb128 0x2
 2161 0a91 09       		.byte	0x9
 2162 0a92 FF       		.byte	0xff
 2163 0a93 00       		.byte	0
 2164 0a94 1D       		.uleb128 0x1d
 2165 0a95 4E000000 		.4byte	.LVL72
 2166 0a99 280C0000 		.4byte	0xc28
 2167 0a9d 00       		.byte	0
 2168 0a9e 22       		.uleb128 0x22
 2169 0a9f FA010000 		.4byte	.LASF104
 2170 0aa3 01       		.byte	0x1
 2171 0aa4 A5       		.byte	0xa5
 2172 0aa5 C6050000 		.4byte	0x5c6
 2173 0aa9 00000000 		.4byte	.LFB120
 2174 0aad 16000000 		.4byte	.LFE120-.LFB120
 2175 0ab1 01       		.uleb128 0x1
 2176 0ab2 9C       		.byte	0x9c
 2177 0ab3 C70A0000 		.4byte	0xac7
 2178 0ab7 19       		.uleb128 0x19
 2179 0ab8 70736C00 		.ascii	"psl\000"
 2180 0abc 01       		.byte	0x1
 2181 0abd A5       		.byte	0xa5
 2182 0abe FD060000 		.4byte	0x6fd
 2183 0ac2 2B040000 		.4byte	.LLST19
 2184 0ac6 00       		.byte	0
 2185 0ac7 26       		.uleb128 0x26
 2186 0ac8 CE020000 		.4byte	.LASF105
 2187 0acc 01       		.byte	0x1
 2188 0acd AA       		.byte	0xaa
 2189 0ace 00000000 		.4byte	.LFB121
 2190 0ad2 38000000 		.4byte	.LFE121-.LFB121
 2191 0ad6 01       		.uleb128 0x1
 2192 0ad7 9C       		.byte	0x9c
 2193 0ad8 1E0B0000 		.4byte	0xb1e
 2194 0adc 19       		.uleb128 0x19
 2195 0add 70736C00 		.ascii	"psl\000"
 2196 0ae1 01       		.byte	0x1
 2197 0ae2 AA       		.byte	0xaa
 2198 0ae3 FD060000 		.4byte	0x6fd
 2199 0ae7 4C040000 		.4byte	.LLST20
 2200 0aeb 1B       		.uleb128 0x1b
 2201 0aec 0A000000 		.4byte	.LVL79
 2202 0af0 170C0000 		.4byte	0xc17
 2203 0af4 020B0000 		.4byte	0xb02
 2204 0af8 1C       		.uleb128 0x1c
ARM GAS  /tmp/ccO905hp.s 			page 40


 2205 0af9 01       		.uleb128 0x1
 2206 0afa 50       		.byte	0x50
 2207 0afb 05       		.uleb128 0x5
 2208 0afc 03       		.byte	0x3
 2209 0afd 00000000 		.4byte	.LANCHOR1
 2210 0b01 00       		.byte	0
 2211 0b02 1D       		.uleb128 0x1d
 2212 0b03 14000000 		.4byte	.LVL80
 2213 0b07 280C0000 		.4byte	0xc28
 2214 0b0b 25       		.uleb128 0x25
 2215 0b0c 2E000000 		.4byte	.LVL84
 2216 0b10 280C0000 		.4byte	0xc28
 2217 0b14 1D       		.uleb128 0x1d
 2218 0b15 32000000 		.4byte	.LVL85
 2219 0b19 DA0B0000 		.4byte	0xbda
 2220 0b1d 00       		.byte	0
 2221 0b1e 1E       		.uleb128 0x1e
 2222 0b1f 9F030000 		.4byte	.LASF106
 2223 0b23 01       		.byte	0x1
 2224 0b24 B9       		.byte	0xb9
 2225 0b25 00000000 		.4byte	.LFB122
 2226 0b29 20000000 		.4byte	.LFE122-.LFB122
 2227 0b2d 01       		.uleb128 0x1
 2228 0b2e 9C       		.byte	0x9c
 2229 0b2f 7C0B0000 		.4byte	0xb7c
 2230 0b33 19       		.uleb128 0x19
 2231 0b34 67736800 		.ascii	"gsh\000"
 2232 0b38 01       		.byte	0x1
 2233 0b39 B9       		.byte	0xb9
 2234 0b3a 30060000 		.4byte	0x630
 2235 0b3e 83040000 		.4byte	.LLST21
 2236 0b42 1B       		.uleb128 0x1b
 2237 0b43 0A000000 		.4byte	.LVL88
 2238 0b47 170C0000 		.4byte	0xc17
 2239 0b4b 590B0000 		.4byte	0xb59
 2240 0b4f 1C       		.uleb128 0x1c
 2241 0b50 01       		.uleb128 0x1
 2242 0b51 50       		.byte	0x50
 2243 0b52 05       		.uleb128 0x5
 2244 0b53 03       		.byte	0x3
 2245 0b54 00000000 		.4byte	.LANCHOR1
 2246 0b58 00       		.byte	0
 2247 0b59 1B       		.uleb128 0x1b
 2248 0b5a 12000000 		.4byte	.LVL89
 2249 0b5e 95060000 		.4byte	0x695
 2250 0b62 720B0000 		.4byte	0xb72
 2251 0b66 1C       		.uleb128 0x1c
 2252 0b67 01       		.uleb128 0x1
 2253 0b68 51       		.byte	0x51
 2254 0b69 02       		.uleb128 0x2
 2255 0b6a 74       		.byte	0x74
 2256 0b6b 00       		.sleb128 0
 2257 0b6c 1C       		.uleb128 0x1c
 2258 0b6d 01       		.uleb128 0x1
 2259 0b6e 50       		.byte	0x50
 2260 0b6f 01       		.uleb128 0x1
 2261 0b70 30       		.byte	0x30
ARM GAS  /tmp/ccO905hp.s 			page 41


 2262 0b71 00       		.byte	0
 2263 0b72 25       		.uleb128 0x25
 2264 0b73 1A000000 		.4byte	.LVL91
 2265 0b77 280C0000 		.4byte	0xc28
 2266 0b7b 00       		.byte	0
 2267 0b7c 27       		.uleb128 0x27
 2268 0b7d 52030000 		.4byte	.LASF107
 2269 0b81 01       		.byte	0x1
 2270 0b82 1A       		.byte	0x1a
 2271 0b83 51050000 		.4byte	0x551
 2272 0b87 05       		.uleb128 0x5
 2273 0b88 03       		.byte	0x3
 2274 0b89 00000000 		.4byte	geventMutex
 2275 0b8d 13       		.uleb128 0x13
 2276 0b8e 8A060000 		.4byte	0x68a
 2277 0b92 9D0B0000 		.4byte	0xb9d
 2278 0b96 14       		.uleb128 0x14
 2279 0b97 39040000 		.4byte	0x439
 2280 0b9b 1F       		.byte	0x1f
 2281 0b9c 00       		.byte	0
 2282 0b9d 27       		.uleb128 0x27
 2283 0b9e B7020000 		.4byte	.LASF108
 2284 0ba2 01       		.byte	0x1
 2285 0ba3 1D       		.byte	0x1d
 2286 0ba4 8D0B0000 		.4byte	0xb8d
 2287 0ba8 05       		.uleb128 0x5
 2288 0ba9 03       		.byte	0x3
 2289 0baa 00000000 		.4byte	Assignments
 2290 0bae 28       		.uleb128 0x28
 2291 0baf CC000000 		.4byte	.LASF120
 2292 0bb3 0C       		.byte	0xc
 2293 0bb4 9806     		.2byte	0x698
 2294 0bb6 0A050000 		.4byte	0x50a
 2295 0bba 29       		.uleb128 0x29
 2296 0bbb 8D010000 		.4byte	.LASF121
 2297 0bbf 0A       		.byte	0xa
 2298 0bc0 66       		.byte	0x66
 2299 0bc1 D9000000 		.4byte	0xd9
 2300 0bc5 D40B0000 		.4byte	0xbd4
 2301 0bc9 16       		.uleb128 0x16
 2302 0bca D40B0000 		.4byte	0xbd4
 2303 0bce 16       		.uleb128 0x16
 2304 0bcf 0F050000 		.4byte	0x50f
 2305 0bd3 00       		.byte	0
 2306 0bd4 09       		.uleb128 0x9
 2307 0bd5 04       		.byte	0x4
 2308 0bd6 46050000 		.4byte	0x546
 2309 0bda 2A       		.uleb128 0x2a
 2310 0bdb EF050000 		.4byte	.LASF109
 2311 0bdf 0A       		.byte	0xa
 2312 0be0 68       		.byte	0x68
 2313 0be1 EB0B0000 		.4byte	0xbeb
 2314 0be5 16       		.uleb128 0x16
 2315 0be6 D40B0000 		.4byte	0xbd4
 2316 0bea 00       		.byte	0
 2317 0beb 2A       		.uleb128 0x2a
 2318 0bec D7050000 		.4byte	.LASF110
ARM GAS  /tmp/ccO905hp.s 			page 42


 2319 0bf0 09       		.byte	0x9
 2320 0bf1 38       		.byte	0x38
 2321 0bf2 FC0B0000 		.4byte	0xbfc
 2322 0bf6 16       		.uleb128 0x16
 2323 0bf7 04050000 		.4byte	0x504
 2324 0bfb 00       		.byte	0
 2325 0bfc 2A       		.uleb128 0x2a
 2326 0bfd EF010000 		.4byte	.LASF111
 2327 0c01 0A       		.byte	0xa
 2328 0c02 64       		.byte	0x64
 2329 0c03 170C0000 		.4byte	0xc17
 2330 0c07 16       		.uleb128 0x16
 2331 0c08 D40B0000 		.4byte	0xbd4
 2332 0c0c 16       		.uleb128 0x16
 2333 0c0d 1A050000 		.4byte	0x51a
 2334 0c11 16       		.uleb128 0x16
 2335 0c12 1A050000 		.4byte	0x51a
 2336 0c16 00       		.byte	0
 2337 0c17 2A       		.uleb128 0x2a
 2338 0c18 33030000 		.4byte	.LASF112
 2339 0c1c 09       		.byte	0x9
 2340 0c1d 39       		.byte	0x39
 2341 0c1e 280C0000 		.4byte	0xc28
 2342 0c22 16       		.uleb128 0x16
 2343 0c23 04050000 		.4byte	0x504
 2344 0c27 00       		.byte	0
 2345 0c28 2B       		.uleb128 0x2b
 2346 0c29 2B010000 		.4byte	.LASF122
 2347 0c2d 09       		.byte	0x9
 2348 0c2e 3D       		.byte	0x3d
 2349 0c2f 04050000 		.4byte	0x504
 2350 0c33 00       		.byte	0
 2351              		.section	.debug_abbrev,"",%progbits
 2352              	.Ldebug_abbrev0:
 2353 0000 01       		.uleb128 0x1
 2354 0001 11       		.uleb128 0x11
 2355 0002 01       		.byte	0x1
 2356 0003 25       		.uleb128 0x25
 2357 0004 0E       		.uleb128 0xe
 2358 0005 13       		.uleb128 0x13
 2359 0006 0B       		.uleb128 0xb
 2360 0007 03       		.uleb128 0x3
 2361 0008 0E       		.uleb128 0xe
 2362 0009 1B       		.uleb128 0x1b
 2363 000a 0E       		.uleb128 0xe
 2364 000b 55       		.uleb128 0x55
 2365 000c 17       		.uleb128 0x17
 2366 000d 11       		.uleb128 0x11
 2367 000e 01       		.uleb128 0x1
 2368 000f 10       		.uleb128 0x10
 2369 0010 17       		.uleb128 0x17
 2370 0011 00       		.byte	0
 2371 0012 00       		.byte	0
 2372 0013 02       		.uleb128 0x2
 2373 0014 24       		.uleb128 0x24
 2374 0015 00       		.byte	0
 2375 0016 0B       		.uleb128 0xb
ARM GAS  /tmp/ccO905hp.s 			page 43


 2376 0017 0B       		.uleb128 0xb
 2377 0018 3E       		.uleb128 0x3e
 2378 0019 0B       		.uleb128 0xb
 2379 001a 03       		.uleb128 0x3
 2380 001b 08       		.uleb128 0x8
 2381 001c 00       		.byte	0
 2382 001d 00       		.byte	0
 2383 001e 03       		.uleb128 0x3
 2384 001f 24       		.uleb128 0x24
 2385 0020 00       		.byte	0
 2386 0021 0B       		.uleb128 0xb
 2387 0022 0B       		.uleb128 0xb
 2388 0023 3E       		.uleb128 0x3e
 2389 0024 0B       		.uleb128 0xb
 2390 0025 03       		.uleb128 0x3
 2391 0026 0E       		.uleb128 0xe
 2392 0027 00       		.byte	0
 2393 0028 00       		.byte	0
 2394 0029 04       		.uleb128 0x4
 2395 002a 16       		.uleb128 0x16
 2396 002b 00       		.byte	0
 2397 002c 03       		.uleb128 0x3
 2398 002d 0E       		.uleb128 0xe
 2399 002e 3A       		.uleb128 0x3a
 2400 002f 0B       		.uleb128 0xb
 2401 0030 3B       		.uleb128 0x3b
 2402 0031 0B       		.uleb128 0xb
 2403 0032 49       		.uleb128 0x49
 2404 0033 13       		.uleb128 0x13
 2405 0034 00       		.byte	0
 2406 0035 00       		.byte	0
 2407 0036 05       		.uleb128 0x5
 2408 0037 13       		.uleb128 0x13
 2409 0038 01       		.byte	0x1
 2410 0039 03       		.uleb128 0x3
 2411 003a 0E       		.uleb128 0xe
 2412 003b 0B       		.uleb128 0xb
 2413 003c 0B       		.uleb128 0xb
 2414 003d 3A       		.uleb128 0x3a
 2415 003e 0B       		.uleb128 0xb
 2416 003f 3B       		.uleb128 0x3b
 2417 0040 0B       		.uleb128 0xb
 2418 0041 01       		.uleb128 0x1
 2419 0042 13       		.uleb128 0x13
 2420 0043 00       		.byte	0
 2421 0044 00       		.byte	0
 2422 0045 06       		.uleb128 0x6
 2423 0046 0D       		.uleb128 0xd
 2424 0047 00       		.byte	0
 2425 0048 03       		.uleb128 0x3
 2426 0049 0E       		.uleb128 0xe
 2427 004a 3A       		.uleb128 0x3a
 2428 004b 0B       		.uleb128 0xb
 2429 004c 3B       		.uleb128 0x3b
 2430 004d 0B       		.uleb128 0xb
 2431 004e 49       		.uleb128 0x49
 2432 004f 13       		.uleb128 0x13
ARM GAS  /tmp/ccO905hp.s 			page 44


 2433 0050 38       		.uleb128 0x38
 2434 0051 0B       		.uleb128 0xb
 2435 0052 00       		.byte	0
 2436 0053 00       		.byte	0
 2437 0054 07       		.uleb128 0x7
 2438 0055 0D       		.uleb128 0xd
 2439 0056 00       		.byte	0
 2440 0057 03       		.uleb128 0x3
 2441 0058 08       		.uleb128 0x8
 2442 0059 3A       		.uleb128 0x3a
 2443 005a 0B       		.uleb128 0xb
 2444 005b 3B       		.uleb128 0x3b
 2445 005c 0B       		.uleb128 0xb
 2446 005d 49       		.uleb128 0x49
 2447 005e 13       		.uleb128 0x13
 2448 005f 38       		.uleb128 0x38
 2449 0060 0B       		.uleb128 0xb
 2450 0061 00       		.byte	0
 2451 0062 00       		.byte	0
 2452 0063 08       		.uleb128 0x8
 2453 0064 13       		.uleb128 0x13
 2454 0065 01       		.byte	0x1
 2455 0066 0B       		.uleb128 0xb
 2456 0067 0B       		.uleb128 0xb
 2457 0068 3A       		.uleb128 0x3a
 2458 0069 0B       		.uleb128 0xb
 2459 006a 3B       		.uleb128 0x3b
 2460 006b 0B       		.uleb128 0xb
 2461 006c 01       		.uleb128 0x1
 2462 006d 13       		.uleb128 0x13
 2463 006e 00       		.byte	0
 2464 006f 00       		.byte	0
 2465 0070 09       		.uleb128 0x9
 2466 0071 0F       		.uleb128 0xf
 2467 0072 00       		.byte	0
 2468 0073 0B       		.uleb128 0xb
 2469 0074 0B       		.uleb128 0xb
 2470 0075 49       		.uleb128 0x49
 2471 0076 13       		.uleb128 0x13
 2472 0077 00       		.byte	0
 2473 0078 00       		.byte	0
 2474 0079 0A       		.uleb128 0xa
 2475 007a 0F       		.uleb128 0xf
 2476 007b 00       		.byte	0
 2477 007c 0B       		.uleb128 0xb
 2478 007d 0B       		.uleb128 0xb
 2479 007e 00       		.byte	0
 2480 007f 00       		.byte	0
 2481 0080 0B       		.uleb128 0xb
 2482 0081 13       		.uleb128 0x13
 2483 0082 01       		.byte	0x1
 2484 0083 03       		.uleb128 0x3
 2485 0084 0E       		.uleb128 0xe
 2486 0085 0B       		.uleb128 0xb
 2487 0086 0B       		.uleb128 0xb
 2488 0087 3A       		.uleb128 0x3a
 2489 0088 0B       		.uleb128 0xb
ARM GAS  /tmp/ccO905hp.s 			page 45


 2490 0089 3B       		.uleb128 0x3b
 2491 008a 05       		.uleb128 0x5
 2492 008b 01       		.uleb128 0x1
 2493 008c 13       		.uleb128 0x13
 2494 008d 00       		.byte	0
 2495 008e 00       		.byte	0
 2496 008f 0C       		.uleb128 0xc
 2497 0090 0D       		.uleb128 0xd
 2498 0091 00       		.byte	0
 2499 0092 03       		.uleb128 0x3
 2500 0093 08       		.uleb128 0x8
 2501 0094 3A       		.uleb128 0x3a
 2502 0095 0B       		.uleb128 0xb
 2503 0096 3B       		.uleb128 0x3b
 2504 0097 05       		.uleb128 0x5
 2505 0098 49       		.uleb128 0x49
 2506 0099 13       		.uleb128 0x13
 2507 009a 38       		.uleb128 0x38
 2508 009b 0B       		.uleb128 0xb
 2509 009c 00       		.byte	0
 2510 009d 00       		.byte	0
 2511 009e 0D       		.uleb128 0xd
 2512 009f 35       		.uleb128 0x35
 2513 00a0 00       		.byte	0
 2514 00a1 49       		.uleb128 0x49
 2515 00a2 13       		.uleb128 0x13
 2516 00a3 00       		.byte	0
 2517 00a4 00       		.byte	0
 2518 00a5 0E       		.uleb128 0xe
 2519 00a6 17       		.uleb128 0x17
 2520 00a7 01       		.byte	0x1
 2521 00a8 0B       		.uleb128 0xb
 2522 00a9 0B       		.uleb128 0xb
 2523 00aa 3A       		.uleb128 0x3a
 2524 00ab 0B       		.uleb128 0xb
 2525 00ac 3B       		.uleb128 0x3b
 2526 00ad 0B       		.uleb128 0xb
 2527 00ae 01       		.uleb128 0x1
 2528 00af 13       		.uleb128 0x13
 2529 00b0 00       		.byte	0
 2530 00b1 00       		.byte	0
 2531 00b2 0F       		.uleb128 0xf
 2532 00b3 0D       		.uleb128 0xd
 2533 00b4 00       		.byte	0
 2534 00b5 03       		.uleb128 0x3
 2535 00b6 0E       		.uleb128 0xe
 2536 00b7 3A       		.uleb128 0x3a
 2537 00b8 0B       		.uleb128 0xb
 2538 00b9 3B       		.uleb128 0x3b
 2539 00ba 0B       		.uleb128 0xb
 2540 00bb 49       		.uleb128 0x49
 2541 00bc 13       		.uleb128 0x13
 2542 00bd 00       		.byte	0
 2543 00be 00       		.byte	0
 2544 00bf 10       		.uleb128 0x10
 2545 00c0 26       		.uleb128 0x26
 2546 00c1 00       		.byte	0
ARM GAS  /tmp/ccO905hp.s 			page 46


 2547 00c2 49       		.uleb128 0x49
 2548 00c3 13       		.uleb128 0x13
 2549 00c4 00       		.byte	0
 2550 00c5 00       		.byte	0
 2551 00c6 11       		.uleb128 0x11
 2552 00c7 17       		.uleb128 0x17
 2553 00c8 01       		.byte	0x1
 2554 00c9 03       		.uleb128 0x3
 2555 00ca 0E       		.uleb128 0xe
 2556 00cb 0B       		.uleb128 0xb
 2557 00cc 0B       		.uleb128 0xb
 2558 00cd 3A       		.uleb128 0x3a
 2559 00ce 0B       		.uleb128 0xb
 2560 00cf 3B       		.uleb128 0x3b
 2561 00d0 0B       		.uleb128 0xb
 2562 00d1 01       		.uleb128 0x1
 2563 00d2 13       		.uleb128 0x13
 2564 00d3 00       		.byte	0
 2565 00d4 00       		.byte	0
 2566 00d5 12       		.uleb128 0x12
 2567 00d6 0D       		.uleb128 0xd
 2568 00d7 00       		.byte	0
 2569 00d8 03       		.uleb128 0x3
 2570 00d9 08       		.uleb128 0x8
 2571 00da 3A       		.uleb128 0x3a
 2572 00db 0B       		.uleb128 0xb
 2573 00dc 3B       		.uleb128 0x3b
 2574 00dd 0B       		.uleb128 0xb
 2575 00de 49       		.uleb128 0x49
 2576 00df 13       		.uleb128 0x13
 2577 00e0 00       		.byte	0
 2578 00e1 00       		.byte	0
 2579 00e2 13       		.uleb128 0x13
 2580 00e3 01       		.uleb128 0x1
 2581 00e4 01       		.byte	0x1
 2582 00e5 49       		.uleb128 0x49
 2583 00e6 13       		.uleb128 0x13
 2584 00e7 01       		.uleb128 0x1
 2585 00e8 13       		.uleb128 0x13
 2586 00e9 00       		.byte	0
 2587 00ea 00       		.byte	0
 2588 00eb 14       		.uleb128 0x14
 2589 00ec 21       		.uleb128 0x21
 2590 00ed 00       		.byte	0
 2591 00ee 49       		.uleb128 0x49
 2592 00ef 13       		.uleb128 0x13
 2593 00f0 2F       		.uleb128 0x2f
 2594 00f1 0B       		.uleb128 0xb
 2595 00f2 00       		.byte	0
 2596 00f3 00       		.byte	0
 2597 00f4 15       		.uleb128 0x15
 2598 00f5 15       		.uleb128 0x15
 2599 00f6 01       		.byte	0x1
 2600 00f7 27       		.uleb128 0x27
 2601 00f8 19       		.uleb128 0x19
 2602 00f9 01       		.uleb128 0x1
 2603 00fa 13       		.uleb128 0x13
ARM GAS  /tmp/ccO905hp.s 			page 47


 2604 00fb 00       		.byte	0
 2605 00fc 00       		.byte	0
 2606 00fd 16       		.uleb128 0x16
 2607 00fe 05       		.uleb128 0x5
 2608 00ff 00       		.byte	0
 2609 0100 49       		.uleb128 0x49
 2610 0101 13       		.uleb128 0x13
 2611 0102 00       		.byte	0
 2612 0103 00       		.byte	0
 2613 0104 17       		.uleb128 0x17
 2614 0105 13       		.uleb128 0x13
 2615 0106 00       		.byte	0
 2616 0107 03       		.uleb128 0x3
 2617 0108 0E       		.uleb128 0xe
 2618 0109 3C       		.uleb128 0x3c
 2619 010a 19       		.uleb128 0x19
 2620 010b 00       		.byte	0
 2621 010c 00       		.byte	0
 2622 010d 18       		.uleb128 0x18
 2623 010e 2E       		.uleb128 0x2e
 2624 010f 01       		.byte	0x1
 2625 0110 03       		.uleb128 0x3
 2626 0111 0E       		.uleb128 0xe
 2627 0112 3A       		.uleb128 0x3a
 2628 0113 0B       		.uleb128 0xb
 2629 0114 3B       		.uleb128 0x3b
 2630 0115 0B       		.uleb128 0xb
 2631 0116 27       		.uleb128 0x27
 2632 0117 19       		.uleb128 0x19
 2633 0118 11       		.uleb128 0x11
 2634 0119 01       		.uleb128 0x1
 2635 011a 12       		.uleb128 0x12
 2636 011b 06       		.uleb128 0x6
 2637 011c 40       		.uleb128 0x40
 2638 011d 18       		.uleb128 0x18
 2639 011e 9742     		.uleb128 0x2117
 2640 0120 19       		.uleb128 0x19
 2641 0121 01       		.uleb128 0x1
 2642 0122 13       		.uleb128 0x13
 2643 0123 00       		.byte	0
 2644 0124 00       		.byte	0
 2645 0125 19       		.uleb128 0x19
 2646 0126 05       		.uleb128 0x5
 2647 0127 00       		.byte	0
 2648 0128 03       		.uleb128 0x3
 2649 0129 08       		.uleb128 0x8
 2650 012a 3A       		.uleb128 0x3a
 2651 012b 0B       		.uleb128 0xb
 2652 012c 3B       		.uleb128 0x3b
 2653 012d 0B       		.uleb128 0xb
 2654 012e 49       		.uleb128 0x49
 2655 012f 13       		.uleb128 0x13
 2656 0130 02       		.uleb128 0x2
 2657 0131 17       		.uleb128 0x17
 2658 0132 00       		.byte	0
 2659 0133 00       		.byte	0
 2660 0134 1A       		.uleb128 0x1a
ARM GAS  /tmp/ccO905hp.s 			page 48


 2661 0135 34       		.uleb128 0x34
 2662 0136 00       		.byte	0
 2663 0137 03       		.uleb128 0x3
 2664 0138 08       		.uleb128 0x8
 2665 0139 3A       		.uleb128 0x3a
 2666 013a 0B       		.uleb128 0xb
 2667 013b 3B       		.uleb128 0x3b
 2668 013c 0B       		.uleb128 0xb
 2669 013d 49       		.uleb128 0x49
 2670 013e 13       		.uleb128 0x13
 2671 013f 02       		.uleb128 0x2
 2672 0140 17       		.uleb128 0x17
 2673 0141 00       		.byte	0
 2674 0142 00       		.byte	0
 2675 0143 1B       		.uleb128 0x1b
 2676 0144 898201   		.uleb128 0x4109
 2677 0147 01       		.byte	0x1
 2678 0148 11       		.uleb128 0x11
 2679 0149 01       		.uleb128 0x1
 2680 014a 31       		.uleb128 0x31
 2681 014b 13       		.uleb128 0x13
 2682 014c 01       		.uleb128 0x1
 2683 014d 13       		.uleb128 0x13
 2684 014e 00       		.byte	0
 2685 014f 00       		.byte	0
 2686 0150 1C       		.uleb128 0x1c
 2687 0151 8A8201   		.uleb128 0x410a
 2688 0154 00       		.byte	0
 2689 0155 02       		.uleb128 0x2
 2690 0156 18       		.uleb128 0x18
 2691 0157 9142     		.uleb128 0x2111
 2692 0159 18       		.uleb128 0x18
 2693 015a 00       		.byte	0
 2694 015b 00       		.byte	0
 2695 015c 1D       		.uleb128 0x1d
 2696 015d 898201   		.uleb128 0x4109
 2697 0160 00       		.byte	0
 2698 0161 11       		.uleb128 0x11
 2699 0162 01       		.uleb128 0x1
 2700 0163 31       		.uleb128 0x31
 2701 0164 13       		.uleb128 0x13
 2702 0165 00       		.byte	0
 2703 0166 00       		.byte	0
 2704 0167 1E       		.uleb128 0x1e
 2705 0168 2E       		.uleb128 0x2e
 2706 0169 01       		.byte	0x1
 2707 016a 3F       		.uleb128 0x3f
 2708 016b 19       		.uleb128 0x19
 2709 016c 03       		.uleb128 0x3
 2710 016d 0E       		.uleb128 0xe
 2711 016e 3A       		.uleb128 0x3a
 2712 016f 0B       		.uleb128 0xb
 2713 0170 3B       		.uleb128 0x3b
 2714 0171 0B       		.uleb128 0xb
 2715 0172 27       		.uleb128 0x27
 2716 0173 19       		.uleb128 0x19
 2717 0174 11       		.uleb128 0x11
ARM GAS  /tmp/ccO905hp.s 			page 49


 2718 0175 01       		.uleb128 0x1
 2719 0176 12       		.uleb128 0x12
 2720 0177 06       		.uleb128 0x6
 2721 0178 40       		.uleb128 0x40
 2722 0179 18       		.uleb128 0x18
 2723 017a 9742     		.uleb128 0x2117
 2724 017c 19       		.uleb128 0x19
 2725 017d 01       		.uleb128 0x1
 2726 017e 13       		.uleb128 0x13
 2727 017f 00       		.byte	0
 2728 0180 00       		.byte	0
 2729 0181 1F       		.uleb128 0x1f
 2730 0182 898201   		.uleb128 0x4109
 2731 0185 01       		.byte	0x1
 2732 0186 11       		.uleb128 0x11
 2733 0187 01       		.uleb128 0x1
 2734 0188 9542     		.uleb128 0x2115
 2735 018a 19       		.uleb128 0x19
 2736 018b 31       		.uleb128 0x31
 2737 018c 13       		.uleb128 0x13
 2738 018d 00       		.byte	0
 2739 018e 00       		.byte	0
 2740 018f 20       		.uleb128 0x20
 2741 0190 2E       		.uleb128 0x2e
 2742 0191 00       		.byte	0
 2743 0192 3F       		.uleb128 0x3f
 2744 0193 19       		.uleb128 0x19
 2745 0194 03       		.uleb128 0x3
 2746 0195 0E       		.uleb128 0xe
 2747 0196 3A       		.uleb128 0x3a
 2748 0197 0B       		.uleb128 0xb
 2749 0198 3B       		.uleb128 0x3b
 2750 0199 0B       		.uleb128 0xb
 2751 019a 27       		.uleb128 0x27
 2752 019b 19       		.uleb128 0x19
 2753 019c 11       		.uleb128 0x11
 2754 019d 01       		.uleb128 0x1
 2755 019e 12       		.uleb128 0x12
 2756 019f 06       		.uleb128 0x6
 2757 01a0 40       		.uleb128 0x40
 2758 01a1 18       		.uleb128 0x18
 2759 01a2 9742     		.uleb128 0x2117
 2760 01a4 19       		.uleb128 0x19
 2761 01a5 00       		.byte	0
 2762 01a6 00       		.byte	0
 2763 01a7 21       		.uleb128 0x21
 2764 01a8 898201   		.uleb128 0x4109
 2765 01ab 01       		.byte	0x1
 2766 01ac 11       		.uleb128 0x11
 2767 01ad 01       		.uleb128 0x1
 2768 01ae 31       		.uleb128 0x31
 2769 01af 13       		.uleb128 0x13
 2770 01b0 00       		.byte	0
 2771 01b1 00       		.byte	0
 2772 01b2 22       		.uleb128 0x22
 2773 01b3 2E       		.uleb128 0x2e
 2774 01b4 01       		.byte	0x1
ARM GAS  /tmp/ccO905hp.s 			page 50


 2775 01b5 3F       		.uleb128 0x3f
 2776 01b6 19       		.uleb128 0x19
 2777 01b7 03       		.uleb128 0x3
 2778 01b8 0E       		.uleb128 0xe
 2779 01b9 3A       		.uleb128 0x3a
 2780 01ba 0B       		.uleb128 0xb
 2781 01bb 3B       		.uleb128 0x3b
 2782 01bc 0B       		.uleb128 0xb
 2783 01bd 27       		.uleb128 0x27
 2784 01be 19       		.uleb128 0x19
 2785 01bf 49       		.uleb128 0x49
 2786 01c0 13       		.uleb128 0x13
 2787 01c1 11       		.uleb128 0x11
 2788 01c2 01       		.uleb128 0x1
 2789 01c3 12       		.uleb128 0x12
 2790 01c4 06       		.uleb128 0x6
 2791 01c5 40       		.uleb128 0x40
 2792 01c6 18       		.uleb128 0x18
 2793 01c7 9742     		.uleb128 0x2117
 2794 01c9 19       		.uleb128 0x19
 2795 01ca 01       		.uleb128 0x1
 2796 01cb 13       		.uleb128 0x13
 2797 01cc 00       		.byte	0
 2798 01cd 00       		.byte	0
 2799 01ce 23       		.uleb128 0x23
 2800 01cf 05       		.uleb128 0x5
 2801 01d0 00       		.byte	0
 2802 01d1 03       		.uleb128 0x3
 2803 01d2 0E       		.uleb128 0xe
 2804 01d3 3A       		.uleb128 0x3a
 2805 01d4 0B       		.uleb128 0xb
 2806 01d5 3B       		.uleb128 0x3b
 2807 01d6 0B       		.uleb128 0xb
 2808 01d7 49       		.uleb128 0x49
 2809 01d8 13       		.uleb128 0x13
 2810 01d9 02       		.uleb128 0x2
 2811 01da 17       		.uleb128 0x17
 2812 01db 00       		.byte	0
 2813 01dc 00       		.byte	0
 2814 01dd 24       		.uleb128 0x24
 2815 01de 34       		.uleb128 0x34
 2816 01df 00       		.byte	0
 2817 01e0 03       		.uleb128 0x3
 2818 01e1 0E       		.uleb128 0xe
 2819 01e2 3A       		.uleb128 0x3a
 2820 01e3 0B       		.uleb128 0xb
 2821 01e4 3B       		.uleb128 0x3b
 2822 01e5 0B       		.uleb128 0xb
 2823 01e6 49       		.uleb128 0x49
 2824 01e7 13       		.uleb128 0x13
 2825 01e8 02       		.uleb128 0x2
 2826 01e9 17       		.uleb128 0x17
 2827 01ea 00       		.byte	0
 2828 01eb 00       		.byte	0
 2829 01ec 25       		.uleb128 0x25
 2830 01ed 898201   		.uleb128 0x4109
 2831 01f0 00       		.byte	0
ARM GAS  /tmp/ccO905hp.s 			page 51


 2832 01f1 11       		.uleb128 0x11
 2833 01f2 01       		.uleb128 0x1
 2834 01f3 9542     		.uleb128 0x2115
 2835 01f5 19       		.uleb128 0x19
 2836 01f6 31       		.uleb128 0x31
 2837 01f7 13       		.uleb128 0x13
 2838 01f8 00       		.byte	0
 2839 01f9 00       		.byte	0
 2840 01fa 26       		.uleb128 0x26
 2841 01fb 2E       		.uleb128 0x2e
 2842 01fc 01       		.byte	0x1
 2843 01fd 3F       		.uleb128 0x3f
 2844 01fe 19       		.uleb128 0x19
 2845 01ff 03       		.uleb128 0x3
 2846 0200 0E       		.uleb128 0xe
 2847 0201 3A       		.uleb128 0x3a
 2848 0202 0B       		.uleb128 0xb
 2849 0203 3B       		.uleb128 0x3b
 2850 0204 0B       		.uleb128 0xb
 2851 0205 27       		.uleb128 0x27
 2852 0206 19       		.uleb128 0x19
 2853 0207 11       		.uleb128 0x11
 2854 0208 01       		.uleb128 0x1
 2855 0209 12       		.uleb128 0x12
 2856 020a 06       		.uleb128 0x6
 2857 020b 40       		.uleb128 0x40
 2858 020c 18       		.uleb128 0x18
 2859 020d 9642     		.uleb128 0x2116
 2860 020f 19       		.uleb128 0x19
 2861 0210 01       		.uleb128 0x1
 2862 0211 13       		.uleb128 0x13
 2863 0212 00       		.byte	0
 2864 0213 00       		.byte	0
 2865 0214 27       		.uleb128 0x27
 2866 0215 34       		.uleb128 0x34
 2867 0216 00       		.byte	0
 2868 0217 03       		.uleb128 0x3
 2869 0218 0E       		.uleb128 0xe
 2870 0219 3A       		.uleb128 0x3a
 2871 021a 0B       		.uleb128 0xb
 2872 021b 3B       		.uleb128 0x3b
 2873 021c 0B       		.uleb128 0xb
 2874 021d 49       		.uleb128 0x49
 2875 021e 13       		.uleb128 0x13
 2876 021f 02       		.uleb128 0x2
 2877 0220 18       		.uleb128 0x18
 2878 0221 00       		.byte	0
 2879 0222 00       		.byte	0
 2880 0223 28       		.uleb128 0x28
 2881 0224 34       		.uleb128 0x34
 2882 0225 00       		.byte	0
 2883 0226 03       		.uleb128 0x3
 2884 0227 0E       		.uleb128 0xe
 2885 0228 3A       		.uleb128 0x3a
 2886 0229 0B       		.uleb128 0xb
 2887 022a 3B       		.uleb128 0x3b
 2888 022b 05       		.uleb128 0x5
ARM GAS  /tmp/ccO905hp.s 			page 52


 2889 022c 49       		.uleb128 0x49
 2890 022d 13       		.uleb128 0x13
 2891 022e 3F       		.uleb128 0x3f
 2892 022f 19       		.uleb128 0x19
 2893 0230 3C       		.uleb128 0x3c
 2894 0231 19       		.uleb128 0x19
 2895 0232 00       		.byte	0
 2896 0233 00       		.byte	0
 2897 0234 29       		.uleb128 0x29
 2898 0235 2E       		.uleb128 0x2e
 2899 0236 01       		.byte	0x1
 2900 0237 3F       		.uleb128 0x3f
 2901 0238 19       		.uleb128 0x19
 2902 0239 03       		.uleb128 0x3
 2903 023a 0E       		.uleb128 0xe
 2904 023b 3A       		.uleb128 0x3a
 2905 023c 0B       		.uleb128 0xb
 2906 023d 3B       		.uleb128 0x3b
 2907 023e 0B       		.uleb128 0xb
 2908 023f 27       		.uleb128 0x27
 2909 0240 19       		.uleb128 0x19
 2910 0241 49       		.uleb128 0x49
 2911 0242 13       		.uleb128 0x13
 2912 0243 3C       		.uleb128 0x3c
 2913 0244 19       		.uleb128 0x19
 2914 0245 01       		.uleb128 0x1
 2915 0246 13       		.uleb128 0x13
 2916 0247 00       		.byte	0
 2917 0248 00       		.byte	0
 2918 0249 2A       		.uleb128 0x2a
 2919 024a 2E       		.uleb128 0x2e
 2920 024b 01       		.byte	0x1
 2921 024c 3F       		.uleb128 0x3f
 2922 024d 19       		.uleb128 0x19
 2923 024e 03       		.uleb128 0x3
 2924 024f 0E       		.uleb128 0xe
 2925 0250 3A       		.uleb128 0x3a
 2926 0251 0B       		.uleb128 0xb
 2927 0252 3B       		.uleb128 0x3b
 2928 0253 0B       		.uleb128 0xb
 2929 0254 27       		.uleb128 0x27
 2930 0255 19       		.uleb128 0x19
 2931 0256 3C       		.uleb128 0x3c
 2932 0257 19       		.uleb128 0x19
 2933 0258 01       		.uleb128 0x1
 2934 0259 13       		.uleb128 0x13
 2935 025a 00       		.byte	0
 2936 025b 00       		.byte	0
 2937 025c 2B       		.uleb128 0x2b
 2938 025d 2E       		.uleb128 0x2e
 2939 025e 00       		.byte	0
 2940 025f 3F       		.uleb128 0x3f
 2941 0260 19       		.uleb128 0x19
 2942 0261 03       		.uleb128 0x3
 2943 0262 0E       		.uleb128 0xe
 2944 0263 3A       		.uleb128 0x3a
 2945 0264 0B       		.uleb128 0xb
ARM GAS  /tmp/ccO905hp.s 			page 53


 2946 0265 3B       		.uleb128 0x3b
 2947 0266 0B       		.uleb128 0xb
 2948 0267 27       		.uleb128 0x27
 2949 0268 19       		.uleb128 0x19
 2950 0269 49       		.uleb128 0x49
 2951 026a 13       		.uleb128 0x13
 2952 026b 3C       		.uleb128 0x3c
 2953 026c 19       		.uleb128 0x19
 2954 026d 00       		.byte	0
 2955 026e 00       		.byte	0
 2956 026f 00       		.byte	0
 2957              		.section	.debug_loc,"",%progbits
 2958              	.Ldebug_loc0:
 2959              	.LLST0:
 2960 0000 00000000 		.4byte	.LVL0
 2961 0004 18000000 		.4byte	.LVL2
 2962 0008 0100     		.2byte	0x1
 2963 000a 50       		.byte	0x50
 2964 000b 18000000 		.4byte	.LVL2
 2965 000f 7C000000 		.4byte	.LFE111
 2966 0013 0100     		.2byte	0x1
 2967 0015 55       		.byte	0x55
 2968 0016 00000000 		.4byte	0
 2969 001a 00000000 		.4byte	0
 2970              	.LLST1:
 2971 001e 00000000 		.4byte	.LVL0
 2972 0022 18000000 		.4byte	.LVL2
 2973 0026 0100     		.2byte	0x1
 2974 0028 51       		.byte	0x51
 2975 0029 18000000 		.4byte	.LVL2
 2976 002d 7C000000 		.4byte	.LFE111
 2977 0031 0100     		.2byte	0x1
 2978 0033 57       		.byte	0x57
 2979 0034 00000000 		.4byte	0
 2980 0038 00000000 		.4byte	0
 2981              	.LLST2:
 2982 003c 00000000 		.4byte	.LVL0
 2983 0040 06000000 		.4byte	.LVL1
 2984 0044 0600     		.2byte	0x6
 2985 0046 03       		.byte	0x3
 2986 0047 00000000 		.4byte	Assignments
 2987 004b 9F       		.byte	0x9f
 2988 004c 06000000 		.4byte	.LVL1
 2989 0050 18000000 		.4byte	.LVL2
 2990 0054 0300     		.2byte	0x3
 2991 0056 74       		.byte	0x74
 2992 0057 70       		.sleb128 -16
 2993 0058 9F       		.byte	0x9f
 2994 0059 20000000 		.4byte	.LVL3
 2995 005d 2A000000 		.4byte	.LVL4
 2996 0061 0100     		.2byte	0x1
 2997 0063 54       		.byte	0x54
 2998 0064 2A000000 		.4byte	.LVL4
 2999 0068 2E000000 		.4byte	.LVL5
 3000 006c 0300     		.2byte	0x3
 3001 006e 73       		.byte	0x73
 3002 006f 70       		.sleb128 -16
ARM GAS  /tmp/ccO905hp.s 			page 54


 3003 0070 9F       		.byte	0x9f
 3004 0071 48000000 		.4byte	.LVL6
 3005 0075 52000000 		.4byte	.LVL7
 3006 0079 0100     		.2byte	0x1
 3007 007b 54       		.byte	0x54
 3008 007c 00000000 		.4byte	0
 3009 0080 00000000 		.4byte	0
 3010              	.LLST3:
 3011 0084 00000000 		.4byte	.LVL12
 3012 0088 0D000000 		.4byte	.LVL13-1
 3013 008c 0100     		.2byte	0x1
 3014 008e 50       		.byte	0x50
 3015 008f 0D000000 		.4byte	.LVL13-1
 3016 0093 22000000 		.4byte	.LFE114
 3017 0097 0100     		.2byte	0x1
 3018 0099 54       		.byte	0x54
 3019 009a 00000000 		.4byte	0
 3020 009e 00000000 		.4byte	0
 3021              	.LLST4:
 3022 00a2 00000000 		.4byte	.LVL15
 3023 00a6 12000000 		.4byte	.LVL16
 3024 00aa 0100     		.2byte	0x1
 3025 00ac 50       		.byte	0x50
 3026 00ad 12000000 		.4byte	.LVL16
 3027 00b1 72000000 		.4byte	.LVL27
 3028 00b5 0100     		.2byte	0x1
 3029 00b7 57       		.byte	0x57
 3030 00b8 72000000 		.4byte	.LVL27
 3031 00bc 74000000 		.4byte	.LVL28
 3032 00c0 0100     		.2byte	0x1
 3033 00c2 50       		.byte	0x50
 3034 00c3 74000000 		.4byte	.LVL28
 3035 00c7 7A000000 		.4byte	.LVL30
 3036 00cb 0100     		.2byte	0x1
 3037 00cd 57       		.byte	0x57
 3038 00ce 7A000000 		.4byte	.LVL30
 3039 00d2 98000000 		.4byte	.LVL34
 3040 00d6 0300     		.2byte	0x3
 3041 00d8 77       		.byte	0x77
 3042 00d9 70       		.sleb128 -16
 3043 00da 9F       		.byte	0x9f
 3044 00db 98000000 		.4byte	.LVL34
 3045 00df A4000000 		.4byte	.LFE115
 3046 00e3 0100     		.2byte	0x1
 3047 00e5 50       		.byte	0x50
 3048 00e6 00000000 		.4byte	0
 3049 00ea 00000000 		.4byte	0
 3050              	.LLST5:
 3051 00ee 00000000 		.4byte	.LVL15
 3052 00f2 15000000 		.4byte	.LVL17-1
 3053 00f6 0100     		.2byte	0x1
 3054 00f8 51       		.byte	0x51
 3055 00f9 15000000 		.4byte	.LVL17-1
 3056 00fd 72000000 		.4byte	.LVL27
 3057 0101 0100     		.2byte	0x1
 3058 0103 58       		.byte	0x58
 3059 0104 72000000 		.4byte	.LVL27
ARM GAS  /tmp/ccO905hp.s 			page 55


 3060 0108 78000000 		.4byte	.LVL29
 3061 010c 0100     		.2byte	0x1
 3062 010e 51       		.byte	0x51
 3063 010f 78000000 		.4byte	.LVL29
 3064 0113 98000000 		.4byte	.LVL34
 3065 0117 0100     		.2byte	0x1
 3066 0119 58       		.byte	0x58
 3067 011a 98000000 		.4byte	.LVL34
 3068 011e A4000000 		.4byte	.LFE115
 3069 0122 0100     		.2byte	0x1
 3070 0124 51       		.byte	0x51
 3071 0125 00000000 		.4byte	0
 3072 0129 00000000 		.4byte	0
 3073              	.LLST6:
 3074 012d 00000000 		.4byte	.LVL15
 3075 0131 15000000 		.4byte	.LVL17-1
 3076 0135 0100     		.2byte	0x1
 3077 0137 52       		.byte	0x52
 3078 0138 15000000 		.4byte	.LVL17-1
 3079 013c 72000000 		.4byte	.LVL27
 3080 0140 0100     		.2byte	0x1
 3081 0142 59       		.byte	0x59
 3082 0143 72000000 		.4byte	.LVL27
 3083 0147 78000000 		.4byte	.LVL29
 3084 014b 0100     		.2byte	0x1
 3085 014d 52       		.byte	0x52
 3086 014e 78000000 		.4byte	.LVL29
 3087 0152 98000000 		.4byte	.LVL34
 3088 0156 0100     		.2byte	0x1
 3089 0158 59       		.byte	0x59
 3090 0159 98000000 		.4byte	.LVL34
 3091 015d A4000000 		.4byte	.LFE115
 3092 0161 0100     		.2byte	0x1
 3093 0163 52       		.byte	0x52
 3094 0164 00000000 		.4byte	0
 3095 0168 00000000 		.4byte	0
 3096              	.LLST7:
 3097 016c 16000000 		.4byte	.LVL17
 3098 0170 24000000 		.4byte	.LVL18
 3099 0174 0600     		.2byte	0x6
 3100 0176 03       		.byte	0x3
 3101 0177 00000000 		.4byte	Assignments
 3102 017b 9F       		.byte	0x9f
 3103 017c 24000000 		.4byte	.LVL18
 3104 0180 4A000000 		.4byte	.LVL22
 3105 0184 0100     		.2byte	0x1
 3106 0186 54       		.byte	0x54
 3107 0187 4A000000 		.4byte	.LVL22
 3108 018b 50000000 		.4byte	.LVL23
 3109 018f 0300     		.2byte	0x3
 3110 0191 74       		.byte	0x74
 3111 0192 70       		.sleb128 -16
 3112 0193 9F       		.byte	0x9f
 3113 0194 50000000 		.4byte	.LVL23
 3114 0198 72000000 		.4byte	.LVL27
 3115 019c 0100     		.2byte	0x1
 3116 019e 54       		.byte	0x54
ARM GAS  /tmp/ccO905hp.s 			page 56


 3117 019f 78000000 		.4byte	.LVL29
 3118 01a3 98000000 		.4byte	.LVL34
 3119 01a7 0100     		.2byte	0x1
 3120 01a9 54       		.byte	0x54
 3121 01aa 00000000 		.4byte	0
 3122 01ae 00000000 		.4byte	0
 3123              	.LLST8:
 3124 01b2 16000000 		.4byte	.LVL17
 3125 01b6 24000000 		.4byte	.LVL18
 3126 01ba 0200     		.2byte	0x2
 3127 01bc 30       		.byte	0x30
 3128 01bd 9F       		.byte	0x9f
 3129 01be 24000000 		.4byte	.LVL18
 3130 01c2 70000000 		.4byte	.LVL26
 3131 01c6 0100     		.2byte	0x1
 3132 01c8 56       		.byte	0x56
 3133 01c9 78000000 		.4byte	.LVL29
 3134 01cd 98000000 		.4byte	.LVL34
 3135 01d1 0100     		.2byte	0x1
 3136 01d3 56       		.byte	0x56
 3137 01d4 00000000 		.4byte	0
 3138 01d8 00000000 		.4byte	0
 3139              	.LLST9:
 3140 01dc 00000000 		.4byte	.LVL35
 3141 01e0 0A000000 		.4byte	.LVL36
 3142 01e4 0100     		.2byte	0x1
 3143 01e6 50       		.byte	0x50
 3144 01e7 0A000000 		.4byte	.LVL36
 3145 01eb 1C000000 		.4byte	.LVL40
 3146 01ef 0100     		.2byte	0x1
 3147 01f1 54       		.byte	0x54
 3148 01f2 1C000000 		.4byte	.LVL40
 3149 01f6 20000000 		.4byte	.LVL41
 3150 01fa 0400     		.2byte	0x4
 3151 01fc F3       		.byte	0xf3
 3152 01fd 01       		.uleb128 0x1
 3153 01fe 50       		.byte	0x50
 3154 01ff 9F       		.byte	0x9f
 3155 0200 20000000 		.4byte	.LVL41
 3156 0204 22000000 		.4byte	.LVL42
 3157 0208 0100     		.2byte	0x1
 3158 020a 50       		.byte	0x50
 3159 020b 22000000 		.4byte	.LVL42
 3160 020f 4C000000 		.4byte	.LFE116
 3161 0213 0100     		.2byte	0x1
 3162 0215 54       		.byte	0x54
 3163 0216 00000000 		.4byte	0
 3164 021a 00000000 		.4byte	0
 3165              	.LLST10:
 3166 021e 00000000 		.4byte	.LVL35
 3167 0222 0D000000 		.4byte	.LVL37-1
 3168 0226 0100     		.2byte	0x1
 3169 0228 51       		.byte	0x51
 3170 0229 0D000000 		.4byte	.LVL37-1
 3171 022d 18000000 		.4byte	.LVL39
 3172 0231 0100     		.2byte	0x1
 3173 0233 55       		.byte	0x55
ARM GAS  /tmp/ccO905hp.s 			page 57


 3174 0234 18000000 		.4byte	.LVL39
 3175 0238 20000000 		.4byte	.LVL41
 3176 023c 0400     		.2byte	0x4
 3177 023e F3       		.byte	0xf3
 3178 023f 01       		.uleb128 0x1
 3179 0240 51       		.byte	0x51
 3180 0241 9F       		.byte	0x9f
 3181 0242 20000000 		.4byte	.LVL41
 3182 0246 22000000 		.4byte	.LVL42
 3183 024a 0100     		.2byte	0x1
 3184 024c 51       		.byte	0x51
 3185 024d 22000000 		.4byte	.LVL42
 3186 0251 2C000000 		.4byte	.LVL43
 3187 0255 0100     		.2byte	0x1
 3188 0257 55       		.byte	0x55
 3189 0258 2C000000 		.4byte	.LVL43
 3190 025c 4C000000 		.4byte	.LFE116
 3191 0260 0400     		.2byte	0x4
 3192 0262 F3       		.byte	0xf3
 3193 0263 01       		.uleb128 0x1
 3194 0264 51       		.byte	0x51
 3195 0265 9F       		.byte	0x9f
 3196 0266 00000000 		.4byte	0
 3197 026a 00000000 		.4byte	0
 3198              	.LLST11:
 3199 026e 00000000 		.4byte	.LVL47
 3200 0272 11000000 		.4byte	.LVL48-1
 3201 0276 0100     		.2byte	0x1
 3202 0278 50       		.byte	0x50
 3203 0279 11000000 		.4byte	.LVL48-1
 3204 027d 1E000000 		.4byte	.LFE117
 3205 0281 0100     		.2byte	0x1
 3206 0283 54       		.byte	0x54
 3207 0284 00000000 		.4byte	0
 3208 0288 00000000 		.4byte	0
 3209              	.LLST12:
 3210 028c 00000000 		.4byte	.LVL47
 3211 0290 11000000 		.4byte	.LVL48-1
 3212 0294 0100     		.2byte	0x1
 3213 0296 51       		.byte	0x51
 3214 0297 11000000 		.4byte	.LVL48-1
 3215 029b 1E000000 		.4byte	.LFE117
 3216 029f 0400     		.2byte	0x4
 3217 02a1 F3       		.byte	0xf3
 3218 02a2 01       		.uleb128 0x1
 3219 02a3 51       		.byte	0x51
 3220 02a4 9F       		.byte	0x9f
 3221 02a5 00000000 		.4byte	0
 3222 02a9 00000000 		.4byte	0
 3223              	.LLST13:
 3224 02ad 00000000 		.4byte	.LVL50
 3225 02b1 0C000000 		.4byte	.LVL51
 3226 02b5 0100     		.2byte	0x1
 3227 02b7 50       		.byte	0x50
 3228 02b8 0C000000 		.4byte	.LVL51
 3229 02bc 32000000 		.4byte	.LVL55
 3230 02c0 0100     		.2byte	0x1
ARM GAS  /tmp/ccO905hp.s 			page 58


 3231 02c2 54       		.byte	0x54
 3232 02c3 32000000 		.4byte	.LVL55
 3233 02c7 36000000 		.4byte	.LVL56
 3234 02cb 0400     		.2byte	0x4
 3235 02cd F3       		.byte	0xf3
 3236 02ce 01       		.uleb128 0x1
 3237 02cf 50       		.byte	0x50
 3238 02d0 9F       		.byte	0x9f
 3239 02d1 36000000 		.4byte	.LVL56
 3240 02d5 38000000 		.4byte	.LVL57
 3241 02d9 0100     		.2byte	0x1
 3242 02db 50       		.byte	0x50
 3243 02dc 38000000 		.4byte	.LVL57
 3244 02e0 4C000000 		.4byte	.LVL60
 3245 02e4 0100     		.2byte	0x1
 3246 02e6 54       		.byte	0x54
 3247 02e7 4C000000 		.4byte	.LVL60
 3248 02eb 54000000 		.4byte	.LFE118
 3249 02ef 0400     		.2byte	0x4
 3250 02f1 F3       		.byte	0xf3
 3251 02f2 01       		.uleb128 0x1
 3252 02f3 50       		.byte	0x50
 3253 02f4 9F       		.byte	0x9f
 3254 02f5 00000000 		.4byte	0
 3255 02f9 00000000 		.4byte	0
 3256              	.LLST14:
 3257 02fd 00000000 		.4byte	.LVL50
 3258 0301 13000000 		.4byte	.LVL52-1
 3259 0305 0100     		.2byte	0x1
 3260 0307 51       		.byte	0x51
 3261 0308 13000000 		.4byte	.LVL52-1
 3262 030c 32000000 		.4byte	.LVL55
 3263 0310 0100     		.2byte	0x1
 3264 0312 56       		.byte	0x56
 3265 0313 32000000 		.4byte	.LVL55
 3266 0317 36000000 		.4byte	.LVL56
 3267 031b 0400     		.2byte	0x4
 3268 031d F3       		.byte	0xf3
 3269 031e 01       		.uleb128 0x1
 3270 031f 51       		.byte	0x51
 3271 0320 9F       		.byte	0x9f
 3272 0321 36000000 		.4byte	.LVL56
 3273 0325 38000000 		.4byte	.LVL57
 3274 0329 0100     		.2byte	0x1
 3275 032b 51       		.byte	0x51
 3276 032c 38000000 		.4byte	.LVL57
 3277 0330 4C000000 		.4byte	.LVL60
 3278 0334 0100     		.2byte	0x1
 3279 0336 56       		.byte	0x56
 3280 0337 4C000000 		.4byte	.LVL60
 3281 033b 54000000 		.4byte	.LFE118
 3282 033f 0400     		.2byte	0x4
 3283 0341 F3       		.byte	0xf3
 3284 0342 01       		.uleb128 0x1
 3285 0343 51       		.byte	0x51
 3286 0344 9F       		.byte	0x9f
 3287 0345 00000000 		.4byte	0
ARM GAS  /tmp/ccO905hp.s 			page 59


 3288 0349 00000000 		.4byte	0
 3289              	.LLST15:
 3290 034d 00000000 		.4byte	.LVL50
 3291 0351 13000000 		.4byte	.LVL52-1
 3292 0355 0100     		.2byte	0x1
 3293 0357 52       		.byte	0x52
 3294 0358 13000000 		.4byte	.LVL52-1
 3295 035c 32000000 		.4byte	.LVL55
 3296 0360 0100     		.2byte	0x1
 3297 0362 57       		.byte	0x57
 3298 0363 32000000 		.4byte	.LVL55
 3299 0367 36000000 		.4byte	.LVL56
 3300 036b 0400     		.2byte	0x4
 3301 036d F3       		.byte	0xf3
 3302 036e 01       		.uleb128 0x1
 3303 036f 52       		.byte	0x52
 3304 0370 9F       		.byte	0x9f
 3305 0371 36000000 		.4byte	.LVL56
 3306 0375 38000000 		.4byte	.LVL57
 3307 0379 0100     		.2byte	0x1
 3308 037b 52       		.byte	0x52
 3309 037c 38000000 		.4byte	.LVL57
 3310 0380 4C000000 		.4byte	.LVL60
 3311 0384 0100     		.2byte	0x1
 3312 0386 57       		.byte	0x57
 3313 0387 4C000000 		.4byte	.LVL60
 3314 038b 54000000 		.4byte	.LFE118
 3315 038f 0400     		.2byte	0x4
 3316 0391 F3       		.byte	0xf3
 3317 0392 01       		.uleb128 0x1
 3318 0393 52       		.byte	0x52
 3319 0394 9F       		.byte	0x9f
 3320 0395 00000000 		.4byte	0
 3321 0399 00000000 		.4byte	0
 3322              	.LLST16:
 3323 039d 00000000 		.4byte	.LVL62
 3324 03a1 0A000000 		.4byte	.LVL63
 3325 03a5 0100     		.2byte	0x1
 3326 03a7 50       		.byte	0x50
 3327 03a8 0A000000 		.4byte	.LVL63
 3328 03ac 64000000 		.4byte	.LFE119
 3329 03b0 0100     		.2byte	0x1
 3330 03b2 55       		.byte	0x55
 3331 03b3 00000000 		.4byte	0
 3332 03b7 00000000 		.4byte	0
 3333              	.LLST17:
 3334 03bb 00000000 		.4byte	.LVL62
 3335 03bf 0D000000 		.4byte	.LVL64-1
 3336 03c3 0100     		.2byte	0x1
 3337 03c5 51       		.byte	0x51
 3338 03c6 0D000000 		.4byte	.LVL64-1
 3339 03ca 14000000 		.4byte	.LVL65
 3340 03ce 0100     		.2byte	0x1
 3341 03d0 54       		.byte	0x54
 3342 03d1 14000000 		.4byte	.LVL65
 3343 03d5 20000000 		.4byte	.LVL67
 3344 03d9 0300     		.2byte	0x3
ARM GAS  /tmp/ccO905hp.s 			page 60


 3345 03db 74       		.byte	0x74
 3346 03dc 70       		.sleb128 -16
 3347 03dd 9F       		.byte	0x9f
 3348 03de 20000000 		.4byte	.LVL67
 3349 03e2 52000000 		.4byte	.LVL73
 3350 03e6 0400     		.2byte	0x4
 3351 03e8 F3       		.byte	0xf3
 3352 03e9 01       		.uleb128 0x1
 3353 03ea 51       		.byte	0x51
 3354 03eb 9F       		.byte	0x9f
 3355 03ec 52000000 		.4byte	.LVL73
 3356 03f0 54000000 		.4byte	.LVL74
 3357 03f4 0100     		.2byte	0x1
 3358 03f6 54       		.byte	0x54
 3359 03f7 54000000 		.4byte	.LVL74
 3360 03fb 64000000 		.4byte	.LFE119
 3361 03ff 0400     		.2byte	0x4
 3362 0401 F3       		.byte	0xf3
 3363 0402 01       		.uleb128 0x1
 3364 0403 51       		.byte	0x51
 3365 0404 9F       		.byte	0x9f
 3366 0405 00000000 		.4byte	0
 3367 0409 00000000 		.4byte	0
 3368              	.LLST18:
 3369 040d 1A000000 		.4byte	.LVL66
 3370 0411 3A000000 		.4byte	.LVL69
 3371 0415 0100     		.2byte	0x1
 3372 0417 54       		.byte	0x54
 3373 0418 3E000000 		.4byte	.LVL70
 3374 041c 52000000 		.4byte	.LVL73
 3375 0420 0100     		.2byte	0x1
 3376 0422 54       		.byte	0x54
 3377 0423 00000000 		.4byte	0
 3378 0427 00000000 		.4byte	0
 3379              	.LLST19:
 3380 042b 00000000 		.4byte	.LVL75
 3381 042f 02000000 		.4byte	.LVL76
 3382 0433 0100     		.2byte	0x1
 3383 0435 50       		.byte	0x50
 3384 0436 02000000 		.4byte	.LVL76
 3385 043a 16000000 		.4byte	.LFE120
 3386 043e 0400     		.2byte	0x4
 3387 0440 F3       		.byte	0xf3
 3388 0441 01       		.uleb128 0x1
 3389 0442 50       		.byte	0x50
 3390 0443 9F       		.byte	0x9f
 3391 0444 00000000 		.4byte	0
 3392 0448 00000000 		.4byte	0
 3393              	.LLST20:
 3394 044c 00000000 		.4byte	.LVL77
 3395 0450 06000000 		.4byte	.LVL78
 3396 0454 0100     		.2byte	0x1
 3397 0456 50       		.byte	0x50
 3398 0457 06000000 		.4byte	.LVL78
 3399 045b 2A000000 		.4byte	.LVL83
 3400 045f 0100     		.2byte	0x1
 3401 0461 54       		.byte	0x54
ARM GAS  /tmp/ccO905hp.s 			page 61


 3402 0462 2A000000 		.4byte	.LVL83
 3403 0466 2E000000 		.4byte	.LVL84
 3404 046a 0400     		.2byte	0x4
 3405 046c F3       		.byte	0xf3
 3406 046d 01       		.uleb128 0x1
 3407 046e 50       		.byte	0x50
 3408 046f 9F       		.byte	0x9f
 3409 0470 2E000000 		.4byte	.LVL84
 3410 0474 38000000 		.4byte	.LFE121
 3411 0478 0100     		.2byte	0x1
 3412 047a 54       		.byte	0x54
 3413 047b 00000000 		.4byte	0
 3414 047f 00000000 		.4byte	0
 3415              	.LLST21:
 3416 0483 00000000 		.4byte	.LVL86
 3417 0487 06000000 		.4byte	.LVL87
 3418 048b 0100     		.2byte	0x1
 3419 048d 50       		.byte	0x50
 3420 048e 06000000 		.4byte	.LVL87
 3421 0492 16000000 		.4byte	.LVL90
 3422 0496 0100     		.2byte	0x1
 3423 0498 54       		.byte	0x54
 3424 0499 16000000 		.4byte	.LVL90
 3425 049d 20000000 		.4byte	.LFE122
 3426 04a1 0400     		.2byte	0x4
 3427 04a3 F3       		.byte	0xf3
 3428 04a4 01       		.uleb128 0x1
 3429 04a5 50       		.byte	0x50
 3430 04a6 9F       		.byte	0x9f
 3431 04a7 00000000 		.4byte	0
 3432 04ab 00000000 		.4byte	0
 3433              		.section	.debug_aranges,"",%progbits
 3434 0000 74000000 		.4byte	0x74
 3435 0004 0200     		.2byte	0x2
 3436 0006 00000000 		.4byte	.Ldebug_info0
 3437 000a 04       		.byte	0x4
 3438 000b 00       		.byte	0
 3439 000c 0000     		.2byte	0
 3440 000e 0000     		.2byte	0
 3441 0010 00000000 		.4byte	.LFB111
 3442 0014 7C000000 		.4byte	.LFE111-.LFB111
 3443 0018 00000000 		.4byte	.LFB112
 3444 001c 0C000000 		.4byte	.LFE112-.LFB112
 3445 0020 00000000 		.4byte	.LFB113
 3446 0024 02000000 		.4byte	.LFE113-.LFB113
 3447 0028 00000000 		.4byte	.LFB114
 3448 002c 22000000 		.4byte	.LFE114-.LFB114
 3449 0030 00000000 		.4byte	.LFB115
 3450 0034 A4000000 		.4byte	.LFE115-.LFB115
 3451 0038 00000000 		.4byte	.LFB116
 3452 003c 4C000000 		.4byte	.LFE116-.LFB116
 3453 0040 00000000 		.4byte	.LFB117
 3454 0044 1E000000 		.4byte	.LFE117-.LFB117
 3455 0048 00000000 		.4byte	.LFB118
 3456 004c 54000000 		.4byte	.LFE118-.LFB118
 3457 0050 00000000 		.4byte	.LFB119
 3458 0054 64000000 		.4byte	.LFE119-.LFB119
ARM GAS  /tmp/ccO905hp.s 			page 62


 3459 0058 00000000 		.4byte	.LFB120
 3460 005c 16000000 		.4byte	.LFE120-.LFB120
 3461 0060 00000000 		.4byte	.LFB121
 3462 0064 38000000 		.4byte	.LFE121-.LFB121
 3463 0068 00000000 		.4byte	.LFB122
 3464 006c 20000000 		.4byte	.LFE122-.LFB122
 3465 0070 00000000 		.4byte	0
 3466 0074 00000000 		.4byte	0
 3467              		.section	.debug_ranges,"",%progbits
 3468              	.Ldebug_ranges0:
 3469 0000 00000000 		.4byte	.LFB111
 3470 0004 7C000000 		.4byte	.LFE111
 3471 0008 00000000 		.4byte	.LFB112
 3472 000c 0C000000 		.4byte	.LFE112
 3473 0010 00000000 		.4byte	.LFB113
 3474 0014 02000000 		.4byte	.LFE113
 3475 0018 00000000 		.4byte	.LFB114
 3476 001c 22000000 		.4byte	.LFE114
 3477 0020 00000000 		.4byte	.LFB115
 3478 0024 A4000000 		.4byte	.LFE115
 3479 0028 00000000 		.4byte	.LFB116
 3480 002c 4C000000 		.4byte	.LFE116
 3481 0030 00000000 		.4byte	.LFB117
 3482 0034 1E000000 		.4byte	.LFE117
 3483 0038 00000000 		.4byte	.LFB118
 3484 003c 54000000 		.4byte	.LFE118
 3485 0040 00000000 		.4byte	.LFB119
 3486 0044 64000000 		.4byte	.LFE119
 3487 0048 00000000 		.4byte	.LFB120
 3488 004c 16000000 		.4byte	.LFE120
 3489 0050 00000000 		.4byte	.LFB121
 3490 0054 38000000 		.4byte	.LFE121
 3491 0058 00000000 		.4byte	.LFB122
 3492 005c 20000000 		.4byte	.LFE122
 3493 0060 00000000 		.4byte	0
 3494 0064 00000000 		.4byte	0
 3495              		.section	.debug_line,"",%progbits
 3496              	.Ldebug_line0:
 3497 0000 37030000 		.section	.debug_str,"MS",%progbits,1
 3497      0200A301 
 3497      00000201 
 3497      FB0E0D00 
 3497      01010101 
 3498              	.LASF71:
 3499 0000 73656D63 		.ascii	"semcount_t\000"
 3499      6F756E74 
 3499      5F7400
 3500              	.LASF43:
 3501 000b 705F7469 		.ascii	"p_time\000"
 3501      6D6500
 3502              	.LASF74:
 3503 0012 6766784D 		.ascii	"gfxMutex\000"
 3503      75746578 
 3503      00
 3504              	.LASF18:
 3505 001b 75696E74 		.ascii	"uint64_t\000"
 3505      36345F74 
ARM GAS  /tmp/ccO905hp.s 			page 63


 3505      00
 3506              	.LASF86:
 3507 0024 47536F75 		.ascii	"GSourceHandle\000"
 3507      72636548 
 3507      616E646C 
 3507      6500
 3508              	.LASF85:
 3509 0032 47536F75 		.ascii	"GSource\000"
 3509      72636500 
 3510              	.LASF4:
 3511 003a 5F5F7569 		.ascii	"__uint8_t\000"
 3511      6E74385F 
 3511      7400
 3512              	.LASF89:
 3513 0044 70536F75 		.ascii	"pSource\000"
 3513      72636500 
 3514              	.LASF76:
 3515 004c 74797065 		.ascii	"type\000"
 3515      00
 3516              	.LASF98:
 3517 0051 67657665 		.ascii	"geventAttachSource\000"
 3517      6E744174 
 3517      74616368 
 3517      536F7572 
 3517      636500
 3518              	.LASF97:
 3519 0064 67657665 		.ascii	"geventDetachSource\000"
 3519      6E744465 
 3519      74616368 
 3519      536F7572 
 3519      636500
 3520              	.LASF13:
 3521 0077 6C6F6E67 		.ascii	"long long unsigned int\000"
 3521      206C6F6E 
 3521      6720756E 
 3521      7369676E 
 3521      65642069 
 3522              	.LASF114:
 3523 008e 2F686F6D 		.ascii	"/home/makkmarci/devel/ugfx/src/gevent/gevent.c\000"
 3523      652F6D61 
 3523      6B6B6D61 
 3523      7263692F 
 3523      64657665 
 3524              	.LASF66:
 3525 00bd 65786974 		.ascii	"exitcode\000"
 3525      636F6465 
 3525      00
 3526              	.LASF72:
 3527 00c6 6C696D69 		.ascii	"limit\000"
 3527      7400
 3528              	.LASF120:
 3529 00cc 49544D5F 		.ascii	"ITM_RxBuffer\000"
 3529      52784275 
 3529      66666572 
 3529      00
 3530              	.LASF115:
 3531 00d9 2F686F6D 		.ascii	"/home/makkmarci/devel/ChibiOS_2.6.5/projects/STM32F"
ARM GAS  /tmp/ccO905hp.s 			page 64


 3531      652F6D61 
 3531      6B6B6D61 
 3531      7263692F 
 3531      64657665 
 3532 010c 345F4368 		.ascii	"4_ChibiOS_uGFX_gwin_2/\000"
 3532      6962694F 
 3532      535F7547 
 3532      46585F67 
 3532      77696E5F 
 3533              	.LASF96:
 3534 0123 70736C66 		.ascii	"pslfree\000"
 3534      72656500 
 3535              	.LASF122:
 3536 012b 63684D74 		.ascii	"chMtxUnlock\000"
 3536      78556E6C 
 3536      6F636B00 
 3537              	.LASF1:
 3538 0137 7369676E 		.ascii	"signed char\000"
 3538      65642063 
 3538      68617200 
 3539              	.LASF50:
 3540 0143 705F6D70 		.ascii	"p_mpool\000"
 3540      6F6F6C00 
 3541              	.LASF19:
 3542 014b 626F6F6C 		.ascii	"bool_t\000"
 3542      5F7400
 3543              	.LASF62:
 3544 0152 6D5F7175 		.ascii	"m_queue\000"
 3544      65756500 
 3545              	.LASF24:
 3546 015a 74736C69 		.ascii	"tslices_t\000"
 3546      6365735F 
 3546      7400
 3547              	.LASF8:
 3548 0164 6C6F6E67 		.ascii	"long int\000"
 3548      20696E74 
 3548      00
 3549              	.LASF22:
 3550 016d 74737461 		.ascii	"tstate_t\000"
 3550      74655F74 
 3550      00
 3551              	.LASF77:
 3552 0176 47457665 		.ascii	"GEvent\000"
 3552      6E7400
 3553              	.LASF35:
 3554 017d 705F6E65 		.ascii	"p_newer\000"
 3554      77657200 
 3555              	.LASF59:
 3556 0185 735F7175 		.ascii	"s_queue\000"
 3556      65756500 
 3557              	.LASF121:
 3558 018d 67667853 		.ascii	"gfxSemWait\000"
 3558      656D5761 
 3558      697400
 3559              	.LASF9:
 3560 0198 5F5F7569 		.ascii	"__uint32_t\000"
 3560      6E743332 
ARM GAS  /tmp/ccO905hp.s 			page 65


 3560      5F7400
 3561              	.LASF53:
 3562 01a3 72656761 		.ascii	"regarm_t\000"
 3562      726D5F74 
 3562      00
 3563              	.LASF75:
 3564 01ac 47457665 		.ascii	"GEventType\000"
 3564      6E745479 
 3564      706500
 3565              	.LASF103:
 3566 01b7 6C617374 		.ascii	"lastlr\000"
 3566      6C7200
 3567              	.LASF29:
 3568 01be 636E745F 		.ascii	"cnt_t\000"
 3568      7400
 3569              	.LASF38:
 3570 01c4 705F7374 		.ascii	"p_stklimit\000"
 3570      6B6C696D 
 3570      697400
 3571              	.LASF0:
 3572 01cf 756E7369 		.ascii	"unsigned int\000"
 3572      676E6564 
 3572      20696E74 
 3572      00
 3573              	.LASF117:
 3574 01dc 47536F75 		.ascii	"GSource_t\000"
 3574      7263655F 
 3574      7400
 3575              	.LASF15:
 3576 01e6 75696E74 		.ascii	"uint16_t\000"
 3576      31365F74 
 3576      00
 3577              	.LASF111:
 3578 01ef 67667853 		.ascii	"gfxSemInit\000"
 3578      656D496E 
 3578      697400
 3579              	.LASF104:
 3580 01fa 67657665 		.ascii	"geventGetEventBuffer\000"
 3580      6E744765 
 3580      74457665 
 3580      6E744275 
 3580      66666572 
 3581              	.LASF45:
 3582 020f 705F6D73 		.ascii	"p_msgqueue\000"
 3582      67717565 
 3582      756500
 3583              	.LASF99:
 3584 021a 67657665 		.ascii	"geventEventWait\000"
 3584      6E744576 
 3584      656E7457 
 3584      61697400 
 3585              	.LASF118:
 3586 022a 64656C65 		.ascii	"deleteAssignments\000"
 3586      74654173 
 3586      7369676E 
 3586      6D656E74 
 3586      7300
ARM GAS  /tmp/ccO905hp.s 			page 66


 3587              	.LASF100:
 3588 023c 74696D65 		.ascii	"timeout\000"
 3588      6F757400 
 3589              	.LASF60:
 3590 0244 735F636E 		.ascii	"s_cnt\000"
 3590      7400
 3591              	.LASF84:
 3592 024a 6576656E 		.ascii	"event\000"
 3592      7400
 3593              	.LASF6:
 3594 0250 73686F72 		.ascii	"short unsigned int\000"
 3594      7420756E 
 3594      7369676E 
 3594      65642069 
 3594      6E7400
 3595              	.LASF11:
 3596 0263 6C6F6E67 		.ascii	"long long int\000"
 3596      206C6F6E 
 3596      6720696E 
 3596      7400
 3597              	.LASF26:
 3598 0271 6D73675F 		.ascii	"msg_t\000"
 3598      7400
 3599              	.LASF82:
 3600 0277 63616C6C 		.ascii	"callback\000"
 3600      6261636B 
 3600      00
 3601              	.LASF21:
 3602 0280 746D6F64 		.ascii	"tmode_t\000"
 3602      655F7400 
 3603              	.LASF116:
 3604 0288 47457665 		.ascii	"GEvent_u\000"
 3604      6E745F75 
 3604      00
 3605              	.LASF52:
 3606 0291 54687265 		.ascii	"ThreadsList\000"
 3606      6164734C 
 3606      69737400 
 3607              	.LASF27:
 3608 029d 6576656E 		.ascii	"eventmask_t\000"
 3608      746D6173 
 3608      6B5F7400 
 3609              	.LASF119:
 3610 02a9 5F676576 		.ascii	"_geventDeinit\000"
 3610      656E7444 
 3610      65696E69 
 3610      7400
 3611              	.LASF108:
 3612 02b7 41737369 		.ascii	"Assignments\000"
 3612      676E6D65 
 3612      6E747300 
 3613              	.LASF54:
 3614 02c3 73746B61 		.ascii	"stkalign_t\000"
 3614      6C69676E 
 3614      5F7400
 3615              	.LASF105:
 3616 02ce 67657665 		.ascii	"geventSendEvent\000"
ARM GAS  /tmp/ccO905hp.s 			page 67


 3616      6E745365 
 3616      6E644576 
 3616      656E7400 
 3617              	.LASF101:
 3618 02de 67657665 		.ascii	"geventRegisterCallback\000"
 3618      6E745265 
 3618      67697374 
 3618      65724361 
 3618      6C6C6261 
 3619              	.LASF81:
 3620 02f5 6576656E 		.ascii	"eventlock\000"
 3620      746C6F63 
 3620      6B00
 3621              	.LASF102:
 3622 02ff 67657665 		.ascii	"geventGetSourceListener\000"
 3622      6E744765 
 3622      74536F75 
 3622      7263654C 
 3622      69737465 
 3623              	.LASF57:
 3624 0317 73697A65 		.ascii	"sizetype\000"
 3624      74797065 
 3624      00
 3625              	.LASF61:
 3626 0320 4D757465 		.ascii	"Mutex\000"
 3626      7800
 3627              	.LASF33:
 3628 0326 705F7072 		.ascii	"p_prio\000"
 3628      696F00
 3629              	.LASF83:
 3630 032d 70617261 		.ascii	"param\000"
 3630      6D00
 3631              	.LASF112:
 3632 0333 63684D74 		.ascii	"chMtxLock\000"
 3632      784C6F63 
 3632      6B00
 3633              	.LASF36:
 3634 033d 705F6F6C 		.ascii	"p_older\000"
 3634      64657200 
 3635              	.LASF51:
 3636 0345 54687265 		.ascii	"ThreadsQueue\000"
 3636      61647351 
 3636      75657565 
 3636      00
 3637              	.LASF107:
 3638 0352 67657665 		.ascii	"geventMutex\000"
 3638      6E744D75 
 3638      74657800 
 3639              	.LASF78:
 3640 035e 47457665 		.ascii	"GEventCallbackFn\000"
 3640      6E744361 
 3640      6C6C6261 
 3640      636B466E 
 3640      00
 3641              	.LASF12:
 3642 036f 5F5F7569 		.ascii	"__uint64_t\000"
 3642      6E743634 
ARM GAS  /tmp/ccO905hp.s 			page 68


 3642      5F7400
 3643              	.LASF93:
 3644 037a 5F676576 		.ascii	"_geventInit\000"
 3644      656E7449 
 3644      6E697400 
 3645              	.LASF23:
 3646 0386 74726566 		.ascii	"trefs_t\000"
 3646      735F7400 
 3647              	.LASF80:
 3648 038e 77616974 		.ascii	"waitqueue\000"
 3648      71756575 
 3648      6500
 3649              	.LASF32:
 3650 0398 705F7072 		.ascii	"p_prev\000"
 3650      657600
 3651              	.LASF106:
 3652 039f 67657665 		.ascii	"geventDetachSourceListeners\000"
 3652      6E744465 
 3652      74616368 
 3652      536F7572 
 3652      63654C69 
 3653              	.LASF25:
 3654 03bb 74707269 		.ascii	"tprio_t\000"
 3654      6F5F7400 
 3655              	.LASF20:
 3656 03c3 5F426F6F 		.ascii	"_Bool\000"
 3656      6C00
 3657              	.LASF16:
 3658 03c9 696E7433 		.ascii	"int32_t\000"
 3658      325F7400 
 3659              	.LASF2:
 3660 03d1 756E7369 		.ascii	"unsigned char\000"
 3660      676E6564 
 3660      20636861 
 3660      7200
 3661              	.LASF48:
 3662 03df 705F6D74 		.ascii	"p_mtxlist\000"
 3662      786C6973 
 3662      7400
 3663              	.LASF3:
 3664 03e9 73686F72 		.ascii	"short int\000"
 3664      7420696E 
 3664      7400
 3665              	.LASF39:
 3666 03f3 705F7374 		.ascii	"p_state\000"
 3666      61746500 
 3667              	.LASF42:
 3668 03fb 705F7072 		.ascii	"p_preempt\000"
 3668      65656D70 
 3668      7400
 3669              	.LASF68:
 3670 0405 65776D61 		.ascii	"ewmask\000"
 3670      736B00
 3671              	.LASF31:
 3672 040c 705F6E65 		.ascii	"p_next\000"
 3672      787400
 3673              	.LASF40:
ARM GAS  /tmp/ccO905hp.s 			page 69


 3674 0413 705F666C 		.ascii	"p_flags\000"
 3674      61677300 
 3675              	.LASF113:
 3676 041b 474E5520 		.ascii	"GNU C 4.8.4 20140526 (release) [ARM/embedded-4_8-br"
 3676      4320342E 
 3676      382E3420 
 3676      32303134 
 3676      30353236 
 3677 044e 616E6368 		.ascii	"anch revision 211358] -mcpu=cortex-m4 -mfloat-abi=h"
 3677      20726576 
 3677      6973696F 
 3677      6E203231 
 3677      31333538 
 3678 0481 61726420 		.ascii	"ard -mfpu=fpv4-sp-d16 -mno-thumb-interwork -mthumb "
 3678      2D6D6670 
 3678      753D6670 
 3678      76342D73 
 3678      702D6431 
 3679 04b4 2D676764 		.ascii	"-ggdb -O2 -fomit-frame-pointer -falign-functions=16"
 3679      62202D4F 
 3679      32202D66 
 3679      6F6D6974 
 3679      2D667261 
 3680 04e7 202D6666 		.ascii	" -ffunction-sections -fdata-sections -fno-common -f"
 3680      756E6374 
 3680      696F6E2D 
 3680      73656374 
 3680      696F6E73 
 3681 051a 73696E67 		.ascii	"single-precision-constant\000"
 3681      6C652D70 
 3681      72656369 
 3681      73696F6E 
 3681      2D636F6E 
 3682              	.LASF79:
 3683 0534 474C6973 		.ascii	"GListener\000"
 3683      74656E65 
 3683      7200
 3684              	.LASF30:
 3685 053e 54687265 		.ascii	"Thread\000"
 3685      616400
 3686              	.LASF70:
 3687 0545 64656C61 		.ascii	"delaytime_t\000"
 3687      7974696D 
 3687      655F7400 
 3688              	.LASF73:
 3689 0551 67667853 		.ascii	"gfxSem\000"
 3689      656D00
 3690              	.LASF47:
 3691 0558 705F6570 		.ascii	"p_epending\000"
 3691      656E6469 
 3691      6E6700
 3692              	.LASF58:
 3693 0563 53656D61 		.ascii	"Semaphore\000"
 3693      70686F72 
 3693      6500
 3694              	.LASF17:
 3695 056d 75696E74 		.ascii	"uint32_t\000"
ARM GAS  /tmp/ccO905hp.s 			page 70


 3695      33325F74 
 3695      00
 3696              	.LASF10:
 3697 0576 6C6F6E67 		.ascii	"long unsigned int\000"
 3697      20756E73 
 3697      69676E65 
 3697      6420696E 
 3697      7400
 3698              	.LASF69:
 3699 0588 63686172 		.ascii	"char\000"
 3699      00
 3700              	.LASF5:
 3701 058d 5F5F7569 		.ascii	"__uint16_t\000"
 3701      6E743136 
 3701      5F7400
 3702              	.LASF64:
 3703 0598 6D5F6E65 		.ascii	"m_next\000"
 3703      787400
 3704              	.LASF28:
 3705 059f 73797374 		.ascii	"systime_t\000"
 3705      696D655F 
 3705      7400
 3706              	.LASF49:
 3707 05a9 705F7265 		.ascii	"p_realprio\000"
 3707      616C7072 
 3707      696F00
 3708              	.LASF7:
 3709 05b4 5F5F696E 		.ascii	"__int32_t\000"
 3709      7433325F 
 3709      7400
 3710              	.LASF56:
 3711 05be 636F6E74 		.ascii	"context\000"
 3711      65787400 
 3712              	.LASF88:
 3713 05c6 704C6973 		.ascii	"pListener\000"
 3713      74656E65 
 3713      7200
 3714              	.LASF55:
 3715 05d0 696E7463 		.ascii	"intctx\000"
 3715      747800
 3716              	.LASF110:
 3717 05d7 63684D74 		.ascii	"chMtxInit\000"
 3717      78496E69 
 3717      7400
 3718              	.LASF65:
 3719 05e1 7264796D 		.ascii	"rdymsg\000"
 3719      736700
 3720              	.LASF41:
 3721 05e8 705F7265 		.ascii	"p_refs\000"
 3721      667300
 3722              	.LASF109:
 3723 05ef 67667853 		.ascii	"gfxSemSignal\000"
 3723      656D5369 
 3723      676E616C 
 3723      00
 3724              	.LASF90:
 3725 05fc 6C697374 		.ascii	"listenflags\000"
ARM GAS  /tmp/ccO905hp.s 			page 71


 3725      656E666C 
 3725      61677300 
 3726              	.LASF14:
 3727 0608 75696E74 		.ascii	"uint8_t\000"
 3727      385F7400 
 3728              	.LASF91:
 3729 0610 73726366 		.ascii	"srcflags\000"
 3729      6C616773 
 3729      00
 3730              	.LASF95:
 3731 0619 666C6167 		.ascii	"flags\000"
 3731      7300
 3732              	.LASF67:
 3733 061f 77746F62 		.ascii	"wtobjp\000"
 3733      6A7000
 3734              	.LASF37:
 3735 0626 705F6E61 		.ascii	"p_name\000"
 3735      6D6500
 3736              	.LASF92:
 3737 062d 47536F75 		.ascii	"GSourceListener\000"
 3737      7263654C 
 3737      69737465 
 3737      6E657200 
 3738              	.LASF94:
 3739 063d 67657665 		.ascii	"geventListenerInit\000"
 3739      6E744C69 
 3739      7374656E 
 3739      6572496E 
 3739      697400
 3740              	.LASF46:
 3741 0650 705F6D73 		.ascii	"p_msg\000"
 3741      6700
 3742              	.LASF87:
 3743 0656 47536F75 		.ascii	"GSourceListener_t\000"
 3743      7263654C 
 3743      69737465 
 3743      6E65725F 
 3743      7400
 3744              	.LASF63:
 3745 0668 6D5F6F77 		.ascii	"m_owner\000"
 3745      6E657200 
 3746              	.LASF34:
 3747 0670 705F6374 		.ascii	"p_ctx\000"
 3747      7800
 3748              	.LASF44:
 3749 0676 705F7761 		.ascii	"p_waiting\000"
 3749      6974696E 
 3749      6700
 3750              		.ident	"GCC: (GNU Tools for ARM Embedded Processors) 4.8.4 20140526 (release) [ARM/embedded-4_8-br
ARM GAS  /tmp/ccO905hp.s 			page 72


DEFINED SYMBOLS
                            *ABS*:00000000 gevent.c
     /tmp/ccO905hp.s:21     .text.deleteAssignments:00000000 $t
     /tmp/ccO905hp.s:26     .text.deleteAssignments:00000000 deleteAssignments
     /tmp/ccO905hp.s:121    .text.deleteAssignments:00000078 $d
     /tmp/ccO905hp.s:126    .text._geventInit:00000000 $t
     /tmp/ccO905hp.s:132    .text._geventInit:00000000 _geventInit
     /tmp/ccO905hp.s:146    .text._geventInit:00000008 $d
     /tmp/ccO905hp.s:151    .text._geventDeinit:00000000 $t
     /tmp/ccO905hp.s:157    .text._geventDeinit:00000000 _geventDeinit
     /tmp/ccO905hp.s:169    .text.geventListenerInit:00000000 $t
     /tmp/ccO905hp.s:175    .text.geventListenerInit:00000000 geventListenerInit
     /tmp/ccO905hp.s:213    .text.geventAttachSource:00000000 $t
     /tmp/ccO905hp.s:219    .text.geventAttachSource:00000000 geventAttachSource
     /tmp/ccO905hp.s:352    .text.geventAttachSource:0000009c $d
     /tmp/ccO905hp.s:358    .text.geventDetachSource:00000000 $t
     /tmp/ccO905hp.s:364    .text.geventDetachSource:00000000 geventDetachSource
     /tmp/ccO905hp.s:435    .text.geventDetachSource:00000048 $d
     /tmp/ccO905hp.s:440    .text.geventEventWait:00000000 $t
     /tmp/ccO905hp.s:446    .text.geventEventWait:00000000 geventEventWait
     /tmp/ccO905hp.s:485    .text.geventRegisterCallback:00000000 $t
     /tmp/ccO905hp.s:491    .text.geventRegisterCallback:00000000 geventRegisterCallback
     /tmp/ccO905hp.s:570    .text.geventRegisterCallback:00000050 $d
     /tmp/ccO905hp.s:575    .text.geventGetSourceListener:00000000 $t
     /tmp/ccO905hp.s:581    .text.geventGetSourceListener:00000000 geventGetSourceListener
     /tmp/ccO905hp.s:666    .text.geventGetSourceListener:00000058 $d
     /tmp/ccO905hp.s:673    .text.geventGetEventBuffer:00000000 $t
     /tmp/ccO905hp.s:679    .text.geventGetEventBuffer:00000000 geventGetEventBuffer
     /tmp/ccO905hp.s:709    .text.geventSendEvent:00000000 $t
     /tmp/ccO905hp.s:715    .text.geventSendEvent:00000000 geventSendEvent
     /tmp/ccO905hp.s:769    .text.geventSendEvent:00000034 $d
     /tmp/ccO905hp.s:774    .text.geventDetachSourceListeners:00000000 $t
     /tmp/ccO905hp.s:780    .text.geventDetachSourceListeners:00000000 geventDetachSourceListeners
     /tmp/ccO905hp.s:812    .text.geventDetachSourceListeners:0000001c $d
     /tmp/ccO905hp.s:817    .bss.Assignments:00000000 $d
     /tmp/ccO905hp.s:821    .bss.Assignments:00000000 Assignments
     /tmp/ccO905hp.s:824    .bss.geventMutex:00000000 $d
     /tmp/ccO905hp.s:828    .bss.geventMutex:00000000 geventMutex
                     .debug_frame:00000010 $d
     /tmp/ccO905hp.s:125    .text.deleteAssignments:0000007c $t
     /tmp/ccO905hp.s:150    .text._geventInit:0000000c $t
     /tmp/ccO905hp.s:357    .text.geventAttachSource:000000a4 $t
     /tmp/ccO905hp.s:439    .text.geventDetachSource:0000004c $t
     /tmp/ccO905hp.s:574    .text.geventRegisterCallback:00000054 $t
     /tmp/ccO905hp.s:672    .text.geventGetSourceListener:00000064 $t
     /tmp/ccO905hp.s:773    .text.geventSendEvent:00000038 $t

UNDEFINED SYMBOLS
gfxSemWait
gfxSemSignal
chMtxInit
gfxSemInit
chMtxLock
chMtxUnlock
