ARM GAS  /tmp/cc09nGaO.s 			page 1


   1              		.syntax unified
   2              		.cpu cortex-m4
   3              		.eabi_attribute 27, 1
   4              		.eabi_attribute 28, 1
   5              		.fpu fpv4-sp-d16
   6              		.eabi_attribute 20, 1
   7              		.eabi_attribute 21, 1
   8              		.eabi_attribute 23, 3
   9              		.eabi_attribute 24, 1
  10              		.eabi_attribute 25, 1
  11              		.eabi_attribute 26, 1
  12              		.eabi_attribute 30, 6
  13              		.eabi_attribute 34, 1
  14              		.eabi_attribute 18, 4
  15              		.thumb
  16              		.file	"gevent.c"
  17              		.text
  18              	.Ltext0:
  19              		.cfi_sections	.debug_frame
  20              		.section	.bss.geventMutex,"aw",%nobits
  21              		.align	2
  22              		.type	geventMutex, %object
  23              		.size	geventMutex, 16
  24              	geventMutex:
  25 0000 00000000 		.space	16
  25      00000000 
  25      00000000 
  25      00000000 
  26              		.section	.bss.Assignments,"aw",%nobits
  27              		.align	2
  28              		.type	Assignments, %object
  29              		.size	Assignments, 512
  30              	Assignments:
  31 0000 00000000 		.space	512
  31      00000000 
  31      00000000 
  31      00000000 
  31      00000000 
  32              		.section	.text.doExitEvent,"ax",%progbits
  33              		.align	2
  34              		.p2align 4,,15
  35              		.thumb
  36              		.thumb_func
  37              		.type	doExitEvent, %function
  38              	doExitEvent:
  39              	.LFB111:
  40              		.file 1 "/home/makkmarci/workspace/ugfx/src/gevent/gevent.c"
  41              		.loc 1 32 0
  42              		.cfi_startproc
  43              		@ args = 0, pretend = 0, frame = 8
  44              		@ frame_needed = 0, uses_anonymous_args = 0
  45 0000 00B5     		push	{lr}
  46              		.cfi_def_cfa_offset 4
  47              		.cfi_offset 14, -4
  48 0002 83B0     		sub	sp, sp, #12
  49              		.cfi_def_cfa_offset 16
  50 0004 0190     		str	r0, [sp, #4]
ARM GAS  /tmp/cc09nGaO.s 			page 2


  51              		.loc 1 34 0
  52 0006 019B     		ldr	r3, [sp, #4]
  53 0008 1B8A     		ldrh	r3, [r3, #16]
  54 000a 03F00303 		and	r3, r3, #3
  55 000e 022B     		cmp	r3, #2
  56 0010 14D1     		bne	.L1
  57              		.loc 1 35 0
  58 0012 019B     		ldr	r3, [sp, #4]
  59 0014 1B8A     		ldrh	r3, [r3, #16]
  60 0016 43F00103 		orr	r3, r3, #1
  61 001a 9AB2     		uxth	r2, r3
  62 001c 019B     		ldr	r3, [sp, #4]
  63 001e 1A82     		strh	r2, [r3, #16]	@ movhi
  64              		.loc 1 36 0
  65 0020 019B     		ldr	r3, [sp, #4]
  66 0022 0122     		movs	r2, #1
  67 0024 9A83     		strh	r2, [r3, #28]	@ movhi
  68              		.loc 1 37 0
  69 0026 019B     		ldr	r3, [sp, #4]
  70 0028 1B8A     		ldrh	r3, [r3, #16]
  71 002a 23F00203 		bic	r3, r3, #2
  72 002e 9AB2     		uxth	r2, r3
  73 0030 019B     		ldr	r3, [sp, #4]
  74 0032 1A82     		strh	r2, [r3, #16]	@ movhi
  75              		.loc 1 38 0
  76 0034 019B     		ldr	r3, [sp, #4]
  77 0036 1846     		mov	r0, r3
  78 0038 FFF7FEFF 		bl	gfxSemSignal
  79              	.L1:
  80              		.loc 1 40 0
  81 003c 03B0     		add	sp, sp, #12
  82              		.cfi_def_cfa_offset 4
  83              		@ sp needed
  84 003e 5DF804FB 		ldr	pc, [sp], #4
  85              		.cfi_endproc
  86              	.LFE111:
  87              		.size	doExitEvent, .-doExitEvent
  88 0042 00BFAFF3 		.section	.text.deleteAssignments,"ax",%progbits
  88      0080AFF3 
  88      0080AFF3 
  88      0080
  89              		.align	2
  90              		.p2align 4,,15
  91              		.thumb
  92              		.thumb_func
  93              		.type	deleteAssignments, %function
  94              	deleteAssignments:
  95              	.LFB112:
  96              		.loc 1 45 0
  97              		.cfi_startproc
  98              		@ args = 0, pretend = 0, frame = 16
  99              		@ frame_needed = 0, uses_anonymous_args = 0
 100 0000 00B5     		push	{lr}
 101              		.cfi_def_cfa_offset 4
 102              		.cfi_offset 14, -4
 103 0002 85B0     		sub	sp, sp, #20
 104              		.cfi_def_cfa_offset 24
ARM GAS  /tmp/cc09nGaO.s 			page 3


 105 0004 0190     		str	r0, [sp, #4]
 106 0006 0091     		str	r1, [sp]
 107              		.loc 1 48 0
 108 0008 134B     		ldr	r3, .L9
 109 000a 0393     		str	r3, [sp, #12]
 110 000c 1DE0     		b	.L4
 111              	.L8:
 112              		.loc 1 49 0
 113 000e 019B     		ldr	r3, [sp, #4]
 114 0010 002B     		cmp	r3, #0
 115 0012 04D0     		beq	.L5
 116              		.loc 1 49 0 is_stmt 0 discriminator 2
 117 0014 039B     		ldr	r3, [sp, #12]
 118 0016 1A68     		ldr	r2, [r3]
 119 0018 019B     		ldr	r3, [sp, #4]
 120 001a 9A42     		cmp	r2, r3
 121 001c 12D1     		bne	.L6
 122              	.L5:
 123              		.loc 1 49 0 discriminator 3
 124 001e 009B     		ldr	r3, [sp]
 125 0020 002B     		cmp	r3, #0
 126 0022 04D0     		beq	.L7
 127              		.loc 1 49 0 discriminator 4
 128 0024 039B     		ldr	r3, [sp, #12]
 129 0026 5A68     		ldr	r2, [r3, #4]
 130 0028 009B     		ldr	r3, [sp]
 131 002a 9A42     		cmp	r2, r3
 132 002c 0AD1     		bne	.L6
 133              	.L7:
 134              		.loc 1 50 0 is_stmt 1
 135 002e 039B     		ldr	r3, [sp, #12]
 136 0030 1B68     		ldr	r3, [r3]
 137 0032 1846     		mov	r0, r3
 138 0034 FFF7FEFF 		bl	doExitEvent
 139              		.loc 1 51 0
 140 0038 039B     		ldr	r3, [sp, #12]
 141 003a 0022     		movs	r2, #0
 142 003c 1A60     		str	r2, [r3]
 143              		.loc 1 52 0
 144 003e 039B     		ldr	r3, [sp, #12]
 145 0040 0022     		movs	r2, #0
 146 0042 5A60     		str	r2, [r3, #4]
 147              	.L6:
 148              		.loc 1 48 0 discriminator 2
 149 0044 039B     		ldr	r3, [sp, #12]
 150 0046 1033     		adds	r3, r3, #16
 151 0048 0393     		str	r3, [sp, #12]
 152              	.L4:
 153              		.loc 1 48 0 is_stmt 0 discriminator 1
 154 004a 039B     		ldr	r3, [sp, #12]
 155 004c 034A     		ldr	r2, .L9+4
 156 004e 9342     		cmp	r3, r2
 157 0050 DDD3     		bcc	.L8
 158              		.loc 1 55 0 is_stmt 1
 159 0052 05B0     		add	sp, sp, #20
 160              		.cfi_def_cfa_offset 4
 161              		@ sp needed
ARM GAS  /tmp/cc09nGaO.s 			page 4


 162 0054 5DF804FB 		ldr	pc, [sp], #4
 163              	.L10:
 164              		.align	2
 165              	.L9:
 166 0058 00000000 		.word	Assignments
 167 005c 00020000 		.word	Assignments+512
 168              		.cfi_endproc
 169              	.LFE112:
 170              		.size	deleteAssignments, .-deleteAssignments
 171              		.section	.text._geventInit,"ax",%progbits
 172              		.align	2
 173              		.p2align 4,,15
 174              		.global	_geventInit
 175              		.thumb
 176              		.thumb_func
 177              		.type	_geventInit, %function
 178              	_geventInit:
 179              	.LFB113:
 180              		.loc 1 58 0
 181              		.cfi_startproc
 182              		@ args = 0, pretend = 0, frame = 0
 183              		@ frame_needed = 0, uses_anonymous_args = 0
 184 0000 08B5     		push	{r3, lr}
 185              		.cfi_def_cfa_offset 8
 186              		.cfi_offset 3, -8
 187              		.cfi_offset 14, -4
 188              		.loc 1 59 0
 189 0002 0248     		ldr	r0, .L12
 190 0004 FFF7FEFF 		bl	chMtxInit
 191              		.loc 1 60 0
 192 0008 08BD     		pop	{r3, pc}
 193              	.L13:
 194 000a 00BF     		.align	2
 195              	.L12:
 196 000c 00000000 		.word	geventMutex
 197              		.cfi_endproc
 198              	.LFE113:
 199              		.size	_geventInit, .-_geventInit
 200              		.section	.text._geventDeinit,"ax",%progbits
 201              		.align	2
 202              		.p2align 4,,15
 203              		.global	_geventDeinit
 204              		.thumb
 205              		.thumb_func
 206              		.type	_geventDeinit, %function
 207              	_geventDeinit:
 208              	.LFB114:
 209              		.loc 1 63 0
 210              		.cfi_startproc
 211              		@ args = 0, pretend = 0, frame = 0
 212              		@ frame_needed = 0, uses_anonymous_args = 0
 213              		@ link register save eliminated.
 214              		.loc 1 65 0
 215 0000 7047     		bx	lr
 216              		.cfi_endproc
 217              	.LFE114:
 218              		.size	_geventDeinit, .-_geventDeinit
ARM GAS  /tmp/cc09nGaO.s 			page 5


 219 0002 00BFAFF3 		.section	.text.geventListenerInit,"ax",%progbits
 219      0080AFF3 
 219      0080AFF3 
 219      0080
 220              		.align	2
 221              		.p2align 4,,15
 222              		.global	geventListenerInit
 223              		.thumb
 224              		.thumb_func
 225              		.type	geventListenerInit, %function
 226              	geventListenerInit:
 227              	.LFB115:
 228              		.loc 1 67 0
 229              		.cfi_startproc
 230              		@ args = 0, pretend = 0, frame = 8
 231              		@ frame_needed = 0, uses_anonymous_args = 0
 232 0000 00B5     		push	{lr}
 233              		.cfi_def_cfa_offset 4
 234              		.cfi_offset 14, -4
 235 0002 83B0     		sub	sp, sp, #12
 236              		.cfi_def_cfa_offset 16
 237 0004 0190     		str	r0, [sp, #4]
 238              		.loc 1 68 0
 239 0006 019B     		ldr	r3, [sp, #4]
 240 0008 1846     		mov	r0, r3
 241 000a 0021     		movs	r1, #0
 242 000c 6FF00042 		mvn	r2, #-2147483648
 243 0010 FFF7FEFF 		bl	gfxSemInit
 244              		.loc 1 69 0
 245 0014 019B     		ldr	r3, [sp, #4]
 246 0016 0022     		movs	r2, #0
 247 0018 5A61     		str	r2, [r3, #20]
 248              		.loc 1 70 0
 249 001a 019B     		ldr	r3, [sp, #4]
 250 001c 0022     		movs	r2, #0
 251 001e 9A83     		strh	r2, [r3, #28]	@ movhi
 252              		.loc 1 71 0
 253 0020 019B     		ldr	r3, [sp, #4]
 254 0022 0022     		movs	r2, #0
 255 0024 1A82     		strh	r2, [r3, #16]	@ movhi
 256              		.loc 1 72 0
 257 0026 03B0     		add	sp, sp, #12
 258              		.cfi_def_cfa_offset 4
 259              		@ sp needed
 260 0028 5DF804FB 		ldr	pc, [sp], #4
 261              		.cfi_endproc
 262              	.LFE115:
 263              		.size	geventListenerInit, .-geventListenerInit
 264 002c AFF30080 		.section	.text.geventAttachSource,"ax",%progbits
 265              		.align	2
 266              		.p2align 4,,15
 267              		.global	geventAttachSource
 268              		.thumb
 269              		.thumb_func
 270              		.type	geventAttachSource, %function
 271              	geventAttachSource:
 272              	.LFB116:
ARM GAS  /tmp/cc09nGaO.s 			page 6


 273              		.loc 1 74 0
 274              		.cfi_startproc
 275              		@ args = 0, pretend = 0, frame = 24
 276              		@ frame_needed = 0, uses_anonymous_args = 0
 277 0000 00B5     		push	{lr}
 278              		.cfi_def_cfa_offset 4
 279              		.cfi_offset 14, -4
 280 0002 87B0     		sub	sp, sp, #28
 281              		.cfi_def_cfa_offset 32
 282 0004 0390     		str	r0, [sp, #12]
 283 0006 0291     		str	r1, [sp, #8]
 284 0008 0192     		str	r2, [sp, #4]
 285              		.loc 1 78 0
 286 000a 039B     		ldr	r3, [sp, #12]
 287 000c 002B     		cmp	r3, #0
 288 000e 02D0     		beq	.L17
 289              		.loc 1 78 0 is_stmt 0 discriminator 1
 290 0010 029B     		ldr	r3, [sp, #8]
 291 0012 002B     		cmp	r3, #0
 292 0014 01D1     		bne	.L18
 293              	.L17:
 294              		.loc 1 80 0 is_stmt 1
 295 0016 0023     		movs	r3, #0
 296 0018 3FE0     		b	.L19
 297              	.L18:
 298              		.loc 1 83 0
 299 001a 2248     		ldr	r0, .L25
 300 001c FFF7FEFF 		bl	chMtxLock
 301              		.loc 1 86 0
 302 0020 0023     		movs	r3, #0
 303 0022 0493     		str	r3, [sp, #16]
 304              		.loc 1 87 0
 305 0024 204B     		ldr	r3, .L25+4
 306 0026 0593     		str	r3, [sp, #20]
 307 0028 1CE0     		b	.L20
 308              	.L23:
 309              		.loc 1 89 0
 310 002a 059B     		ldr	r3, [sp, #20]
 311 002c 1A68     		ldr	r2, [r3]
 312 002e 039B     		ldr	r3, [sp, #12]
 313 0030 9A42     		cmp	r2, r3
 314 0032 0BD1     		bne	.L21
 315              		.loc 1 89 0 is_stmt 0 discriminator 1
 316 0034 059B     		ldr	r3, [sp, #20]
 317 0036 5A68     		ldr	r2, [r3, #4]
 318 0038 029B     		ldr	r3, [sp, #8]
 319 003a 9A42     		cmp	r2, r3
 320 003c 06D1     		bne	.L21
 321              		.loc 1 91 0 is_stmt 1
 322 003e 059B     		ldr	r3, [sp, #20]
 323 0040 019A     		ldr	r2, [sp, #4]
 324 0042 9A60     		str	r2, [r3, #8]
 325              		.loc 1 92 0
 326 0044 FFF7FEFF 		bl	chMtxUnlock
 327              		.loc 1 93 0
 328 0048 0123     		movs	r3, #1
 329 004a 26E0     		b	.L19
ARM GAS  /tmp/cc09nGaO.s 			page 7


 330              	.L21:
 331              		.loc 1 95 0
 332 004c 049B     		ldr	r3, [sp, #16]
 333 004e 002B     		cmp	r3, #0
 334 0050 05D1     		bne	.L22
 335              		.loc 1 95 0 is_stmt 0 discriminator 1
 336 0052 059B     		ldr	r3, [sp, #20]
 337 0054 1B68     		ldr	r3, [r3]
 338 0056 002B     		cmp	r3, #0
 339 0058 01D1     		bne	.L22
 340              		.loc 1 96 0 is_stmt 1
 341 005a 059B     		ldr	r3, [sp, #20]
 342 005c 0493     		str	r3, [sp, #16]
 343              	.L22:
 344              		.loc 1 87 0 discriminator 2
 345 005e 059B     		ldr	r3, [sp, #20]
 346 0060 1033     		adds	r3, r3, #16
 347 0062 0593     		str	r3, [sp, #20]
 348              	.L20:
 349              		.loc 1 87 0 is_stmt 0 discriminator 1
 350 0064 059B     		ldr	r3, [sp, #20]
 351 0066 114A     		ldr	r2, .L25+8
 352 0068 9342     		cmp	r3, r2
 353 006a DED3     		bcc	.L23
 354              		.loc 1 100 0 is_stmt 1
 355 006c 049B     		ldr	r3, [sp, #16]
 356 006e 002B     		cmp	r3, #0
 357 0070 0BD0     		beq	.L24
 358              		.loc 1 101 0
 359 0072 049B     		ldr	r3, [sp, #16]
 360 0074 039A     		ldr	r2, [sp, #12]
 361 0076 1A60     		str	r2, [r3]
 362              		.loc 1 102 0
 363 0078 049B     		ldr	r3, [sp, #16]
 364 007a 029A     		ldr	r2, [sp, #8]
 365 007c 5A60     		str	r2, [r3, #4]
 366              		.loc 1 103 0
 367 007e 049B     		ldr	r3, [sp, #16]
 368 0080 019A     		ldr	r2, [sp, #4]
 369 0082 9A60     		str	r2, [r3, #8]
 370              		.loc 1 104 0
 371 0084 049B     		ldr	r3, [sp, #16]
 372 0086 0022     		movs	r2, #0
 373 0088 DA60     		str	r2, [r3, #12]
 374              	.L24:
 375              		.loc 1 106 0
 376 008a FFF7FEFF 		bl	chMtxUnlock
 377              		.loc 1 108 0
 378 008e 049B     		ldr	r3, [sp, #16]
 379 0090 002B     		cmp	r3, #0
 380 0092 14BF     		ite	ne
 381 0094 0123     		movne	r3, #1
 382 0096 0023     		moveq	r3, #0
 383 0098 DBB2     		uxtb	r3, r3
 384              	.L19:
 385              		.loc 1 109 0
 386 009a 1846     		mov	r0, r3
ARM GAS  /tmp/cc09nGaO.s 			page 8


 387 009c 07B0     		add	sp, sp, #28
 388              		.cfi_def_cfa_offset 4
 389              		@ sp needed
 390 009e 5DF804FB 		ldr	pc, [sp], #4
 391              	.L26:
 392 00a2 00BF     		.align	2
 393              	.L25:
 394 00a4 00000000 		.word	geventMutex
 395 00a8 00000000 		.word	Assignments
 396 00ac 00020000 		.word	Assignments+512
 397              		.cfi_endproc
 398              	.LFE116:
 399              		.size	geventAttachSource, .-geventAttachSource
 400              		.section	.text.geventDetachSource,"ax",%progbits
 401              		.align	2
 402              		.p2align 4,,15
 403              		.global	geventDetachSource
 404              		.thumb
 405              		.thumb_func
 406              		.type	geventDetachSource, %function
 407              	geventDetachSource:
 408              	.LFB117:
 409              		.loc 1 111 0
 410              		.cfi_startproc
 411              		@ args = 0, pretend = 0, frame = 8
 412              		@ frame_needed = 0, uses_anonymous_args = 0
 413 0000 00B5     		push	{lr}
 414              		.cfi_def_cfa_offset 4
 415              		.cfi_offset 14, -4
 416 0002 83B0     		sub	sp, sp, #12
 417              		.cfi_def_cfa_offset 16
 418 0004 0190     		str	r0, [sp, #4]
 419 0006 0091     		str	r1, [sp]
 420              		.loc 1 112 0
 421 0008 019B     		ldr	r3, [sp, #4]
 422 000a 002B     		cmp	r3, #0
 423 000c 0ED0     		beq	.L27
 424              		.loc 1 113 0
 425 000e 0948     		ldr	r0, .L30
 426 0010 FFF7FEFF 		bl	chMtxLock
 427              		.loc 1 114 0
 428 0014 0198     		ldr	r0, [sp, #4]
 429 0016 0099     		ldr	r1, [sp]
 430 0018 FFF7FEFF 		bl	deleteAssignments
 431              		.loc 1 115 0
 432 001c 009B     		ldr	r3, [sp]
 433 001e 002B     		cmp	r3, #0
 434 0020 02D1     		bne	.L29
 435              		.loc 1 116 0
 436 0022 0198     		ldr	r0, [sp, #4]
 437 0024 FFF7FEFF 		bl	doExitEvent
 438              	.L29:
 439              		.loc 1 117 0
 440 0028 FFF7FEFF 		bl	chMtxUnlock
 441              	.L27:
 442              		.loc 1 119 0
 443 002c 03B0     		add	sp, sp, #12
ARM GAS  /tmp/cc09nGaO.s 			page 9


 444              		.cfi_def_cfa_offset 4
 445              		@ sp needed
 446 002e 5DF804FB 		ldr	pc, [sp], #4
 447              	.L31:
 448 0032 00BF     		.align	2
 449              	.L30:
 450 0034 00000000 		.word	geventMutex
 451              		.cfi_endproc
 452              	.LFE117:
 453              		.size	geventDetachSource, .-geventDetachSource
 454 0038 AFF30080 		.section	.text.geventEventWait,"ax",%progbits
 454      AFF30080 
 455              		.align	2
 456              		.p2align 4,,15
 457              		.global	geventEventWait
 458              		.thumb
 459              		.thumb_func
 460              		.type	geventEventWait, %function
 461              	geventEventWait:
 462              	.LFB118:
 463              		.loc 1 121 0
 464              		.cfi_startproc
 465              		@ args = 0, pretend = 0, frame = 8
 466              		@ frame_needed = 0, uses_anonymous_args = 0
 467 0000 00B5     		push	{lr}
 468              		.cfi_def_cfa_offset 4
 469              		.cfi_offset 14, -4
 470 0002 83B0     		sub	sp, sp, #12
 471              		.cfi_def_cfa_offset 16
 472 0004 0190     		str	r0, [sp, #4]
 473 0006 0091     		str	r1, [sp]
 474              		.loc 1 122 0
 475 0008 2A48     		ldr	r0, .L38
 476 000a FFF7FEFF 		bl	chMtxLock
 477              		.loc 1 124 0
 478 000e 019B     		ldr	r3, [sp, #4]
 479 0010 5B69     		ldr	r3, [r3, #20]
 480 0012 002B     		cmp	r3, #0
 481 0014 05D1     		bne	.L33
 482              		.loc 1 124 0 is_stmt 0 discriminator 1
 483 0016 019B     		ldr	r3, [sp, #4]
 484 0018 1B8A     		ldrh	r3, [r3, #16]
 485 001a 03F00203 		and	r3, r3, #2
 486 001e 002B     		cmp	r3, #0
 487 0020 03D0     		beq	.L34
 488              	.L33:
 489              		.loc 1 125 0 is_stmt 1
 490 0022 FFF7FEFF 		bl	chMtxUnlock
 491              		.loc 1 126 0
 492 0026 0023     		movs	r3, #0
 493 0028 40E0     		b	.L35
 494              	.L34:
 495              		.loc 1 130 0
 496 002a 019B     		ldr	r3, [sp, #4]
 497 002c 1B8A     		ldrh	r3, [r3, #16]
 498 002e 03F00803 		and	r3, r3, #8
 499 0032 002B     		cmp	r3, #0
ARM GAS  /tmp/cc09nGaO.s 			page 10


 500 0034 12D0     		beq	.L36
 501              		.loc 1 131 0
 502 0036 019B     		ldr	r3, [sp, #4]
 503 0038 1B8A     		ldrh	r3, [r3, #16]
 504 003a 23F00803 		bic	r3, r3, #8
 505 003e 9AB2     		uxth	r2, r3
 506 0040 019B     		ldr	r3, [sp, #4]
 507 0042 1A82     		strh	r2, [r3, #16]	@ movhi
 508              		.loc 1 132 0
 509 0044 019B     		ldr	r3, [sp, #4]
 510 0046 1B8A     		ldrh	r3, [r3, #16]
 511 0048 43F00103 		orr	r3, r3, #1
 512 004c 9AB2     		uxth	r2, r3
 513 004e 019B     		ldr	r3, [sp, #4]
 514 0050 1A82     		strh	r2, [r3, #16]	@ movhi
 515              		.loc 1 133 0
 516 0052 FFF7FEFF 		bl	chMtxUnlock
 517              		.loc 1 134 0
 518 0056 019B     		ldr	r3, [sp, #4]
 519 0058 1C33     		adds	r3, r3, #28
 520 005a 27E0     		b	.L35
 521              	.L36:
 522              		.loc 1 138 0
 523 005c 019B     		ldr	r3, [sp, #4]
 524 005e 1B8A     		ldrh	r3, [r3, #16]
 525 0060 23F00103 		bic	r3, r3, #1
 526 0064 9AB2     		uxth	r2, r3
 527 0066 019B     		ldr	r3, [sp, #4]
 528 0068 1A82     		strh	r2, [r3, #16]	@ movhi
 529              		.loc 1 139 0
 530 006a 019B     		ldr	r3, [sp, #4]
 531 006c 1B8A     		ldrh	r3, [r3, #16]
 532 006e 43F00203 		orr	r3, r3, #2
 533 0072 9AB2     		uxth	r2, r3
 534 0074 019B     		ldr	r3, [sp, #4]
 535 0076 1A82     		strh	r2, [r3, #16]	@ movhi
 536              		.loc 1 140 0
 537 0078 FFF7FEFF 		bl	chMtxUnlock
 538              		.loc 1 141 0
 539 007c 019B     		ldr	r3, [sp, #4]
 540 007e 1846     		mov	r0, r3
 541 0080 0099     		ldr	r1, [sp]
 542 0082 FFF7FEFF 		bl	gfxSemWait
 543 0086 0346     		mov	r3, r0
 544 0088 002B     		cmp	r3, #0
 545 008a 02D0     		beq	.L37
 546              		.loc 1 142 0
 547 008c 019B     		ldr	r3, [sp, #4]
 548 008e 1C33     		adds	r3, r3, #28
 549 0090 0CE0     		b	.L35
 550              	.L37:
 551              		.loc 1 146 0
 552 0092 0848     		ldr	r0, .L38
 553 0094 FFF7FEFF 		bl	chMtxLock
 554              		.loc 1 147 0
 555 0098 019B     		ldr	r3, [sp, #4]
 556 009a 1B8A     		ldrh	r3, [r3, #16]
ARM GAS  /tmp/cc09nGaO.s 			page 11


 557 009c 23F00203 		bic	r3, r3, #2
 558 00a0 9AB2     		uxth	r2, r3
 559 00a2 019B     		ldr	r3, [sp, #4]
 560 00a4 1A82     		strh	r2, [r3, #16]	@ movhi
 561              		.loc 1 148 0
 562 00a6 FFF7FEFF 		bl	chMtxUnlock
 563              		.loc 1 149 0
 564 00aa 0023     		movs	r3, #0
 565              	.L35:
 566              		.loc 1 150 0
 567 00ac 1846     		mov	r0, r3
 568 00ae 03B0     		add	sp, sp, #12
 569              		.cfi_def_cfa_offset 4
 570              		@ sp needed
 571 00b0 5DF804FB 		ldr	pc, [sp], #4
 572              	.L39:
 573              		.align	2
 574              	.L38:
 575 00b4 00000000 		.word	geventMutex
 576              		.cfi_endproc
 577              	.LFE118:
 578              		.size	geventEventWait, .-geventEventWait
 579              		.section	.text.geventEventComplete,"ax",%progbits
 580              		.align	2
 581              		.p2align 4,,15
 582              		.global	geventEventComplete
 583              		.thumb
 584              		.thumb_func
 585              		.type	geventEventComplete, %function
 586              	geventEventComplete:
 587              	.LFB119:
 588              		.loc 1 152 0
 589              		.cfi_startproc
 590              		@ args = 0, pretend = 0, frame = 8
 591              		@ frame_needed = 0, uses_anonymous_args = 0
 592              		@ link register save eliminated.
 593 0000 82B0     		sub	sp, sp, #8
 594              		.cfi_def_cfa_offset 8
 595 0002 0190     		str	r0, [sp, #4]
 596              		.loc 1 153 0
 597 0004 019B     		ldr	r3, [sp, #4]
 598 0006 1B8A     		ldrh	r3, [r3, #16]
 599 0008 23F00103 		bic	r3, r3, #1
 600 000c 9AB2     		uxth	r2, r3
 601 000e 019B     		ldr	r3, [sp, #4]
 602 0010 1A82     		strh	r2, [r3, #16]	@ movhi
 603              		.loc 1 154 0
 604 0012 02B0     		add	sp, sp, #8
 605              		.cfi_def_cfa_offset 0
 606              		@ sp needed
 607 0014 7047     		bx	lr
 608              		.cfi_endproc
 609              	.LFE119:
 610              		.size	geventEventComplete, .-geventEventComplete
 611 0016 00BFAFF3 		.section	.text.geventRegisterCallback,"ax",%progbits
 611      0080AFF3 
 611      0080
ARM GAS  /tmp/cc09nGaO.s 			page 12


 612              		.align	2
 613              		.p2align 4,,15
 614              		.global	geventRegisterCallback
 615              		.thumb
 616              		.thumb_func
 617              		.type	geventRegisterCallback, %function
 618              	geventRegisterCallback:
 619              	.LFB120:
 620              		.loc 1 156 0
 621              		.cfi_startproc
 622              		@ args = 0, pretend = 0, frame = 16
 623              		@ frame_needed = 0, uses_anonymous_args = 0
 624 0000 00B5     		push	{lr}
 625              		.cfi_def_cfa_offset 4
 626              		.cfi_offset 14, -4
 627 0002 85B0     		sub	sp, sp, #20
 628              		.cfi_def_cfa_offset 24
 629 0004 0390     		str	r0, [sp, #12]
 630 0006 0291     		str	r1, [sp, #8]
 631 0008 0192     		str	r2, [sp, #4]
 632              		.loc 1 157 0
 633 000a 039B     		ldr	r3, [sp, #12]
 634 000c 002B     		cmp	r3, #0
 635 000e 17D0     		beq	.L41
 636              		.loc 1 158 0
 637 0010 0D48     		ldr	r0, .L44
 638 0012 FFF7FEFF 		bl	chMtxLock
 639              		.loc 1 159 0
 640 0016 0398     		ldr	r0, [sp, #12]
 641 0018 FFF7FEFF 		bl	doExitEvent
 642              		.loc 1 160 0
 643 001c 039B     		ldr	r3, [sp, #12]
 644 001e 019A     		ldr	r2, [sp, #4]
 645 0020 9A61     		str	r2, [r3, #24]
 646              		.loc 1 161 0
 647 0022 039B     		ldr	r3, [sp, #12]
 648 0024 029A     		ldr	r2, [sp, #8]
 649 0026 5A61     		str	r2, [r3, #20]
 650              		.loc 1 162 0
 651 0028 029B     		ldr	r3, [sp, #8]
 652 002a 002B     		cmp	r3, #0
 653 002c 06D0     		beq	.L43
 654              		.loc 1 163 0
 655 002e 039B     		ldr	r3, [sp, #12]
 656 0030 1B8A     		ldrh	r3, [r3, #16]
 657 0032 23F00103 		bic	r3, r3, #1
 658 0036 9AB2     		uxth	r2, r3
 659 0038 039B     		ldr	r3, [sp, #12]
 660 003a 1A82     		strh	r2, [r3, #16]	@ movhi
 661              	.L43:
 662              		.loc 1 164 0
 663 003c FFF7FEFF 		bl	chMtxUnlock
 664              	.L41:
 665              		.loc 1 166 0
 666 0040 05B0     		add	sp, sp, #20
 667              		.cfi_def_cfa_offset 4
 668              		@ sp needed
ARM GAS  /tmp/cc09nGaO.s 			page 13


 669 0042 5DF804FB 		ldr	pc, [sp], #4
 670              	.L45:
 671 0046 00BF     		.align	2
 672              	.L44:
 673 0048 00000000 		.word	geventMutex
 674              		.cfi_endproc
 675              	.LFE120:
 676              		.size	geventRegisterCallback, .-geventRegisterCallback
 677 004c AFF30080 		.section	.text.geventGetSourceListener,"ax",%progbits
 678              		.align	2
 679              		.p2align 4,,15
 680              		.global	geventGetSourceListener
 681              		.thumb
 682              		.thumb_func
 683              		.type	geventGetSourceListener, %function
 684              	geventGetSourceListener:
 685              	.LFB121:
 686              		.loc 1 168 0
 687              		.cfi_startproc
 688              		@ args = 0, pretend = 0, frame = 16
 689              		@ frame_needed = 0, uses_anonymous_args = 0
 690 0000 00B5     		push	{lr}
 691              		.cfi_def_cfa_offset 4
 692              		.cfi_offset 14, -4
 693 0002 85B0     		sub	sp, sp, #20
 694              		.cfi_def_cfa_offset 24
 695 0004 0190     		str	r0, [sp, #4]
 696 0006 0091     		str	r1, [sp]
 697              		.loc 1 172 0
 698 0008 019B     		ldr	r3, [sp, #4]
 699 000a 002B     		cmp	r3, #0
 700 000c 01D1     		bne	.L47
 701              		.loc 1 173 0
 702 000e 0023     		movs	r3, #0
 703 0010 35E0     		b	.L48
 704              	.L47:
 705              		.loc 1 175 0
 706 0012 1D48     		ldr	r0, .L55
 707 0014 FFF7FEFF 		bl	chMtxLock
 708              		.loc 1 178 0
 709 0018 009B     		ldr	r3, [sp]
 710 001a 002B     		cmp	r3, #0
 711 001c 13D0     		beq	.L49
 712              		.loc 1 178 0 is_stmt 0 discriminator 1
 713 001e 009B     		ldr	r3, [sp]
 714 0020 1B68     		ldr	r3, [r3]
 715 0022 002B     		cmp	r3, #0
 716 0024 0FD0     		beq	.L49
 717              		.loc 1 178 0 discriminator 2
 718 0026 009B     		ldr	r3, [sp]
 719 0028 1B68     		ldr	r3, [r3]
 720 002a 1B8A     		ldrh	r3, [r3, #16]
 721 002c 03F00403 		and	r3, r3, #4
 722 0030 002B     		cmp	r3, #0
 723 0032 08D0     		beq	.L49
 724              		.loc 1 179 0 is_stmt 1
 725 0034 009B     		ldr	r3, [sp]
ARM GAS  /tmp/cc09nGaO.s 			page 14


 726 0036 1B68     		ldr	r3, [r3]
 727 0038 009A     		ldr	r2, [sp]
 728 003a 1268     		ldr	r2, [r2]
 729 003c 128A     		ldrh	r2, [r2, #16]
 730 003e 22F00502 		bic	r2, r2, #5
 731 0042 92B2     		uxth	r2, r2
 732 0044 1A82     		strh	r2, [r3, #16]	@ movhi
 733              	.L49:
 734              		.loc 1 182 0
 735 0046 009B     		ldr	r3, [sp]
 736 0048 002B     		cmp	r3, #0
 737 004a 02D0     		beq	.L50
 738              		.loc 1 182 0 is_stmt 0 discriminator 1
 739 004c 009B     		ldr	r3, [sp]
 740 004e 1033     		adds	r3, r3, #16
 741 0050 00E0     		b	.L51
 742              	.L50:
 743              		.loc 1 182 0 discriminator 2
 744 0052 0E4B     		ldr	r3, .L55+4
 745              	.L51:
 746              		.loc 1 182 0 discriminator 4
 747 0054 0393     		str	r3, [sp, #12]
 748 0056 0BE0     		b	.L52
 749              	.L54:
 750              		.loc 1 183 0 is_stmt 1
 751 0058 039B     		ldr	r3, [sp, #12]
 752 005a 5A68     		ldr	r2, [r3, #4]
 753 005c 019B     		ldr	r3, [sp, #4]
 754 005e 9A42     		cmp	r2, r3
 755 0060 03D1     		bne	.L53
 756              		.loc 1 184 0
 757 0062 FFF7FEFF 		bl	chMtxUnlock
 758              		.loc 1 185 0
 759 0066 039B     		ldr	r3, [sp, #12]
 760 0068 09E0     		b	.L48
 761              	.L53:
 762              		.loc 1 182 0 discriminator 6
 763 006a 039B     		ldr	r3, [sp, #12]
 764 006c 1033     		adds	r3, r3, #16
 765 006e 0393     		str	r3, [sp, #12]
 766              	.L52:
 767              		.loc 1 182 0 is_stmt 0 discriminator 5
 768 0070 039B     		ldr	r3, [sp, #12]
 769 0072 074A     		ldr	r2, .L55+8
 770 0074 9342     		cmp	r3, r2
 771 0076 EFD3     		bcc	.L54
 772              		.loc 1 188 0 is_stmt 1
 773 0078 FFF7FEFF 		bl	chMtxUnlock
 774              		.loc 1 189 0
 775 007c 0023     		movs	r3, #0
 776              	.L48:
 777              		.loc 1 190 0
 778 007e 1846     		mov	r0, r3
 779 0080 05B0     		add	sp, sp, #20
 780              		.cfi_def_cfa_offset 4
 781              		@ sp needed
 782 0082 5DF804FB 		ldr	pc, [sp], #4
ARM GAS  /tmp/cc09nGaO.s 			page 15


 783              	.L56:
 784 0086 00BF     		.align	2
 785              	.L55:
 786 0088 00000000 		.word	geventMutex
 787 008c 00000000 		.word	Assignments
 788 0090 00020000 		.word	Assignments+512
 789              		.cfi_endproc
 790              	.LFE121:
 791              		.size	geventGetSourceListener, .-geventGetSourceListener
 792 0094 AFF30080 		.section	.text.geventGetEventBuffer,"ax",%progbits
 792      AFF30080 
 792      AFF30080 
 793              		.align	2
 794              		.p2align 4,,15
 795              		.global	geventGetEventBuffer
 796              		.thumb
 797              		.thumb_func
 798              		.type	geventGetEventBuffer, %function
 799              	geventGetEventBuffer:
 800              	.LFB122:
 801              		.loc 1 192 0
 802              		.cfi_startproc
 803              		@ args = 0, pretend = 0, frame = 8
 804              		@ frame_needed = 0, uses_anonymous_args = 0
 805 0000 00B5     		push	{lr}
 806              		.cfi_def_cfa_offset 4
 807              		.cfi_offset 14, -4
 808 0002 83B0     		sub	sp, sp, #12
 809              		.cfi_def_cfa_offset 16
 810 0004 0190     		str	r0, [sp, #4]
 811              		.loc 1 193 0
 812 0006 1048     		ldr	r0, .L60
 813 0008 FFF7FEFF 		bl	chMtxLock
 814              		.loc 1 194 0
 815 000c 019B     		ldr	r3, [sp, #4]
 816 000e 1B68     		ldr	r3, [r3]
 817 0010 1B8A     		ldrh	r3, [r3, #16]
 818 0012 03F00103 		and	r3, r3, #1
 819 0016 002B     		cmp	r3, #0
 820 0018 03D0     		beq	.L58
 821              		.loc 1 196 0
 822 001a FFF7FEFF 		bl	chMtxUnlock
 823              		.loc 1 197 0
 824 001e 0023     		movs	r3, #0
 825 0020 0DE0     		b	.L59
 826              	.L58:
 827              		.loc 1 201 0
 828 0022 019B     		ldr	r3, [sp, #4]
 829 0024 1B68     		ldr	r3, [r3]
 830 0026 019A     		ldr	r2, [sp, #4]
 831 0028 1268     		ldr	r2, [r2]
 832 002a 128A     		ldrh	r2, [r2, #16]
 833 002c 42F00502 		orr	r2, r2, #5
 834 0030 92B2     		uxth	r2, r2
 835 0032 1A82     		strh	r2, [r3, #16]	@ movhi
 836              		.loc 1 202 0
 837 0034 FFF7FEFF 		bl	chMtxUnlock
ARM GAS  /tmp/cc09nGaO.s 			page 16


 838              		.loc 1 203 0
 839 0038 019B     		ldr	r3, [sp, #4]
 840 003a 1B68     		ldr	r3, [r3]
 841 003c 1C33     		adds	r3, r3, #28
 842              	.L59:
 843              		.loc 1 204 0
 844 003e 1846     		mov	r0, r3
 845 0040 03B0     		add	sp, sp, #12
 846              		.cfi_def_cfa_offset 4
 847              		@ sp needed
 848 0042 5DF804FB 		ldr	pc, [sp], #4
 849              	.L61:
 850 0046 00BF     		.align	2
 851              	.L60:
 852 0048 00000000 		.word	geventMutex
 853              		.cfi_endproc
 854              	.LFE122:
 855              		.size	geventGetEventBuffer, .-geventGetEventBuffer
 856 004c AFF30080 		.section	.text.geventSendEvent,"ax",%progbits
 857              		.align	2
 858              		.p2align 4,,15
 859              		.global	geventSendEvent
 860              		.thumb
 861              		.thumb_func
 862              		.type	geventSendEvent, %function
 863              	geventSendEvent:
 864              	.LFB123:
 865              		.loc 1 206 0
 866              		.cfi_startproc
 867              		@ args = 0, pretend = 0, frame = 8
 868              		@ frame_needed = 0, uses_anonymous_args = 0
 869 0000 00B5     		push	{lr}
 870              		.cfi_def_cfa_offset 4
 871              		.cfi_offset 14, -4
 872 0002 83B0     		sub	sp, sp, #12
 873              		.cfi_def_cfa_offset 16
 874 0004 0190     		str	r0, [sp, #4]
 875              		.loc 1 207 0
 876 0006 2648     		ldr	r0, .L67
 877 0008 FFF7FEFF 		bl	chMtxLock
 878              		.loc 1 208 0
 879 000c 019B     		ldr	r3, [sp, #4]
 880 000e 1B68     		ldr	r3, [r3]
 881 0010 5B69     		ldr	r3, [r3, #20]
 882 0012 002B     		cmp	r3, #0
 883 0014 17D0     		beq	.L63
 884              		.loc 1 212 0
 885 0016 019B     		ldr	r3, [sp, #4]
 886 0018 1B68     		ldr	r3, [r3]
 887 001a 019A     		ldr	r2, [sp, #4]
 888 001c 1268     		ldr	r2, [r2]
 889 001e 128A     		ldrh	r2, [r2, #16]
 890 0020 22F00D02 		bic	r2, r2, #13
 891 0024 92B2     		uxth	r2, r2
 892 0026 1A82     		strh	r2, [r3, #16]	@ movhi
 893              		.loc 1 213 0
 894 0028 FFF7FEFF 		bl	chMtxUnlock
ARM GAS  /tmp/cc09nGaO.s 			page 17


 895              		.loc 1 216 0
 896 002c 019B     		ldr	r3, [sp, #4]
 897 002e 1B68     		ldr	r3, [r3]
 898 0030 5B69     		ldr	r3, [r3, #20]
 899 0032 019A     		ldr	r2, [sp, #4]
 900 0034 1268     		ldr	r2, [r2]
 901 0036 9169     		ldr	r1, [r2, #24]
 902 0038 019A     		ldr	r2, [sp, #4]
 903 003a 1268     		ldr	r2, [r2]
 904 003c 1C32     		adds	r2, r2, #28
 905 003e 0846     		mov	r0, r1
 906 0040 1146     		mov	r1, r2
 907 0042 9847     		blx	r3
 908 0044 29E0     		b	.L62
 909              	.L63:
 910              		.loc 1 220 0
 911 0046 019B     		ldr	r3, [sp, #4]
 912 0048 1B68     		ldr	r3, [r3]
 913 004a 019A     		ldr	r2, [sp, #4]
 914 004c 1268     		ldr	r2, [r2]
 915 004e 128A     		ldrh	r2, [r2, #16]
 916 0050 22F00402 		bic	r2, r2, #4
 917 0054 92B2     		uxth	r2, r2
 918 0056 1A82     		strh	r2, [r3, #16]	@ movhi
 919              		.loc 1 221 0
 920 0058 019B     		ldr	r3, [sp, #4]
 921 005a 1B68     		ldr	r3, [r3]
 922 005c 1B8A     		ldrh	r3, [r3, #16]
 923 005e 03F00203 		and	r3, r3, #2
 924 0062 002B     		cmp	r3, #0
 925 0064 0ED0     		beq	.L65
 926              		.loc 1 222 0
 927 0066 019B     		ldr	r3, [sp, #4]
 928 0068 1B68     		ldr	r3, [r3]
 929 006a 019A     		ldr	r2, [sp, #4]
 930 006c 1268     		ldr	r2, [r2]
 931 006e 128A     		ldrh	r2, [r2, #16]
 932 0070 22F00A02 		bic	r2, r2, #10
 933 0074 92B2     		uxth	r2, r2
 934 0076 1A82     		strh	r2, [r3, #16]	@ movhi
 935              		.loc 1 223 0
 936 0078 019B     		ldr	r3, [sp, #4]
 937 007a 1B68     		ldr	r3, [r3]
 938 007c 1846     		mov	r0, r3
 939 007e FFF7FEFF 		bl	gfxSemSignal
 940 0082 08E0     		b	.L66
 941              	.L65:
 942              		.loc 1 225 0
 943 0084 019B     		ldr	r3, [sp, #4]
 944 0086 1B68     		ldr	r3, [r3]
 945 0088 019A     		ldr	r2, [sp, #4]
 946 008a 1268     		ldr	r2, [r2]
 947 008c 128A     		ldrh	r2, [r2, #16]
 948 008e 42F00802 		orr	r2, r2, #8
 949 0092 92B2     		uxth	r2, r2
 950 0094 1A82     		strh	r2, [r3, #16]	@ movhi
 951              	.L66:
ARM GAS  /tmp/cc09nGaO.s 			page 18


 952              		.loc 1 228 0
 953 0096 FFF7FEFF 		bl	chMtxUnlock
 954              	.L62:
 955              		.loc 1 230 0
 956 009a 03B0     		add	sp, sp, #12
 957              		.cfi_def_cfa_offset 4
 958              		@ sp needed
 959 009c 5DF804FB 		ldr	pc, [sp], #4
 960              	.L68:
 961              		.align	2
 962              	.L67:
 963 00a0 00000000 		.word	geventMutex
 964              		.cfi_endproc
 965              	.LFE123:
 966              		.size	geventSendEvent, .-geventSendEvent
 967 00a4 AFF30080 		.section	.text.geventDetachSourceListeners,"ax",%progbits
 967      AFF30080 
 967      AFF30080 
 968              		.align	2
 969              		.p2align 4,,15
 970              		.global	geventDetachSourceListeners
 971              		.thumb
 972              		.thumb_func
 973              		.type	geventDetachSourceListeners, %function
 974              	geventDetachSourceListeners:
 975              	.LFB124:
 976              		.loc 1 232 0
 977              		.cfi_startproc
 978              		@ args = 0, pretend = 0, frame = 8
 979              		@ frame_needed = 0, uses_anonymous_args = 0
 980 0000 00B5     		push	{lr}
 981              		.cfi_def_cfa_offset 4
 982              		.cfi_offset 14, -4
 983 0002 83B0     		sub	sp, sp, #12
 984              		.cfi_def_cfa_offset 16
 985 0004 0190     		str	r0, [sp, #4]
 986              		.loc 1 233 0
 987 0006 0648     		ldr	r0, .L70
 988 0008 FFF7FEFF 		bl	chMtxLock
 989              		.loc 1 234 0
 990 000c 0020     		movs	r0, #0
 991 000e 0199     		ldr	r1, [sp, #4]
 992 0010 FFF7FEFF 		bl	deleteAssignments
 993              		.loc 1 235 0
 994 0014 FFF7FEFF 		bl	chMtxUnlock
 995              		.loc 1 236 0
 996 0018 03B0     		add	sp, sp, #12
 997              		.cfi_def_cfa_offset 4
 998              		@ sp needed
 999 001a 5DF804FB 		ldr	pc, [sp], #4
 1000              	.L71:
 1001 001e 00BF     		.align	2
 1002              	.L70:
 1003 0020 00000000 		.word	geventMutex
 1004              		.cfi_endproc
 1005              	.LFE124:
 1006              		.size	geventDetachSourceListeners, .-geventDetachSourceListeners
ARM GAS  /tmp/cc09nGaO.s 			page 19


 1007 0024 AFF30080 		.text
 1007      AFF30080 
 1007      AFF30080 
 1008              	.Letext0:
 1009              		.file 2 "/opt/gcc-arm-none-eabi/arm-none-eabi/include/machine/_default_types.h"
 1010              		.file 3 "/opt/gcc-arm-none-eabi/arm-none-eabi/include/stdint.h"
 1011              		.file 4 "/home/makkmarci/workspace/ChibiOS_2.6.8/os/ports/GCC/ARMCMx/chtypes.h"
 1012              		.file 5 "/home/makkmarci/workspace/ChibiOS_2.6.8/os/kernel/include/chlists.h"
 1013              		.file 6 "/home/makkmarci/workspace/ChibiOS_2.6.8/os/kernel/include/chthreads.h"
 1014              		.file 7 "/home/makkmarci/workspace/ChibiOS_2.6.8/os/ports/GCC/ARMCMx/chcore_v7m.h"
 1015              		.file 8 "/home/makkmarci/workspace/ChibiOS_2.6.8/os/kernel/include/chsem.h"
 1016              		.file 9 "/home/makkmarci/workspace/ChibiOS_2.6.8/os/kernel/include/chmtx.h"
 1017              		.file 10 "/home/makkmarci/workspace/ugfx/src/gos/gos_chibios.h"
 1018              		.file 11 "/home/makkmarci/workspace/ugfx/src/gevent/gevent.h"
 1019              		.file 12 "/home/makkmarci/workspace/ChibiOS_2.6.8/os/ports/common/ARMCMx/CMSIS/include/core_cm4.h"