ARM GAS  /tmp/ccuAeAGG.s 			page 1


   1              		.syntax unified
   2              		.cpu cortex-m4
   3              		.eabi_attribute 27, 1
   4              		.eabi_attribute 28, 1
   5              		.fpu fpv4-sp-d16
   6              		.eabi_attribute 20, 1
   7              		.eabi_attribute 21, 1
   8              		.eabi_attribute 23, 3
   9              		.eabi_attribute 24, 1
  10              		.eabi_attribute 25, 1
  11              		.eabi_attribute 26, 1
  12              		.eabi_attribute 30, 6
  13              		.eabi_attribute 34, 1
  14              		.eabi_attribute 18, 4
  15              		.thumb
  16              		.file	"gfile.c"
  17              		.text
  18              	.Ltext0:
  19              		.cfi_sections	.debug_frame
  20              		.section	.data.FsArray,"aw",%progbits
  21              		.align	2
  22              		.type	FsArray, %object
  23              		.size	FsArray, 4
  24              	FsArray:
  25 0000 00000000 		.word	FsROMVMT
  26              		.section	.bss.gfileArr,"aw",%nobits
  27              		.align	2
  28              		.type	gfileArr, %object
  29              		.size	gfileArr, 48
  30              	gfileArr:
  31 0000 00000000 		.space	48
  31      00000000 
  31      00000000 
  31      00000000 
  31      00000000 
  32              		.global	gfileStdIn
  33              		.section	.bss.gfileStdIn,"aw",%nobits
  34              		.align	2
  35              		.type	gfileStdIn, %object
  36              		.size	gfileStdIn, 4
  37              	gfileStdIn:
  38 0000 00000000 		.space	4
  39              		.global	gfileStdOut
  40              		.section	.bss.gfileStdOut,"aw",%nobits
  41              		.align	2
  42              		.type	gfileStdOut, %object
  43              		.size	gfileStdOut, 4
  44              	gfileStdOut:
  45 0000 00000000 		.space	4
  46              		.global	gfileStdErr
  47              		.section	.bss.gfileStdErr,"aw",%nobits
  48              		.align	2
  49              		.type	gfileStdErr, %object
  50              		.size	gfileStdErr, 4
  51              	gfileStdErr:
  52 0000 00000000 		.space	4
  53              		.section	.text._gfileInit,"ax",%progbits
ARM GAS  /tmp/ccuAeAGG.s 			page 2


  54              		.align	2
  55              		.p2align 4,,15
  56              		.global	_gfileInit
  57              		.thumb
  58              		.thumb_func
  59              		.type	_gfileInit, %function
  60              	_gfileInit:
  61              	.LFB111:
  62              		.file 1 "/home/makkmarci/workspace/ugfx/src/gfile/gfile.c"
  63              		.loc 1 63 0
  64              		.cfi_startproc
  65              		@ args = 0, pretend = 0, frame = 0
  66              		@ frame_needed = 0, uses_anonymous_args = 0
  67              		@ link register save eliminated.
  68              		.loc 1 68 0
  69 0000 7047     		bx	lr
  70              		.cfi_endproc
  71              	.LFE111:
  72              		.size	_gfileInit, .-_gfileInit
  73 0002 00BFAFF3 		.section	.text._gfileDeinit,"ax",%progbits
  73      0080AFF3 
  73      0080AFF3 
  73      0080
  74              		.align	2
  75              		.p2align 4,,15
  76              		.global	_gfileDeinit
  77              		.thumb
  78              		.thumb_func
  79              		.type	_gfileDeinit, %function
  80              	_gfileDeinit:
  81              	.LFB112:
  82              		.loc 1 71 0
  83              		.cfi_startproc
  84              		@ args = 0, pretend = 0, frame = 0
  85              		@ frame_needed = 0, uses_anonymous_args = 0
  86              		@ link register save eliminated.
  87              		.loc 1 73 0
  88 0000 7047     		bx	lr
  89              		.cfi_endproc
  90              	.LFE112:
  91              		.size	_gfileDeinit, .-_gfileDeinit
  92 0002 00BFAFF3 		.section	.text._gfileFindSlot,"ax",%progbits
  92      0080AFF3 
  92      0080AFF3 
  92      0080
  93              		.align	2
  94              		.p2align 4,,15
  95              		.global	_gfileFindSlot
  96              		.thumb
  97              		.thumb_func
  98              		.type	_gfileFindSlot, %function
  99              	_gfileFindSlot:
 100              	.LFB113:
 101              		.loc 1 78 0
 102              		.cfi_startproc
 103              		@ args = 0, pretend = 0, frame = 16
 104              		@ frame_needed = 0, uses_anonymous_args = 0
ARM GAS  /tmp/ccuAeAGG.s 			page 3


 105              		@ link register save eliminated.
 106 0000 84B0     		sub	sp, sp, #16
 107              		.cfi_def_cfa_offset 16
 108 0002 0190     		str	r0, [sp, #4]
 109              		.loc 1 82 0
 110 0004 504B     		ldr	r3, .L28
 111 0006 0393     		str	r3, [sp, #12]
 112 0008 95E0     		b	.L4
 113              	.L26:
 114              		.loc 1 83 0
 115 000a 039B     		ldr	r3, [sp, #12]
 116 000c 9B88     		ldrh	r3, [r3, #4]
 117 000e 03F00103 		and	r3, r3, #1
 118 0012 002B     		cmp	r3, #0
 119 0014 40F08C80 		bne	.L5
 120              		.loc 1 85 0
 121 0018 019B     		ldr	r3, [sp, #4]
 122 001a 1B78     		ldrb	r3, [r3]	@ zero_extendqisi2
 123 001c 722B     		cmp	r3, #114
 124 001e 04D0     		beq	.L7
 125 0020 772B     		cmp	r3, #119
 126 0022 26D0     		beq	.L8
 127 0024 612B     		cmp	r3, #97
 128 0026 52D0     		beq	.L9
 129 0028 7EE0     		b	.L27
 130              	.L7:
 131              		.loc 1 87 0
 132 002a 039B     		ldr	r3, [sp, #12]
 133 002c 4FF48172 		mov	r2, #258
 134 0030 9A80     		strh	r2, [r3, #4]	@ movhi
 135              		.loc 1 88 0
 136 0032 16E0     		b	.L10
 137              	.L13:
 138              		.loc 1 89 0
 139 0034 019B     		ldr	r3, [sp, #4]
 140 0036 1B78     		ldrb	r3, [r3]	@ zero_extendqisi2
 141 0038 2B2B     		cmp	r3, #43
 142 003a 02D0     		beq	.L11
 143 003c 622B     		cmp	r3, #98
 144 003e 08D0     		beq	.L12
 145 0040 0FE0     		b	.L10
 146              	.L11:
 147              		.loc 1 90 0
 148 0042 039B     		ldr	r3, [sp, #12]
 149 0044 9B88     		ldrh	r3, [r3, #4]
 150 0046 43F00403 		orr	r3, r3, #4
 151 004a 9AB2     		uxth	r2, r3
 152 004c 039B     		ldr	r3, [sp, #12]
 153 004e 9A80     		strh	r2, [r3, #4]	@ movhi
 154 0050 07E0     		b	.L10
 155              	.L12:
 156              		.loc 1 91 0
 157 0052 039B     		ldr	r3, [sp, #12]
 158 0054 9B88     		ldrh	r3, [r3, #4]
 159 0056 43F01003 		orr	r3, r3, #16
 160 005a 9AB2     		uxth	r2, r3
 161 005c 039B     		ldr	r3, [sp, #12]
ARM GAS  /tmp/ccuAeAGG.s 			page 4


 162 005e 9A80     		strh	r2, [r3, #4]	@ movhi
 163 0060 00BF     		nop
 164              	.L10:
 165              		.loc 1 88 0
 166 0062 019B     		ldr	r3, [sp, #4]
 167 0064 0133     		adds	r3, r3, #1
 168 0066 0193     		str	r3, [sp, #4]
 169 0068 019B     		ldr	r3, [sp, #4]
 170 006a 1B78     		ldrb	r3, [r3]	@ zero_extendqisi2
 171 006c 002B     		cmp	r3, #0
 172 006e E1D1     		bne	.L13
 173              		.loc 1 94 0
 174 0070 5CE0     		b	.L14
 175              	.L8:
 176              		.loc 1 96 0
 177 0072 039B     		ldr	r3, [sp, #12]
 178 0074 40F20442 		movw	r2, #1028
 179 0078 9A80     		strh	r2, [r3, #4]	@ movhi
 180              		.loc 1 97 0
 181 007a 20E0     		b	.L15
 182              	.L19:
 183              		.loc 1 98 0
 184 007c 019B     		ldr	r3, [sp, #4]
 185 007e 1B78     		ldrb	r3, [r3]	@ zero_extendqisi2
 186 0080 622B     		cmp	r3, #98
 187 0082 0CD0     		beq	.L16
 188 0084 782B     		cmp	r3, #120
 189 0086 12D0     		beq	.L17
 190 0088 2B2B     		cmp	r3, #43
 191 008a 00D0     		beq	.L18
 192 008c 17E0     		b	.L15
 193              	.L18:
 194              		.loc 1 99 0
 195 008e 039B     		ldr	r3, [sp, #12]
 196 0090 9B88     		ldrh	r3, [r3, #4]
 197 0092 43F00203 		orr	r3, r3, #2
 198 0096 9AB2     		uxth	r2, r3
 199 0098 039B     		ldr	r3, [sp, #12]
 200 009a 9A80     		strh	r2, [r3, #4]	@ movhi
 201 009c 0FE0     		b	.L15
 202              	.L16:
 203              		.loc 1 100 0
 204 009e 039B     		ldr	r3, [sp, #12]
 205 00a0 9B88     		ldrh	r3, [r3, #4]
 206 00a2 43F01003 		orr	r3, r3, #16
 207 00a6 9AB2     		uxth	r2, r3
 208 00a8 039B     		ldr	r3, [sp, #12]
 209 00aa 9A80     		strh	r2, [r3, #4]	@ movhi
 210 00ac 07E0     		b	.L15
 211              	.L17:
 212              		.loc 1 101 0
 213 00ae 039B     		ldr	r3, [sp, #12]
 214 00b0 9B88     		ldrh	r3, [r3, #4]
 215 00b2 43F40073 		orr	r3, r3, #512
 216 00b6 9AB2     		uxth	r2, r3
 217 00b8 039B     		ldr	r3, [sp, #12]
 218 00ba 9A80     		strh	r2, [r3, #4]	@ movhi
ARM GAS  /tmp/ccuAeAGG.s 			page 5


 219 00bc 00BF     		nop
 220              	.L15:
 221              		.loc 1 97 0
 222 00be 019B     		ldr	r3, [sp, #4]
 223 00c0 0133     		adds	r3, r3, #1
 224 00c2 0193     		str	r3, [sp, #4]
 225 00c4 019B     		ldr	r3, [sp, #4]
 226 00c6 1B78     		ldrb	r3, [r3]	@ zero_extendqisi2
 227 00c8 002B     		cmp	r3, #0
 228 00ca D7D1     		bne	.L19
 229              		.loc 1 104 0
 230 00cc 2EE0     		b	.L14
 231              	.L9:
 232              		.loc 1 106 0
 233 00ce 039B     		ldr	r3, [sp, #12]
 234 00d0 0C22     		movs	r2, #12
 235 00d2 9A80     		strh	r2, [r3, #4]	@ movhi
 236              		.loc 1 107 0
 237 00d4 20E0     		b	.L20
 238              	.L24:
 239              		.loc 1 108 0
 240 00d6 019B     		ldr	r3, [sp, #4]
 241 00d8 1B78     		ldrb	r3, [r3]	@ zero_extendqisi2
 242 00da 622B     		cmp	r3, #98
 243 00dc 0CD0     		beq	.L21
 244 00de 782B     		cmp	r3, #120
 245 00e0 12D0     		beq	.L22
 246 00e2 2B2B     		cmp	r3, #43
 247 00e4 00D0     		beq	.L23
 248 00e6 17E0     		b	.L20
 249              	.L23:
 250              		.loc 1 109 0
 251 00e8 039B     		ldr	r3, [sp, #12]
 252 00ea 9B88     		ldrh	r3, [r3, #4]
 253 00ec 43F00203 		orr	r3, r3, #2
 254 00f0 9AB2     		uxth	r2, r3
 255 00f2 039B     		ldr	r3, [sp, #12]
 256 00f4 9A80     		strh	r2, [r3, #4]	@ movhi
 257 00f6 0FE0     		b	.L20
 258              	.L21:
 259              		.loc 1 110 0
 260 00f8 039B     		ldr	r3, [sp, #12]
 261 00fa 9B88     		ldrh	r3, [r3, #4]
 262 00fc 43F01003 		orr	r3, r3, #16
 263 0100 9AB2     		uxth	r2, r3
 264 0102 039B     		ldr	r3, [sp, #12]
 265 0104 9A80     		strh	r2, [r3, #4]	@ movhi
 266 0106 07E0     		b	.L20
 267              	.L22:
 268              		.loc 1 111 0
 269 0108 039B     		ldr	r3, [sp, #12]
 270 010a 9B88     		ldrh	r3, [r3, #4]
 271 010c 43F40073 		orr	r3, r3, #512
 272 0110 9AB2     		uxth	r2, r3
 273 0112 039B     		ldr	r3, [sp, #12]
 274 0114 9A80     		strh	r2, [r3, #4]	@ movhi
 275 0116 00BF     		nop
ARM GAS  /tmp/ccuAeAGG.s 			page 6


 276              	.L20:
 277              		.loc 1 107 0
 278 0118 019B     		ldr	r3, [sp, #4]
 279 011a 0133     		adds	r3, r3, #1
 280 011c 0193     		str	r3, [sp, #4]
 281 011e 019B     		ldr	r3, [sp, #4]
 282 0120 1B78     		ldrb	r3, [r3]	@ zero_extendqisi2
 283 0122 002B     		cmp	r3, #0
 284 0124 D7D1     		bne	.L24
 285              		.loc 1 114 0
 286 0126 01E0     		b	.L14
 287              	.L27:
 288              		.loc 1 116 0
 289 0128 0023     		movs	r3, #0
 290 012a 0AE0     		b	.L25
 291              	.L14:
 292              		.loc 1 118 0
 293 012c 039B     		ldr	r3, [sp, #12]
 294 012e 08E0     		b	.L25
 295              	.L5:
 296              		.loc 1 82 0 discriminator 2
 297 0130 039B     		ldr	r3, [sp, #12]
 298 0132 1033     		adds	r3, r3, #16
 299 0134 0393     		str	r3, [sp, #12]
 300              	.L4:
 301              		.loc 1 82 0 is_stmt 0 discriminator 1
 302 0136 039B     		ldr	r3, [sp, #12]
 303 0138 044A     		ldr	r2, .L28+4
 304 013a 9342     		cmp	r3, r2
 305 013c FFF465AF 		bcc	.L26
 306              		.loc 1 121 0 is_stmt 1
 307 0140 0023     		movs	r3, #0
 308              	.L25:
 309              		.loc 1 122 0
 310 0142 1846     		mov	r0, r3
 311 0144 04B0     		add	sp, sp, #16
 312              		.cfi_def_cfa_offset 0
 313              		@ sp needed
 314 0146 7047     		bx	lr
 315              	.L29:
 316              		.align	2
 317              	.L28:
 318 0148 00000000 		.word	gfileArr
 319 014c 30000000 		.word	gfileArr+48
 320              		.cfi_endproc
 321              	.LFE113:
 322              		.size	_gfileFindSlot, .-_gfileFindSlot
 323              		.section	.text.gfileExists,"ax",%progbits
 324              		.align	2
 325              		.p2align 4,,15
 326              		.global	gfileExists
 327              		.thumb
 328              		.thumb_func
 329              		.type	gfileExists, %function
 330              	gfileExists:
 331              	.LFB114:
 332              		.loc 1 128 0
ARM GAS  /tmp/ccuAeAGG.s 			page 7


 333              		.cfi_startproc
 334              		@ args = 0, pretend = 0, frame = 16
 335              		@ frame_needed = 0, uses_anonymous_args = 0
 336 0000 00B5     		push	{lr}
 337              		.cfi_def_cfa_offset 4
 338              		.cfi_offset 14, -4
 339 0002 85B0     		sub	sp, sp, #20
 340              		.cfi_def_cfa_offset 24
 341 0004 0190     		str	r0, [sp, #4]
 342              		.loc 1 132 0
 343 0006 019B     		ldr	r3, [sp, #4]
 344 0008 1B78     		ldrb	r3, [r3]	@ zero_extendqisi2
 345 000a 002B     		cmp	r3, #0
 346 000c 2DD0     		beq	.L31
 347              		.loc 1 132 0 is_stmt 0 discriminator 1
 348 000e 019B     		ldr	r3, [sp, #4]
 349 0010 0133     		adds	r3, r3, #1
 350 0012 1B78     		ldrb	r3, [r3]	@ zero_extendqisi2
 351 0014 7C2B     		cmp	r3, #124
 352 0016 28D1     		bne	.L31
 353              		.loc 1 133 0 is_stmt 1
 354 0018 234B     		ldr	r3, .L41
 355 001a 0393     		str	r3, [sp, #12]
 356 001c 1FE0     		b	.L32
 357              	.L37:
 358              		.loc 1 134 0
 359 001e 039B     		ldr	r3, [sp, #12]
 360 0020 1B68     		ldr	r3, [r3]
 361 0022 5A78     		ldrb	r2, [r3, #1]	@ zero_extendqisi2
 362 0024 019B     		ldr	r3, [sp, #4]
 363 0026 1B78     		ldrb	r3, [r3]	@ zero_extendqisi2
 364 0028 9A42     		cmp	r2, r3
 365 002a 15D1     		bne	.L33
 366              		.loc 1 135 0
 367 002c 039B     		ldr	r3, [sp, #12]
 368 002e 1B68     		ldr	r3, [r3]
 369 0030 9B68     		ldr	r3, [r3, #8]
 370 0032 002B     		cmp	r3, #0
 371 0034 0BD0     		beq	.L34
 372              		.loc 1 135 0 is_stmt 0 discriminator 1
 373 0036 039B     		ldr	r3, [sp, #12]
 374 0038 1B68     		ldr	r3, [r3]
 375 003a 9B68     		ldr	r3, [r3, #8]
 376 003c 019A     		ldr	r2, [sp, #4]
 377 003e 0232     		adds	r2, r2, #2
 378 0040 1046     		mov	r0, r2
 379 0042 9847     		blx	r3
 380 0044 0346     		mov	r3, r0
 381 0046 002B     		cmp	r3, #0
 382 0048 01D0     		beq	.L34
 383              		.loc 1 135 0 discriminator 3
 384 004a 0123     		movs	r3, #1
 385 004c 00E0     		b	.L35
 386              	.L34:
 387              		.loc 1 135 0 discriminator 4
 388 004e 0023     		movs	r3, #0
 389              	.L35:
ARM GAS  /tmp/ccuAeAGG.s 			page 8


 390              		.loc 1 135 0 discriminator 6
 391 0050 03F00103 		and	r3, r3, #1
 392 0054 DBB2     		uxtb	r3, r3
 393 0056 22E0     		b	.L36
 394              	.L33:
 395              		.loc 1 133 0 is_stmt 1 discriminator 2
 396 0058 039B     		ldr	r3, [sp, #12]
 397 005a 0433     		adds	r3, r3, #4
 398 005c 0393     		str	r3, [sp, #12]
 399              	.L32:
 400              		.loc 1 133 0 is_stmt 0 discriminator 1
 401 005e 039B     		ldr	r3, [sp, #12]
 402 0060 124A     		ldr	r2, .L41+4
 403 0062 9342     		cmp	r3, r2
 404 0064 DBD3     		bcc	.L37
 405              		.loc 1 137 0 is_stmt 1
 406 0066 0023     		movs	r3, #0
 407 0068 19E0     		b	.L36
 408              	.L31:
 409              		.loc 1 141 0
 410 006a 0F4B     		ldr	r3, .L41
 411 006c 0393     		str	r3, [sp, #12]
 412 006e 11E0     		b	.L38
 413              	.L40:
 414              		.loc 1 142 0
 415 0070 039B     		ldr	r3, [sp, #12]
 416 0072 1B68     		ldr	r3, [r3]
 417 0074 9B68     		ldr	r3, [r3, #8]
 418 0076 002B     		cmp	r3, #0
 419 0078 09D0     		beq	.L39
 420              		.loc 1 142 0 is_stmt 0 discriminator 1
 421 007a 039B     		ldr	r3, [sp, #12]
 422 007c 1B68     		ldr	r3, [r3]
 423 007e 9B68     		ldr	r3, [r3, #8]
 424 0080 0198     		ldr	r0, [sp, #4]
 425 0082 9847     		blx	r3
 426 0084 0346     		mov	r3, r0
 427 0086 002B     		cmp	r3, #0
 428 0088 01D0     		beq	.L39
 429              		.loc 1 143 0 is_stmt 1
 430 008a 0123     		movs	r3, #1
 431 008c 07E0     		b	.L36
 432              	.L39:
 433              		.loc 1 141 0 discriminator 2
 434 008e 039B     		ldr	r3, [sp, #12]
 435 0090 0433     		adds	r3, r3, #4
 436 0092 0393     		str	r3, [sp, #12]
 437              	.L38:
 438              		.loc 1 141 0 is_stmt 0 discriminator 1
 439 0094 039B     		ldr	r3, [sp, #12]
 440 0096 054A     		ldr	r2, .L41+4
 441 0098 9342     		cmp	r3, r2
 442 009a E9D3     		bcc	.L40
 443              		.loc 1 145 0 is_stmt 1
 444 009c 0023     		movs	r3, #0
 445              	.L36:
 446              		.loc 1 146 0
ARM GAS  /tmp/ccuAeAGG.s 			page 9


 447 009e 1846     		mov	r0, r3
 448 00a0 05B0     		add	sp, sp, #20
 449              		.cfi_def_cfa_offset 4
 450              		@ sp needed
 451 00a2 5DF804FB 		ldr	pc, [sp], #4
 452              	.L42:
 453 00a6 00BF     		.align	2
 454              	.L41:
 455 00a8 00000000 		.word	FsArray
 456 00ac 04000000 		.word	FsArray+4
 457              		.cfi_endproc
 458              	.LFE114:
 459              		.size	gfileExists, .-gfileExists
 460              		.section	.text.gfileDelete,"ax",%progbits
 461              		.align	2
 462              		.p2align 4,,15
 463              		.global	gfileDelete
 464              		.thumb
 465              		.thumb_func
 466              		.type	gfileDelete, %function
 467              	gfileDelete:
 468              	.LFB115:
 469              		.loc 1 148 0
 470              		.cfi_startproc
 471              		@ args = 0, pretend = 0, frame = 16
 472              		@ frame_needed = 0, uses_anonymous_args = 0
 473 0000 00B5     		push	{lr}
 474              		.cfi_def_cfa_offset 4
 475              		.cfi_offset 14, -4
 476 0002 85B0     		sub	sp, sp, #20
 477              		.cfi_def_cfa_offset 24
 478 0004 0190     		str	r0, [sp, #4]
 479              		.loc 1 152 0
 480 0006 019B     		ldr	r3, [sp, #4]
 481 0008 1B78     		ldrb	r3, [r3]	@ zero_extendqisi2
 482 000a 002B     		cmp	r3, #0
 483 000c 2DD0     		beq	.L44
 484              		.loc 1 152 0 is_stmt 0 discriminator 1
 485 000e 019B     		ldr	r3, [sp, #4]
 486 0010 0133     		adds	r3, r3, #1
 487 0012 1B78     		ldrb	r3, [r3]	@ zero_extendqisi2
 488 0014 7C2B     		cmp	r3, #124
 489 0016 28D1     		bne	.L44
 490              		.loc 1 153 0 is_stmt 1
 491 0018 234B     		ldr	r3, .L54
 492 001a 0393     		str	r3, [sp, #12]
 493 001c 1FE0     		b	.L45
 494              	.L50:
 495              		.loc 1 154 0
 496 001e 039B     		ldr	r3, [sp, #12]
 497 0020 1B68     		ldr	r3, [r3]
 498 0022 5A78     		ldrb	r2, [r3, #1]	@ zero_extendqisi2
 499 0024 019B     		ldr	r3, [sp, #4]
 500 0026 1B78     		ldrb	r3, [r3]	@ zero_extendqisi2
 501 0028 9A42     		cmp	r2, r3
 502 002a 15D1     		bne	.L46
 503              		.loc 1 155 0
ARM GAS  /tmp/ccuAeAGG.s 			page 10


 504 002c 039B     		ldr	r3, [sp, #12]
 505 002e 1B68     		ldr	r3, [r3]
 506 0030 5B68     		ldr	r3, [r3, #4]
 507 0032 002B     		cmp	r3, #0
 508 0034 0BD0     		beq	.L47
 509              		.loc 1 155 0 is_stmt 0 discriminator 1
 510 0036 039B     		ldr	r3, [sp, #12]
 511 0038 1B68     		ldr	r3, [r3]
 512 003a 5B68     		ldr	r3, [r3, #4]
 513 003c 019A     		ldr	r2, [sp, #4]
 514 003e 0232     		adds	r2, r2, #2
 515 0040 1046     		mov	r0, r2
 516 0042 9847     		blx	r3
 517 0044 0346     		mov	r3, r0
 518 0046 002B     		cmp	r3, #0
 519 0048 01D0     		beq	.L47
 520              		.loc 1 155 0 discriminator 3
 521 004a 0123     		movs	r3, #1
 522 004c 00E0     		b	.L48
 523              	.L47:
 524              		.loc 1 155 0 discriminator 4
 525 004e 0023     		movs	r3, #0
 526              	.L48:
 527              		.loc 1 155 0 discriminator 6
 528 0050 03F00103 		and	r3, r3, #1
 529 0054 DBB2     		uxtb	r3, r3
 530 0056 22E0     		b	.L49
 531              	.L46:
 532              		.loc 1 153 0 is_stmt 1 discriminator 2
 533 0058 039B     		ldr	r3, [sp, #12]
 534 005a 0433     		adds	r3, r3, #4
 535 005c 0393     		str	r3, [sp, #12]
 536              	.L45:
 537              		.loc 1 153 0 is_stmt 0 discriminator 1
 538 005e 039B     		ldr	r3, [sp, #12]
 539 0060 124A     		ldr	r2, .L54+4
 540 0062 9342     		cmp	r3, r2
 541 0064 DBD3     		bcc	.L50
 542              		.loc 1 157 0 is_stmt 1
 543 0066 0023     		movs	r3, #0
 544 0068 19E0     		b	.L49
 545              	.L44:
 546              		.loc 1 161 0
 547 006a 0F4B     		ldr	r3, .L54
 548 006c 0393     		str	r3, [sp, #12]
 549 006e 11E0     		b	.L51
 550              	.L53:
 551              		.loc 1 162 0
 552 0070 039B     		ldr	r3, [sp, #12]
 553 0072 1B68     		ldr	r3, [r3]
 554 0074 5B68     		ldr	r3, [r3, #4]
 555 0076 002B     		cmp	r3, #0
 556 0078 09D0     		beq	.L52
 557              		.loc 1 162 0 is_stmt 0 discriminator 1
 558 007a 039B     		ldr	r3, [sp, #12]
 559 007c 1B68     		ldr	r3, [r3]
 560 007e 5B68     		ldr	r3, [r3, #4]
ARM GAS  /tmp/ccuAeAGG.s 			page 11


 561 0080 0198     		ldr	r0, [sp, #4]
 562 0082 9847     		blx	r3
 563 0084 0346     		mov	r3, r0
 564 0086 002B     		cmp	r3, #0
 565 0088 01D0     		beq	.L52
 566              		.loc 1 163 0 is_stmt 1
 567 008a 0123     		movs	r3, #1
 568 008c 07E0     		b	.L49
 569              	.L52:
 570              		.loc 1 161 0 discriminator 2
 571 008e 039B     		ldr	r3, [sp, #12]
 572 0090 0433     		adds	r3, r3, #4
 573 0092 0393     		str	r3, [sp, #12]
 574              	.L51:
 575              		.loc 1 161 0 is_stmt 0 discriminator 1
 576 0094 039B     		ldr	r3, [sp, #12]
 577 0096 054A     		ldr	r2, .L54+4
 578 0098 9342     		cmp	r3, r2
 579 009a E9D3     		bcc	.L53
 580              		.loc 1 165 0 is_stmt 1
 581 009c 0023     		movs	r3, #0
 582              	.L49:
 583              		.loc 1 166 0
 584 009e 1846     		mov	r0, r3
 585 00a0 05B0     		add	sp, sp, #20
 586              		.cfi_def_cfa_offset 4
 587              		@ sp needed
 588 00a2 5DF804FB 		ldr	pc, [sp], #4
 589              	.L55:
 590 00a6 00BF     		.align	2
 591              	.L54:
 592 00a8 00000000 		.word	FsArray
 593 00ac 04000000 		.word	FsArray+4
 594              		.cfi_endproc
 595              	.LFE115:
 596              		.size	gfileDelete, .-gfileDelete
 597              		.section	.text.gfileGetFilesize,"ax",%progbits
 598              		.align	2
 599              		.p2align 4,,15
 600              		.global	gfileGetFilesize
 601              		.thumb
 602              		.thumb_func
 603              		.type	gfileGetFilesize, %function
 604              	gfileGetFilesize:
 605              	.LFB116:
 606              		.loc 1 168 0
 607              		.cfi_startproc
 608              		@ args = 0, pretend = 0, frame = 16
 609              		@ frame_needed = 0, uses_anonymous_args = 0
 610 0000 00B5     		push	{lr}
 611              		.cfi_def_cfa_offset 4
 612              		.cfi_offset 14, -4
 613 0002 85B0     		sub	sp, sp, #20
 614              		.cfi_def_cfa_offset 24
 615 0004 0190     		str	r0, [sp, #4]
 616              		.loc 1 173 0
 617 0006 019B     		ldr	r3, [sp, #4]
ARM GAS  /tmp/ccuAeAGG.s 			page 12


 618 0008 1B78     		ldrb	r3, [r3]	@ zero_extendqisi2
 619 000a 002B     		cmp	r3, #0
 620 000c 29D0     		beq	.L57
 621              		.loc 1 173 0 is_stmt 0 discriminator 1
 622 000e 019B     		ldr	r3, [sp, #4]
 623 0010 0133     		adds	r3, r3, #1
 624 0012 1B78     		ldrb	r3, [r3]	@ zero_extendqisi2
 625 0014 7C2B     		cmp	r3, #124
 626 0016 24D1     		bne	.L57
 627              		.loc 1 174 0 is_stmt 1
 628 0018 224B     		ldr	r3, .L67
 629 001a 0393     		str	r3, [sp, #12]
 630 001c 1AE0     		b	.L58
 631              	.L63:
 632              		.loc 1 175 0
 633 001e 039B     		ldr	r3, [sp, #12]
 634 0020 1B68     		ldr	r3, [r3]
 635 0022 5A78     		ldrb	r2, [r3, #1]	@ zero_extendqisi2
 636 0024 019B     		ldr	r3, [sp, #4]
 637 0026 1B78     		ldrb	r3, [r3]	@ zero_extendqisi2
 638 0028 9A42     		cmp	r2, r3
 639 002a 10D1     		bne	.L59
 640              		.loc 1 176 0
 641 002c 039B     		ldr	r3, [sp, #12]
 642 002e 1B68     		ldr	r3, [r3]
 643 0030 DB68     		ldr	r3, [r3, #12]
 644 0032 002B     		cmp	r3, #0
 645 0034 08D0     		beq	.L60
 646              		.loc 1 176 0 is_stmt 0 discriminator 1
 647 0036 039B     		ldr	r3, [sp, #12]
 648 0038 1B68     		ldr	r3, [r3]
 649 003a DB68     		ldr	r3, [r3, #12]
 650 003c 019A     		ldr	r2, [sp, #4]
 651 003e 0232     		adds	r2, r2, #2
 652 0040 1046     		mov	r0, r2
 653 0042 9847     		blx	r3
 654 0044 0346     		mov	r3, r0
 655 0046 29E0     		b	.L62
 656              	.L60:
 657              		.loc 1 176 0 discriminator 2
 658 0048 4FF0FF33 		mov	r3, #-1
 659 004c 26E0     		b	.L62
 660              	.L59:
 661              		.loc 1 174 0 is_stmt 1 discriminator 2
 662 004e 039B     		ldr	r3, [sp, #12]
 663 0050 0433     		adds	r3, r3, #4
 664 0052 0393     		str	r3, [sp, #12]
 665              	.L58:
 666              		.loc 1 174 0 is_stmt 0 discriminator 1
 667 0054 039B     		ldr	r3, [sp, #12]
 668 0056 144A     		ldr	r2, .L67+4
 669 0058 9342     		cmp	r3, r2
 670 005a E0D3     		bcc	.L63
 671              		.loc 1 178 0 is_stmt 1
 672 005c 4FF0FF33 		mov	r3, #-1
 673 0060 1CE0     		b	.L62
 674              	.L57:
ARM GAS  /tmp/ccuAeAGG.s 			page 13


 675              		.loc 1 182 0
 676 0062 104B     		ldr	r3, .L67
 677 0064 0393     		str	r3, [sp, #12]
 678 0066 13E0     		b	.L64
 679              	.L66:
 680              		.loc 1 183 0
 681 0068 039B     		ldr	r3, [sp, #12]
 682 006a 1B68     		ldr	r3, [r3]
 683 006c DB68     		ldr	r3, [r3, #12]
 684 006e 002B     		cmp	r3, #0
 685 0070 0BD0     		beq	.L65
 686              		.loc 1 183 0 is_stmt 0 discriminator 1
 687 0072 039B     		ldr	r3, [sp, #12]
 688 0074 1B68     		ldr	r3, [r3]
 689 0076 DB68     		ldr	r3, [r3, #12]
 690 0078 0198     		ldr	r0, [sp, #4]
 691 007a 9847     		blx	r3
 692 007c 0290     		str	r0, [sp, #8]
 693 007e 029B     		ldr	r3, [sp, #8]
 694 0080 B3F1FF3F 		cmp	r3, #-1
 695 0084 01D0     		beq	.L65
 696              		.loc 1 184 0 is_stmt 1
 697 0086 029B     		ldr	r3, [sp, #8]
 698 0088 08E0     		b	.L62
 699              	.L65:
 700              		.loc 1 182 0 discriminator 2
 701 008a 039B     		ldr	r3, [sp, #12]
 702 008c 0433     		adds	r3, r3, #4
 703 008e 0393     		str	r3, [sp, #12]
 704              	.L64:
 705              		.loc 1 182 0 is_stmt 0 discriminator 1
 706 0090 039B     		ldr	r3, [sp, #12]
 707 0092 054A     		ldr	r2, .L67+4
 708 0094 9342     		cmp	r3, r2
 709 0096 E7D3     		bcc	.L66
 710              		.loc 1 186 0 is_stmt 1
 711 0098 4FF0FF33 		mov	r3, #-1
 712              	.L62:
 713              		.loc 1 187 0
 714 009c 1846     		mov	r0, r3
 715 009e 05B0     		add	sp, sp, #20
 716              		.cfi_def_cfa_offset 4
 717              		@ sp needed
 718 00a0 5DF804FB 		ldr	pc, [sp], #4
 719              	.L68:
 720              		.align	2
 721              	.L67:
 722 00a4 00000000 		.word	FsArray
 723 00a8 04000000 		.word	FsArray+4
 724              		.cfi_endproc
 725              	.LFE116:
 726              		.size	gfileGetFilesize, .-gfileGetFilesize
 727 00ac AFF30080 		.section	.text.gfileRename,"ax",%progbits
 728              		.align	2
 729              		.p2align 4,,15
 730              		.global	gfileRename
 731              		.thumb
ARM GAS  /tmp/ccuAeAGG.s 			page 14


 732              		.thumb_func
 733              		.type	gfileRename, %function
 734              	gfileRename:
 735              	.LFB117:
 736              		.loc 1 189 0
 737              		.cfi_startproc
 738              		@ args = 0, pretend = 0, frame = 16
 739              		@ frame_needed = 0, uses_anonymous_args = 0
 740 0000 00B5     		push	{lr}
 741              		.cfi_def_cfa_offset 4
 742              		.cfi_offset 14, -4
 743 0002 85B0     		sub	sp, sp, #20
 744              		.cfi_def_cfa_offset 24
 745 0004 0190     		str	r0, [sp, #4]
 746 0006 0091     		str	r1, [sp]
 747              		.loc 1 193 0
 748 0008 019B     		ldr	r3, [sp, #4]
 749 000a 1B78     		ldrb	r3, [r3]	@ zero_extendqisi2
 750 000c 002B     		cmp	r3, #0
 751 000e 04D0     		beq	.L70
 752              		.loc 1 193 0 is_stmt 0 discriminator 1
 753 0010 019B     		ldr	r3, [sp, #4]
 754 0012 0133     		adds	r3, r3, #1
 755 0014 1B78     		ldrb	r3, [r3]	@ zero_extendqisi2
 756 0016 7C2B     		cmp	r3, #124
 757 0018 08D0     		beq	.L71
 758              	.L70:
 759              		.loc 1 193 0 discriminator 3
 760 001a 009B     		ldr	r3, [sp]
 761 001c 1B78     		ldrb	r3, [r3]	@ zero_extendqisi2
 762 001e 002B     		cmp	r3, #0
 763 0020 59D0     		beq	.L72
 764              		.loc 1 193 0 discriminator 4
 765 0022 009B     		ldr	r3, [sp]
 766 0024 0133     		adds	r3, r3, #1
 767 0026 1B78     		ldrb	r3, [r3]	@ zero_extendqisi2
 768 0028 7C2B     		cmp	r3, #124
 769 002a 54D1     		bne	.L72
 770              	.L71:
 771              	.LBB2:
 772              		.loc 1 196 0 is_stmt 1
 773 002c 019B     		ldr	r3, [sp, #4]
 774 002e 1B78     		ldrb	r3, [r3]	@ zero_extendqisi2
 775 0030 002B     		cmp	r3, #0
 776 0032 21D0     		beq	.L73
 777              		.loc 1 196 0 is_stmt 0 discriminator 1
 778 0034 019B     		ldr	r3, [sp, #4]
 779 0036 0133     		adds	r3, r3, #1
 780 0038 1B78     		ldrb	r3, [r3]	@ zero_extendqisi2
 781 003a 7C2B     		cmp	r3, #124
 782 003c 1CD1     		bne	.L73
 783              		.loc 1 197 0 is_stmt 1
 784 003e 019B     		ldr	r3, [sp, #4]
 785 0040 1B78     		ldrb	r3, [r3]
 786 0042 8DF80B30 		strb	r3, [sp, #11]
 787              		.loc 1 198 0
 788 0046 019B     		ldr	r3, [sp, #4]
ARM GAS  /tmp/ccuAeAGG.s 			page 15


 789 0048 0233     		adds	r3, r3, #2
 790 004a 0193     		str	r3, [sp, #4]
 791              		.loc 1 199 0
 792 004c 009B     		ldr	r3, [sp]
 793 004e 1B78     		ldrb	r3, [r3]	@ zero_extendqisi2
 794 0050 002B     		cmp	r3, #0
 795 0052 10D0     		beq	.L74
 796              		.loc 1 199 0 is_stmt 0 discriminator 1
 797 0054 009B     		ldr	r3, [sp]
 798 0056 0133     		adds	r3, r3, #1
 799 0058 1B78     		ldrb	r3, [r3]	@ zero_extendqisi2
 800 005a 7C2B     		cmp	r3, #124
 801 005c 0BD1     		bne	.L74
 802              		.loc 1 200 0 is_stmt 1
 803 005e 009B     		ldr	r3, [sp]
 804 0060 1B78     		ldrb	r3, [r3]	@ zero_extendqisi2
 805 0062 9DF80B20 		ldrb	r2, [sp, #11]	@ zero_extendqisi2
 806 0066 9A42     		cmp	r2, r3
 807 0068 01D0     		beq	.L75
 808              		.loc 1 202 0
 809 006a 0023     		movs	r3, #0
 810 006c 4EE0     		b	.L76
 811              	.L75:
 812              		.loc 1 203 0
 813 006e 009B     		ldr	r3, [sp]
 814 0070 0233     		adds	r3, r3, #2
 815 0072 0093     		str	r3, [sp]
 816              		.loc 1 199 0
 817 0074 07E0     		b	.L77
 818              	.L74:
 819 0076 06E0     		b	.L77
 820              	.L73:
 821              		.loc 1 206 0
 822 0078 009B     		ldr	r3, [sp]
 823 007a 1B78     		ldrb	r3, [r3]
 824 007c 8DF80B30 		strb	r3, [sp, #11]
 825              		.loc 1 207 0
 826 0080 009B     		ldr	r3, [sp]
 827 0082 0233     		adds	r3, r3, #2
 828 0084 0093     		str	r3, [sp]
 829              	.L77:
 830              		.loc 1 209 0
 831 0086 234B     		ldr	r3, .L86
 832 0088 0393     		str	r3, [sp, #12]
 833 008a 1EE0     		b	.L78
 834              	.L82:
 835              		.loc 1 210 0
 836 008c 039B     		ldr	r3, [sp, #12]
 837 008e 1B68     		ldr	r3, [r3]
 838 0090 5B78     		ldrb	r3, [r3, #1]	@ zero_extendqisi2
 839 0092 9DF80B20 		ldrb	r2, [sp, #11]	@ zero_extendqisi2
 840 0096 9A42     		cmp	r2, r3
 841 0098 14D1     		bne	.L79
 842              		.loc 1 211 0
 843 009a 039B     		ldr	r3, [sp, #12]
 844 009c 1B68     		ldr	r3, [r3]
 845 009e 1B69     		ldr	r3, [r3, #16]
ARM GAS  /tmp/ccuAeAGG.s 			page 16


 846 00a0 002B     		cmp	r3, #0
 847 00a2 0AD0     		beq	.L80
 848              		.loc 1 211 0 is_stmt 0 discriminator 1
 849 00a4 039B     		ldr	r3, [sp, #12]
 850 00a6 1B68     		ldr	r3, [r3]
 851 00a8 1B69     		ldr	r3, [r3, #16]
 852 00aa 0198     		ldr	r0, [sp, #4]
 853 00ac 0099     		ldr	r1, [sp]
 854 00ae 9847     		blx	r3
 855 00b0 0346     		mov	r3, r0
 856 00b2 002B     		cmp	r3, #0
 857 00b4 01D0     		beq	.L80
 858              		.loc 1 211 0 discriminator 3
 859 00b6 0123     		movs	r3, #1
 860 00b8 00E0     		b	.L81
 861              	.L80:
 862              		.loc 1 211 0 discriminator 4
 863 00ba 0023     		movs	r3, #0
 864              	.L81:
 865              		.loc 1 211 0 discriminator 6
 866 00bc 03F00103 		and	r3, r3, #1
 867 00c0 DBB2     		uxtb	r3, r3
 868 00c2 23E0     		b	.L76
 869              	.L79:
 870              		.loc 1 209 0 is_stmt 1 discriminator 2
 871 00c4 039B     		ldr	r3, [sp, #12]
 872 00c6 0433     		adds	r3, r3, #4
 873 00c8 0393     		str	r3, [sp, #12]
 874              	.L78:
 875              		.loc 1 209 0 is_stmt 0 discriminator 1
 876 00ca 039B     		ldr	r3, [sp, #12]
 877 00cc 124A     		ldr	r2, .L86+4
 878 00ce 9342     		cmp	r3, r2
 879 00d0 DCD3     		bcc	.L82
 880              		.loc 1 213 0 is_stmt 1
 881 00d2 0023     		movs	r3, #0
 882 00d4 1AE0     		b	.L76
 883              	.L72:
 884              	.LBE2:
 885              		.loc 1 217 0
 886 00d6 0F4B     		ldr	r3, .L86
 887 00d8 0393     		str	r3, [sp, #12]
 888 00da 12E0     		b	.L83
 889              	.L85:
 890              		.loc 1 218 0
 891 00dc 039B     		ldr	r3, [sp, #12]
 892 00de 1B68     		ldr	r3, [r3]
 893 00e0 1B69     		ldr	r3, [r3, #16]
 894 00e2 002B     		cmp	r3, #0
 895 00e4 0AD0     		beq	.L84
 896              		.loc 1 218 0 is_stmt 0 discriminator 1
 897 00e6 039B     		ldr	r3, [sp, #12]
 898 00e8 1B68     		ldr	r3, [r3]
 899 00ea 1B69     		ldr	r3, [r3, #16]
 900 00ec 0198     		ldr	r0, [sp, #4]
 901 00ee 0099     		ldr	r1, [sp]
 902 00f0 9847     		blx	r3
ARM GAS  /tmp/ccuAeAGG.s 			page 17


 903 00f2 0346     		mov	r3, r0
 904 00f4 002B     		cmp	r3, #0
 905 00f6 01D0     		beq	.L84
 906              		.loc 1 219 0 is_stmt 1
 907 00f8 0123     		movs	r3, #1
 908 00fa 07E0     		b	.L76
 909              	.L84:
 910              		.loc 1 217 0 discriminator 2
 911 00fc 039B     		ldr	r3, [sp, #12]
 912 00fe 0433     		adds	r3, r3, #4
 913 0100 0393     		str	r3, [sp, #12]
 914              	.L83:
 915              		.loc 1 217 0 is_stmt 0 discriminator 1
 916 0102 039B     		ldr	r3, [sp, #12]
 917 0104 044A     		ldr	r2, .L86+4
 918 0106 9342     		cmp	r3, r2
 919 0108 E8D3     		bcc	.L85
 920              		.loc 1 221 0 is_stmt 1
 921 010a 0023     		movs	r3, #0
 922              	.L76:
 923              		.loc 1 222 0
 924 010c 1846     		mov	r0, r3
 925 010e 05B0     		add	sp, sp, #20
 926              		.cfi_def_cfa_offset 4
 927              		@ sp needed
 928 0110 5DF804FB 		ldr	pc, [sp], #4
 929              	.L87:
 930              		.align	2
 931              	.L86:
 932 0114 00000000 		.word	FsArray
 933 0118 04000000 		.word	FsArray+4
 934              		.cfi_endproc
 935              	.LFE117:
 936              		.size	gfileRename, .-gfileRename
 937 011c AFF30080 		.section	.text.testopen,"ax",%progbits
 938              		.align	2
 939              		.p2align 4,,15
 940              		.thumb
 941              		.thumb_func
 942              		.type	testopen, %function
 943              	testopen:
 944              	.LFB118:
 945              		.loc 1 224 0
 946              		.cfi_startproc
 947              		@ args = 0, pretend = 0, frame = 16
 948              		@ frame_needed = 0, uses_anonymous_args = 0
 949 0000 00B5     		push	{lr}
 950              		.cfi_def_cfa_offset 4
 951              		.cfi_offset 14, -4
 952 0002 85B0     		sub	sp, sp, #20
 953              		.cfi_def_cfa_offset 24
 954 0004 0390     		str	r0, [sp, #12]
 955 0006 0291     		str	r1, [sp, #8]
 956 0008 0192     		str	r2, [sp, #4]
 957              		.loc 1 226 0
 958 000a 029B     		ldr	r3, [sp, #8]
 959 000c 9B88     		ldrh	r3, [r3, #4]
ARM GAS  /tmp/ccuAeAGG.s 			page 18


 960 000e 03F00403 		and	r3, r3, #4
 961 0012 002B     		cmp	r3, #0
 962 0014 07D0     		beq	.L89
 963              		.loc 1 226 0 is_stmt 0 discriminator 1
 964 0016 039B     		ldr	r3, [sp, #12]
 965 0018 1B78     		ldrb	r3, [r3]	@ zero_extendqisi2
 966 001a 03F00103 		and	r3, r3, #1
 967 001e 002B     		cmp	r3, #0
 968 0020 01D1     		bne	.L89
 969              		.loc 1 227 0 is_stmt 1
 970 0022 0023     		movs	r3, #0
 971 0024 2BE0     		b	.L90
 972              	.L89:
 973              		.loc 1 230 0
 974 0026 039B     		ldr	r3, [sp, #12]
 975 0028 5B69     		ldr	r3, [r3, #20]
 976 002a 002B     		cmp	r3, #0
 977 002c 0AD0     		beq	.L91
 978              		.loc 1 230 0 is_stmt 0 discriminator 1
 979 002e 039B     		ldr	r3, [sp, #12]
 980 0030 5B69     		ldr	r3, [r3, #20]
 981 0032 0298     		ldr	r0, [sp, #8]
 982 0034 0199     		ldr	r1, [sp, #4]
 983 0036 9847     		blx	r3
 984 0038 0346     		mov	r3, r0
 985 003a 83F00103 		eor	r3, r3, #1
 986 003e DBB2     		uxtb	r3, r3
 987 0040 002B     		cmp	r3, #0
 988 0042 01D0     		beq	.L92
 989              	.L91:
 990              		.loc 1 231 0 is_stmt 1
 991 0044 0023     		movs	r3, #0
 992 0046 1AE0     		b	.L90
 993              	.L92:
 994              		.loc 1 234 0
 995 0048 029B     		ldr	r3, [sp, #8]
 996 004a 039A     		ldr	r2, [sp, #12]
 997 004c 1A60     		str	r2, [r3]
 998              		.loc 1 235 0
 999 004e 029B     		ldr	r3, [sp, #8]
 1000 0050 0022     		movs	r2, #0
 1001 0052 DA60     		str	r2, [r3, #12]
 1002              		.loc 1 236 0
 1003 0054 029B     		ldr	r3, [sp, #8]
 1004 0056 9B88     		ldrh	r3, [r3, #4]
 1005 0058 43F00103 		orr	r3, r3, #1
 1006 005c 9AB2     		uxth	r2, r3
 1007 005e 029B     		ldr	r3, [sp, #8]
 1008 0060 9A80     		strh	r2, [r3, #4]	@ movhi
 1009              		.loc 1 237 0
 1010 0062 039B     		ldr	r3, [sp, #12]
 1011 0064 1B78     		ldrb	r3, [r3]	@ zero_extendqisi2
 1012 0066 03F00403 		and	r3, r3, #4
 1013 006a 002B     		cmp	r3, #0
 1014 006c 06D0     		beq	.L93
 1015              		.loc 1 238 0
 1016 006e 029B     		ldr	r3, [sp, #8]
ARM GAS  /tmp/ccuAeAGG.s 			page 19


 1017 0070 9B88     		ldrh	r3, [r3, #4]
 1018 0072 43F04003 		orr	r3, r3, #64
 1019 0076 9AB2     		uxth	r2, r3
 1020 0078 029B     		ldr	r3, [sp, #8]
 1021 007a 9A80     		strh	r2, [r3, #4]	@ movhi
 1022              	.L93:
 1023              		.loc 1 239 0
 1024 007c 0123     		movs	r3, #1
 1025              	.L90:
 1026              		.loc 1 240 0
 1027 007e 1846     		mov	r0, r3
 1028 0080 05B0     		add	sp, sp, #20
 1029              		.cfi_def_cfa_offset 4
 1030              		@ sp needed
 1031 0082 5DF804FB 		ldr	pc, [sp], #4
 1032              		.cfi_endproc
 1033              	.LFE118:
 1034              		.size	testopen, .-testopen
 1035 0086 00BFAFF3 		.section	.text.gfileOpen,"ax",%progbits
 1035      0080AFF3 
 1035      0080
 1036              		.align	2
 1037              		.p2align 4,,15
 1038              		.global	gfileOpen
 1039              		.thumb
 1040              		.thumb_func
 1041              		.type	gfileOpen, %function
 1042              	gfileOpen:
 1043              	.LFB119:
 1044              		.loc 1 242 0
 1045              		.cfi_startproc
 1046              		@ args = 0, pretend = 0, frame = 16
 1047              		@ frame_needed = 0, uses_anonymous_args = 0
 1048 0000 00B5     		push	{lr}
 1049              		.cfi_def_cfa_offset 4
 1050              		.cfi_offset 14, -4
 1051 0002 85B0     		sub	sp, sp, #20
 1052              		.cfi_def_cfa_offset 24
 1053 0004 0190     		str	r0, [sp, #4]
 1054 0006 0091     		str	r1, [sp]
 1055              		.loc 1 247 0
 1056 0008 0098     		ldr	r0, [sp]
 1057 000a FFF7FEFF 		bl	_gfileFindSlot
 1058 000e 0290     		str	r0, [sp, #8]
 1059 0010 029B     		ldr	r3, [sp, #8]
 1060 0012 002B     		cmp	r3, #0
 1061 0014 01D1     		bne	.L95
 1062              		.loc 1 248 0
 1063 0016 0023     		movs	r3, #0
 1064 0018 42E0     		b	.L96
 1065              	.L95:
 1066              		.loc 1 251 0
 1067 001a 019B     		ldr	r3, [sp, #4]
 1068 001c 1B78     		ldrb	r3, [r3]	@ zero_extendqisi2
 1069 001e 002B     		cmp	r3, #0
 1070 0020 27D0     		beq	.L97
 1071              		.loc 1 251 0 is_stmt 0 discriminator 1
ARM GAS  /tmp/ccuAeAGG.s 			page 20


 1072 0022 019B     		ldr	r3, [sp, #4]
 1073 0024 0133     		adds	r3, r3, #1
 1074 0026 1B78     		ldrb	r3, [r3]	@ zero_extendqisi2
 1075 0028 7C2B     		cmp	r3, #124
 1076 002a 22D1     		bne	.L97
 1077              		.loc 1 252 0 is_stmt 1
 1078 002c 1E4B     		ldr	r3, .L106
 1079 002e 0393     		str	r3, [sp, #12]
 1080 0030 19E0     		b	.L98
 1081              	.L102:
 1082              		.loc 1 253 0
 1083 0032 039B     		ldr	r3, [sp, #12]
 1084 0034 1B68     		ldr	r3, [r3]
 1085 0036 5A78     		ldrb	r2, [r3, #1]	@ zero_extendqisi2
 1086 0038 019B     		ldr	r3, [sp, #4]
 1087 003a 1B78     		ldrb	r3, [r3]	@ zero_extendqisi2
 1088 003c 9A42     		cmp	r2, r3
 1089 003e 0FD1     		bne	.L99
 1090              		.loc 1 254 0
 1091 0040 039B     		ldr	r3, [sp, #12]
 1092 0042 1A68     		ldr	r2, [r3]
 1093 0044 019B     		ldr	r3, [sp, #4]
 1094 0046 0233     		adds	r3, r3, #2
 1095 0048 1046     		mov	r0, r2
 1096 004a 0299     		ldr	r1, [sp, #8]
 1097 004c 1A46     		mov	r2, r3
 1098 004e FFF7FEFF 		bl	testopen
 1099 0052 0346     		mov	r3, r0
 1100 0054 002B     		cmp	r3, #0
 1101 0056 01D0     		beq	.L100
 1102              		.loc 1 254 0 is_stmt 0 discriminator 1
 1103 0058 029B     		ldr	r3, [sp, #8]
 1104 005a 21E0     		b	.L96
 1105              	.L100:
 1106              		.loc 1 254 0 discriminator 2
 1107 005c 0023     		movs	r3, #0
 1108 005e 1FE0     		b	.L96
 1109              	.L99:
 1110              		.loc 1 252 0 is_stmt 1 discriminator 2
 1111 0060 039B     		ldr	r3, [sp, #12]
 1112 0062 0433     		adds	r3, r3, #4
 1113 0064 0393     		str	r3, [sp, #12]
 1114              	.L98:
 1115              		.loc 1 252 0 is_stmt 0 discriminator 1
 1116 0066 039B     		ldr	r3, [sp, #12]
 1117 0068 104A     		ldr	r2, .L106+4
 1118 006a 9342     		cmp	r3, r2
 1119 006c E1D3     		bcc	.L102
 1120              		.loc 1 258 0 is_stmt 1
 1121 006e 0023     		movs	r3, #0
 1122 0070 16E0     		b	.L96
 1123              	.L97:
 1124              		.loc 1 262 0
 1125 0072 0D4B     		ldr	r3, .L106
 1126 0074 0393     		str	r3, [sp, #12]
 1127 0076 0EE0     		b	.L103
 1128              	.L105:
ARM GAS  /tmp/ccuAeAGG.s 			page 21


 1129              		.loc 1 263 0
 1130 0078 039B     		ldr	r3, [sp, #12]
 1131 007a 1B68     		ldr	r3, [r3]
 1132 007c 1846     		mov	r0, r3
 1133 007e 0299     		ldr	r1, [sp, #8]
 1134 0080 019A     		ldr	r2, [sp, #4]
 1135 0082 FFF7FEFF 		bl	testopen
 1136 0086 0346     		mov	r3, r0
 1137 0088 002B     		cmp	r3, #0
 1138 008a 01D0     		beq	.L104
 1139              		.loc 1 264 0
 1140 008c 029B     		ldr	r3, [sp, #8]
 1141 008e 07E0     		b	.L96
 1142              	.L104:
 1143              		.loc 1 262 0 discriminator 2
 1144 0090 039B     		ldr	r3, [sp, #12]
 1145 0092 0433     		adds	r3, r3, #4
 1146 0094 0393     		str	r3, [sp, #12]
 1147              	.L103:
 1148              		.loc 1 262 0 is_stmt 0 discriminator 1
 1149 0096 039B     		ldr	r3, [sp, #12]
 1150 0098 044A     		ldr	r2, .L106+4
 1151 009a 9342     		cmp	r3, r2
 1152 009c ECD3     		bcc	.L105
 1153              		.loc 1 268 0 is_stmt 1
 1154 009e 0023     		movs	r3, #0
 1155              	.L96:
 1156              		.loc 1 269 0
 1157 00a0 1846     		mov	r0, r3
 1158 00a2 05B0     		add	sp, sp, #20
 1159              		.cfi_def_cfa_offset 4
 1160              		@ sp needed
 1161 00a4 5DF804FB 		ldr	pc, [sp], #4
 1162              	.L107:
 1163              		.align	2
 1164              	.L106:
 1165 00a8 00000000 		.word	FsArray
 1166 00ac 04000000 		.word	FsArray+4
 1167              		.cfi_endproc
 1168              	.LFE119:
 1169              		.size	gfileOpen, .-gfileOpen
 1170              		.section	.text.gfileClose,"ax",%progbits
 1171              		.align	2
 1172              		.p2align 4,,15
 1173              		.global	gfileClose
 1174              		.thumb
 1175              		.thumb_func
 1176              		.type	gfileClose, %function
 1177              	gfileClose:
 1178              	.LFB120:
 1179              		.loc 1 271 0
 1180              		.cfi_startproc
 1181              		@ args = 0, pretend = 0, frame = 8
 1182              		@ frame_needed = 0, uses_anonymous_args = 0
 1183 0000 00B5     		push	{lr}
 1184              		.cfi_def_cfa_offset 4
 1185              		.cfi_offset 14, -4
ARM GAS  /tmp/ccuAeAGG.s 			page 22


 1186 0002 83B0     		sub	sp, sp, #12
 1187              		.cfi_def_cfa_offset 16
 1188 0004 0190     		str	r0, [sp, #4]
 1189              		.loc 1 272 0
 1190 0006 019B     		ldr	r3, [sp, #4]
 1191 0008 002B     		cmp	r3, #0
 1192 000a 05D0     		beq	.L109
 1193              		.loc 1 272 0 is_stmt 0 discriminator 1
 1194 000c 019B     		ldr	r3, [sp, #4]
 1195 000e 9B88     		ldrh	r3, [r3, #4]
 1196 0010 03F00103 		and	r3, r3, #1
 1197 0014 002B     		cmp	r3, #0
 1198 0016 00D1     		bne	.L110
 1199              	.L109:
 1200              		.loc 1 273 0 is_stmt 1
 1201 0018 0CE0     		b	.L108
 1202              	.L110:
 1203              		.loc 1 274 0
 1204 001a 019B     		ldr	r3, [sp, #4]
 1205 001c 1B68     		ldr	r3, [r3]
 1206 001e 9B69     		ldr	r3, [r3, #24]
 1207 0020 002B     		cmp	r3, #0
 1208 0022 04D0     		beq	.L112
 1209              		.loc 1 275 0
 1210 0024 019B     		ldr	r3, [sp, #4]
 1211 0026 1B68     		ldr	r3, [r3]
 1212 0028 9B69     		ldr	r3, [r3, #24]
 1213 002a 0198     		ldr	r0, [sp, #4]
 1214 002c 9847     		blx	r3
 1215              	.L112:
 1216              		.loc 1 276 0
 1217 002e 019B     		ldr	r3, [sp, #4]
 1218 0030 0022     		movs	r2, #0
 1219 0032 9A80     		strh	r2, [r3, #4]	@ movhi
 1220              	.L108:
 1221              		.loc 1 277 0
 1222 0034 03B0     		add	sp, sp, #12
 1223              		.cfi_def_cfa_offset 4
 1224              		@ sp needed
 1225 0036 5DF804FB 		ldr	pc, [sp], #4
 1226              		.cfi_endproc
 1227              	.LFE120:
 1228              		.size	gfileClose, .-gfileClose
 1229 003a 00BFAFF3 		.section	.text.gfileRead,"ax",%progbits
 1229      0080
 1230              		.align	2
 1231              		.p2align 4,,15
 1232              		.global	gfileRead
 1233              		.thumb
 1234              		.thumb_func
 1235              		.type	gfileRead, %function
 1236              	gfileRead:
 1237              	.LFB121:
 1238              		.loc 1 279 0
 1239              		.cfi_startproc
 1240              		@ args = 0, pretend = 0, frame = 24
 1241              		@ frame_needed = 0, uses_anonymous_args = 0
ARM GAS  /tmp/ccuAeAGG.s 			page 23


 1242 0000 00B5     		push	{lr}
 1243              		.cfi_def_cfa_offset 4
 1244              		.cfi_offset 14, -4
 1245 0002 87B0     		sub	sp, sp, #28
 1246              		.cfi_def_cfa_offset 32
 1247 0004 0390     		str	r0, [sp, #12]
 1248 0006 0291     		str	r1, [sp, #8]
 1249 0008 0192     		str	r2, [sp, #4]
 1250              		.loc 1 282 0
 1251 000a 039B     		ldr	r3, [sp, #12]
 1252 000c 002B     		cmp	r3, #0
 1253 000e 05D0     		beq	.L114
 1254              		.loc 1 282 0 is_stmt 0 discriminator 1
 1255 0010 039B     		ldr	r3, [sp, #12]
 1256 0012 9B88     		ldrh	r3, [r3, #4]
 1257 0014 03F00303 		and	r3, r3, #3
 1258 0018 032B     		cmp	r3, #3
 1259 001a 01D0     		beq	.L115
 1260              	.L114:
 1261              		.loc 1 283 0 is_stmt 1
 1262 001c 0023     		movs	r3, #0
 1263 001e 1DE0     		b	.L116
 1264              	.L115:
 1265              		.loc 1 284 0
 1266 0020 039B     		ldr	r3, [sp, #12]
 1267 0022 1B68     		ldr	r3, [r3]
 1268 0024 DB69     		ldr	r3, [r3, #28]
 1269 0026 002B     		cmp	r3, #0
 1270 0028 01D1     		bne	.L117
 1271              		.loc 1 285 0
 1272 002a 0023     		movs	r3, #0
 1273 002c 16E0     		b	.L116
 1274              	.L117:
 1275              		.loc 1 286 0
 1276 002e 039B     		ldr	r3, [sp, #12]
 1277 0030 1B68     		ldr	r3, [r3]
 1278 0032 DB69     		ldr	r3, [r3, #28]
 1279 0034 019A     		ldr	r2, [sp, #4]
 1280 0036 0398     		ldr	r0, [sp, #12]
 1281 0038 0299     		ldr	r1, [sp, #8]
 1282 003a 9847     		blx	r3
 1283 003c 0346     		mov	r3, r0
 1284 003e 0593     		str	r3, [sp, #20]
 1285 0040 059B     		ldr	r3, [sp, #20]
 1286 0042 002B     		cmp	r3, #0
 1287 0044 01D1     		bne	.L118
 1288              		.loc 1 287 0
 1289 0046 0023     		movs	r3, #0
 1290 0048 08E0     		b	.L116
 1291              	.L118:
 1292              		.loc 1 288 0
 1293 004a 039B     		ldr	r3, [sp, #12]
 1294 004c DB68     		ldr	r3, [r3, #12]
 1295 004e 1A46     		mov	r2, r3
 1296 0050 059B     		ldr	r3, [sp, #20]
 1297 0052 1344     		add	r3, r3, r2
 1298 0054 1A46     		mov	r2, r3
ARM GAS  /tmp/ccuAeAGG.s 			page 24


 1299 0056 039B     		ldr	r3, [sp, #12]
 1300 0058 DA60     		str	r2, [r3, #12]
 1301              		.loc 1 289 0
 1302 005a 059B     		ldr	r3, [sp, #20]
 1303              	.L116:
 1304              		.loc 1 290 0
 1305 005c 1846     		mov	r0, r3
 1306 005e 07B0     		add	sp, sp, #28
 1307              		.cfi_def_cfa_offset 4
 1308              		@ sp needed
 1309 0060 5DF804FB 		ldr	pc, [sp], #4
 1310              		.cfi_endproc
 1311              	.LFE121:
 1312              		.size	gfileRead, .-gfileRead
 1313 0064 AFF30080 		.section	.text.gfileWrite,"ax",%progbits
 1313      AFF30080 
 1313      AFF30080 
 1314              		.align	2
 1315              		.p2align 4,,15
 1316              		.global	gfileWrite
 1317              		.thumb
 1318              		.thumb_func
 1319              		.type	gfileWrite, %function
 1320              	gfileWrite:
 1321              	.LFB122:
 1322              		.loc 1 292 0
 1323              		.cfi_startproc
 1324              		@ args = 0, pretend = 0, frame = 24
 1325              		@ frame_needed = 0, uses_anonymous_args = 0
 1326 0000 00B5     		push	{lr}
 1327              		.cfi_def_cfa_offset 4
 1328              		.cfi_offset 14, -4
 1329 0002 87B0     		sub	sp, sp, #28
 1330              		.cfi_def_cfa_offset 32
 1331 0004 0390     		str	r0, [sp, #12]
 1332 0006 0291     		str	r1, [sp, #8]
 1333 0008 0192     		str	r2, [sp, #4]
 1334              		.loc 1 295 0
 1335 000a 039B     		ldr	r3, [sp, #12]
 1336 000c 002B     		cmp	r3, #0
 1337 000e 05D0     		beq	.L120
 1338              		.loc 1 295 0 is_stmt 0 discriminator 1
 1339 0010 039B     		ldr	r3, [sp, #12]
 1340 0012 9B88     		ldrh	r3, [r3, #4]
 1341 0014 03F00503 		and	r3, r3, #5
 1342 0018 052B     		cmp	r3, #5
 1343 001a 01D0     		beq	.L121
 1344              	.L120:
 1345              		.loc 1 296 0 is_stmt 1
 1346 001c 0023     		movs	r3, #0
 1347 001e 1DE0     		b	.L122
 1348              	.L121:
 1349              		.loc 1 297 0
 1350 0020 039B     		ldr	r3, [sp, #12]
 1351 0022 1B68     		ldr	r3, [r3]
 1352 0024 1B6A     		ldr	r3, [r3, #32]
 1353 0026 002B     		cmp	r3, #0
ARM GAS  /tmp/ccuAeAGG.s 			page 25


 1354 0028 01D1     		bne	.L123
 1355              		.loc 1 298 0
 1356 002a 0023     		movs	r3, #0
 1357 002c 16E0     		b	.L122
 1358              	.L123:
 1359              		.loc 1 299 0
 1360 002e 039B     		ldr	r3, [sp, #12]
 1361 0030 1B68     		ldr	r3, [r3]
 1362 0032 1B6A     		ldr	r3, [r3, #32]
 1363 0034 019A     		ldr	r2, [sp, #4]
 1364 0036 0398     		ldr	r0, [sp, #12]
 1365 0038 0299     		ldr	r1, [sp, #8]
 1366 003a 9847     		blx	r3
 1367 003c 0346     		mov	r3, r0
 1368 003e 0593     		str	r3, [sp, #20]
 1369 0040 059B     		ldr	r3, [sp, #20]
 1370 0042 002B     		cmp	r3, #0
 1371 0044 01D1     		bne	.L124
 1372              		.loc 1 300 0
 1373 0046 0023     		movs	r3, #0
 1374 0048 08E0     		b	.L122
 1375              	.L124:
 1376              		.loc 1 301 0
 1377 004a 039B     		ldr	r3, [sp, #12]
 1378 004c DB68     		ldr	r3, [r3, #12]
 1379 004e 1A46     		mov	r2, r3
 1380 0050 059B     		ldr	r3, [sp, #20]
 1381 0052 1344     		add	r3, r3, r2
 1382 0054 1A46     		mov	r2, r3
 1383 0056 039B     		ldr	r3, [sp, #12]
 1384 0058 DA60     		str	r2, [r3, #12]
 1385              		.loc 1 302 0
 1386 005a 059B     		ldr	r3, [sp, #20]
 1387              	.L122:
 1388              		.loc 1 303 0
 1389 005c 1846     		mov	r0, r3
 1390 005e 07B0     		add	sp, sp, #28
 1391              		.cfi_def_cfa_offset 4
 1392              		@ sp needed
 1393 0060 5DF804FB 		ldr	pc, [sp], #4
 1394              		.cfi_endproc
 1395              	.LFE122:
 1396              		.size	gfileWrite, .-gfileWrite
 1397 0064 AFF30080 		.section	.text.gfileGetPos,"ax",%progbits
 1397      AFF30080 
 1397      AFF30080 
 1398              		.align	2
 1399              		.p2align 4,,15
 1400              		.global	gfileGetPos
 1401              		.thumb
 1402              		.thumb_func
 1403              		.type	gfileGetPos, %function
 1404              	gfileGetPos:
 1405              	.LFB123:
 1406              		.loc 1 305 0
 1407              		.cfi_startproc
 1408              		@ args = 0, pretend = 0, frame = 8
ARM GAS  /tmp/ccuAeAGG.s 			page 26


 1409              		@ frame_needed = 0, uses_anonymous_args = 0
 1410              		@ link register save eliminated.
 1411 0000 82B0     		sub	sp, sp, #8
 1412              		.cfi_def_cfa_offset 8
 1413 0002 0190     		str	r0, [sp, #4]
 1414              		.loc 1 306 0
 1415 0004 019B     		ldr	r3, [sp, #4]
 1416 0006 002B     		cmp	r3, #0
 1417 0008 05D0     		beq	.L126
 1418              		.loc 1 306 0 is_stmt 0 discriminator 1
 1419 000a 019B     		ldr	r3, [sp, #4]
 1420 000c 9B88     		ldrh	r3, [r3, #4]
 1421 000e 03F00103 		and	r3, r3, #1
 1422 0012 002B     		cmp	r3, #0
 1423 0014 01D1     		bne	.L127
 1424              	.L126:
 1425              		.loc 1 307 0 is_stmt 1
 1426 0016 0023     		movs	r3, #0
 1427 0018 01E0     		b	.L128
 1428              	.L127:
 1429              		.loc 1 308 0
 1430 001a 019B     		ldr	r3, [sp, #4]
 1431 001c DB68     		ldr	r3, [r3, #12]
 1432              	.L128:
 1433              		.loc 1 309 0
 1434 001e 1846     		mov	r0, r3
 1435 0020 02B0     		add	sp, sp, #8
 1436              		.cfi_def_cfa_offset 0
 1437              		@ sp needed
 1438 0022 7047     		bx	lr
 1439              		.cfi_endproc
 1440              	.LFE123:
 1441              		.size	gfileGetPos, .-gfileGetPos
 1442 0024 AFF30080 		.section	.text.gfileSetPos,"ax",%progbits
 1442      AFF30080 
 1442      AFF30080 
 1443              		.align	2
 1444              		.p2align 4,,15
 1445              		.global	gfileSetPos
 1446              		.thumb
 1447              		.thumb_func
 1448              		.type	gfileSetPos, %function
 1449              	gfileSetPos:
 1450              	.LFB124:
 1451              		.loc 1 311 0
 1452              		.cfi_startproc
 1453              		@ args = 0, pretend = 0, frame = 8
 1454              		@ frame_needed = 0, uses_anonymous_args = 0
 1455 0000 00B5     		push	{lr}
 1456              		.cfi_def_cfa_offset 4
 1457              		.cfi_offset 14, -4
 1458 0002 83B0     		sub	sp, sp, #12
 1459              		.cfi_def_cfa_offset 16
 1460 0004 0190     		str	r0, [sp, #4]
 1461 0006 0091     		str	r1, [sp]
 1462              		.loc 1 312 0
 1463 0008 019B     		ldr	r3, [sp, #4]
ARM GAS  /tmp/ccuAeAGG.s 			page 27


 1464 000a 002B     		cmp	r3, #0
 1465 000c 05D0     		beq	.L130
 1466              		.loc 1 312 0 is_stmt 0 discriminator 1
 1467 000e 019B     		ldr	r3, [sp, #4]
 1468 0010 9B88     		ldrh	r3, [r3, #4]
 1469 0012 03F00103 		and	r3, r3, #1
 1470 0016 002B     		cmp	r3, #0
 1471 0018 01D1     		bne	.L131
 1472              	.L130:
 1473              		.loc 1 313 0 is_stmt 1
 1474 001a 0023     		movs	r3, #0
 1475 001c 16E0     		b	.L132
 1476              	.L131:
 1477              		.loc 1 314 0
 1478 001e 019B     		ldr	r3, [sp, #4]
 1479 0020 1B68     		ldr	r3, [r3]
 1480 0022 5B6A     		ldr	r3, [r3, #36]
 1481 0024 002B     		cmp	r3, #0
 1482 0026 0BD0     		beq	.L133
 1483              		.loc 1 314 0 is_stmt 0 discriminator 1
 1484 0028 019B     		ldr	r3, [sp, #4]
 1485 002a 1B68     		ldr	r3, [r3]
 1486 002c 5B6A     		ldr	r3, [r3, #36]
 1487 002e 0198     		ldr	r0, [sp, #4]
 1488 0030 0099     		ldr	r1, [sp]
 1489 0032 9847     		blx	r3
 1490 0034 0346     		mov	r3, r0
 1491 0036 83F00103 		eor	r3, r3, #1
 1492 003a DBB2     		uxtb	r3, r3
 1493 003c 002B     		cmp	r3, #0
 1494 003e 01D0     		beq	.L134
 1495              	.L133:
 1496              		.loc 1 315 0 is_stmt 1
 1497 0040 0023     		movs	r3, #0
 1498 0042 03E0     		b	.L132
 1499              	.L134:
 1500              		.loc 1 316 0
 1501 0044 019B     		ldr	r3, [sp, #4]
 1502 0046 009A     		ldr	r2, [sp]
 1503 0048 DA60     		str	r2, [r3, #12]
 1504              		.loc 1 317 0
 1505 004a 0123     		movs	r3, #1
 1506              	.L132:
 1507              		.loc 1 318 0
 1508 004c 1846     		mov	r0, r3
 1509 004e 03B0     		add	sp, sp, #12
 1510              		.cfi_def_cfa_offset 4
 1511              		@ sp needed
 1512 0050 5DF804FB 		ldr	pc, [sp], #4
 1513              		.cfi_endproc
 1514              	.LFE124:
 1515              		.size	gfileSetPos, .-gfileSetPos
 1516 0054 AFF30080 		.section	.text.gfileGetSize,"ax",%progbits
 1516      AFF30080 
 1516      AFF30080 
 1517              		.align	2
 1518              		.p2align 4,,15
ARM GAS  /tmp/ccuAeAGG.s 			page 28


 1519              		.global	gfileGetSize
 1520              		.thumb
 1521              		.thumb_func
 1522              		.type	gfileGetSize, %function
 1523              	gfileGetSize:
 1524              	.LFB125:
 1525              		.loc 1 320 0
 1526              		.cfi_startproc
 1527              		@ args = 0, pretend = 0, frame = 8
 1528              		@ frame_needed = 0, uses_anonymous_args = 0
 1529 0000 00B5     		push	{lr}
 1530              		.cfi_def_cfa_offset 4
 1531              		.cfi_offset 14, -4
 1532 0002 83B0     		sub	sp, sp, #12
 1533              		.cfi_def_cfa_offset 16
 1534 0004 0190     		str	r0, [sp, #4]
 1535              		.loc 1 321 0
 1536 0006 019B     		ldr	r3, [sp, #4]
 1537 0008 002B     		cmp	r3, #0
 1538 000a 05D0     		beq	.L136
 1539              		.loc 1 321 0 is_stmt 0 discriminator 1
 1540 000c 019B     		ldr	r3, [sp, #4]
 1541 000e 9B88     		ldrh	r3, [r3, #4]
 1542 0010 03F00103 		and	r3, r3, #1
 1543 0014 002B     		cmp	r3, #0
 1544 0016 01D1     		bne	.L137
 1545              	.L136:
 1546              		.loc 1 322 0 is_stmt 1
 1547 0018 0023     		movs	r3, #0
 1548 001a 0CE0     		b	.L138
 1549              	.L137:
 1550              		.loc 1 323 0
 1551 001c 019B     		ldr	r3, [sp, #4]
 1552 001e 1B68     		ldr	r3, [r3]
 1553 0020 9B6A     		ldr	r3, [r3, #40]
 1554 0022 002B     		cmp	r3, #0
 1555 0024 01D1     		bne	.L139
 1556              		.loc 1 324 0
 1557 0026 0023     		movs	r3, #0
 1558 0028 05E0     		b	.L138
 1559              	.L139:
 1560              		.loc 1 325 0
 1561 002a 019B     		ldr	r3, [sp, #4]
 1562 002c 1B68     		ldr	r3, [r3]
 1563 002e 9B6A     		ldr	r3, [r3, #40]
 1564 0030 0198     		ldr	r0, [sp, #4]
 1565 0032 9847     		blx	r3
 1566 0034 0346     		mov	r3, r0
 1567              	.L138:
 1568              		.loc 1 326 0
 1569 0036 1846     		mov	r0, r3
 1570 0038 03B0     		add	sp, sp, #12
 1571              		.cfi_def_cfa_offset 4
 1572              		@ sp needed
 1573 003a 5DF804FB 		ldr	pc, [sp], #4
 1574              		.cfi_endproc
 1575              	.LFE125:
ARM GAS  /tmp/ccuAeAGG.s 			page 29


 1576              		.size	gfileGetSize, .-gfileGetSize
 1577 003e 00BF     		.section	.text.gfileEOF,"ax",%progbits
 1578              		.align	2
 1579              		.p2align 4,,15
 1580              		.global	gfileEOF
 1581              		.thumb
 1582              		.thumb_func
 1583              		.type	gfileEOF, %function
 1584              	gfileEOF:
 1585              	.LFB126:
 1586              		.loc 1 328 0
 1587              		.cfi_startproc
 1588              		@ args = 0, pretend = 0, frame = 8
 1589              		@ frame_needed = 0, uses_anonymous_args = 0
 1590 0000 00B5     		push	{lr}
 1591              		.cfi_def_cfa_offset 4
 1592              		.cfi_offset 14, -4
 1593 0002 83B0     		sub	sp, sp, #12
 1594              		.cfi_def_cfa_offset 16
 1595 0004 0190     		str	r0, [sp, #4]
 1596              		.loc 1 329 0
 1597 0006 019B     		ldr	r3, [sp, #4]
 1598 0008 002B     		cmp	r3, #0
 1599 000a 05D0     		beq	.L141
 1600              		.loc 1 329 0 is_stmt 0 discriminator 1
 1601 000c 019B     		ldr	r3, [sp, #4]
 1602 000e 9B88     		ldrh	r3, [r3, #4]
 1603 0010 03F00103 		and	r3, r3, #1
 1604 0014 002B     		cmp	r3, #0
 1605 0016 01D1     		bne	.L142
 1606              	.L141:
 1607              		.loc 1 330 0 is_stmt 1
 1608 0018 0123     		movs	r3, #1
 1609 001a 0CE0     		b	.L143
 1610              	.L142:
 1611              		.loc 1 331 0
 1612 001c 019B     		ldr	r3, [sp, #4]
 1613 001e 1B68     		ldr	r3, [r3]
 1614 0020 DB6A     		ldr	r3, [r3, #44]
 1615 0022 002B     		cmp	r3, #0
 1616 0024 01D1     		bne	.L144
 1617              		.loc 1 332 0
 1618 0026 0023     		movs	r3, #0
 1619 0028 05E0     		b	.L143
 1620              	.L144:
 1621              		.loc 1 333 0
 1622 002a 019B     		ldr	r3, [sp, #4]
 1623 002c 1B68     		ldr	r3, [r3]
 1624 002e DB6A     		ldr	r3, [r3, #44]
 1625 0030 0198     		ldr	r0, [sp, #4]
 1626 0032 9847     		blx	r3
 1627 0034 0346     		mov	r3, r0
 1628              	.L143:
 1629              		.loc 1 334 0
 1630 0036 1846     		mov	r0, r3
 1631 0038 03B0     		add	sp, sp, #12
 1632              		.cfi_def_cfa_offset 4
ARM GAS  /tmp/ccuAeAGG.s 			page 30


 1633              		@ sp needed
 1634 003a 5DF804FB 		ldr	pc, [sp], #4
 1635              		.cfi_endproc
 1636              	.LFE126:
 1637              		.size	gfileEOF, .-gfileEOF
 1638 003e 00BF     		.section	.text.gfileMount,"ax",%progbits
 1639              		.align	2
 1640              		.p2align 4,,15
 1641              		.global	gfileMount
 1642              		.thumb
 1643              		.thumb_func
 1644              		.type	gfileMount, %function
 1645              	gfileMount:
 1646              	.LFB127:
 1647              		.loc 1 336 0
 1648              		.cfi_startproc
 1649              		@ args = 0, pretend = 0, frame = 16
 1650              		@ frame_needed = 0, uses_anonymous_args = 0
 1651 0000 00B5     		push	{lr}
 1652              		.cfi_def_cfa_offset 4
 1653              		.cfi_offset 14, -4
 1654 0002 85B0     		sub	sp, sp, #20
 1655              		.cfi_def_cfa_offset 24
 1656 0004 0346     		mov	r3, r0
 1657 0006 0091     		str	r1, [sp]
 1658 0008 8DF80730 		strb	r3, [sp, #7]
 1659              		.loc 1 340 0
 1660 000c 114B     		ldr	r3, .L151
 1661 000e 0393     		str	r3, [sp, #12]
 1662 0010 17E0     		b	.L146
 1663              	.L150:
 1664              		.loc 1 341 0
 1665 0012 039B     		ldr	r3, [sp, #12]
 1666 0014 1B68     		ldr	r3, [r3]
 1667 0016 5B78     		ldrb	r3, [r3, #1]	@ zero_extendqisi2
 1668 0018 9DF80720 		ldrb	r2, [sp, #7]	@ zero_extendqisi2
 1669 001c 9A42     		cmp	r2, r3
 1670 001e 0DD1     		bne	.L147
 1671              		.loc 1 342 0
 1672 0020 039B     		ldr	r3, [sp, #12]
 1673 0022 1B68     		ldr	r3, [r3]
 1674 0024 1B6B     		ldr	r3, [r3, #48]
 1675 0026 002B     		cmp	r3, #0
 1676 0028 01D1     		bne	.L148
 1677              		.loc 1 343 0
 1678 002a 0023     		movs	r3, #0
 1679 002c 0EE0     		b	.L149
 1680              	.L148:
 1681              		.loc 1 344 0
 1682 002e 039B     		ldr	r3, [sp, #12]
 1683 0030 1B68     		ldr	r3, [r3]
 1684 0032 1B6B     		ldr	r3, [r3, #48]
 1685 0034 0098     		ldr	r0, [sp]
 1686 0036 9847     		blx	r3
 1687 0038 0346     		mov	r3, r0
 1688 003a 07E0     		b	.L149
 1689              	.L147:
ARM GAS  /tmp/ccuAeAGG.s 			page 31


 1690              		.loc 1 340 0 discriminator 2
 1691 003c 039B     		ldr	r3, [sp, #12]
 1692 003e 0433     		adds	r3, r3, #4
 1693 0040 0393     		str	r3, [sp, #12]
 1694              	.L146:
 1695              		.loc 1 340 0 is_stmt 0 discriminator 1
 1696 0042 039B     		ldr	r3, [sp, #12]
 1697 0044 044A     		ldr	r2, .L151+4
 1698 0046 9342     		cmp	r3, r2
 1699 0048 E3D3     		bcc	.L150
 1700              		.loc 1 347 0 is_stmt 1
 1701 004a 0023     		movs	r3, #0
 1702              	.L149:
 1703              		.loc 1 348 0
 1704 004c 1846     		mov	r0, r3
 1705 004e 05B0     		add	sp, sp, #20
 1706              		.cfi_def_cfa_offset 4
 1707              		@ sp needed
 1708 0050 5DF804FB 		ldr	pc, [sp], #4
 1709              	.L152:
 1710              		.align	2
 1711              	.L151:
 1712 0054 00000000 		.word	FsArray
 1713 0058 04000000 		.word	FsArray+4
 1714              		.cfi_endproc
 1715              	.LFE127:
 1716              		.size	gfileMount, .-gfileMount
 1717 005c AFF30080 		.section	.text.gfileUnmount,"ax",%progbits
 1718              		.align	2
 1719              		.p2align 4,,15
 1720              		.global	gfileUnmount
 1721              		.thumb
 1722              		.thumb_func
 1723              		.type	gfileUnmount, %function
 1724              	gfileUnmount:
 1725              	.LFB128:
 1726              		.loc 1 350 0
 1727              		.cfi_startproc
 1728              		@ args = 0, pretend = 0, frame = 16
 1729              		@ frame_needed = 0, uses_anonymous_args = 0
 1730 0000 00B5     		push	{lr}
 1731              		.cfi_def_cfa_offset 4
 1732              		.cfi_offset 14, -4
 1733 0002 85B0     		sub	sp, sp, #20
 1734              		.cfi_def_cfa_offset 24
 1735 0004 0346     		mov	r3, r0
 1736 0006 0091     		str	r1, [sp]
 1737 0008 8DF80730 		strb	r3, [sp, #7]
 1738              		.loc 1 354 0
 1739 000c 114B     		ldr	r3, .L159
 1740 000e 0393     		str	r3, [sp, #12]
 1741 0010 17E0     		b	.L154
 1742              	.L158:
 1743              		.loc 1 355 0
 1744 0012 039B     		ldr	r3, [sp, #12]
 1745 0014 1B68     		ldr	r3, [r3]
 1746 0016 5B78     		ldrb	r3, [r3, #1]	@ zero_extendqisi2
ARM GAS  /tmp/ccuAeAGG.s 			page 32


 1747 0018 9DF80720 		ldrb	r2, [sp, #7]	@ zero_extendqisi2
 1748 001c 9A42     		cmp	r2, r3
 1749 001e 0DD1     		bne	.L155
 1750              		.loc 1 356 0
 1751 0020 039B     		ldr	r3, [sp, #12]
 1752 0022 1B68     		ldr	r3, [r3]
 1753 0024 1B6B     		ldr	r3, [r3, #48]
 1754 0026 002B     		cmp	r3, #0
 1755 0028 01D1     		bne	.L156
 1756              		.loc 1 357 0
 1757 002a 0023     		movs	r3, #0
 1758 002c 0EE0     		b	.L157
 1759              	.L156:
 1760              		.loc 1 358 0
 1761 002e 039B     		ldr	r3, [sp, #12]
 1762 0030 1B68     		ldr	r3, [r3]
 1763 0032 5B6B     		ldr	r3, [r3, #52]
 1764 0034 0098     		ldr	r0, [sp]
 1765 0036 9847     		blx	r3
 1766 0038 0346     		mov	r3, r0
 1767 003a 07E0     		b	.L157
 1768              	.L155:
 1769              		.loc 1 354 0 discriminator 2
 1770 003c 039B     		ldr	r3, [sp, #12]
 1771 003e 0433     		adds	r3, r3, #4
 1772 0040 0393     		str	r3, [sp, #12]
 1773              	.L154:
 1774              		.loc 1 354 0 is_stmt 0 discriminator 1
 1775 0042 039B     		ldr	r3, [sp, #12]
 1776 0044 044A     		ldr	r2, .L159+4
 1777 0046 9342     		cmp	r3, r2
 1778 0048 E3D3     		bcc	.L158
 1779              		.loc 1 361 0 is_stmt 1
 1780 004a 0023     		movs	r3, #0
 1781              	.L157:
 1782              		.loc 1 362 0
 1783 004c 1846     		mov	r0, r3
 1784 004e 05B0     		add	sp, sp, #20
 1785              		.cfi_def_cfa_offset 4
 1786              		@ sp needed
 1787 0050 5DF804FB 		ldr	pc, [sp], #4
 1788              	.L160:
 1789              		.align	2
 1790              	.L159:
 1791 0054 00000000 		.word	FsArray
 1792 0058 04000000 		.word	FsArray+4
 1793              		.cfi_endproc
 1794              	.LFE128:
 1795              		.size	gfileUnmount, .-gfileUnmount
 1796 005c AFF30080 		.section	.text.gfileSync,"ax",%progbits
 1797              		.align	2
 1798              		.p2align 4,,15
 1799              		.global	gfileSync
 1800              		.thumb
 1801              		.thumb_func
 1802              		.type	gfileSync, %function
 1803              	gfileSync:
ARM GAS  /tmp/ccuAeAGG.s 			page 33


 1804              	.LFB129:
 1805              		.loc 1 364 0
 1806              		.cfi_startproc
 1807              		@ args = 0, pretend = 0, frame = 8
 1808              		@ frame_needed = 0, uses_anonymous_args = 0
 1809 0000 00B5     		push	{lr}
 1810              		.cfi_def_cfa_offset 4
 1811              		.cfi_offset 14, -4
 1812 0002 83B0     		sub	sp, sp, #12
 1813              		.cfi_def_cfa_offset 16
 1814 0004 0190     		str	r0, [sp, #4]
 1815              		.loc 1 365 0
 1816 0006 019B     		ldr	r3, [sp, #4]
 1817 0008 1B68     		ldr	r3, [r3]
 1818 000a 9B6B     		ldr	r3, [r3, #56]
 1819 000c 002B     		cmp	r3, #0
 1820 000e 01D1     		bne	.L162
 1821              		.loc 1 366 0
 1822 0010 0023     		movs	r3, #0
 1823 0012 05E0     		b	.L163
 1824              	.L162:
 1825              		.loc 1 367 0
 1826 0014 019B     		ldr	r3, [sp, #4]
 1827 0016 1B68     		ldr	r3, [r3]
 1828 0018 9B6B     		ldr	r3, [r3, #56]
 1829 001a 0198     		ldr	r0, [sp, #4]
 1830 001c 9847     		blx	r3
 1831 001e 0346     		mov	r3, r0
 1832              	.L163:
 1833              		.loc 1 368 0
 1834 0020 1846     		mov	r0, r3
 1835 0022 03B0     		add	sp, sp, #12
 1836              		.cfi_def_cfa_offset 4
 1837              		@ sp needed
 1838 0024 5DF804FB 		ldr	pc, [sp], #4
 1839              		.cfi_endproc
 1840              	.LFE129:
 1841              		.size	gfileSync, .-gfileSync
 1842 0028 AFF30080 		.text
 1842      AFF30080 
 1843              	.Letext0:
 1844              		.file 2 "/opt/gcc-arm-none-eabi/lib/gcc/arm-none-eabi/4.9.3/include/stddef.h"
 1845              		.file 3 "/opt/gcc-arm-none-eabi/arm-none-eabi/include/machine/_default_types.h"
 1846              		.file 4 "/opt/gcc-arm-none-eabi/arm-none-eabi/include/stdint.h"
 1847              		.file 5 "/home/makkmarci/workspace/ChibiOS_2.6.8/os/ports/GCC/ARMCMx/chtypes.h"
 1848              		.file 6 "/home/makkmarci/workspace/ugfx/src/gfile/gfile.h"
 1849              		.file 7 "/home/makkmarci/workspace/ugfx/src/gfile/gfile_fs.h"
 1850              		.file 8 "/home/makkmarci/workspace/ChibiOS_2.6.8/os/ports/common/ARMCMx/CMSIS/include/core_cm4.h"
 1851              		.section	.debug_info,"",%progbits
 1852              	.Ldebug_info0:
 1853 0000 CA070000 		.4byte	0x7ca
 1854 0004 0400     		.2byte	0x4
 1855 0006 00000000 		.4byte	.Ldebug_abbrev0
 1856 000a 04       		.byte	0x4
 1857 000b 01       		.uleb128 0x1
 1858 000c CD000000 		.4byte	.LASF64
 1859 0010 01       		.byte	0x1
ARM GAS  /tmp/ccuAeAGG.s 			page 34


 1860 0011 30030000 		.4byte	.LASF65
 1861 0015 00000000 		.4byte	.Ldebug_ranges0+0
 1862 0019 00000000 		.4byte	0
 1863 001d 00000000 		.4byte	.Ldebug_line0
 1864 0021 02       		.uleb128 0x2
 1865 0022 04       		.byte	0x4
 1866 0023 05       		.byte	0x5
 1867 0024 696E7400 		.ascii	"int\000"
 1868 0028 03       		.uleb128 0x3
 1869 0029 2F000000 		.4byte	.LASF2
 1870 002d 02       		.byte	0x2
 1871 002e D4       		.byte	0xd4
 1872 002f 33000000 		.4byte	0x33
 1873 0033 04       		.uleb128 0x4
 1874 0034 04       		.byte	0x4
 1875 0035 07       		.byte	0x7
 1876 0036 7E020000 		.4byte	.LASF0
 1877 003a 04       		.uleb128 0x4
 1878 003b 01       		.byte	0x1
 1879 003c 06       		.byte	0x6
 1880 003d 9D000000 		.4byte	.LASF1
 1881 0041 03       		.uleb128 0x3
 1882 0042 EB010000 		.4byte	.LASF3
 1883 0046 03       		.byte	0x3
 1884 0047 1D       		.byte	0x1d
 1885 0048 4C000000 		.4byte	0x4c
 1886 004c 04       		.uleb128 0x4
 1887 004d 01       		.byte	0x1
 1888 004e 08       		.byte	0x8
 1889 004f 08020000 		.4byte	.LASF4
 1890 0053 04       		.uleb128 0x4
 1891 0054 02       		.byte	0x2
 1892 0055 05       		.byte	0x5
 1893 0056 25000000 		.4byte	.LASF5
 1894 005a 03       		.uleb128 0x3
 1895 005b 54000000 		.4byte	.LASF6
 1896 005f 03       		.byte	0x3
 1897 0060 2B       		.byte	0x2b
 1898 0061 65000000 		.4byte	0x65
 1899 0065 04       		.uleb128 0x4
 1900 0066 02       		.byte	0x2
 1901 0067 07       		.byte	0x7
 1902 0068 BA020000 		.4byte	.LASF7
 1903 006c 03       		.uleb128 0x3
 1904 006d 61030000 		.4byte	.LASF8
 1905 0071 03       		.byte	0x3
 1906 0072 3F       		.byte	0x3f
 1907 0073 77000000 		.4byte	0x77
 1908 0077 04       		.uleb128 0x4
 1909 0078 04       		.byte	0x4
 1910 0079 05       		.byte	0x5
 1911 007a E2010000 		.4byte	.LASF9
 1912 007e 04       		.uleb128 0x4
 1913 007f 04       		.byte	0x4
 1914 0080 07       		.byte	0x7
 1915 0081 07030000 		.4byte	.LASF10
 1916 0085 04       		.uleb128 0x4
ARM GAS  /tmp/ccuAeAGG.s 			page 35


 1917 0086 08       		.byte	0x8
 1918 0087 05       		.byte	0x5
 1919 0088 BF000000 		.4byte	.LASF11
 1920 008c 04       		.uleb128 0x4
 1921 008d 08       		.byte	0x8
 1922 008e 07       		.byte	0x7
 1923 008f 58020000 		.4byte	.LASF12
 1924 0093 03       		.uleb128 0x3
 1925 0094 76000000 		.4byte	.LASF13
 1926 0098 04       		.byte	0x4
 1927 0099 15       		.byte	0x15
 1928 009a 41000000 		.4byte	0x41
 1929 009e 03       		.uleb128 0x3
 1930 009f 8B020000 		.4byte	.LASF14
 1931 00a3 04       		.byte	0x4
 1932 00a4 21       		.byte	0x21
 1933 00a5 5A000000 		.4byte	0x5a
 1934 00a9 03       		.uleb128 0x3
 1935 00aa D2020000 		.4byte	.LASF15
 1936 00ae 04       		.byte	0x4
 1937 00af 2C       		.byte	0x2c
 1938 00b0 6C000000 		.4byte	0x6c
 1939 00b4 03       		.uleb128 0x3
 1940 00b5 C0030000 		.4byte	.LASF16
 1941 00b9 05       		.byte	0x5
 1942 00ba 2B       		.byte	0x2b
 1943 00bb BF000000 		.4byte	0xbf
 1944 00bf 04       		.uleb128 0x4
 1945 00c0 01       		.byte	0x1
 1946 00c1 02       		.byte	0x2
 1947 00c2 FC020000 		.4byte	.LASF17
 1948 00c6 05       		.uleb128 0x5
 1949 00c7 04       		.byte	0x4
 1950 00c8 04       		.uleb128 0x4
 1951 00c9 04       		.byte	0x4
 1952 00ca 07       		.byte	0x7
 1953 00cb 36000000 		.4byte	.LASF18
 1954 00cf 06       		.uleb128 0x6
 1955 00d0 04       		.byte	0x4
 1956 00d1 D5000000 		.4byte	0xd5
 1957 00d5 07       		.uleb128 0x7
 1958 00d6 DA000000 		.4byte	0xda
 1959 00da 04       		.uleb128 0x4
 1960 00db 01       		.byte	0x1
 1961 00dc 08       		.byte	0x8
 1962 00dd CD020000 		.4byte	.LASF19
 1963 00e1 08       		.uleb128 0x8
 1964 00e2 A9000000 		.4byte	0xa9
 1965 00e6 03       		.uleb128 0x3
 1966 00e7 68000000 		.4byte	.LASF20
 1967 00eb 06       		.byte	0x6
 1968 00ec 22       		.byte	0x22
 1969 00ed F1000000 		.4byte	0xf1
 1970 00f1 09       		.uleb128 0x9
 1971 00f2 68000000 		.4byte	.LASF20
 1972 00f6 10       		.byte	0x10
 1973 00f7 07       		.byte	0x7
ARM GAS  /tmp/ccuAeAGG.s 			page 36


 1974 00f8 11       		.byte	0x11
 1975 00f9 2E010000 		.4byte	0x12e
 1976 00fd 0A       		.uleb128 0xa
 1977 00fe 766D7400 		.ascii	"vmt\000"
 1978 0102 07       		.byte	0x7
 1979 0103 12       		.byte	0x12
 1980 0104 08020000 		.4byte	0x208
 1981 0108 00       		.byte	0
 1982 0109 0B       		.uleb128 0xb
 1983 010a 52020000 		.4byte	.LASF21
 1984 010e 07       		.byte	0x7
 1985 010f 13       		.byte	0x13
 1986 0110 9E000000 		.4byte	0x9e
 1987 0114 04       		.byte	0x4
 1988 0115 0A       		.uleb128 0xa
 1989 0116 6F626A00 		.ascii	"obj\000"
 1990 011a 07       		.byte	0x7
 1991 011b 1F       		.byte	0x1f
 1992 011c C6000000 		.4byte	0xc6
 1993 0120 08       		.byte	0x8
 1994 0121 0A       		.uleb128 0xa
 1995 0122 706F7300 		.ascii	"pos\000"
 1996 0126 07       		.byte	0x7
 1997 0127 20       		.byte	0x20
 1998 0128 77000000 		.4byte	0x77
 1999 012c 0C       		.byte	0xc
 2000 012d 00       		.byte	0
 2001 012e 06       		.uleb128 0x6
 2002 012f 04       		.byte	0x4
 2003 0130 34010000 		.4byte	0x134
 2004 0134 0C       		.uleb128 0xc
 2005 0135 06       		.uleb128 0x6
 2006 0136 04       		.byte	0x4
 2007 0137 E6000000 		.4byte	0xe6
 2008 013b 09       		.uleb128 0x9
 2009 013c 16000000 		.4byte	.LASF22
 2010 0140 3C       		.byte	0x3c
 2011 0141 07       		.byte	0x7
 2012 0142 28       		.byte	0x28
 2013 0143 08020000 		.4byte	0x208
 2014 0147 0B       		.uleb128 0xb
 2015 0148 52020000 		.4byte	.LASF21
 2016 014c 07       		.byte	0x7
 2017 014d 29       		.byte	0x29
 2018 014e 93000000 		.4byte	0x93
 2019 0152 00       		.byte	0
 2020 0153 0B       		.uleb128 0xb
 2021 0154 F5010000 		.4byte	.LASF23
 2022 0158 07       		.byte	0x7
 2023 0159 30       		.byte	0x30
 2024 015a DA000000 		.4byte	0xda
 2025 015e 01       		.byte	0x1
 2026 015f 0A       		.uleb128 0xa
 2027 0160 64656C00 		.ascii	"del\000"
 2028 0164 07       		.byte	0x7
 2029 0165 31       		.byte	0x31
 2030 0166 22020000 		.4byte	0x222
ARM GAS  /tmp/ccuAeAGG.s 			page 37


 2031 016a 04       		.byte	0x4
 2032 016b 0B       		.uleb128 0xb
 2033 016c A1020000 		.4byte	.LASF24
 2034 0170 07       		.byte	0x7
 2035 0171 32       		.byte	0x32
 2036 0172 22020000 		.4byte	0x222
 2037 0176 08       		.byte	0x8
 2038 0177 0B       		.uleb128 0xb
 2039 0178 7E000000 		.4byte	.LASF25
 2040 017c 07       		.byte	0x7
 2041 017d 33       		.byte	0x33
 2042 017e 37020000 		.4byte	0x237
 2043 0182 0C       		.byte	0xc
 2044 0183 0A       		.uleb128 0xa
 2045 0184 72656E00 		.ascii	"ren\000"
 2046 0188 07       		.byte	0x7
 2047 0189 34       		.byte	0x34
 2048 018a 51020000 		.4byte	0x251
 2049 018e 10       		.byte	0x10
 2050 018f 0B       		.uleb128 0xb
 2051 0190 80030000 		.4byte	.LASF26
 2052 0194 07       		.byte	0x7
 2053 0195 35       		.byte	0x35
 2054 0196 6B020000 		.4byte	0x26b
 2055 019a 14       		.byte	0x14
 2056 019b 0B       		.uleb128 0xb
 2057 019c 08000000 		.4byte	.LASF27
 2058 01a0 07       		.byte	0x7
 2059 01a1 36       		.byte	0x36
 2060 01a2 7C020000 		.4byte	0x27c
 2061 01a6 18       		.byte	0x18
 2062 01a7 0B       		.uleb128 0xb
 2063 01a8 BA000000 		.4byte	.LASF28
 2064 01ac 07       		.byte	0x7
 2065 01ad 37       		.byte	0x37
 2066 01ae 9B020000 		.4byte	0x29b
 2067 01b2 1C       		.byte	0x1c
 2068 01b3 0B       		.uleb128 0xb
 2069 01b4 1F000000 		.4byte	.LASF29
 2070 01b8 07       		.byte	0x7
 2071 01b9 38       		.byte	0x38
 2072 01ba BA020000 		.4byte	0x2ba
 2073 01be 20       		.byte	0x20
 2074 01bf 0B       		.uleb128 0xb
 2075 01c0 48000000 		.4byte	.LASF30
 2076 01c4 07       		.byte	0x7
 2077 01c5 39       		.byte	0x39
 2078 01c6 D4020000 		.4byte	0x2d4
 2079 01ca 24       		.byte	0x24
 2080 01cb 0B       		.uleb128 0xb
 2081 01cc 00000000 		.4byte	.LASF31
 2082 01d0 07       		.byte	0x7
 2083 01d1 3A       		.byte	0x3a
 2084 01d2 E9020000 		.4byte	0x2e9
 2085 01d6 28       		.byte	0x28
 2086 01d7 0A       		.uleb128 0xa
 2087 01d8 656F6600 		.ascii	"eof\000"
ARM GAS  /tmp/ccuAeAGG.s 			page 38


 2088 01dc 07       		.byte	0x7
 2089 01dd 3B       		.byte	0x3b
 2090 01de FE020000 		.4byte	0x2fe
 2091 01e2 2C       		.byte	0x2c
 2092 01e3 0B       		.uleb128 0xb
 2093 01e4 B4000000 		.4byte	.LASF32
 2094 01e8 07       		.byte	0x7
 2095 01e9 3C       		.byte	0x3c
 2096 01ea 22020000 		.4byte	0x222
 2097 01ee 30       		.byte	0x30
 2098 01ef 0B       		.uleb128 0xb
 2099 01f0 0E000000 		.4byte	.LASF33
 2100 01f4 07       		.byte	0x7
 2101 01f5 3D       		.byte	0x3d
 2102 01f6 22020000 		.4byte	0x222
 2103 01fa 34       		.byte	0x34
 2104 01fb 0B       		.uleb128 0xb
 2105 01fc 02030000 		.4byte	.LASF34
 2106 0200 07       		.byte	0x7
 2107 0201 3E       		.byte	0x3e
 2108 0202 FE020000 		.4byte	0x2fe
 2109 0206 38       		.byte	0x38
 2110 0207 00       		.byte	0
 2111 0208 06       		.uleb128 0x6
 2112 0209 04       		.byte	0x4
 2113 020a 0E020000 		.4byte	0x20e
 2114 020e 07       		.uleb128 0x7
 2115 020f 3B010000 		.4byte	0x13b
 2116 0213 0D       		.uleb128 0xd
 2117 0214 B4000000 		.4byte	0xb4
 2118 0218 22020000 		.4byte	0x222
 2119 021c 0E       		.uleb128 0xe
 2120 021d CF000000 		.4byte	0xcf
 2121 0221 00       		.byte	0
 2122 0222 06       		.uleb128 0x6
 2123 0223 04       		.byte	0x4
 2124 0224 13020000 		.4byte	0x213
 2125 0228 0D       		.uleb128 0xd
 2126 0229 77000000 		.4byte	0x77
 2127 022d 37020000 		.4byte	0x237
 2128 0231 0E       		.uleb128 0xe
 2129 0232 CF000000 		.4byte	0xcf
 2130 0236 00       		.byte	0
 2131 0237 06       		.uleb128 0x6
 2132 0238 04       		.byte	0x4
 2133 0239 28020000 		.4byte	0x228
 2134 023d 0D       		.uleb128 0xd
 2135 023e B4000000 		.4byte	0xb4
 2136 0242 51020000 		.4byte	0x251
 2137 0246 0E       		.uleb128 0xe
 2138 0247 CF000000 		.4byte	0xcf
 2139 024b 0E       		.uleb128 0xe
 2140 024c CF000000 		.4byte	0xcf
 2141 0250 00       		.byte	0
 2142 0251 06       		.uleb128 0x6
 2143 0252 04       		.byte	0x4
 2144 0253 3D020000 		.4byte	0x23d
ARM GAS  /tmp/ccuAeAGG.s 			page 39


 2145 0257 0D       		.uleb128 0xd
 2146 0258 B4000000 		.4byte	0xb4
 2147 025c 6B020000 		.4byte	0x26b
 2148 0260 0E       		.uleb128 0xe
 2149 0261 35010000 		.4byte	0x135
 2150 0265 0E       		.uleb128 0xe
 2151 0266 CF000000 		.4byte	0xcf
 2152 026a 00       		.byte	0
 2153 026b 06       		.uleb128 0x6
 2154 026c 04       		.byte	0x4
 2155 026d 57020000 		.4byte	0x257
 2156 0271 0F       		.uleb128 0xf
 2157 0272 7C020000 		.4byte	0x27c
 2158 0276 0E       		.uleb128 0xe
 2159 0277 35010000 		.4byte	0x135
 2160 027b 00       		.byte	0
 2161 027c 06       		.uleb128 0x6
 2162 027d 04       		.byte	0x4
 2163 027e 71020000 		.4byte	0x271
 2164 0282 0D       		.uleb128 0xd
 2165 0283 21000000 		.4byte	0x21
 2166 0287 9B020000 		.4byte	0x29b
 2167 028b 0E       		.uleb128 0xe
 2168 028c 35010000 		.4byte	0x135
 2169 0290 0E       		.uleb128 0xe
 2170 0291 C6000000 		.4byte	0xc6
 2171 0295 0E       		.uleb128 0xe
 2172 0296 21000000 		.4byte	0x21
 2173 029a 00       		.byte	0
 2174 029b 06       		.uleb128 0x6
 2175 029c 04       		.byte	0x4
 2176 029d 82020000 		.4byte	0x282
 2177 02a1 0D       		.uleb128 0xd
 2178 02a2 21000000 		.4byte	0x21
 2179 02a6 BA020000 		.4byte	0x2ba
 2180 02aa 0E       		.uleb128 0xe
 2181 02ab 35010000 		.4byte	0x135
 2182 02af 0E       		.uleb128 0xe
 2183 02b0 2E010000 		.4byte	0x12e
 2184 02b4 0E       		.uleb128 0xe
 2185 02b5 21000000 		.4byte	0x21
 2186 02b9 00       		.byte	0
 2187 02ba 06       		.uleb128 0x6
 2188 02bb 04       		.byte	0x4
 2189 02bc A1020000 		.4byte	0x2a1
 2190 02c0 0D       		.uleb128 0xd
 2191 02c1 B4000000 		.4byte	0xb4
 2192 02c5 D4020000 		.4byte	0x2d4
 2193 02c9 0E       		.uleb128 0xe
 2194 02ca 35010000 		.4byte	0x135
 2195 02ce 0E       		.uleb128 0xe
 2196 02cf 77000000 		.4byte	0x77
 2197 02d3 00       		.byte	0
 2198 02d4 06       		.uleb128 0x6
 2199 02d5 04       		.byte	0x4
 2200 02d6 C0020000 		.4byte	0x2c0
 2201 02da 0D       		.uleb128 0xd
ARM GAS  /tmp/ccuAeAGG.s 			page 40


 2202 02db 77000000 		.4byte	0x77
 2203 02df E9020000 		.4byte	0x2e9
 2204 02e3 0E       		.uleb128 0xe
 2205 02e4 35010000 		.4byte	0x135
 2206 02e8 00       		.byte	0
 2207 02e9 06       		.uleb128 0x6
 2208 02ea 04       		.byte	0x4
 2209 02eb DA020000 		.4byte	0x2da
 2210 02ef 0D       		.uleb128 0xd
 2211 02f0 B4000000 		.4byte	0xb4
 2212 02f4 FE020000 		.4byte	0x2fe
 2213 02f8 0E       		.uleb128 0xe
 2214 02f9 35010000 		.4byte	0x135
 2215 02fd 00       		.byte	0
 2216 02fe 06       		.uleb128 0x6
 2217 02ff 04       		.byte	0x4
 2218 0300 EF020000 		.4byte	0x2ef
 2219 0304 03       		.uleb128 0x3
 2220 0305 16000000 		.4byte	.LASF22
 2221 0309 07       		.byte	0x7
 2222 030a 44       		.byte	0x44
 2223 030b 3B010000 		.4byte	0x13b
 2224 030f 10       		.uleb128 0x10
 2225 0310 22020000 		.4byte	.LASF35
 2226 0314 01       		.byte	0x1
 2227 0315 3F       		.byte	0x3f
 2228 0316 00000000 		.4byte	.LFB111
 2229 031a 02000000 		.4byte	.LFE111-.LFB111
 2230 031e 01       		.uleb128 0x1
 2231 031f 9C       		.byte	0x9c
 2232 0320 10       		.uleb128 0x10
 2233 0321 E3020000 		.4byte	.LASF36
 2234 0325 01       		.byte	0x1
 2235 0326 46       		.byte	0x46
 2236 0327 00000000 		.4byte	.LFB112
 2237 032b 02000000 		.4byte	.LFE112-.LFB112
 2238 032f 01       		.uleb128 0x1
 2239 0330 9C       		.byte	0x9c
 2240 0331 11       		.uleb128 0x11
 2241 0332 6F020000 		.4byte	.LASF37
 2242 0336 01       		.byte	0x1
 2243 0337 4E       		.byte	0x4e
 2244 0338 35010000 		.4byte	0x135
 2245 033c 00000000 		.4byte	.LFB113
 2246 0340 50010000 		.4byte	.LFE113-.LFB113
 2247 0344 01       		.uleb128 0x1
 2248 0345 9C       		.byte	0x9c
 2249 0346 65030000 		.4byte	0x365
 2250 034a 12       		.uleb128 0x12
 2251 034b 4F000000 		.4byte	.LASF39
 2252 034f 01       		.byte	0x1
 2253 0350 4E       		.byte	0x4e
 2254 0351 CF000000 		.4byte	0xcf
 2255 0355 02       		.uleb128 0x2
 2256 0356 91       		.byte	0x91
 2257 0357 74       		.sleb128 -12
 2258 0358 13       		.uleb128 0x13
ARM GAS  /tmp/ccuAeAGG.s 			page 41


 2259 0359 6600     		.ascii	"f\000"
 2260 035b 01       		.byte	0x1
 2261 035c 4F       		.byte	0x4f
 2262 035d 35010000 		.4byte	0x135
 2263 0361 02       		.uleb128 0x2
 2264 0362 91       		.byte	0x91
 2265 0363 7C       		.sleb128 -4
 2266 0364 00       		.byte	0
 2267 0365 14       		.uleb128 0x14
 2268 0366 87000000 		.4byte	.LASF38
 2269 036a 01       		.byte	0x1
 2270 036b 80       		.byte	0x80
 2271 036c B4000000 		.4byte	0xb4
 2272 0370 00000000 		.4byte	.LFB114
 2273 0374 B0000000 		.4byte	.LFE114-.LFB114
 2274 0378 01       		.uleb128 0x1
 2275 0379 9C       		.byte	0x9c
 2276 037a 99030000 		.4byte	0x399
 2277 037e 12       		.uleb128 0x12
 2278 037f A8020000 		.4byte	.LASF40
 2279 0383 01       		.byte	0x1
 2280 0384 80       		.byte	0x80
 2281 0385 CF000000 		.4byte	0xcf
 2282 0389 02       		.uleb128 0x2
 2283 038a 91       		.byte	0x91
 2284 038b 6C       		.sleb128 -20
 2285 038c 13       		.uleb128 0x13
 2286 038d 7000     		.ascii	"p\000"
 2287 038f 01       		.byte	0x1
 2288 0390 81       		.byte	0x81
 2289 0391 99030000 		.4byte	0x399
 2290 0395 02       		.uleb128 0x2
 2291 0396 91       		.byte	0x91
 2292 0397 74       		.sleb128 -12
 2293 0398 00       		.byte	0
 2294 0399 06       		.uleb128 0x6
 2295 039a 04       		.byte	0x4
 2296 039b 9F030000 		.4byte	0x39f
 2297 039f 07       		.uleb128 0x7
 2298 03a0 A4030000 		.4byte	0x3a4
 2299 03a4 06       		.uleb128 0x6
 2300 03a5 04       		.byte	0x4
 2301 03a6 AA030000 		.4byte	0x3aa
 2302 03aa 07       		.uleb128 0x7
 2303 03ab 04030000 		.4byte	0x304
 2304 03af 14       		.uleb128 0x14
 2305 03b0 16020000 		.4byte	.LASF41
 2306 03b4 01       		.byte	0x1
 2307 03b5 94       		.byte	0x94
 2308 03b6 B4000000 		.4byte	0xb4
 2309 03ba 00000000 		.4byte	.LFB115
 2310 03be B0000000 		.4byte	.LFE115-.LFB115
 2311 03c2 01       		.uleb128 0x1
 2312 03c3 9C       		.byte	0x9c
 2313 03c4 E3030000 		.4byte	0x3e3
 2314 03c8 12       		.uleb128 0x12
 2315 03c9 A8020000 		.4byte	.LASF40
ARM GAS  /tmp/ccuAeAGG.s 			page 42


 2316 03cd 01       		.byte	0x1
 2317 03ce 94       		.byte	0x94
 2318 03cf CF000000 		.4byte	0xcf
 2319 03d3 02       		.uleb128 0x2
 2320 03d4 91       		.byte	0x91
 2321 03d5 6C       		.sleb128 -20
 2322 03d6 13       		.uleb128 0x13
 2323 03d7 7000     		.ascii	"p\000"
 2324 03d9 01       		.byte	0x1
 2325 03da 95       		.byte	0x95
 2326 03db E3030000 		.4byte	0x3e3
 2327 03df 02       		.uleb128 0x2
 2328 03e0 91       		.byte	0x91
 2329 03e1 74       		.sleb128 -12
 2330 03e2 00       		.byte	0
 2331 03e3 06       		.uleb128 0x6
 2332 03e4 04       		.byte	0x4
 2333 03e5 A4030000 		.4byte	0x3a4
 2334 03e9 14       		.uleb128 0x14
 2335 03ea AF030000 		.4byte	.LASF42
 2336 03ee 01       		.byte	0x1
 2337 03ef A8       		.byte	0xa8
 2338 03f0 77000000 		.4byte	0x77
 2339 03f4 00000000 		.4byte	.LFB116
 2340 03f8 AC000000 		.4byte	.LFE116-.LFB116
 2341 03fc 01       		.uleb128 0x1
 2342 03fd 9C       		.byte	0x9c
 2343 03fe 2B040000 		.4byte	0x42b
 2344 0402 12       		.uleb128 0x12
 2345 0403 A8020000 		.4byte	.LASF40
 2346 0407 01       		.byte	0x1
 2347 0408 A8       		.byte	0xa8
 2348 0409 CF000000 		.4byte	0xcf
 2349 040d 02       		.uleb128 0x2
 2350 040e 91       		.byte	0x91
 2351 040f 6C       		.sleb128 -20
 2352 0410 13       		.uleb128 0x13
 2353 0411 7000     		.ascii	"p\000"
 2354 0413 01       		.byte	0x1
 2355 0414 A9       		.byte	0xa9
 2356 0415 99030000 		.4byte	0x399
 2357 0419 02       		.uleb128 0x2
 2358 041a 91       		.byte	0x91
 2359 041b 74       		.sleb128 -12
 2360 041c 13       		.uleb128 0x13
 2361 041d 72657300 		.ascii	"res\000"
 2362 0421 01       		.byte	0x1
 2363 0422 AA       		.byte	0xaa
 2364 0423 77000000 		.4byte	0x77
 2365 0427 02       		.uleb128 0x2
 2366 0428 91       		.byte	0x91
 2367 0429 70       		.sleb128 -16
 2368 042a 00       		.byte	0
 2369 042b 14       		.uleb128 0x14
 2370 042c 2D020000 		.4byte	.LASF43
 2371 0430 01       		.byte	0x1
 2372 0431 BD       		.byte	0xbd
ARM GAS  /tmp/ccuAeAGG.s 			page 43


 2373 0432 B4000000 		.4byte	0xb4
 2374 0436 00000000 		.4byte	.LFB117
 2375 043a 1C010000 		.4byte	.LFE117-.LFB117
 2376 043e 01       		.uleb128 0x1
 2377 043f 9C       		.byte	0x9c
 2378 0440 84040000 		.4byte	0x484
 2379 0444 12       		.uleb128 0x12
 2380 0445 6B030000 		.4byte	.LASF44
 2381 0449 01       		.byte	0x1
 2382 044a BD       		.byte	0xbd
 2383 044b CF000000 		.4byte	0xcf
 2384 044f 02       		.uleb128 0x2
 2385 0450 91       		.byte	0x91
 2386 0451 6C       		.sleb128 -20
 2387 0452 12       		.uleb128 0x12
 2388 0453 3F020000 		.4byte	.LASF45
 2389 0457 01       		.byte	0x1
 2390 0458 BD       		.byte	0xbd
 2391 0459 CF000000 		.4byte	0xcf
 2392 045d 02       		.uleb128 0x2
 2393 045e 91       		.byte	0x91
 2394 045f 68       		.sleb128 -24
 2395 0460 13       		.uleb128 0x13
 2396 0461 7000     		.ascii	"p\000"
 2397 0463 01       		.byte	0x1
 2398 0464 BE       		.byte	0xbe
 2399 0465 99030000 		.4byte	0x399
 2400 0469 02       		.uleb128 0x2
 2401 046a 91       		.byte	0x91
 2402 046b 74       		.sleb128 -12
 2403 046c 15       		.uleb128 0x15
 2404 046d 2C000000 		.4byte	.LBB2
 2405 0471 AA000000 		.4byte	.LBE2-.LBB2
 2406 0475 13       		.uleb128 0x13
 2407 0476 636800   		.ascii	"ch\000"
 2408 0479 01       		.byte	0x1
 2409 047a C2       		.byte	0xc2
 2410 047b DA000000 		.4byte	0xda
 2411 047f 02       		.uleb128 0x2
 2412 0480 91       		.byte	0x91
 2413 0481 73       		.sleb128 -13
 2414 0482 00       		.byte	0
 2415 0483 00       		.byte	0
 2416 0484 16       		.uleb128 0x16
 2417 0485 A6030000 		.4byte	.LASF66
 2418 0489 01       		.byte	0x1
 2419 048a E0       		.byte	0xe0
 2420 048b B4000000 		.4byte	0xb4
 2421 048f 00000000 		.4byte	.LFB118
 2422 0493 86000000 		.4byte	.LFE118-.LFB118
 2423 0497 01       		.uleb128 0x1
 2424 0498 9C       		.byte	0x9c
 2425 0499 C4040000 		.4byte	0x4c4
 2426 049d 17       		.uleb128 0x17
 2427 049e 7000     		.ascii	"p\000"
 2428 04a0 01       		.byte	0x1
 2429 04a1 E0       		.byte	0xe0
ARM GAS  /tmp/ccuAeAGG.s 			page 44


 2430 04a2 A4030000 		.4byte	0x3a4
 2431 04a6 02       		.uleb128 0x2
 2432 04a7 91       		.byte	0x91
 2433 04a8 74       		.sleb128 -12
 2434 04a9 17       		.uleb128 0x17
 2435 04aa 6600     		.ascii	"f\000"
 2436 04ac 01       		.byte	0x1
 2437 04ad E0       		.byte	0xe0
 2438 04ae 35010000 		.4byte	0x135
 2439 04b2 02       		.uleb128 0x2
 2440 04b3 91       		.byte	0x91
 2441 04b4 70       		.sleb128 -16
 2442 04b5 12       		.uleb128 0x12
 2443 04b6 A8020000 		.4byte	.LASF40
 2444 04ba 01       		.byte	0x1
 2445 04bb E0       		.byte	0xe0
 2446 04bc CF000000 		.4byte	0xcf
 2447 04c0 02       		.uleb128 0x2
 2448 04c1 91       		.byte	0x91
 2449 04c2 6C       		.sleb128 -20
 2450 04c3 00       		.byte	0
 2451 04c4 14       		.uleb128 0x14
 2452 04c5 9C030000 		.4byte	.LASF46
 2453 04c9 01       		.byte	0x1
 2454 04ca F2       		.byte	0xf2
 2455 04cb 35010000 		.4byte	0x135
 2456 04cf 00000000 		.4byte	.LFB119
 2457 04d3 B0000000 		.4byte	.LFE119-.LFB119
 2458 04d7 01       		.uleb128 0x1
 2459 04d8 9C       		.byte	0x9c
 2460 04d9 12050000 		.4byte	0x512
 2461 04dd 12       		.uleb128 0x12
 2462 04de A8020000 		.4byte	.LASF40
 2463 04e2 01       		.byte	0x1
 2464 04e3 F2       		.byte	0xf2
 2465 04e4 CF000000 		.4byte	0xcf
 2466 04e8 02       		.uleb128 0x2
 2467 04e9 91       		.byte	0x91
 2468 04ea 6C       		.sleb128 -20
 2469 04eb 12       		.uleb128 0x12
 2470 04ec 4F000000 		.4byte	.LASF39
 2471 04f0 01       		.byte	0x1
 2472 04f1 F2       		.byte	0xf2
 2473 04f2 CF000000 		.4byte	0xcf
 2474 04f6 02       		.uleb128 0x2
 2475 04f7 91       		.byte	0x91
 2476 04f8 68       		.sleb128 -24
 2477 04f9 13       		.uleb128 0x13
 2478 04fa 6600     		.ascii	"f\000"
 2479 04fc 01       		.byte	0x1
 2480 04fd F3       		.byte	0xf3
 2481 04fe 35010000 		.4byte	0x135
 2482 0502 02       		.uleb128 0x2
 2483 0503 91       		.byte	0x91
 2484 0504 70       		.sleb128 -16
 2485 0505 13       		.uleb128 0x13
 2486 0506 7000     		.ascii	"p\000"
ARM GAS  /tmp/ccuAeAGG.s 			page 45


 2487 0508 01       		.byte	0x1
 2488 0509 F4       		.byte	0xf4
 2489 050a 99030000 		.4byte	0x399
 2490 050e 02       		.uleb128 0x2
 2491 050f 91       		.byte	0x91
 2492 0510 74       		.sleb128 -12
 2493 0511 00       		.byte	0
 2494 0512 18       		.uleb128 0x18
 2495 0513 C7030000 		.4byte	.LASF67
 2496 0517 01       		.byte	0x1
 2497 0518 0F01     		.2byte	0x10f
 2498 051a 00000000 		.4byte	.LFB120
 2499 051e 3A000000 		.4byte	.LFE120-.LFB120
 2500 0522 01       		.uleb128 0x1
 2501 0523 9C       		.byte	0x9c
 2502 0524 36050000 		.4byte	0x536
 2503 0528 19       		.uleb128 0x19
 2504 0529 6600     		.ascii	"f\000"
 2505 052b 01       		.byte	0x1
 2506 052c 0F01     		.2byte	0x10f
 2507 052e 35010000 		.4byte	0x135
 2508 0532 02       		.uleb128 0x2
 2509 0533 91       		.byte	0x91
 2510 0534 74       		.sleb128 -12
 2511 0535 00       		.byte	0
 2512 0536 1A       		.uleb128 0x1a
 2513 0537 85030000 		.4byte	.LASF47
 2514 053b 01       		.byte	0x1
 2515 053c 1701     		.2byte	0x117
 2516 053e 28000000 		.4byte	0x28
 2517 0542 00000000 		.4byte	.LFB121
 2518 0546 64000000 		.4byte	.LFE121-.LFB121
 2519 054a 01       		.uleb128 0x1
 2520 054b 9C       		.byte	0x9c
 2521 054c 8B050000 		.4byte	0x58b
 2522 0550 19       		.uleb128 0x19
 2523 0551 6600     		.ascii	"f\000"
 2524 0553 01       		.byte	0x1
 2525 0554 1701     		.2byte	0x117
 2526 0556 35010000 		.4byte	0x135
 2527 055a 02       		.uleb128 0x2
 2528 055b 91       		.byte	0x91
 2529 055c 6C       		.sleb128 -20
 2530 055d 19       		.uleb128 0x19
 2531 055e 62756600 		.ascii	"buf\000"
 2532 0562 01       		.byte	0x1
 2533 0563 1701     		.2byte	0x117
 2534 0565 C6000000 		.4byte	0xc6
 2535 0569 02       		.uleb128 0x2
 2536 056a 91       		.byte	0x91
 2537 056b 68       		.sleb128 -24
 2538 056c 19       		.uleb128 0x19
 2539 056d 6C656E00 		.ascii	"len\000"
 2540 0571 01       		.byte	0x1
 2541 0572 1701     		.2byte	0x117
 2542 0574 28000000 		.4byte	0x28
 2543 0578 02       		.uleb128 0x2
ARM GAS  /tmp/ccuAeAGG.s 			page 46


 2544 0579 91       		.byte	0x91
 2545 057a 64       		.sleb128 -28
 2546 057b 1B       		.uleb128 0x1b
 2547 057c 72657300 		.ascii	"res\000"
 2548 0580 01       		.byte	0x1
 2549 0581 1801     		.2byte	0x118
 2550 0583 28000000 		.4byte	0x28
 2551 0587 02       		.uleb128 0x2
 2552 0588 91       		.byte	0x91
 2553 0589 74       		.sleb128 -12
 2554 058a 00       		.byte	0
 2555 058b 1A       		.uleb128 0x1a
 2556 058c 47020000 		.4byte	.LASF48
 2557 0590 01       		.byte	0x1
 2558 0591 2401     		.2byte	0x124
 2559 0593 28000000 		.4byte	0x28
 2560 0597 00000000 		.4byte	.LFB122
 2561 059b 64000000 		.4byte	.LFE122-.LFB122
 2562 059f 01       		.uleb128 0x1
 2563 05a0 9C       		.byte	0x9c
 2564 05a1 E0050000 		.4byte	0x5e0
 2565 05a5 19       		.uleb128 0x19
 2566 05a6 6600     		.ascii	"f\000"
 2567 05a8 01       		.byte	0x1
 2568 05a9 2401     		.2byte	0x124
 2569 05ab 35010000 		.4byte	0x135
 2570 05af 02       		.uleb128 0x2
 2571 05b0 91       		.byte	0x91
 2572 05b1 6C       		.sleb128 -20
 2573 05b2 19       		.uleb128 0x19
 2574 05b3 62756600 		.ascii	"buf\000"
 2575 05b7 01       		.byte	0x1
 2576 05b8 2401     		.2byte	0x124
 2577 05ba 2E010000 		.4byte	0x12e
 2578 05be 02       		.uleb128 0x2
 2579 05bf 91       		.byte	0x91
 2580 05c0 68       		.sleb128 -24
 2581 05c1 19       		.uleb128 0x19
 2582 05c2 6C656E00 		.ascii	"len\000"
 2583 05c6 01       		.byte	0x1
 2584 05c7 2401     		.2byte	0x124
 2585 05c9 28000000 		.4byte	0x28
 2586 05cd 02       		.uleb128 0x2
 2587 05ce 91       		.byte	0x91
 2588 05cf 64       		.sleb128 -28
 2589 05d0 1B       		.uleb128 0x1b
 2590 05d1 72657300 		.ascii	"res\000"
 2591 05d5 01       		.byte	0x1
 2592 05d6 2501     		.2byte	0x125
 2593 05d8 28000000 		.4byte	0x28
 2594 05dc 02       		.uleb128 0x2
 2595 05dd 91       		.byte	0x91
 2596 05de 74       		.sleb128 -12
 2597 05df 00       		.byte	0
 2598 05e0 1C       		.uleb128 0x1c
 2599 05e1 F0020000 		.4byte	.LASF49
 2600 05e5 01       		.byte	0x1
ARM GAS  /tmp/ccuAeAGG.s 			page 47


 2601 05e6 3101     		.2byte	0x131
 2602 05e8 77000000 		.4byte	0x77
 2603 05ec 00000000 		.4byte	.LFB123
 2604 05f0 24000000 		.4byte	.LFE123-.LFB123
 2605 05f4 01       		.uleb128 0x1
 2606 05f5 9C       		.byte	0x9c
 2607 05f6 08060000 		.4byte	0x608
 2608 05fa 19       		.uleb128 0x19
 2609 05fb 6600     		.ascii	"f\000"
 2610 05fd 01       		.byte	0x1
 2611 05fe 3101     		.2byte	0x131
 2612 0600 35010000 		.4byte	0x135
 2613 0604 02       		.uleb128 0x2
 2614 0605 91       		.byte	0x91
 2615 0606 7C       		.sleb128 -4
 2616 0607 00       		.byte	0
 2617 0608 1A       		.uleb128 0x1a
 2618 0609 AE020000 		.4byte	.LASF50
 2619 060d 01       		.byte	0x1
 2620 060e 3701     		.2byte	0x137
 2621 0610 B4000000 		.4byte	0xb4
 2622 0614 00000000 		.4byte	.LFB124
 2623 0618 54000000 		.4byte	.LFE124-.LFB124
 2624 061c 01       		.uleb128 0x1
 2625 061d 9C       		.byte	0x9c
 2626 061e 3F060000 		.4byte	0x63f
 2627 0622 19       		.uleb128 0x19
 2628 0623 6600     		.ascii	"f\000"
 2629 0625 01       		.byte	0x1
 2630 0626 3701     		.2byte	0x137
 2631 0628 35010000 		.4byte	0x135
 2632 062c 02       		.uleb128 0x2
 2633 062d 91       		.byte	0x91
 2634 062e 74       		.sleb128 -12
 2635 062f 19       		.uleb128 0x19
 2636 0630 706F7300 		.ascii	"pos\000"
 2637 0634 01       		.byte	0x1
 2638 0635 3701     		.2byte	0x137
 2639 0637 77000000 		.4byte	0x77
 2640 063b 02       		.uleb128 0x2
 2641 063c 91       		.byte	0x91
 2642 063d 70       		.sleb128 -16
 2643 063e 00       		.byte	0
 2644 063f 1A       		.uleb128 0x1a
 2645 0640 94020000 		.4byte	.LASF51
 2646 0644 01       		.byte	0x1
 2647 0645 4001     		.2byte	0x140
 2648 0647 77000000 		.4byte	0x77
 2649 064b 00000000 		.4byte	.LFB125
 2650 064f 3E000000 		.4byte	.LFE125-.LFB125
 2651 0653 01       		.uleb128 0x1
 2652 0654 9C       		.byte	0x9c
 2653 0655 67060000 		.4byte	0x667
 2654 0659 19       		.uleb128 0x19
 2655 065a 6600     		.ascii	"f\000"
 2656 065c 01       		.byte	0x1
 2657 065d 4001     		.2byte	0x140
ARM GAS  /tmp/ccuAeAGG.s 			page 48


 2658 065f 35010000 		.4byte	0x135
 2659 0663 02       		.uleb128 0x2
 2660 0664 91       		.byte	0x91
 2661 0665 74       		.sleb128 -12
 2662 0666 00       		.byte	0
 2663 0667 1A       		.uleb128 0x1a
 2664 0668 3F000000 		.4byte	.LASF52
 2665 066c 01       		.byte	0x1
 2666 066d 4801     		.2byte	0x148
 2667 066f B4000000 		.4byte	0xb4
 2668 0673 00000000 		.4byte	.LFB126
 2669 0677 3E000000 		.4byte	.LFE126-.LFB126
 2670 067b 01       		.uleb128 0x1
 2671 067c 9C       		.byte	0x9c
 2672 067d 8F060000 		.4byte	0x68f
 2673 0681 19       		.uleb128 0x19
 2674 0682 6600     		.ascii	"f\000"
 2675 0684 01       		.byte	0x1
 2676 0685 4801     		.2byte	0x148
 2677 0687 35010000 		.4byte	0x135
 2678 068b 02       		.uleb128 0x2
 2679 068c 91       		.byte	0x91
 2680 068d 74       		.sleb128 -12
 2681 068e 00       		.byte	0
 2682 068f 1A       		.uleb128 0x1a
 2683 0690 A9000000 		.4byte	.LASF53
 2684 0694 01       		.byte	0x1
 2685 0695 5001     		.2byte	0x150
 2686 0697 B4000000 		.4byte	0xb4
 2687 069b 00000000 		.4byte	.LFB127
 2688 069f 5C000000 		.4byte	.LFE127-.LFB127
 2689 06a3 01       		.uleb128 0x1
 2690 06a4 9C       		.byte	0x9c
 2691 06a5 D4060000 		.4byte	0x6d4
 2692 06a9 19       		.uleb128 0x19
 2693 06aa 667300   		.ascii	"fs\000"
 2694 06ad 01       		.byte	0x1
 2695 06ae 5001     		.2byte	0x150
 2696 06b0 DA000000 		.4byte	0xda
 2697 06b4 02       		.uleb128 0x2
 2698 06b5 91       		.byte	0x91
 2699 06b6 6F       		.sleb128 -17
 2700 06b7 1D       		.uleb128 0x1d
 2701 06b8 39020000 		.4byte	.LASF54
 2702 06bc 01       		.byte	0x1
 2703 06bd 5001     		.2byte	0x150
 2704 06bf CF000000 		.4byte	0xcf
 2705 06c3 02       		.uleb128 0x2
 2706 06c4 91       		.byte	0x91
 2707 06c5 68       		.sleb128 -24
 2708 06c6 1B       		.uleb128 0x1b
 2709 06c7 7000     		.ascii	"p\000"
 2710 06c9 01       		.byte	0x1
 2711 06ca 5101     		.2byte	0x151
 2712 06cc 99030000 		.4byte	0x399
 2713 06d0 02       		.uleb128 0x2
 2714 06d1 91       		.byte	0x91
ARM GAS  /tmp/ccuAeAGG.s 			page 49


 2715 06d2 74       		.sleb128 -12
 2716 06d3 00       		.byte	0
 2717 06d4 1A       		.uleb128 0x1a
 2718 06d5 73030000 		.4byte	.LASF55
 2719 06d9 01       		.byte	0x1
 2720 06da 5E01     		.2byte	0x15e
 2721 06dc B4000000 		.4byte	0xb4
 2722 06e0 00000000 		.4byte	.LFB128
 2723 06e4 5C000000 		.4byte	.LFE128-.LFB128
 2724 06e8 01       		.uleb128 0x1
 2725 06e9 9C       		.byte	0x9c
 2726 06ea 19070000 		.4byte	0x719
 2727 06ee 19       		.uleb128 0x19
 2728 06ef 667300   		.ascii	"fs\000"
 2729 06f2 01       		.byte	0x1
 2730 06f3 5E01     		.2byte	0x15e
 2731 06f5 DA000000 		.4byte	0xda
 2732 06f9 02       		.uleb128 0x2
 2733 06fa 91       		.byte	0x91
 2734 06fb 6F       		.sleb128 -17
 2735 06fc 1D       		.uleb128 0x1d
 2736 06fd 39020000 		.4byte	.LASF54
 2737 0701 01       		.byte	0x1
 2738 0702 5E01     		.2byte	0x15e
 2739 0704 CF000000 		.4byte	0xcf
 2740 0708 02       		.uleb128 0x2
 2741 0709 91       		.byte	0x91
 2742 070a 68       		.sleb128 -24
 2743 070b 1B       		.uleb128 0x1b
 2744 070c 7000     		.ascii	"p\000"
 2745 070e 01       		.byte	0x1
 2746 070f 5F01     		.2byte	0x15f
 2747 0711 99030000 		.4byte	0x399
 2748 0715 02       		.uleb128 0x2
 2749 0716 91       		.byte	0x91
 2750 0717 74       		.sleb128 -12
 2751 0718 00       		.byte	0
 2752 0719 1A       		.uleb128 0x1a
 2753 071a 93000000 		.4byte	.LASF56
 2754 071e 01       		.byte	0x1
 2755 071f 6C01     		.2byte	0x16c
 2756 0721 B4000000 		.4byte	0xb4
 2757 0725 00000000 		.4byte	.LFB129
 2758 0729 28000000 		.4byte	.LFE129-.LFB129
 2759 072d 01       		.uleb128 0x1
 2760 072e 9C       		.byte	0x9c
 2761 072f 41070000 		.4byte	0x741
 2762 0733 19       		.uleb128 0x19
 2763 0734 6600     		.ascii	"f\000"
 2764 0736 01       		.byte	0x1
 2765 0737 6C01     		.2byte	0x16c
 2766 0739 35010000 		.4byte	0x135
 2767 073d 02       		.uleb128 0x2
 2768 073e 91       		.byte	0x91
 2769 073f 74       		.sleb128 -12
 2770 0740 00       		.byte	0
 2771 0741 1E       		.uleb128 0x1e
ARM GAS  /tmp/ccuAeAGG.s 			page 50


 2772 0742 A4030000 		.4byte	0x3a4
 2773 0746 51070000 		.4byte	0x751
 2774 074a 1F       		.uleb128 0x1f
 2775 074b C8000000 		.4byte	0xc8
 2776 074f 00       		.byte	0
 2777 0750 00       		.byte	0
 2778 0751 20       		.uleb128 0x20
 2779 0752 6E000000 		.4byte	.LASF57
 2780 0756 01       		.byte	0x1
 2781 0757 25       		.byte	0x25
 2782 0758 41070000 		.4byte	0x741
 2783 075c 05       		.uleb128 0x5
 2784 075d 03       		.byte	0x3
 2785 075e 00000000 		.4byte	FsArray
 2786 0762 1E       		.uleb128 0x1e
 2787 0763 E6000000 		.4byte	0xe6
 2788 0767 72070000 		.4byte	0x772
 2789 076b 1F       		.uleb128 0x1f
 2790 076c C8000000 		.4byte	0xc8
 2791 0770 02       		.byte	0x2
 2792 0771 00       		.byte	0
 2793 0772 20       		.uleb128 0x20
 2794 0773 5F000000 		.4byte	.LASF58
 2795 0777 01       		.byte	0x1
 2796 0778 37       		.byte	0x37
 2797 0779 62070000 		.4byte	0x762
 2798 077d 05       		.uleb128 0x5
 2799 077e 03       		.byte	0x3
 2800 077f 00000000 		.4byte	gfileArr
 2801 0783 21       		.uleb128 0x21
 2802 0784 8F030000 		.4byte	.LASF59
 2803 0788 08       		.byte	0x8
 2804 0789 9806     		.2byte	0x698
 2805 078b E1000000 		.4byte	0xe1
 2806 078f 22       		.uleb128 0x22
 2807 0790 19030000 		.4byte	.LASF60
 2808 0794 01       		.byte	0x1
 2809 0795 38       		.byte	0x38
 2810 0796 35010000 		.4byte	0x135
 2811 079a 05       		.uleb128 0x5
 2812 079b 03       		.byte	0x3
 2813 079c 00000000 		.4byte	gfileStdIn
 2814 07a0 22       		.uleb128 0x22
 2815 07a1 24030000 		.4byte	.LASF61
 2816 07a5 01       		.byte	0x1
 2817 07a6 3A       		.byte	0x3a
 2818 07a7 35010000 		.4byte	0x135
 2819 07ab 05       		.uleb128 0x5
 2820 07ac 03       		.byte	0x3
 2821 07ad 00000000 		.4byte	gfileStdErr
 2822 07b1 22       		.uleb128 0x22
 2823 07b2 FC010000 		.4byte	.LASF62
 2824 07b6 01       		.byte	0x1
 2825 07b7 39       		.byte	0x39
 2826 07b8 35010000 		.4byte	0x135
 2827 07bc 05       		.uleb128 0x5
 2828 07bd 03       		.byte	0x3
ARM GAS  /tmp/ccuAeAGG.s 			page 51


 2829 07be 00000000 		.4byte	gfileStdOut
 2830 07c2 23       		.uleb128 0x23
 2831 07c3 DA020000 		.4byte	.LASF63
 2832 07c7 01       		.byte	0x1
 2833 07c8 14       		.byte	0x14
 2834 07c9 AA030000 		.4byte	0x3aa
 2835 07cd 00       		.byte	0
 2836              		.section	.debug_abbrev,"",%progbits
 2837              	.Ldebug_abbrev0:
 2838 0000 01       		.uleb128 0x1
 2839 0001 11       		.uleb128 0x11
 2840 0002 01       		.byte	0x1
 2841 0003 25       		.uleb128 0x25
 2842 0004 0E       		.uleb128 0xe
 2843 0005 13       		.uleb128 0x13
 2844 0006 0B       		.uleb128 0xb
 2845 0007 03       		.uleb128 0x3
 2846 0008 0E       		.uleb128 0xe
 2847 0009 55       		.uleb128 0x55
 2848 000a 17       		.uleb128 0x17
 2849 000b 11       		.uleb128 0x11
 2850 000c 01       		.uleb128 0x1
 2851 000d 10       		.uleb128 0x10
 2852 000e 17       		.uleb128 0x17
 2853 000f 00       		.byte	0
 2854 0010 00       		.byte	0
 2855 0011 02       		.uleb128 0x2
 2856 0012 24       		.uleb128 0x24
 2857 0013 00       		.byte	0
 2858 0014 0B       		.uleb128 0xb
 2859 0015 0B       		.uleb128 0xb
 2860 0016 3E       		.uleb128 0x3e
 2861 0017 0B       		.uleb128 0xb
 2862 0018 03       		.uleb128 0x3
 2863 0019 08       		.uleb128 0x8
 2864 001a 00       		.byte	0
 2865 001b 00       		.byte	0
 2866 001c 03       		.uleb128 0x3
 2867 001d 16       		.uleb128 0x16
 2868 001e 00       		.byte	0
 2869 001f 03       		.uleb128 0x3
 2870 0020 0E       		.uleb128 0xe
 2871 0021 3A       		.uleb128 0x3a
 2872 0022 0B       		.uleb128 0xb
 2873 0023 3B       		.uleb128 0x3b
 2874 0024 0B       		.uleb128 0xb
 2875 0025 49       		.uleb128 0x49
 2876 0026 13       		.uleb128 0x13
 2877 0027 00       		.byte	0
 2878 0028 00       		.byte	0
 2879 0029 04       		.uleb128 0x4
 2880 002a 24       		.uleb128 0x24
 2881 002b 00       		.byte	0
 2882 002c 0B       		.uleb128 0xb
 2883 002d 0B       		.uleb128 0xb
 2884 002e 3E       		.uleb128 0x3e
 2885 002f 0B       		.uleb128 0xb
ARM GAS  /tmp/ccuAeAGG.s 			page 52


 2886 0030 03       		.uleb128 0x3
 2887 0031 0E       		.uleb128 0xe
 2888 0032 00       		.byte	0
 2889 0033 00       		.byte	0
 2890 0034 05       		.uleb128 0x5
 2891 0035 0F       		.uleb128 0xf
 2892 0036 00       		.byte	0
 2893 0037 0B       		.uleb128 0xb
 2894 0038 0B       		.uleb128 0xb
 2895 0039 00       		.byte	0
 2896 003a 00       		.byte	0
 2897 003b 06       		.uleb128 0x6
 2898 003c 0F       		.uleb128 0xf
 2899 003d 00       		.byte	0
 2900 003e 0B       		.uleb128 0xb
 2901 003f 0B       		.uleb128 0xb
 2902 0040 49       		.uleb128 0x49
 2903 0041 13       		.uleb128 0x13
 2904 0042 00       		.byte	0
 2905 0043 00       		.byte	0
 2906 0044 07       		.uleb128 0x7
 2907 0045 26       		.uleb128 0x26
 2908 0046 00       		.byte	0
 2909 0047 49       		.uleb128 0x49
 2910 0048 13       		.uleb128 0x13
 2911 0049 00       		.byte	0
 2912 004a 00       		.byte	0
 2913 004b 08       		.uleb128 0x8
 2914 004c 35       		.uleb128 0x35
 2915 004d 00       		.byte	0
 2916 004e 49       		.uleb128 0x49
 2917 004f 13       		.uleb128 0x13
 2918 0050 00       		.byte	0
 2919 0051 00       		.byte	0
 2920 0052 09       		.uleb128 0x9
 2921 0053 13       		.uleb128 0x13
 2922 0054 01       		.byte	0x1
 2923 0055 03       		.uleb128 0x3
 2924 0056 0E       		.uleb128 0xe
 2925 0057 0B       		.uleb128 0xb
 2926 0058 0B       		.uleb128 0xb
 2927 0059 3A       		.uleb128 0x3a
 2928 005a 0B       		.uleb128 0xb
 2929 005b 3B       		.uleb128 0x3b
 2930 005c 0B       		.uleb128 0xb
 2931 005d 01       		.uleb128 0x1
 2932 005e 13       		.uleb128 0x13
 2933 005f 00       		.byte	0
 2934 0060 00       		.byte	0
 2935 0061 0A       		.uleb128 0xa
 2936 0062 0D       		.uleb128 0xd
 2937 0063 00       		.byte	0
 2938 0064 03       		.uleb128 0x3
 2939 0065 08       		.uleb128 0x8
 2940 0066 3A       		.uleb128 0x3a
 2941 0067 0B       		.uleb128 0xb
 2942 0068 3B       		.uleb128 0x3b
ARM GAS  /tmp/ccuAeAGG.s 			page 53


 2943 0069 0B       		.uleb128 0xb
 2944 006a 49       		.uleb128 0x49
 2945 006b 13       		.uleb128 0x13
 2946 006c 38       		.uleb128 0x38
 2947 006d 0B       		.uleb128 0xb
 2948 006e 00       		.byte	0
 2949 006f 00       		.byte	0
 2950 0070 0B       		.uleb128 0xb
 2951 0071 0D       		.uleb128 0xd
 2952 0072 00       		.byte	0
 2953 0073 03       		.uleb128 0x3
 2954 0074 0E       		.uleb128 0xe
 2955 0075 3A       		.uleb128 0x3a
 2956 0076 0B       		.uleb128 0xb
 2957 0077 3B       		.uleb128 0x3b
 2958 0078 0B       		.uleb128 0xb
 2959 0079 49       		.uleb128 0x49
 2960 007a 13       		.uleb128 0x13
 2961 007b 38       		.uleb128 0x38
 2962 007c 0B       		.uleb128 0xb
 2963 007d 00       		.byte	0
 2964 007e 00       		.byte	0
 2965 007f 0C       		.uleb128 0xc
 2966 0080 26       		.uleb128 0x26
 2967 0081 00       		.byte	0
 2968 0082 00       		.byte	0
 2969 0083 00       		.byte	0
 2970 0084 0D       		.uleb128 0xd
 2971 0085 15       		.uleb128 0x15
 2972 0086 01       		.byte	0x1
 2973 0087 27       		.uleb128 0x27
 2974 0088 19       		.uleb128 0x19
 2975 0089 49       		.uleb128 0x49
 2976 008a 13       		.uleb128 0x13
 2977 008b 01       		.uleb128 0x1
 2978 008c 13       		.uleb128 0x13
 2979 008d 00       		.byte	0
 2980 008e 00       		.byte	0
 2981 008f 0E       		.uleb128 0xe
 2982 0090 05       		.uleb128 0x5
 2983 0091 00       		.byte	0
 2984 0092 49       		.uleb128 0x49
 2985 0093 13       		.uleb128 0x13
 2986 0094 00       		.byte	0
 2987 0095 00       		.byte	0
 2988 0096 0F       		.uleb128 0xf
 2989 0097 15       		.uleb128 0x15
 2990 0098 01       		.byte	0x1
 2991 0099 27       		.uleb128 0x27
 2992 009a 19       		.uleb128 0x19
 2993 009b 01       		.uleb128 0x1
 2994 009c 13       		.uleb128 0x13
 2995 009d 00       		.byte	0
 2996 009e 00       		.byte	0
 2997 009f 10       		.uleb128 0x10
 2998 00a0 2E       		.uleb128 0x2e
 2999 00a1 00       		.byte	0
ARM GAS  /tmp/ccuAeAGG.s 			page 54


 3000 00a2 3F       		.uleb128 0x3f
 3001 00a3 19       		.uleb128 0x19
 3002 00a4 03       		.uleb128 0x3
 3003 00a5 0E       		.uleb128 0xe
 3004 00a6 3A       		.uleb128 0x3a
 3005 00a7 0B       		.uleb128 0xb
 3006 00a8 3B       		.uleb128 0x3b
 3007 00a9 0B       		.uleb128 0xb
 3008 00aa 27       		.uleb128 0x27
 3009 00ab 19       		.uleb128 0x19
 3010 00ac 11       		.uleb128 0x11
 3011 00ad 01       		.uleb128 0x1
 3012 00ae 12       		.uleb128 0x12
 3013 00af 06       		.uleb128 0x6
 3014 00b0 40       		.uleb128 0x40
 3015 00b1 18       		.uleb128 0x18
 3016 00b2 9742     		.uleb128 0x2117
 3017 00b4 19       		.uleb128 0x19
 3018 00b5 00       		.byte	0
 3019 00b6 00       		.byte	0
 3020 00b7 11       		.uleb128 0x11
 3021 00b8 2E       		.uleb128 0x2e
 3022 00b9 01       		.byte	0x1
 3023 00ba 3F       		.uleb128 0x3f
 3024 00bb 19       		.uleb128 0x19
 3025 00bc 03       		.uleb128 0x3
 3026 00bd 0E       		.uleb128 0xe
 3027 00be 3A       		.uleb128 0x3a
 3028 00bf 0B       		.uleb128 0xb
 3029 00c0 3B       		.uleb128 0x3b
 3030 00c1 0B       		.uleb128 0xb
 3031 00c2 27       		.uleb128 0x27
 3032 00c3 19       		.uleb128 0x19
 3033 00c4 49       		.uleb128 0x49
 3034 00c5 13       		.uleb128 0x13
 3035 00c6 11       		.uleb128 0x11
 3036 00c7 01       		.uleb128 0x1
 3037 00c8 12       		.uleb128 0x12
 3038 00c9 06       		.uleb128 0x6
 3039 00ca 40       		.uleb128 0x40
 3040 00cb 18       		.uleb128 0x18
 3041 00cc 9742     		.uleb128 0x2117
 3042 00ce 19       		.uleb128 0x19
 3043 00cf 01       		.uleb128 0x1
 3044 00d0 13       		.uleb128 0x13
 3045 00d1 00       		.byte	0
 3046 00d2 00       		.byte	0
 3047 00d3 12       		.uleb128 0x12
 3048 00d4 05       		.uleb128 0x5
 3049 00d5 00       		.byte	0
 3050 00d6 03       		.uleb128 0x3
 3051 00d7 0E       		.uleb128 0xe
 3052 00d8 3A       		.uleb128 0x3a
 3053 00d9 0B       		.uleb128 0xb
 3054 00da 3B       		.uleb128 0x3b
 3055 00db 0B       		.uleb128 0xb
 3056 00dc 49       		.uleb128 0x49
ARM GAS  /tmp/ccuAeAGG.s 			page 55


 3057 00dd 13       		.uleb128 0x13
 3058 00de 02       		.uleb128 0x2
 3059 00df 18       		.uleb128 0x18
 3060 00e0 00       		.byte	0
 3061 00e1 00       		.byte	0
 3062 00e2 13       		.uleb128 0x13
 3063 00e3 34       		.uleb128 0x34
 3064 00e4 00       		.byte	0
 3065 00e5 03       		.uleb128 0x3
 3066 00e6 08       		.uleb128 0x8
 3067 00e7 3A       		.uleb128 0x3a
 3068 00e8 0B       		.uleb128 0xb
 3069 00e9 3B       		.uleb128 0x3b
 3070 00ea 0B       		.uleb128 0xb
 3071 00eb 49       		.uleb128 0x49
 3072 00ec 13       		.uleb128 0x13
 3073 00ed 02       		.uleb128 0x2
 3074 00ee 18       		.uleb128 0x18
 3075 00ef 00       		.byte	0
 3076 00f0 00       		.byte	0
 3077 00f1 14       		.uleb128 0x14
 3078 00f2 2E       		.uleb128 0x2e
 3079 00f3 01       		.byte	0x1
 3080 00f4 3F       		.uleb128 0x3f
 3081 00f5 19       		.uleb128 0x19
 3082 00f6 03       		.uleb128 0x3
 3083 00f7 0E       		.uleb128 0xe
 3084 00f8 3A       		.uleb128 0x3a
 3085 00f9 0B       		.uleb128 0xb
 3086 00fa 3B       		.uleb128 0x3b
 3087 00fb 0B       		.uleb128 0xb
 3088 00fc 27       		.uleb128 0x27
 3089 00fd 19       		.uleb128 0x19
 3090 00fe 49       		.uleb128 0x49
 3091 00ff 13       		.uleb128 0x13
 3092 0100 11       		.uleb128 0x11
 3093 0101 01       		.uleb128 0x1
 3094 0102 12       		.uleb128 0x12
 3095 0103 06       		.uleb128 0x6
 3096 0104 40       		.uleb128 0x40
 3097 0105 18       		.uleb128 0x18
 3098 0106 9642     		.uleb128 0x2116
 3099 0108 19       		.uleb128 0x19
 3100 0109 01       		.uleb128 0x1
 3101 010a 13       		.uleb128 0x13
 3102 010b 00       		.byte	0
 3103 010c 00       		.byte	0
 3104 010d 15       		.uleb128 0x15
 3105 010e 0B       		.uleb128 0xb
 3106 010f 01       		.byte	0x1
 3107 0110 11       		.uleb128 0x11
 3108 0111 01       		.uleb128 0x1
 3109 0112 12       		.uleb128 0x12
 3110 0113 06       		.uleb128 0x6
 3111 0114 00       		.byte	0
 3112 0115 00       		.byte	0
 3113 0116 16       		.uleb128 0x16
ARM GAS  /tmp/ccuAeAGG.s 			page 56


 3114 0117 2E       		.uleb128 0x2e
 3115 0118 01       		.byte	0x1
 3116 0119 03       		.uleb128 0x3
 3117 011a 0E       		.uleb128 0xe
 3118 011b 3A       		.uleb128 0x3a
 3119 011c 0B       		.uleb128 0xb
 3120 011d 3B       		.uleb128 0x3b
 3121 011e 0B       		.uleb128 0xb
 3122 011f 27       		.uleb128 0x27
 3123 0120 19       		.uleb128 0x19
 3124 0121 49       		.uleb128 0x49
 3125 0122 13       		.uleb128 0x13
 3126 0123 11       		.uleb128 0x11
 3127 0124 01       		.uleb128 0x1
 3128 0125 12       		.uleb128 0x12
 3129 0126 06       		.uleb128 0x6
 3130 0127 40       		.uleb128 0x40
 3131 0128 18       		.uleb128 0x18
 3132 0129 9642     		.uleb128 0x2116
 3133 012b 19       		.uleb128 0x19
 3134 012c 01       		.uleb128 0x1
 3135 012d 13       		.uleb128 0x13
 3136 012e 00       		.byte	0
 3137 012f 00       		.byte	0
 3138 0130 17       		.uleb128 0x17
 3139 0131 05       		.uleb128 0x5
 3140 0132 00       		.byte	0
 3141 0133 03       		.uleb128 0x3
 3142 0134 08       		.uleb128 0x8
 3143 0135 3A       		.uleb128 0x3a
 3144 0136 0B       		.uleb128 0xb
 3145 0137 3B       		.uleb128 0x3b
 3146 0138 0B       		.uleb128 0xb
 3147 0139 49       		.uleb128 0x49
 3148 013a 13       		.uleb128 0x13
 3149 013b 02       		.uleb128 0x2
 3150 013c 18       		.uleb128 0x18
 3151 013d 00       		.byte	0
 3152 013e 00       		.byte	0
 3153 013f 18       		.uleb128 0x18
 3154 0140 2E       		.uleb128 0x2e
 3155 0141 01       		.byte	0x1
 3156 0142 3F       		.uleb128 0x3f
 3157 0143 19       		.uleb128 0x19
 3158 0144 03       		.uleb128 0x3
 3159 0145 0E       		.uleb128 0xe
 3160 0146 3A       		.uleb128 0x3a
 3161 0147 0B       		.uleb128 0xb
 3162 0148 3B       		.uleb128 0x3b
 3163 0149 05       		.uleb128 0x5
 3164 014a 27       		.uleb128 0x27
 3165 014b 19       		.uleb128 0x19
 3166 014c 11       		.uleb128 0x11
 3167 014d 01       		.uleb128 0x1
 3168 014e 12       		.uleb128 0x12
 3169 014f 06       		.uleb128 0x6
 3170 0150 40       		.uleb128 0x40
ARM GAS  /tmp/ccuAeAGG.s 			page 57


 3171 0151 18       		.uleb128 0x18
 3172 0152 9642     		.uleb128 0x2116
 3173 0154 19       		.uleb128 0x19
 3174 0155 01       		.uleb128 0x1
 3175 0156 13       		.uleb128 0x13
 3176 0157 00       		.byte	0
 3177 0158 00       		.byte	0
 3178 0159 19       		.uleb128 0x19
 3179 015a 05       		.uleb128 0x5
 3180 015b 00       		.byte	0
 3181 015c 03       		.uleb128 0x3
 3182 015d 08       		.uleb128 0x8
 3183 015e 3A       		.uleb128 0x3a
 3184 015f 0B       		.uleb128 0xb
 3185 0160 3B       		.uleb128 0x3b
 3186 0161 05       		.uleb128 0x5
 3187 0162 49       		.uleb128 0x49
 3188 0163 13       		.uleb128 0x13
 3189 0164 02       		.uleb128 0x2
 3190 0165 18       		.uleb128 0x18
 3191 0166 00       		.byte	0
 3192 0167 00       		.byte	0
 3193 0168 1A       		.uleb128 0x1a
 3194 0169 2E       		.uleb128 0x2e
 3195 016a 01       		.byte	0x1
 3196 016b 3F       		.uleb128 0x3f
 3197 016c 19       		.uleb128 0x19
 3198 016d 03       		.uleb128 0x3
 3199 016e 0E       		.uleb128 0xe
 3200 016f 3A       		.uleb128 0x3a
 3201 0170 0B       		.uleb128 0xb
 3202 0171 3B       		.uleb128 0x3b
 3203 0172 05       		.uleb128 0x5
 3204 0173 27       		.uleb128 0x27
 3205 0174 19       		.uleb128 0x19
 3206 0175 49       		.uleb128 0x49
 3207 0176 13       		.uleb128 0x13
 3208 0177 11       		.uleb128 0x11
 3209 0178 01       		.uleb128 0x1
 3210 0179 12       		.uleb128 0x12
 3211 017a 06       		.uleb128 0x6
 3212 017b 40       		.uleb128 0x40
 3213 017c 18       		.uleb128 0x18
 3214 017d 9642     		.uleb128 0x2116
 3215 017f 19       		.uleb128 0x19
 3216 0180 01       		.uleb128 0x1
 3217 0181 13       		.uleb128 0x13
 3218 0182 00       		.byte	0
 3219 0183 00       		.byte	0
 3220 0184 1B       		.uleb128 0x1b
 3221 0185 34       		.uleb128 0x34
 3222 0186 00       		.byte	0
 3223 0187 03       		.uleb128 0x3
 3224 0188 08       		.uleb128 0x8
 3225 0189 3A       		.uleb128 0x3a
 3226 018a 0B       		.uleb128 0xb
 3227 018b 3B       		.uleb128 0x3b
ARM GAS  /tmp/ccuAeAGG.s 			page 58


 3228 018c 05       		.uleb128 0x5
 3229 018d 49       		.uleb128 0x49
 3230 018e 13       		.uleb128 0x13
 3231 018f 02       		.uleb128 0x2
 3232 0190 18       		.uleb128 0x18
 3233 0191 00       		.byte	0
 3234 0192 00       		.byte	0
 3235 0193 1C       		.uleb128 0x1c
 3236 0194 2E       		.uleb128 0x2e
 3237 0195 01       		.byte	0x1
 3238 0196 3F       		.uleb128 0x3f
 3239 0197 19       		.uleb128 0x19
 3240 0198 03       		.uleb128 0x3
 3241 0199 0E       		.uleb128 0xe
 3242 019a 3A       		.uleb128 0x3a
 3243 019b 0B       		.uleb128 0xb
 3244 019c 3B       		.uleb128 0x3b
 3245 019d 05       		.uleb128 0x5
 3246 019e 27       		.uleb128 0x27
 3247 019f 19       		.uleb128 0x19
 3248 01a0 49       		.uleb128 0x49
 3249 01a1 13       		.uleb128 0x13
 3250 01a2 11       		.uleb128 0x11
 3251 01a3 01       		.uleb128 0x1
 3252 01a4 12       		.uleb128 0x12
 3253 01a5 06       		.uleb128 0x6
 3254 01a6 40       		.uleb128 0x40
 3255 01a7 18       		.uleb128 0x18
 3256 01a8 9742     		.uleb128 0x2117
 3257 01aa 19       		.uleb128 0x19
 3258 01ab 01       		.uleb128 0x1
 3259 01ac 13       		.uleb128 0x13
 3260 01ad 00       		.byte	0
 3261 01ae 00       		.byte	0
 3262 01af 1D       		.uleb128 0x1d
 3263 01b0 05       		.uleb128 0x5
 3264 01b1 00       		.byte	0
 3265 01b2 03       		.uleb128 0x3
 3266 01b3 0E       		.uleb128 0xe
 3267 01b4 3A       		.uleb128 0x3a
 3268 01b5 0B       		.uleb128 0xb
 3269 01b6 3B       		.uleb128 0x3b
 3270 01b7 05       		.uleb128 0x5
 3271 01b8 49       		.uleb128 0x49
 3272 01b9 13       		.uleb128 0x13
 3273 01ba 02       		.uleb128 0x2
 3274 01bb 18       		.uleb128 0x18
 3275 01bc 00       		.byte	0
 3276 01bd 00       		.byte	0
 3277 01be 1E       		.uleb128 0x1e
 3278 01bf 01       		.uleb128 0x1
 3279 01c0 01       		.byte	0x1
 3280 01c1 49       		.uleb128 0x49
 3281 01c2 13       		.uleb128 0x13
 3282 01c3 01       		.uleb128 0x1
 3283 01c4 13       		.uleb128 0x13
 3284 01c5 00       		.byte	0
ARM GAS  /tmp/ccuAeAGG.s 			page 59


 3285 01c6 00       		.byte	0
 3286 01c7 1F       		.uleb128 0x1f
 3287 01c8 21       		.uleb128 0x21
 3288 01c9 00       		.byte	0
 3289 01ca 49       		.uleb128 0x49
 3290 01cb 13       		.uleb128 0x13
 3291 01cc 2F       		.uleb128 0x2f
 3292 01cd 0B       		.uleb128 0xb
 3293 01ce 00       		.byte	0
 3294 01cf 00       		.byte	0
 3295 01d0 20       		.uleb128 0x20
 3296 01d1 34       		.uleb128 0x34
 3297 01d2 00       		.byte	0
 3298 01d3 03       		.uleb128 0x3
 3299 01d4 0E       		.uleb128 0xe
 3300 01d5 3A       		.uleb128 0x3a
 3301 01d6 0B       		.uleb128 0xb
 3302 01d7 3B       		.uleb128 0x3b
 3303 01d8 0B       		.uleb128 0xb
 3304 01d9 49       		.uleb128 0x49
 3305 01da 13       		.uleb128 0x13
 3306 01db 02       		.uleb128 0x2
 3307 01dc 18       		.uleb128 0x18
 3308 01dd 00       		.byte	0
 3309 01de 00       		.byte	0
 3310 01df 21       		.uleb128 0x21
 3311 01e0 34       		.uleb128 0x34
 3312 01e1 00       		.byte	0
 3313 01e2 03       		.uleb128 0x3
 3314 01e3 0E       		.uleb128 0xe
 3315 01e4 3A       		.uleb128 0x3a
 3316 01e5 0B       		.uleb128 0xb
 3317 01e6 3B       		.uleb128 0x3b
 3318 01e7 05       		.uleb128 0x5
 3319 01e8 49       		.uleb128 0x49
 3320 01e9 13       		.uleb128 0x13
 3321 01ea 3F       		.uleb128 0x3f
 3322 01eb 19       		.uleb128 0x19
 3323 01ec 3C       		.uleb128 0x3c
 3324 01ed 19       		.uleb128 0x19
 3325 01ee 00       		.byte	0
 3326 01ef 00       		.byte	0
 3327 01f0 22       		.uleb128 0x22
 3328 01f1 34       		.uleb128 0x34
 3329 01f2 00       		.byte	0
 3330 01f3 03       		.uleb128 0x3
 3331 01f4 0E       		.uleb128 0xe
 3332 01f5 3A       		.uleb128 0x3a
 3333 01f6 0B       		.uleb128 0xb
 3334 01f7 3B       		.uleb128 0x3b
 3335 01f8 0B       		.uleb128 0xb
 3336 01f9 49       		.uleb128 0x49
 3337 01fa 13       		.uleb128 0x13
 3338 01fb 3F       		.uleb128 0x3f
 3339 01fc 19       		.uleb128 0x19
 3340 01fd 02       		.uleb128 0x2
 3341 01fe 18       		.uleb128 0x18
ARM GAS  /tmp/ccuAeAGG.s 			page 60


 3342 01ff 00       		.byte	0
 3343 0200 00       		.byte	0
 3344 0201 23       		.uleb128 0x23
 3345 0202 34       		.uleb128 0x34
 3346 0203 00       		.byte	0
 3347 0204 03       		.uleb128 0x3
 3348 0205 0E       		.uleb128 0xe
 3349 0206 3A       		.uleb128 0x3a
 3350 0207 0B       		.uleb128 0xb
 3351 0208 3B       		.uleb128 0x3b
 3352 0209 0B       		.uleb128 0xb
 3353 020a 49       		.uleb128 0x49
 3354 020b 13       		.uleb128 0x13
 3355 020c 3F       		.uleb128 0x3f
 3356 020d 19       		.uleb128 0x19
 3357 020e 3C       		.uleb128 0x3c
 3358 020f 19       		.uleb128 0x19
 3359 0210 00       		.byte	0
 3360 0211 00       		.byte	0
 3361 0212 00       		.byte	0
 3362              		.section	.debug_aranges,"",%progbits
 3363 0000 AC000000 		.4byte	0xac
 3364 0004 0200     		.2byte	0x2
 3365 0006 00000000 		.4byte	.Ldebug_info0
 3366 000a 04       		.byte	0x4
 3367 000b 00       		.byte	0
 3368 000c 0000     		.2byte	0
 3369 000e 0000     		.2byte	0
 3370 0010 00000000 		.4byte	.LFB111
 3371 0014 02000000 		.4byte	.LFE111-.LFB111
 3372 0018 00000000 		.4byte	.LFB112
 3373 001c 02000000 		.4byte	.LFE112-.LFB112
 3374 0020 00000000 		.4byte	.LFB113
 3375 0024 50010000 		.4byte	.LFE113-.LFB113
 3376 0028 00000000 		.4byte	.LFB114
 3377 002c B0000000 		.4byte	.LFE114-.LFB114
 3378 0030 00000000 		.4byte	.LFB115
 3379 0034 B0000000 		.4byte	.LFE115-.LFB115
 3380 0038 00000000 		.4byte	.LFB116
 3381 003c AC000000 		.4byte	.LFE116-.LFB116
 3382 0040 00000000 		.4byte	.LFB117
 3383 0044 1C010000 		.4byte	.LFE117-.LFB117
 3384 0048 00000000 		.4byte	.LFB118
 3385 004c 86000000 		.4byte	.LFE118-.LFB118
 3386 0050 00000000 		.4byte	.LFB119
 3387 0054 B0000000 		.4byte	.LFE119-.LFB119
 3388 0058 00000000 		.4byte	.LFB120
 3389 005c 3A000000 		.4byte	.LFE120-.LFB120
 3390 0060 00000000 		.4byte	.LFB121
 3391 0064 64000000 		.4byte	.LFE121-.LFB121
 3392 0068 00000000 		.4byte	.LFB122
 3393 006c 64000000 		.4byte	.LFE122-.LFB122
 3394 0070 00000000 		.4byte	.LFB123
 3395 0074 24000000 		.4byte	.LFE123-.LFB123
 3396 0078 00000000 		.4byte	.LFB124
 3397 007c 54000000 		.4byte	.LFE124-.LFB124
 3398 0080 00000000 		.4byte	.LFB125
ARM GAS  /tmp/ccuAeAGG.s 			page 61


 3399 0084 3E000000 		.4byte	.LFE125-.LFB125
 3400 0088 00000000 		.4byte	.LFB126
 3401 008c 3E000000 		.4byte	.LFE126-.LFB126
 3402 0090 00000000 		.4byte	.LFB127
 3403 0094 5C000000 		.4byte	.LFE127-.LFB127
 3404 0098 00000000 		.4byte	.LFB128
 3405 009c 5C000000 		.4byte	.LFE128-.LFB128
 3406 00a0 00000000 		.4byte	.LFB129
 3407 00a4 28000000 		.4byte	.LFE129-.LFB129
 3408 00a8 00000000 		.4byte	0
 3409 00ac 00000000 		.4byte	0
 3410              		.section	.debug_ranges,"",%progbits
 3411              	.Ldebug_ranges0:
 3412 0000 00000000 		.4byte	.LFB111
 3413 0004 02000000 		.4byte	.LFE111
 3414 0008 00000000 		.4byte	.LFB112
 3415 000c 02000000 		.4byte	.LFE112
 3416 0010 00000000 		.4byte	.LFB113
 3417 0014 50010000 		.4byte	.LFE113
 3418 0018 00000000 		.4byte	.LFB114
 3419 001c B0000000 		.4byte	.LFE114
 3420 0020 00000000 		.4byte	.LFB115
 3421 0024 B0000000 		.4byte	.LFE115
 3422 0028 00000000 		.4byte	.LFB116
 3423 002c AC000000 		.4byte	.LFE116
 3424 0030 00000000 		.4byte	.LFB117
 3425 0034 1C010000 		.4byte	.LFE117
 3426 0038 00000000 		.4byte	.LFB118
 3427 003c 86000000 		.4byte	.LFE118
 3428 0040 00000000 		.4byte	.LFB119
 3429 0044 B0000000 		.4byte	.LFE119
 3430 0048 00000000 		.4byte	.LFB120
 3431 004c 3A000000 		.4byte	.LFE120
 3432 0050 00000000 		.4byte	.LFB121
 3433 0054 64000000 		.4byte	.LFE121
 3434 0058 00000000 		.4byte	.LFB122
 3435 005c 64000000 		.4byte	.LFE122
 3436 0060 00000000 		.4byte	.LFB123
 3437 0064 24000000 		.4byte	.LFE123
 3438 0068 00000000 		.4byte	.LFB124
 3439 006c 54000000 		.4byte	.LFE124
 3440 0070 00000000 		.4byte	.LFB125
 3441 0074 3E000000 		.4byte	.LFE125
 3442 0078 00000000 		.4byte	.LFB126
 3443 007c 3E000000 		.4byte	.LFE126
 3444 0080 00000000 		.4byte	.LFB127
 3445 0084 5C000000 		.4byte	.LFE127
 3446 0088 00000000 		.4byte	.LFB128
 3447 008c 5C000000 		.4byte	.LFE128
 3448 0090 00000000 		.4byte	.LFB129
 3449 0094 28000000 		.4byte	.LFE129
 3450 0098 00000000 		.4byte	0
 3451 009c 00000000 		.4byte	0
 3452              		.section	.debug_line,"",%progbits
 3453              	.Ldebug_line0:
 3454 0000 43050000 		.section	.debug_str,"MS",%progbits,1
 3454      0200CD01 
ARM GAS  /tmp/ccuAeAGG.s 			page 62


 3454      00000201 
 3454      FB0E0D00 
 3454      01010101 
 3455              	.LASF31:
 3456 0000 67657473 		.ascii	"getsize\000"
 3456      697A6500 
 3457              	.LASF27:
 3458 0008 636C6F73 		.ascii	"close\000"
 3458      6500
 3459              	.LASF33:
 3460 000e 756E6D6F 		.ascii	"unmount\000"
 3460      756E7400 
 3461              	.LASF22:
 3462 0016 4746494C 		.ascii	"GFILEVMT\000"
 3462      45564D54 
 3462      00
 3463              	.LASF29:
 3464 001f 77726974 		.ascii	"write\000"
 3464      6500
 3465              	.LASF5:
 3466 0025 73686F72 		.ascii	"short int\000"
 3466      7420696E 
 3466      7400
 3467              	.LASF2:
 3468 002f 73697A65 		.ascii	"size_t\000"
 3468      5F7400
 3469              	.LASF18:
 3470 0036 73697A65 		.ascii	"sizetype\000"
 3470      74797065 
 3470      00
 3471              	.LASF52:
 3472 003f 6766696C 		.ascii	"gfileEOF\000"
 3472      65454F46 
 3472      00
 3473              	.LASF30:
 3474 0048 73657470 		.ascii	"setpos\000"
 3474      6F7300
 3475              	.LASF39:
 3476 004f 6D6F6465 		.ascii	"mode\000"
 3476      00
 3477              	.LASF6:
 3478 0054 5F5F7569 		.ascii	"__uint16_t\000"
 3478      6E743136 
 3478      5F7400
 3479              	.LASF58:
 3480 005f 6766696C 		.ascii	"gfileArr\000"
 3480      65417272 
 3480      00
 3481              	.LASF20:
 3482 0068 4746494C 		.ascii	"GFILE\000"
 3482      4500
 3483              	.LASF57:
 3484 006e 46734172 		.ascii	"FsArray\000"
 3484      72617900 
 3485              	.LASF13:
 3486 0076 75696E74 		.ascii	"uint8_t\000"
 3486      385F7400 
ARM GAS  /tmp/ccuAeAGG.s 			page 63


 3487              	.LASF25:
 3488 007e 66696C65 		.ascii	"filesize\000"
 3488      73697A65 
 3488      00
 3489              	.LASF38:
 3490 0087 6766696C 		.ascii	"gfileExists\000"
 3490      65457869 
 3490      73747300 
 3491              	.LASF56:
 3492 0093 6766696C 		.ascii	"gfileSync\000"
 3492      6553796E 
 3492      6300
 3493              	.LASF1:
 3494 009d 7369676E 		.ascii	"signed char\000"
 3494      65642063 
 3494      68617200 
 3495              	.LASF53:
 3496 00a9 6766696C 		.ascii	"gfileMount\000"
 3496      654D6F75 
 3496      6E7400
 3497              	.LASF32:
 3498 00b4 6D6F756E 		.ascii	"mount\000"
 3498      7400
 3499              	.LASF28:
 3500 00ba 72656164 		.ascii	"read\000"
 3500      00
 3501              	.LASF11:
 3502 00bf 6C6F6E67 		.ascii	"long long int\000"
 3502      206C6F6E 
 3502      6720696E 
 3502      7400
 3503              	.LASF64:
 3504 00cd 474E5520 		.ascii	"GNU C 4.9.3 20150303 (release) [ARM/embedded-4_9-br"
 3504      4320342E 
 3504      392E3320 
 3504      32303135 
 3504      30333033 
 3505 0100 616E6368 		.ascii	"anch revision 221220] -mcpu=cortex-m4 -mfloat-abi=h"
 3505      20726576 
 3505      6973696F 
 3505      6E203232 
 3505      31323230 
 3506 0133 61726420 		.ascii	"ard -mfpu=fpv4-sp-d16 -mno-thumb-interwork -mthumb "
 3506      2D6D6670 
 3506      753D6670 
 3506      76342D73 
 3506      702D6431 
 3507 0166 2D676764 		.ascii	"-ggdb -fomit-frame-pointer -falign-functions=16 -ff"
 3507      62202D66 
 3507      6F6D6974 
 3507      2D667261 
 3507      6D652D70 
 3508 0199 756E6374 		.ascii	"unction-sections -fdata-sections -fno-common -fsing"
 3508      696F6E2D 
 3508      73656374 
 3508      696F6E73 
 3508      202D6664 
ARM GAS  /tmp/ccuAeAGG.s 			page 64


 3509 01cc 6C652D70 		.ascii	"le-precision-constant\000"
 3509      72656369 
 3509      73696F6E 
 3509      2D636F6E 
 3509      7374616E 
 3510              	.LASF9:
 3511 01e2 6C6F6E67 		.ascii	"long int\000"
 3511      20696E74 
 3511      00
 3512              	.LASF3:
 3513 01eb 5F5F7569 		.ascii	"__uint8_t\000"
 3513      6E74385F 
 3513      7400
 3514              	.LASF23:
 3515 01f5 70726566 		.ascii	"prefix\000"
 3515      697800
 3516              	.LASF62:
 3517 01fc 6766696C 		.ascii	"gfileStdOut\000"
 3517      65537464 
 3517      4F757400 
 3518              	.LASF4:
 3519 0208 756E7369 		.ascii	"unsigned char\000"
 3519      676E6564 
 3519      20636861 
 3519      7200
 3520              	.LASF41:
 3521 0216 6766696C 		.ascii	"gfileDelete\000"
 3521      6544656C 
 3521      65746500 
 3522              	.LASF35:
 3523 0222 5F676669 		.ascii	"_gfileInit\000"
 3523      6C65496E 
 3523      697400
 3524              	.LASF43:
 3525 022d 6766696C 		.ascii	"gfileRename\000"
 3525      6552656E 
 3525      616D6500 
 3526              	.LASF54:
 3527 0239 64726976 		.ascii	"drive\000"
 3527      6500
 3528              	.LASF45:
 3529 023f 6E65776E 		.ascii	"newname\000"
 3529      616D6500 
 3530              	.LASF48:
 3531 0247 6766696C 		.ascii	"gfileWrite\000"
 3531      65577269 
 3531      746500
 3532              	.LASF21:
 3533 0252 666C6167 		.ascii	"flags\000"
 3533      7300
 3534              	.LASF12:
 3535 0258 6C6F6E67 		.ascii	"long long unsigned int\000"
 3535      206C6F6E 
 3535      6720756E 
 3535      7369676E 
 3535      65642069 
 3536              	.LASF37:
ARM GAS  /tmp/ccuAeAGG.s 			page 65


 3537 026f 5F676669 		.ascii	"_gfileFindSlot\000"
 3537      6C654669 
 3537      6E64536C 
 3537      6F7400
 3538              	.LASF0:
 3539 027e 756E7369 		.ascii	"unsigned int\000"
 3539      676E6564 
 3539      20696E74 
 3539      00
 3540              	.LASF14:
 3541 028b 75696E74 		.ascii	"uint16_t\000"
 3541      31365F74 
 3541      00
 3542              	.LASF51:
 3543 0294 6766696C 		.ascii	"gfileGetSize\000"
 3543      65476574 
 3543      53697A65 
 3543      00
 3544              	.LASF24:
 3545 02a1 65786973 		.ascii	"exists\000"
 3545      747300
 3546              	.LASF40:
 3547 02a8 666E616D 		.ascii	"fname\000"
 3547      6500
 3548              	.LASF50:
 3549 02ae 6766696C 		.ascii	"gfileSetPos\000"
 3549      65536574 
 3549      506F7300 
 3550              	.LASF7:
 3551 02ba 73686F72 		.ascii	"short unsigned int\000"
 3551      7420756E 
 3551      7369676E 
 3551      65642069 
 3551      6E7400
 3552              	.LASF19:
 3553 02cd 63686172 		.ascii	"char\000"
 3553      00
 3554              	.LASF15:
 3555 02d2 696E7433 		.ascii	"int32_t\000"
 3555      325F7400 
 3556              	.LASF63:
 3557 02da 4673524F 		.ascii	"FsROMVMT\000"
 3557      4D564D54 
 3557      00
 3558              	.LASF36:
 3559 02e3 5F676669 		.ascii	"_gfileDeinit\000"
 3559      6C654465 
 3559      696E6974 
 3559      00
 3560              	.LASF49:
 3561 02f0 6766696C 		.ascii	"gfileGetPos\000"
 3561      65476574 
 3561      506F7300 
 3562              	.LASF17:
 3563 02fc 5F426F6F 		.ascii	"_Bool\000"
 3563      6C00
 3564              	.LASF34:
ARM GAS  /tmp/ccuAeAGG.s 			page 66


 3565 0302 73796E63 		.ascii	"sync\000"
 3565      00
 3566              	.LASF10:
 3567 0307 6C6F6E67 		.ascii	"long unsigned int\000"
 3567      20756E73 
 3567      69676E65 
 3567      6420696E 
 3567      7400
 3568              	.LASF60:
 3569 0319 6766696C 		.ascii	"gfileStdIn\000"
 3569      65537464 
 3569      496E00
 3570              	.LASF61:
 3571 0324 6766696C 		.ascii	"gfileStdErr\000"
 3571      65537464 
 3571      45727200 
 3572              	.LASF65:
 3573 0330 2F686F6D 		.ascii	"/home/makkmarci/workspace/ugfx/src/gfile/gfile.c\000"
 3573      652F6D61 
 3573      6B6B6D61 
 3573      7263692F 
 3573      776F726B 
 3574              	.LASF8:
 3575 0361 5F5F696E 		.ascii	"__int32_t\000"
 3575      7433325F 
 3575      7400
 3576              	.LASF44:
 3577 036b 6F6C646E 		.ascii	"oldname\000"
 3577      616D6500 
 3578              	.LASF55:
 3579 0373 6766696C 		.ascii	"gfileUnmount\000"
 3579      65556E6D 
 3579      6F756E74 
 3579      00
 3580              	.LASF26:
 3581 0380 6F70656E 		.ascii	"open\000"
 3581      00
 3582              	.LASF47:
 3583 0385 6766696C 		.ascii	"gfileRead\000"
 3583      65526561 
 3583      6400
 3584              	.LASF59:
 3585 038f 49544D5F 		.ascii	"ITM_RxBuffer\000"
 3585      52784275 
 3585      66666572 
 3585      00
 3586              	.LASF46:
 3587 039c 6766696C 		.ascii	"gfileOpen\000"
 3587      654F7065 
 3587      6E00
 3588              	.LASF66:
 3589 03a6 74657374 		.ascii	"testopen\000"
 3589      6F70656E 
 3589      00
 3590              	.LASF42:
 3591 03af 6766696C 		.ascii	"gfileGetFilesize\000"
 3591      65476574 
ARM GAS  /tmp/ccuAeAGG.s 			page 67


 3591      46696C65 
 3591      73697A65 
 3591      00
 3592              	.LASF16:
 3593 03c0 626F6F6C 		.ascii	"bool_t\000"
 3593      5F7400
 3594              	.LASF67:
 3595 03c7 6766696C 		.ascii	"gfileClose\000"
 3595      65436C6F 
 3595      736500
 3596              		.ident	"GCC: (GNU Tools for ARM Embedded Processors) 4.9.3 20150303 (release) [ARM/embedded-4_9-br
ARM GAS  /tmp/ccuAeAGG.s 			page 68


DEFINED SYMBOLS
                            *ABS*:00000000 gfile.c
     /tmp/ccuAeAGG.s:21     .data.FsArray:00000000 $d
     /tmp/ccuAeAGG.s:24     .data.FsArray:00000000 FsArray
     /tmp/ccuAeAGG.s:27     .bss.gfileArr:00000000 $d
     /tmp/ccuAeAGG.s:30     .bss.gfileArr:00000000 gfileArr
     /tmp/ccuAeAGG.s:37     .bss.gfileStdIn:00000000 gfileStdIn
     /tmp/ccuAeAGG.s:34     .bss.gfileStdIn:00000000 $d
     /tmp/ccuAeAGG.s:44     .bss.gfileStdOut:00000000 gfileStdOut
     /tmp/ccuAeAGG.s:41     .bss.gfileStdOut:00000000 $d
     /tmp/ccuAeAGG.s:51     .bss.gfileStdErr:00000000 gfileStdErr
     /tmp/ccuAeAGG.s:48     .bss.gfileStdErr:00000000 $d
     /tmp/ccuAeAGG.s:54     .text._gfileInit:00000000 $t
     /tmp/ccuAeAGG.s:60     .text._gfileInit:00000000 _gfileInit
     /tmp/ccuAeAGG.s:74     .text._gfileDeinit:00000000 $t
     /tmp/ccuAeAGG.s:80     .text._gfileDeinit:00000000 _gfileDeinit
     /tmp/ccuAeAGG.s:93     .text._gfileFindSlot:00000000 $t
     /tmp/ccuAeAGG.s:99     .text._gfileFindSlot:00000000 _gfileFindSlot
     /tmp/ccuAeAGG.s:318    .text._gfileFindSlot:00000148 $d
     /tmp/ccuAeAGG.s:324    .text.gfileExists:00000000 $t
     /tmp/ccuAeAGG.s:330    .text.gfileExists:00000000 gfileExists
     /tmp/ccuAeAGG.s:455    .text.gfileExists:000000a8 $d
     /tmp/ccuAeAGG.s:461    .text.gfileDelete:00000000 $t
     /tmp/ccuAeAGG.s:467    .text.gfileDelete:00000000 gfileDelete
     /tmp/ccuAeAGG.s:592    .text.gfileDelete:000000a8 $d
     /tmp/ccuAeAGG.s:598    .text.gfileGetFilesize:00000000 $t
     /tmp/ccuAeAGG.s:604    .text.gfileGetFilesize:00000000 gfileGetFilesize
     /tmp/ccuAeAGG.s:722    .text.gfileGetFilesize:000000a4 $d
     /tmp/ccuAeAGG.s:728    .text.gfileRename:00000000 $t
     /tmp/ccuAeAGG.s:734    .text.gfileRename:00000000 gfileRename
     /tmp/ccuAeAGG.s:932    .text.gfileRename:00000114 $d
     /tmp/ccuAeAGG.s:938    .text.testopen:00000000 $t
     /tmp/ccuAeAGG.s:943    .text.testopen:00000000 testopen
     /tmp/ccuAeAGG.s:1036   .text.gfileOpen:00000000 $t
     /tmp/ccuAeAGG.s:1042   .text.gfileOpen:00000000 gfileOpen
     /tmp/ccuAeAGG.s:1165   .text.gfileOpen:000000a8 $d
     /tmp/ccuAeAGG.s:1171   .text.gfileClose:00000000 $t
     /tmp/ccuAeAGG.s:1177   .text.gfileClose:00000000 gfileClose
     /tmp/ccuAeAGG.s:1230   .text.gfileRead:00000000 $t
     /tmp/ccuAeAGG.s:1236   .text.gfileRead:00000000 gfileRead
     /tmp/ccuAeAGG.s:1314   .text.gfileWrite:00000000 $t
     /tmp/ccuAeAGG.s:1320   .text.gfileWrite:00000000 gfileWrite
     /tmp/ccuAeAGG.s:1398   .text.gfileGetPos:00000000 $t
     /tmp/ccuAeAGG.s:1404   .text.gfileGetPos:00000000 gfileGetPos
     /tmp/ccuAeAGG.s:1443   .text.gfileSetPos:00000000 $t
     /tmp/ccuAeAGG.s:1449   .text.gfileSetPos:00000000 gfileSetPos
     /tmp/ccuAeAGG.s:1517   .text.gfileGetSize:00000000 $t
     /tmp/ccuAeAGG.s:1523   .text.gfileGetSize:00000000 gfileGetSize
     /tmp/ccuAeAGG.s:1578   .text.gfileEOF:00000000 $t
     /tmp/ccuAeAGG.s:1584   .text.gfileEOF:00000000 gfileEOF
     /tmp/ccuAeAGG.s:1639   .text.gfileMount:00000000 $t
     /tmp/ccuAeAGG.s:1645   .text.gfileMount:00000000 gfileMount
     /tmp/ccuAeAGG.s:1712   .text.gfileMount:00000054 $d
     /tmp/ccuAeAGG.s:1718   .text.gfileUnmount:00000000 $t
     /tmp/ccuAeAGG.s:1724   .text.gfileUnmount:00000000 gfileUnmount
     /tmp/ccuAeAGG.s:1791   .text.gfileUnmount:00000054 $d
     /tmp/ccuAeAGG.s:1797   .text.gfileSync:00000000 $t
ARM GAS  /tmp/ccuAeAGG.s 			page 69


     /tmp/ccuAeAGG.s:1803   .text.gfileSync:00000000 gfileSync
                     .debug_frame:00000010 $d
     /tmp/ccuAeAGG.s:727    .text.gfileGetFilesize:000000ac $t
     /tmp/ccuAeAGG.s:937    .text.gfileRename:0000011c $t
     /tmp/ccuAeAGG.s:1717   .text.gfileMount:0000005c $t
     /tmp/ccuAeAGG.s:1796   .text.gfileUnmount:0000005c $t

UNDEFINED SYMBOLS
FsROMVMT
