ARM GAS  /tmp/cceMmcx6.s 			page 1


   1              		.syntax unified
   2              		.cpu cortex-m4
   3              		.eabi_attribute 27, 1
   4              		.eabi_attribute 28, 1
   5              		.fpu fpv4-sp-d16
   6              		.eabi_attribute 20, 1
   7              		.eabi_attribute 21, 1
   8              		.eabi_attribute 23, 3
   9              		.eabi_attribute 24, 1
  10              		.eabi_attribute 25, 1
  11              		.eabi_attribute 26, 1
  12              		.eabi_attribute 30, 6
  13              		.eabi_attribute 34, 1
  14              		.eabi_attribute 18, 4
  15              		.thumb
  16              		.file	"gfile_fs_mem.c"
  17              		.text
  18              	.Ltext0:
  19              		.cfi_sections	.debug_frame
  20              		.section	.rodata.FsMemVMT,"a",%progbits
  21              		.align	2
  22              		.type	FsMemVMT, %object
  23              		.size	FsMemVMT, 60
  24              	FsMemVMT:
  25 0000 05       		.byte	5
  26 0001 00       		.byte	0
  27 0002 0000     		.space	2
  28 0004 00000000 		.word	0
  29 0008 00000000 		.word	0
  30 000c 00000000 		.word	0
  31 0010 00000000 		.word	0
  32 0014 00000000 		.word	0
  33 0018 00000000 		.word	0
  34 001c 00000000 		.word	MEMRead
  35 0020 00000000 		.word	MEMWrite
  36 0024 00000000 		.word	MEMSetpos
  37 0028 00000000 		.word	0
  38 002c 00000000 		.word	0
  39 0030 00000000 		.word	0
  40 0034 00000000 		.word	0
  41 0038 00000000 		.word	0
  42              		.section	.text.MEMRead,"ax",%progbits
  43              		.align	2
  44              		.p2align 4,,15
  45              		.thumb
  46              		.thumb_func
  47              		.type	MEMRead, %function
  48              	MEMRead:
  49              	.LFB111:
  50              		.file 1 "/home/makkmarci/workspace/ugfx/src/gfile/gfile_fs_mem.c"
  51              		.loc 1 36 0
  52              		.cfi_startproc
  53              		@ args = 0, pretend = 0, frame = 16
  54              		@ frame_needed = 0, uses_anonymous_args = 0
  55 0000 00B5     		push	{lr}
  56              		.cfi_def_cfa_offset 4
  57              		.cfi_offset 14, -4
ARM GAS  /tmp/cceMmcx6.s 			page 2


  58 0002 85B0     		sub	sp, sp, #20
  59              		.cfi_def_cfa_offset 24
  60 0004 0390     		str	r0, [sp, #12]
  61 0006 0291     		str	r1, [sp, #8]
  62 0008 0192     		str	r2, [sp, #4]
  63              		.loc 1 37 0
  64 000a 039B     		ldr	r3, [sp, #12]
  65 000c 9B68     		ldr	r3, [r3, #8]
  66 000e 039A     		ldr	r2, [sp, #12]
  67 0010 D268     		ldr	r2, [r2, #12]
  68 0012 1A44     		add	r2, r2, r3
  69 0014 019B     		ldr	r3, [sp, #4]
  70 0016 0298     		ldr	r0, [sp, #8]
  71 0018 1146     		mov	r1, r2
  72 001a 1A46     		mov	r2, r3
  73 001c FFF7FEFF 		bl	memcpy
  74              		.loc 1 38 0
  75 0020 019B     		ldr	r3, [sp, #4]
  76              		.loc 1 39 0
  77 0022 1846     		mov	r0, r3
  78 0024 05B0     		add	sp, sp, #20
  79              		.cfi_def_cfa_offset 4
  80              		@ sp needed
  81 0026 5DF804FB 		ldr	pc, [sp], #4
  82              		.cfi_endproc
  83              	.LFE111:
  84              		.size	MEMRead, .-MEMRead
  85 002a 00BFAFF3 		.section	.text.MEMWrite,"ax",%progbits
  85      0080
  86              		.align	2
  87              		.p2align 4,,15
  88              		.thumb
  89              		.thumb_func
  90              		.type	MEMWrite, %function
  91              	MEMWrite:
  92              	.LFB112:
  93              		.loc 1 40 0
  94              		.cfi_startproc
  95              		@ args = 0, pretend = 0, frame = 16
  96              		@ frame_needed = 0, uses_anonymous_args = 0
  97 0000 00B5     		push	{lr}
  98              		.cfi_def_cfa_offset 4
  99              		.cfi_offset 14, -4
 100 0002 85B0     		sub	sp, sp, #20
 101              		.cfi_def_cfa_offset 24
 102 0004 0390     		str	r0, [sp, #12]
 103 0006 0291     		str	r1, [sp, #8]
 104 0008 0192     		str	r2, [sp, #4]
 105              		.loc 1 41 0
 106 000a 039B     		ldr	r3, [sp, #12]
 107 000c 9B68     		ldr	r3, [r3, #8]
 108 000e 039A     		ldr	r2, [sp, #12]
 109 0010 D268     		ldr	r2, [r2, #12]
 110 0012 1A44     		add	r2, r2, r3
 111 0014 019B     		ldr	r3, [sp, #4]
 112 0016 1046     		mov	r0, r2
 113 0018 0299     		ldr	r1, [sp, #8]
ARM GAS  /tmp/cceMmcx6.s 			page 3


 114 001a 1A46     		mov	r2, r3
 115 001c FFF7FEFF 		bl	memcpy
 116              		.loc 1 42 0
 117 0020 019B     		ldr	r3, [sp, #4]
 118              		.loc 1 43 0
 119 0022 1846     		mov	r0, r3
 120 0024 05B0     		add	sp, sp, #20
 121              		.cfi_def_cfa_offset 4
 122              		@ sp needed
 123 0026 5DF804FB 		ldr	pc, [sp], #4
 124              		.cfi_endproc
 125              	.LFE112:
 126              		.size	MEMWrite, .-MEMWrite
 127 002a 00BFAFF3 		.section	.text.MEMSetpos,"ax",%progbits
 127      0080
 128              		.align	2
 129              		.p2align 4,,15
 130              		.thumb
 131              		.thumb_func
 132              		.type	MEMSetpos, %function
 133              	MEMSetpos:
 134              	.LFB113:
 135              		.loc 1 44 0
 136              		.cfi_startproc
 137              		@ args = 0, pretend = 0, frame = 8
 138              		@ frame_needed = 0, uses_anonymous_args = 0
 139              		@ link register save eliminated.
 140 0000 82B0     		sub	sp, sp, #8
 141              		.cfi_def_cfa_offset 8
 142 0002 0190     		str	r0, [sp, #4]
 143 0004 0091     		str	r1, [sp]
 144              		.loc 1 47 0
 145 0006 0123     		movs	r3, #1
 146              		.loc 1 48 0
 147 0008 1846     		mov	r0, r3
 148 000a 02B0     		add	sp, sp, #8
 149              		.cfi_def_cfa_offset 0
 150              		@ sp needed
 151 000c 7047     		bx	lr
 152              		.cfi_endproc
 153              	.LFE113:
 154              		.size	MEMSetpos, .-MEMSetpos
 155 000e 00BF     		.section	.text.gfileOpenMemory,"ax",%progbits
 156              		.align	2
 157              		.p2align 4,,15
 158              		.global	gfileOpenMemory
 159              		.thumb
 160              		.thumb_func
 161              		.type	gfileOpenMemory, %function
 162              	gfileOpenMemory:
 163              	.LFB114:
 164              		.loc 1 50 0
 165              		.cfi_startproc
 166              		@ args = 0, pretend = 0, frame = 16
 167              		@ frame_needed = 0, uses_anonymous_args = 0
 168 0000 00B5     		push	{lr}
 169              		.cfi_def_cfa_offset 4
ARM GAS  /tmp/cceMmcx6.s 			page 4


 170              		.cfi_offset 14, -4
 171 0002 85B0     		sub	sp, sp, #20
 172              		.cfi_def_cfa_offset 24
 173 0004 0190     		str	r0, [sp, #4]
 174 0006 0091     		str	r1, [sp]
 175              		.loc 1 54 0
 176 0008 0098     		ldr	r0, [sp]
 177 000a FFF7FEFF 		bl	_gfileFindSlot
 178 000e 0390     		str	r0, [sp, #12]
 179 0010 039B     		ldr	r3, [sp, #12]
 180 0012 002B     		cmp	r3, #0
 181 0014 01D1     		bne	.L8
 182              		.loc 1 55 0
 183 0016 0023     		movs	r3, #0
 184 0018 10E0     		b	.L9
 185              	.L8:
 186              		.loc 1 58 0
 187 001a 039B     		ldr	r3, [sp, #12]
 188 001c 094A     		ldr	r2, .L10
 189 001e 1A60     		str	r2, [r3]
 190              		.loc 1 59 0
 191 0020 039B     		ldr	r3, [sp, #12]
 192 0022 019A     		ldr	r2, [sp, #4]
 193 0024 9A60     		str	r2, [r3, #8]
 194              		.loc 1 60 0
 195 0026 039B     		ldr	r3, [sp, #12]
 196 0028 0022     		movs	r2, #0
 197 002a DA60     		str	r2, [r3, #12]
 198              		.loc 1 61 0
 199 002c 039B     		ldr	r3, [sp, #12]
 200 002e 9B88     		ldrh	r3, [r3, #4]
 201 0030 43F04103 		orr	r3, r3, #65
 202 0034 9AB2     		uxth	r2, r3
 203 0036 039B     		ldr	r3, [sp, #12]
 204 0038 9A80     		strh	r2, [r3, #4]	@ movhi
 205              		.loc 1 62 0
 206 003a 039B     		ldr	r3, [sp, #12]
 207              	.L9:
 208              		.loc 1 63 0
 209 003c 1846     		mov	r0, r3
 210 003e 05B0     		add	sp, sp, #20
 211              		.cfi_def_cfa_offset 4
 212              		@ sp needed
 213 0040 5DF804FB 		ldr	pc, [sp], #4
 214              	.L11:
 215              		.align	2
 216              	.L10:
 217 0044 00000000 		.word	FsMemVMT
 218              		.cfi_endproc
 219              	.LFE114:
 220              		.size	gfileOpenMemory, .-gfileOpenMemory
 221 0048 AFF30080 		.text
 221      AFF30080 
 222              	.Letext0:
 223              		.file 2 "/opt/gcc-arm-none-eabi/arm-none-eabi/include/machine/_default_types.h"
 224              		.file 3 "/opt/gcc-arm-none-eabi/arm-none-eabi/include/stdint.h"
 225              		.file 4 "/home/makkmarci/workspace/ChibiOS_2.6.8/os/ports/GCC/ARMCMx/chtypes.h"
ARM GAS  /tmp/cceMmcx6.s 			page 5


 226              		.file 5 "/home/makkmarci/workspace/ugfx/src/gfile/gfile.h"
 227              		.file 6 "/home/makkmarci/workspace/ugfx/src/gfile/gfile_fs.h"
 228              		.file 7 "/home/makkmarci/workspace/ChibiOS_2.6.8/os/ports/common/ARMCMx/CMSIS/include/core_cm4.h"