ARM GAS  /tmp/cczctaTb.s 			page 1


   1              		.syntax unified
   2              		.cpu cortex-m4
   3              		.eabi_attribute 27, 1
   4              		.eabi_attribute 28, 1
   5              		.fpu fpv4-sp-d16
   6              		.eabi_attribute 20, 1
   7              		.eabi_attribute 21, 1
   8              		.eabi_attribute 23, 3
   9              		.eabi_attribute 24, 1
  10              		.eabi_attribute 25, 1
  11              		.eabi_attribute 26, 1
  12              		.eabi_attribute 30, 6
  13              		.eabi_attribute 34, 1
  14              		.eabi_attribute 18, 4
  15              		.thumb
  16              		.file	"gfx.c"
  17              		.text
  18              	.Ltext0:
  19              		.cfi_sections	.debug_frame
  20              		.section	.bss.initDone,"aw",%nobits
  21              		.type	initDone, %object
  22              		.size	initDone, 1
  23              	initDone:
  24 0000 00       		.space	1
  25              		.section	.text.gfxInit,"ax",%progbits
  26              		.align	2
  27              		.p2align 4,,15
  28              		.global	gfxInit
  29              		.thumb
  30              		.thumb_func
  31              		.type	gfxInit, %function
  32              	gfxInit:
  33              	.LFB111:
  34              		.file 1 "/home/makkmarci/workspace/ugfx/src/gfx.c"
  35              		.loc 1 75 0
  36              		.cfi_startproc
  37              		@ args = 0, pretend = 0, frame = 0
  38              		@ frame_needed = 0, uses_anonymous_args = 0
  39 0000 08B5     		push	{r3, lr}
  40              		.cfi_def_cfa_offset 8
  41              		.cfi_offset 3, -8
  42              		.cfi_offset 14, -4
  43              		.loc 1 77 0
  44 0002 0D4B     		ldr	r3, .L4
  45 0004 1B78     		ldrb	r3, [r3]	@ zero_extendqisi2
  46 0006 002B     		cmp	r3, #0
  47 0008 00D0     		beq	.L2
  48              		.loc 1 78 0
  49 000a 14E0     		b	.L1
  50              	.L2:
  51              		.loc 1 79 0
  52 000c 0A4B     		ldr	r3, .L4
  53 000e 0122     		movs	r2, #1
  54 0010 1A70     		strb	r2, [r3]
  55              		.loc 1 83 0
  56 0012 FFF7FEFF 		bl	_gosInit
  57              		.loc 1 88 0
ARM GAS  /tmp/cczctaTb.s 			page 2


  58 0016 FFF7FEFF 		bl	_gqueueInit
  59              		.loc 1 94 0
  60 001a FFF7FEFF 		bl	_geventInit
  61              		.loc 1 97 0
  62 001e FFF7FEFF 		bl	_gtimerInit
  63              		.loc 1 100 0
  64 0022 FFF7FEFF 		bl	_gdriverInit
  65              		.loc 1 103 0
  66 0026 FFF7FEFF 		bl	_gfileInit
  67              		.loc 1 106 0
  68 002a FFF7FEFF 		bl	_gdispInit
  69              		.loc 1 109 0
  70 002e FFF7FEFF 		bl	_ginputInit
  71              		.loc 1 118 0
  72 0032 FFF7FEFF 		bl	_gwinInit
  73              	.L1:
  74              		.loc 1 120 0
  75 0036 08BD     		pop	{r3, pc}
  76              	.L5:
  77              		.align	2
  78              	.L4:
  79 0038 00000000 		.word	initDone
  80              		.cfi_endproc
  81              	.LFE111:
  82              		.size	gfxInit, .-gfxInit
  83 003c AFF30080 		.section	.text.gfxDeinit,"ax",%progbits
  84              		.align	2
  85              		.p2align 4,,15
  86              		.global	gfxDeinit
  87              		.thumb
  88              		.thumb_func
  89              		.type	gfxDeinit, %function
  90              	gfxDeinit:
  91              	.LFB112:
  92              		.loc 1 123 0
  93              		.cfi_startproc
  94              		@ args = 0, pretend = 0, frame = 0
  95              		@ frame_needed = 0, uses_anonymous_args = 0
  96 0000 08B5     		push	{r3, lr}
  97              		.cfi_def_cfa_offset 8
  98              		.cfi_offset 3, -8
  99              		.cfi_offset 14, -4
 100              		.loc 1 124 0
 101 0002 0F4B     		ldr	r3, .L9
 102 0004 1B78     		ldrb	r3, [r3]	@ zero_extendqisi2
 103 0006 83F00103 		eor	r3, r3, #1
 104 000a DBB2     		uxtb	r3, r3
 105 000c 002B     		cmp	r3, #0
 106 000e 00D0     		beq	.L7
 107              		.loc 1 125 0
 108 0010 14E0     		b	.L6
 109              	.L7:
 110              		.loc 1 126 0
 111 0012 0B4B     		ldr	r3, .L9
 112 0014 0022     		movs	r2, #0
 113 0016 1A70     		strb	r2, [r3]
 114              		.loc 1 130 0
ARM GAS  /tmp/cczctaTb.s 			page 3


 115 0018 FFF7FEFF 		bl	_gwinDeinit
 116              		.loc 1 139 0
 117 001c FFF7FEFF 		bl	_ginputDeinit
 118              		.loc 1 142 0
 119 0020 FFF7FEFF 		bl	_gdispDeinit
 120              		.loc 1 145 0
 121 0024 FFF7FEFF 		bl	_gfileDeinit
 122              		.loc 1 148 0
 123 0028 FFF7FEFF 		bl	_gdriverDeinit
 124              		.loc 1 151 0
 125 002c FFF7FEFF 		bl	_gtimerDeinit
 126              		.loc 1 154 0
 127 0030 FFF7FEFF 		bl	_geventDeinit
 128              		.loc 1 160 0
 129 0034 FFF7FEFF 		bl	_gqueueDeinit
 130              		.loc 1 165 0
 131 0038 FFF7FEFF 		bl	_gosDeinit
 132              	.L6:
 133              		.loc 1 166 0
 134 003c 08BD     		pop	{r3, pc}
 135              	.L10:
 136 003e 00BF     		.align	2
 137              	.L9:
 138 0040 00000000 		.word	initDone
 139              		.cfi_endproc
 140              	.LFE112:
 141              		.size	gfxDeinit, .-gfxDeinit
 142 0044 AFF30080 		.text
 142      AFF30080 
 142      AFF30080 
 143              	.Letext0:
 144              		.file 2 "/opt/gcc-arm-none-eabi/arm-none-eabi/include/machine/_default_types.h"
 145              		.file 3 "/opt/gcc-arm-none-eabi/arm-none-eabi/include/stdint.h"
 146              		.file 4 "/home/makkmarci/workspace/ChibiOS_2.6.8/os/ports/GCC/ARMCMx/chtypes.h"
 147              		.file 5 "/home/makkmarci/workspace/ChibiOS_2.6.8/os/ports/common/ARMCMx/CMSIS/include/core_cm4.h"