ARM GAS  /tmp/cczctaTb.s 			page 1


   1              		.syntax unified
   2              		.cpu cortex-m4
   3              		.eabi_attribute 27, 1
   4              		.eabi_attribute 28, 1
   5              		.fpu fpv4-sp-d16
   6              		.eabi_attribute 20, 1
   7              		.eabi_attribute 21, 1
   8              		.eabi_attribute 23, 3
   9              		.eabi_attribute 24, 1
  10              		.eabi_attribute 25, 1
  11              		.eabi_attribute 26, 1
  12              		.eabi_attribute 30, 6
  13              		.eabi_attribute 34, 1
  14              		.eabi_attribute 18, 4
  15              		.thumb
  16              		.file	"gfx.c"
  17              		.text
  18              	.Ltext0:
  19              		.cfi_sections	.debug_frame
  20              		.section	.bss.initDone,"aw",%nobits
  21              		.type	initDone, %object
  22              		.size	initDone, 1
  23              	initDone:
  24 0000 00       		.space	1
  25              		.section	.text.gfxInit,"ax",%progbits
  26              		.align	2
  27              		.p2align 4,,15
  28              		.global	gfxInit
  29              		.thumb
  30              		.thumb_func
  31              		.type	gfxInit, %function
  32              	gfxInit:
  33              	.LFB111:
  34              		.file 1 "/home/makkmarci/workspace/ugfx/src/gfx.c"
  35              		.loc 1 75 0
  36              		.cfi_startproc
  37              		@ args = 0, pretend = 0, frame = 0
  38              		@ frame_needed = 0, uses_anonymous_args = 0
  39 0000 08B5     		push	{r3, lr}
  40              		.cfi_def_cfa_offset 8
  41              		.cfi_offset 3, -8
  42              		.cfi_offset 14, -4
  43              		.loc 1 77 0
  44 0002 0D4B     		ldr	r3, .L4
  45 0004 1B78     		ldrb	r3, [r3]	@ zero_extendqisi2
  46 0006 002B     		cmp	r3, #0
  47 0008 00D0     		beq	.L2
  48              		.loc 1 78 0
  49 000a 14E0     		b	.L1
  50              	.L2:
  51              		.loc 1 79 0
  52 000c 0A4B     		ldr	r3, .L4
  53 000e 0122     		movs	r2, #1
  54 0010 1A70     		strb	r2, [r3]
  55              		.loc 1 83 0
  56 0012 FFF7FEFF 		bl	_gosInit
  57              		.loc 1 88 0
ARM GAS  /tmp/cczctaTb.s 			page 2


  58 0016 FFF7FEFF 		bl	_gqueueInit
  59              		.loc 1 94 0
  60 001a FFF7FEFF 		bl	_geventInit
  61              		.loc 1 97 0
  62 001e FFF7FEFF 		bl	_gtimerInit
  63              		.loc 1 100 0
  64 0022 FFF7FEFF 		bl	_gdriverInit
  65              		.loc 1 103 0
  66 0026 FFF7FEFF 		bl	_gfileInit
  67              		.loc 1 106 0
  68 002a FFF7FEFF 		bl	_gdispInit
  69              		.loc 1 109 0
  70 002e FFF7FEFF 		bl	_ginputInit
  71              		.loc 1 118 0
  72 0032 FFF7FEFF 		bl	_gwinInit
  73              	.L1:
  74              		.loc 1 120 0
  75 0036 08BD     		pop	{r3, pc}
  76              	.L5:
  77              		.align	2
  78              	.L4:
  79 0038 00000000 		.word	initDone
  80              		.cfi_endproc
  81              	.LFE111:
  82              		.size	gfxInit, .-gfxInit
  83 003c AFF30080 		.section	.text.gfxDeinit,"ax",%progbits
  84              		.align	2
  85              		.p2align 4,,15
  86              		.global	gfxDeinit
  87              		.thumb
  88              		.thumb_func
  89              		.type	gfxDeinit, %function
  90              	gfxDeinit:
  91              	.LFB112:
  92              		.loc 1 123 0
  93              		.cfi_startproc
  94              		@ args = 0, pretend = 0, frame = 0
  95              		@ frame_needed = 0, uses_anonymous_args = 0
  96 0000 08B5     		push	{r3, lr}
  97              		.cfi_def_cfa_offset 8
  98              		.cfi_offset 3, -8
  99              		.cfi_offset 14, -4
 100              		.loc 1 124 0
 101 0002 0F4B     		ldr	r3, .L9
 102 0004 1B78     		ldrb	r3, [r3]	@ zero_extendqisi2
 103 0006 83F00103 		eor	r3, r3, #1
 104 000a DBB2     		uxtb	r3, r3
 105 000c 002B     		cmp	r3, #0
 106 000e 00D0     		beq	.L7
 107              		.loc 1 125 0
 108 0010 14E0     		b	.L6
 109              	.L7:
 110              		.loc 1 126 0
 111 0012 0B4B     		ldr	r3, .L9
 112 0014 0022     		movs	r2, #0
 113 0016 1A70     		strb	r2, [r3]
 114              		.loc 1 130 0
ARM GAS  /tmp/cczctaTb.s 			page 3


 115 0018 FFF7FEFF 		bl	_gwinDeinit
 116              		.loc 1 139 0
 117 001c FFF7FEFF 		bl	_ginputDeinit
 118              		.loc 1 142 0
 119 0020 FFF7FEFF 		bl	_gdispDeinit
 120              		.loc 1 145 0
 121 0024 FFF7FEFF 		bl	_gfileDeinit
 122              		.loc 1 148 0
 123 0028 FFF7FEFF 		bl	_gdriverDeinit
 124              		.loc 1 151 0
 125 002c FFF7FEFF 		bl	_gtimerDeinit
 126              		.loc 1 154 0
 127 0030 FFF7FEFF 		bl	_geventDeinit
 128              		.loc 1 160 0
 129 0034 FFF7FEFF 		bl	_gqueueDeinit
 130              		.loc 1 165 0
 131 0038 FFF7FEFF 		bl	_gosDeinit
 132              	.L6:
 133              		.loc 1 166 0
 134 003c 08BD     		pop	{r3, pc}
 135              	.L10:
 136 003e 00BF     		.align	2
 137              	.L9:
 138 0040 00000000 		.word	initDone
 139              		.cfi_endproc
 140              	.LFE112:
 141              		.size	gfxDeinit, .-gfxDeinit
 142 0044 AFF30080 		.text
 142      AFF30080 
 142      AFF30080 
 143              	.Letext0:
 144              		.file 2 "/opt/gcc-arm-none-eabi/arm-none-eabi/include/machine/_default_types.h"
 145              		.file 3 "/opt/gcc-arm-none-eabi/arm-none-eabi/include/stdint.h"
 146              		.file 4 "/home/makkmarci/workspace/ChibiOS_2.6.8/os/ports/GCC/ARMCMx/chtypes.h"
 147              		.file 5 "/home/makkmarci/workspace/ChibiOS_2.6.8/os/ports/common/ARMCMx/CMSIS/include/core_cm4.h"
 148              		.section	.debug_info,"",%progbits
 149              	.Ldebug_info0:
 150 0000 DE000000 		.4byte	0xde
 151 0004 0400     		.2byte	0x4
 152 0006 00000000 		.4byte	.Ldebug_abbrev0
 153 000a 04       		.byte	0x4
 154 000b 01       		.uleb128 0x1
 155 000c 2E000000 		.4byte	.LASF17
 156 0010 01       		.byte	0x1
 157 0011 6C010000 		.4byte	.LASF18
 158 0015 00000000 		.4byte	.Ldebug_ranges0+0
 159 0019 00000000 		.4byte	0
 160 001d 00000000 		.4byte	.Ldebug_line0
 161 0021 02       		.uleb128 0x2
 162 0022 04       		.byte	0x4
 163 0023 05       		.byte	0x5
 164 0024 696E7400 		.ascii	"int\000"
 165 0028 03       		.uleb128 0x3
 166 0029 04       		.byte	0x4
 167 002a 07       		.byte	0x7
 168 002b 21000000 		.4byte	.LASF0
 169 002f 03       		.uleb128 0x3
ARM GAS  /tmp/cczctaTb.s 			page 4


 170 0030 01       		.byte	0x1
 171 0031 06       		.byte	0x6
 172 0032 CC010000 		.4byte	.LASF1
 173 0036 03       		.uleb128 0x3
 174 0037 01       		.byte	0x1
 175 0038 08       		.byte	0x8
 176 0039 95010000 		.4byte	.LASF2
 177 003d 03       		.uleb128 0x3
 178 003e 02       		.byte	0x2
 179 003f 05       		.byte	0x5
 180 0040 FC010000 		.4byte	.LASF3
 181 0044 03       		.uleb128 0x3
 182 0045 02       		.byte	0x2
 183 0046 07       		.byte	0x7
 184 0047 0E000000 		.4byte	.LASF4
 185 004b 04       		.uleb128 0x4
 186 004c E9010000 		.4byte	.LASF9
 187 0050 02       		.byte	0x2
 188 0051 3F       		.byte	0x3f
 189 0052 56000000 		.4byte	0x56
 190 0056 03       		.uleb128 0x3
 191 0057 04       		.byte	0x4
 192 0058 05       		.byte	0x5
 193 0059 A8010000 		.4byte	.LASF5
 194 005d 03       		.uleb128 0x3
 195 005e 04       		.byte	0x4
 196 005f 07       		.byte	0x7
 197 0060 43010000 		.4byte	.LASF6
 198 0064 03       		.uleb128 0x3
 199 0065 08       		.byte	0x8
 200 0066 05       		.byte	0x5
 201 0067 00000000 		.4byte	.LASF7
 202 006b 03       		.uleb128 0x3
 203 006c 08       		.byte	0x8
 204 006d 07       		.byte	0x7
 205 006e 55010000 		.4byte	.LASF8
 206 0072 04       		.uleb128 0x4
 207 0073 06020000 		.4byte	.LASF10
 208 0077 03       		.byte	0x3
 209 0078 2C       		.byte	0x2c
 210 0079 4B000000 		.4byte	0x4b
 211 007d 04       		.uleb128 0x4
 212 007e E2010000 		.4byte	.LASF11
 213 0082 04       		.byte	0x4
 214 0083 2B       		.byte	0x2b
 215 0084 88000000 		.4byte	0x88
 216 0088 03       		.uleb128 0x3
 217 0089 01       		.byte	0x1
 218 008a 02       		.byte	0x2
 219 008b B1010000 		.4byte	.LASF12
 220 008f 03       		.uleb128 0x3
 221 0090 04       		.byte	0x4
 222 0091 07       		.byte	0x7
 223 0092 0E020000 		.4byte	.LASF13
 224 0096 03       		.uleb128 0x3
 225 0097 01       		.byte	0x1
 226 0098 08       		.byte	0x8
ARM GAS  /tmp/cczctaTb.s 			page 5


 227 0099 A3010000 		.4byte	.LASF14
 228 009d 05       		.uleb128 0x5
 229 009e 72000000 		.4byte	0x72
 230 00a2 06       		.uleb128 0x6
 231 00a3 B7010000 		.4byte	.LASF15
 232 00a7 01       		.byte	0x1
 233 00a8 4A       		.byte	0x4a
 234 00a9 00000000 		.4byte	.LFB111
 235 00ad 3C000000 		.4byte	.LFE111-.LFB111
 236 00b1 01       		.uleb128 0x1
 237 00b2 9C       		.byte	0x9c
 238 00b3 06       		.uleb128 0x6
 239 00b4 D8010000 		.4byte	.LASF16
 240 00b8 01       		.byte	0x1
 241 00b9 7A       		.byte	0x7a
 242 00ba 00000000 		.4byte	.LFB112
 243 00be 44000000 		.4byte	.LFE112-.LFB112
 244 00c2 01       		.uleb128 0x1
 245 00c3 9C       		.byte	0x9c
 246 00c4 07       		.uleb128 0x7
 247 00c5 F3010000 		.4byte	.LASF19
 248 00c9 01       		.byte	0x1
 249 00ca 12       		.byte	0x12
 250 00cb 7D000000 		.4byte	0x7d
 251 00cf 05       		.uleb128 0x5
 252 00d0 03       		.byte	0x3
 253 00d1 00000000 		.4byte	initDone
 254 00d5 08       		.uleb128 0x8
 255 00d6 BF010000 		.4byte	.LASF20
 256 00da 05       		.byte	0x5
 257 00db 9806     		.2byte	0x698
 258 00dd 9D000000 		.4byte	0x9d
 259 00e1 00       		.byte	0
 260              		.section	.debug_abbrev,"",%progbits
 261              	.Ldebug_abbrev0:
 262 0000 01       		.uleb128 0x1
 263 0001 11       		.uleb128 0x11
 264 0002 01       		.byte	0x1
 265 0003 25       		.uleb128 0x25
 266 0004 0E       		.uleb128 0xe
 267 0005 13       		.uleb128 0x13
 268 0006 0B       		.uleb128 0xb
 269 0007 03       		.uleb128 0x3
 270 0008 0E       		.uleb128 0xe
 271 0009 55       		.uleb128 0x55
 272 000a 17       		.uleb128 0x17
 273 000b 11       		.uleb128 0x11
 274 000c 01       		.uleb128 0x1
 275 000d 10       		.uleb128 0x10
 276 000e 17       		.uleb128 0x17
 277 000f 00       		.byte	0
 278 0010 00       		.byte	0
 279 0011 02       		.uleb128 0x2
 280 0012 24       		.uleb128 0x24
 281 0013 00       		.byte	0
 282 0014 0B       		.uleb128 0xb
 283 0015 0B       		.uleb128 0xb
ARM GAS  /tmp/cczctaTb.s 			page 6


 284 0016 3E       		.uleb128 0x3e
 285 0017 0B       		.uleb128 0xb
 286 0018 03       		.uleb128 0x3
 287 0019 08       		.uleb128 0x8
 288 001a 00       		.byte	0
 289 001b 00       		.byte	0
 290 001c 03       		.uleb128 0x3
 291 001d 24       		.uleb128 0x24
 292 001e 00       		.byte	0
 293 001f 0B       		.uleb128 0xb
 294 0020 0B       		.uleb128 0xb
 295 0021 3E       		.uleb128 0x3e
 296 0022 0B       		.uleb128 0xb
 297 0023 03       		.uleb128 0x3
 298 0024 0E       		.uleb128 0xe
 299 0025 00       		.byte	0
 300 0026 00       		.byte	0
 301 0027 04       		.uleb128 0x4
 302 0028 16       		.uleb128 0x16
 303 0029 00       		.byte	0
 304 002a 03       		.uleb128 0x3
 305 002b 0E       		.uleb128 0xe
 306 002c 3A       		.uleb128 0x3a
 307 002d 0B       		.uleb128 0xb
 308 002e 3B       		.uleb128 0x3b
 309 002f 0B       		.uleb128 0xb
 310 0030 49       		.uleb128 0x49
 311 0031 13       		.uleb128 0x13
 312 0032 00       		.byte	0
 313 0033 00       		.byte	0
 314 0034 05       		.uleb128 0x5
 315 0035 35       		.uleb128 0x35
 316 0036 00       		.byte	0
 317 0037 49       		.uleb128 0x49
 318 0038 13       		.uleb128 0x13
 319 0039 00       		.byte	0
 320 003a 00       		.byte	0
 321 003b 06       		.uleb128 0x6
 322 003c 2E       		.uleb128 0x2e
 323 003d 00       		.byte	0
 324 003e 3F       		.uleb128 0x3f
 325 003f 19       		.uleb128 0x19
 326 0040 03       		.uleb128 0x3
 327 0041 0E       		.uleb128 0xe
 328 0042 3A       		.uleb128 0x3a
 329 0043 0B       		.uleb128 0xb
 330 0044 3B       		.uleb128 0x3b
 331 0045 0B       		.uleb128 0xb
 332 0046 27       		.uleb128 0x27
 333 0047 19       		.uleb128 0x19
 334 0048 11       		.uleb128 0x11
 335 0049 01       		.uleb128 0x1
 336 004a 12       		.uleb128 0x12
 337 004b 06       		.uleb128 0x6
 338 004c 40       		.uleb128 0x40
 339 004d 18       		.uleb128 0x18
 340 004e 9642     		.uleb128 0x2116
ARM GAS  /tmp/cczctaTb.s 			page 7


 341 0050 19       		.uleb128 0x19
 342 0051 00       		.byte	0
 343 0052 00       		.byte	0
 344 0053 07       		.uleb128 0x7
 345 0054 34       		.uleb128 0x34
 346 0055 00       		.byte	0
 347 0056 03       		.uleb128 0x3
 348 0057 0E       		.uleb128 0xe
 349 0058 3A       		.uleb128 0x3a
 350 0059 0B       		.uleb128 0xb
 351 005a 3B       		.uleb128 0x3b
 352 005b 0B       		.uleb128 0xb
 353 005c 49       		.uleb128 0x49
 354 005d 13       		.uleb128 0x13
 355 005e 02       		.uleb128 0x2
 356 005f 18       		.uleb128 0x18
 357 0060 00       		.byte	0
 358 0061 00       		.byte	0
 359 0062 08       		.uleb128 0x8
 360 0063 34       		.uleb128 0x34
 361 0064 00       		.byte	0
 362 0065 03       		.uleb128 0x3
 363 0066 0E       		.uleb128 0xe
 364 0067 3A       		.uleb128 0x3a
 365 0068 0B       		.uleb128 0xb
 366 0069 3B       		.uleb128 0x3b
 367 006a 05       		.uleb128 0x5
 368 006b 49       		.uleb128 0x49
 369 006c 13       		.uleb128 0x13
 370 006d 3F       		.uleb128 0x3f
 371 006e 19       		.uleb128 0x19
 372 006f 3C       		.uleb128 0x3c
 373 0070 19       		.uleb128 0x19
 374 0071 00       		.byte	0
 375 0072 00       		.byte	0
 376 0073 00       		.byte	0
 377              		.section	.debug_aranges,"",%progbits
 378 0000 24000000 		.4byte	0x24
 379 0004 0200     		.2byte	0x2
 380 0006 00000000 		.4byte	.Ldebug_info0
 381 000a 04       		.byte	0x4
 382 000b 00       		.byte	0
 383 000c 0000     		.2byte	0
 384 000e 0000     		.2byte	0
 385 0010 00000000 		.4byte	.LFB111
 386 0014 3C000000 		.4byte	.LFE111-.LFB111
 387 0018 00000000 		.4byte	.LFB112
 388 001c 44000000 		.4byte	.LFE112-.LFB112
 389 0020 00000000 		.4byte	0
 390 0024 00000000 		.4byte	0
 391              		.section	.debug_ranges,"",%progbits
 392              	.Ldebug_ranges0:
 393 0000 00000000 		.4byte	.LFB111
 394 0004 3C000000 		.4byte	.LFE111
 395 0008 00000000 		.4byte	.LFB112
 396 000c 44000000 		.4byte	.LFE112
 397 0010 00000000 		.4byte	0
ARM GAS  /tmp/cczctaTb.s 			page 8


 398 0014 00000000 		.4byte	0
 399              		.section	.debug_line,"",%progbits
 400              	.Ldebug_line0:
 401 0000 A9010000 		.section	.debug_str,"MS",%progbits,1
 401      02006501 
 401      00000201 
 401      FB0E0D00 
 401      01010101 
 402              	.LASF7:
 403 0000 6C6F6E67 		.ascii	"long long int\000"
 403      206C6F6E 
 403      6720696E 
 403      7400
 404              	.LASF4:
 405 000e 73686F72 		.ascii	"short unsigned int\000"
 405      7420756E 
 405      7369676E 
 405      65642069 
 405      6E7400
 406              	.LASF0:
 407 0021 756E7369 		.ascii	"unsigned int\000"
 407      676E6564 
 407      20696E74 
 407      00
 408              	.LASF17:
 409 002e 474E5520 		.ascii	"GNU C 4.9.3 20150303 (release) [ARM/embedded-4_9-br"
 409      4320342E 
 409      392E3320 
 409      32303135 
 409      30333033 
 410 0061 616E6368 		.ascii	"anch revision 221220] -mcpu=cortex-m4 -mfloat-abi=h"
 410      20726576 
 410      6973696F 
 410      6E203232 
 410      31323230 
 411 0094 61726420 		.ascii	"ard -mfpu=fpv4-sp-d16 -mno-thumb-interwork -mthumb "
 411      2D6D6670 
 411      753D6670 
 411      76342D73 
 411      702D6431 
 412 00c7 2D676764 		.ascii	"-ggdb -fomit-frame-pointer -falign-functions=16 -ff"
 412      62202D66 
 412      6F6D6974 
 412      2D667261 
 412      6D652D70 
 413 00fa 756E6374 		.ascii	"unction-sections -fdata-sections -fno-common -fsing"
 413      696F6E2D 
 413      73656374 
 413      696F6E73 
 413      202D6664 
 414 012d 6C652D70 		.ascii	"le-precision-constant\000"
 414      72656369 
 414      73696F6E 
 414      2D636F6E 
 414      7374616E 
 415              	.LASF6:
 416 0143 6C6F6E67 		.ascii	"long unsigned int\000"
ARM GAS  /tmp/cczctaTb.s 			page 9


 416      20756E73 
 416      69676E65 
 416      6420696E 
 416      7400
 417              	.LASF8:
 418 0155 6C6F6E67 		.ascii	"long long unsigned int\000"
 418      206C6F6E 
 418      6720756E 
 418      7369676E 
 418      65642069 
 419              	.LASF18:
 420 016c 2F686F6D 		.ascii	"/home/makkmarci/workspace/ugfx/src/gfx.c\000"
 420      652F6D61 
 420      6B6B6D61 
 420      7263692F 
 420      776F726B 
 421              	.LASF2:
 422 0195 756E7369 		.ascii	"unsigned char\000"
 422      676E6564 
 422      20636861 
 422      7200
 423              	.LASF14:
 424 01a3 63686172 		.ascii	"char\000"
 424      00
 425              	.LASF5:
 426 01a8 6C6F6E67 		.ascii	"long int\000"
 426      20696E74 
 426      00
 427              	.LASF12:
 428 01b1 5F426F6F 		.ascii	"_Bool\000"
 428      6C00
 429              	.LASF15:
 430 01b7 67667849 		.ascii	"gfxInit\000"
 430      6E697400 
 431              	.LASF20:
 432 01bf 49544D5F 		.ascii	"ITM_RxBuffer\000"
 432      52784275 
 432      66666572 
 432      00
 433              	.LASF1:
 434 01cc 7369676E 		.ascii	"signed char\000"
 434      65642063 
 434      68617200 
 435              	.LASF16:
 436 01d8 67667844 		.ascii	"gfxDeinit\000"
 436      65696E69 
 436      7400
 437              	.LASF11:
 438 01e2 626F6F6C 		.ascii	"bool_t\000"
 438      5F7400
 439              	.LASF9:
 440 01e9 5F5F696E 		.ascii	"__int32_t\000"
 440      7433325F 
 440      7400
 441              	.LASF19:
 442 01f3 696E6974 		.ascii	"initDone\000"
 442      446F6E65 
ARM GAS  /tmp/cczctaTb.s 			page 10


 442      00
 443              	.LASF3:
 444 01fc 73686F72 		.ascii	"short int\000"
 444      7420696E 
 444      7400
 445              	.LASF10:
 446 0206 696E7433 		.ascii	"int32_t\000"
 446      325F7400 
 447              	.LASF13:
 448 020e 73697A65 		.ascii	"sizetype\000"
 448      74797065 
 448      00
 449              		.ident	"GCC: (GNU Tools for ARM Embedded Processors) 4.9.3 20150303 (release) [ARM/embedded-4_9-br
ARM GAS  /tmp/cczctaTb.s 			page 11


DEFINED SYMBOLS
                            *ABS*:00000000 gfx.c
     /tmp/cczctaTb.s:23     .bss.initDone:00000000 initDone
     /tmp/cczctaTb.s:24     .bss.initDone:00000000 $d
     /tmp/cczctaTb.s:26     .text.gfxInit:00000000 $t
     /tmp/cczctaTb.s:32     .text.gfxInit:00000000 gfxInit
     /tmp/cczctaTb.s:79     .text.gfxInit:00000038 $d
     /tmp/cczctaTb.s:84     .text.gfxDeinit:00000000 $t
     /tmp/cczctaTb.s:90     .text.gfxDeinit:00000000 gfxDeinit
     /tmp/cczctaTb.s:138    .text.gfxDeinit:00000040 $d
                     .debug_frame:00000010 $d
     /tmp/cczctaTb.s:83     .text.gfxInit:0000003c $t
     /tmp/cczctaTb.s:142    .text.gfxDeinit:00000044 $t

UNDEFINED SYMBOLS
_gosInit
_gqueueInit
_geventInit
_gtimerInit
_gdriverInit
_gfileInit
_gdispInit
_ginputInit
_gwinInit
_gwinDeinit
_ginputDeinit
_gdispDeinit
_gfileDeinit
_gdriverDeinit
_gtimerDeinit
_geventDeinit
_gqueueDeinit
_gosDeinit
