ARM GAS  /tmp/cc2KHMri.s 			page 1


   1              		.syntax unified
   2              		.cpu cortex-m4
   3              		.eabi_attribute 27, 3
   4              		.eabi_attribute 28, 1
   5              		.fpu fpv4-sp-d16
   6              		.eabi_attribute 20, 1
   7              		.eabi_attribute 21, 1
   8              		.eabi_attribute 23, 3
   9              		.eabi_attribute 24, 1
  10              		.eabi_attribute 25, 1
  11              		.eabi_attribute 26, 1
  12              		.eabi_attribute 30, 2
  13              		.eabi_attribute 34, 1
  14              		.eabi_attribute 18, 4
  15              		.thumb
  16              		.file	"gimage.c"
  17              		.text
  18              	.Ltext0:
  19              		.cfi_sections	.debug_frame
  20              		.section	.text._redraw,"ax",%progbits
  21              		.align	2
  22              		.p2align 4,,15
  23              		.thumb
  24              		.thumb_func
  25              		.type	_redraw, %function
  26              	_redraw:
  27              	.LFB112:
  28              		.file 1 "/home/makkmarci/devel/ugfx/src/gwin/gimage.c"
  29              		.loc 1 46 0
  30              		.cfi_startproc
  31              		@ args = 0, pretend = 0, frame = 8
  32              		@ frame_needed = 0, uses_anonymous_args = 0
  33              	.LVL0:
  34 0000 2DE9F04F 		push	{r4, r5, r6, r7, r8, r9, r10, fp, lr}
  35              		.cfi_def_cfa_offset 36
  36              		.cfi_offset 4, -36
  37              		.cfi_offset 5, -32
  38              		.cfi_offset 6, -28
  39              		.cfi_offset 7, -24
  40              		.cfi_offset 8, -20
  41              		.cfi_offset 9, -16
  42              		.cfi_offset 10, -12
  43              		.cfi_offset 11, -8
  44              		.cfi_offset 14, -4
  45 0004 87B0     		sub	sp, sp, #28
  46              		.cfi_def_cfa_offset 64
  47              		.loc 1 63 0
  48 0006 00F12005 		add	r5, r0, #32
  49              		.loc 1 46 0
  50 000a 0446     		mov	r4, r0
  51              		.loc 1 56 0
  52 000c B0F80CA0 		ldrh	r10, [r0, #12]
  53              	.LVL1:
  54              		.loc 1 57 0
  55 0010 B0F80E80 		ldrh	r8, [r0, #14]
  56              	.LVL2:
  57              		.loc 1 58 0
ARM GAS  /tmp/cc2KHMri.s 			page 2


  58 0014 078A     		ldrh	r7, [r0, #16]
  59              	.LVL3:
  60              		.loc 1 59 0
  61 0016 468A     		ldrh	r6, [r0, #18]
  62              	.LVL4:
  63              		.loc 1 60 0
  64 0018 FFF7FEFF 		bl	gwinGetDefaultBgColor
  65              	.LVL5:
  66 001c 8146     		mov	r9, r0
  67              	.LVL6:
  68              		.loc 1 63 0
  69 001e 2846     		mov	r0, r5
  70              	.LVL7:
  71 0020 FFF7FEFF 		bl	gdispImageIsOpen
  72              	.LVL8:
  73 0024 0028     		cmp	r0, #0
  74 0026 00F08380 		beq	.L19
  75              		.loc 1 69 0
  76 002a B4F826B0 		ldrh	fp, [r4, #38]
  77 002e 3FB2     		sxth	r7, r7
  78              	.LVL9:
  79 0030 0FFA8BF3 		sxth	r3, fp
  80 0034 9F42     		cmp	r7, r3
  81 0036 64DD     		ble	.L4
  82              	.LVL10:
  83              		.loc 1 71 0
  84 0038 228A     		ldrh	r2, [r4, #16]
  85 003a 17B2     		sxth	r7, r2
  86 003c FB1A     		subs	r3, r7, r3
  87 003e 03EBD373 		add	r3, r3, r3, lsr #31
  88 0042 C3F34F07 		ubfx	r7, r3, #1, #16
  89              	.LVL11:
  90              		.loc 1 72 0
  91 0046 BA44     		add	r10, r10, r7
  92              	.LVL12:
  93 0048 1FFA8AFC 		uxth	ip, r10
  94 004c 1FFA8CFA 		uxth	r10, ip
  95              	.LVL13:
  96              		.loc 1 73 0
  97 0050 002F     		cmp	r7, #0
  98 0052 40F09880 		bne	.L16
  99 0056 0FFA88F3 		sxth	r3, r8
 100 005a 36B2     		sxth	r6, r6
 101              	.LVL14:
 102 005c 0593     		str	r3, [sp, #20]
 103              	.LVL15:
 104              	.L5:
 105              		.loc 1 75 0
 106 005e D71B     		subs	r7, r2, r7
 107 0060 1FFA8BF1 		uxth	r1, fp
 108 0064 7B1A     		subs	r3, r7, r1
 109 0066 6144     		add	r1, r1, ip
 110 0068 A068     		ldr	r0, [r4, #8]
 111 006a 059A     		ldr	r2, [sp, #20]
 112 006c 0096     		str	r6, [sp]
 113 006e 1BB2     		sxth	r3, r3
 114 0070 CDF80490 		str	r9, [sp, #4]
ARM GAS  /tmp/cc2KHMri.s 			page 3


 115 0074 09B2     		sxth	r1, r1
 116 0076 FFF7FEFF 		bl	gdispGFillArea
 117              	.LVL16:
 118              		.loc 1 76 0
 119 007a 0023     		movs	r3, #0
 120 007c 0FFA8BF7 		sxth	r7, fp
 121 0080 0593     		str	r3, [sp, #20]
 122              	.LVL17:
 123              	.L6:
 124              		.loc 1 85 0
 125 0082 B4F828B0 		ldrh	fp, [r4, #40]
 126 0086 0FFA8BF3 		sxth	r3, fp
 127 008a 9E42     		cmp	r6, r3
 128 008c 47DD     		ble	.L7
 129              	.LVL18:
 130              	.L20:
 131              		.loc 1 87 0
 132 008e 628A     		ldrh	r2, [r4, #18]
 133 0090 16B2     		sxth	r6, r2
 134 0092 F31A     		subs	r3, r6, r3
 135 0094 03EBD373 		add	r3, r3, r3, lsr #31
 136 0098 C3F34F06 		ubfx	r6, r3, #1, #16
 137              	.LVL19:
 138              		.loc 1 88 0
 139 009c B044     		add	r8, r8, r6
 140              	.LVL20:
 141 009e 1FFA88FC 		uxth	ip, r8
 142 00a2 1FFA8CF8 		uxth	r8, ip
 143              	.LVL21:
 144              		.loc 1 89 0
 145 00a6 002E     		cmp	r6, #0
 146 00a8 5AD1     		bne	.L17
 147 00aa 0FFA8AFA 		sxth	r10, r10
 148              	.LVL22:
 149              	.L8:
 150              		.loc 1 91 0
 151 00ae 1FFA8BF3 		uxth	r3, fp
 152 00b2 921B     		subs	r2, r2, r6
 153 00b4 D21A     		subs	r2, r2, r3
 154 00b6 9C44     		add	ip, ip, r3
 155 00b8 12B2     		sxth	r2, r2
 156 00ba A068     		ldr	r0, [r4, #8]
 157 00bc 0092     		str	r2, [sp]
 158 00be CDF80490 		str	r9, [sp, #4]
 159 00c2 0FFA8CF2 		sxth	r2, ip
 160 00c6 5146     		mov	r1, r10
 161 00c8 3B46     		mov	r3, r7
 162 00ca FFF7FEFF 		bl	gdispGFillArea
 163              	.LVL23:
 164 00ce 0FFA8BF6 		sxth	r6, fp
 165              		.loc 1 92 0
 166 00d2 4FF0000B 		mov	fp, #0
 167              	.LVL24:
 168              	.L9:
 169              		.loc 1 101 0
 170 00d6 4946     		mov	r1, r9
 171 00d8 2846     		mov	r0, r5
ARM GAS  /tmp/cc2KHMri.s 			page 4


 172 00da FFF7FEFF 		bl	gdispImageSetBgColor
 173              	.LVL25:
 174              		.loc 1 104 0
 175 00de 059B     		ldr	r3, [sp, #20]
 176 00e0 A068     		ldr	r0, [r4, #8]
 177 00e2 0097     		str	r7, [sp]
 178 00e4 1AB2     		sxth	r2, r3
 179 00e6 0FFA8BF3 		sxth	r3, fp
 180 00ea 0292     		str	r2, [sp, #8]
 181 00ec 0393     		str	r3, [sp, #12]
 182 00ee 0196     		str	r6, [sp, #4]
 183 00f0 2946     		mov	r1, r5
 184 00f2 5246     		mov	r2, r10
 185 00f4 0FFA88F3 		sxth	r3, r8
 186 00f8 FFF7FEFF 		bl	gdispGImageDraw
 187              	.LVL26:
 188              		.loc 1 125 0
 189 00fc 07B0     		add	sp, sp, #28
 190              		@ sp needed
 191 00fe BDE8F08F 		pop	{r4, r5, r6, r7, r8, r9, r10, fp, pc}
 192              	.LVL27:
 193              	.L4:
 194              		.loc 1 80 0
 195 0102 29DA     		bge	.L10
 196              		.loc 1 81 0
 197 0104 DB1B     		subs	r3, r3, r7
 198 0106 03EBD373 		add	r3, r3, r3, lsr #31
 199              		.loc 1 85 0
 200 010a B4F828B0 		ldrh	fp, [r4, #40]
 201              		.loc 1 81 0
 202 010e C3F34F03 		ubfx	r3, r3, #1, #16
 203 0112 0593     		str	r3, [sp, #20]
 204              	.LVL28:
 205 0114 36B2     		sxth	r6, r6
 206              	.LVL29:
 207              		.loc 1 85 0
 208 0116 0FFA8BF3 		sxth	r3, fp
 209 011a 9E42     		cmp	r6, r3
 210 011c B7DC     		bgt	.L20
 211              	.LVL30:
 212              	.L7:
 213              		.loc 1 96 0
 214 011e 16DA     		bge	.L11
 215              		.loc 1 97 0
 216 0120 9B1B     		subs	r3, r3, r6
 217 0122 03EBD373 		add	r3, r3, r3, lsr #31
 218 0126 C3F34F0B 		ubfx	fp, r3, #1, #16
 219              	.LVL31:
 220 012a 0FFA8AFA 		sxth	r10, r10
 221 012e D2E7     		b	.L9
 222              	.LVL32:
 223              	.L19:
 224              		.loc 1 64 0
 225 0130 36B2     		sxth	r6, r6
 226              	.LVL33:
 227 0132 A068     		ldr	r0, [r4, #8]
 228 0134 CDF80490 		str	r9, [sp, #4]
ARM GAS  /tmp/cc2KHMri.s 			page 5


 229 0138 0096     		str	r6, [sp]
 230 013a 0FFA8AF1 		sxth	r1, r10
 231 013e 0FFA88F2 		sxth	r2, r8
 232 0142 3BB2     		sxth	r3, r7
 233 0144 FFF7FEFF 		bl	gdispGFillArea
 234              	.LVL34:
 235              		.loc 1 125 0
 236 0148 07B0     		add	sp, sp, #28
 237              		@ sp needed
 238 014a BDE8F08F 		pop	{r4, r5, r6, r7, r8, r9, r10, fp, pc}
 239              	.LVL35:
 240              	.L11:
 241 014e 0FFA8AFA 		sxth	r10, r10
 242              		.loc 1 55 0
 243 0152 4FF0000B 		mov	fp, #0
 244 0156 BEE7     		b	.L9
 245              	.LVL36:
 246              	.L10:
 247              		.loc 1 54 0
 248 0158 0023     		movs	r3, #0
 249 015a 36B2     		sxth	r6, r6
 250              	.LVL37:
 251 015c 0593     		str	r3, [sp, #20]
 252 015e 90E7     		b	.L6
 253              	.LVL38:
 254              	.L17:
 255              		.loc 1 90 0
 256 0160 33B2     		sxth	r3, r6
 257 0162 0FFA8AFA 		sxth	r10, r10
 258 0166 B4F90E20 		ldrsh	r2, [r4, #14]
 259 016a A068     		ldr	r0, [r4, #8]
 260 016c 0093     		str	r3, [sp]
 261 016e CDF80490 		str	r9, [sp, #4]
 262 0172 5146     		mov	r1, r10
 263 0174 3B46     		mov	r3, r7
 264 0176 CDF810C0 		str	ip, [sp, #16]
 265 017a FFF7FEFF 		bl	gdispGFillArea
 266              	.LVL39:
 267 017e 628A     		ldrh	r2, [r4, #18]
 268 0180 DDF810C0 		ldr	ip, [sp, #16]
 269 0184 93E7     		b	.L8
 270              	.LVL40:
 271              	.L16:
 272              		.loc 1 74 0
 273 0186 0FFA88F3 		sxth	r3, r8
 274 018a 36B2     		sxth	r6, r6
 275              	.LVL41:
 276 018c A068     		ldr	r0, [r4, #8]
 277 018e B4F90C10 		ldrsh	r1, [r4, #12]
 278 0192 0593     		str	r3, [sp, #20]
 279 0194 1A46     		mov	r2, r3
 280 0196 CDF80490 		str	r9, [sp, #4]
 281              	.LVL42:
 282 019a 0096     		str	r6, [sp]
 283 019c 3BB2     		sxth	r3, r7
 284 019e CDF810C0 		str	ip, [sp, #16]
 285 01a2 FFF7FEFF 		bl	gdispGFillArea
ARM GAS  /tmp/cc2KHMri.s 			page 6


 286              	.LVL43:
 287 01a6 228A     		ldrh	r2, [r4, #16]
 288 01a8 DDF810C0 		ldr	ip, [sp, #16]
 289 01ac 57E7     		b	.L5
 290              		.cfi_endproc
 291              	.LFE112:
 292              		.size	_redraw, .-_redraw
 293 01ae 00BF     		.section	.text._destroy,"ax",%progbits
 294              		.align	2
 295              		.p2align 4,,15
 296              		.thumb
 297              		.thumb_func
 298              		.type	_destroy, %function
 299              	_destroy:
 300              	.LFB111:
 301              		.loc 1 21 0
 302              		.cfi_startproc
 303              		@ args = 0, pretend = 0, frame = 0
 304              		@ frame_needed = 0, uses_anonymous_args = 0
 305              	.LVL44:
 306 0000 10B5     		push	{r4, lr}
 307              		.cfi_def_cfa_offset 8
 308              		.cfi_offset 4, -8
 309              		.cfi_offset 14, -4
 310              		.loc 1 22 0
 311 0002 00F12004 		add	r4, r0, #32
 312 0006 2046     		mov	r0, r4
 313              	.LVL45:
 314 0008 FFF7FEFF 		bl	gdispImageIsOpen
 315              	.LVL46:
 316 000c 00B9     		cbnz	r0, .L23
 317 000e 10BD     		pop	{r4, pc}
 318              	.LVL47:
 319              	.L23:
 320              		.loc 1 23 0
 321 0010 2046     		mov	r0, r4
 322              		.loc 1 24 0
 323 0012 BDE81040 		pop	{r4, lr}
 324              		.loc 1 23 0
 325 0016 FFF7FEBF 		b	gdispImageClose
 326              	.LVL48:
 327              		.cfi_endproc
 328              	.LFE111:
 329              		.size	_destroy, .-_destroy
 330 001a 00BFAFF3 		.section	.text.gwinGImageCreate,"ax",%progbits
 330      0080
 331              		.align	2
 332              		.p2align 4,,15
 333              		.global	gwinGImageCreate
 334              		.thumb
 335              		.thumb_func
 336              		.type	gwinGImageCreate, %function
 337              	gwinGImageCreate:
 338              	.LFB113:
 339              		.loc 1 135 0
 340              		.cfi_startproc
 341              		@ args = 0, pretend = 0, frame = 0
ARM GAS  /tmp/cc2KHMri.s 			page 7


 342              		@ frame_needed = 0, uses_anonymous_args = 0
 343              	.LVL49:
 344 0000 30B5     		push	{r4, r5, lr}
 345              		.cfi_def_cfa_offset 12
 346              		.cfi_offset 4, -12
 347              		.cfi_offset 5, -8
 348              		.cfi_offset 14, -4
 349 0002 83B0     		sub	sp, sp, #12
 350              		.cfi_def_cfa_offset 24
 351              		.loc 1 136 0
 352 0004 0023     		movs	r3, #0
 353 0006 0093     		str	r3, [sp]
 354 0008 074B     		ldr	r3, .L29
 355              		.loc 1 135 0
 356 000a 1546     		mov	r5, r2
 357              		.loc 1 136 0
 358 000c FFF7FEFF 		bl	_gwindowCreate
 359              	.LVL50:
 360 0010 0446     		mov	r4, r0
 361 0012 30B1     		cbz	r0, .L25
 362              		.loc 1 140 0
 363 0014 2030     		adds	r0, r0, #32
 364              	.LVL51:
 365 0016 FFF7FEFF 		bl	gdispImageInit
 366              	.LVL52:
 367              		.loc 1 147 0
 368 001a 2046     		mov	r0, r4
 369 001c 297A     		ldrb	r1, [r5, #8]	@ zero_extendqisi2
 370 001e FFF7FEFF 		bl	gwinSetVisible
 371              	.LVL53:
 372              	.L25:
 373              		.loc 1 150 0
 374 0022 2046     		mov	r0, r4
 375 0024 03B0     		add	sp, sp, #12
 376              		@ sp needed
 377 0026 30BD     		pop	{r4, r5, pc}
 378              	.LVL54:
 379              	.L30:
 380              		.align	2
 381              	.L29:
 382 0028 00000000 		.word	.LANCHOR0
 383              		.cfi_endproc
 384              	.LFE113:
 385              		.size	gwinGImageCreate, .-gwinGImageCreate
 386 002c AFF30080 		.section	.text.gwinImageOpenGFile,"ax",%progbits
 387              		.align	2
 388              		.p2align 4,,15
 389              		.global	gwinImageOpenGFile
 390              		.thumb
 391              		.thumb_func
 392              		.type	gwinImageOpenGFile, %function
 393              	gwinImageOpenGFile:
 394              	.LFB114:
 395              		.loc 1 152 0
 396              		.cfi_startproc
 397              		@ args = 0, pretend = 0, frame = 8
 398              		@ frame_needed = 0, uses_anonymous_args = 0
ARM GAS  /tmp/cc2KHMri.s 			page 8


 399              	.LVL55:
 400 0000 30B5     		push	{r4, r5, lr}
 401              		.cfi_def_cfa_offset 12
 402              		.cfi_offset 4, -12
 403              		.cfi_offset 5, -8
 404              		.cfi_offset 14, -4
 405              		.loc 1 154 0
 406 0002 184A     		ldr	r2, .L42
 407 0004 4368     		ldr	r3, [r0, #4]
 408 0006 9342     		cmp	r3, r2
 409              		.loc 1 152 0
 410 0008 85B0     		sub	sp, sp, #20
 411              		.cfi_def_cfa_offset 32
 412              		.loc 1 152 0
 413 000a 0446     		mov	r4, r0
 414              		.loc 1 154 0
 415 000c 02D0     		beq	.L32
 416              	.LVL56:
 417              	.L35:
 418              		.loc 1 155 0
 419 000e 0020     		movs	r0, #0
 420              	.L33:
 421              		.loc 1 173 0
 422 0010 05B0     		add	sp, sp, #20
 423              		@ sp needed
 424 0012 30BD     		pop	{r4, r5, pc}
 425              	.LVL57:
 426              	.L32:
 427              		.loc 1 157 0
 428 0014 00F12005 		add	r5, r0, #32
 429 0018 2846     		mov	r0, r5
 430              	.LVL58:
 431 001a 0391     		str	r1, [sp, #12]
 432 001c FFF7FEFF 		bl	gdispImageIsOpen
 433              	.LVL59:
 434 0020 0399     		ldr	r1, [sp, #12]
 435 0022 D0B9     		cbnz	r0, .L40
 436              	.L34:
 437              		.loc 1 160 0
 438 0024 2846     		mov	r0, r5
 439 0026 FFF7FEFF 		bl	gdispImageOpenGFile
 440              	.LVL60:
 441 002a 0204     		lsls	r2, r0, #16
 442 002c EFD4     		bmi	.L35
 443              		.loc 1 163 0
 444 002e A369     		ldr	r3, [r4, #24]
 445 0030 9B05     		lsls	r3, r3, #22
 446 0032 01D4     		bmi	.L41
 447              		.loc 1 172 0
 448 0034 0120     		movs	r0, #1
 449 0036 EBE7     		b	.L33
 450              	.L41:
 451              		.loc 1 167 0
 452 0038 B4F91250 		ldrsh	r5, [r4, #18]
 453 003c A068     		ldr	r0, [r4, #8]
 454 003e B4F90C10 		ldrsh	r1, [r4, #12]
 455 0042 B4F90E20 		ldrsh	r2, [r4, #14]
ARM GAS  /tmp/cc2KHMri.s 			page 9


 456 0046 B4F91030 		ldrsh	r3, [r4, #16]
 457 004a 0095     		str	r5, [sp]
 458 004c FFF7FEFF 		bl	gdispGSetClip
 459              	.LVL61:
 460              		.loc 1 169 0
 461 0050 2046     		mov	r0, r4
 462 0052 FFF7FEFF 		bl	_redraw
 463              	.LVL62:
 464              		.loc 1 172 0
 465 0056 0120     		movs	r0, #1
 466 0058 DAE7     		b	.L33
 467              	.L40:
 468              		.loc 1 158 0
 469 005a 2846     		mov	r0, r5
 470 005c FFF7FEFF 		bl	gdispImageClose
 471              	.LVL63:
 472 0060 0399     		ldr	r1, [sp, #12]
 473 0062 DFE7     		b	.L34
 474              	.L43:
 475              		.align	2
 476              	.L42:
 477 0064 00000000 		.word	.LANCHOR0
 478              		.cfi_endproc
 479              	.LFE114:
 480              		.size	gwinImageOpenGFile, .-gwinImageOpenGFile
 481 0068 AFF30080 		.section	.text.gwinImageCache,"ax",%progbits
 481      AFF30080 
 482              		.align	2
 483              		.p2align 4,,15
 484              		.global	gwinImageCache
 485              		.thumb
 486              		.thumb_func
 487              		.type	gwinImageCache, %function
 488              	gwinImageCache:
 489              	.LFB115:
 490              		.loc 1 175 0
 491              		.cfi_startproc
 492              		@ args = 0, pretend = 0, frame = 0
 493              		@ frame_needed = 0, uses_anonymous_args = 0
 494              		@ link register save eliminated.
 495              	.LVL64:
 496              		.loc 1 177 0
 497 0000 044A     		ldr	r2, .L47
 498 0002 4368     		ldr	r3, [r0, #4]
 499 0004 9342     		cmp	r3, r2
 500 0006 02D0     		beq	.L46
 501              		.loc 1 181 0
 502 0008 48F20100 		movw	r0, #32769
 503              	.LVL65:
 504 000c 7047     		bx	lr
 505              	.LVL66:
 506              	.L46:
 507              		.loc 1 180 0
 508 000e 2030     		adds	r0, r0, #32
 509              	.LVL67:
 510 0010 FFF7FEBF 		b	gdispImageCache
 511              	.LVL68:
ARM GAS  /tmp/cc2KHMri.s 			page 10


 512              	.L48:
 513              		.align	2
 514              	.L47:
 515 0014 00000000 		.word	.LANCHOR0
 516              		.cfi_endproc
 517              	.LFE115:
 518              		.size	gwinImageCache, .-gwinImageCache
 519 0018 AFF30080 		.section	.rodata.imageVMT,"a",%progbits
 519      AFF30080 
 520              		.align	2
 521              		.set	.LANCHOR0,. + 0
 522              		.type	imageVMT, %object
 523              		.size	imageVMT, 20
 524              	imageVMT:
 525 0000 00000000 		.word	.LC0
 526 0004 38000000 		.word	56
 527 0008 00000000 		.word	_destroy
 528 000c 00000000 		.word	_redraw
 529 0010 00000000 		.word	0
 530              		.section	.rodata.str1.4,"aMS",%progbits,1
 531              		.align	2
 532              	.LC0:
 533 0000 496D6167 		.ascii	"Image\000"
 533      6500
 534 0006 0000     		.text
 535              	.Letext0:
 536              		.file 2 "/opt/ARM/lib/gcc/arm-none-eabi/4.8.4/include/stddef.h"
 537              		.file 3 "/opt/ARM/arm-none-eabi/include/machine/_default_types.h"
 538              		.file 4 "/opt/ARM/arm-none-eabi/include/stdint.h"
 539              		.file 5 "../../os/ports/GCC/ARMCMx/chtypes.h"
 540              		.file 6 "/home/makkmarci/devel/ugfx/src/gqueue/sys_defs.h"
 541              		.file 7 "/home/makkmarci/devel/ugfx/src/gdisp/sys_defs.h"
 542              		.file 8 "/home/makkmarci/devel/ugfx/src/gdisp/colors.h"
 543              		.file 9 "/home/makkmarci/devel/ugfx/src/gdisp/image.h"
 544              		.file 10 "/home/makkmarci/devel/ugfx/src/gwin/sys_defs.h"
 545              		.file 11 "/home/makkmarci/devel/ugfx/src/gwin/class_gwin.h"
 546              		.file 12 "/home/makkmarci/devel/ugfx/src/gwin/gimage.h"
 547              		.file 13 "/home/makkmarci/devel/ugfx/src/gfile/sys_defs.h"
 548              		.file 14 "../../os/ports/common/ARMCMx/CMSIS/include/core_cm4.h"