ARM GAS  /tmp/ccHDh8R6.s 			page 1


   1              		.syntax unified
   2              		.cpu cortex-m4
   3              		.eabi_attribute 27, 1
   4              		.eabi_attribute 28, 1
   5              		.fpu fpv4-sp-d16
   6              		.eabi_attribute 20, 1
   7              		.eabi_attribute 21, 1
   8              		.eabi_attribute 23, 3
   9              		.eabi_attribute 24, 1
  10              		.eabi_attribute 25, 1
  11              		.eabi_attribute 26, 1
  12              		.eabi_attribute 30, 6
  13              		.eabi_attribute 34, 1
  14              		.eabi_attribute 18, 4
  15              		.thumb
  16              		.file	"ginput.c"
  17              		.text
  18              	.Ltext0:
  19              		.cfi_sections	.debug_frame
  20              		.section	.text._ginputInit,"ax",%progbits
  21              		.align	2
  22              		.p2align 4,,15
  23              		.global	_ginputInit
  24              		.thumb
  25              		.thumb_func
  26              		.type	_ginputInit, %function
  27              	_ginputInit:
  28              	.LFB111:
  29              		.file 1 "/home/makkmarci/workspace/ugfx/src/ginput/ginput.c"
  30              		.loc 1 29 0
  31              		.cfi_startproc
  32              		@ args = 0, pretend = 0, frame = 0
  33              		@ frame_needed = 0, uses_anonymous_args = 0
  34 0000 08B5     		push	{r3, lr}
  35              		.cfi_def_cfa_offset 8
  36              		.cfi_offset 3, -8
  37              		.cfi_offset 14, -4
  38              		.loc 1 31 0
  39 0002 FFF7FEFF 		bl	_gmouseInit
  40              		.loc 1 40 0
  41 0006 08BD     		pop	{r3, pc}
  42              		.cfi_endproc
  43              	.LFE111:
  44              		.size	_ginputInit, .-_ginputInit
  45 0008 AFF30080 		.section	.text._ginputDeinit,"ax",%progbits
  45      AFF30080 
  46              		.align	2
  47              		.p2align 4,,15
  48              		.global	_ginputDeinit
  49              		.thumb
  50              		.thumb_func
  51              		.type	_ginputDeinit, %function
  52              	_ginputDeinit:
  53              	.LFB112:
  54              		.loc 1 43 0
  55              		.cfi_startproc
  56              		@ args = 0, pretend = 0, frame = 0
ARM GAS  /tmp/ccHDh8R6.s 			page 2


  57              		@ frame_needed = 0, uses_anonymous_args = 0
  58 0000 08B5     		push	{r3, lr}
  59              		.cfi_def_cfa_offset 8
  60              		.cfi_offset 3, -8
  61              		.cfi_offset 14, -4
  62              		.loc 1 48 0
  63 0002 FFF7FEFF 		bl	_gmouseDeinit
  64              		.loc 1 50 0
  65 0006 08BD     		pop	{r3, pc}
  66              		.cfi_endproc
  67              	.LFE112:
  68              		.size	_ginputDeinit, .-_ginputDeinit
  69              		.text
  70              	.Letext0:
  71              		.file 2 "/opt/gcc-arm-none-eabi/arm-none-eabi/include/machine/_default_types.h"
  72              		.file 3 "/opt/gcc-arm-none-eabi/arm-none-eabi/include/stdint.h"
  73              		.file 4 "/home/makkmarci/workspace/ChibiOS_2.6.8/os/ports/common/ARMCMx/CMSIS/include/core_cm4.h"