ARM GAS  /tmp/ccLZSnB9.s 			page 1


   1              		.syntax unified
   2              		.cpu cortex-m4
   3              		.eabi_attribute 27, 1
   4              		.eabi_attribute 28, 1
   5              		.fpu fpv4-sp-d16
   6              		.eabi_attribute 20, 1
   7              		.eabi_attribute 21, 1
   8              		.eabi_attribute 23, 3
   9              		.eabi_attribute 24, 1
  10              		.eabi_attribute 25, 1
  11              		.eabi_attribute 26, 1
  12              		.eabi_attribute 30, 6
  13              		.eabi_attribute 34, 1
  14              		.eabi_attribute 18, 4
  15              		.thumb
  16              		.file	"ginput_mouse.c"
  17              		.text
  18              	.Ltext0:
  19              		.cfi_sections	.debug_frame
  20              		.section	.bss.MouseTimer,"aw",%nobits
  21              		.align	2
  22              		.type	MouseTimer, %object
  23              		.size	MouseTimer, 28
  24              	MouseTimer:
  25 0000 00000000 		.space	28
  25      00000000 
  25      00000000 
  25      00000000 
  25      00000000 
  26              		.section	.text.CalibrationTransform,"ax",%progbits
  27              		.align	2
  28              		.p2align 4,,15
  29              		.thumb
  30              		.thumb_func
  31              		.type	CalibrationTransform, %function
  32              	CalibrationTransform:
  33              	.LFB111:
  34              		.file 1 "/home/makkmarci/workspace/ugfx/src/ginput/ginput_mouse.c"
  35              		.loc 1 58 0
  36              		.cfi_startproc
  37              		@ args = 0, pretend = 0, frame = 16
  38              		@ frame_needed = 0, uses_anonymous_args = 0
  39              		@ link register save eliminated.
  40 0000 84B0     		sub	sp, sp, #16
  41              		.cfi_def_cfa_offset 16
  42 0002 0390     		str	r0, [sp, #12]
  43 0004 0291     		str	r1, [sp, #8]
  44              		.loc 1 59 0
  45 0006 029B     		ldr	r3, [sp, #8]
  46 0008 93ED007A 		flds	s14, [r3]
  47 000c 039B     		ldr	r3, [sp, #12]
  48 000e 1B88     		ldrh	r3, [r3]
  49 0010 1BB2     		sxth	r3, r3
  50 0012 07EE903A 		fmsr	s15, r3	@ int
  51 0016 F8EEE77A 		fsitos	s15, s15
  52 001a 27EE277A 		fmuls	s14, s14, s15
  53 001e 029B     		ldr	r3, [sp, #8]
ARM GAS  /tmp/ccLZSnB9.s 			page 2


  54 0020 D3ED016A 		flds	s13, [r3, #4]
  55 0024 039B     		ldr	r3, [sp, #12]
  56 0026 5B88     		ldrh	r3, [r3, #2]
  57 0028 1BB2     		sxth	r3, r3
  58 002a 07EE903A 		fmsr	s15, r3	@ int
  59 002e F8EEE77A 		fsitos	s15, s15
  60 0032 66EEA77A 		fmuls	s15, s13, s15
  61 0036 37EE277A 		fadds	s14, s14, s15
  62 003a 029B     		ldr	r3, [sp, #8]
  63 003c D3ED027A 		flds	s15, [r3, #8]
  64 0040 77EE277A 		fadds	s15, s14, s15
  65 0044 FDEEE77A 		ftosizs	s15, s15
  66 0048 CDED017A 		fsts	s15, [sp, #4]	@ int
  67 004c BDF80430 		ldrh	r3, [sp, #4]	@ movhi
  68 0050 9AB2     		uxth	r2, r3
  69 0052 039B     		ldr	r3, [sp, #12]
  70 0054 1A80     		strh	r2, [r3]	@ movhi
  71              		.loc 1 60 0
  72 0056 029B     		ldr	r3, [sp, #8]
  73 0058 93ED037A 		flds	s14, [r3, #12]
  74 005c 039B     		ldr	r3, [sp, #12]
  75 005e 1B88     		ldrh	r3, [r3]
  76 0060 1BB2     		sxth	r3, r3
  77 0062 07EE903A 		fmsr	s15, r3	@ int
  78 0066 F8EEE77A 		fsitos	s15, s15
  79 006a 27EE277A 		fmuls	s14, s14, s15
  80 006e 029B     		ldr	r3, [sp, #8]
  81 0070 D3ED046A 		flds	s13, [r3, #16]
  82 0074 039B     		ldr	r3, [sp, #12]
  83 0076 5B88     		ldrh	r3, [r3, #2]
  84 0078 1BB2     		sxth	r3, r3
  85 007a 07EE903A 		fmsr	s15, r3	@ int
  86 007e F8EEE77A 		fsitos	s15, s15
  87 0082 66EEA77A 		fmuls	s15, s13, s15
  88 0086 37EE277A 		fadds	s14, s14, s15
  89 008a 029B     		ldr	r3, [sp, #8]
  90 008c D3ED057A 		flds	s15, [r3, #20]
  91 0090 77EE277A 		fadds	s15, s14, s15
  92 0094 FDEEE77A 		ftosizs	s15, s15
  93 0098 CDED017A 		fsts	s15, [sp, #4]	@ int
  94 009c BDF80430 		ldrh	r3, [sp, #4]	@ movhi
  95 00a0 9AB2     		uxth	r2, r3
  96 00a2 039B     		ldr	r3, [sp, #12]
  97 00a4 5A80     		strh	r2, [r3, #2]	@ movhi
  98              		.loc 1 61 0
  99 00a6 04B0     		add	sp, sp, #16
 100              		.cfi_def_cfa_offset 0
 101              		@ sp needed
 102 00a8 7047     		bx	lr
 103              		.cfi_endproc
 104              	.LFE111:
 105              		.size	CalibrationTransform, .-CalibrationTransform
 106 00aa 00BFAFF3 		.section	.text.SendMouseEvent,"ax",%progbits
 106      0080
 107              		.align	2
 108              		.p2align 4,,15
 109              		.thumb
ARM GAS  /tmp/ccLZSnB9.s 			page 3


 110              		.thumb_func
 111              		.type	SendMouseEvent, %function
 112              	SendMouseEvent:
 113              	.LFB112:
 114              		.loc 1 64 0
 115              		.cfi_startproc
 116              		@ args = 0, pretend = 0, frame = 24
 117              		@ frame_needed = 0, uses_anonymous_args = 0
 118 0000 00B5     		push	{lr}
 119              		.cfi_def_cfa_offset 4
 120              		.cfi_offset 14, -4
 121 0002 87B0     		sub	sp, sp, #28
 122              		.cfi_def_cfa_offset 32
 123 0004 0390     		str	r0, [sp, #12]
 124 0006 0291     		str	r1, [sp, #8]
 125 0008 0192     		str	r2, [sp, #4]
 126              		.loc 1 68 0
 127 000a 0398     		ldr	r0, [sp, #12]
 128 000c FFF7FEFF 		bl	geventGetEventBuffer
 129 0010 0590     		str	r0, [sp, #20]
 130 0012 059B     		ldr	r3, [sp, #20]
 131 0014 002B     		cmp	r3, #0
 132 0016 0BD1     		bne	.L3
 133              		.loc 1 70 0
 134 0018 039B     		ldr	r3, [sp, #12]
 135 001a DA68     		ldr	r2, [r3, #12]
 136 001c 019B     		ldr	r3, [sp, #4]
 137 001e DB88     		ldrh	r3, [r3, #6]
 138 0020 03F0F003 		and	r3, r3, #240
 139 0024 1343     		orrs	r3, r3, r2
 140 0026 43F40042 		orr	r2, r3, #32768
 141 002a 039B     		ldr	r3, [sp, #12]
 142 002c DA60     		str	r2, [r3, #12]
 143              		.loc 1 71 0
 144 002e 7CE0     		b	.L2
 145              	.L3:
 146              		.loc 1 75 0
 147 0030 019B     		ldr	r3, [sp, #4]
 148 0032 DB88     		ldrh	r3, [r3, #6]
 149 0034 03F0F003 		and	r3, r3, #240
 150 0038 002B     		cmp	r3, #0
 151 003a 24D1     		bne	.L5
 152              		.loc 1 75 0 is_stmt 0 discriminator 1
 153 003c 039B     		ldr	r3, [sp, #12]
 154 003e DB68     		ldr	r3, [r3, #12]
 155 0040 002B     		cmp	r3, #0
 156 0042 20D1     		bne	.L5
 157              		.loc 1 75 0 discriminator 2
 158 0044 039B     		ldr	r3, [sp, #12]
 159 0046 9B68     		ldr	r3, [r3, #8]
 160 0048 03F00803 		and	r3, r3, #8
 161 004c 002B     		cmp	r3, #0
 162 004e 1AD1     		bne	.L5
 163              		.loc 1 76 0 is_stmt 1
 164 0050 019B     		ldr	r3, [sp, #4]
 165 0052 1A88     		ldrh	r2, [r3]
 166 0054 029B     		ldr	r3, [sp, #8]
ARM GAS  /tmp/ccLZSnB9.s 			page 4


 167 0056 1B89     		ldrh	r3, [r3, #8]
 168 0058 12B2     		sxth	r2, r2
 169 005a 1BB2     		sxth	r3, r3
 170 005c 9A42     		cmp	r2, r3
 171 005e 12D1     		bne	.L5
 172              		.loc 1 76 0 is_stmt 0 discriminator 1
 173 0060 019B     		ldr	r3, [sp, #4]
 174 0062 5A88     		ldrh	r2, [r3, #2]
 175 0064 029B     		ldr	r3, [sp, #8]
 176 0066 5B89     		ldrh	r3, [r3, #10]
 177 0068 12B2     		sxth	r2, r2
 178 006a 1BB2     		sxth	r3, r3
 179 006c 9A42     		cmp	r2, r3
 180 006e 0AD1     		bne	.L5
 181              		.loc 1 76 0 discriminator 2
 182 0070 019B     		ldr	r3, [sp, #4]
 183 0072 DB88     		ldrh	r3, [r3, #6]
 184 0074 1A46     		mov	r2, r3
 185 0076 029B     		ldr	r3, [sp, #8]
 186 0078 DB89     		ldrh	r3, [r3, #14]
 187 007a 5340     		eors	r3, r3, r2
 188 007c 03F00F03 		and	r3, r3, #15
 189 0080 002B     		cmp	r3, #0
 190 0082 00D1     		bne	.L5
 191              		.loc 1 77 0 is_stmt 1
 192 0084 51E0     		b	.L2
 193              	.L5:
 194              		.loc 1 80 0
 195 0086 019B     		ldr	r3, [sp, #4]
 196 0088 DB88     		ldrh	r3, [r3, #6]
 197 008a 03F00103 		and	r3, r3, #1
 198 008e 002B     		cmp	r3, #0
 199 0090 05D0     		beq	.L6
 200              		.loc 1 80 0 is_stmt 0 discriminator 1
 201 0092 039B     		ldr	r3, [sp, #12]
 202 0094 9B68     		ldr	r3, [r3, #8]
 203 0096 03F00203 		and	r3, r3, #2
 204 009a 002B     		cmp	r3, #0
 205 009c 18D1     		bne	.L7
 206              	.L6:
 207              		.loc 1 81 0 is_stmt 1
 208 009e 019B     		ldr	r3, [sp, #4]
 209 00a0 DB88     		ldrh	r3, [r3, #6]
 210 00a2 03F00103 		and	r3, r3, #1
 211 00a6 002B     		cmp	r3, #0
 212 00a8 05D1     		bne	.L8
 213              		.loc 1 81 0 is_stmt 0 discriminator 1
 214 00aa 039B     		ldr	r3, [sp, #12]
 215 00ac 9B68     		ldr	r3, [r3, #8]
 216 00ae 03F00403 		and	r3, r3, #4
 217 00b2 002B     		cmp	r3, #0
 218 00b4 0CD1     		bne	.L7
 219              	.L8:
 220              		.loc 1 82 0 is_stmt 1
 221 00b6 019B     		ldr	r3, [sp, #4]
 222 00b8 DB88     		ldrh	r3, [r3, #6]
 223 00ba 03F0F003 		and	r3, r3, #240
ARM GAS  /tmp/ccLZSnB9.s 			page 5


 224 00be 002B     		cmp	r3, #0
 225 00c0 05D0     		beq	.L9
 226              		.loc 1 82 0 is_stmt 0 discriminator 1
 227 00c2 039B     		ldr	r3, [sp, #12]
 228 00c4 9B68     		ldr	r3, [r3, #8]
 229 00c6 03F00103 		and	r3, r3, #1
 230 00ca 002B     		cmp	r3, #0
 231 00cc 00D1     		bne	.L7
 232              	.L9:
 233              		.loc 1 83 0 is_stmt 1 discriminator 2
 234 00ce 2CE0     		b	.L2
 235              	.L7:
 236              		.loc 1 86 0
 237 00d0 029B     		ldr	r3, [sp, #8]
 238 00d2 5B68     		ldr	r3, [r3, #4]
 239 00d4 5B88     		ldrh	r3, [r3, #2]
 240 00d6 03F00103 		and	r3, r3, #1
 241 00da 002B     		cmp	r3, #0
 242 00dc 02D0     		beq	.L10
 243              		.loc 1 86 0 is_stmt 0 discriminator 1
 244 00de 40F20112 		movw	r2, #257
 245 00e2 01E0     		b	.L11
 246              	.L10:
 247              		.loc 1 86 0 discriminator 2
 248 00e4 4FF48072 		mov	r2, #256
 249              	.L11:
 250              		.loc 1 86 0 discriminator 4
 251 00e8 059B     		ldr	r3, [sp, #20]
 252 00ea 1A80     		strh	r2, [r3]	@ movhi
 253              		.loc 1 90 0 is_stmt 1 discriminator 4
 254 00ec 019B     		ldr	r3, [sp, #4]
 255 00ee 1A88     		ldrh	r2, [r3]
 256 00f0 059B     		ldr	r3, [sp, #20]
 257 00f2 5A80     		strh	r2, [r3, #2]	@ movhi
 258              		.loc 1 91 0 discriminator 4
 259 00f4 019B     		ldr	r3, [sp, #4]
 260 00f6 5A88     		ldrh	r2, [r3, #2]
 261 00f8 059B     		ldr	r3, [sp, #20]
 262 00fa 9A80     		strh	r2, [r3, #4]	@ movhi
 263              		.loc 1 92 0 discriminator 4
 264 00fc 019B     		ldr	r3, [sp, #4]
 265 00fe 9A88     		ldrh	r2, [r3, #4]
 266 0100 059B     		ldr	r3, [sp, #20]
 267 0102 DA80     		strh	r2, [r3, #6]	@ movhi
 268              		.loc 1 93 0 discriminator 4
 269 0104 019B     		ldr	r3, [sp, #4]
 270 0106 DA88     		ldrh	r2, [r3, #6]
 271 0108 039B     		ldr	r3, [sp, #12]
 272 010a DB68     		ldr	r3, [r3, #12]
 273 010c 9BB2     		uxth	r3, r3
 274 010e 1343     		orrs	r3, r3, r2
 275 0110 9AB2     		uxth	r2, r3
 276 0112 059B     		ldr	r3, [sp, #20]
 277 0114 1A81     		strh	r2, [r3, #8]	@ movhi
 278              		.loc 1 94 0 discriminator 4
 279 0116 039B     		ldr	r3, [sp, #12]
 280 0118 0022     		movs	r2, #0
ARM GAS  /tmp/ccLZSnB9.s 			page 6


 281 011a DA60     		str	r2, [r3, #12]
 282              		.loc 1 95 0 discriminator 4
 283 011c 029B     		ldr	r3, [sp, #8]
 284 011e DA69     		ldr	r2, [r3, #28]
 285 0120 059B     		ldr	r3, [sp, #20]
 286 0122 DA60     		str	r2, [r3, #12]
 287              		.loc 1 96 0 discriminator 4
 288 0124 0398     		ldr	r0, [sp, #12]
 289 0126 FFF7FEFF 		bl	geventSendEvent
 290              	.L2:
 291              		.loc 1 97 0
 292 012a 07B0     		add	sp, sp, #28
 293              		.cfi_def_cfa_offset 4
 294              		@ sp needed
 295 012c 5DF804FB 		ldr	pc, [sp], #4
 296              		.cfi_endproc
 297              	.LFE112:
 298              		.size	SendMouseEvent, .-SendMouseEvent
 299              		.section	.text.GetMouseReading,"ax",%progbits
 300              		.align	2
 301              		.p2align 4,,15
 302              		.thumb
 303              		.thumb_func
 304              		.type	GetMouseReading, %function
 305              	GetMouseReading:
 306              	.LFB113:
 307              		.loc 1 99 0
 308              		.cfi_startproc
 309              		@ args = 0, pretend = 0, frame = 40
 310              		@ frame_needed = 0, uses_anonymous_args = 0
 311 0000 00B5     		push	{lr}
 312              		.cfi_def_cfa_offset 4
 313              		.cfi_offset 14, -4
 314 0002 8BB0     		sub	sp, sp, #44
 315              		.cfi_def_cfa_offset 48
 316 0004 0190     		str	r0, [sp, #4]
 317              		.loc 1 104 0
 318 0006 019B     		ldr	r3, [sp, #4]
 319 0008 1B8A     		ldrh	r3, [r3, #16]
 320 000a 23F04003 		bic	r3, r3, #64
 321 000e 9AB2     		uxth	r2, r3
 322 0010 019B     		ldr	r3, [sp, #4]
 323 0012 1A82     		strh	r2, [r3, #16]	@ movhi
 324              		.loc 1 105 0
 325 0014 019B     		ldr	r3, [sp, #4]
 326 0016 5B68     		ldr	r3, [r3, #4]
 327 0018 1B6B     		ldr	r3, [r3, #48]
 328 001a 02AA     		add	r2, sp, #8
 329 001c 0198     		ldr	r0, [sp, #4]
 330 001e 1146     		mov	r1, r2
 331 0020 9847     		blx	r3
 332 0022 0346     		mov	r3, r0
 333 0024 83F00103 		eor	r3, r3, #1
 334 0028 DBB2     		uxtb	r3, r3
 335 002a 002B     		cmp	r3, #0
 336 002c 00D0     		beq	.L13
 337              		.loc 1 106 0
ARM GAS  /tmp/ccLZSnB9.s 			page 7


 338 002e B4E2     		b	.L12
 339              	.L13:
 340              		.loc 1 112 0
 341 0030 BDF80E30 		ldrh	r3, [sp, #14]
 342 0034 03F00F03 		and	r3, r3, #15
 343 0038 9BB2     		uxth	r3, r3
 344 003a ADF80E30 		strh	r3, [sp, #14]	@ movhi
 345              		.loc 1 116 0
 346 003e 019B     		ldr	r3, [sp, #4]
 347 0040 5B68     		ldr	r3, [r3, #4]
 348 0042 5B88     		ldrh	r3, [r3, #2]
 349 0044 03F00103 		and	r3, r3, #1
 350 0048 002B     		cmp	r3, #0
 351 004a 4FD0     		beq	.L15
 352              		.loc 1 117 0
 353 004c 019B     		ldr	r3, [sp, #4]
 354 004e 5B68     		ldr	r3, [r3, #4]
 355 0050 DA8A     		ldrh	r2, [r3, #22]
 356 0052 019B     		ldr	r3, [sp, #4]
 357 0054 5B68     		ldr	r3, [r3, #4]
 358 0056 9B8A     		ldrh	r3, [r3, #20]
 359 0058 12B2     		sxth	r2, r2
 360 005a 1BB2     		sxth	r3, r3
 361 005c 9A42     		cmp	r2, r3
 362 005e 22DC     		bgt	.L16
 363              		.loc 1 118 0
 364 0060 BDF80C20 		ldrh	r2, [sp, #12]
 365 0064 019B     		ldr	r3, [sp, #4]
 366 0066 5B68     		ldr	r3, [r3, #4]
 367 0068 1B8B     		ldrh	r3, [r3, #24]
 368 006a 12B2     		sxth	r2, r2
 369 006c 1BB2     		sxth	r3, r3
 370 006e 9A42     		cmp	r2, r3
 371 0070 07DB     		blt	.L17
 372              		.loc 1 118 0 is_stmt 0 discriminator 1
 373 0072 BDF80E30 		ldrh	r3, [sp, #14]
 374 0076 43F00103 		orr	r3, r3, #1
 375 007a 9BB2     		uxth	r3, r3
 376 007c ADF80E30 		strh	r3, [sp, #14]	@ movhi
 377 0080 34E0     		b	.L15
 378              	.L17:
 379              		.loc 1 119 0 is_stmt 1
 380 0082 BDF80C20 		ldrh	r2, [sp, #12]
 381 0086 019B     		ldr	r3, [sp, #4]
 382 0088 5B68     		ldr	r3, [r3, #4]
 383 008a 5B8B     		ldrh	r3, [r3, #26]
 384 008c 12B2     		sxth	r2, r2
 385 008e 1BB2     		sxth	r3, r3
 386 0090 9A42     		cmp	r2, r3
 387 0092 07DC     		bgt	.L18
 388              		.loc 1 119 0 is_stmt 0 discriminator 1
 389 0094 BDF80E30 		ldrh	r3, [sp, #14]
 390 0098 23F00103 		bic	r3, r3, #1
 391 009c 9BB2     		uxth	r3, r3
 392 009e ADF80E30 		strh	r3, [sp, #14]	@ movhi
 393 00a2 23E0     		b	.L15
 394              	.L18:
ARM GAS  /tmp/ccLZSnB9.s 			page 8


 395              		.loc 1 120 0 is_stmt 1
 396 00a4 79E2     		b	.L12
 397              	.L16:
 398              		.loc 1 122 0
 399 00a6 BDF80C20 		ldrh	r2, [sp, #12]
 400 00aa 019B     		ldr	r3, [sp, #4]
 401 00ac 5B68     		ldr	r3, [r3, #4]
 402 00ae 1B8B     		ldrh	r3, [r3, #24]
 403 00b0 12B2     		sxth	r2, r2
 404 00b2 1BB2     		sxth	r3, r3
 405 00b4 9A42     		cmp	r2, r3
 406 00b6 07DC     		bgt	.L19
 407              		.loc 1 122 0 is_stmt 0 discriminator 1
 408 00b8 BDF80E30 		ldrh	r3, [sp, #14]
 409 00bc 43F00103 		orr	r3, r3, #1
 410 00c0 9BB2     		uxth	r3, r3
 411 00c2 ADF80E30 		strh	r3, [sp, #14]	@ movhi
 412 00c6 11E0     		b	.L15
 413              	.L19:
 414              		.loc 1 123 0 is_stmt 1
 415 00c8 BDF80C20 		ldrh	r2, [sp, #12]
 416 00cc 019B     		ldr	r3, [sp, #4]
 417 00ce 5B68     		ldr	r3, [r3, #4]
 418 00d0 5B8B     		ldrh	r3, [r3, #26]
 419 00d2 12B2     		sxth	r2, r2
 420 00d4 1BB2     		sxth	r3, r3
 421 00d6 9A42     		cmp	r2, r3
 422 00d8 07DB     		blt	.L20
 423              		.loc 1 123 0 is_stmt 0 discriminator 1
 424 00da BDF80E30 		ldrh	r3, [sp, #14]
 425 00de 23F00103 		bic	r3, r3, #1
 426 00e2 9BB2     		uxth	r3, r3
 427 00e4 ADF80E30 		strh	r3, [sp, #14]	@ movhi
 428 00e8 00E0     		b	.L15
 429              	.L20:
 430              		.loc 1 124 0 is_stmt 1
 431 00ea 56E2     		b	.L12
 432              	.L15:
 433              		.loc 1 129 0
 434 00ec 019B     		ldr	r3, [sp, #4]
 435 00ee 5B68     		ldr	r3, [r3, #4]
 436 00f0 5B88     		ldrh	r3, [r3, #2]
 437 00f2 03F40073 		and	r3, r3, #512
 438 00f6 002B     		cmp	r3, #0
 439 00f8 31D0     		beq	.L21
 440              		.loc 1 131 0
 441 00fa 019B     		ldr	r3, [sp, #4]
 442 00fc 1B8A     		ldrh	r3, [r3, #16]
 443 00fe 03F00203 		and	r3, r3, #2
 444 0102 002B     		cmp	r3, #0
 445 0104 19D0     		beq	.L22
 446              		.loc 1 132 0
 447 0106 BDF80E20 		ldrh	r2, [sp, #14]
 448 010a 019B     		ldr	r3, [sp, #4]
 449 010c DB89     		ldrh	r3, [r3, #14]
 450 010e 5340     		eors	r3, r3, r2
 451 0110 9BB2     		uxth	r3, r3
ARM GAS  /tmp/ccLZSnB9.s 			page 9


 452 0112 03F00103 		and	r3, r3, #1
 453 0116 002B     		cmp	r3, #0
 454 0118 07D1     		bne	.L23
 455              		.loc 1 134 0
 456 011a 019B     		ldr	r3, [sp, #4]
 457 011c 1B8A     		ldrh	r3, [r3, #16]
 458 011e 23F00203 		bic	r3, r3, #2
 459 0122 9AB2     		uxth	r2, r3
 460 0124 019B     		ldr	r3, [sp, #4]
 461 0126 1A82     		strh	r2, [r3, #16]	@ movhi
 462              		.loc 1 135 0
 463 0128 37E2     		b	.L12
 464              	.L23:
 465              		.loc 1 138 0
 466 012a 019B     		ldr	r3, [sp, #4]
 467 012c 1B8A     		ldrh	r3, [r3, #16]
 468 012e 23F00203 		bic	r3, r3, #2
 469 0132 9AB2     		uxth	r2, r3
 470 0134 019B     		ldr	r3, [sp, #4]
 471 0136 1A82     		strh	r2, [r3, #16]	@ movhi
 472 0138 11E0     		b	.L21
 473              	.L22:
 474              		.loc 1 141 0
 475 013a BDF80E20 		ldrh	r2, [sp, #14]
 476 013e 019B     		ldr	r3, [sp, #4]
 477 0140 DB89     		ldrh	r3, [r3, #14]
 478 0142 5340     		eors	r3, r3, r2
 479 0144 9BB2     		uxth	r3, r3
 480 0146 03F00103 		and	r3, r3, #1
 481 014a 002B     		cmp	r3, #0
 482 014c 07D0     		beq	.L21
 483              		.loc 1 142 0
 484 014e 019B     		ldr	r3, [sp, #4]
 485 0150 1B8A     		ldrh	r3, [r3, #16]
 486 0152 43F00203 		orr	r3, r3, #2
 487 0156 9AB2     		uxth	r2, r3
 488 0158 019B     		ldr	r3, [sp, #4]
 489 015a 1A82     		strh	r2, [r3, #16]	@ movhi
 490              		.loc 1 143 0
 491 015c 1DE2     		b	.L12
 492              	.L21:
 493              		.loc 1 164 0
 494 015e 019B     		ldr	r3, [sp, #4]
 495 0160 5B68     		ldr	r3, [r3, #4]
 496 0162 5B88     		ldrh	r3, [r3, #2]
 497 0164 03F48073 		and	r3, r3, #256
 498 0168 002B     		cmp	r3, #0
 499 016a 0ED0     		beq	.L24
 500              		.loc 1 164 0 is_stmt 0 discriminator 1
 501 016c BDF80E30 		ldrh	r3, [sp, #14]
 502 0170 03F00103 		and	r3, r3, #1
 503 0174 002B     		cmp	r3, #0
 504 0176 08D1     		bne	.L24
 505              		.loc 1 165 0 is_stmt 1
 506 0178 019B     		ldr	r3, [sp, #4]
 507 017a 1B89     		ldrh	r3, [r3, #8]
 508 017c ADF80830 		strh	r3, [sp, #8]	@ movhi
ARM GAS  /tmp/ccLZSnB9.s 			page 10


 509              		.loc 1 166 0
 510 0180 019B     		ldr	r3, [sp, #4]
 511 0182 5B89     		ldrh	r3, [r3, #10]
 512 0184 ADF80A30 		strh	r3, [sp, #10]	@ movhi
 513 0188 B3E0     		b	.L25
 514              	.L24:
 515              		.loc 1 172 0
 516 018a 019B     		ldr	r3, [sp, #4]
 517 018c 1B8A     		ldrh	r3, [r3, #16]
 518 018e 03F00803 		and	r3, r3, #8
 519 0192 002B     		cmp	r3, #0
 520 0194 06D0     		beq	.L26
 521              		.loc 1 173 0
 522 0196 019B     		ldr	r3, [sp, #4]
 523 0198 2033     		adds	r3, r3, #32
 524 019a 02AA     		add	r2, sp, #8
 525 019c 1046     		mov	r0, r2
 526 019e 1946     		mov	r1, r3
 527 01a0 FFF7FEFF 		bl	CalibrationTransform
 528              	.L26:
 529              		.loc 1 177 0
 530 01a4 019B     		ldr	r3, [sp, #4]
 531 01a6 DB69     		ldr	r3, [r3, #28]
 532 01a8 002B     		cmp	r3, #0
 533 01aa 00F0A280 		beq	.L25
 534              	.LBB2:
 535              		.loc 1 181 0
 536 01ae 019B     		ldr	r3, [sp, #4]
 537 01b0 DB69     		ldr	r3, [r3, #28]
 538 01b2 1846     		mov	r0, r3
 539 01b4 FFF7FEFF 		bl	gdispGGetWidth
 540 01b8 0346     		mov	r3, r0
 541 01ba ADF82230 		strh	r3, [sp, #34]	@ movhi
 542              		.loc 1 182 0
 543 01be 019B     		ldr	r3, [sp, #4]
 544 01c0 DB69     		ldr	r3, [r3, #28]
 545 01c2 1846     		mov	r0, r3
 546 01c4 FFF7FEFF 		bl	gdispGGetHeight
 547 01c8 0346     		mov	r3, r0
 548 01ca ADF82030 		strh	r3, [sp, #32]	@ movhi
 549              		.loc 1 186 0
 550 01ce 019B     		ldr	r3, [sp, #4]
 551 01d0 5B68     		ldr	r3, [r3, #4]
 552 01d2 5B88     		ldrh	r3, [r3, #2]
 553 01d4 03F00403 		and	r3, r3, #4
 554 01d8 002B     		cmp	r3, #0
 555 01da 56D1     		bne	.L27
 556              	.LBB3:
 557              		.loc 1 189 0
 558 01dc 019B     		ldr	r3, [sp, #4]
 559 01de DB69     		ldr	r3, [r3, #28]
 560 01e0 1846     		mov	r0, r3
 561 01e2 FFF7FEFF 		bl	gdispGGetOrientation
 562 01e6 0346     		mov	r3, r0
 563 01e8 5A2B     		cmp	r3, #90
 564 01ea 0AD0     		beq	.L29
 565 01ec 5A2B     		cmp	r3, #90
ARM GAS  /tmp/ccLZSnB9.s 			page 11


 566 01ee 02DC     		bgt	.L30
 567 01f0 002B     		cmp	r3, #0
 568 01f2 49D0     		beq	.L52
 569              		.loc 1 207 0
 570 01f4 49E0     		b	.L27
 571              	.L30:
 572              		.loc 1 189 0
 573 01f6 B42B     		cmp	r3, #180
 574 01f8 18D0     		beq	.L32
 575 01fa B3F5877F 		cmp	r3, #270
 576 01fe 2ED0     		beq	.L33
 577              		.loc 1 207 0
 578 0200 43E0     		b	.L27
 579              	.L29:
 580              		.loc 1 193 0
 581 0202 BDF80830 		ldrh	r3, [sp, #8]	@ movhi
 582 0206 ADF81E30 		strh	r3, [sp, #30]	@ movhi
 583              		.loc 1 194 0
 584 020a BDF82220 		ldrh	r2, [sp, #34]
 585 020e BDF80A30 		ldrh	r3, [sp, #10]
 586 0212 9BB2     		uxth	r3, r3
 587 0214 D31A     		subs	r3, r2, r3
 588 0216 9BB2     		uxth	r3, r3
 589 0218 013B     		subs	r3, r3, #1
 590 021a 9BB2     		uxth	r3, r3
 591 021c 9BB2     		uxth	r3, r3
 592 021e ADF80830 		strh	r3, [sp, #8]	@ movhi
 593              		.loc 1 195 0
 594 0222 BDF81E30 		ldrh	r3, [sp, #30]	@ movhi
 595 0226 ADF80A30 		strh	r3, [sp, #10]	@ movhi
 596              		.loc 1 196 0
 597 022a 2EE0     		b	.L27
 598              	.L32:
 599              		.loc 1 198 0
 600 022c BDF82220 		ldrh	r2, [sp, #34]
 601 0230 BDF80830 		ldrh	r3, [sp, #8]
 602 0234 9BB2     		uxth	r3, r3
 603 0236 D31A     		subs	r3, r2, r3
 604 0238 9BB2     		uxth	r3, r3
 605 023a 013B     		subs	r3, r3, #1
 606 023c 9BB2     		uxth	r3, r3
 607 023e 9BB2     		uxth	r3, r3
 608 0240 ADF80830 		strh	r3, [sp, #8]	@ movhi
 609              		.loc 1 199 0
 610 0244 BDF82020 		ldrh	r2, [sp, #32]
 611 0248 BDF80A30 		ldrh	r3, [sp, #10]
 612 024c 9BB2     		uxth	r3, r3
 613 024e D31A     		subs	r3, r2, r3
 614 0250 9BB2     		uxth	r3, r3
 615 0252 013B     		subs	r3, r3, #1
 616 0254 9BB2     		uxth	r3, r3
 617 0256 9BB2     		uxth	r3, r3
 618 0258 ADF80A30 		strh	r3, [sp, #10]	@ movhi
 619              		.loc 1 200 0
 620 025c 15E0     		b	.L27
 621              	.L33:
 622              		.loc 1 202 0
ARM GAS  /tmp/ccLZSnB9.s 			page 12


 623 025e BDF80A30 		ldrh	r3, [sp, #10]	@ movhi
 624 0262 ADF81E30 		strh	r3, [sp, #30]	@ movhi
 625              		.loc 1 203 0
 626 0266 BDF82020 		ldrh	r2, [sp, #32]
 627 026a BDF80830 		ldrh	r3, [sp, #8]
 628 026e 9BB2     		uxth	r3, r3
 629 0270 D31A     		subs	r3, r2, r3
 630 0272 9BB2     		uxth	r3, r3
 631 0274 013B     		subs	r3, r3, #1
 632 0276 9BB2     		uxth	r3, r3
 633 0278 9BB2     		uxth	r3, r3
 634 027a ADF80A30 		strh	r3, [sp, #10]	@ movhi
 635              		.loc 1 204 0
 636 027e BDF81E30 		ldrh	r3, [sp, #30]	@ movhi
 637 0282 ADF80830 		strh	r3, [sp, #8]	@ movhi
 638              		.loc 1 205 0
 639 0286 00E0     		b	.L27
 640              	.L52:
 641              		.loc 1 191 0
 642 0288 00BF     		nop
 643              	.L27:
 644              	.LBE3:
 645              		.loc 1 213 0
 646 028a 019B     		ldr	r3, [sp, #4]
 647 028c 1B8A     		ldrh	r3, [r3, #16]
 648 028e 03F00403 		and	r3, r3, #4
 649 0292 002B     		cmp	r3, #0
 650 0294 2DD0     		beq	.L25
 651              		.loc 1 214 0
 652 0296 BDF80830 		ldrh	r3, [sp, #8]
 653 029a 1BB2     		sxth	r3, r3
 654 029c 002B     		cmp	r3, #0
 655 029e 03DA     		bge	.L34
 656              		.loc 1 214 0 is_stmt 0 discriminator 1
 657 02a0 0023     		movs	r3, #0
 658 02a2 ADF80830 		strh	r3, [sp, #8]	@ movhi
 659 02a6 0DE0     		b	.L35
 660              	.L34:
 661              		.loc 1 215 0 is_stmt 1
 662 02a8 BDF80830 		ldrh	r3, [sp, #8]
 663 02ac BDF92220 		ldrsh	r2, [sp, #34]
 664 02b0 1BB2     		sxth	r3, r3
 665 02b2 9A42     		cmp	r2, r3
 666 02b4 06DC     		bgt	.L35
 667              		.loc 1 215 0 is_stmt 0 discriminator 1
 668 02b6 BDF82230 		ldrh	r3, [sp, #34]
 669 02ba 013B     		subs	r3, r3, #1
 670 02bc 9BB2     		uxth	r3, r3
 671 02be 9BB2     		uxth	r3, r3
 672 02c0 ADF80830 		strh	r3, [sp, #8]	@ movhi
 673              	.L35:
 674              		.loc 1 216 0 is_stmt 1
 675 02c4 BDF80A30 		ldrh	r3, [sp, #10]
 676 02c8 1BB2     		sxth	r3, r3
 677 02ca 002B     		cmp	r3, #0
 678 02cc 03DA     		bge	.L36
 679              		.loc 1 216 0 is_stmt 0 discriminator 1
ARM GAS  /tmp/ccLZSnB9.s 			page 13


 680 02ce 0023     		movs	r3, #0
 681 02d0 ADF80A30 		strh	r3, [sp, #10]	@ movhi
 682 02d4 0DE0     		b	.L25
 683              	.L36:
 684              		.loc 1 217 0 is_stmt 1
 685 02d6 BDF80A30 		ldrh	r3, [sp, #10]
 686 02da BDF92020 		ldrsh	r2, [sp, #32]
 687 02de 1BB2     		sxth	r3, r3
 688 02e0 9A42     		cmp	r2, r3
 689 02e2 06DC     		bgt	.L25
 690              		.loc 1 217 0 is_stmt 0 discriminator 1
 691 02e4 BDF82030 		ldrh	r3, [sp, #32]
 692 02e8 013B     		subs	r3, r3, #1
 693 02ea 9BB2     		uxth	r3, r3
 694 02ec 9BB2     		uxth	r3, r3
 695 02ee ADF80A30 		strh	r3, [sp, #10]	@ movhi
 696              	.L25:
 697              	.LBE2:
 698              	.LBB4:
 699              		.loc 1 230 0 is_stmt 1
 700 02f2 019B     		ldr	r3, [sp, #4]
 701 02f4 1B8A     		ldrh	r3, [r3, #16]
 702 02f6 03F02003 		and	r3, r3, #32
 703 02fa 002B     		cmp	r3, #0
 704 02fc 03D0     		beq	.L37
 705              		.loc 1 230 0 is_stmt 0 discriminator 1
 706 02fe 019B     		ldr	r3, [sp, #4]
 707 0300 5B68     		ldr	r3, [r3, #4]
 708 0302 2233     		adds	r3, r3, #34
 709 0304 02E0     		b	.L38
 710              	.L37:
 711              		.loc 1 230 0 discriminator 2
 712 0306 019B     		ldr	r3, [sp, #4]
 713 0308 5B68     		ldr	r3, [r3, #4]
 714 030a 1C33     		adds	r3, r3, #28
 715              	.L38:
 716              		.loc 1 230 0 discriminator 4
 717 030c 0693     		str	r3, [sp, #24]
 718              		.loc 1 233 0 is_stmt 1 discriminator 4
 719 030e 069B     		ldr	r3, [sp, #24]
 720 0310 9B88     		ldrh	r3, [r3, #4]
 721 0312 1BB2     		sxth	r3, r3
 722 0314 002B     		cmp	r3, #0
 723 0316 36DD     		ble	.L39
 724              		.loc 1 234 0
 725 0318 BDF80830 		ldrh	r3, [sp, #8]
 726 031c 1AB2     		sxth	r2, r3
 727 031e 019B     		ldr	r3, [sp, #4]
 728 0320 1B89     		ldrh	r3, [r3, #8]
 729 0322 1BB2     		sxth	r3, r3
 730 0324 D31A     		subs	r3, r2, r3
 731 0326 1946     		mov	r1, r3
 732 0328 BDF80830 		ldrh	r3, [sp, #8]
 733 032c 1AB2     		sxth	r2, r3
 734 032e 019B     		ldr	r3, [sp, #4]
 735 0330 1B89     		ldrh	r3, [r3, #8]
 736 0332 1BB2     		sxth	r3, r3
ARM GAS  /tmp/ccLZSnB9.s 			page 14


 737 0334 D31A     		subs	r3, r2, r3
 738 0336 03FB01F2 		mul	r2, r3, r1
 739 033a BDF80A30 		ldrh	r3, [sp, #10]
 740 033e 19B2     		sxth	r1, r3
 741 0340 019B     		ldr	r3, [sp, #4]
 742 0342 5B89     		ldrh	r3, [r3, #10]
 743 0344 1BB2     		sxth	r3, r3
 744 0346 CB1A     		subs	r3, r1, r3
 745 0348 1846     		mov	r0, r3
 746 034a BDF80A30 		ldrh	r3, [sp, #10]
 747 034e 19B2     		sxth	r1, r3
 748 0350 019B     		ldr	r3, [sp, #4]
 749 0352 5B89     		ldrh	r3, [r3, #10]
 750 0354 1BB2     		sxth	r3, r3
 751 0356 CB1A     		subs	r3, r1, r3
 752 0358 03FB00F3 		mul	r3, r3, r0
 753 035c 1344     		add	r3, r3, r2
 754 035e 0593     		str	r3, [sp, #20]
 755              		.loc 1 235 0
 756 0360 069B     		ldr	r3, [sp, #24]
 757 0362 9B88     		ldrh	r3, [r3, #4]
 758 0364 1BB2     		sxth	r3, r3
 759 0366 069A     		ldr	r2, [sp, #24]
 760 0368 9288     		ldrh	r2, [r2, #4]
 761 036a 12B2     		sxth	r2, r2
 762 036c 02FB03F2 		mul	r2, r2, r3
 763 0370 059B     		ldr	r3, [sp, #20]
 764 0372 9A42     		cmp	r2, r3
 765 0374 07D9     		bls	.L39
 766              		.loc 1 236 0
 767 0376 019B     		ldr	r3, [sp, #4]
 768 0378 1B89     		ldrh	r3, [r3, #8]
 769 037a ADF80830 		strh	r3, [sp, #8]	@ movhi
 770              		.loc 1 237 0
 771 037e 019B     		ldr	r3, [sp, #4]
 772 0380 5B89     		ldrh	r3, [r3, #10]
 773 0382 ADF80A30 		strh	r3, [sp, #10]	@ movhi
 774              	.L39:
 775              		.loc 1 242 0
 776 0386 069B     		ldr	r3, [sp, #24]
 777 0388 5B88     		ldrh	r3, [r3, #2]
 778 038a 1BB2     		sxth	r3, r3
 779 038c 002B     		cmp	r3, #0
 780 038e 3BDD     		ble	.L40
 781              		.loc 1 242 0 is_stmt 0 discriminator 1
 782 0390 019B     		ldr	r3, [sp, #4]
 783 0392 1B8A     		ldrh	r3, [r3, #16]
 784 0394 03F00103 		and	r3, r3, #1
 785 0398 002B     		cmp	r3, #0
 786 039a 35D0     		beq	.L40
 787              		.loc 1 243 0 is_stmt 1
 788 039c BDF80830 		ldrh	r3, [sp, #8]
 789 03a0 1AB2     		sxth	r2, r3
 790 03a2 019B     		ldr	r3, [sp, #4]
 791 03a4 5B8A     		ldrh	r3, [r3, #18]
 792 03a6 1BB2     		sxth	r3, r3
 793 03a8 D31A     		subs	r3, r2, r3
ARM GAS  /tmp/ccLZSnB9.s 			page 15


 794 03aa 1946     		mov	r1, r3
 795 03ac BDF80830 		ldrh	r3, [sp, #8]
 796 03b0 1AB2     		sxth	r2, r3
 797 03b2 019B     		ldr	r3, [sp, #4]
 798 03b4 5B8A     		ldrh	r3, [r3, #18]
 799 03b6 1BB2     		sxth	r3, r3
 800 03b8 D31A     		subs	r3, r2, r3
 801 03ba 03FB01F2 		mul	r2, r3, r1
 802 03be BDF80A30 		ldrh	r3, [sp, #10]
 803 03c2 19B2     		sxth	r1, r3
 804 03c4 019B     		ldr	r3, [sp, #4]
 805 03c6 9B8A     		ldrh	r3, [r3, #20]
 806 03c8 1BB2     		sxth	r3, r3
 807 03ca CB1A     		subs	r3, r1, r3
 808 03cc 1846     		mov	r0, r3
 809 03ce BDF80A30 		ldrh	r3, [sp, #10]
 810 03d2 19B2     		sxth	r1, r3
 811 03d4 019B     		ldr	r3, [sp, #4]
 812 03d6 9B8A     		ldrh	r3, [r3, #20]
 813 03d8 1BB2     		sxth	r3, r3
 814 03da CB1A     		subs	r3, r1, r3
 815 03dc 03FB00F3 		mul	r3, r3, r0
 816 03e0 1344     		add	r3, r3, r2
 817 03e2 0593     		str	r3, [sp, #20]
 818              		.loc 1 244 0
 819 03e4 069B     		ldr	r3, [sp, #24]
 820 03e6 5B88     		ldrh	r3, [r3, #2]
 821 03e8 1BB2     		sxth	r3, r3
 822 03ea 069A     		ldr	r2, [sp, #24]
 823 03ec 5288     		ldrh	r2, [r2, #2]
 824 03ee 12B2     		sxth	r2, r2
 825 03f0 02FB03F2 		mul	r2, r2, r3
 826 03f4 059B     		ldr	r3, [sp, #20]
 827 03f6 9A42     		cmp	r2, r3
 828 03f8 06D2     		bcs	.L40
 829              		.loc 1 245 0
 830 03fa 019B     		ldr	r3, [sp, #4]
 831 03fc 1B8A     		ldrh	r3, [r3, #16]
 832 03fe 23F00103 		bic	r3, r3, #1
 833 0402 9AB2     		uxth	r2, r3
 834 0404 019B     		ldr	r3, [sp, #4]
 835 0406 1A82     		strh	r2, [r3, #16]	@ movhi
 836              	.L40:
 837              	.LBE4:
 838              	.LBB5:
 839              		.loc 1 255 0
 840 0408 BDF80E30 		ldrh	r3, [sp, #14]
 841 040c 9AB2     		uxth	r2, r3
 842 040e 019B     		ldr	r3, [sp, #4]
 843 0410 DB89     		ldrh	r3, [r3, #14]
 844 0412 9BB2     		uxth	r3, r3
 845 0414 DB43     		mvns	r3, r3
 846 0416 9BB2     		uxth	r3, r3
 847 0418 1340     		ands	r3, r3, r2
 848 041a 9BB2     		uxth	r3, r3
 849 041c ADF81230 		strh	r3, [sp, #18]	@ movhi
 850              		.loc 1 256 0
ARM GAS  /tmp/ccLZSnB9.s 			page 16


 851 0420 BDF80E30 		ldrh	r3, [sp, #14]
 852 0424 9BB2     		uxth	r3, r3
 853 0426 DB43     		mvns	r3, r3
 854 0428 9AB2     		uxth	r2, r3
 855 042a 019B     		ldr	r3, [sp, #4]
 856 042c DB89     		ldrh	r3, [r3, #14]
 857 042e 9BB2     		uxth	r3, r3
 858 0430 1340     		ands	r3, r3, r2
 859 0432 9BB2     		uxth	r3, r3
 860 0434 ADF81030 		strh	r3, [sp, #16]	@ movhi
 861              		.loc 1 259 0
 862 0438 BDF81230 		ldrh	r3, [sp, #18]
 863 043c 03F00103 		and	r3, r3, #1
 864 0440 002B     		cmp	r3, #0
 865 0442 06D0     		beq	.L41
 866              		.loc 1 260 0
 867 0444 BDF80E30 		ldrh	r3, [sp, #14]
 868 0448 43F01003 		orr	r3, r3, #16
 869 044c 9BB2     		uxth	r3, r3
 870 044e ADF80E30 		strh	r3, [sp, #14]	@ movhi
 871              	.L41:
 872              		.loc 1 263 0
 873 0452 BDF81030 		ldrh	r3, [sp, #16]
 874 0456 03F00103 		and	r3, r3, #1
 875 045a 002B     		cmp	r3, #0
 876 045c 06D0     		beq	.L42
 877              		.loc 1 264 0
 878 045e BDF80E30 		ldrh	r3, [sp, #14]
 879 0462 43F02003 		orr	r3, r3, #32
 880 0466 9BB2     		uxth	r3, r3
 881 0468 ADF80E30 		strh	r3, [sp, #14]	@ movhi
 882              	.L42:
 883              		.loc 1 267 0
 884 046c BDF81230 		ldrh	r3, [sp, #18]
 885 0470 03F00303 		and	r3, r3, #3
 886 0474 002B     		cmp	r3, #0
 887 0476 12D0     		beq	.L43
 888              		.loc 1 268 0
 889 0478 BDF80820 		ldrh	r2, [sp, #8]
 890 047c 019B     		ldr	r3, [sp, #4]
 891 047e 5A82     		strh	r2, [r3, #18]	@ movhi
 892              		.loc 1 269 0
 893 0480 BDF80A20 		ldrh	r2, [sp, #10]
 894 0484 019B     		ldr	r3, [sp, #4]
 895 0486 9A82     		strh	r2, [r3, #20]	@ movhi
 896              		.loc 1 270 0
 897 0488 454B     		ldr	r3, .L53
 898 048a DA68     		ldr	r2, [r3, #12]
 899 048c 019B     		ldr	r3, [sp, #4]
 900 048e 9A61     		str	r2, [r3, #24]
 901              		.loc 1 271 0
 902 0490 019B     		ldr	r3, [sp, #4]
 903 0492 1B8A     		ldrh	r3, [r3, #16]
 904 0494 43F00103 		orr	r3, r3, #1
 905 0498 9AB2     		uxth	r2, r3
 906 049a 019B     		ldr	r3, [sp, #4]
 907 049c 1A82     		strh	r2, [r3, #16]	@ movhi
ARM GAS  /tmp/ccLZSnB9.s 			page 17


 908              	.L43:
 909              		.loc 1 275 0
 910 049e BDF81030 		ldrh	r3, [sp, #16]
 911 04a2 03F00303 		and	r3, r3, #3
 912 04a6 002B     		cmp	r3, #0
 913 04a8 45D0     		beq	.L44
 914              		.loc 1 275 0 is_stmt 0 discriminator 1
 915 04aa 019B     		ldr	r3, [sp, #4]
 916 04ac 1B8A     		ldrh	r3, [r3, #16]
 917 04ae 03F00103 		and	r3, r3, #1
 918 04b2 002B     		cmp	r3, #0
 919 04b4 3FD0     		beq	.L44
 920              		.loc 1 276 0 is_stmt 1
 921 04b6 019B     		ldr	r3, [sp, #4]
 922 04b8 1B8A     		ldrh	r3, [r3, #16]
 923 04ba 23F00103 		bic	r3, r3, #1
 924 04be 9AB2     		uxth	r2, r3
 925 04c0 019B     		ldr	r3, [sp, #4]
 926 04c2 1A82     		strh	r2, [r3, #16]	@ movhi
 927              		.loc 1 277 0
 928 04c4 364B     		ldr	r3, .L53
 929 04c6 DA68     		ldr	r2, [r3, #12]
 930 04c8 019B     		ldr	r3, [sp, #4]
 931 04ca 9B69     		ldr	r3, [r3, #24]
 932 04cc D21A     		subs	r2, r2, r3
 933 04ce 019B     		ldr	r3, [sp, #4]
 934 04d0 9A61     		str	r2, [r3, #24]
 935              		.loc 1 280 0
 936 04d2 019B     		ldr	r3, [sp, #4]
 937 04d4 9B69     		ldr	r3, [r3, #24]
 938 04d6 B3F5967F 		cmp	r3, #300
 939 04da 19D8     		bhi	.L45
 940              		.loc 1 281 0
 941 04dc BDF81030 		ldrh	r3, [sp, #16]
 942 04e0 03F00203 		and	r3, r3, #2
 943 04e4 002B     		cmp	r3, #0
 944 04e6 06D0     		beq	.L46
 945              		.loc 1 282 0
 946 04e8 BDF80E30 		ldrh	r3, [sp, #14]
 947 04ec 43F08003 		orr	r3, r3, #128
 948 04f0 9BB2     		uxth	r3, r3
 949 04f2 ADF80E30 		strh	r3, [sp, #14]	@ movhi
 950              	.L46:
 951              		.loc 1 283 0
 952 04f6 BDF81030 		ldrh	r3, [sp, #16]
 953 04fa 03F00103 		and	r3, r3, #1
 954 04fe 002B     		cmp	r3, #0
 955 0500 06D0     		beq	.L45
 956              		.loc 1 284 0
 957 0502 BDF80E30 		ldrh	r3, [sp, #14]
 958 0506 43F04003 		orr	r3, r3, #64
 959 050a 9BB2     		uxth	r3, r3
 960 050c ADF80E30 		strh	r3, [sp, #14]	@ movhi
 961              	.L45:
 962              		.loc 1 289 0
 963 0510 019B     		ldr	r3, [sp, #4]
 964 0512 5B68     		ldr	r3, [r3, #4]
ARM GAS  /tmp/ccLZSnB9.s 			page 18


 965 0514 5B88     		ldrh	r3, [r3, #2]
 966 0516 03F00103 		and	r3, r3, #1
 967 051a 002B     		cmp	r3, #0
 968 051c 0BD0     		beq	.L44
 969              		.loc 1 289 0 is_stmt 0 discriminator 1
 970 051e 019B     		ldr	r3, [sp, #4]
 971 0520 9B69     		ldr	r3, [r3, #24]
 972 0522 B3F5FA7F 		cmp	r3, #500
 973 0526 06D3     		bcc	.L44
 974              		.loc 1 290 0 is_stmt 1
 975 0528 BDF80E30 		ldrh	r3, [sp, #14]
 976 052c 43F08003 		orr	r3, r3, #128
 977 0530 9BB2     		uxth	r3, r3
 978 0532 ADF80E30 		strh	r3, [sp, #14]	@ movhi
 979              	.L44:
 980              	.LBE5:
 981              	.LBB6:
 982              		.loc 1 300 0
 983 0536 0023     		movs	r3, #0
 984 0538 0993     		str	r3, [sp, #36]
 985              		.loc 1 301 0
 986 053a 05E0     		b	.L47
 987              	.L48:
 988              		.loc 1 302 0
 989 053c 02AB     		add	r3, sp, #8
 990 053e 0998     		ldr	r0, [sp, #36]
 991 0540 0199     		ldr	r1, [sp, #4]
 992 0542 1A46     		mov	r2, r3
 993 0544 FFF7FEFF 		bl	SendMouseEvent
 994              	.L47:
 995              		.loc 1 301 0
 996 0548 1648     		ldr	r0, .L53+4
 997 054a 0999     		ldr	r1, [sp, #36]
 998 054c FFF7FEFF 		bl	geventGetSourceListener
 999 0550 0990     		str	r0, [sp, #36]
 1000 0552 099B     		ldr	r3, [sp, #36]
 1001 0554 002B     		cmp	r3, #0
 1002 0556 F1D1     		bne	.L48
 1003              		.loc 1 305 0
 1004 0558 0023     		movs	r3, #0
 1005 055a 0993     		str	r3, [sp, #36]
 1006              		.loc 1 306 0
 1007 055c 05E0     		b	.L49
 1008              	.L50:
 1009              		.loc 1 307 0
 1010 055e 02AB     		add	r3, sp, #8
 1011 0560 0998     		ldr	r0, [sp, #36]
 1012 0562 0199     		ldr	r1, [sp, #4]
 1013 0564 1A46     		mov	r2, r3
 1014 0566 FFF7FEFF 		bl	SendMouseEvent
 1015              	.L49:
 1016              		.loc 1 306 0
 1017 056a 0198     		ldr	r0, [sp, #4]
 1018 056c 0999     		ldr	r1, [sp, #36]
 1019 056e FFF7FEFF 		bl	geventGetSourceListener
 1020 0572 0990     		str	r0, [sp, #36]
 1021 0574 099B     		ldr	r3, [sp, #36]
ARM GAS  /tmp/ccLZSnB9.s 			page 19


 1022 0576 002B     		cmp	r3, #0
 1023 0578 F1D1     		bne	.L50
 1024              	.LBE6:
 1025              		.loc 1 311 0
 1026 057a BDF80820 		ldrh	r2, [sp, #8]
 1027 057e 019B     		ldr	r3, [sp, #4]
 1028 0580 1A81     		strh	r2, [r3, #8]	@ movhi
 1029              		.loc 1 312 0
 1030 0582 BDF80A20 		ldrh	r2, [sp, #10]
 1031 0586 019B     		ldr	r3, [sp, #4]
 1032 0588 5A81     		strh	r2, [r3, #10]	@ movhi
 1033              		.loc 1 313 0
 1034 058a BDF80C20 		ldrh	r2, [sp, #12]
 1035 058e 019B     		ldr	r3, [sp, #4]
 1036 0590 9A81     		strh	r2, [r3, #12]	@ movhi
 1037              		.loc 1 314 0
 1038 0592 BDF80E20 		ldrh	r2, [sp, #14]
 1039 0596 019B     		ldr	r3, [sp, #4]
 1040 0598 DA81     		strh	r2, [r3, #14]	@ movhi
 1041              	.L12:
 1042              		.loc 1 315 0
 1043 059a 0BB0     		add	sp, sp, #44
 1044              		.cfi_def_cfa_offset 4
 1045              		@ sp needed
 1046 059c 5DF804FB 		ldr	pc, [sp], #4
 1047              	.L54:
 1048              		.align	2
 1049              	.L53:
 1050 05a0 00000000 		.word	vtlist
 1051 05a4 00000000 		.word	MouseTimer
 1052              		.cfi_endproc
 1053              	.LFE113:
 1054              		.size	GetMouseReading, .-GetMouseReading
 1055 05a8 AFF30080 		.section	.text.MousePoll,"ax",%progbits
 1055      AFF30080 
 1056              		.align	2
 1057              		.p2align 4,,15
 1058              		.thumb
 1059              		.thumb_func
 1060              		.type	MousePoll, %function
 1061              	MousePoll:
 1062              	.LFB114:
 1063              		.loc 1 317 0
 1064              		.cfi_startproc
 1065              		@ args = 0, pretend = 0, frame = 16
 1066              		@ frame_needed = 0, uses_anonymous_args = 0
 1067 0000 00B5     		push	{lr}
 1068              		.cfi_def_cfa_offset 4
 1069              		.cfi_offset 14, -4
 1070 0002 85B0     		sub	sp, sp, #20
 1071              		.cfi_def_cfa_offset 24
 1072 0004 0190     		str	r0, [sp, #4]
 1073              		.loc 1 321 0
 1074 0006 6D20     		movs	r0, #109
 1075 0008 0021     		movs	r1, #0
 1076 000a FFF7FEFF 		bl	gdriverGetNext
 1077 000e 0390     		str	r0, [sp, #12]
ARM GAS  /tmp/ccLZSnB9.s 			page 20


 1078 0010 14E0     		b	.L56
 1079              	.L59:
 1080              		.loc 1 322 0
 1081 0012 039B     		ldr	r3, [sp, #12]
 1082 0014 5B68     		ldr	r3, [r3, #4]
 1083 0016 5B88     		ldrh	r3, [r3, #2]
 1084 0018 03F00203 		and	r3, r3, #2
 1085 001c 002B     		cmp	r3, #0
 1086 001e 05D0     		beq	.L57
 1087              		.loc 1 322 0 is_stmt 0 discriminator 1
 1088 0020 039B     		ldr	r3, [sp, #12]
 1089 0022 1B8A     		ldrh	r3, [r3, #16]
 1090 0024 03F04003 		and	r3, r3, #64
 1091 0028 002B     		cmp	r3, #0
 1092 002a 02D0     		beq	.L58
 1093              	.L57:
 1094              		.loc 1 323 0 is_stmt 1
 1095 002c 0398     		ldr	r0, [sp, #12]
 1096 002e FFF7FEFF 		bl	GetMouseReading
 1097              	.L58:
 1098              		.loc 1 321 0 discriminator 2
 1099 0032 6D20     		movs	r0, #109
 1100 0034 0399     		ldr	r1, [sp, #12]
 1101 0036 FFF7FEFF 		bl	gdriverGetNext
 1102 003a 0390     		str	r0, [sp, #12]
 1103              	.L56:
 1104              		.loc 1 321 0 is_stmt 0 discriminator 1
 1105 003c 039B     		ldr	r3, [sp, #12]
 1106 003e 002B     		cmp	r3, #0
 1107 0040 E7D1     		bne	.L59
 1108              		.loc 1 325 0 is_stmt 1
 1109 0042 05B0     		add	sp, sp, #20
 1110              		.cfi_def_cfa_offset 4
 1111              		@ sp needed
 1112 0044 5DF804FB 		ldr	pc, [sp], #4
 1113              		.cfi_endproc
 1114              	.LFE114:
 1115              		.size	MousePoll, .-MousePoll
 1116 0048 AFF30080 		.section	.text._gmouseInit,"ax",%progbits
 1116      AFF30080 
 1117              		.align	2
 1118              		.p2align 4,,15
 1119              		.global	_gmouseInit
 1120              		.thumb
 1121              		.thumb_func
 1122              		.type	_gmouseInit, %function
 1123              	_gmouseInit:
 1124              	.LFB115:
 1125              		.loc 1 626 0
 1126              		.cfi_startproc
 1127              		@ args = 0, pretend = 0, frame = 0
 1128              		@ frame_needed = 0, uses_anonymous_args = 0
 1129 0000 08B5     		push	{r3, lr}
 1130              		.cfi_def_cfa_offset 8
 1131              		.cfi_offset 3, -8
 1132              		.cfi_offset 14, -4
 1133              	.LBB7:
ARM GAS  /tmp/ccLZSnB9.s 			page 21


 1134              		.loc 1 647 0
 1135 0002 064B     		ldr	r3, .L62
 1136 0004 5B88     		ldrh	r3, [r3, #2]
 1137 0006 9BB2     		uxth	r3, r3
 1138 0008 1BB2     		sxth	r3, r3
 1139 000a 002B     		cmp	r3, #0
 1140 000c 05DB     		blt	.L60
 1141              		.loc 1 648 0
 1142 000e 044B     		ldr	r3, .L62+4
 1143 0010 1B68     		ldr	r3, [r3]
 1144 0012 0248     		ldr	r0, .L62
 1145 0014 1946     		mov	r1, r3
 1146 0016 FFF7FEFF 		bl	gdriverRegister
 1147              	.L60:
 1148              	.LBE7:
 1149              		.loc 1 652 0
 1150 001a 08BD     		pop	{r3, pc}
 1151              	.L63:
 1152              		.align	2
 1153              	.L62:
 1154 001c 00000000 		.word	GMOUSEVMT_OnlyOne
 1155 0020 00000000 		.word	GDISP
 1156              		.cfi_endproc
 1157              	.LFE115:
 1158              		.size	_gmouseInit, .-_gmouseInit
 1159 0024 AFF30080 		.section	.text._gmouseDeinit,"ax",%progbits
 1159      AFF30080 
 1159      AFF30080 
 1160              		.align	2
 1161              		.p2align 4,,15
 1162              		.global	_gmouseDeinit
 1163              		.thumb
 1164              		.thumb_func
 1165              		.type	_gmouseDeinit, %function
 1166              	_gmouseDeinit:
 1167              	.LFB116:
 1168              		.loc 1 654 0
 1169              		.cfi_startproc
 1170              		@ args = 0, pretend = 0, frame = 0
 1171              		@ frame_needed = 0, uses_anonymous_args = 0
 1172 0000 08B5     		push	{r3, lr}
 1173              		.cfi_def_cfa_offset 8
 1174              		.cfi_offset 3, -8
 1175              		.cfi_offset 14, -4
 1176              		.loc 1 655 0
 1177 0002 0248     		ldr	r0, .L65
 1178 0004 FFF7FEFF 		bl	gtimerDeinit
 1179              		.loc 1 656 0
 1180 0008 08BD     		pop	{r3, pc}
 1181              	.L66:
 1182 000a 00BF     		.align	2
 1183              	.L65:
 1184 000c 00000000 		.word	MouseTimer
 1185              		.cfi_endproc
 1186              	.LFE116:
 1187              		.size	_gmouseDeinit, .-_gmouseDeinit
 1188              		.section	.text._gmouseInitDriver,"ax",%progbits
ARM GAS  /tmp/ccLZSnB9.s 			page 22


 1189              		.align	2
 1190              		.p2align 4,,15
 1191              		.global	_gmouseInitDriver
 1192              		.thumb
 1193              		.thumb_func
 1194              		.type	_gmouseInitDriver, %function
 1195              	_gmouseInitDriver:
 1196              	.LFB117:
 1197              		.loc 1 658 0
 1198              		.cfi_startproc
 1199              		@ args = 0, pretend = 0, frame = 16
 1200              		@ frame_needed = 0, uses_anonymous_args = 0
 1201 0000 00B5     		push	{lr}
 1202              		.cfi_def_cfa_offset 4
 1203              		.cfi_offset 14, -4
 1204 0002 87B0     		sub	sp, sp, #28
 1205              		.cfi_def_cfa_offset 32
 1206 0004 0590     		str	r0, [sp, #20]
 1207 0006 0491     		str	r1, [sp, #16]
 1208 0008 0392     		str	r2, [sp, #12]
 1209 000a 0293     		str	r3, [sp, #8]
 1210              		.loc 1 663 0
 1211 000c 059B     		ldr	r3, [sp, #20]
 1212 000e 049A     		ldr	r2, [sp, #16]
 1213 0010 DA61     		str	r2, [r3, #28]
 1214              		.loc 1 667 0
 1215 0012 059B     		ldr	r3, [sp, #20]
 1216 0014 5B68     		ldr	r3, [r3, #4]
 1217 0016 5B88     		ldrh	r3, [r3, #2]
 1218 0018 03F00803 		and	r3, r3, #8
 1219 001c 002B     		cmp	r3, #0
 1220 001e 06D0     		beq	.L68
 1221              		.loc 1 668 0
 1222 0020 059B     		ldr	r3, [sp, #20]
 1223 0022 1B8A     		ldrh	r3, [r3, #16]
 1224 0024 43F02003 		orr	r3, r3, #32
 1225 0028 9AB2     		uxth	r2, r3
 1226 002a 059B     		ldr	r3, [sp, #20]
 1227 002c 1A82     		strh	r2, [r3, #16]	@ movhi
 1228              	.L68:
 1229              		.loc 1 672 0
 1230 002e 059B     		ldr	r3, [sp, #20]
 1231 0030 5B68     		ldr	r3, [r3, #4]
 1232 0032 9B6A     		ldr	r3, [r3, #40]
 1233 0034 0598     		ldr	r0, [sp, #20]
 1234 0036 0399     		ldr	r1, [sp, #12]
 1235 0038 9847     		blx	r3
 1236 003a 0346     		mov	r3, r0
 1237 003c 83F00103 		eor	r3, r3, #1
 1238 0040 DBB2     		uxtb	r3, r3
 1239 0042 002B     		cmp	r3, #0
 1240 0044 01D0     		beq	.L69
 1241              		.loc 1 673 0
 1242 0046 0023     		movs	r3, #0
 1243 0048 11E0     		b	.L70
 1244              	.L69:
 1245              		.loc 1 676 0
ARM GAS  /tmp/ccLZSnB9.s 			page 23


 1246 004a 0B48     		ldr	r0, .L72
 1247 004c FFF7FEFF 		bl	gtimerIsActive
 1248 0050 0346     		mov	r3, r0
 1249 0052 83F00103 		eor	r3, r3, #1
 1250 0056 DBB2     		uxtb	r3, r3
 1251 0058 002B     		cmp	r3, #0
 1252 005a 07D0     		beq	.L71
 1253              		.loc 1 677 0
 1254 005c 1923     		movs	r3, #25
 1255 005e 0093     		str	r3, [sp]
 1256 0060 0548     		ldr	r0, .L72
 1257 0062 0649     		ldr	r1, .L72+4
 1258 0064 0022     		movs	r2, #0
 1259 0066 0123     		movs	r3, #1
 1260 0068 FFF7FEFF 		bl	gtimerStart
 1261              	.L71:
 1262              		.loc 1 679 0
 1263 006c 0123     		movs	r3, #1
 1264              	.L70:
 1265              		.loc 1 682 0
 1266 006e 1846     		mov	r0, r3
 1267 0070 07B0     		add	sp, sp, #28
 1268              		.cfi_def_cfa_offset 4
 1269              		@ sp needed
 1270 0072 5DF804FB 		ldr	pc, [sp], #4
 1271              	.L73:
 1272 0076 00BF     		.align	2
 1273              	.L72:
 1274 0078 00000000 		.word	MouseTimer
 1275 007c 00000000 		.word	MousePoll
 1276              		.cfi_endproc
 1277              	.LFE117:
 1278              		.size	_gmouseInitDriver, .-_gmouseInitDriver
 1279              		.section	.text._gmousePostInitDriver,"ax",%progbits
 1280              		.align	2
 1281              		.p2align 4,,15
 1282              		.global	_gmousePostInitDriver
 1283              		.thumb
 1284              		.thumb_func
 1285              		.type	_gmousePostInitDriver, %function
 1286              	_gmousePostInitDriver:
 1287              	.LFB118:
 1288              		.loc 1 684 0
 1289              		.cfi_startproc
 1290              		@ args = 0, pretend = 0, frame = 8
 1291              		@ frame_needed = 0, uses_anonymous_args = 0
 1292 0000 00B5     		push	{lr}
 1293              		.cfi_def_cfa_offset 4
 1294              		.cfi_offset 14, -4
 1295 0002 83B0     		sub	sp, sp, #12
 1296              		.cfi_def_cfa_offset 16
 1297 0004 0190     		str	r0, [sp, #4]
 1298              		.loc 1 688 0
 1299 0006 019B     		ldr	r3, [sp, #4]
 1300 0008 1B8A     		ldrh	r3, [r3, #16]
 1301 000a 43F00403 		orr	r3, r3, #4
 1302 000e 9AB2     		uxth	r2, r3
ARM GAS  /tmp/ccLZSnB9.s 			page 24


 1303 0010 019B     		ldr	r3, [sp, #4]
 1304 0012 1A82     		strh	r2, [r3, #16]	@ movhi
 1305              		.loc 1 692 0
 1306 0014 019B     		ldr	r3, [sp, #4]
 1307 0016 5B68     		ldr	r3, [r3, #4]
 1308 0018 5B88     		ldrh	r3, [r3, #2]
 1309 001a 03F01003 		and	r3, r3, #16
 1310 001e 002B     		cmp	r3, #0
 1311 0020 17D0     		beq	.L75
 1312              		.loc 1 698 0
 1313 0022 019B     		ldr	r3, [sp, #4]
 1314 0024 5B68     		ldr	r3, [r3, #4]
 1315 0026 9B6B     		ldr	r3, [r3, #56]
 1316 0028 002B     		cmp	r3, #0
 1317 002a 12D0     		beq	.L75
 1318              		.loc 1 698 0 is_stmt 0 discriminator 1
 1319 002c 019B     		ldr	r3, [sp, #4]
 1320 002e 5B68     		ldr	r3, [r3, #4]
 1321 0030 9B6B     		ldr	r3, [r3, #56]
 1322 0032 019A     		ldr	r2, [sp, #4]
 1323 0034 2032     		adds	r2, r2, #32
 1324 0036 0198     		ldr	r0, [sp, #4]
 1325 0038 1146     		mov	r1, r2
 1326 003a 1822     		movs	r2, #24
 1327 003c 9847     		blx	r3
 1328 003e 0346     		mov	r3, r0
 1329 0040 002B     		cmp	r3, #0
 1330 0042 06D0     		beq	.L75
 1331              		.loc 1 699 0 is_stmt 1
 1332 0044 019B     		ldr	r3, [sp, #4]
 1333 0046 1B8A     		ldrh	r3, [r3, #16]
 1334 0048 43F00803 		orr	r3, r3, #8
 1335 004c 9AB2     		uxth	r2, r3
 1336 004e 019B     		ldr	r3, [sp, #4]
 1337 0050 1A82     		strh	r2, [r3, #16]	@ movhi
 1338              	.L75:
 1339              		.loc 1 708 0
 1340 0052 0198     		ldr	r0, [sp, #4]
 1341 0054 FFF7FEFF 		bl	GetMouseReading
 1342              		.loc 1 711 0
 1343 0058 03B0     		add	sp, sp, #12
 1344              		.cfi_def_cfa_offset 4
 1345              		@ sp needed
 1346 005a 5DF804FB 		ldr	pc, [sp], #4
 1347              		.cfi_endproc
 1348              	.LFE118:
 1349              		.size	_gmousePostInitDriver, .-_gmousePostInitDriver
 1350 005e 00BF     		.section	.text._gmouseDeInitDriver,"ax",%progbits
 1351              		.align	2
 1352              		.p2align 4,,15
 1353              		.global	_gmouseDeInitDriver
 1354              		.thumb
 1355              		.thumb_func
 1356              		.type	_gmouseDeInitDriver, %function
 1357              	_gmouseDeInitDriver:
 1358              	.LFB119:
 1359              		.loc 1 713 0
ARM GAS  /tmp/ccLZSnB9.s 			page 25


 1360              		.cfi_startproc
 1361              		@ args = 0, pretend = 0, frame = 8
 1362              		@ frame_needed = 0, uses_anonymous_args = 0
 1363              		@ link register save eliminated.
 1364 0000 82B0     		sub	sp, sp, #8
 1365              		.cfi_def_cfa_offset 8
 1366 0002 0190     		str	r0, [sp, #4]
 1367              		.loc 1 715 0
 1368 0004 02B0     		add	sp, sp, #8
 1369              		.cfi_def_cfa_offset 0
 1370              		@ sp needed
 1371 0006 7047     		bx	lr
 1372              		.cfi_endproc
 1373              	.LFE119:
 1374              		.size	_gmouseDeInitDriver, .-_gmouseDeInitDriver
 1375 0008 AFF30080 		.section	.text.ginputGetMouse,"ax",%progbits
 1375      AFF30080 
 1376              		.align	2
 1377              		.p2align 4,,15
 1378              		.global	ginputGetMouse
 1379              		.thumb
 1380              		.thumb_func
 1381              		.type	ginputGetMouse, %function
 1382              	ginputGetMouse:
 1383              	.LFB120:
 1384              		.loc 1 717 0
 1385              		.cfi_startproc
 1386              		@ args = 0, pretend = 0, frame = 8
 1387              		@ frame_needed = 0, uses_anonymous_args = 0
 1388 0000 00B5     		push	{lr}
 1389              		.cfi_def_cfa_offset 4
 1390              		.cfi_offset 14, -4
 1391 0002 83B0     		sub	sp, sp, #12
 1392              		.cfi_def_cfa_offset 16
 1393 0004 0190     		str	r0, [sp, #4]
 1394              		.loc 1 718 0
 1395 0006 019B     		ldr	r3, [sp, #4]
 1396 0008 B3F1FF3F 		cmp	r3, #-1
 1397 000c 01D1     		bne	.L78
 1398              		.loc 1 719 0
 1399 000e 054B     		ldr	r3, .L80
 1400 0010 04E0     		b	.L79
 1401              	.L78:
 1402              		.loc 1 720 0
 1403 0012 6D20     		movs	r0, #109
 1404 0014 0199     		ldr	r1, [sp, #4]
 1405 0016 FFF7FEFF 		bl	gdriverGetInstance
 1406 001a 0346     		mov	r3, r0
 1407              	.L79:
 1408              		.loc 1 721 0
 1409 001c 1846     		mov	r0, r3
 1410 001e 03B0     		add	sp, sp, #12
 1411              		.cfi_def_cfa_offset 4
 1412              		@ sp needed
 1413 0020 5DF804FB 		ldr	pc, [sp], #4
 1414              	.L81:
 1415              		.align	2
ARM GAS  /tmp/ccLZSnB9.s 			page 26


 1416              	.L80:
 1417 0024 00000000 		.word	MouseTimer
 1418              		.cfi_endproc
 1419              	.LFE120:
 1420              		.size	ginputGetMouse, .-ginputGetMouse
 1421 0028 AFF30080 		.section	.text.ginputSetMouseDisplay,"ax",%progbits
 1421      AFF30080 
 1422              		.align	2
 1423              		.p2align 4,,15
 1424              		.global	ginputSetMouseDisplay
 1425              		.thumb
 1426              		.thumb_func
 1427              		.type	ginputSetMouseDisplay, %function
 1428              	ginputSetMouseDisplay:
 1429              	.LFB121:
 1430              		.loc 1 723 0
 1431              		.cfi_startproc
 1432              		@ args = 0, pretend = 0, frame = 16
 1433              		@ frame_needed = 0, uses_anonymous_args = 0
 1434 0000 00B5     		push	{lr}
 1435              		.cfi_def_cfa_offset 4
 1436              		.cfi_offset 14, -4
 1437 0002 85B0     		sub	sp, sp, #20
 1438              		.cfi_def_cfa_offset 24
 1439 0004 0190     		str	r0, [sp, #4]
 1440 0006 0091     		str	r1, [sp]
 1441              		.loc 1 726 0
 1442 0008 6D20     		movs	r0, #109
 1443 000a 0199     		ldr	r1, [sp, #4]
 1444 000c FFF7FEFF 		bl	gdriverGetInstance
 1445 0010 0390     		str	r0, [sp, #12]
 1446 0012 039B     		ldr	r3, [sp, #12]
 1447 0014 002B     		cmp	r3, #0
 1448 0016 00D1     		bne	.L83
 1449              		.loc 1 727 0
 1450 0018 08E0     		b	.L82
 1451              	.L83:
 1452              		.loc 1 729 0
 1453 001a 009B     		ldr	r3, [sp]
 1454 001c 002B     		cmp	r3, #0
 1455 001e 01D0     		beq	.L85
 1456              		.loc 1 729 0 is_stmt 0 discriminator 1
 1457 0020 009B     		ldr	r3, [sp]
 1458 0022 01E0     		b	.L86
 1459              	.L85:
 1460              		.loc 1 729 0 discriminator 2
 1461 0024 034B     		ldr	r3, .L87
 1462 0026 1B68     		ldr	r3, [r3]
 1463              	.L86:
 1464              		.loc 1 729 0 discriminator 4
 1465 0028 039A     		ldr	r2, [sp, #12]
 1466 002a D361     		str	r3, [r2, #28]
 1467              	.L82:
 1468              		.loc 1 730 0 is_stmt 1
 1469 002c 05B0     		add	sp, sp, #20
 1470              		.cfi_def_cfa_offset 4
 1471              		@ sp needed
ARM GAS  /tmp/ccLZSnB9.s 			page 27


 1472 002e 5DF804FB 		ldr	pc, [sp], #4
 1473              	.L88:
 1474 0032 00BF     		.align	2
 1475              	.L87:
 1476 0034 00000000 		.word	GDISP
 1477              		.cfi_endproc
 1478              	.LFE121:
 1479              		.size	ginputSetMouseDisplay, .-ginputSetMouseDisplay
 1480 0038 AFF30080 		.section	.text.ginputGetMouseDisplay,"ax",%progbits
 1480      AFF30080 
 1481              		.align	2
 1482              		.p2align 4,,15
 1483              		.global	ginputGetMouseDisplay
 1484              		.thumb
 1485              		.thumb_func
 1486              		.type	ginputGetMouseDisplay, %function
 1487              	ginputGetMouseDisplay:
 1488              	.LFB122:
 1489              		.loc 1 732 0
 1490              		.cfi_startproc
 1491              		@ args = 0, pretend = 0, frame = 16
 1492              		@ frame_needed = 0, uses_anonymous_args = 0
 1493 0000 00B5     		push	{lr}
 1494              		.cfi_def_cfa_offset 4
 1495              		.cfi_offset 14, -4
 1496 0002 85B0     		sub	sp, sp, #20
 1497              		.cfi_def_cfa_offset 24
 1498 0004 0190     		str	r0, [sp, #4]
 1499              		.loc 1 735 0
 1500 0006 6D20     		movs	r0, #109
 1501 0008 0199     		ldr	r1, [sp, #4]
 1502 000a FFF7FEFF 		bl	gdriverGetInstance
 1503 000e 0390     		str	r0, [sp, #12]
 1504 0010 039B     		ldr	r3, [sp, #12]
 1505 0012 002B     		cmp	r3, #0
 1506 0014 01D1     		bne	.L90
 1507              		.loc 1 736 0
 1508 0016 0023     		movs	r3, #0
 1509 0018 01E0     		b	.L91
 1510              	.L90:
 1511              		.loc 1 738 0
 1512 001a 039B     		ldr	r3, [sp, #12]
 1513 001c DB69     		ldr	r3, [r3, #28]
 1514              	.L91:
 1515              		.loc 1 739 0
 1516 001e 1846     		mov	r0, r3
 1517 0020 05B0     		add	sp, sp, #20
 1518              		.cfi_def_cfa_offset 4
 1519              		@ sp needed
 1520 0022 5DF804FB 		ldr	pc, [sp], #4
 1521              		.cfi_endproc
 1522              	.LFE122:
 1523              		.size	ginputGetMouseDisplay, .-ginputGetMouseDisplay
 1524 0026 00BFAFF3 		.section	.text.ginputGetMouseStatus,"ax",%progbits
 1524      0080AFF3 
 1524      0080
 1525              		.align	2
ARM GAS  /tmp/ccLZSnB9.s 			page 28


 1526              		.p2align 4,,15
 1527              		.global	ginputGetMouseStatus
 1528              		.thumb
 1529              		.thumb_func
 1530              		.type	ginputGetMouseStatus, %function
 1531              	ginputGetMouseStatus:
 1532              	.LFB123:
 1533              		.loc 1 741 0
 1534              		.cfi_startproc
 1535              		@ args = 0, pretend = 0, frame = 16
 1536              		@ frame_needed = 0, uses_anonymous_args = 0
 1537 0000 00B5     		push	{lr}
 1538              		.cfi_def_cfa_offset 4
 1539              		.cfi_offset 14, -4
 1540 0002 85B0     		sub	sp, sp, #20
 1541              		.cfi_def_cfa_offset 24
 1542 0004 0190     		str	r0, [sp, #4]
 1543 0006 0091     		str	r1, [sp]
 1544              		.loc 1 746 0
 1545 0008 0120     		movs	r0, #1
 1546 000a FFF7FEFF 		bl	gfxSleepMilliseconds
 1547              		.loc 1 748 0
 1548 000e 6D20     		movs	r0, #109
 1549 0010 0199     		ldr	r1, [sp, #4]
 1550 0012 FFF7FEFF 		bl	gdriverGetInstance
 1551 0016 0390     		str	r0, [sp, #12]
 1552 0018 039B     		ldr	r3, [sp, #12]
 1553 001a 002B     		cmp	r3, #0
 1554 001c 01D1     		bne	.L93
 1555              		.loc 1 749 0
 1556 001e 0023     		movs	r3, #0
 1557 0020 22E0     		b	.L94
 1558              	.L93:
 1559              		.loc 1 757 0
 1560 0022 039B     		ldr	r3, [sp, #12]
 1561 0024 5B68     		ldr	r3, [r3, #4]
 1562 0026 5B88     		ldrh	r3, [r3, #2]
 1563 0028 03F00103 		and	r3, r3, #1
 1564 002c 002B     		cmp	r3, #0
 1565 002e 02D0     		beq	.L95
 1566              		.loc 1 757 0 is_stmt 0 discriminator 1
 1567 0030 40F20112 		movw	r2, #257
 1568 0034 01E0     		b	.L96
 1569              	.L95:
 1570              		.loc 1 757 0 discriminator 2
 1571 0036 4FF48072 		mov	r2, #256
 1572              	.L96:
 1573              		.loc 1 757 0 discriminator 4
 1574 003a 009B     		ldr	r3, [sp]
 1575 003c 1A80     		strh	r2, [r3]	@ movhi
 1576              		.loc 1 761 0 is_stmt 1 discriminator 4
 1577 003e 039B     		ldr	r3, [sp, #12]
 1578 0040 1A89     		ldrh	r2, [r3, #8]
 1579 0042 009B     		ldr	r3, [sp]
 1580 0044 5A80     		strh	r2, [r3, #2]	@ movhi
 1581              		.loc 1 762 0 discriminator 4
 1582 0046 039B     		ldr	r3, [sp, #12]
ARM GAS  /tmp/ccLZSnB9.s 			page 29


 1583 0048 5A89     		ldrh	r2, [r3, #10]
 1584 004a 009B     		ldr	r3, [sp]
 1585 004c 9A80     		strh	r2, [r3, #4]	@ movhi
 1586              		.loc 1 763 0 discriminator 4
 1587 004e 039B     		ldr	r3, [sp, #12]
 1588 0050 9A89     		ldrh	r2, [r3, #12]
 1589 0052 009B     		ldr	r3, [sp]
 1590 0054 DA80     		strh	r2, [r3, #6]	@ movhi
 1591              		.loc 1 764 0 discriminator 4
 1592 0056 039B     		ldr	r3, [sp, #12]
 1593 0058 DA89     		ldrh	r2, [r3, #14]
 1594 005a 009B     		ldr	r3, [sp]
 1595 005c 1A81     		strh	r2, [r3, #8]	@ movhi
 1596              		.loc 1 765 0 discriminator 4
 1597 005e 039B     		ldr	r3, [sp, #12]
 1598 0060 DA69     		ldr	r2, [r3, #28]
 1599 0062 009B     		ldr	r3, [sp]
 1600 0064 DA60     		str	r2, [r3, #12]
 1601              		.loc 1 766 0 discriminator 4
 1602 0066 0123     		movs	r3, #1
 1603              	.L94:
 1604              		.loc 1 767 0
 1605 0068 1846     		mov	r0, r3
 1606 006a 05B0     		add	sp, sp, #20
 1607              		.cfi_def_cfa_offset 4
 1608              		@ sp needed
 1609 006c 5DF804FB 		ldr	pc, [sp], #4
 1610              		.cfi_endproc
 1611              	.LFE123:
 1612              		.size	ginputGetMouseStatus, .-ginputGetMouseStatus
 1613              		.section	.text.ginputSetFingerMode,"ax",%progbits
 1614              		.align	2
 1615              		.p2align 4,,15
 1616              		.global	ginputSetFingerMode
 1617              		.thumb
 1618              		.thumb_func
 1619              		.type	ginputSetFingerMode, %function
 1620              	ginputSetFingerMode:
 1621              	.LFB124:
 1622              		.loc 1 770 0
 1623              		.cfi_startproc
 1624              		@ args = 0, pretend = 0, frame = 16
 1625              		@ frame_needed = 0, uses_anonymous_args = 0
 1626 0000 00B5     		push	{lr}
 1627              		.cfi_def_cfa_offset 4
 1628              		.cfi_offset 14, -4
 1629 0002 85B0     		sub	sp, sp, #20
 1630              		.cfi_def_cfa_offset 24
 1631 0004 0190     		str	r0, [sp, #4]
 1632 0006 0B46     		mov	r3, r1
 1633 0008 8DF80330 		strb	r3, [sp, #3]
 1634              		.loc 1 773 0
 1635 000c 6D20     		movs	r0, #109
 1636 000e 0199     		ldr	r1, [sp, #4]
 1637 0010 FFF7FEFF 		bl	gdriverGetInstance
 1638 0014 0390     		str	r0, [sp, #12]
 1639 0016 039B     		ldr	r3, [sp, #12]
ARM GAS  /tmp/ccLZSnB9.s 			page 30


 1640 0018 002B     		cmp	r3, #0
 1641 001a 00D1     		bne	.L98
 1642              		.loc 1 774 0
 1643 001c 12E0     		b	.L97
 1644              	.L98:
 1645              		.loc 1 776 0
 1646 001e 9DF80330 		ldrb	r3, [sp, #3]	@ zero_extendqisi2
 1647 0022 002B     		cmp	r3, #0
 1648 0024 07D0     		beq	.L100
 1649              		.loc 1 777 0
 1650 0026 039B     		ldr	r3, [sp, #12]
 1651 0028 1B8A     		ldrh	r3, [r3, #16]
 1652 002a 43F02003 		orr	r3, r3, #32
 1653 002e 9AB2     		uxth	r2, r3
 1654 0030 039B     		ldr	r3, [sp, #12]
 1655 0032 1A82     		strh	r2, [r3, #16]	@ movhi
 1656 0034 06E0     		b	.L97
 1657              	.L100:
 1658              		.loc 1 779 0
 1659 0036 039B     		ldr	r3, [sp, #12]
 1660 0038 1B8A     		ldrh	r3, [r3, #16]
 1661 003a 23F02003 		bic	r3, r3, #32
 1662 003e 9AB2     		uxth	r2, r3
 1663 0040 039B     		ldr	r3, [sp, #12]
 1664 0042 1A82     		strh	r2, [r3, #16]	@ movhi
 1665              	.L97:
 1666              		.loc 1 781 0
 1667 0044 05B0     		add	sp, sp, #20
 1668              		.cfi_def_cfa_offset 4
 1669              		@ sp needed
 1670 0046 5DF804FB 		ldr	pc, [sp], #4
 1671              		.cfi_endproc
 1672              	.LFE124:
 1673              		.size	ginputSetFingerMode, .-ginputSetFingerMode
 1674 004a 00BFAFF3 		.section	.text._gmouseWakeup,"ax",%progbits
 1674      0080
 1675              		.align	2
 1676              		.p2align 4,,15
 1677              		.global	_gmouseWakeup
 1678              		.thumb
 1679              		.thumb_func
 1680              		.type	_gmouseWakeup, %function
 1681              	_gmouseWakeup:
 1682              	.LFB125:
 1683              		.loc 1 801 0
 1684              		.cfi_startproc
 1685              		@ args = 0, pretend = 0, frame = 8
 1686              		@ frame_needed = 0, uses_anonymous_args = 0
 1687 0000 00B5     		push	{lr}
 1688              		.cfi_def_cfa_offset 4
 1689              		.cfi_offset 14, -4
 1690 0002 83B0     		sub	sp, sp, #12
 1691              		.cfi_def_cfa_offset 16
 1692 0004 0190     		str	r0, [sp, #4]
 1693              		.loc 1 802 0
 1694 0006 019B     		ldr	r3, [sp, #4]
 1695 0008 002B     		cmp	r3, #0
ARM GAS  /tmp/ccLZSnB9.s 			page 31


 1696 000a 06D0     		beq	.L102
 1697              		.loc 1 803 0
 1698 000c 019B     		ldr	r3, [sp, #4]
 1699 000e 1B8A     		ldrh	r3, [r3, #16]
 1700 0010 43F04003 		orr	r3, r3, #64
 1701 0014 9AB2     		uxth	r2, r3
 1702 0016 019B     		ldr	r3, [sp, #4]
 1703 0018 1A82     		strh	r2, [r3, #16]	@ movhi
 1704              	.L102:
 1705              		.loc 1 804 0
 1706 001a 0348     		ldr	r0, .L103
 1707 001c FFF7FEFF 		bl	gtimerJab
 1708              		.loc 1 805 0
 1709 0020 03B0     		add	sp, sp, #12
 1710              		.cfi_def_cfa_offset 4
 1711              		@ sp needed
 1712 0022 5DF804FB 		ldr	pc, [sp], #4
 1713              	.L104:
 1714 0026 00BF     		.align	2
 1715              	.L103:
 1716 0028 00000000 		.word	MouseTimer
 1717              		.cfi_endproc
 1718              	.LFE125:
 1719              		.size	_gmouseWakeup, .-_gmouseWakeup
 1720 002c AFF30080 		.section	.text._gmouseWakeupI,"ax",%progbits
 1721              		.align	2
 1722              		.p2align 4,,15
 1723              		.global	_gmouseWakeupI
 1724              		.thumb
 1725              		.thumb_func
 1726              		.type	_gmouseWakeupI, %function
 1727              	_gmouseWakeupI:
 1728              	.LFB126:
 1729              		.loc 1 808 0
 1730              		.cfi_startproc
 1731              		@ args = 0, pretend = 0, frame = 8
 1732              		@ frame_needed = 0, uses_anonymous_args = 0
 1733 0000 00B5     		push	{lr}
 1734              		.cfi_def_cfa_offset 4
 1735              		.cfi_offset 14, -4
 1736 0002 83B0     		sub	sp, sp, #12
 1737              		.cfi_def_cfa_offset 16
 1738 0004 0190     		str	r0, [sp, #4]
 1739              		.loc 1 809 0
 1740 0006 019B     		ldr	r3, [sp, #4]
 1741 0008 002B     		cmp	r3, #0
 1742 000a 06D0     		beq	.L106
 1743              		.loc 1 810 0
 1744 000c 019B     		ldr	r3, [sp, #4]
 1745 000e 1B8A     		ldrh	r3, [r3, #16]
 1746 0010 43F04003 		orr	r3, r3, #64
 1747 0014 9AB2     		uxth	r2, r3
 1748 0016 019B     		ldr	r3, [sp, #4]
 1749 0018 1A82     		strh	r2, [r3, #16]	@ movhi
 1750              	.L106:
 1751              		.loc 1 811 0
 1752 001a 0348     		ldr	r0, .L107
ARM GAS  /tmp/ccLZSnB9.s 			page 32


 1753 001c FFF7FEFF 		bl	gtimerJabI
 1754              		.loc 1 812 0
 1755 0020 03B0     		add	sp, sp, #12
 1756              		.cfi_def_cfa_offset 4
 1757              		@ sp needed
 1758 0022 5DF804FB 		ldr	pc, [sp], #4
 1759              	.L108:
 1760 0026 00BF     		.align	2
 1761              	.L107:
 1762 0028 00000000 		.word	MouseTimer
 1763              		.cfi_endproc
 1764              	.LFE126:
 1765              		.size	_gmouseWakeupI, .-_gmouseWakeupI
 1766 002c AFF30080 		.text
 1767              	.Letext0:
 1768              		.file 2 "/opt/gcc-arm-none-eabi/lib/gcc/arm-none-eabi/4.9.3/include/stddef.h"
 1769              		.file 3 "/opt/gcc-arm-none-eabi/arm-none-eabi/include/machine/_default_types.h"
 1770              		.file 4 "/opt/gcc-arm-none-eabi/arm-none-eabi/include/stdint.h"
 1771              		.file 5 "/home/makkmarci/workspace/ChibiOS_2.6.8/os/ports/GCC/ARMCMx/chtypes.h"
 1772              		.file 6 "/home/makkmarci/workspace/ChibiOS_2.6.8/os/kernel/include/chlists.h"
 1773              		.file 7 "/home/makkmarci/workspace/ChibiOS_2.6.8/os/kernel/include/chthreads.h"
 1774              		.file 8 "/home/makkmarci/workspace/ChibiOS_2.6.8/os/ports/GCC/ARMCMx/chcore_v7m.h"
 1775              		.file 9 "/home/makkmarci/workspace/ChibiOS_2.6.8/os/kernel/include/chvt.h"
 1776              		.file 10 "/home/makkmarci/workspace/ChibiOS_2.6.8/os/kernel/include/chsem.h"
 1777              		.file 11 "/home/makkmarci/workspace/ChibiOS_2.6.8/os/kernel/include/chmtx.h"
 1778              		.file 12 "/home/makkmarci/workspace/ugfx/src/gos/gos_chibios.h"
 1779              		.file 13 "/home/makkmarci/workspace/ugfx/src/gdisp/gdisp.h"
 1780              		.file 14 "/home/makkmarci/workspace/ugfx/src/gevent/gevent.h"
 1781              		.file 15 "/home/makkmarci/workspace/ugfx/src/gtimer/gtimer.h"
 1782              		.file 16 "/home/makkmarci/workspace/ugfx/src/ginput/ginput_mouse.h"
 1783              		.file 17 "/home/makkmarci/workspace/ugfx/src/gdriver/gdriver.h"
 1784              		.file 18 "/home/makkmarci/workspace/ugfx/src/ginput/ginput_driver_mouse.h"
 1785              		.file 19 "/home/makkmarci/workspace/ChibiOS_2.6.8/os/ports/common/ARMCMx/CMSIS/include/core_cm4.h"