ARM GAS  /tmp/cctRKXcA.s 			page 1


   1              		.syntax unified
   2              		.cpu cortex-m4
   3              		.eabi_attribute 27, 1
   4              		.eabi_attribute 28, 1
   5              		.fpu fpv4-sp-d16
   6              		.eabi_attribute 20, 1
   7              		.eabi_attribute 21, 1
   8              		.eabi_attribute 23, 3
   9              		.eabi_attribute 24, 1
  10              		.eabi_attribute 25, 1
  11              		.eabi_attribute 26, 1
  12              		.eabi_attribute 30, 6
  13              		.eabi_attribute 34, 1
  14              		.eabi_attribute 18, 4
  15              		.thumb
  16              		.file	"gmouse_lld_ADS7843.c"
  17              		.text
  18              	.Ltext0:
  19              		.cfi_sections	.debug_frame
  20              		.section	.rodata.spicfg,"a",%progbits
  21              		.align	2
  22              		.type	spicfg, %object
  23              		.size	spicfg, 12
  24              	spicfg:
  25 0000 00000000 		.word	0
  26 0004 00080240 		.word	1073874944
  27 0008 0400     		.short	4
  28 000a 1800     		.short	24
  29              		.section	.text.init_board,"ax",%progbits
  30              		.align	2
  31              		.p2align 4,,15
  32              		.thumb
  33              		.thumb_func
  34              		.type	init_board, %function
  35              	init_board:
  36              	.LFB111:
  37              		.file 1 "/home/makkmarci/workspace/ugfx/drivers/ginput/touch/ADS7843/gmouse_lld_ADS7843_board.h"
  38              		.loc 1 29 0
  39              		.cfi_startproc
  40              		@ args = 0, pretend = 0, frame = 8
  41              		@ frame_needed = 0, uses_anonymous_args = 0
  42 0000 00B5     		push	{lr}
  43              		.cfi_def_cfa_offset 4
  44              		.cfi_offset 14, -4
  45 0002 83B0     		sub	sp, sp, #12
  46              		.cfi_def_cfa_offset 16
  47 0004 0190     		str	r0, [sp, #4]
  48 0006 0091     		str	r1, [sp]
  49              		.loc 1 32 0
  50 0008 009B     		ldr	r3, [sp]
  51 000a 002B     		cmp	r3, #0
  52 000c 01D0     		beq	.L2
  53              		.loc 1 33 0
  54 000e 0023     		movs	r3, #0
  55 0010 1EE0     		b	.L3
  56              	.L2:
  57              		.loc 1 35 0
ARM GAS  /tmp/cctRKXcA.s 			page 2


  58 0012 1148     		ldr	r0, .L4
  59 0014 4FF40051 		mov	r1, #8192
  60 0018 40F28222 		movw	r2, #642
  61 001c FFF7FEFF 		bl	_pal_lld_setgroupmode
  62              		.loc 1 36 0
  63 0020 0D48     		ldr	r0, .L4
  64 0022 4FF48041 		mov	r1, #16384
  65 0026 40F28222 		movw	r2, #642
  66 002a FFF7FEFF 		bl	_pal_lld_setgroupmode
  67              		.loc 1 37 0
  68 002e 0A48     		ldr	r0, .L4
  69 0030 4FF40041 		mov	r1, #32768
  70 0034 40F28222 		movw	r2, #642
  71 0038 FFF7FEFF 		bl	_pal_lld_setgroupmode
  72              		.loc 1 38 0
  73 003c 0748     		ldr	r0, .L4+4
  74 003e 1021     		movs	r1, #16
  75 0040 0122     		movs	r2, #1
  76 0042 FFF7FEFF 		bl	_pal_lld_setgroupmode
  77              		.loc 1 40 0
  78 0046 0648     		ldr	r0, .L4+8
  79 0048 0649     		ldr	r1, .L4+12
  80 004a FFF7FEFF 		bl	spiStart
  81              		.loc 1 41 0
  82 004e 0123     		movs	r3, #1
  83              	.L3:
  84              		.loc 1 42 0
  85 0050 1846     		mov	r0, r3
  86 0052 03B0     		add	sp, sp, #12
  87              		.cfi_def_cfa_offset 4
  88              		@ sp needed
  89 0054 5DF804FB 		ldr	pc, [sp], #4
  90              	.L5:
  91              		.align	2
  92              	.L4:
  93 0058 00040240 		.word	1073873920
  94 005c 00080240 		.word	1073874944
  95 0060 00000000 		.word	SPID2
  96 0064 00000000 		.word	spicfg
  97              		.cfi_endproc
  98              	.LFE111:
  99              		.size	init_board, .-init_board
 100 0068 AFF30080 		.section	.text.getpin_pressed,"ax",%progbits
 100      AFF30080 
 101              		.align	2
 102              		.p2align 4,,15
 103              		.thumb
 104              		.thumb_func
 105              		.type	getpin_pressed, %function
 106              	getpin_pressed:
 107              	.LFB112:
 108              		.loc 1 44 0
 109              		.cfi_startproc
 110              		@ args = 0, pretend = 0, frame = 8
 111              		@ frame_needed = 0, uses_anonymous_args = 0
 112              		@ link register save eliminated.
 113 0000 82B0     		sub	sp, sp, #8
ARM GAS  /tmp/cctRKXcA.s 			page 3


 114              		.cfi_def_cfa_offset 8
 115 0002 0190     		str	r0, [sp, #4]
 116              		.loc 1 47 0
 117 0004 064B     		ldr	r3, .L8
 118 0006 1B69     		ldr	r3, [r3, #16]
 119 0008 5B09     		lsrs	r3, r3, #5
 120 000a 03F00103 		and	r3, r3, #1
 121 000e 002B     		cmp	r3, #0
 122 0010 0CBF     		ite	eq
 123 0012 0123     		moveq	r3, #1
 124 0014 0023     		movne	r3, #0
 125 0016 DBB2     		uxtb	r3, r3
 126              		.loc 1 48 0
 127 0018 1846     		mov	r0, r3
 128 001a 02B0     		add	sp, sp, #8
 129              		.cfi_def_cfa_offset 0
 130              		@ sp needed
 131 001c 7047     		bx	lr
 132              	.L9:
 133 001e 00BF     		.align	2
 134              	.L8:
 135 0020 00080240 		.word	1073874944
 136              		.cfi_endproc
 137              	.LFE112:
 138              		.size	getpin_pressed, .-getpin_pressed
 139 0024 AFF30080 		.section	.text.aquire_bus,"ax",%progbits
 139      AFF30080 
 139      AFF30080 
 140              		.align	2
 141              		.p2align 4,,15
 142              		.thumb
 143              		.thumb_func
 144              		.type	aquire_bus, %function
 145              	aquire_bus:
 146              	.LFB113:
 147              		.loc 1 50 0
 148              		.cfi_startproc
 149              		@ args = 0, pretend = 0, frame = 8
 150              		@ frame_needed = 0, uses_anonymous_args = 0
 151 0000 00B5     		push	{lr}
 152              		.cfi_def_cfa_offset 4
 153              		.cfi_offset 14, -4
 154 0002 83B0     		sub	sp, sp, #12
 155              		.cfi_def_cfa_offset 16
 156 0004 0190     		str	r0, [sp, #4]
 157              		.loc 1 53 0
 158 0006 0448     		ldr	r0, .L11
 159 0008 FFF7FEFF 		bl	spiAcquireBus
 160              		.loc 1 54 0
 161 000c 034B     		ldr	r3, .L11+4
 162 000e 1022     		movs	r2, #16
 163 0010 5A83     		strh	r2, [r3, #26]	@ movhi
 164              		.loc 1 55 0
 165 0012 03B0     		add	sp, sp, #12
 166              		.cfi_def_cfa_offset 4
 167              		@ sp needed
 168 0014 5DF804FB 		ldr	pc, [sp], #4
ARM GAS  /tmp/cctRKXcA.s 			page 4


 169              	.L12:
 170              		.align	2
 171              	.L11:
 172 0018 00000000 		.word	SPID2
 173 001c 00080240 		.word	1073874944
 174              		.cfi_endproc
 175              	.LFE113:
 176              		.size	aquire_bus, .-aquire_bus
 177              		.section	.text.release_bus,"ax",%progbits
 178              		.align	2
 179              		.p2align 4,,15
 180              		.thumb
 181              		.thumb_func
 182              		.type	release_bus, %function
 183              	release_bus:
 184              	.LFB114:
 185              		.loc 1 57 0
 186              		.cfi_startproc
 187              		@ args = 0, pretend = 0, frame = 8
 188              		@ frame_needed = 0, uses_anonymous_args = 0
 189 0000 00B5     		push	{lr}
 190              		.cfi_def_cfa_offset 4
 191              		.cfi_offset 14, -4
 192 0002 83B0     		sub	sp, sp, #12
 193              		.cfi_def_cfa_offset 16
 194 0004 0190     		str	r0, [sp, #4]
 195              		.loc 1 60 0
 196 0006 044B     		ldr	r3, .L14
 197 0008 1022     		movs	r2, #16
 198 000a 1A83     		strh	r2, [r3, #24]	@ movhi
 199              		.loc 1 61 0
 200 000c 0348     		ldr	r0, .L14+4
 201 000e FFF7FEFF 		bl	spiReleaseBus
 202              		.loc 1 62 0
 203 0012 03B0     		add	sp, sp, #12
 204              		.cfi_def_cfa_offset 4
 205              		@ sp needed
 206 0014 5DF804FB 		ldr	pc, [sp], #4
 207              	.L15:
 208              		.align	2
 209              	.L14:
 210 0018 00080240 		.word	1073874944
 211 001c 00000000 		.word	SPID2
 212              		.cfi_endproc
 213              	.LFE114:
 214              		.size	release_bus, .-release_bus
 215              		.section	.text.read_value,"ax",%progbits
 216              		.align	2
 217              		.p2align 4,,15
 218              		.thumb
 219              		.thumb_func
 220              		.type	read_value, %function
 221              	read_value:
 222              	.LFB115:
 223              		.loc 1 64 0
 224              		.cfi_startproc
 225              		@ args = 0, pretend = 0, frame = 8
ARM GAS  /tmp/cctRKXcA.s 			page 5


 226              		@ frame_needed = 0, uses_anonymous_args = 0
 227 0000 00B5     		push	{lr}
 228              		.cfi_def_cfa_offset 4
 229              		.cfi_offset 14, -4
 230 0002 83B0     		sub	sp, sp, #12
 231              		.cfi_def_cfa_offset 16
 232 0004 0190     		str	r0, [sp, #4]
 233 0006 0B46     		mov	r3, r1
 234 0008 ADF80230 		strh	r3, [sp, #2]	@ movhi
 235              		.loc 1 69 0
 236 000c BDF80230 		ldrh	r3, [sp, #2]	@ movhi
 237 0010 DAB2     		uxtb	r2, r3
 238 0012 0C4B     		ldr	r3, .L18
 239 0014 1A70     		strb	r2, [r3]
 240              		.loc 1 70 0
 241 0016 0C48     		ldr	r0, .L18+4
 242 0018 0321     		movs	r1, #3
 243 001a 0A4A     		ldr	r2, .L18
 244 001c 0B4B     		ldr	r3, .L18+8
 245 001e FFF7FEFF 		bl	spiExchange
 246              		.loc 1 72 0
 247 0022 0A4B     		ldr	r3, .L18+8
 248 0024 5B78     		ldrb	r3, [r3, #1]	@ zero_extendqisi2
 249 0026 5B01     		lsls	r3, r3, #5
 250 0028 9AB2     		uxth	r2, r3
 251 002a 084B     		ldr	r3, .L18+8
 252 002c 9B78     		ldrb	r3, [r3, #2]	@ zero_extendqisi2
 253 002e DB08     		lsrs	r3, r3, #3
 254 0030 DBB2     		uxtb	r3, r3
 255 0032 9BB2     		uxth	r3, r3
 256 0034 1343     		orrs	r3, r3, r2
 257 0036 9BB2     		uxth	r3, r3
 258 0038 9BB2     		uxth	r3, r3
 259              		.loc 1 73 0
 260 003a 1846     		mov	r0, r3
 261 003c 03B0     		add	sp, sp, #12
 262              		.cfi_def_cfa_offset 4
 263              		@ sp needed
 264 003e 5DF804FB 		ldr	pc, [sp], #4
 265              	.L19:
 266 0042 00BF     		.align	2
 267              	.L18:
 268 0044 00000000 		.word	txbuf.7958
 269 0048 00000000 		.word	SPID2
 270 004c 00000000 		.word	rxbuf.7959
 271              		.cfi_endproc
 272              	.LFE115:
 273              		.size	read_value, .-read_value
 274              		.section	.text.MouseXYZ,"ax",%progbits
 275              		.align	2
 276              		.p2align 4,,15
 277              		.thumb
 278              		.thumb_func
 279              		.type	MouseXYZ, %function
 280              	MouseXYZ:
 281              	.LFB116:
 282              		.file 2 "/home/makkmarci/workspace/ugfx/drivers/ginput/touch/ADS7843/gmouse_lld_ADS7843.c"
ARM GAS  /tmp/cctRKXcA.s 			page 6


 283              		.loc 2 23 0
 284              		.cfi_startproc
 285              		@ args = 0, pretend = 0, frame = 8
 286              		@ frame_needed = 0, uses_anonymous_args = 0
 287 0000 00B5     		push	{lr}
 288              		.cfi_def_cfa_offset 4
 289              		.cfi_offset 14, -4
 290 0002 83B0     		sub	sp, sp, #12
 291              		.cfi_def_cfa_offset 16
 292 0004 0190     		str	r0, [sp, #4]
 293 0006 0091     		str	r1, [sp]
 294              		.loc 2 27 0
 295 0008 009B     		ldr	r3, [sp]
 296 000a 0022     		movs	r2, #0
 297 000c DA80     		strh	r2, [r3, #6]	@ movhi
 298              		.loc 2 28 0
 299 000e 009B     		ldr	r3, [sp]
 300 0010 0022     		movs	r2, #0
 301 0012 9A80     		strh	r2, [r3, #4]	@ movhi
 302              		.loc 2 30 0
 303 0014 0198     		ldr	r0, [sp, #4]
 304 0016 FFF7FEFF 		bl	getpin_pressed
 305 001a 0346     		mov	r3, r0
 306 001c 002B     		cmp	r3, #0
 307 001e 24D0     		beq	.L21
 308              		.loc 2 31 0
 309 0020 009B     		ldr	r3, [sp]
 310 0022 0122     		movs	r2, #1
 311 0024 9A80     		strh	r2, [r3, #4]	@ movhi
 312              		.loc 2 33 0
 313 0026 0198     		ldr	r0, [sp, #4]
 314 0028 FFF7FEFF 		bl	aquire_bus
 315              		.loc 2 35 0
 316 002c 0198     		ldr	r0, [sp, #4]
 317 002e D121     		movs	r1, #209
 318 0030 FFF7FEFF 		bl	read_value
 319              		.loc 2 36 0
 320 0034 0198     		ldr	r0, [sp, #4]
 321 0036 D121     		movs	r1, #209
 322 0038 FFF7FEFF 		bl	read_value
 323 003c 0346     		mov	r3, r0
 324 003e 9AB2     		uxth	r2, r3
 325 0040 009B     		ldr	r3, [sp]
 326 0042 1A80     		strh	r2, [r3]	@ movhi
 327              		.loc 2 38 0
 328 0044 0198     		ldr	r0, [sp, #4]
 329 0046 9121     		movs	r1, #145
 330 0048 FFF7FEFF 		bl	read_value
 331              		.loc 2 39 0
 332 004c 0198     		ldr	r0, [sp, #4]
 333 004e 9121     		movs	r1, #145
 334 0050 FFF7FEFF 		bl	read_value
 335 0054 0346     		mov	r3, r0
 336 0056 9AB2     		uxth	r2, r3
 337 0058 009B     		ldr	r3, [sp]
 338 005a 5A80     		strh	r2, [r3, #2]	@ movhi
 339              		.loc 2 41 0
ARM GAS  /tmp/cctRKXcA.s 			page 7


 340 005c 0198     		ldr	r0, [sp, #4]
 341 005e 8021     		movs	r1, #128
 342 0060 FFF7FEFF 		bl	read_value
 343              		.loc 2 43 0
 344 0064 0198     		ldr	r0, [sp, #4]
 345 0066 FFF7FEFF 		bl	release_bus
 346              	.L21:
 347              		.loc 2 45 0
 348 006a 0123     		movs	r3, #1
 349              		.loc 2 46 0
 350 006c 1846     		mov	r0, r3
 351 006e 03B0     		add	sp, sp, #12
 352              		.cfi_def_cfa_offset 4
 353              		@ sp needed
 354 0070 5DF804FB 		ldr	pc, [sp], #4
 355              		.cfi_endproc
 356              	.LFE116:
 357              		.size	MouseXYZ, .-MouseXYZ
 358              		.global	GMOUSEVMT_OnlyOne
 359 0074 AFF30080 		.section	.rodata.GMOUSEVMT_OnlyOne,"a",%progbits
 359      AFF30080 
 359      AFF30080 
 360              		.align	2
 361              		.type	GMOUSEVMT_OnlyOne, %object
 362              		.size	GMOUSEVMT_OnlyOne, 60
 363              	GMOUSEVMT_OnlyOne:
 364 0000 6D00     		.short	109
 365 0002 5103     		.short	849
 366 0004 38000000 		.word	56
 367 0008 00000000 		.word	_gmouseInitDriver
 368 000c 00000000 		.word	_gmousePostInitDriver
 369 0010 00000000 		.word	_gmouseDeInitDriver
 370 0014 0100     		.short	1
 371 0016 0000     		.short	0
 372 0018 0100     		.short	1
 373 001a 0000     		.short	0
 374 001c 0800     		.short	8
 375 001e 0600     		.short	6
 376 0020 0400     		.short	4
 377 0022 0E00     		.short	14
 378 0024 1200     		.short	18
 379 0026 0E00     		.short	14
 380 0028 00000000 		.word	init_board
 381 002c 00000000 		.word	0
 382 0030 00000000 		.word	MouseXYZ
 383 0034 00000000 		.word	0
 384 0038 00000000 		.word	0
 385              		.section	.bss.txbuf.7958,"aw",%nobits
 386              		.align	2
 387              		.type	txbuf.7958, %object
 388              		.size	txbuf.7958, 3
 389              	txbuf.7958:
 390 0000 000000   		.space	3
 391 0003 00       		.section	.bss.rxbuf.7959,"aw",%nobits
 392              		.align	2
 393              		.type	rxbuf.7959, %object
 394              		.size	rxbuf.7959, 3
ARM GAS  /tmp/cctRKXcA.s 			page 8


 395              	rxbuf.7959:
 396 0000 000000   		.space	3
 397 0003 00       		.text
 398              	.Letext0:
 399              		.file 3 "/opt/gcc-arm-none-eabi/lib/gcc/arm-none-eabi/4.9.3/include/stddef.h"
 400              		.file 4 "/opt/gcc-arm-none-eabi/arm-none-eabi/include/machine/_default_types.h"
 401              		.file 5 "/opt/gcc-arm-none-eabi/arm-none-eabi/include/stdint.h"
 402              		.file 6 "/home/makkmarci/workspace/ChibiOS_2.6.8/os/ports/GCC/ARMCMx/chtypes.h"
 403              		.file 7 "/home/makkmarci/workspace/ChibiOS_2.6.8/os/kernel/include/chlists.h"
 404              		.file 8 "/home/makkmarci/workspace/ChibiOS_2.6.8/os/kernel/include/chthreads.h"
 405              		.file 9 "/home/makkmarci/workspace/ChibiOS_2.6.8/os/ports/GCC/ARMCMx/chcore_v7m.h"
 406              		.file 10 "/home/makkmarci/workspace/ChibiOS_2.6.8/os/kernel/include/chmtx.h"
 407              		.file 11 "/home/makkmarci/workspace/ChibiOS_2.6.8/os/hal/platforms/STM32F4xx/stm32f4xx.h"
 408              		.file 12 "/home/makkmarci/workspace/ChibiOS_2.6.8/os/hal/platforms/STM32F4xx/stm32_dma.h"
 409              		.file 13 "/home/makkmarci/workspace/ChibiOS_2.6.8/os/hal/platforms/STM32/GPIOv2/pal_lld.h"
 410              		.file 14 "/home/makkmarci/workspace/ChibiOS_2.6.8/os/hal/include/spi.h"
 411              		.file 15 "/home/makkmarci/workspace/ChibiOS_2.6.8/os/hal/platforms/STM32/SPIv1/spi_lld.h"
 412              		.file 16 "/home/makkmarci/workspace/ugfx/src/gos/gos_chibios.h"
 413              		.file 17 "/home/makkmarci/workspace/ugfx/src/gdisp/gdisp.h"
 414              		.file 18 "/home/makkmarci/workspace/ugfx/src/gdriver/gdriver.h"
 415              		.file 19 "/home/makkmarci/workspace/ugfx/src/ginput/ginput_driver_mouse.h"
 416              		.file 20 "/home/makkmarci/workspace/ChibiOS_2.6.8/os/ports/common/ARMCMx/CMSIS/include/core_cm4.h"