ARM GAS  /tmp/cctRKXcA.s 			page 1


   1              		.syntax unified
   2              		.cpu cortex-m4
   3              		.eabi_attribute 27, 1
   4              		.eabi_attribute 28, 1
   5              		.fpu fpv4-sp-d16
   6              		.eabi_attribute 20, 1
   7              		.eabi_attribute 21, 1
   8              		.eabi_attribute 23, 3
   9              		.eabi_attribute 24, 1
  10              		.eabi_attribute 25, 1
  11              		.eabi_attribute 26, 1
  12              		.eabi_attribute 30, 6
  13              		.eabi_attribute 34, 1
  14              		.eabi_attribute 18, 4
  15              		.thumb
  16              		.file	"gmouse_lld_ADS7843.c"
  17              		.text
  18              	.Ltext0:
  19              		.cfi_sections	.debug_frame
  20              		.section	.rodata.spicfg,"a",%progbits
  21              		.align	2
  22              		.type	spicfg, %object
  23              		.size	spicfg, 12
  24              	spicfg:
  25 0000 00000000 		.word	0
  26 0004 00080240 		.word	1073874944
  27 0008 0400     		.short	4
  28 000a 1800     		.short	24
  29              		.section	.text.init_board,"ax",%progbits
  30              		.align	2
  31              		.p2align 4,,15
  32              		.thumb
  33              		.thumb_func
  34              		.type	init_board, %function
  35              	init_board:
  36              	.LFB111:
  37              		.file 1 "/home/makkmarci/workspace/ugfx/drivers/ginput/touch/ADS7843/gmouse_lld_ADS7843_board.h"
  38              		.loc 1 29 0
  39              		.cfi_startproc
  40              		@ args = 0, pretend = 0, frame = 8
  41              		@ frame_needed = 0, uses_anonymous_args = 0
  42 0000 00B5     		push	{lr}
  43              		.cfi_def_cfa_offset 4
  44              		.cfi_offset 14, -4
  45 0002 83B0     		sub	sp, sp, #12
  46              		.cfi_def_cfa_offset 16
  47 0004 0190     		str	r0, [sp, #4]
  48 0006 0091     		str	r1, [sp]
  49              		.loc 1 32 0
  50 0008 009B     		ldr	r3, [sp]
  51 000a 002B     		cmp	r3, #0
  52 000c 01D0     		beq	.L2
  53              		.loc 1 33 0
  54 000e 0023     		movs	r3, #0
  55 0010 1EE0     		b	.L3
  56              	.L2:
  57              		.loc 1 35 0
ARM GAS  /tmp/cctRKXcA.s 			page 2


  58 0012 1148     		ldr	r0, .L4
  59 0014 4FF40051 		mov	r1, #8192
  60 0018 40F28222 		movw	r2, #642
  61 001c FFF7FEFF 		bl	_pal_lld_setgroupmode
  62              		.loc 1 36 0
  63 0020 0D48     		ldr	r0, .L4
  64 0022 4FF48041 		mov	r1, #16384
  65 0026 40F28222 		movw	r2, #642
  66 002a FFF7FEFF 		bl	_pal_lld_setgroupmode
  67              		.loc 1 37 0
  68 002e 0A48     		ldr	r0, .L4
  69 0030 4FF40041 		mov	r1, #32768
  70 0034 40F28222 		movw	r2, #642
  71 0038 FFF7FEFF 		bl	_pal_lld_setgroupmode
  72              		.loc 1 38 0
  73 003c 0748     		ldr	r0, .L4+4
  74 003e 1021     		movs	r1, #16
  75 0040 0122     		movs	r2, #1
  76 0042 FFF7FEFF 		bl	_pal_lld_setgroupmode
  77              		.loc 1 40 0
  78 0046 0648     		ldr	r0, .L4+8
  79 0048 0649     		ldr	r1, .L4+12
  80 004a FFF7FEFF 		bl	spiStart
  81              		.loc 1 41 0
  82 004e 0123     		movs	r3, #1
  83              	.L3:
  84              		.loc 1 42 0
  85 0050 1846     		mov	r0, r3
  86 0052 03B0     		add	sp, sp, #12
  87              		.cfi_def_cfa_offset 4
  88              		@ sp needed
  89 0054 5DF804FB 		ldr	pc, [sp], #4
  90              	.L5:
  91              		.align	2
  92              	.L4:
  93 0058 00040240 		.word	1073873920
  94 005c 00080240 		.word	1073874944
  95 0060 00000000 		.word	SPID2
  96 0064 00000000 		.word	spicfg
  97              		.cfi_endproc
  98              	.LFE111:
  99              		.size	init_board, .-init_board
 100 0068 AFF30080 		.section	.text.getpin_pressed,"ax",%progbits
 100      AFF30080 
 101              		.align	2
 102              		.p2align 4,,15
 103              		.thumb
 104              		.thumb_func
 105              		.type	getpin_pressed, %function
 106              	getpin_pressed:
 107              	.LFB112:
 108              		.loc 1 44 0
 109              		.cfi_startproc
 110              		@ args = 0, pretend = 0, frame = 8
 111              		@ frame_needed = 0, uses_anonymous_args = 0
 112              		@ link register save eliminated.
 113 0000 82B0     		sub	sp, sp, #8
ARM GAS  /tmp/cctRKXcA.s 			page 3


 114              		.cfi_def_cfa_offset 8
 115 0002 0190     		str	r0, [sp, #4]
 116              		.loc 1 47 0
 117 0004 064B     		ldr	r3, .L8
 118 0006 1B69     		ldr	r3, [r3, #16]
 119 0008 5B09     		lsrs	r3, r3, #5
 120 000a 03F00103 		and	r3, r3, #1
 121 000e 002B     		cmp	r3, #0
 122 0010 0CBF     		ite	eq
 123 0012 0123     		moveq	r3, #1
 124 0014 0023     		movne	r3, #0
 125 0016 DBB2     		uxtb	r3, r3
 126              		.loc 1 48 0
 127 0018 1846     		mov	r0, r3
 128 001a 02B0     		add	sp, sp, #8
 129              		.cfi_def_cfa_offset 0
 130              		@ sp needed
 131 001c 7047     		bx	lr
 132              	.L9:
 133 001e 00BF     		.align	2
 134              	.L8:
 135 0020 00080240 		.word	1073874944
 136              		.cfi_endproc
 137              	.LFE112:
 138              		.size	getpin_pressed, .-getpin_pressed
 139 0024 AFF30080 		.section	.text.aquire_bus,"ax",%progbits
 139      AFF30080 
 139      AFF30080 
 140              		.align	2
 141              		.p2align 4,,15
 142              		.thumb
 143              		.thumb_func
 144              		.type	aquire_bus, %function
 145              	aquire_bus:
 146              	.LFB113:
 147              		.loc 1 50 0
 148              		.cfi_startproc
 149              		@ args = 0, pretend = 0, frame = 8
 150              		@ frame_needed = 0, uses_anonymous_args = 0
 151 0000 00B5     		push	{lr}
 152              		.cfi_def_cfa_offset 4
 153              		.cfi_offset 14, -4
 154 0002 83B0     		sub	sp, sp, #12
 155              		.cfi_def_cfa_offset 16
 156 0004 0190     		str	r0, [sp, #4]
 157              		.loc 1 53 0
 158 0006 0448     		ldr	r0, .L11
 159 0008 FFF7FEFF 		bl	spiAcquireBus
 160              		.loc 1 54 0
 161 000c 034B     		ldr	r3, .L11+4
 162 000e 1022     		movs	r2, #16
 163 0010 5A83     		strh	r2, [r3, #26]	@ movhi
 164              		.loc 1 55 0
 165 0012 03B0     		add	sp, sp, #12
 166              		.cfi_def_cfa_offset 4
 167              		@ sp needed
 168 0014 5DF804FB 		ldr	pc, [sp], #4
ARM GAS  /tmp/cctRKXcA.s 			page 4


 169              	.L12:
 170              		.align	2
 171              	.L11:
 172 0018 00000000 		.word	SPID2
 173 001c 00080240 		.word	1073874944
 174              		.cfi_endproc
 175              	.LFE113:
 176              		.size	aquire_bus, .-aquire_bus
 177              		.section	.text.release_bus,"ax",%progbits
 178              		.align	2
 179              		.p2align 4,,15
 180              		.thumb
 181              		.thumb_func
 182              		.type	release_bus, %function
 183              	release_bus:
 184              	.LFB114:
 185              		.loc 1 57 0
 186              		.cfi_startproc
 187              		@ args = 0, pretend = 0, frame = 8
 188              		@ frame_needed = 0, uses_anonymous_args = 0
 189 0000 00B5     		push	{lr}
 190              		.cfi_def_cfa_offset 4
 191              		.cfi_offset 14, -4
 192 0002 83B0     		sub	sp, sp, #12
 193              		.cfi_def_cfa_offset 16
 194 0004 0190     		str	r0, [sp, #4]
 195              		.loc 1 60 0
 196 0006 044B     		ldr	r3, .L14
 197 0008 1022     		movs	r2, #16
 198 000a 1A83     		strh	r2, [r3, #24]	@ movhi
 199              		.loc 1 61 0
 200 000c 0348     		ldr	r0, .L14+4
 201 000e FFF7FEFF 		bl	spiReleaseBus
 202              		.loc 1 62 0
 203 0012 03B0     		add	sp, sp, #12
 204              		.cfi_def_cfa_offset 4
 205              		@ sp needed
 206 0014 5DF804FB 		ldr	pc, [sp], #4
 207              	.L15:
 208              		.align	2
 209              	.L14:
 210 0018 00080240 		.word	1073874944
 211 001c 00000000 		.word	SPID2
 212              		.cfi_endproc
 213              	.LFE114:
 214              		.size	release_bus, .-release_bus
 215              		.section	.text.read_value,"ax",%progbits
 216              		.align	2
 217              		.p2align 4,,15
 218              		.thumb
 219              		.thumb_func
 220              		.type	read_value, %function
 221              	read_value:
 222              	.LFB115:
 223              		.loc 1 64 0
 224              		.cfi_startproc
 225              		@ args = 0, pretend = 0, frame = 8
ARM GAS  /tmp/cctRKXcA.s 			page 5


 226              		@ frame_needed = 0, uses_anonymous_args = 0
 227 0000 00B5     		push	{lr}
 228              		.cfi_def_cfa_offset 4
 229              		.cfi_offset 14, -4
 230 0002 83B0     		sub	sp, sp, #12
 231              		.cfi_def_cfa_offset 16
 232 0004 0190     		str	r0, [sp, #4]
 233 0006 0B46     		mov	r3, r1
 234 0008 ADF80230 		strh	r3, [sp, #2]	@ movhi
 235              		.loc 1 69 0
 236 000c BDF80230 		ldrh	r3, [sp, #2]	@ movhi
 237 0010 DAB2     		uxtb	r2, r3
 238 0012 0C4B     		ldr	r3, .L18
 239 0014 1A70     		strb	r2, [r3]
 240              		.loc 1 70 0
 241 0016 0C48     		ldr	r0, .L18+4
 242 0018 0321     		movs	r1, #3
 243 001a 0A4A     		ldr	r2, .L18
 244 001c 0B4B     		ldr	r3, .L18+8
 245 001e FFF7FEFF 		bl	spiExchange
 246              		.loc 1 72 0
 247 0022 0A4B     		ldr	r3, .L18+8
 248 0024 5B78     		ldrb	r3, [r3, #1]	@ zero_extendqisi2
 249 0026 5B01     		lsls	r3, r3, #5
 250 0028 9AB2     		uxth	r2, r3
 251 002a 084B     		ldr	r3, .L18+8
 252 002c 9B78     		ldrb	r3, [r3, #2]	@ zero_extendqisi2
 253 002e DB08     		lsrs	r3, r3, #3
 254 0030 DBB2     		uxtb	r3, r3
 255 0032 9BB2     		uxth	r3, r3
 256 0034 1343     		orrs	r3, r3, r2
 257 0036 9BB2     		uxth	r3, r3
 258 0038 9BB2     		uxth	r3, r3
 259              		.loc 1 73 0
 260 003a 1846     		mov	r0, r3
 261 003c 03B0     		add	sp, sp, #12
 262              		.cfi_def_cfa_offset 4
 263              		@ sp needed
 264 003e 5DF804FB 		ldr	pc, [sp], #4
 265              	.L19:
 266 0042 00BF     		.align	2
 267              	.L18:
 268 0044 00000000 		.word	txbuf.7958
 269 0048 00000000 		.word	SPID2
 270 004c 00000000 		.word	rxbuf.7959
 271              		.cfi_endproc
 272              	.LFE115:
 273              		.size	read_value, .-read_value
 274              		.section	.text.MouseXYZ,"ax",%progbits
 275              		.align	2
 276              		.p2align 4,,15
 277              		.thumb
 278              		.thumb_func
 279              		.type	MouseXYZ, %function
 280              	MouseXYZ:
 281              	.LFB116:
 282              		.file 2 "/home/makkmarci/workspace/ugfx/drivers/ginput/touch/ADS7843/gmouse_lld_ADS7843.c"
ARM GAS  /tmp/cctRKXcA.s 			page 6


 283              		.loc 2 23 0
 284              		.cfi_startproc
 285              		@ args = 0, pretend = 0, frame = 8
 286              		@ frame_needed = 0, uses_anonymous_args = 0
 287 0000 00B5     		push	{lr}
 288              		.cfi_def_cfa_offset 4
 289              		.cfi_offset 14, -4
 290 0002 83B0     		sub	sp, sp, #12
 291              		.cfi_def_cfa_offset 16
 292 0004 0190     		str	r0, [sp, #4]
 293 0006 0091     		str	r1, [sp]
 294              		.loc 2 27 0
 295 0008 009B     		ldr	r3, [sp]
 296 000a 0022     		movs	r2, #0
 297 000c DA80     		strh	r2, [r3, #6]	@ movhi
 298              		.loc 2 28 0
 299 000e 009B     		ldr	r3, [sp]
 300 0010 0022     		movs	r2, #0
 301 0012 9A80     		strh	r2, [r3, #4]	@ movhi
 302              		.loc 2 30 0
 303 0014 0198     		ldr	r0, [sp, #4]
 304 0016 FFF7FEFF 		bl	getpin_pressed
 305 001a 0346     		mov	r3, r0
 306 001c 002B     		cmp	r3, #0
 307 001e 24D0     		beq	.L21
 308              		.loc 2 31 0
 309 0020 009B     		ldr	r3, [sp]
 310 0022 0122     		movs	r2, #1
 311 0024 9A80     		strh	r2, [r3, #4]	@ movhi
 312              		.loc 2 33 0
 313 0026 0198     		ldr	r0, [sp, #4]
 314 0028 FFF7FEFF 		bl	aquire_bus
 315              		.loc 2 35 0
 316 002c 0198     		ldr	r0, [sp, #4]
 317 002e D121     		movs	r1, #209
 318 0030 FFF7FEFF 		bl	read_value
 319              		.loc 2 36 0
 320 0034 0198     		ldr	r0, [sp, #4]
 321 0036 D121     		movs	r1, #209
 322 0038 FFF7FEFF 		bl	read_value
 323 003c 0346     		mov	r3, r0
 324 003e 9AB2     		uxth	r2, r3
 325 0040 009B     		ldr	r3, [sp]
 326 0042 1A80     		strh	r2, [r3]	@ movhi
 327              		.loc 2 38 0
 328 0044 0198     		ldr	r0, [sp, #4]
 329 0046 9121     		movs	r1, #145
 330 0048 FFF7FEFF 		bl	read_value
 331              		.loc 2 39 0
 332 004c 0198     		ldr	r0, [sp, #4]
 333 004e 9121     		movs	r1, #145
 334 0050 FFF7FEFF 		bl	read_value
 335 0054 0346     		mov	r3, r0
 336 0056 9AB2     		uxth	r2, r3
 337 0058 009B     		ldr	r3, [sp]
 338 005a 5A80     		strh	r2, [r3, #2]	@ movhi
 339              		.loc 2 41 0
ARM GAS  /tmp/cctRKXcA.s 			page 7


 340 005c 0198     		ldr	r0, [sp, #4]
 341 005e 8021     		movs	r1, #128
 342 0060 FFF7FEFF 		bl	read_value
 343              		.loc 2 43 0
 344 0064 0198     		ldr	r0, [sp, #4]
 345 0066 FFF7FEFF 		bl	release_bus
 346              	.L21:
 347              		.loc 2 45 0
 348 006a 0123     		movs	r3, #1
 349              		.loc 2 46 0
 350 006c 1846     		mov	r0, r3
 351 006e 03B0     		add	sp, sp, #12
 352              		.cfi_def_cfa_offset 4
 353              		@ sp needed
 354 0070 5DF804FB 		ldr	pc, [sp], #4
 355              		.cfi_endproc
 356              	.LFE116:
 357              		.size	MouseXYZ, .-MouseXYZ
 358              		.global	GMOUSEVMT_OnlyOne
 359 0074 AFF30080 		.section	.rodata.GMOUSEVMT_OnlyOne,"a",%progbits
 359      AFF30080 
 359      AFF30080 
 360              		.align	2
 361              		.type	GMOUSEVMT_OnlyOne, %object
 362              		.size	GMOUSEVMT_OnlyOne, 60
 363              	GMOUSEVMT_OnlyOne:
 364 0000 6D00     		.short	109
 365 0002 5103     		.short	849
 366 0004 38000000 		.word	56
 367 0008 00000000 		.word	_gmouseInitDriver
 368 000c 00000000 		.word	_gmousePostInitDriver
 369 0010 00000000 		.word	_gmouseDeInitDriver
 370 0014 0100     		.short	1
 371 0016 0000     		.short	0
 372 0018 0100     		.short	1
 373 001a 0000     		.short	0
 374 001c 0800     		.short	8
 375 001e 0600     		.short	6
 376 0020 0400     		.short	4
 377 0022 0E00     		.short	14
 378 0024 1200     		.short	18
 379 0026 0E00     		.short	14
 380 0028 00000000 		.word	init_board
 381 002c 00000000 		.word	0
 382 0030 00000000 		.word	MouseXYZ
 383 0034 00000000 		.word	0
 384 0038 00000000 		.word	0
 385              		.section	.bss.txbuf.7958,"aw",%nobits
 386              		.align	2
 387              		.type	txbuf.7958, %object
 388              		.size	txbuf.7958, 3
 389              	txbuf.7958:
 390 0000 000000   		.space	3
 391 0003 00       		.section	.bss.rxbuf.7959,"aw",%nobits
 392              		.align	2
 393              		.type	rxbuf.7959, %object
 394              		.size	rxbuf.7959, 3
ARM GAS  /tmp/cctRKXcA.s 			page 8


 395              	rxbuf.7959:
 396 0000 000000   		.space	3
 397 0003 00       		.text
 398              	.Letext0:
 399              		.file 3 "/opt/gcc-arm-none-eabi/lib/gcc/arm-none-eabi/4.9.3/include/stddef.h"
 400              		.file 4 "/opt/gcc-arm-none-eabi/arm-none-eabi/include/machine/_default_types.h"
 401              		.file 5 "/opt/gcc-arm-none-eabi/arm-none-eabi/include/stdint.h"
 402              		.file 6 "/home/makkmarci/workspace/ChibiOS_2.6.8/os/ports/GCC/ARMCMx/chtypes.h"
 403              		.file 7 "/home/makkmarci/workspace/ChibiOS_2.6.8/os/kernel/include/chlists.h"
 404              		.file 8 "/home/makkmarci/workspace/ChibiOS_2.6.8/os/kernel/include/chthreads.h"
 405              		.file 9 "/home/makkmarci/workspace/ChibiOS_2.6.8/os/ports/GCC/ARMCMx/chcore_v7m.h"
 406              		.file 10 "/home/makkmarci/workspace/ChibiOS_2.6.8/os/kernel/include/chmtx.h"
 407              		.file 11 "/home/makkmarci/workspace/ChibiOS_2.6.8/os/hal/platforms/STM32F4xx/stm32f4xx.h"
 408              		.file 12 "/home/makkmarci/workspace/ChibiOS_2.6.8/os/hal/platforms/STM32F4xx/stm32_dma.h"
 409              		.file 13 "/home/makkmarci/workspace/ChibiOS_2.6.8/os/hal/platforms/STM32/GPIOv2/pal_lld.h"
 410              		.file 14 "/home/makkmarci/workspace/ChibiOS_2.6.8/os/hal/include/spi.h"
 411              		.file 15 "/home/makkmarci/workspace/ChibiOS_2.6.8/os/hal/platforms/STM32/SPIv1/spi_lld.h"
 412              		.file 16 "/home/makkmarci/workspace/ugfx/src/gos/gos_chibios.h"
 413              		.file 17 "/home/makkmarci/workspace/ugfx/src/gdisp/gdisp.h"
 414              		.file 18 "/home/makkmarci/workspace/ugfx/src/gdriver/gdriver.h"
 415              		.file 19 "/home/makkmarci/workspace/ugfx/src/ginput/ginput_driver_mouse.h"
 416              		.file 20 "/home/makkmarci/workspace/ChibiOS_2.6.8/os/ports/common/ARMCMx/CMSIS/include/core_cm4.h"
 417              		.section	.debug_info,"",%progbits
 418              	.Ldebug_info0:
 419 0000 170E0000 		.4byte	0xe17
 420 0004 0400     		.2byte	0x4
 421 0006 00000000 		.4byte	.Ldebug_abbrev0
 422 000a 04       		.byte	0x4
 423 000b 01       		.uleb128 0x1
 424 000c D8020000 		.4byte	.LASF175
 425 0010 01       		.byte	0x1
 426 0011 8D050000 		.4byte	.LASF176
 427 0015 00000000 		.4byte	.Ldebug_ranges0+0
 428 0019 00000000 		.4byte	0
 429 001d 00000000 		.4byte	.Ldebug_line0
 430 0021 02       		.uleb128 0x2
 431 0022 04       		.byte	0x4
 432 0023 05       		.byte	0x5
 433 0024 696E7400 		.ascii	"int\000"
 434 0028 03       		.uleb128 0x3
 435 0029 E6010000 		.4byte	.LASF2
 436 002d 03       		.byte	0x3
 437 002e D4       		.byte	0xd4
 438 002f 33000000 		.4byte	0x33
 439 0033 04       		.uleb128 0x4
 440 0034 04       		.byte	0x4
 441 0035 07       		.byte	0x7
 442 0036 24020000 		.4byte	.LASF0
 443 003a 04       		.uleb128 0x4
 444 003b 01       		.byte	0x1
 445 003c 06       		.byte	0x6
 446 003d F1000000 		.4byte	.LASF1
 447 0041 03       		.uleb128 0x3
 448 0042 34000000 		.4byte	.LASF3
 449 0046 04       		.byte	0x4
 450 0047 1D       		.byte	0x1d
 451 0048 4C000000 		.4byte	0x4c
ARM GAS  /tmp/cctRKXcA.s 			page 9


 452 004c 04       		.uleb128 0x4
 453 004d 01       		.byte	0x1
 454 004e 08       		.byte	0x8
 455 004f 1E050000 		.4byte	.LASF4
 456 0053 03       		.uleb128 0x3
 457 0054 3A070000 		.4byte	.LASF5
 458 0058 04       		.byte	0x4
 459 0059 29       		.byte	0x29
 460 005a 5E000000 		.4byte	0x5e
 461 005e 04       		.uleb128 0x4
 462 005f 02       		.byte	0x2
 463 0060 05       		.byte	0x5
 464 0061 57050000 		.4byte	.LASF6
 465 0065 03       		.uleb128 0x3
 466 0066 57060000 		.4byte	.LASF7
 467 006a 04       		.byte	0x4
 468 006b 2B       		.byte	0x2b
 469 006c 70000000 		.4byte	0x70
 470 0070 04       		.uleb128 0x4
 471 0071 02       		.byte	0x2
 472 0072 07       		.byte	0x7
 473 0073 5B020000 		.4byte	.LASF8
 474 0077 03       		.uleb128 0x3
 475 0078 9A060000 		.4byte	.LASF9
 476 007c 04       		.byte	0x4
 477 007d 3F       		.byte	0x3f
 478 007e 82000000 		.4byte	0x82
 479 0082 04       		.uleb128 0x4
 480 0083 04       		.byte	0x4
 481 0084 05       		.byte	0x5
 482 0085 41010000 		.4byte	.LASF10
 483 0089 03       		.uleb128 0x3
 484 008a B8010000 		.4byte	.LASF11
 485 008e 04       		.byte	0x4
 486 008f 41       		.byte	0x41
 487 0090 94000000 		.4byte	0x94
 488 0094 04       		.uleb128 0x4
 489 0095 04       		.byte	0x4
 490 0096 07       		.byte	0x7
 491 0097 1A060000 		.4byte	.LASF12
 492 009b 04       		.uleb128 0x4
 493 009c 08       		.byte	0x8
 494 009d 05       		.byte	0x5
 495 009e E3000000 		.4byte	.LASF13
 496 00a2 03       		.uleb128 0x3
 497 00a3 6B040000 		.4byte	.LASF14
 498 00a7 04       		.byte	0x4
 499 00a8 5B       		.byte	0x5b
 500 00a9 AD000000 		.4byte	0xad
 501 00ad 04       		.uleb128 0x4
 502 00ae 08       		.byte	0x8
 503 00af 07       		.byte	0x7
 504 00b0 66000000 		.4byte	.LASF15
 505 00b4 03       		.uleb128 0x3
 506 00b5 26070000 		.4byte	.LASF16
 507 00b9 05       		.byte	0x5
 508 00ba 15       		.byte	0x15
ARM GAS  /tmp/cctRKXcA.s 			page 10


 509 00bb 41000000 		.4byte	0x41
 510 00bf 03       		.uleb128 0x3
 511 00c0 CC000000 		.4byte	.LASF17
 512 00c4 05       		.byte	0x5
 513 00c5 20       		.byte	0x20
 514 00c6 53000000 		.4byte	0x53
 515 00ca 03       		.uleb128 0x3
 516 00cb 8F020000 		.4byte	.LASF18
 517 00cf 05       		.byte	0x5
 518 00d0 21       		.byte	0x21
 519 00d1 65000000 		.4byte	0x65
 520 00d5 03       		.uleb128 0x3
 521 00d6 16050000 		.4byte	.LASF19
 522 00da 05       		.byte	0x5
 523 00db 2C       		.byte	0x2c
 524 00dc 77000000 		.4byte	0x77
 525 00e0 03       		.uleb128 0x3
 526 00e1 F5060000 		.4byte	.LASF20
 527 00e5 05       		.byte	0x5
 528 00e6 2D       		.byte	0x2d
 529 00e7 89000000 		.4byte	0x89
 530 00eb 03       		.uleb128 0x3
 531 00ec 1D000000 		.4byte	.LASF21
 532 00f0 05       		.byte	0x5
 533 00f1 39       		.byte	0x39
 534 00f2 A2000000 		.4byte	0xa2
 535 00f6 03       		.uleb128 0x3
 536 00f7 13010000 		.4byte	.LASF22
 537 00fb 06       		.byte	0x6
 538 00fc 2B       		.byte	0x2b
 539 00fd 01010000 		.4byte	0x101
 540 0101 04       		.uleb128 0x4
 541 0102 01       		.byte	0x1
 542 0103 02       		.byte	0x2
 543 0104 FE060000 		.4byte	.LASF23
 544 0108 03       		.uleb128 0x3
 545 0109 87020000 		.4byte	.LASF24
 546 010d 06       		.byte	0x6
 547 010e 2C       		.byte	0x2c
 548 010f B4000000 		.4byte	0xb4
 549 0113 03       		.uleb128 0x3
 550 0114 4A010000 		.4byte	.LASF25
 551 0118 06       		.byte	0x6
 552 0119 2D       		.byte	0x2d
 553 011a B4000000 		.4byte	0xb4
 554 011e 03       		.uleb128 0x3
 555 011f 00000000 		.4byte	.LASF26
 556 0123 06       		.byte	0x6
 557 0124 2E       		.byte	0x2e
 558 0125 B4000000 		.4byte	0xb4
 559 0129 03       		.uleb128 0x3
 560 012a 29010000 		.4byte	.LASF27
 561 012e 06       		.byte	0x6
 562 012f 2F       		.byte	0x2f
 563 0130 B4000000 		.4byte	0xb4
 564 0134 03       		.uleb128 0x3
 565 0135 E8040000 		.4byte	.LASF28
ARM GAS  /tmp/cctRKXcA.s 			page 11


 566 0139 06       		.byte	0x6
 567 013a 30       		.byte	0x30
 568 013b E0000000 		.4byte	0xe0
 569 013f 03       		.uleb128 0x3
 570 0140 6E020000 		.4byte	.LASF29
 571 0144 06       		.byte	0x6
 572 0145 31       		.byte	0x31
 573 0146 D5000000 		.4byte	0xd5
 574 014a 03       		.uleb128 0x3
 575 014b A4020000 		.4byte	.LASF30
 576 014f 06       		.byte	0x6
 577 0150 33       		.byte	0x33
 578 0151 E0000000 		.4byte	0xe0
 579 0155 03       		.uleb128 0x3
 580 0156 85060000 		.4byte	.LASF31
 581 015a 06       		.byte	0x6
 582 015b 35       		.byte	0x35
 583 015c E0000000 		.4byte	0xe0
 584 0160 03       		.uleb128 0x3
 585 0161 12070000 		.4byte	.LASF32
 586 0165 07       		.byte	0x7
 587 0166 2A       		.byte	0x2a
 588 0167 6B010000 		.4byte	0x16b
 589 016b 05       		.uleb128 0x5
 590 016c 12070000 		.4byte	.LASF32
 591 0170 4C       		.byte	0x4c
 592 0171 08       		.byte	0x8
 593 0172 5E       		.byte	0x5e
 594 0173 74020000 		.4byte	0x274
 595 0177 06       		.uleb128 0x6
 596 0178 7E050000 		.4byte	.LASF33
 597 017c 08       		.byte	0x8
 598 017d 5F       		.byte	0x5f
 599 017e 95020000 		.4byte	0x295
 600 0182 00       		.byte	0
 601 0183 06       		.uleb128 0x6
 602 0184 C3040000 		.4byte	.LASF34
 603 0188 08       		.byte	0x8
 604 0189 61       		.byte	0x61
 605 018a 95020000 		.4byte	0x295
 606 018e 04       		.byte	0x4
 607 018f 06       		.uleb128 0x6
 608 0190 BA000000 		.4byte	.LASF35
 609 0194 08       		.byte	0x8
 610 0195 63       		.byte	0x63
 611 0196 34010000 		.4byte	0x134
 612 019a 08       		.byte	0x8
 613 019b 06       		.uleb128 0x6
 614 019c 92070000 		.4byte	.LASF36
 615 01a0 08       		.byte	0x8
 616 01a1 64       		.byte	0x64
 617 01a2 2A040000 		.4byte	0x42a
 618 01a6 0C       		.byte	0xc
 619 01a7 06       		.uleb128 0x6
 620 01a8 77010000 		.4byte	.LASF37
 621 01ac 08       		.byte	0x8
 622 01ad 66       		.byte	0x66
ARM GAS  /tmp/cctRKXcA.s 			page 12


 623 01ae 95020000 		.4byte	0x295
 624 01b2 10       		.byte	0x10
 625 01b3 06       		.uleb128 0x6
 626 01b4 2B040000 		.4byte	.LASF38
 627 01b8 08       		.byte	0x8
 628 01b9 67       		.byte	0x67
 629 01ba 95020000 		.4byte	0x295
 630 01be 14       		.byte	0x14
 631 01bf 06       		.uleb128 0x6
 632 01c0 04070000 		.4byte	.LASF39
 633 01c4 08       		.byte	0x8
 634 01c5 6E       		.byte	0x6e
 635 01c6 D3040000 		.4byte	0x4d3
 636 01ca 18       		.byte	0x18
 637 01cb 06       		.uleb128 0x6
 638 01cc 19020000 		.4byte	.LASF40
 639 01d0 08       		.byte	0x8
 640 01d1 74       		.byte	0x74
 641 01d2 E5040000 		.4byte	0x4e5
 642 01d6 1C       		.byte	0x1c
 643 01d7 06       		.uleb128 0x6
 644 01d8 45050000 		.4byte	.LASF41
 645 01dc 08       		.byte	0x8
 646 01dd 79       		.byte	0x79
 647 01de 13010000 		.4byte	0x113
 648 01e2 20       		.byte	0x20
 649 01e3 06       		.uleb128 0x6
 650 01e4 85050000 		.4byte	.LASF42
 651 01e8 08       		.byte	0x8
 652 01e9 7D       		.byte	0x7d
 653 01ea 08010000 		.4byte	0x108
 654 01ee 21       		.byte	0x21
 655 01ef 06       		.uleb128 0x6
 656 01f0 0B070000 		.4byte	.LASF43
 657 01f4 08       		.byte	0x8
 658 01f5 82       		.byte	0x82
 659 01f6 1E010000 		.4byte	0x11e
 660 01fa 22       		.byte	0x22
 661 01fb 06       		.uleb128 0x6
 662 01fc 6D050000 		.4byte	.LASF44
 663 0200 08       		.byte	0x8
 664 0201 88       		.byte	0x88
 665 0202 29010000 		.4byte	0x129
 666 0206 23       		.byte	0x23
 667 0207 06       		.uleb128 0x6
 668 0208 37020000 		.4byte	.LASF45
 669 020c 08       		.byte	0x8
 670 020d 8F       		.byte	0x8f
 671 020e 57040000 		.4byte	0x457
 672 0212 24       		.byte	0x24
 673 0213 07       		.uleb128 0x7
 674 0214 705F7500 		.ascii	"p_u\000"
 675 0218 08       		.byte	0x8
 676 0219 B4       		.byte	0xb4
 677 021a 9E040000 		.4byte	0x49e
 678 021e 28       		.byte	0x28
 679 021f 06       		.uleb128 0x6
ARM GAS  /tmp/cctRKXcA.s 			page 13


 680 0220 98070000 		.4byte	.LASF46
 681 0224 08       		.byte	0x8
 682 0225 B9       		.byte	0xb9
 683 0226 BB020000 		.4byte	0x2bb
 684 022a 2C       		.byte	0x2c
 685 022b 06       		.uleb128 0x6
 686 022c 44020000 		.4byte	.LASF47
 687 0230 08       		.byte	0x8
 688 0231 BF       		.byte	0xbf
 689 0232 9B020000 		.4byte	0x29b
 690 0236 30       		.byte	0x30
 691 0237 06       		.uleb128 0x6
 692 0238 20070000 		.4byte	.LASF48
 693 023c 08       		.byte	0x8
 694 023d C3       		.byte	0xc3
 695 023e 3F010000 		.4byte	0x13f
 696 0242 38       		.byte	0x38
 697 0243 06       		.uleb128 0x6
 698 0244 E9050000 		.4byte	.LASF49
 699 0248 08       		.byte	0x8
 700 0249 C9       		.byte	0xc9
 701 024a 4A010000 		.4byte	0x14a
 702 024e 3C       		.byte	0x3c
 703 024f 06       		.uleb128 0x6
 704 0250 4D050000 		.4byte	.LASF50
 705 0254 08       		.byte	0x8
 706 0255 D0       		.byte	0xd0
 707 0256 EB040000 		.4byte	0x4eb
 708 025a 40       		.byte	0x40
 709 025b 06       		.uleb128 0x6
 710 025c 8F060000 		.4byte	.LASF51
 711 0260 08       		.byte	0x8
 712 0261 D4       		.byte	0xd4
 713 0262 34010000 		.4byte	0x134
 714 0266 44       		.byte	0x44
 715 0267 06       		.uleb128 0x6
 716 0268 C3010000 		.4byte	.LASF52
 717 026c 08       		.byte	0x8
 718 026d DA       		.byte	0xda
 719 026e D1020000 		.4byte	0x2d1
 720 0272 48       		.byte	0x48
 721 0273 00       		.byte	0
 722 0274 08       		.uleb128 0x8
 723 0275 08       		.byte	0x8
 724 0276 07       		.byte	0x7
 725 0277 61       		.byte	0x61
 726 0278 95020000 		.4byte	0x295
 727 027c 06       		.uleb128 0x6
 728 027d 7E050000 		.4byte	.LASF33
 729 0281 07       		.byte	0x7
 730 0282 62       		.byte	0x62
 731 0283 95020000 		.4byte	0x295
 732 0287 00       		.byte	0
 733 0288 06       		.uleb128 0x6
 734 0289 C3040000 		.4byte	.LASF34
 735 028d 07       		.byte	0x7
 736 028e 64       		.byte	0x64
ARM GAS  /tmp/cctRKXcA.s 			page 14


 737 028f 95020000 		.4byte	0x295
 738 0293 04       		.byte	0x4
 739 0294 00       		.byte	0
 740 0295 09       		.uleb128 0x9
 741 0296 04       		.byte	0x4
 742 0297 60010000 		.4byte	0x160
 743 029b 03       		.uleb128 0x3
 744 029c 33040000 		.4byte	.LASF53
 745 02a0 07       		.byte	0x7
 746 02a1 66       		.byte	0x66
 747 02a2 74020000 		.4byte	0x274
 748 02a6 08       		.uleb128 0x8
 749 02a7 04       		.byte	0x4
 750 02a8 07       		.byte	0x7
 751 02a9 6B       		.byte	0x6b
 752 02aa BB020000 		.4byte	0x2bb
 753 02ae 06       		.uleb128 0x6
 754 02af 7E050000 		.4byte	.LASF33
 755 02b3 07       		.byte	0x7
 756 02b4 6D       		.byte	0x6d
 757 02b5 95020000 		.4byte	0x295
 758 02b9 00       		.byte	0
 759 02ba 00       		.byte	0
 760 02bb 03       		.uleb128 0x3
 761 02bc 98020000 		.4byte	.LASF54
 762 02c0 07       		.byte	0x7
 763 02c1 70       		.byte	0x70
 764 02c2 A6020000 		.4byte	0x2a6
 765 02c6 03       		.uleb128 0x3
 766 02c7 CB010000 		.4byte	.LASF55
 767 02cb 09       		.byte	0x9
 768 02cc E5       		.byte	0xe5
 769 02cd D1020000 		.4byte	0x2d1
 770 02d1 0A       		.uleb128 0xa
 771 02d2 04       		.byte	0x4
 772 02d3 03       		.uleb128 0x3
 773 02d4 BE020000 		.4byte	.LASF56
 774 02d8 09       		.byte	0x9
 775 02d9 EB       		.byte	0xeb
 776 02da EB000000 		.4byte	0xeb
 777 02de 0B       		.uleb128 0xb
 778 02df D6060000 		.4byte	.LASF57
 779 02e3 64       		.byte	0x64
 780 02e4 09       		.byte	0x9
 781 02e5 0C01     		.2byte	0x10c
 782 02e7 2A040000 		.4byte	0x42a
 783 02eb 0C       		.uleb128 0xc
 784 02ec 73313600 		.ascii	"s16\000"
 785 02f0 09       		.byte	0x9
 786 02f1 0E01     		.2byte	0x10e
 787 02f3 C6020000 		.4byte	0x2c6
 788 02f7 00       		.byte	0
 789 02f8 0C       		.uleb128 0xc
 790 02f9 73313700 		.ascii	"s17\000"
 791 02fd 09       		.byte	0x9
 792 02fe 0F01     		.2byte	0x10f
 793 0300 C6020000 		.4byte	0x2c6
ARM GAS  /tmp/cctRKXcA.s 			page 15


 794 0304 04       		.byte	0x4
 795 0305 0C       		.uleb128 0xc
 796 0306 73313800 		.ascii	"s18\000"
 797 030a 09       		.byte	0x9
 798 030b 1001     		.2byte	0x110
 799 030d C6020000 		.4byte	0x2c6
 800 0311 08       		.byte	0x8
 801 0312 0C       		.uleb128 0xc
 802 0313 73313900 		.ascii	"s19\000"
 803 0317 09       		.byte	0x9
 804 0318 1101     		.2byte	0x111
 805 031a C6020000 		.4byte	0x2c6
 806 031e 0C       		.byte	0xc
 807 031f 0C       		.uleb128 0xc
 808 0320 73323000 		.ascii	"s20\000"
 809 0324 09       		.byte	0x9
 810 0325 1201     		.2byte	0x112
 811 0327 C6020000 		.4byte	0x2c6
 812 032b 10       		.byte	0x10
 813 032c 0C       		.uleb128 0xc
 814 032d 73323100 		.ascii	"s21\000"
 815 0331 09       		.byte	0x9
 816 0332 1301     		.2byte	0x113
 817 0334 C6020000 		.4byte	0x2c6
 818 0338 14       		.byte	0x14
 819 0339 0C       		.uleb128 0xc
 820 033a 73323200 		.ascii	"s22\000"
 821 033e 09       		.byte	0x9
 822 033f 1401     		.2byte	0x114
 823 0341 C6020000 		.4byte	0x2c6
 824 0345 18       		.byte	0x18
 825 0346 0C       		.uleb128 0xc
 826 0347 73323300 		.ascii	"s23\000"
 827 034b 09       		.byte	0x9
 828 034c 1501     		.2byte	0x115
 829 034e C6020000 		.4byte	0x2c6
 830 0352 1C       		.byte	0x1c
 831 0353 0C       		.uleb128 0xc
 832 0354 73323400 		.ascii	"s24\000"
 833 0358 09       		.byte	0x9
 834 0359 1601     		.2byte	0x116
 835 035b C6020000 		.4byte	0x2c6
 836 035f 20       		.byte	0x20
 837 0360 0C       		.uleb128 0xc
 838 0361 73323500 		.ascii	"s25\000"
 839 0365 09       		.byte	0x9
 840 0366 1701     		.2byte	0x117
 841 0368 C6020000 		.4byte	0x2c6
 842 036c 24       		.byte	0x24
 843 036d 0C       		.uleb128 0xc
 844 036e 73323600 		.ascii	"s26\000"
 845 0372 09       		.byte	0x9
 846 0373 1801     		.2byte	0x118
 847 0375 C6020000 		.4byte	0x2c6
 848 0379 28       		.byte	0x28
 849 037a 0C       		.uleb128 0xc
 850 037b 73323700 		.ascii	"s27\000"
ARM GAS  /tmp/cctRKXcA.s 			page 16


 851 037f 09       		.byte	0x9
 852 0380 1901     		.2byte	0x119
 853 0382 C6020000 		.4byte	0x2c6
 854 0386 2C       		.byte	0x2c
 855 0387 0C       		.uleb128 0xc
 856 0388 73323800 		.ascii	"s28\000"
 857 038c 09       		.byte	0x9
 858 038d 1A01     		.2byte	0x11a
 859 038f C6020000 		.4byte	0x2c6
 860 0393 30       		.byte	0x30
 861 0394 0C       		.uleb128 0xc
 862 0395 73323900 		.ascii	"s29\000"
 863 0399 09       		.byte	0x9
 864 039a 1B01     		.2byte	0x11b
 865 039c C6020000 		.4byte	0x2c6
 866 03a0 34       		.byte	0x34
 867 03a1 0C       		.uleb128 0xc
 868 03a2 73333000 		.ascii	"s30\000"
 869 03a6 09       		.byte	0x9
 870 03a7 1C01     		.2byte	0x11c
 871 03a9 C6020000 		.4byte	0x2c6
 872 03ad 38       		.byte	0x38
 873 03ae 0C       		.uleb128 0xc
 874 03af 73333100 		.ascii	"s31\000"
 875 03b3 09       		.byte	0x9
 876 03b4 1D01     		.2byte	0x11d
 877 03b6 C6020000 		.4byte	0x2c6
 878 03ba 3C       		.byte	0x3c
 879 03bb 0C       		.uleb128 0xc
 880 03bc 723400   		.ascii	"r4\000"
 881 03bf 09       		.byte	0x9
 882 03c0 1F01     		.2byte	0x11f
 883 03c2 C6020000 		.4byte	0x2c6
 884 03c6 40       		.byte	0x40
 885 03c7 0C       		.uleb128 0xc
 886 03c8 723500   		.ascii	"r5\000"
 887 03cb 09       		.byte	0x9
 888 03cc 2001     		.2byte	0x120
 889 03ce C6020000 		.4byte	0x2c6
 890 03d2 44       		.byte	0x44
 891 03d3 0C       		.uleb128 0xc
 892 03d4 723600   		.ascii	"r6\000"
 893 03d7 09       		.byte	0x9
 894 03d8 2101     		.2byte	0x121
 895 03da C6020000 		.4byte	0x2c6
 896 03de 48       		.byte	0x48
 897 03df 0C       		.uleb128 0xc
 898 03e0 723700   		.ascii	"r7\000"
 899 03e3 09       		.byte	0x9
 900 03e4 2201     		.2byte	0x122
 901 03e6 C6020000 		.4byte	0x2c6
 902 03ea 4C       		.byte	0x4c
 903 03eb 0C       		.uleb128 0xc
 904 03ec 723800   		.ascii	"r8\000"
 905 03ef 09       		.byte	0x9
 906 03f0 2301     		.2byte	0x123
 907 03f2 C6020000 		.4byte	0x2c6
ARM GAS  /tmp/cctRKXcA.s 			page 17


 908 03f6 50       		.byte	0x50
 909 03f7 0C       		.uleb128 0xc
 910 03f8 723900   		.ascii	"r9\000"
 911 03fb 09       		.byte	0x9
 912 03fc 2401     		.2byte	0x124
 913 03fe C6020000 		.4byte	0x2c6
 914 0402 54       		.byte	0x54
 915 0403 0C       		.uleb128 0xc
 916 0404 72313000 		.ascii	"r10\000"
 917 0408 09       		.byte	0x9
 918 0409 2501     		.2byte	0x125
 919 040b C6020000 		.4byte	0x2c6
 920 040f 58       		.byte	0x58
 921 0410 0C       		.uleb128 0xc
 922 0411 72313100 		.ascii	"r11\000"
 923 0415 09       		.byte	0x9
 924 0416 2601     		.2byte	0x126
 925 0418 C6020000 		.4byte	0x2c6
 926 041c 5C       		.byte	0x5c
 927 041d 0C       		.uleb128 0xc
 928 041e 6C7200   		.ascii	"lr\000"
 929 0421 09       		.byte	0x9
 930 0422 2701     		.2byte	0x127
 931 0424 C6020000 		.4byte	0x2c6
 932 0428 60       		.byte	0x60
 933 0429 00       		.byte	0
 934 042a 0B       		.uleb128 0xb
 935 042b CE060000 		.4byte	.LASF58
 936 042f 04       		.byte	0x4
 937 0430 09       		.byte	0x9
 938 0431 3101     		.2byte	0x131
 939 0433 45040000 		.4byte	0x445
 940 0437 0C       		.uleb128 0xc
 941 0438 72313300 		.ascii	"r13\000"
 942 043c 09       		.byte	0x9
 943 043d 3201     		.2byte	0x132
 944 043f 45040000 		.4byte	0x445
 945 0443 00       		.byte	0
 946 0444 00       		.byte	0
 947 0445 09       		.uleb128 0x9
 948 0446 04       		.byte	0x4
 949 0447 DE020000 		.4byte	0x2de
 950 044b 0D       		.uleb128 0xd
 951 044c E0000000 		.4byte	0xe0
 952 0450 04       		.uleb128 0x4
 953 0451 04       		.byte	0x4
 954 0452 07       		.byte	0x7
 955 0453 CF020000 		.4byte	.LASF59
 956 0457 0D       		.uleb128 0xd
 957 0458 55010000 		.4byte	0x155
 958 045c 05       		.uleb128 0x5
 959 045d FF030000 		.4byte	.LASF60
 960 0461 10       		.byte	0x10
 961 0462 0A       		.byte	0xa
 962 0463 2C       		.byte	0x2c
 963 0464 8D040000 		.4byte	0x48d
 964 0468 06       		.uleb128 0x6
ARM GAS  /tmp/cctRKXcA.s 			page 18


 965 0469 1A010000 		.4byte	.LASF61
 966 046d 0A       		.byte	0xa
 967 046e 2D       		.byte	0x2d
 968 046f 9B020000 		.4byte	0x29b
 969 0473 00       		.byte	0
 970 0474 06       		.uleb128 0x6
 971 0475 84070000 		.4byte	.LASF62
 972 0479 0A       		.byte	0xa
 973 047a 2F       		.byte	0x2f
 974 047b 95020000 		.4byte	0x295
 975 047f 08       		.byte	0x8
 976 0480 06       		.uleb128 0x6
 977 0481 7E060000 		.4byte	.LASF63
 978 0485 0A       		.byte	0xa
 979 0486 31       		.byte	0x31
 980 0487 8D040000 		.4byte	0x48d
 981 048b 0C       		.byte	0xc
 982 048c 00       		.byte	0
 983 048d 09       		.uleb128 0x9
 984 048e 04       		.byte	0x4
 985 048f 5C040000 		.4byte	0x45c
 986 0493 03       		.uleb128 0x3
 987 0494 FF030000 		.4byte	.LASF60
 988 0498 0A       		.byte	0xa
 989 0499 33       		.byte	0x33
 990 049a 5C040000 		.4byte	0x45c
 991 049e 0E       		.uleb128 0xe
 992 049f 04       		.byte	0x4
 993 04a0 08       		.byte	0x8
 994 04a1 96       		.byte	0x96
 995 04a2 D3040000 		.4byte	0x4d3
 996 04a6 0F       		.uleb128 0xf
 997 04a7 16000000 		.4byte	.LASF64
 998 04ab 08       		.byte	0x8
 999 04ac 9D       		.byte	0x9d
 1000 04ad 3F010000 		.4byte	0x13f
 1001 04b1 0F       		.uleb128 0xf
 1002 04b2 8D000000 		.4byte	.LASF65
 1003 04b6 08       		.byte	0x8
 1004 04b7 A4       		.byte	0xa4
 1005 04b8 3F010000 		.4byte	0x13f
 1006 04bc 0F       		.uleb128 0xf
 1007 04bd 22010000 		.4byte	.LASF66
 1008 04c1 08       		.byte	0x8
 1009 04c2 AB       		.byte	0xab
 1010 04c3 D1020000 		.4byte	0x2d1
 1011 04c7 0F       		.uleb128 0xf
 1012 04c8 77050000 		.4byte	.LASF67
 1013 04cc 08       		.byte	0x8
 1014 04cd B2       		.byte	0xb2
 1015 04ce 4A010000 		.4byte	0x14a
 1016 04d2 00       		.byte	0
 1017 04d3 09       		.uleb128 0x9
 1018 04d4 04       		.byte	0x4
 1019 04d5 D9040000 		.4byte	0x4d9
 1020 04d9 10       		.uleb128 0x10
 1021 04da DE040000 		.4byte	0x4de
ARM GAS  /tmp/cctRKXcA.s 			page 19


 1022 04de 04       		.uleb128 0x4
 1023 04df 01       		.byte	0x1
 1024 04e0 08       		.byte	0x8
 1025 04e1 37060000 		.4byte	.LASF68
 1026 04e5 09       		.uleb128 0x9
 1027 04e6 04       		.byte	0x4
 1028 04e7 D3020000 		.4byte	0x2d3
 1029 04eb 09       		.uleb128 0x9
 1030 04ec 04       		.byte	0x4
 1031 04ed 93040000 		.4byte	0x493
 1032 04f1 0D       		.uleb128 0xd
 1033 04f2 CA000000 		.4byte	0xca
 1034 04f6 0D       		.uleb128 0xd
 1035 04f7 D5000000 		.4byte	0xd5
 1036 04fb 11       		.uleb128 0x11
 1037 04fc 18       		.byte	0x18
 1038 04fd 0B       		.byte	0xb
 1039 04fe B102     		.2byte	0x2b1
 1040 0500 52050000 		.4byte	0x552
 1041 0504 0C       		.uleb128 0xc
 1042 0505 435200   		.ascii	"CR\000"
 1043 0508 0B       		.byte	0xb
 1044 0509 B302     		.2byte	0x2b3
 1045 050b 4B040000 		.4byte	0x44b
 1046 050f 00       		.byte	0
 1047 0510 12       		.uleb128 0x12
 1048 0511 AB060000 		.4byte	.LASF69
 1049 0515 0B       		.byte	0xb
 1050 0516 B402     		.2byte	0x2b4
 1051 0518 4B040000 		.4byte	0x44b
 1052 051c 04       		.byte	0x4
 1053 051d 0C       		.uleb128 0xc
 1054 051e 50415200 		.ascii	"PAR\000"
 1055 0522 0B       		.byte	0xb
 1056 0523 B502     		.2byte	0x2b5
 1057 0525 4B040000 		.4byte	0x44b
 1058 0529 08       		.byte	0x8
 1059 052a 12       		.uleb128 0x12
 1060 052b 08000000 		.4byte	.LASF70
 1061 052f 0B       		.byte	0xb
 1062 0530 B602     		.2byte	0x2b6
 1063 0532 4B040000 		.4byte	0x44b
 1064 0536 0C       		.byte	0xc
 1065 0537 12       		.uleb128 0x12
 1066 0538 DD060000 		.4byte	.LASF71
 1067 053c 0B       		.byte	0xb
 1068 053d B702     		.2byte	0x2b7
 1069 053f 4B040000 		.4byte	0x44b
 1070 0543 10       		.byte	0x10
 1071 0544 0C       		.uleb128 0xc
 1072 0545 46435200 		.ascii	"FCR\000"
 1073 0549 0B       		.byte	0xb
 1074 054a B802     		.2byte	0x2b8
 1075 054c 4B040000 		.4byte	0x44b
 1076 0550 14       		.byte	0x14
 1077 0551 00       		.byte	0
 1078 0552 13       		.uleb128 0x13
ARM GAS  /tmp/cctRKXcA.s 			page 20


 1079 0553 B0060000 		.4byte	.LASF72
 1080 0557 0B       		.byte	0xb
 1081 0558 B902     		.2byte	0x2b9
 1082 055a FB040000 		.4byte	0x4fb
 1083 055e 11       		.uleb128 0x11
 1084 055f 24       		.byte	0x24
 1085 0560 0B       		.byte	0xb
 1086 0561 E304     		.2byte	0x4e3
 1087 0563 50060000 		.4byte	0x650
 1088 0567 0C       		.uleb128 0xc
 1089 0568 43523100 		.ascii	"CR1\000"
 1090 056c 0B       		.byte	0xb
 1091 056d E504     		.2byte	0x4e5
 1092 056f F1040000 		.4byte	0x4f1
 1093 0573 00       		.byte	0
 1094 0574 12       		.uleb128 0x12
 1095 0575 91040000 		.4byte	.LASF73
 1096 0579 0B       		.byte	0xb
 1097 057a E604     		.2byte	0x4e6
 1098 057c CA000000 		.4byte	0xca
 1099 0580 02       		.byte	0x2
 1100 0581 0C       		.uleb128 0xc
 1101 0582 43523200 		.ascii	"CR2\000"
 1102 0586 0B       		.byte	0xb
 1103 0587 E704     		.2byte	0x4e7
 1104 0589 F1040000 		.4byte	0x4f1
 1105 058d 04       		.byte	0x4
 1106 058e 12       		.uleb128 0x12
 1107 058f 9B040000 		.4byte	.LASF74
 1108 0593 0B       		.byte	0xb
 1109 0594 E804     		.2byte	0x4e8
 1110 0596 CA000000 		.4byte	0xca
 1111 059a 06       		.byte	0x6
 1112 059b 0C       		.uleb128 0xc
 1113 059c 535200   		.ascii	"SR\000"
 1114 059f 0B       		.byte	0xb
 1115 05a0 E904     		.2byte	0x4e9
 1116 05a2 F1040000 		.4byte	0x4f1
 1117 05a6 08       		.byte	0x8
 1118 05a7 12       		.uleb128 0x12
 1119 05a8 A5040000 		.4byte	.LASF75
 1120 05ac 0B       		.byte	0xb
 1121 05ad EA04     		.2byte	0x4ea
 1122 05af CA000000 		.4byte	0xca
 1123 05b3 0A       		.byte	0xa
 1124 05b4 0C       		.uleb128 0xc
 1125 05b5 445200   		.ascii	"DR\000"
 1126 05b8 0B       		.byte	0xb
 1127 05b9 EB04     		.2byte	0x4eb
 1128 05bb F1040000 		.4byte	0x4f1
 1129 05bf 0C       		.byte	0xc
 1130 05c0 12       		.uleb128 0x12
 1131 05c1 AF040000 		.4byte	.LASF76
 1132 05c5 0B       		.byte	0xb
 1133 05c6 EC04     		.2byte	0x4ec
 1134 05c8 CA000000 		.4byte	0xca
 1135 05cc 0E       		.byte	0xe
ARM GAS  /tmp/cctRKXcA.s 			page 21


 1136 05cd 12       		.uleb128 0x12
 1137 05ce 81040000 		.4byte	.LASF77
 1138 05d2 0B       		.byte	0xb
 1139 05d3 ED04     		.2byte	0x4ed
 1140 05d5 F1040000 		.4byte	0x4f1
 1141 05d9 10       		.byte	0x10
 1142 05da 12       		.uleb128 0x12
 1143 05db B9040000 		.4byte	.LASF78
 1144 05df 0B       		.byte	0xb
 1145 05e0 EE04     		.2byte	0x4ee
 1146 05e2 CA000000 		.4byte	0xca
 1147 05e6 12       		.byte	0x12
 1148 05e7 12       		.uleb128 0x12
 1149 05e8 19070000 		.4byte	.LASF79
 1150 05ec 0B       		.byte	0xb
 1151 05ed EF04     		.2byte	0x4ef
 1152 05ef F1040000 		.4byte	0x4f1
 1153 05f3 14       		.byte	0x14
 1154 05f4 12       		.uleb128 0x12
 1155 05f5 FA050000 		.4byte	.LASF80
 1156 05f9 0B       		.byte	0xb
 1157 05fa F004     		.2byte	0x4f0
 1158 05fc CA000000 		.4byte	0xca
 1159 0600 16       		.byte	0x16
 1160 0601 12       		.uleb128 0x12
 1161 0602 50060000 		.4byte	.LASF81
 1162 0606 0B       		.byte	0xb
 1163 0607 F104     		.2byte	0x4f1
 1164 0609 F1040000 		.4byte	0x4f1
 1165 060d 18       		.byte	0x18
 1166 060e 12       		.uleb128 0x12
 1167 060f CA040000 		.4byte	.LASF82
 1168 0613 0B       		.byte	0xb
 1169 0614 F204     		.2byte	0x4f2
 1170 0616 CA000000 		.4byte	0xca
 1171 061a 1A       		.byte	0x1a
 1172 061b 12       		.uleb128 0x12
 1173 061c 0B010000 		.4byte	.LASF83
 1174 0620 0B       		.byte	0xb
 1175 0621 F304     		.2byte	0x4f3
 1176 0623 F1040000 		.4byte	0x4f1
 1177 0627 1C       		.byte	0x1c
 1178 0628 12       		.uleb128 0x12
 1179 0629 D4040000 		.4byte	.LASF84
 1180 062d 0B       		.byte	0xb
 1181 062e F404     		.2byte	0x4f4
 1182 0630 CA000000 		.4byte	0xca
 1183 0634 1E       		.byte	0x1e
 1184 0635 12       		.uleb128 0x12
 1185 0636 C9020000 		.4byte	.LASF85
 1186 063a 0B       		.byte	0xb
 1187 063b F504     		.2byte	0x4f5
 1188 063d F1040000 		.4byte	0x4f1
 1189 0641 20       		.byte	0x20
 1190 0642 12       		.uleb128 0x12
 1191 0643 DE040000 		.4byte	.LASF86
 1192 0647 0B       		.byte	0xb
ARM GAS  /tmp/cctRKXcA.s 			page 22


 1193 0648 F604     		.2byte	0x4f6
 1194 064a CA000000 		.4byte	0xca
 1195 064e 22       		.byte	0x22
 1196 064f 00       		.byte	0
 1197 0650 13       		.uleb128 0x13
 1198 0651 61010000 		.4byte	.LASF87
 1199 0655 0B       		.byte	0xb
 1200 0656 F704     		.2byte	0x4f7
 1201 0658 5E050000 		.4byte	0x55e
 1202 065c 08       		.uleb128 0x8
 1203 065d 0C       		.byte	0xc
 1204 065e 0C       		.byte	0xc
 1205 065f DA       		.byte	0xda
 1206 0660 A1060000 		.4byte	0x6a1
 1207 0664 06       		.uleb128 0x6
 1208 0665 53000000 		.4byte	.LASF88
 1209 0669 0C       		.byte	0xc
 1210 066a DB       		.byte	0xdb
 1211 066b A1060000 		.4byte	0x6a1
 1212 066f 00       		.byte	0
 1213 0670 06       		.uleb128 0x6
 1214 0671 8C040000 		.4byte	.LASF89
 1215 0675 0C       		.byte	0xc
 1216 0676 DC       		.byte	0xdc
 1217 0677 A7060000 		.4byte	0x6a7
 1218 067b 04       		.byte	0x4
 1219 067c 06       		.uleb128 0x6
 1220 067d 54020000 		.4byte	.LASF90
 1221 0681 0C       		.byte	0xc
 1222 0682 DD       		.byte	0xdd
 1223 0683 B4000000 		.4byte	0xb4
 1224 0687 08       		.byte	0x8
 1225 0688 06       		.uleb128 0x6
 1226 0689 D4010000 		.4byte	.LASF91
 1227 068d 0C       		.byte	0xc
 1228 068e DF       		.byte	0xdf
 1229 068f B4000000 		.4byte	0xb4
 1230 0693 09       		.byte	0x9
 1231 0694 06       		.uleb128 0x6
 1232 0695 26000000 		.4byte	.LASF92
 1233 0699 0C       		.byte	0xc
 1234 069a E0       		.byte	0xe0
 1235 069b B4000000 		.4byte	0xb4
 1236 069f 0A       		.byte	0xa
 1237 06a0 00       		.byte	0
 1238 06a1 09       		.uleb128 0x9
 1239 06a2 04       		.byte	0x4
 1240 06a3 52050000 		.4byte	0x552
 1241 06a7 09       		.uleb128 0x9
 1242 06a8 04       		.byte	0x4
 1243 06a9 4B040000 		.4byte	0x44b
 1244 06ad 03       		.uleb128 0x3
 1245 06ae 2C050000 		.4byte	.LASF93
 1246 06b2 0C       		.byte	0xc
 1247 06b3 E1       		.byte	0xe1
 1248 06b4 5C060000 		.4byte	0x65c
 1249 06b8 08       		.uleb128 0x8
ARM GAS  /tmp/cctRKXcA.s 			page 23


 1250 06b9 04       		.byte	0x4
 1251 06ba 0D       		.byte	0xd
 1252 06bb 96       		.byte	0x96
 1253 06bc D9060000 		.4byte	0x6d9
 1254 06c0 07       		.uleb128 0x7
 1255 06c1 73657400 		.ascii	"set\000"
 1256 06c5 0D       		.byte	0xd
 1257 06c6 97       		.byte	0x97
 1258 06c7 CA000000 		.4byte	0xca
 1259 06cb 00       		.byte	0
 1260 06cc 06       		.uleb128 0x6
 1261 06cd F4050000 		.4byte	.LASF94
 1262 06d1 0D       		.byte	0xd
 1263 06d2 98       		.byte	0x98
 1264 06d3 CA000000 		.4byte	0xca
 1265 06d7 02       		.byte	0x2
 1266 06d8 00       		.byte	0
 1267 06d9 0E       		.uleb128 0xe
 1268 06da 04       		.byte	0x4
 1269 06db 0D       		.byte	0xd
 1270 06dc 94       		.byte	0x94
 1271 06dd F4060000 		.4byte	0x6f4
 1272 06e1 14       		.uleb128 0x14
 1273 06e2 5700     		.ascii	"W\000"
 1274 06e4 0D       		.byte	0xd
 1275 06e5 95       		.byte	0x95
 1276 06e6 E0000000 		.4byte	0xe0
 1277 06ea 14       		.uleb128 0x14
 1278 06eb 4800     		.ascii	"H\000"
 1279 06ed 0D       		.byte	0xd
 1280 06ee 99       		.byte	0x99
 1281 06ef B8060000 		.4byte	0x6b8
 1282 06f3 00       		.byte	0
 1283 06f4 08       		.uleb128 0x8
 1284 06f5 28       		.byte	0x28
 1285 06f6 0D       		.byte	0xd
 1286 06f7 8C       		.byte	0x8c
 1287 06f8 75070000 		.4byte	0x775
 1288 06fc 06       		.uleb128 0x6
 1289 06fd 60000000 		.4byte	.LASF95
 1290 0701 0D       		.byte	0xd
 1291 0702 8E       		.byte	0x8e
 1292 0703 4B040000 		.4byte	0x44b
 1293 0707 00       		.byte	0
 1294 0708 06       		.uleb128 0x6
 1295 0709 2D000000 		.4byte	.LASF96
 1296 070d 0D       		.byte	0xd
 1297 070e 8F       		.byte	0x8f
 1298 070f 4B040000 		.4byte	0x44b
 1299 0713 04       		.byte	0x4
 1300 0714 06       		.uleb128 0x6
 1301 0715 B0010000 		.4byte	.LASF97
 1302 0719 0D       		.byte	0xd
 1303 071a 90       		.byte	0x90
 1304 071b 4B040000 		.4byte	0x44b
 1305 071f 08       		.byte	0x8
 1306 0720 06       		.uleb128 0x6
ARM GAS  /tmp/cctRKXcA.s 			page 24


 1307 0721 87000000 		.4byte	.LASF98
 1308 0725 0D       		.byte	0xd
 1309 0726 91       		.byte	0x91
 1310 0727 4B040000 		.4byte	0x44b
 1311 072b 0C       		.byte	0xc
 1312 072c 07       		.uleb128 0x7
 1313 072d 49445200 		.ascii	"IDR\000"
 1314 0731 0D       		.byte	0xd
 1315 0732 92       		.byte	0x92
 1316 0733 4B040000 		.4byte	0x44b
 1317 0737 10       		.byte	0x10
 1318 0738 07       		.uleb128 0x7
 1319 0739 4F445200 		.ascii	"ODR\000"
 1320 073d 0D       		.byte	0xd
 1321 073e 93       		.byte	0x93
 1322 073f 4B040000 		.4byte	0x44b
 1323 0743 14       		.byte	0x14
 1324 0744 06       		.uleb128 0x6
 1325 0745 FD000000 		.4byte	.LASF99
 1326 0749 0D       		.byte	0xd
 1327 074a 9A       		.byte	0x9a
 1328 074b 75070000 		.4byte	0x775
 1329 074f 18       		.byte	0x18
 1330 0750 06       		.uleb128 0x6
 1331 0751 4F020000 		.4byte	.LASF100
 1332 0755 0D       		.byte	0xd
 1333 0756 9B       		.byte	0x9b
 1334 0757 4B040000 		.4byte	0x44b
 1335 075b 1C       		.byte	0x1c
 1336 075c 06       		.uleb128 0x6
 1337 075d 87040000 		.4byte	.LASF101
 1338 0761 0D       		.byte	0xd
 1339 0762 9C       		.byte	0x9c
 1340 0763 4B040000 		.4byte	0x44b
 1341 0767 20       		.byte	0x20
 1342 0768 06       		.uleb128 0x6
 1343 0769 76040000 		.4byte	.LASF102
 1344 076d 0D       		.byte	0xd
 1345 076e 9D       		.byte	0x9d
 1346 076f 4B040000 		.4byte	0x44b
 1347 0773 24       		.byte	0x24
 1348 0774 00       		.byte	0
 1349 0775 0D       		.uleb128 0xd
 1350 0776 D9060000 		.4byte	0x6d9
 1351 077a 03       		.uleb128 0x3
 1352 077b 90010000 		.4byte	.LASF103
 1353 077f 0D       		.byte	0xd
 1354 0780 9E       		.byte	0x9e
 1355 0781 F4060000 		.4byte	0x6f4
 1356 0785 03       		.uleb128 0x3
 1357 0786 0F040000 		.4byte	.LASF104
 1358 078a 0D       		.byte	0xd
 1359 078b F0       		.byte	0xf0
 1360 078c E0000000 		.4byte	0xe0
 1361 0790 03       		.uleb128 0x3
 1362 0791 C3060000 		.4byte	.LASF105
 1363 0795 0D       		.byte	0xd
ARM GAS  /tmp/cctRKXcA.s 			page 25


 1364 0796 FD       		.byte	0xfd
 1365 0797 9B070000 		.4byte	0x79b
 1366 079b 09       		.uleb128 0x9
 1367 079c 04       		.byte	0x4
 1368 079d 7A070000 		.4byte	0x77a
 1369 07a1 09       		.uleb128 0x9
 1370 07a2 04       		.byte	0x4
 1371 07a3 A7070000 		.4byte	0x7a7
 1372 07a7 10       		.uleb128 0x10
 1373 07a8 AD060000 		.4byte	0x6ad
 1374 07ac 15       		.uleb128 0x15
 1375 07ad 01       		.byte	0x1
 1376 07ae 0E       		.byte	0xe
 1377 07af 55       		.byte	0x55
 1378 07b0 D3070000 		.4byte	0x7d3
 1379 07b4 16       		.uleb128 0x16
 1380 07b5 E2060000 		.4byte	.LASF106
 1381 07b9 00       		.sleb128 0
 1382 07ba 16       		.uleb128 0x16
 1383 07bb 02010000 		.4byte	.LASF107
 1384 07bf 01       		.sleb128 1
 1385 07c0 16       		.uleb128 0x16
 1386 07c1 7D000000 		.4byte	.LASF108
 1387 07c5 02       		.sleb128 2
 1388 07c6 16       		.uleb128 0x16
 1389 07c7 3E000000 		.4byte	.LASF109
 1390 07cb 03       		.sleb128 3
 1391 07cc 16       		.uleb128 0x16
 1392 07cd 3C060000 		.4byte	.LASF110
 1393 07d1 04       		.sleb128 4
 1394 07d2 00       		.byte	0
 1395 07d3 03       		.uleb128 0x3
 1396 07d4 73060000 		.4byte	.LASF111
 1397 07d8 0E       		.byte	0xe
 1398 07d9 5B       		.byte	0x5b
 1399 07da AC070000 		.4byte	0x7ac
 1400 07de 13       		.uleb128 0x13
 1401 07df 96000000 		.4byte	.LASF112
 1402 07e3 0F       		.byte	0xf
 1403 07e4 E701     		.2byte	0x1e7
 1404 07e6 EA070000 		.4byte	0x7ea
 1405 07ea 0B       		.uleb128 0xb
 1406 07eb 96000000 		.4byte	.LASF112
 1407 07ef 30       		.byte	0x30
 1408 07f0 0F       		.byte	0xf
 1409 07f1 0B02     		.2byte	0x20b
 1410 07f3 6D080000 		.4byte	0x86d
 1411 07f7 12       		.uleb128 0x12
 1412 07f8 33010000 		.4byte	.LASF113
 1413 07fc 0F       		.byte	0xf
 1414 07fd 0F02     		.2byte	0x20f
 1415 07ff D3070000 		.4byte	0x7d3
 1416 0803 00       		.byte	0
 1417 0804 12       		.uleb128 0x12
 1418 0805 49060000 		.4byte	.LASF114
 1419 0809 0F       		.byte	0xf
 1420 080a 1302     		.2byte	0x213
ARM GAS  /tmp/cctRKXcA.s 			page 26


 1421 080c DA080000 		.4byte	0x8da
 1422 0810 04       		.byte	0x4
 1423 0811 12       		.uleb128 0x12
 1424 0812 A4060000 		.4byte	.LASF115
 1425 0816 0F       		.byte	0xf
 1426 0817 1802     		.2byte	0x218
 1427 0819 95020000 		.4byte	0x295
 1428 081d 08       		.byte	0x8
 1429 081e 12       		.uleb128 0x12
 1430 081f F0040000 		.4byte	.LASF116
 1431 0823 0F       		.byte	0xf
 1432 0824 1F02     		.2byte	0x21f
 1433 0826 93040000 		.4byte	0x493
 1434 082a 0C       		.byte	0xc
 1435 082b 0C       		.uleb128 0xc
 1436 082c 73706900 		.ascii	"spi\000"
 1437 0830 0F       		.byte	0xf
 1438 0831 2B02     		.2byte	0x22b
 1439 0833 E5080000 		.4byte	0x8e5
 1440 0837 1C       		.byte	0x1c
 1441 0838 12       		.uleb128 0x12
 1442 0839 5A000000 		.4byte	.LASF117
 1443 083d 0F       		.byte	0xf
 1444 083e 2F02     		.2byte	0x22f
 1445 0840 A1070000 		.4byte	0x7a1
 1446 0844 20       		.byte	0x20
 1447 0845 12       		.uleb128 0x12
 1448 0846 AA010000 		.4byte	.LASF118
 1449 084a 0F       		.byte	0xf
 1450 084b 3302     		.2byte	0x233
 1451 084d A1070000 		.4byte	0x7a1
 1452 0851 24       		.byte	0x24
 1453 0852 12       		.uleb128 0x12
 1454 0853 86010000 		.4byte	.LASF119
 1455 0857 0F       		.byte	0xf
 1456 0858 3702     		.2byte	0x237
 1457 085a E0000000 		.4byte	0xe0
 1458 085e 28       		.byte	0x28
 1459 085f 12       		.uleb128 0x12
 1460 0860 40040000 		.4byte	.LASF120
 1461 0864 0F       		.byte	0xf
 1462 0865 3B02     		.2byte	0x23b
 1463 0867 E0000000 		.4byte	0xe0
 1464 086b 2C       		.byte	0x2c
 1465 086c 00       		.byte	0
 1466 086d 13       		.uleb128 0x13
 1467 086e ED010000 		.4byte	.LASF121
 1468 0872 0F       		.byte	0xf
 1469 0873 EF01     		.2byte	0x1ef
 1470 0875 79080000 		.4byte	0x879
 1471 0879 09       		.uleb128 0x9
 1472 087a 04       		.byte	0x4
 1473 087b 7F080000 		.4byte	0x87f
 1474 087f 17       		.uleb128 0x17
 1475 0880 8A080000 		.4byte	0x88a
 1476 0884 18       		.uleb128 0x18
 1477 0885 8A080000 		.4byte	0x88a
ARM GAS  /tmp/cctRKXcA.s 			page 27


 1478 0889 00       		.byte	0
 1479 088a 09       		.uleb128 0x9
 1480 088b 04       		.byte	0x4
 1481 088c DE070000 		.4byte	0x7de
 1482 0890 11       		.uleb128 0x11
 1483 0891 0C       		.byte	0xc
 1484 0892 0F       		.byte	0xf
 1485 0893 F401     		.2byte	0x1f4
 1486 0895 CE080000 		.4byte	0x8ce
 1487 0899 12       		.uleb128 0x12
 1488 089a 7F010000 		.4byte	.LASF122
 1489 089e 0F       		.byte	0xf
 1490 089f F801     		.2byte	0x1f8
 1491 08a1 6D080000 		.4byte	0x86d
 1492 08a5 00       		.byte	0
 1493 08a6 12       		.uleb128 0x12
 1494 08a7 A0000000 		.4byte	.LASF123
 1495 08ab 0F       		.byte	0xf
 1496 08ac FD01     		.2byte	0x1fd
 1497 08ae 90070000 		.4byte	0x790
 1498 08b2 04       		.byte	0x4
 1499 08b3 12       		.uleb128 0x12
 1500 08b4 C6000000 		.4byte	.LASF124
 1501 08b8 0F       		.byte	0xf
 1502 08b9 0102     		.2byte	0x201
 1503 08bb CA000000 		.4byte	0xca
 1504 08bf 08       		.byte	0x8
 1505 08c0 0C       		.uleb128 0xc
 1506 08c1 63723100 		.ascii	"cr1\000"
 1507 08c5 0F       		.byte	0xf
 1508 08c6 0502     		.2byte	0x205
 1509 08c8 CA000000 		.4byte	0xca
 1510 08cc 0A       		.byte	0xa
 1511 08cd 00       		.byte	0
 1512 08ce 13       		.uleb128 0x13
 1513 08cf 5B070000 		.4byte	.LASF125
 1514 08d3 0F       		.byte	0xf
 1515 08d4 0602     		.2byte	0x206
 1516 08d6 90080000 		.4byte	0x890
 1517 08da 09       		.uleb128 0x9
 1518 08db 04       		.byte	0x4
 1519 08dc E0080000 		.4byte	0x8e0
 1520 08e0 10       		.uleb128 0x10
 1521 08e1 CE080000 		.4byte	0x8ce
 1522 08e5 09       		.uleb128 0x9
 1523 08e6 04       		.byte	0x4
 1524 08e7 50060000 		.4byte	0x650
 1525 08eb 03       		.uleb128 0x3
 1526 08ec 53010000 		.4byte	.LASF126
 1527 08f0 10       		.byte	0x10
 1528 08f1 2F       		.byte	0x2f
 1529 08f2 55010000 		.4byte	0x155
 1530 08f6 05       		.uleb128 0x5
 1531 08f7 3E020000 		.4byte	.LASF127
 1532 08fb 04       		.byte	0x4
 1533 08fc 11       		.byte	0x11
 1534 08fd 32       		.byte	0x32
ARM GAS  /tmp/cctRKXcA.s 			page 28


 1535 08fe 17090000 		.4byte	0x917
 1536 0902 07       		.uleb128 0x7
 1537 0903 7800     		.ascii	"x\000"
 1538 0905 11       		.byte	0x11
 1539 0906 32       		.byte	0x32
 1540 0907 17090000 		.4byte	0x917
 1541 090b 00       		.byte	0
 1542 090c 07       		.uleb128 0x7
 1543 090d 7900     		.ascii	"y\000"
 1544 090f 11       		.byte	0x11
 1545 0910 32       		.byte	0x32
 1546 0911 17090000 		.4byte	0x917
 1547 0915 02       		.byte	0x2
 1548 0916 00       		.byte	0
 1549 0917 03       		.uleb128 0x3
 1550 0918 51040000 		.4byte	.LASF128
 1551 091c 11       		.byte	0x11
 1552 091d 27       		.byte	0x27
 1553 091e BF000000 		.4byte	0xbf
 1554 0922 03       		.uleb128 0x3
 1555 0923 7E020000 		.4byte	.LASF129
 1556 0927 11       		.byte	0x11
 1557 0928 4D       		.byte	0x4d
 1558 0929 2D090000 		.4byte	0x92d
 1559 092d 19       		.uleb128 0x19
 1560 092e 7E020000 		.4byte	.LASF129
 1561 0932 09       		.uleb128 0x9
 1562 0933 04       		.byte	0x4
 1563 0934 38090000 		.4byte	0x938
 1564 0938 1A       		.uleb128 0x1a
 1565 0939 09       		.uleb128 0x9
 1566 093a 04       		.byte	0x4
 1567 093b 22090000 		.4byte	0x922
 1568 093f 05       		.uleb128 0x5
 1569 0940 6B060000 		.4byte	.LASF130
 1570 0944 08       		.byte	0x8
 1571 0945 12       		.byte	0x12
 1572 0946 3A       		.byte	0x3a
 1573 0947 64090000 		.4byte	0x964
 1574 094b 06       		.uleb128 0x6
 1575 094c 44070000 		.4byte	.LASF131
 1576 0950 12       		.byte	0x12
 1577 0951 3B       		.byte	0x3b
 1578 0952 64090000 		.4byte	0x964
 1579 0956 00       		.byte	0
 1580 0957 07       		.uleb128 0x7
 1581 0958 766D7400 		.ascii	"vmt\000"
 1582 095c 12       		.byte	0x12
 1583 095d 3C       		.byte	0x3c
 1584 095e BF090000 		.4byte	0x9bf
 1585 0962 04       		.byte	0x4
 1586 0963 00       		.byte	0
 1587 0964 09       		.uleb128 0x9
 1588 0965 04       		.byte	0x4
 1589 0966 3F090000 		.4byte	0x93f
 1590 096a 05       		.uleb128 0x5
 1591 096b 50070000 		.4byte	.LASF132
ARM GAS  /tmp/cctRKXcA.s 			page 29


 1592 096f 14       		.byte	0x14
 1593 0970 12       		.byte	0x12
 1594 0971 42       		.byte	0x42
 1595 0972 BF090000 		.4byte	0x9bf
 1596 0976 06       		.uleb128 0x6
 1597 0977 49000000 		.4byte	.LASF133
 1598 097b 12       		.byte	0x12
 1599 097c 43       		.byte	0x43
 1600 097d CA000000 		.4byte	0xca
 1601 0981 00       		.byte	0
 1602 0982 06       		.uleb128 0x6
 1603 0983 2E070000 		.4byte	.LASF134
 1604 0987 12       		.byte	0x12
 1605 0988 44       		.byte	0x44
 1606 0989 CA000000 		.4byte	0xca
 1607 098d 02       		.byte	0x2
 1608 098e 06       		.uleb128 0x6
 1609 098f 11020000 		.4byte	.LASF135
 1610 0993 12       		.byte	0x12
 1611 0994 45       		.byte	0x45
 1612 0995 E0000000 		.4byte	0xe0
 1613 0999 04       		.byte	0x4
 1614 099a 06       		.uleb128 0x6
 1615 099b 4E000000 		.4byte	.LASF136
 1616 099f 12       		.byte	0x12
 1617 09a0 46       		.byte	0x46
 1618 09a1 F9090000 		.4byte	0x9f9
 1619 09a5 08       		.byte	0x8
 1620 09a6 06       		.uleb128 0x6
 1621 09a7 62060000 		.4byte	.LASF137
 1622 09ab 12       		.byte	0x12
 1623 09ac 4A       		.byte	0x4a
 1624 09ad 0A0A0000 		.4byte	0xa0a
 1625 09b1 0C       		.byte	0xc
 1626 09b2 06       		.uleb128 0x6
 1627 09b3 04060000 		.4byte	.LASF138
 1628 09b7 12       		.byte	0x12
 1629 09b8 4B       		.byte	0x4b
 1630 09b9 0A0A0000 		.4byte	0xa0a
 1631 09bd 10       		.byte	0x10
 1632 09be 00       		.byte	0
 1633 09bf 09       		.uleb128 0x9
 1634 09c0 04       		.byte	0x4
 1635 09c1 C5090000 		.4byte	0x9c5
 1636 09c5 10       		.uleb128 0x10
 1637 09c6 6A090000 		.4byte	0x96a
 1638 09ca 03       		.uleb128 0x3
 1639 09cb 6B060000 		.4byte	.LASF130
 1640 09cf 12       		.byte	0x12
 1641 09d0 3D       		.byte	0x3d
 1642 09d1 3F090000 		.4byte	0x93f
 1643 09d5 1B       		.uleb128 0x1b
 1644 09d6 F6000000 		.4byte	0xf6
 1645 09da F3090000 		.4byte	0x9f3
 1646 09de 18       		.uleb128 0x18
 1647 09df F3090000 		.4byte	0x9f3
 1648 09e3 18       		.uleb128 0x18
ARM GAS  /tmp/cctRKXcA.s 			page 30


 1649 09e4 D1020000 		.4byte	0x2d1
 1650 09e8 18       		.uleb128 0x18
 1651 09e9 33000000 		.4byte	0x33
 1652 09ed 18       		.uleb128 0x18
 1653 09ee 33000000 		.4byte	0x33
 1654 09f2 00       		.byte	0
 1655 09f3 09       		.uleb128 0x9
 1656 09f4 04       		.byte	0x4
 1657 09f5 CA090000 		.4byte	0x9ca
 1658 09f9 09       		.uleb128 0x9
 1659 09fa 04       		.byte	0x4
 1660 09fb D5090000 		.4byte	0x9d5
 1661 09ff 17       		.uleb128 0x17
 1662 0a00 0A0A0000 		.4byte	0xa0a
 1663 0a04 18       		.uleb128 0x18
 1664 0a05 F3090000 		.4byte	0x9f3
 1665 0a09 00       		.byte	0
 1666 0a0a 09       		.uleb128 0x9
 1667 0a0b 04       		.byte	0x4
 1668 0a0c FF090000 		.4byte	0x9ff
 1669 0a10 03       		.uleb128 0x3
 1670 0a11 50070000 		.4byte	.LASF132
 1671 0a15 12       		.byte	0x12
 1672 0a16 4C       		.byte	0x4c
 1673 0a17 6A090000 		.4byte	0x96a
 1674 0a1b 05       		.uleb128 0x5
 1675 0a1c 08050000 		.4byte	.LASF139
 1676 0a20 08       		.byte	0x8
 1677 0a21 13       		.byte	0x13
 1678 0a22 19       		.byte	0x19
 1679 0a23 520A0000 		.4byte	0xa52
 1680 0a27 07       		.uleb128 0x7
 1681 0a28 7800     		.ascii	"x\000"
 1682 0a2a 13       		.byte	0x13
 1683 0a2b 1A       		.byte	0x1a
 1684 0a2c 17090000 		.4byte	0x917
 1685 0a30 00       		.byte	0
 1686 0a31 07       		.uleb128 0x7
 1687 0a32 7900     		.ascii	"y\000"
 1688 0a34 13       		.byte	0x13
 1689 0a35 1A       		.byte	0x1a
 1690 0a36 17090000 		.4byte	0x917
 1691 0a3a 02       		.byte	0x2
 1692 0a3b 07       		.uleb128 0x7
 1693 0a3c 7A00     		.ascii	"z\000"
 1694 0a3e 13       		.byte	0x13
 1695 0a3f 1A       		.byte	0x1a
 1696 0a40 17090000 		.4byte	0x917
 1697 0a44 04       		.byte	0x4
 1698 0a45 06       		.uleb128 0x6
 1699 0a46 DE010000 		.4byte	.LASF140
 1700 0a4a 13       		.byte	0x13
 1701 0a4b 1B       		.byte	0x1b
 1702 0a4c CA000000 		.4byte	0xca
 1703 0a50 06       		.byte	0x6
 1704 0a51 00       		.byte	0
 1705 0a52 03       		.uleb128 0x3
ARM GAS  /tmp/cctRKXcA.s 			page 31


 1706 0a53 08050000 		.4byte	.LASF139
 1707 0a57 13       		.byte	0x13
 1708 0a58 1C       		.byte	0x1c
 1709 0a59 1B0A0000 		.4byte	0xa1b
 1710 0a5d 05       		.uleb128 0x5
 1711 0a5e F6040000 		.4byte	.LASF141
 1712 0a62 18       		.byte	0x18
 1713 0a63 13       		.byte	0x13
 1714 0a64 1F       		.byte	0x1f
 1715 0a65 AC0A0000 		.4byte	0xaac
 1716 0a69 07       		.uleb128 0x7
 1717 0a6a 617800   		.ascii	"ax\000"
 1718 0a6d 13       		.byte	0x13
 1719 0a6e 20       		.byte	0x20
 1720 0a6f AC0A0000 		.4byte	0xaac
 1721 0a73 00       		.byte	0
 1722 0a74 07       		.uleb128 0x7
 1723 0a75 627800   		.ascii	"bx\000"
 1724 0a78 13       		.byte	0x13
 1725 0a79 21       		.byte	0x21
 1726 0a7a AC0A0000 		.4byte	0xaac
 1727 0a7e 04       		.byte	0x4
 1728 0a7f 07       		.uleb128 0x7
 1729 0a80 637800   		.ascii	"cx\000"
 1730 0a83 13       		.byte	0x13
 1731 0a84 22       		.byte	0x22
 1732 0a85 AC0A0000 		.4byte	0xaac
 1733 0a89 08       		.byte	0x8
 1734 0a8a 07       		.uleb128 0x7
 1735 0a8b 617900   		.ascii	"ay\000"
 1736 0a8e 13       		.byte	0x13
 1737 0a8f 23       		.byte	0x23
 1738 0a90 AC0A0000 		.4byte	0xaac
 1739 0a94 0C       		.byte	0xc
 1740 0a95 07       		.uleb128 0x7
 1741 0a96 627900   		.ascii	"by\000"
 1742 0a99 13       		.byte	0x13
 1743 0a9a 24       		.byte	0x24
 1744 0a9b AC0A0000 		.4byte	0xaac
 1745 0a9f 10       		.byte	0x10
 1746 0aa0 07       		.uleb128 0x7
 1747 0aa1 637900   		.ascii	"cy\000"
 1748 0aa4 13       		.byte	0x13
 1749 0aa5 25       		.byte	0x25
 1750 0aa6 AC0A0000 		.4byte	0xaac
 1751 0aaa 14       		.byte	0x14
 1752 0aab 00       		.byte	0
 1753 0aac 04       		.uleb128 0x4
 1754 0aad 04       		.byte	0x4
 1755 0aae 04       		.byte	0x4
 1756 0aaf 7B040000 		.4byte	.LASF142
 1757 0ab3 03       		.uleb128 0x3
 1758 0ab4 F6040000 		.4byte	.LASF141
 1759 0ab8 13       		.byte	0x13
 1760 0ab9 26       		.byte	0x26
 1761 0aba 5D0A0000 		.4byte	0xa5d
 1762 0abe 05       		.uleb128 0x5
ARM GAS  /tmp/cctRKXcA.s 			page 32


 1763 0abf 13060000 		.4byte	.LASF143
 1764 0ac3 38       		.byte	0x38
 1765 0ac4 13       		.byte	0x13
 1766 0ac5 29       		.byte	0x29
 1767 0ac6 1B0B0000 		.4byte	0xb1b
 1768 0aca 07       		.uleb128 0x7
 1769 0acb 6400     		.ascii	"d\000"
 1770 0acd 13       		.byte	0x13
 1771 0ace 2A       		.byte	0x2a
 1772 0acf CA090000 		.4byte	0x9ca
 1773 0ad3 00       		.byte	0
 1774 0ad4 07       		.uleb128 0x7
 1775 0ad5 7200     		.ascii	"r\000"
 1776 0ad7 13       		.byte	0x13
 1777 0ad8 2B       		.byte	0x2b
 1778 0ad9 520A0000 		.4byte	0xa52
 1779 0add 08       		.byte	0x8
 1780 0ade 06       		.uleb128 0x6
 1781 0adf 2E070000 		.4byte	.LASF134
 1782 0ae3 13       		.byte	0x13
 1783 0ae4 2C       		.byte	0x2c
 1784 0ae5 CA000000 		.4byte	0xca
 1785 0ae9 10       		.byte	0x10
 1786 0aea 06       		.uleb128 0x6
 1787 0aeb 65070000 		.4byte	.LASF144
 1788 0aef 13       		.byte	0x13
 1789 0af0 35       		.byte	0x35
 1790 0af1 F6080000 		.4byte	0x8f6
 1791 0af5 12       		.byte	0x12
 1792 0af6 06       		.uleb128 0x6
 1793 0af7 61040000 		.4byte	.LASF145
 1794 0afb 13       		.byte	0x13
 1795 0afc 36       		.byte	0x36
 1796 0afd EB080000 		.4byte	0x8eb
 1797 0b01 18       		.byte	0x18
 1798 0b02 06       		.uleb128 0x6
 1799 0b03 ED060000 		.4byte	.LASF146
 1800 0b07 13       		.byte	0x13
 1801 0b08 37       		.byte	0x37
 1802 0b09 39090000 		.4byte	0x939
 1803 0b0d 1C       		.byte	0x1c
 1804 0b0e 06       		.uleb128 0x6
 1805 0b0f 59040000 		.4byte	.LASF147
 1806 0b13 13       		.byte	0x13
 1807 0b14 39       		.byte	0x39
 1808 0b15 B30A0000 		.4byte	0xab3
 1809 0b19 20       		.byte	0x20
 1810 0b1a 00       		.byte	0
 1811 0b1b 03       		.uleb128 0x3
 1812 0b1c 13060000 		.4byte	.LASF143
 1813 0b20 13       		.byte	0x13
 1814 0b21 3C       		.byte	0x3c
 1815 0b22 BE0A0000 		.4byte	0xabe
 1816 0b26 05       		.uleb128 0x5
 1817 0b27 9D010000 		.4byte	.LASF148
 1818 0b2b 06       		.byte	0x6
 1819 0b2c 13       		.byte	0x13
ARM GAS  /tmp/cctRKXcA.s 			page 33


 1820 0b2d 3E       		.byte	0x3e
 1821 0b2e 570B0000 		.4byte	0xb57
 1822 0b32 06       		.uleb128 0x6
 1823 0b33 74020000 		.4byte	.LASF149
 1824 0b37 13       		.byte	0x13
 1825 0b38 3F       		.byte	0x3f
 1826 0b39 17090000 		.4byte	0x917
 1827 0b3d 00       		.byte	0
 1828 0b3e 06       		.uleb128 0x6
 1829 0b3f 34070000 		.4byte	.LASF150
 1830 0b43 13       		.byte	0x13
 1831 0b44 40       		.byte	0x40
 1832 0b45 17090000 		.4byte	0x917
 1833 0b49 02       		.byte	0x2
 1834 0b4a 06       		.uleb128 0x6
 1835 0b4b C1000000 		.4byte	.LASF151
 1836 0b4f 13       		.byte	0x13
 1837 0b50 41       		.byte	0x41
 1838 0b51 17090000 		.4byte	0x917
 1839 0b55 04       		.byte	0x4
 1840 0b56 00       		.byte	0
 1841 0b57 03       		.uleb128 0x3
 1842 0b58 9D010000 		.4byte	.LASF148
 1843 0b5c 13       		.byte	0x13
 1844 0b5d 42       		.byte	0x42
 1845 0b5e 260B0000 		.4byte	0xb26
 1846 0b62 05       		.uleb128 0x5
 1847 0b63 05040000 		.4byte	.LASF152
 1848 0b67 3C       		.byte	0x3c
 1849 0b68 13       		.byte	0x13
 1850 0b69 44       		.byte	0x44
 1851 0b6a FD0B0000 		.4byte	0xbfd
 1852 0b6e 07       		.uleb128 0x7
 1853 0b6f 6400     		.ascii	"d\000"
 1854 0b71 13       		.byte	0x13
 1855 0b72 45       		.byte	0x45
 1856 0b73 100A0000 		.4byte	0xa10
 1857 0b77 00       		.byte	0
 1858 0b78 06       		.uleb128 0x6
 1859 0b79 8C070000 		.4byte	.LASF153
 1860 0b7d 13       		.byte	0x13
 1861 0b7e 50       		.byte	0x50
 1862 0b7f 17090000 		.4byte	0x917
 1863 0b83 14       		.byte	0x14
 1864 0b84 06       		.uleb128 0x6
 1865 0b85 FB010000 		.4byte	.LASF154
 1866 0b89 13       		.byte	0x13
 1867 0b8a 51       		.byte	0x51
 1868 0b8b 17090000 		.4byte	0x917
 1869 0b8f 16       		.byte	0x16
 1870 0b90 06       		.uleb128 0x6
 1871 0b91 6D010000 		.4byte	.LASF155
 1872 0b95 13       		.byte	0x13
 1873 0b96 52       		.byte	0x52
 1874 0b97 17090000 		.4byte	0x917
 1875 0b9b 18       		.byte	0x18
 1876 0b9c 06       		.uleb128 0x6
ARM GAS  /tmp/cctRKXcA.s 			page 34


 1877 0b9d 79070000 		.4byte	.LASF156
 1878 0ba1 13       		.byte	0x13
 1879 0ba2 53       		.byte	0x53
 1880 0ba3 17090000 		.4byte	0x917
 1881 0ba7 1A       		.byte	0x1a
 1882 0ba8 06       		.uleb128 0x6
 1883 0ba9 01020000 		.4byte	.LASF157
 1884 0bad 13       		.byte	0x13
 1885 0bae 55       		.byte	0x55
 1886 0baf 570B0000 		.4byte	0xb57
 1887 0bb3 1C       		.byte	0x1c
 1888 0bb4 06       		.uleb128 0x6
 1889 0bb5 B0020000 		.4byte	.LASF158
 1890 0bb9 13       		.byte	0x13
 1891 0bba 56       		.byte	0x56
 1892 0bbb 570B0000 		.4byte	0xb57
 1893 0bbf 22       		.byte	0x22
 1894 0bc0 06       		.uleb128 0x6
 1895 0bc1 4E000000 		.4byte	.LASF136
 1896 0bc5 13       		.byte	0x13
 1897 0bc6 58       		.byte	0x58
 1898 0bc7 170C0000 		.4byte	0xc17
 1899 0bcb 28       		.byte	0x28
 1900 0bcc 06       		.uleb128 0x6
 1901 0bcd 04060000 		.4byte	.LASF138
 1902 0bd1 13       		.byte	0x13
 1903 0bd2 59       		.byte	0x59
 1904 0bd3 280C0000 		.4byte	0xc28
 1905 0bd7 2C       		.byte	0x2c
 1906 0bd8 07       		.uleb128 0x7
 1907 0bd9 67657400 		.ascii	"get\000"
 1908 0bdd 13       		.byte	0x13
 1909 0bde 5A       		.byte	0x5a
 1910 0bdf 480C0000 		.4byte	0xc48
 1911 0be3 30       		.byte	0x30
 1912 0be4 06       		.uleb128 0x6
 1913 0be5 39010000 		.4byte	.LASF159
 1914 0be9 13       		.byte	0x13
 1915 0bea 5B       		.byte	0x5b
 1916 0beb 630C0000 		.4byte	0xc63
 1917 0bef 34       		.byte	0x34
 1918 0bf0 06       		.uleb128 0x6
 1919 0bf1 0B060000 		.4byte	.LASF160
 1920 0bf5 13       		.byte	0x13
 1921 0bf6 5C       		.byte	0x5c
 1922 0bf7 820C0000 		.4byte	0xc82
 1923 0bfb 38       		.byte	0x38
 1924 0bfc 00       		.byte	0
 1925 0bfd 1B       		.uleb128 0x1b
 1926 0bfe F6000000 		.4byte	0xf6
 1927 0c02 110C0000 		.4byte	0xc11
 1928 0c06 18       		.uleb128 0x18
 1929 0c07 110C0000 		.4byte	0xc11
 1930 0c0b 18       		.uleb128 0x18
 1931 0c0c 33000000 		.4byte	0x33
 1932 0c10 00       		.byte	0
 1933 0c11 09       		.uleb128 0x9
ARM GAS  /tmp/cctRKXcA.s 			page 35


 1934 0c12 04       		.byte	0x4
 1935 0c13 1B0B0000 		.4byte	0xb1b
 1936 0c17 09       		.uleb128 0x9
 1937 0c18 04       		.byte	0x4
 1938 0c19 FD0B0000 		.4byte	0xbfd
 1939 0c1d 17       		.uleb128 0x17
 1940 0c1e 280C0000 		.4byte	0xc28
 1941 0c22 18       		.uleb128 0x18
 1942 0c23 110C0000 		.4byte	0xc11
 1943 0c27 00       		.byte	0
 1944 0c28 09       		.uleb128 0x9
 1945 0c29 04       		.byte	0x4
 1946 0c2a 1D0C0000 		.4byte	0xc1d
 1947 0c2e 1B       		.uleb128 0x1b
 1948 0c2f F6000000 		.4byte	0xf6
 1949 0c33 420C0000 		.4byte	0xc42
 1950 0c37 18       		.uleb128 0x18
 1951 0c38 110C0000 		.4byte	0xc11
 1952 0c3c 18       		.uleb128 0x18
 1953 0c3d 420C0000 		.4byte	0xc42
 1954 0c41 00       		.byte	0
 1955 0c42 09       		.uleb128 0x9
 1956 0c43 04       		.byte	0x4
 1957 0c44 520A0000 		.4byte	0xa52
 1958 0c48 09       		.uleb128 0x9
 1959 0c49 04       		.byte	0x4
 1960 0c4a 2E0C0000 		.4byte	0xc2e
 1961 0c4e 17       		.uleb128 0x17
 1962 0c4f 630C0000 		.4byte	0xc63
 1963 0c53 18       		.uleb128 0x18
 1964 0c54 110C0000 		.4byte	0xc11
 1965 0c58 18       		.uleb128 0x18
 1966 0c59 32090000 		.4byte	0x932
 1967 0c5d 18       		.uleb128 0x18
 1968 0c5e 28000000 		.4byte	0x28
 1969 0c62 00       		.byte	0
 1970 0c63 09       		.uleb128 0x9
 1971 0c64 04       		.byte	0x4
 1972 0c65 4E0C0000 		.4byte	0xc4e
 1973 0c69 1B       		.uleb128 0x1b
 1974 0c6a F6000000 		.4byte	0xf6
 1975 0c6e 820C0000 		.4byte	0xc82
 1976 0c72 18       		.uleb128 0x18
 1977 0c73 110C0000 		.4byte	0xc11
 1978 0c77 18       		.uleb128 0x18
 1979 0c78 D1020000 		.4byte	0x2d1
 1980 0c7c 18       		.uleb128 0x18
 1981 0c7d 28000000 		.4byte	0x28
 1982 0c81 00       		.byte	0
 1983 0c82 09       		.uleb128 0x9
 1984 0c83 04       		.byte	0x4
 1985 0c84 690C0000 		.4byte	0xc69
 1986 0c88 03       		.uleb128 0x3
 1987 0c89 05040000 		.4byte	.LASF152
 1988 0c8d 13       		.byte	0x13
 1989 0c8e 5D       		.byte	0x5d
 1990 0c8f 620B0000 		.4byte	0xb62
ARM GAS  /tmp/cctRKXcA.s 			page 36


 1991 0c93 1C       		.uleb128 0x1c
 1992 0c94 6E070000 		.4byte	.LASF162
 1993 0c98 01       		.byte	0x1
 1994 0c99 1D       		.byte	0x1d
 1995 0c9a F6000000 		.4byte	0xf6
 1996 0c9e 00000000 		.4byte	.LFB111
 1997 0ca2 68000000 		.4byte	.LFE111-.LFB111
 1998 0ca6 01       		.uleb128 0x1
 1999 0ca7 9C       		.byte	0x9c
 2000 0ca8 C70C0000 		.4byte	0xcc7
 2001 0cac 1D       		.uleb128 0x1d
 2002 0cad 6D00     		.ascii	"m\000"
 2003 0caf 01       		.byte	0x1
 2004 0cb0 1D       		.byte	0x1d
 2005 0cb1 110C0000 		.4byte	0xc11
 2006 0cb5 02       		.uleb128 0x2
 2007 0cb6 91       		.byte	0x91
 2008 0cb7 74       		.sleb128 -12
 2009 0cb8 1E       		.uleb128 0x1e
 2010 0cb9 D4000000 		.4byte	.LASF161
 2011 0cbd 01       		.byte	0x1
 2012 0cbe 1D       		.byte	0x1d
 2013 0cbf 33000000 		.4byte	0x33
 2014 0cc3 02       		.uleb128 0x2
 2015 0cc4 91       		.byte	0x91
 2016 0cc5 70       		.sleb128 -16
 2017 0cc6 00       		.byte	0
 2018 0cc7 1F       		.uleb128 0x1f
 2019 0cc8 1C040000 		.4byte	.LASF163
 2020 0ccc 01       		.byte	0x1
 2021 0ccd 2C       		.byte	0x2c
 2022 0cce F6000000 		.4byte	0xf6
 2023 0cd2 00000000 		.4byte	.LFB112
 2024 0cd6 24000000 		.4byte	.LFE112-.LFB112
 2025 0cda 01       		.uleb128 0x1
 2026 0cdb 9C       		.byte	0x9c
 2027 0cdc ED0C0000 		.4byte	0xced
 2028 0ce0 1D       		.uleb128 0x1d
 2029 0ce1 6D00     		.ascii	"m\000"
 2030 0ce3 01       		.byte	0x1
 2031 0ce4 2C       		.byte	0x2c
 2032 0ce5 110C0000 		.4byte	0xc11
 2033 0ce9 02       		.uleb128 0x2
 2034 0cea 91       		.byte	0x91
 2035 0ceb 7C       		.sleb128 -4
 2036 0cec 00       		.byte	0
 2037 0ced 20       		.uleb128 0x20
 2038 0cee DE050000 		.4byte	.LASF164
 2039 0cf2 01       		.byte	0x1
 2040 0cf3 32       		.byte	0x32
 2041 0cf4 00000000 		.4byte	.LFB113
 2042 0cf8 20000000 		.4byte	.LFE113-.LFB113
 2043 0cfc 01       		.uleb128 0x1
 2044 0cfd 9C       		.byte	0x9c
 2045 0cfe 0F0D0000 		.4byte	0xd0f
 2046 0d02 1D       		.uleb128 0x1d
 2047 0d03 6D00     		.ascii	"m\000"
ARM GAS  /tmp/cctRKXcA.s 			page 37


 2048 0d05 01       		.byte	0x1
 2049 0d06 32       		.byte	0x32
 2050 0d07 110C0000 		.4byte	0xc11
 2051 0d0b 02       		.uleb128 0x2
 2052 0d0c 91       		.byte	0x91
 2053 0d0d 74       		.sleb128 -12
 2054 0d0e 00       		.byte	0
 2055 0d0f 20       		.uleb128 0x20
 2056 0d10 61050000 		.4byte	.LASF165
 2057 0d14 01       		.byte	0x1
 2058 0d15 39       		.byte	0x39
 2059 0d16 00000000 		.4byte	.LFB114
 2060 0d1a 20000000 		.4byte	.LFE114-.LFB114
 2061 0d1e 01       		.uleb128 0x1
 2062 0d1f 9C       		.byte	0x9c
 2063 0d20 310D0000 		.4byte	0xd31
 2064 0d24 1D       		.uleb128 0x1d
 2065 0d25 6D00     		.ascii	"m\000"
 2066 0d27 01       		.byte	0x1
 2067 0d28 39       		.byte	0x39
 2068 0d29 110C0000 		.4byte	0xc11
 2069 0d2d 02       		.uleb128 0x2
 2070 0d2e 91       		.byte	0x91
 2071 0d2f 74       		.sleb128 -12
 2072 0d30 00       		.byte	0
 2073 0d31 1C       		.uleb128 0x1c
 2074 0d32 2C060000 		.4byte	.LASF166
 2075 0d36 01       		.byte	0x1
 2076 0d37 40       		.byte	0x40
 2077 0d38 CA000000 		.4byte	0xca
 2078 0d3c 00000000 		.4byte	.LFB115
 2079 0d40 50000000 		.4byte	.LFE115-.LFB115
 2080 0d44 01       		.uleb128 0x1
 2081 0d45 9C       		.byte	0x9c
 2082 0d46 870D0000 		.4byte	0xd87
 2083 0d4a 1D       		.uleb128 0x1d
 2084 0d4b 6D00     		.ascii	"m\000"
 2085 0d4d 01       		.byte	0x1
 2086 0d4e 40       		.byte	0x40
 2087 0d4f 110C0000 		.4byte	0xc11
 2088 0d53 02       		.uleb128 0x2
 2089 0d54 91       		.byte	0x91
 2090 0d55 74       		.sleb128 -12
 2091 0d56 1E       		.uleb128 0x1e
 2092 0d57 0C020000 		.4byte	.LASF167
 2093 0d5b 01       		.byte	0x1
 2094 0d5c 40       		.byte	0x40
 2095 0d5d CA000000 		.4byte	0xca
 2096 0d61 02       		.uleb128 0x2
 2097 0d62 91       		.byte	0x91
 2098 0d63 72       		.sleb128 -14
 2099 0d64 21       		.uleb128 0x21
 2100 0d65 31020000 		.4byte	.LASF168
 2101 0d69 01       		.byte	0x1
 2102 0d6a 41       		.byte	0x41
 2103 0d6b 870D0000 		.4byte	0xd87
 2104 0d6f 05       		.uleb128 0x5
ARM GAS  /tmp/cctRKXcA.s 			page 38


 2105 0d70 03       		.byte	0x3
 2106 0d71 00000000 		.4byte	txbuf.7958
 2107 0d75 21       		.uleb128 0x21
 2108 0d76 B4000000 		.4byte	.LASF169
 2109 0d7a 01       		.byte	0x1
 2110 0d7b 42       		.byte	0x42
 2111 0d7c 870D0000 		.4byte	0xd87
 2112 0d80 05       		.uleb128 0x5
 2113 0d81 03       		.byte	0x3
 2114 0d82 00000000 		.4byte	rxbuf.7959
 2115 0d86 00       		.byte	0
 2116 0d87 22       		.uleb128 0x22
 2117 0d88 B4000000 		.4byte	0xb4
 2118 0d8c 970D0000 		.4byte	0xd97
 2119 0d90 23       		.uleb128 0x23
 2120 0d91 50040000 		.4byte	0x450
 2121 0d95 02       		.byte	0x2
 2122 0d96 00       		.byte	0
 2123 0d97 1C       		.uleb128 0x1c
 2124 0d98 0D000000 		.4byte	.LASF170
 2125 0d9c 02       		.byte	0x2
 2126 0d9d 16       		.byte	0x16
 2127 0d9e F6000000 		.4byte	0xf6
 2128 0da2 00000000 		.4byte	.LFB116
 2129 0da6 74000000 		.4byte	.LFE116-.LFB116
 2130 0daa 01       		.uleb128 0x1
 2131 0dab 9C       		.byte	0x9c
 2132 0dac CB0D0000 		.4byte	0xdcb
 2133 0db0 1D       		.uleb128 0x1d
 2134 0db1 6D00     		.ascii	"m\000"
 2135 0db3 02       		.byte	0x2
 2136 0db4 16       		.byte	0x16
 2137 0db5 110C0000 		.4byte	0xc11
 2138 0db9 02       		.uleb128 0x2
 2139 0dba 91       		.byte	0x91
 2140 0dbb 74       		.sleb128 -12
 2141 0dbc 1D       		.uleb128 0x1d
 2142 0dbd 70647200 		.ascii	"pdr\000"
 2143 0dc1 02       		.byte	0x2
 2144 0dc2 16       		.byte	0x16
 2145 0dc3 420C0000 		.4byte	0xc42
 2146 0dc7 02       		.uleb128 0x2
 2147 0dc8 91       		.byte	0x91
 2148 0dc9 70       		.sleb128 -16
 2149 0dca 00       		.byte	0
 2150 0dcb 21       		.uleb128 0x21
 2151 0dcc 4A040000 		.4byte	.LASF171
 2152 0dd0 01       		.byte	0x1
 2153 0dd1 16       		.byte	0x16
 2154 0dd2 E0080000 		.4byte	0x8e0
 2155 0dd6 05       		.uleb128 0x5
 2156 0dd7 03       		.byte	0x3
 2157 0dd8 00000000 		.4byte	spicfg
 2158 0ddc 24       		.uleb128 0x24
 2159 0ddd A7000000 		.4byte	.LASF172
 2160 0de1 14       		.byte	0x14
 2161 0de2 9806     		.2byte	0x698
ARM GAS  /tmp/cctRKXcA.s 			page 39


 2162 0de4 F6040000 		.4byte	0x4f6
 2163 0de8 24       		.uleb128 0x24
 2164 0de9 3F050000 		.4byte	.LASF173
 2165 0ded 0F       		.byte	0xf
 2166 0dee 4B02     		.2byte	0x24b
 2167 0df0 DE070000 		.4byte	0x7de
 2168 0df4 22       		.uleb128 0x22
 2169 0df5 880C0000 		.4byte	0xc88
 2170 0df9 040E0000 		.4byte	0xe04
 2171 0dfd 23       		.uleb128 0x23
 2172 0dfe 50040000 		.4byte	0x450
 2173 0e02 00       		.byte	0
 2174 0e03 00       		.byte	0
 2175 0e04 25       		.uleb128 0x25
 2176 0e05 ED030000 		.4byte	.LASF174
 2177 0e09 02       		.byte	0x2
 2178 0e0a 30       		.byte	0x30
 2179 0e0b 150E0000 		.4byte	0xe15
 2180 0e0f 05       		.uleb128 0x5
 2181 0e10 03       		.byte	0x3
 2182 0e11 00000000 		.4byte	GMOUSEVMT_OnlyOne
 2183 0e15 10       		.uleb128 0x10
 2184 0e16 F40D0000 		.4byte	0xdf4
 2185 0e1a 00       		.byte	0
 2186              		.section	.debug_abbrev,"",%progbits
 2187              	.Ldebug_abbrev0:
 2188 0000 01       		.uleb128 0x1
 2189 0001 11       		.uleb128 0x11
 2190 0002 01       		.byte	0x1
 2191 0003 25       		.uleb128 0x25
 2192 0004 0E       		.uleb128 0xe
 2193 0005 13       		.uleb128 0x13
 2194 0006 0B       		.uleb128 0xb
 2195 0007 03       		.uleb128 0x3
 2196 0008 0E       		.uleb128 0xe
 2197 0009 55       		.uleb128 0x55
 2198 000a 17       		.uleb128 0x17
 2199 000b 11       		.uleb128 0x11
 2200 000c 01       		.uleb128 0x1
 2201 000d 10       		.uleb128 0x10
 2202 000e 17       		.uleb128 0x17
 2203 000f 00       		.byte	0
 2204 0010 00       		.byte	0
 2205 0011 02       		.uleb128 0x2
 2206 0012 24       		.uleb128 0x24
 2207 0013 00       		.byte	0
 2208 0014 0B       		.uleb128 0xb
 2209 0015 0B       		.uleb128 0xb
 2210 0016 3E       		.uleb128 0x3e
 2211 0017 0B       		.uleb128 0xb
 2212 0018 03       		.uleb128 0x3
 2213 0019 08       		.uleb128 0x8
 2214 001a 00       		.byte	0
 2215 001b 00       		.byte	0
 2216 001c 03       		.uleb128 0x3
 2217 001d 16       		.uleb128 0x16
 2218 001e 00       		.byte	0
ARM GAS  /tmp/cctRKXcA.s 			page 40


 2219 001f 03       		.uleb128 0x3
 2220 0020 0E       		.uleb128 0xe
 2221 0021 3A       		.uleb128 0x3a
 2222 0022 0B       		.uleb128 0xb
 2223 0023 3B       		.uleb128 0x3b
 2224 0024 0B       		.uleb128 0xb
 2225 0025 49       		.uleb128 0x49
 2226 0026 13       		.uleb128 0x13
 2227 0027 00       		.byte	0
 2228 0028 00       		.byte	0
 2229 0029 04       		.uleb128 0x4
 2230 002a 24       		.uleb128 0x24
 2231 002b 00       		.byte	0
 2232 002c 0B       		.uleb128 0xb
 2233 002d 0B       		.uleb128 0xb
 2234 002e 3E       		.uleb128 0x3e
 2235 002f 0B       		.uleb128 0xb
 2236 0030 03       		.uleb128 0x3
 2237 0031 0E       		.uleb128 0xe
 2238 0032 00       		.byte	0
 2239 0033 00       		.byte	0
 2240 0034 05       		.uleb128 0x5
 2241 0035 13       		.uleb128 0x13
 2242 0036 01       		.byte	0x1
 2243 0037 03       		.uleb128 0x3
 2244 0038 0E       		.uleb128 0xe
 2245 0039 0B       		.uleb128 0xb
 2246 003a 0B       		.uleb128 0xb
 2247 003b 3A       		.uleb128 0x3a
 2248 003c 0B       		.uleb128 0xb
 2249 003d 3B       		.uleb128 0x3b
 2250 003e 0B       		.uleb128 0xb
 2251 003f 01       		.uleb128 0x1
 2252 0040 13       		.uleb128 0x13
 2253 0041 00       		.byte	0
 2254 0042 00       		.byte	0
 2255 0043 06       		.uleb128 0x6
 2256 0044 0D       		.uleb128 0xd
 2257 0045 00       		.byte	0
 2258 0046 03       		.uleb128 0x3
 2259 0047 0E       		.uleb128 0xe
 2260 0048 3A       		.uleb128 0x3a
 2261 0049 0B       		.uleb128 0xb
 2262 004a 3B       		.uleb128 0x3b
 2263 004b 0B       		.uleb128 0xb
 2264 004c 49       		.uleb128 0x49
 2265 004d 13       		.uleb128 0x13
 2266 004e 38       		.uleb128 0x38
 2267 004f 0B       		.uleb128 0xb
 2268 0050 00       		.byte	0
 2269 0051 00       		.byte	0
 2270 0052 07       		.uleb128 0x7
 2271 0053 0D       		.uleb128 0xd
 2272 0054 00       		.byte	0
 2273 0055 03       		.uleb128 0x3
 2274 0056 08       		.uleb128 0x8
 2275 0057 3A       		.uleb128 0x3a
ARM GAS  /tmp/cctRKXcA.s 			page 41


 2276 0058 0B       		.uleb128 0xb
 2277 0059 3B       		.uleb128 0x3b
 2278 005a 0B       		.uleb128 0xb
 2279 005b 49       		.uleb128 0x49
 2280 005c 13       		.uleb128 0x13
 2281 005d 38       		.uleb128 0x38
 2282 005e 0B       		.uleb128 0xb
 2283 005f 00       		.byte	0
 2284 0060 00       		.byte	0
 2285 0061 08       		.uleb128 0x8
 2286 0062 13       		.uleb128 0x13
 2287 0063 01       		.byte	0x1
 2288 0064 0B       		.uleb128 0xb
 2289 0065 0B       		.uleb128 0xb
 2290 0066 3A       		.uleb128 0x3a
 2291 0067 0B       		.uleb128 0xb
 2292 0068 3B       		.uleb128 0x3b
 2293 0069 0B       		.uleb128 0xb
 2294 006a 01       		.uleb128 0x1
 2295 006b 13       		.uleb128 0x13
 2296 006c 00       		.byte	0
 2297 006d 00       		.byte	0
 2298 006e 09       		.uleb128 0x9
 2299 006f 0F       		.uleb128 0xf
 2300 0070 00       		.byte	0
 2301 0071 0B       		.uleb128 0xb
 2302 0072 0B       		.uleb128 0xb
 2303 0073 49       		.uleb128 0x49
 2304 0074 13       		.uleb128 0x13
 2305 0075 00       		.byte	0
 2306 0076 00       		.byte	0
 2307 0077 0A       		.uleb128 0xa
 2308 0078 0F       		.uleb128 0xf
 2309 0079 00       		.byte	0
 2310 007a 0B       		.uleb128 0xb
 2311 007b 0B       		.uleb128 0xb
 2312 007c 00       		.byte	0
 2313 007d 00       		.byte	0
 2314 007e 0B       		.uleb128 0xb
 2315 007f 13       		.uleb128 0x13
 2316 0080 01       		.byte	0x1
 2317 0081 03       		.uleb128 0x3
 2318 0082 0E       		.uleb128 0xe
 2319 0083 0B       		.uleb128 0xb
 2320 0084 0B       		.uleb128 0xb
 2321 0085 3A       		.uleb128 0x3a
 2322 0086 0B       		.uleb128 0xb
 2323 0087 3B       		.uleb128 0x3b
 2324 0088 05       		.uleb128 0x5
 2325 0089 01       		.uleb128 0x1
 2326 008a 13       		.uleb128 0x13
 2327 008b 00       		.byte	0
 2328 008c 00       		.byte	0
 2329 008d 0C       		.uleb128 0xc
 2330 008e 0D       		.uleb128 0xd
 2331 008f 00       		.byte	0
 2332 0090 03       		.uleb128 0x3
ARM GAS  /tmp/cctRKXcA.s 			page 42


 2333 0091 08       		.uleb128 0x8
 2334 0092 3A       		.uleb128 0x3a
 2335 0093 0B       		.uleb128 0xb
 2336 0094 3B       		.uleb128 0x3b
 2337 0095 05       		.uleb128 0x5
 2338 0096 49       		.uleb128 0x49
 2339 0097 13       		.uleb128 0x13
 2340 0098 38       		.uleb128 0x38
 2341 0099 0B       		.uleb128 0xb
 2342 009a 00       		.byte	0
 2343 009b 00       		.byte	0
 2344 009c 0D       		.uleb128 0xd
 2345 009d 35       		.uleb128 0x35
 2346 009e 00       		.byte	0
 2347 009f 49       		.uleb128 0x49
 2348 00a0 13       		.uleb128 0x13
 2349 00a1 00       		.byte	0
 2350 00a2 00       		.byte	0
 2351 00a3 0E       		.uleb128 0xe
 2352 00a4 17       		.uleb128 0x17
 2353 00a5 01       		.byte	0x1
 2354 00a6 0B       		.uleb128 0xb
 2355 00a7 0B       		.uleb128 0xb
 2356 00a8 3A       		.uleb128 0x3a
 2357 00a9 0B       		.uleb128 0xb
 2358 00aa 3B       		.uleb128 0x3b
 2359 00ab 0B       		.uleb128 0xb
 2360 00ac 01       		.uleb128 0x1
 2361 00ad 13       		.uleb128 0x13
 2362 00ae 00       		.byte	0
 2363 00af 00       		.byte	0
 2364 00b0 0F       		.uleb128 0xf
 2365 00b1 0D       		.uleb128 0xd
 2366 00b2 00       		.byte	0
 2367 00b3 03       		.uleb128 0x3
 2368 00b4 0E       		.uleb128 0xe
 2369 00b5 3A       		.uleb128 0x3a
 2370 00b6 0B       		.uleb128 0xb
 2371 00b7 3B       		.uleb128 0x3b
 2372 00b8 0B       		.uleb128 0xb
 2373 00b9 49       		.uleb128 0x49
 2374 00ba 13       		.uleb128 0x13
 2375 00bb 00       		.byte	0
 2376 00bc 00       		.byte	0
 2377 00bd 10       		.uleb128 0x10
 2378 00be 26       		.uleb128 0x26
 2379 00bf 00       		.byte	0
 2380 00c0 49       		.uleb128 0x49
 2381 00c1 13       		.uleb128 0x13
 2382 00c2 00       		.byte	0
 2383 00c3 00       		.byte	0
 2384 00c4 11       		.uleb128 0x11
 2385 00c5 13       		.uleb128 0x13
 2386 00c6 01       		.byte	0x1
 2387 00c7 0B       		.uleb128 0xb
 2388 00c8 0B       		.uleb128 0xb
 2389 00c9 3A       		.uleb128 0x3a
ARM GAS  /tmp/cctRKXcA.s 			page 43


 2390 00ca 0B       		.uleb128 0xb
 2391 00cb 3B       		.uleb128 0x3b
 2392 00cc 05       		.uleb128 0x5
 2393 00cd 01       		.uleb128 0x1
 2394 00ce 13       		.uleb128 0x13
 2395 00cf 00       		.byte	0
 2396 00d0 00       		.byte	0
 2397 00d1 12       		.uleb128 0x12
 2398 00d2 0D       		.uleb128 0xd
 2399 00d3 00       		.byte	0
 2400 00d4 03       		.uleb128 0x3
 2401 00d5 0E       		.uleb128 0xe
 2402 00d6 3A       		.uleb128 0x3a
 2403 00d7 0B       		.uleb128 0xb
 2404 00d8 3B       		.uleb128 0x3b
 2405 00d9 05       		.uleb128 0x5
 2406 00da 49       		.uleb128 0x49
 2407 00db 13       		.uleb128 0x13
 2408 00dc 38       		.uleb128 0x38
 2409 00dd 0B       		.uleb128 0xb
 2410 00de 00       		.byte	0
 2411 00df 00       		.byte	0
 2412 00e0 13       		.uleb128 0x13
 2413 00e1 16       		.uleb128 0x16
 2414 00e2 00       		.byte	0
 2415 00e3 03       		.uleb128 0x3
 2416 00e4 0E       		.uleb128 0xe
 2417 00e5 3A       		.uleb128 0x3a
 2418 00e6 0B       		.uleb128 0xb
 2419 00e7 3B       		.uleb128 0x3b
 2420 00e8 05       		.uleb128 0x5
 2421 00e9 49       		.uleb128 0x49
 2422 00ea 13       		.uleb128 0x13
 2423 00eb 00       		.byte	0
 2424 00ec 00       		.byte	0
 2425 00ed 14       		.uleb128 0x14
 2426 00ee 0D       		.uleb128 0xd
 2427 00ef 00       		.byte	0
 2428 00f0 03       		.uleb128 0x3
 2429 00f1 08       		.uleb128 0x8
 2430 00f2 3A       		.uleb128 0x3a
 2431 00f3 0B       		.uleb128 0xb
 2432 00f4 3B       		.uleb128 0x3b
 2433 00f5 0B       		.uleb128 0xb
 2434 00f6 49       		.uleb128 0x49
 2435 00f7 13       		.uleb128 0x13
 2436 00f8 00       		.byte	0
 2437 00f9 00       		.byte	0
 2438 00fa 15       		.uleb128 0x15
 2439 00fb 04       		.uleb128 0x4
 2440 00fc 01       		.byte	0x1
 2441 00fd 0B       		.uleb128 0xb
 2442 00fe 0B       		.uleb128 0xb
 2443 00ff 3A       		.uleb128 0x3a
 2444 0100 0B       		.uleb128 0xb
 2445 0101 3B       		.uleb128 0x3b
 2446 0102 0B       		.uleb128 0xb
ARM GAS  /tmp/cctRKXcA.s 			page 44


 2447 0103 01       		.uleb128 0x1
 2448 0104 13       		.uleb128 0x13
 2449 0105 00       		.byte	0
 2450 0106 00       		.byte	0
 2451 0107 16       		.uleb128 0x16
 2452 0108 28       		.uleb128 0x28
 2453 0109 00       		.byte	0
 2454 010a 03       		.uleb128 0x3
 2455 010b 0E       		.uleb128 0xe
 2456 010c 1C       		.uleb128 0x1c
 2457 010d 0D       		.uleb128 0xd
 2458 010e 00       		.byte	0
 2459 010f 00       		.byte	0
 2460 0110 17       		.uleb128 0x17
 2461 0111 15       		.uleb128 0x15
 2462 0112 01       		.byte	0x1
 2463 0113 27       		.uleb128 0x27
 2464 0114 19       		.uleb128 0x19
 2465 0115 01       		.uleb128 0x1
 2466 0116 13       		.uleb128 0x13
 2467 0117 00       		.byte	0
 2468 0118 00       		.byte	0
 2469 0119 18       		.uleb128 0x18
 2470 011a 05       		.uleb128 0x5
 2471 011b 00       		.byte	0
 2472 011c 49       		.uleb128 0x49
 2473 011d 13       		.uleb128 0x13
 2474 011e 00       		.byte	0
 2475 011f 00       		.byte	0
 2476 0120 19       		.uleb128 0x19
 2477 0121 13       		.uleb128 0x13
 2478 0122 00       		.byte	0
 2479 0123 03       		.uleb128 0x3
 2480 0124 0E       		.uleb128 0xe
 2481 0125 3C       		.uleb128 0x3c
 2482 0126 19       		.uleb128 0x19
 2483 0127 00       		.byte	0
 2484 0128 00       		.byte	0
 2485 0129 1A       		.uleb128 0x1a
 2486 012a 26       		.uleb128 0x26
 2487 012b 00       		.byte	0
 2488 012c 00       		.byte	0
 2489 012d 00       		.byte	0
 2490 012e 1B       		.uleb128 0x1b
 2491 012f 15       		.uleb128 0x15
 2492 0130 01       		.byte	0x1
 2493 0131 27       		.uleb128 0x27
 2494 0132 19       		.uleb128 0x19
 2495 0133 49       		.uleb128 0x49
 2496 0134 13       		.uleb128 0x13
 2497 0135 01       		.uleb128 0x1
 2498 0136 13       		.uleb128 0x13
 2499 0137 00       		.byte	0
 2500 0138 00       		.byte	0
 2501 0139 1C       		.uleb128 0x1c
 2502 013a 2E       		.uleb128 0x2e
 2503 013b 01       		.byte	0x1
ARM GAS  /tmp/cctRKXcA.s 			page 45


 2504 013c 03       		.uleb128 0x3
 2505 013d 0E       		.uleb128 0xe
 2506 013e 3A       		.uleb128 0x3a
 2507 013f 0B       		.uleb128 0xb
 2508 0140 3B       		.uleb128 0x3b
 2509 0141 0B       		.uleb128 0xb
 2510 0142 27       		.uleb128 0x27
 2511 0143 19       		.uleb128 0x19
 2512 0144 49       		.uleb128 0x49
 2513 0145 13       		.uleb128 0x13
 2514 0146 11       		.uleb128 0x11
 2515 0147 01       		.uleb128 0x1
 2516 0148 12       		.uleb128 0x12
 2517 0149 06       		.uleb128 0x6
 2518 014a 40       		.uleb128 0x40
 2519 014b 18       		.uleb128 0x18
 2520 014c 9642     		.uleb128 0x2116
 2521 014e 19       		.uleb128 0x19
 2522 014f 01       		.uleb128 0x1
 2523 0150 13       		.uleb128 0x13
 2524 0151 00       		.byte	0
 2525 0152 00       		.byte	0
 2526 0153 1D       		.uleb128 0x1d
 2527 0154 05       		.uleb128 0x5
 2528 0155 00       		.byte	0
 2529 0156 03       		.uleb128 0x3
 2530 0157 08       		.uleb128 0x8
 2531 0158 3A       		.uleb128 0x3a
 2532 0159 0B       		.uleb128 0xb
 2533 015a 3B       		.uleb128 0x3b
 2534 015b 0B       		.uleb128 0xb
 2535 015c 49       		.uleb128 0x49
 2536 015d 13       		.uleb128 0x13
 2537 015e 02       		.uleb128 0x2
 2538 015f 18       		.uleb128 0x18
 2539 0160 00       		.byte	0
 2540 0161 00       		.byte	0
 2541 0162 1E       		.uleb128 0x1e
 2542 0163 05       		.uleb128 0x5
 2543 0164 00       		.byte	0
 2544 0165 03       		.uleb128 0x3
 2545 0166 0E       		.uleb128 0xe
 2546 0167 3A       		.uleb128 0x3a
 2547 0168 0B       		.uleb128 0xb
 2548 0169 3B       		.uleb128 0x3b
 2549 016a 0B       		.uleb128 0xb
 2550 016b 49       		.uleb128 0x49
 2551 016c 13       		.uleb128 0x13
 2552 016d 02       		.uleb128 0x2
 2553 016e 18       		.uleb128 0x18
 2554 016f 00       		.byte	0
 2555 0170 00       		.byte	0
 2556 0171 1F       		.uleb128 0x1f
 2557 0172 2E       		.uleb128 0x2e
 2558 0173 01       		.byte	0x1
 2559 0174 03       		.uleb128 0x3
 2560 0175 0E       		.uleb128 0xe
ARM GAS  /tmp/cctRKXcA.s 			page 46


 2561 0176 3A       		.uleb128 0x3a
 2562 0177 0B       		.uleb128 0xb
 2563 0178 3B       		.uleb128 0x3b
 2564 0179 0B       		.uleb128 0xb
 2565 017a 27       		.uleb128 0x27
 2566 017b 19       		.uleb128 0x19
 2567 017c 49       		.uleb128 0x49
 2568 017d 13       		.uleb128 0x13
 2569 017e 11       		.uleb128 0x11
 2570 017f 01       		.uleb128 0x1
 2571 0180 12       		.uleb128 0x12
 2572 0181 06       		.uleb128 0x6
 2573 0182 40       		.uleb128 0x40
 2574 0183 18       		.uleb128 0x18
 2575 0184 9742     		.uleb128 0x2117
 2576 0186 19       		.uleb128 0x19
 2577 0187 01       		.uleb128 0x1
 2578 0188 13       		.uleb128 0x13
 2579 0189 00       		.byte	0
 2580 018a 00       		.byte	0
 2581 018b 20       		.uleb128 0x20
 2582 018c 2E       		.uleb128 0x2e
 2583 018d 01       		.byte	0x1
 2584 018e 03       		.uleb128 0x3
 2585 018f 0E       		.uleb128 0xe
 2586 0190 3A       		.uleb128 0x3a
 2587 0191 0B       		.uleb128 0xb
 2588 0192 3B       		.uleb128 0x3b
 2589 0193 0B       		.uleb128 0xb
 2590 0194 27       		.uleb128 0x27
 2591 0195 19       		.uleb128 0x19
 2592 0196 11       		.uleb128 0x11
 2593 0197 01       		.uleb128 0x1
 2594 0198 12       		.uleb128 0x12
 2595 0199 06       		.uleb128 0x6
 2596 019a 40       		.uleb128 0x40
 2597 019b 18       		.uleb128 0x18
 2598 019c 9642     		.uleb128 0x2116
 2599 019e 19       		.uleb128 0x19
 2600 019f 01       		.uleb128 0x1
 2601 01a0 13       		.uleb128 0x13
 2602 01a1 00       		.byte	0
 2603 01a2 00       		.byte	0
 2604 01a3 21       		.uleb128 0x21
 2605 01a4 34       		.uleb128 0x34
 2606 01a5 00       		.byte	0
 2607 01a6 03       		.uleb128 0x3
 2608 01a7 0E       		.uleb128 0xe
 2609 01a8 3A       		.uleb128 0x3a
 2610 01a9 0B       		.uleb128 0xb
 2611 01aa 3B       		.uleb128 0x3b
 2612 01ab 0B       		.uleb128 0xb
 2613 01ac 49       		.uleb128 0x49
 2614 01ad 13       		.uleb128 0x13
 2615 01ae 02       		.uleb128 0x2
 2616 01af 18       		.uleb128 0x18
 2617 01b0 00       		.byte	0
ARM GAS  /tmp/cctRKXcA.s 			page 47


 2618 01b1 00       		.byte	0
 2619 01b2 22       		.uleb128 0x22
 2620 01b3 01       		.uleb128 0x1
 2621 01b4 01       		.byte	0x1
 2622 01b5 49       		.uleb128 0x49
 2623 01b6 13       		.uleb128 0x13
 2624 01b7 01       		.uleb128 0x1
 2625 01b8 13       		.uleb128 0x13
 2626 01b9 00       		.byte	0
 2627 01ba 00       		.byte	0
 2628 01bb 23       		.uleb128 0x23
 2629 01bc 21       		.uleb128 0x21
 2630 01bd 00       		.byte	0
 2631 01be 49       		.uleb128 0x49
 2632 01bf 13       		.uleb128 0x13
 2633 01c0 2F       		.uleb128 0x2f
 2634 01c1 0B       		.uleb128 0xb
 2635 01c2 00       		.byte	0
 2636 01c3 00       		.byte	0
 2637 01c4 24       		.uleb128 0x24
 2638 01c5 34       		.uleb128 0x34
 2639 01c6 00       		.byte	0
 2640 01c7 03       		.uleb128 0x3
 2641 01c8 0E       		.uleb128 0xe
 2642 01c9 3A       		.uleb128 0x3a
 2643 01ca 0B       		.uleb128 0xb
 2644 01cb 3B       		.uleb128 0x3b
 2645 01cc 05       		.uleb128 0x5
 2646 01cd 49       		.uleb128 0x49
 2647 01ce 13       		.uleb128 0x13
 2648 01cf 3F       		.uleb128 0x3f
 2649 01d0 19       		.uleb128 0x19
 2650 01d1 3C       		.uleb128 0x3c
 2651 01d2 19       		.uleb128 0x19
 2652 01d3 00       		.byte	0
 2653 01d4 00       		.byte	0
 2654 01d5 25       		.uleb128 0x25
 2655 01d6 34       		.uleb128 0x34
 2656 01d7 00       		.byte	0
 2657 01d8 03       		.uleb128 0x3
 2658 01d9 0E       		.uleb128 0xe
 2659 01da 3A       		.uleb128 0x3a
 2660 01db 0B       		.uleb128 0xb
 2661 01dc 3B       		.uleb128 0x3b
 2662 01dd 0B       		.uleb128 0xb
 2663 01de 49       		.uleb128 0x49
 2664 01df 13       		.uleb128 0x13
 2665 01e0 3F       		.uleb128 0x3f
 2666 01e1 19       		.uleb128 0x19
 2667 01e2 02       		.uleb128 0x2
 2668 01e3 18       		.uleb128 0x18
 2669 01e4 00       		.byte	0
 2670 01e5 00       		.byte	0
 2671 01e6 00       		.byte	0
 2672              		.section	.debug_aranges,"",%progbits
 2673 0000 44000000 		.4byte	0x44
 2674 0004 0200     		.2byte	0x2
ARM GAS  /tmp/cctRKXcA.s 			page 48


 2675 0006 00000000 		.4byte	.Ldebug_info0
 2676 000a 04       		.byte	0x4
 2677 000b 00       		.byte	0
 2678 000c 0000     		.2byte	0
 2679 000e 0000     		.2byte	0
 2680 0010 00000000 		.4byte	.LFB111
 2681 0014 68000000 		.4byte	.LFE111-.LFB111
 2682 0018 00000000 		.4byte	.LFB112
 2683 001c 24000000 		.4byte	.LFE112-.LFB112
 2684 0020 00000000 		.4byte	.LFB113
 2685 0024 20000000 		.4byte	.LFE113-.LFB113
 2686 0028 00000000 		.4byte	.LFB114
 2687 002c 20000000 		.4byte	.LFE114-.LFB114
 2688 0030 00000000 		.4byte	.LFB115
 2689 0034 50000000 		.4byte	.LFE115-.LFB115
 2690 0038 00000000 		.4byte	.LFB116
 2691 003c 74000000 		.4byte	.LFE116-.LFB116
 2692 0040 00000000 		.4byte	0
 2693 0044 00000000 		.4byte	0
 2694              		.section	.debug_ranges,"",%progbits
 2695              	.Ldebug_ranges0:
 2696 0000 00000000 		.4byte	.LFB111
 2697 0004 68000000 		.4byte	.LFE111
 2698 0008 00000000 		.4byte	.LFB112
 2699 000c 24000000 		.4byte	.LFE112
 2700 0010 00000000 		.4byte	.LFB113
 2701 0014 20000000 		.4byte	.LFE113
 2702 0018 00000000 		.4byte	.LFB114
 2703 001c 20000000 		.4byte	.LFE114
 2704 0020 00000000 		.4byte	.LFB115
 2705 0024 50000000 		.4byte	.LFE115
 2706 0028 00000000 		.4byte	.LFB116
 2707 002c 74000000 		.4byte	.LFE116
 2708 0030 00000000 		.4byte	0
 2709 0034 00000000 		.4byte	0
 2710              		.section	.debug_line,"",%progbits
 2711              	.Ldebug_line0:
 2712 0000 14050000 		.section	.debug_str,"MS",%progbits,1
 2712      02009004 
 2712      00000201 
 2712      FB0E0D00 
 2712      01010101 
 2713              	.LASF26:
 2714 0000 74726566 		.ascii	"trefs_t\000"
 2714      735F7400 
 2715              	.LASF70:
 2716 0008 4D304152 		.ascii	"M0AR\000"
 2716      00
 2717              	.LASF170:
 2718 000d 4D6F7573 		.ascii	"MouseXYZ\000"
 2718      6558595A 
 2718      00
 2719              	.LASF64:
 2720 0016 7264796D 		.ascii	"rdymsg\000"
 2720      736700
 2721              	.LASF21:
 2722 001d 75696E74 		.ascii	"uint64_t\000"
ARM GAS  /tmp/cctRKXcA.s 			page 49


 2722      36345F74 
 2722      00
 2723              	.LASF92:
 2724 0026 76656374 		.ascii	"vector\000"
 2724      6F7200
 2725              	.LASF96:
 2726 002d 4F545950 		.ascii	"OTYPER\000"
 2726      455200
 2727              	.LASF3:
 2728 0034 5F5F7569 		.ascii	"__uint8_t\000"
 2728      6E74385F 
 2728      7400
 2729              	.LASF109:
 2730 003e 5350495F 		.ascii	"SPI_ACTIVE\000"
 2730      41435449 
 2730      564500
 2731              	.LASF133:
 2732 0049 74797065 		.ascii	"type\000"
 2732      00
 2733              	.LASF136:
 2734 004e 696E6974 		.ascii	"init\000"
 2734      00
 2735              	.LASF88:
 2736 0053 73747265 		.ascii	"stream\000"
 2736      616D00
 2737              	.LASF117:
 2738 005a 646D6172 		.ascii	"dmarx\000"
 2738      7800
 2739              	.LASF95:
 2740 0060 4D4F4445 		.ascii	"MODER\000"
 2740      5200
 2741              	.LASF15:
 2742 0066 6C6F6E67 		.ascii	"long long unsigned int\000"
 2742      206C6F6E 
 2742      6720756E 
 2742      7369676E 
 2742      65642069 
 2743              	.LASF108:
 2744 007d 5350495F 		.ascii	"SPI_READY\000"
 2744      52454144 
 2744      5900
 2745              	.LASF98:
 2746 0087 50555044 		.ascii	"PUPDR\000"
 2746      5200
 2747              	.LASF65:
 2748 008d 65786974 		.ascii	"exitcode\000"
 2748      636F6465 
 2748      00
 2749              	.LASF112:
 2750 0096 53504944 		.ascii	"SPIDriver\000"
 2750      72697665 
 2750      7200
 2751              	.LASF123:
 2752 00a0 7373706F 		.ascii	"ssport\000"
 2752      727400
 2753              	.LASF172:
 2754 00a7 49544D5F 		.ascii	"ITM_RxBuffer\000"
ARM GAS  /tmp/cctRKXcA.s 			page 50


 2754      52784275 
 2754      66666572 
 2754      00
 2755              	.LASF169:
 2756 00b4 72786275 		.ascii	"rxbuf\000"
 2756      6600
 2757              	.LASF35:
 2758 00ba 705F7072 		.ascii	"p_prio\000"
 2758      696F00
 2759              	.LASF151:
 2760 00c1 6D6F7665 		.ascii	"move\000"
 2760      00
 2761              	.LASF124:
 2762 00c6 73737061 		.ascii	"sspad\000"
 2762      6400
 2763              	.LASF17:
 2764 00cc 696E7431 		.ascii	"int16_t\000"
 2764      365F7400 
 2765              	.LASF161:
 2766 00d4 64726976 		.ascii	"driverinstance\000"
 2766      6572696E 
 2766      7374616E 
 2766      636500
 2767              	.LASF13:
 2768 00e3 6C6F6E67 		.ascii	"long long int\000"
 2768      206C6F6E 
 2768      6720696E 
 2768      7400
 2769              	.LASF1:
 2770 00f1 7369676E 		.ascii	"signed char\000"
 2770      65642063 
 2770      68617200 
 2771              	.LASF99:
 2772 00fd 42535252 		.ascii	"BSRR\000"
 2772      00
 2773              	.LASF107:
 2774 0102 5350495F 		.ascii	"SPI_STOP\000"
 2774      53544F50 
 2774      00
 2775              	.LASF83:
 2776 010b 49325343 		.ascii	"I2SCFGR\000"
 2776      46475200 
 2777              	.LASF22:
 2778 0113 626F6F6C 		.ascii	"bool_t\000"
 2778      5F7400
 2779              	.LASF61:
 2780 011a 6D5F7175 		.ascii	"m_queue\000"
 2780      65756500 
 2781              	.LASF66:
 2782 0122 77746F62 		.ascii	"wtobjp\000"
 2782      6A7000
 2783              	.LASF27:
 2784 0129 74736C69 		.ascii	"tslices_t\000"
 2784      6365735F 
 2784      7400
 2785              	.LASF113:
 2786 0133 73746174 		.ascii	"state\000"
ARM GAS  /tmp/cctRKXcA.s 			page 51


 2786      6500
 2787              	.LASF159:
 2788 0139 63616C73 		.ascii	"calsave\000"
 2788      61766500 
 2789              	.LASF10:
 2790 0141 6C6F6E67 		.ascii	"long int\000"
 2790      20696E74 
 2790      00
 2791              	.LASF25:
 2792 014a 74737461 		.ascii	"tstate_t\000"
 2792      74655F74 
 2792      00
 2793              	.LASF126:
 2794 0153 73797374 		.ascii	"systemticks_t\000"
 2794      656D7469 
 2794      636B735F 
 2794      7400
 2795              	.LASF87:
 2796 0161 5350495F 		.ascii	"SPI_TypeDef\000"
 2796      54797065 
 2796      44656600 
 2797              	.LASF155:
 2798 016d 7A5F746F 		.ascii	"z_touchon\000"
 2798      7563686F 
 2798      6E00
 2799              	.LASF37:
 2800 0177 705F6E65 		.ascii	"p_newer\000"
 2800      77657200 
 2801              	.LASF122:
 2802 017f 656E645F 		.ascii	"end_cb\000"
 2802      636200
 2803              	.LASF119:
 2804 0186 7278646D 		.ascii	"rxdmamode\000"
 2804      616D6F64 
 2804      6500
 2805              	.LASF103:
 2806 0190 4750494F 		.ascii	"GPIO_TypeDef\000"
 2806      5F547970 
 2806      65446566 
 2806      00
 2807              	.LASF148:
 2808 019d 474D6F75 		.ascii	"GMouseJitter\000"
 2808      73654A69 
 2808      74746572 
 2808      00
 2809              	.LASF118:
 2810 01aa 646D6174 		.ascii	"dmatx\000"
 2810      7800
 2811              	.LASF97:
 2812 01b0 4F535045 		.ascii	"OSPEEDR\000"
 2812      45445200 
 2813              	.LASF11:
 2814 01b8 5F5F7569 		.ascii	"__uint32_t\000"
 2814      6E743332 
 2814      5F7400
 2815              	.LASF52:
 2816 01c3 705F6D70 		.ascii	"p_mpool\000"
ARM GAS  /tmp/cctRKXcA.s 			page 52


 2816      6F6F6C00 
 2817              	.LASF55:
 2818 01cb 72656761 		.ascii	"regarm_t\000"
 2818      726D5F74 
 2818      00
 2819              	.LASF91:
 2820 01d4 73656C66 		.ascii	"selfindex\000"
 2820      696E6465 
 2820      7800
 2821              	.LASF140:
 2822 01de 62757474 		.ascii	"buttons\000"
 2822      6F6E7300 
 2823              	.LASF2:
 2824 01e6 73697A65 		.ascii	"size_t\000"
 2824      5F7400
 2825              	.LASF121:
 2826 01ed 73706963 		.ascii	"spicallback_t\000"
 2826      616C6C62 
 2826      61636B5F 
 2826      7400
 2827              	.LASF154:
 2828 01fb 7A5F6D69 		.ascii	"z_min\000"
 2828      6E00
 2829              	.LASF157:
 2830 0201 70656E5F 		.ascii	"pen_jitter\000"
 2830      6A697474 
 2830      657200
 2831              	.LASF167:
 2832 020c 706F7274 		.ascii	"port\000"
 2832      00
 2833              	.LASF135:
 2834 0211 6F626A73 		.ascii	"objsize\000"
 2834      697A6500 
 2835              	.LASF40:
 2836 0219 705F7374 		.ascii	"p_stklimit\000"
 2836      6B6C696D 
 2836      697400
 2837              	.LASF0:
 2838 0224 756E7369 		.ascii	"unsigned int\000"
 2838      676E6564 
 2838      20696E74 
 2838      00
 2839              	.LASF168:
 2840 0231 74786275 		.ascii	"txbuf\000"
 2840      6600
 2841              	.LASF45:
 2842 0237 705F7469 		.ascii	"p_time\000"
 2842      6D6500
 2843              	.LASF127:
 2844 023e 706F696E 		.ascii	"point\000"
 2844      7400
 2845              	.LASF47:
 2846 0244 705F6D73 		.ascii	"p_msgqueue\000"
 2846      67717565 
 2846      756500
 2847              	.LASF100:
 2848 024f 4C434B52 		.ascii	"LCKR\000"
ARM GAS  /tmp/cctRKXcA.s 			page 53


 2848      00
 2849              	.LASF90:
 2850 0254 69736869 		.ascii	"ishift\000"
 2850      667400
 2851              	.LASF8:
 2852 025b 73686F72 		.ascii	"short unsigned int\000"
 2852      7420756E 
 2852      7369676E 
 2852      65642069 
 2852      6E7400
 2853              	.LASF29:
 2854 026e 6D73675F 		.ascii	"msg_t\000"
 2854      7400
 2855              	.LASF149:
 2856 0274 63616C69 		.ascii	"calibrate\000"
 2856      62726174 
 2856      6500
 2857              	.LASF129:
 2858 027e 47446973 		.ascii	"GDisplay\000"
 2858      706C6179 
 2858      00
 2859              	.LASF24:
 2860 0287 746D6F64 		.ascii	"tmode_t\000"
 2860      655F7400 
 2861              	.LASF18:
 2862 028f 75696E74 		.ascii	"uint16_t\000"
 2862      31365F74 
 2862      00
 2863              	.LASF54:
 2864 0298 54687265 		.ascii	"ThreadsList\000"
 2864      6164734C 
 2864      69737400 
 2865              	.LASF30:
 2866 02a4 6576656E 		.ascii	"eventmask_t\000"
 2866      746D6173 
 2866      6B5F7400 
 2867              	.LASF158:
 2868 02b0 66696E67 		.ascii	"finger_jitter\000"
 2868      65725F6A 
 2868      69747465 
 2868      7200
 2869              	.LASF56:
 2870 02be 73746B61 		.ascii	"stkalign_t\000"
 2870      6C69676E 
 2870      5F7400
 2871              	.LASF85:
 2872 02c9 49325350 		.ascii	"I2SPR\000"
 2872      5200
 2873              	.LASF59:
 2874 02cf 73697A65 		.ascii	"sizetype\000"
 2874      74797065 
 2874      00
 2875              	.LASF175:
 2876 02d8 474E5520 		.ascii	"GNU C 4.9.3 20150303 (release) [ARM/embedded-4_9-br"
 2876      4320342E 
 2876      392E3320 
 2876      32303135 
ARM GAS  /tmp/cctRKXcA.s 			page 54


 2876      30333033 
 2877 030b 616E6368 		.ascii	"anch revision 221220] -mcpu=cortex-m4 -mfloat-abi=h"
 2877      20726576 
 2877      6973696F 
 2877      6E203232 
 2877      31323230 
 2878 033e 61726420 		.ascii	"ard -mfpu=fpv4-sp-d16 -mno-thumb-interwork -mthumb "
 2878      2D6D6670 
 2878      753D6670 
 2878      76342D73 
 2878      702D6431 
 2879 0371 2D676764 		.ascii	"-ggdb -fomit-frame-pointer -falign-functions=16 -ff"
 2879      62202D66 
 2879      6F6D6974 
 2879      2D667261 
 2879      6D652D70 
 2880 03a4 756E6374 		.ascii	"unction-sections -fdata-sections -fno-common -fsing"
 2880      696F6E2D 
 2880      73656374 
 2880      696F6E73 
 2880      202D6664 
 2881 03d7 6C652D70 		.ascii	"le-precision-constant\000"
 2881      72656369 
 2881      73696F6E 
 2881      2D636F6E 
 2881      7374616E 
 2882              	.LASF174:
 2883 03ed 474D4F55 		.ascii	"GMOUSEVMT_OnlyOne\000"
 2883      5345564D 
 2883      545F4F6E 
 2883      6C794F6E 
 2883      6500
 2884              	.LASF60:
 2885 03ff 4D757465 		.ascii	"Mutex\000"
 2885      7800
 2886              	.LASF152:
 2887 0405 474D6F75 		.ascii	"GMouseVMT\000"
 2887      7365564D 
 2887      5400
 2888              	.LASF104:
 2889 040f 696F706F 		.ascii	"ioportmask_t\000"
 2889      72746D61 
 2889      736B5F74 
 2889      00
 2890              	.LASF163:
 2891 041c 67657470 		.ascii	"getpin_pressed\000"
 2891      696E5F70 
 2891      72657373 
 2891      656400
 2892              	.LASF38:
 2893 042b 705F6F6C 		.ascii	"p_older\000"
 2893      64657200 
 2894              	.LASF53:
 2895 0433 54687265 		.ascii	"ThreadsQueue\000"
 2895      61647351 
 2895      75657565 
 2895      00
ARM GAS  /tmp/cctRKXcA.s 			page 55


 2896              	.LASF120:
 2897 0440 7478646D 		.ascii	"txdmamode\000"
 2897      616D6F64 
 2897      6500
 2898              	.LASF171:
 2899 044a 73706963 		.ascii	"spicfg\000"
 2899      666700
 2900              	.LASF128:
 2901 0451 636F6F72 		.ascii	"coord_t\000"
 2901      645F7400 
 2902              	.LASF147:
 2903 0459 63616C64 		.ascii	"caldata\000"
 2903      61746100 
 2904              	.LASF145:
 2905 0461 636C6963 		.ascii	"clicktime\000"
 2905      6B74696D 
 2905      6500
 2906              	.LASF14:
 2907 046b 5F5F7569 		.ascii	"__uint64_t\000"
 2907      6E743634 
 2907      5F7400
 2908              	.LASF102:
 2909 0476 41465248 		.ascii	"AFRH\000"
 2909      00
 2910              	.LASF142:
 2911 047b 666C6F61 		.ascii	"float\000"
 2911      7400
 2912              	.LASF77:
 2913 0481 43524350 		.ascii	"CRCPR\000"
 2913      5200
 2914              	.LASF101:
 2915 0487 4146524C 		.ascii	"AFRL\000"
 2915      00
 2916              	.LASF89:
 2917 048c 69666372 		.ascii	"ifcr\000"
 2917      00
 2918              	.LASF73:
 2919 0491 52455345 		.ascii	"RESERVED0\000"
 2919      52564544 
 2919      3000
 2920              	.LASF74:
 2921 049b 52455345 		.ascii	"RESERVED1\000"
 2921      52564544 
 2921      3100
 2922              	.LASF75:
 2923 04a5 52455345 		.ascii	"RESERVED2\000"
 2923      52564544 
 2923      3200
 2924              	.LASF76:
 2925 04af 52455345 		.ascii	"RESERVED3\000"
 2925      52564544 
 2925      3300
 2926              	.LASF78:
 2927 04b9 52455345 		.ascii	"RESERVED4\000"
 2927      52564544 
 2927      3400
 2928              	.LASF34:
ARM GAS  /tmp/cctRKXcA.s 			page 56


 2929 04c3 705F7072 		.ascii	"p_prev\000"
 2929      657600
 2930              	.LASF82:
 2931 04ca 52455345 		.ascii	"RESERVED6\000"
 2931      52564544 
 2931      3600
 2932              	.LASF84:
 2933 04d4 52455345 		.ascii	"RESERVED7\000"
 2933      52564544 
 2933      3700
 2934              	.LASF86:
 2935 04de 52455345 		.ascii	"RESERVED8\000"
 2935      52564544 
 2935      3800
 2936              	.LASF28:
 2937 04e8 74707269 		.ascii	"tprio_t\000"
 2937      6F5F7400 
 2938              	.LASF116:
 2939 04f0 6D757465 		.ascii	"mutex\000"
 2939      7800
 2940              	.LASF141:
 2941 04f6 474D6F75 		.ascii	"GMouseCalibration\000"
 2941      73654361 
 2941      6C696272 
 2941      6174696F 
 2941      6E00
 2942              	.LASF139:
 2943 0508 474D6F75 		.ascii	"GMouseReading\000"
 2943      73655265 
 2943      6164696E 
 2943      6700
 2944              	.LASF19:
 2945 0516 696E7433 		.ascii	"int32_t\000"
 2945      325F7400 
 2946              	.LASF4:
 2947 051e 756E7369 		.ascii	"unsigned char\000"
 2947      676E6564 
 2947      20636861 
 2947      7200
 2948              	.LASF93:
 2949 052c 73746D33 		.ascii	"stm32_dma_stream_t\000"
 2949      325F646D 
 2949      615F7374 
 2949      7265616D 
 2949      5F7400
 2950              	.LASF173:
 2951 053f 53504944 		.ascii	"SPID2\000"
 2951      3200
 2952              	.LASF41:
 2953 0545 705F7374 		.ascii	"p_state\000"
 2953      61746500 
 2954              	.LASF50:
 2955 054d 705F6D74 		.ascii	"p_mtxlist\000"
 2955      786C6973 
 2955      7400
 2956              	.LASF6:
 2957 0557 73686F72 		.ascii	"short int\000"
ARM GAS  /tmp/cctRKXcA.s 			page 57


 2957      7420696E 
 2957      7400
 2958              	.LASF165:
 2959 0561 72656C65 		.ascii	"release_bus\000"
 2959      6173655F 
 2959      62757300 
 2960              	.LASF44:
 2961 056d 705F7072 		.ascii	"p_preempt\000"
 2961      65656D70 
 2961      7400
 2962              	.LASF67:
 2963 0577 65776D61 		.ascii	"ewmask\000"
 2963      736B00
 2964              	.LASF33:
 2965 057e 705F6E65 		.ascii	"p_next\000"
 2965      787400
 2966              	.LASF42:
 2967 0585 705F666C 		.ascii	"p_flags\000"
 2967      61677300 
 2968              	.LASF176:
 2969 058d 2F686F6D 		.ascii	"/home/makkmarci/workspace/ugfx/drivers/ginput/touch"
 2969      652F6D61 
 2969      6B6B6D61 
 2969      7263692F 
 2969      776F726B 
 2970 05c0 2F414453 		.ascii	"/ADS7843/gmouse_lld_ADS7843.c\000"
 2970      37383433 
 2970      2F676D6F 
 2970      7573655F 
 2970      6C6C645F 
 2971              	.LASF164:
 2972 05de 61717569 		.ascii	"aquire_bus\000"
 2972      72655F62 
 2972      757300
 2973              	.LASF49:
 2974 05e9 705F6570 		.ascii	"p_epending\000"
 2974      656E6469 
 2974      6E6700
 2975              	.LASF94:
 2976 05f4 636C6561 		.ascii	"clear\000"
 2976      7200
 2977              	.LASF80:
 2978 05fa 52455345 		.ascii	"RESERVED5\000"
 2978      52564544 
 2978      3500
 2979              	.LASF138:
 2980 0604 6465696E 		.ascii	"deinit\000"
 2980      697400
 2981              	.LASF160:
 2982 060b 63616C6C 		.ascii	"calload\000"
 2982      6F616400 
 2983              	.LASF143:
 2984 0613 474D6F75 		.ascii	"GMouse\000"
 2984      736500
 2985              	.LASF12:
 2986 061a 6C6F6E67 		.ascii	"long unsigned int\000"
 2986      20756E73 
ARM GAS  /tmp/cctRKXcA.s 			page 58


 2986      69676E65 
 2986      6420696E 
 2986      7400
 2987              	.LASF166:
 2988 062c 72656164 		.ascii	"read_value\000"
 2988      5F76616C 
 2988      756500
 2989              	.LASF68:
 2990 0637 63686172 		.ascii	"char\000"
 2990      00
 2991              	.LASF110:
 2992 063c 5350495F 		.ascii	"SPI_COMPLETE\000"
 2992      434F4D50 
 2992      4C455445 
 2992      00
 2993              	.LASF114:
 2994 0649 636F6E66 		.ascii	"config\000"
 2994      696700
 2995              	.LASF81:
 2996 0650 54584352 		.ascii	"TXCRCR\000"
 2996      435200
 2997              	.LASF7:
 2998 0657 5F5F7569 		.ascii	"__uint16_t\000"
 2998      6E743136 
 2998      5F7400
 2999              	.LASF137:
 3000 0662 706F7374 		.ascii	"postinit\000"
 3000      696E6974 
 3000      00
 3001              	.LASF130:
 3002 066b 47447269 		.ascii	"GDriver\000"
 3002      76657200 
 3003              	.LASF111:
 3004 0673 73706973 		.ascii	"spistate_t\000"
 3004      74617465 
 3004      5F7400
 3005              	.LASF63:
 3006 067e 6D5F6E65 		.ascii	"m_next\000"
 3006      787400
 3007              	.LASF31:
 3008 0685 73797374 		.ascii	"systime_t\000"
 3008      696D655F 
 3008      7400
 3009              	.LASF51:
 3010 068f 705F7265 		.ascii	"p_realprio\000"
 3010      616C7072 
 3010      696F00
 3011              	.LASF9:
 3012 069a 5F5F696E 		.ascii	"__int32_t\000"
 3012      7433325F 
 3012      7400
 3013              	.LASF115:
 3014 06a4 74687265 		.ascii	"thread\000"
 3014      616400
 3015              	.LASF69:
 3016 06ab 4E445452 		.ascii	"NDTR\000"
 3016      00
ARM GAS  /tmp/cctRKXcA.s 			page 59


 3017              	.LASF72:
 3018 06b0 444D415F 		.ascii	"DMA_Stream_TypeDef\000"
 3018      53747265 
 3018      616D5F54 
 3018      79706544 
 3018      656600
 3019              	.LASF105:
 3020 06c3 696F706F 		.ascii	"ioportid_t\000"
 3020      72746964 
 3020      5F7400
 3021              	.LASF58:
 3022 06ce 636F6E74 		.ascii	"context\000"
 3022      65787400 
 3023              	.LASF57:
 3024 06d6 696E7463 		.ascii	"intctx\000"
 3024      747800
 3025              	.LASF71:
 3026 06dd 4D314152 		.ascii	"M1AR\000"
 3026      00
 3027              	.LASF106:
 3028 06e2 5350495F 		.ascii	"SPI_UNINIT\000"
 3028      554E494E 
 3028      495400
 3029              	.LASF146:
 3030 06ed 64697370 		.ascii	"display\000"
 3030      6C617900 
 3031              	.LASF20:
 3032 06f5 75696E74 		.ascii	"uint32_t\000"
 3032      33325F74 
 3032      00
 3033              	.LASF23:
 3034 06fe 5F426F6F 		.ascii	"_Bool\000"
 3034      6C00
 3035              	.LASF39:
 3036 0704 705F6E61 		.ascii	"p_name\000"
 3036      6D6500
 3037              	.LASF43:
 3038 070b 705F7265 		.ascii	"p_refs\000"
 3038      667300
 3039              	.LASF32:
 3040 0712 54687265 		.ascii	"Thread\000"
 3040      616400
 3041              	.LASF79:
 3042 0719 52584352 		.ascii	"RXCRCR\000"
 3042      435200
 3043              	.LASF48:
 3044 0720 705F6D73 		.ascii	"p_msg\000"
 3044      6700
 3045              	.LASF16:
 3046 0726 75696E74 		.ascii	"uint8_t\000"
 3046      385F7400 
 3047              	.LASF134:
 3048 072e 666C6167 		.ascii	"flags\000"
 3048      7300
 3049              	.LASF150:
 3050 0734 636C6963 		.ascii	"click\000"
 3050      6B00
ARM GAS  /tmp/cctRKXcA.s 			page 60


 3051              	.LASF5:
 3052 073a 5F5F696E 		.ascii	"__int16_t\000"
 3052      7431365F 
 3052      7400
 3053              	.LASF131:
 3054 0744 64726976 		.ascii	"driverchain\000"
 3054      65726368 
 3054      61696E00 
 3055              	.LASF132:
 3056 0750 47447269 		.ascii	"GDriverVMT\000"
 3056      76657256 
 3056      4D5400
 3057              	.LASF125:
 3058 075b 53504943 		.ascii	"SPIConfig\000"
 3058      6F6E6669 
 3058      6700
 3059              	.LASF144:
 3060 0765 636C6963 		.ascii	"clickpos\000"
 3060      6B706F73 
 3060      00
 3061              	.LASF162:
 3062 076e 696E6974 		.ascii	"init_board\000"
 3062      5F626F61 
 3062      726400
 3063              	.LASF156:
 3064 0779 7A5F746F 		.ascii	"z_touchoff\000"
 3064      7563686F 
 3064      666600
 3065              	.LASF62:
 3066 0784 6D5F6F77 		.ascii	"m_owner\000"
 3066      6E657200 
 3067              	.LASF153:
 3068 078c 7A5F6D61 		.ascii	"z_max\000"
 3068      7800
 3069              	.LASF36:
 3070 0792 705F6374 		.ascii	"p_ctx\000"
 3070      7800
 3071              	.LASF46:
 3072 0798 705F7761 		.ascii	"p_waiting\000"
 3072      6974696E 
 3072      6700
 3073              		.ident	"GCC: (GNU Tools for ARM Embedded Processors) 4.9.3 20150303 (release) [ARM/embedded-4_9-br
ARM GAS  /tmp/cctRKXcA.s 			page 61


DEFINED SYMBOLS
                            *ABS*:00000000 gmouse_lld_ADS7843.c
     /tmp/cctRKXcA.s:21     .rodata.spicfg:00000000 $d
     /tmp/cctRKXcA.s:24     .rodata.spicfg:00000000 spicfg
     /tmp/cctRKXcA.s:30     .text.init_board:00000000 $t
     /tmp/cctRKXcA.s:35     .text.init_board:00000000 init_board
     /tmp/cctRKXcA.s:93     .text.init_board:00000058 $d
     /tmp/cctRKXcA.s:101    .text.getpin_pressed:00000000 $t
     /tmp/cctRKXcA.s:106    .text.getpin_pressed:00000000 getpin_pressed
     /tmp/cctRKXcA.s:135    .text.getpin_pressed:00000020 $d
     /tmp/cctRKXcA.s:140    .text.aquire_bus:00000000 $t
     /tmp/cctRKXcA.s:145    .text.aquire_bus:00000000 aquire_bus
     /tmp/cctRKXcA.s:172    .text.aquire_bus:00000018 $d
     /tmp/cctRKXcA.s:178    .text.release_bus:00000000 $t
     /tmp/cctRKXcA.s:183    .text.release_bus:00000000 release_bus
     /tmp/cctRKXcA.s:210    .text.release_bus:00000018 $d
     /tmp/cctRKXcA.s:216    .text.read_value:00000000 $t
     /tmp/cctRKXcA.s:221    .text.read_value:00000000 read_value
     /tmp/cctRKXcA.s:268    .text.read_value:00000044 $d
     /tmp/cctRKXcA.s:389    .bss.txbuf.7958:00000000 txbuf.7958
     /tmp/cctRKXcA.s:395    .bss.rxbuf.7959:00000000 rxbuf.7959
     /tmp/cctRKXcA.s:275    .text.MouseXYZ:00000000 $t
     /tmp/cctRKXcA.s:280    .text.MouseXYZ:00000000 MouseXYZ
     /tmp/cctRKXcA.s:363    .rodata.GMOUSEVMT_OnlyOne:00000000 GMOUSEVMT_OnlyOne
     /tmp/cctRKXcA.s:360    .rodata.GMOUSEVMT_OnlyOne:00000000 $d
     /tmp/cctRKXcA.s:386    .bss.txbuf.7958:00000000 $d
     /tmp/cctRKXcA.s:392    .bss.rxbuf.7959:00000000 $d
                     .debug_frame:00000010 $d
     /tmp/cctRKXcA.s:100    .text.init_board:00000068 $t
     /tmp/cctRKXcA.s:139    .text.getpin_pressed:00000024 $t

UNDEFINED SYMBOLS
_pal_lld_setgroupmode
spiStart
SPID2
spiAcquireBus
spiReleaseBus
spiExchange
_gmouseInitDriver
_gmousePostInitDriver
_gmouseDeInitDriver
