ARM GAS  /tmp/ccYGSUgk.s 			page 1


   1              		.syntax unified
   2              		.cpu cortex-m4
   3              		.eabi_attribute 27, 1
   4              		.eabi_attribute 28, 1
   5              		.fpu fpv4-sp-d16
   6              		.eabi_attribute 20, 1
   7              		.eabi_attribute 21, 1
   8              		.eabi_attribute 23, 3
   9              		.eabi_attribute 24, 1
  10              		.eabi_attribute 25, 1
  11              		.eabi_attribute 26, 1
  12              		.eabi_attribute 30, 6
  13              		.eabi_attribute 34, 1
  14              		.eabi_attribute 18, 4
  15              		.thumb
  16              		.file	"gos_chibios.c"
  17              		.text
  18              	.Ltext0:
  19              		.cfi_sections	.debug_frame
  20              		.section	.text._gosInit,"ax",%progbits
  21              		.align	2
  22              		.p2align 4,,15
  23              		.global	_gosInit
  24              		.thumb
  25              		.thumb_func
  26              		.type	_gosInit, %function
  27              	_gosInit:
  28              	.LFB111:
  29              		.file 1 "/home/makkmarci/workspace/ugfx/src/gos/gos_chibios.c"
  30              		.loc 1 37 0
  31              		.cfi_startproc
  32              		@ args = 0, pretend = 0, frame = 0
  33              		@ frame_needed = 0, uses_anonymous_args = 0
  34 0000 08B5     		push	{r3, lr}
  35              		.cfi_def_cfa_offset 8
  36              		.cfi_offset 3, -8
  37              		.cfi_offset 14, -4
  38              		.loc 1 41 0
  39 0002 044B     		ldr	r3, .L3
  40 0004 9B69     		ldr	r3, [r3, #24]
  41 0006 002B     		cmp	r3, #0
  42 0008 03D1     		bne	.L1
  43              		.loc 1 42 0
  44 000a FFF7FEFF 		bl	halInit
  45              		.loc 1 43 0
  46 000e FFF7FEFF 		bl	chSysInit
  47              	.L1:
  48              		.loc 1 54 0
  49 0012 08BD     		pop	{r3, pc}
  50              	.L4:
  51              		.align	2
  52              	.L3:
  53 0014 00000000 		.word	rlist
  54              		.cfi_endproc
  55              	.LFE111:
  56              		.size	_gosInit, .-_gosInit
  57 0018 AFF30080 		.section	.text._gosDeinit,"ax",%progbits
ARM GAS  /tmp/ccYGSUgk.s 			page 2


  57      AFF30080 
  58              		.align	2
  59              		.p2align 4,,15
  60              		.global	_gosDeinit
  61              		.thumb
  62              		.thumb_func
  63              		.type	_gosDeinit, %function
  64              	_gosDeinit:
  65              	.LFB112:
  66              		.loc 1 57 0
  67              		.cfi_startproc
  68              		@ args = 0, pretend = 0, frame = 0
  69              		@ frame_needed = 0, uses_anonymous_args = 0
  70              		@ link register save eliminated.
  71              		.loc 1 59 0
  72 0000 7047     		bx	lr
  73              		.cfi_endproc
  74              	.LFE112:
  75              		.size	_gosDeinit, .-_gosDeinit
  76 0002 00BFAFF3 		.section	.text.gfxRealloc,"ax",%progbits
  76      0080AFF3 
  76      0080AFF3 
  76      0080
  77              		.align	2
  78              		.p2align 4,,15
  79              		.global	gfxRealloc
  80              		.thumb
  81              		.thumb_func
  82              		.type	gfxRealloc, %function
  83              	gfxRealloc:
  84              	.LFB113:
  85              		.loc 1 62 0
  86              		.cfi_startproc
  87              		@ args = 0, pretend = 0, frame = 24
  88              		@ frame_needed = 0, uses_anonymous_args = 0
  89 0000 00B5     		push	{lr}
  90              		.cfi_def_cfa_offset 4
  91              		.cfi_offset 14, -4
  92 0002 87B0     		sub	sp, sp, #28
  93              		.cfi_def_cfa_offset 32
  94 0004 0390     		str	r0, [sp, #12]
  95 0006 0291     		str	r1, [sp, #8]
  96 0008 0192     		str	r2, [sp, #4]
  97              		.loc 1 65 0
  98 000a 019A     		ldr	r2, [sp, #4]
  99 000c 029B     		ldr	r3, [sp, #8]
 100 000e 9A42     		cmp	r2, r3
 101 0010 01D8     		bhi	.L7
 102              		.loc 1 66 0
 103 0012 039B     		ldr	r3, [sp, #12]
 104 0014 12E0     		b	.L8
 105              	.L7:
 106              		.loc 1 68 0
 107 0016 0020     		movs	r0, #0
 108 0018 0199     		ldr	r1, [sp, #4]
 109 001a FFF7FEFF 		bl	chHeapAlloc
 110 001e 0590     		str	r0, [sp, #20]
ARM GAS  /tmp/ccYGSUgk.s 			page 3


 111              		.loc 1 69 0
 112 0020 059B     		ldr	r3, [sp, #20]
 113 0022 002B     		cmp	r3, #0
 114 0024 01D1     		bne	.L9
 115              		.loc 1 70 0
 116 0026 0023     		movs	r3, #0
 117 0028 08E0     		b	.L8
 118              	.L9:
 119              		.loc 1 72 0
 120 002a 029B     		ldr	r3, [sp, #8]
 121 002c 002B     		cmp	r3, #0
 122 002e 04D0     		beq	.L10
 123              		.loc 1 73 0
 124 0030 0598     		ldr	r0, [sp, #20]
 125 0032 0399     		ldr	r1, [sp, #12]
 126 0034 029A     		ldr	r2, [sp, #8]
 127 0036 FFF7FEFF 		bl	memcpy
 128              	.L10:
 129              		.loc 1 75 0
 130 003a 059B     		ldr	r3, [sp, #20]
 131              	.L8:
 132              		.loc 1 76 0
 133 003c 1846     		mov	r0, r3
 134 003e 07B0     		add	sp, sp, #28
 135              		.cfi_def_cfa_offset 4
 136              		@ sp needed
 137 0040 5DF804FB 		ldr	pc, [sp], #4
 138              		.cfi_endproc
 139              	.LFE113:
 140              		.size	gfxRealloc, .-gfxRealloc
 141 0044 AFF30080 		.section	.text.gfxSleepMilliseconds,"ax",%progbits
 141      AFF30080 
 141      AFF30080 
 142              		.align	2
 143              		.p2align 4,,15
 144              		.global	gfxSleepMilliseconds
 145              		.thumb
 146              		.thumb_func
 147              		.type	gfxSleepMilliseconds, %function
 148              	gfxSleepMilliseconds:
 149              	.LFB114:
 150              		.loc 1 79 0
 151              		.cfi_startproc
 152              		@ args = 0, pretend = 0, frame = 8
 153              		@ frame_needed = 0, uses_anonymous_args = 0
 154 0000 00B5     		push	{lr}
 155              		.cfi_def_cfa_offset 4
 156              		.cfi_offset 14, -4
 157 0002 83B0     		sub	sp, sp, #12
 158              		.cfi_def_cfa_offset 16
 159 0004 0190     		str	r0, [sp, #4]
 160              		.loc 1 80 0
 161 0006 019B     		ldr	r3, [sp, #4]
 162 0008 002B     		cmp	r3, #0
 163 000a 03D0     		beq	.L13
 164 000c B3F1FF3F 		cmp	r3, #-1
 165 0010 03D0     		beq	.L14
ARM GAS  /tmp/ccYGSUgk.s 			page 4


 166 0012 07E0     		b	.L16
 167              	.L13:
 168              		.loc 1 81 0
 169 0014 FFF7FEFF 		bl	chThdYield
 170 0018 13E0     		b	.L11
 171              	.L14:
 172              		.loc 1 82 0
 173 001a 4FF0FF30 		mov	r0, #-1
 174 001e FFF7FEFF 		bl	chThdSleep
 175 0022 0EE0     		b	.L11
 176              	.L16:
 177              		.loc 1 83 0
 178 0024 019B     		ldr	r3, [sp, #4]
 179 0026 4FF47A72 		mov	r2, #1000
 180 002a 02FB03F3 		mul	r3, r2, r3
 181 002e 013B     		subs	r3, r3, #1
 182 0030 054A     		ldr	r2, .L17
 183 0032 A2FB0323 		umull	r2, r3, r2, r3
 184 0036 9B09     		lsrs	r3, r3, #6
 185 0038 0133     		adds	r3, r3, #1
 186 003a 1846     		mov	r0, r3
 187 003c FFF7FEFF 		bl	chThdSleep
 188 0040 00BF     		nop
 189              	.L11:
 190              		.loc 1 85 0
 191 0042 03B0     		add	sp, sp, #12
 192              		.cfi_def_cfa_offset 4
 193              		@ sp needed
 194 0044 5DF804FB 		ldr	pc, [sp], #4
 195              	.L18:
 196              		.align	2
 197              	.L17:
 198 0048 D34D6210 		.word	274877907
 199              		.cfi_endproc
 200              	.LFE114:
 201              		.size	gfxSleepMilliseconds, .-gfxSleepMilliseconds
 202 004c AFF30080 		.section	.text.gfxSleepMicroseconds,"ax",%progbits
 203              		.align	2
 204              		.p2align 4,,15
 205              		.global	gfxSleepMicroseconds
 206              		.thumb
 207              		.thumb_func
 208              		.type	gfxSleepMicroseconds, %function
 209              	gfxSleepMicroseconds:
 210              	.LFB115:
 211              		.loc 1 88 0
 212              		.cfi_startproc
 213              		@ args = 0, pretend = 0, frame = 8
 214              		@ frame_needed = 0, uses_anonymous_args = 0
 215 0000 00B5     		push	{lr}
 216              		.cfi_def_cfa_offset 4
 217              		.cfi_offset 14, -4
 218 0002 83B0     		sub	sp, sp, #12
 219              		.cfi_def_cfa_offset 16
 220 0004 0190     		str	r0, [sp, #4]
 221              		.loc 1 89 0
 222 0006 019B     		ldr	r3, [sp, #4]
ARM GAS  /tmp/ccYGSUgk.s 			page 5


 223 0008 002B     		cmp	r3, #0
 224 000a 17D0     		beq	.L25
 225 000c B3F1FF3F 		cmp	r3, #-1
 226 0010 04D1     		bne	.L24
 227              		.loc 1 91 0
 228 0012 4FF0FF30 		mov	r0, #-1
 229 0016 FFF7FEFF 		bl	chThdSleep
 230 001a 10E0     		b	.L19
 231              	.L24:
 232              		.loc 1 92 0
 233 001c 019B     		ldr	r3, [sp, #4]
 234 001e 4FF47A72 		mov	r2, #1000
 235 0022 02FB03F3 		mul	r3, r2, r3
 236 0026 013B     		subs	r3, r3, #1
 237 0028 064A     		ldr	r2, .L26
 238 002a A2FB0323 		umull	r2, r3, r2, r3
 239 002e 9B0C     		lsrs	r3, r3, #18
 240 0030 0133     		adds	r3, r3, #1
 241 0032 1846     		mov	r0, r3
 242 0034 FFF7FEFF 		bl	chThdSleep
 243 0038 00BF     		nop
 244 003a 00E0     		b	.L19
 245              	.L25:
 246              		.loc 1 90 0
 247 003c 00BF     		nop
 248              	.L19:
 249              		.loc 1 94 0
 250 003e 03B0     		add	sp, sp, #12
 251              		.cfi_def_cfa_offset 4
 252              		@ sp needed
 253 0040 5DF804FB 		ldr	pc, [sp], #4
 254              	.L27:
 255              		.align	2
 256              	.L26:
 257 0044 83DE1B43 		.word	1125899907
 258              		.cfi_endproc
 259              	.LFE115:
 260              		.size	gfxSleepMicroseconds, .-gfxSleepMicroseconds
 261 0048 AFF30080 		.section	.text.gfxSemInit,"ax",%progbits
 261      AFF30080 
 262              		.align	2
 263              		.p2align 4,,15
 264              		.global	gfxSemInit
 265              		.thumb
 266              		.thumb_func
 267              		.type	gfxSemInit, %function
 268              	gfxSemInit:
 269              	.LFB116:
 270              		.loc 1 97 0
 271              		.cfi_startproc
 272              		@ args = 0, pretend = 0, frame = 16
 273              		@ frame_needed = 0, uses_anonymous_args = 0
 274 0000 00B5     		push	{lr}
 275              		.cfi_def_cfa_offset 4
 276              		.cfi_offset 14, -4
 277 0002 85B0     		sub	sp, sp, #20
 278              		.cfi_def_cfa_offset 24
ARM GAS  /tmp/ccYGSUgk.s 			page 6


 279 0004 0390     		str	r0, [sp, #12]
 280 0006 0291     		str	r1, [sp, #8]
 281 0008 0192     		str	r2, [sp, #4]
 282              		.loc 1 98 0
 283 000a 029A     		ldr	r2, [sp, #8]
 284 000c 019B     		ldr	r3, [sp, #4]
 285 000e 9A42     		cmp	r2, r3
 286 0010 01DD     		ble	.L29
 287              		.loc 1 99 0
 288 0012 019B     		ldr	r3, [sp, #4]
 289 0014 0293     		str	r3, [sp, #8]
 290              	.L29:
 291              		.loc 1 101 0
 292 0016 039B     		ldr	r3, [sp, #12]
 293 0018 019A     		ldr	r2, [sp, #4]
 294 001a DA60     		str	r2, [r3, #12]
 295              		.loc 1 104 0
 296 001c 039B     		ldr	r3, [sp, #12]
 297 001e 1846     		mov	r0, r3
 298 0020 0299     		ldr	r1, [sp, #8]
 299 0022 FFF7FEFF 		bl	chSemInit
 300              		.loc 1 108 0
 301 0026 05B0     		add	sp, sp, #20
 302              		.cfi_def_cfa_offset 4
 303              		@ sp needed
 304 0028 5DF804FB 		ldr	pc, [sp], #4
 305              		.cfi_endproc
 306              	.LFE116:
 307              		.size	gfxSemInit, .-gfxSemInit
 308 002c AFF30080 		.section	.text.gfxSemDestroy,"ax",%progbits
 309              		.align	2
 310              		.p2align 4,,15
 311              		.global	gfxSemDestroy
 312              		.thumb
 313              		.thumb_func
 314              		.type	gfxSemDestroy, %function
 315              	gfxSemDestroy:
 316              	.LFB117:
 317              		.loc 1 111 0
 318              		.cfi_startproc
 319              		@ args = 0, pretend = 0, frame = 8
 320              		@ frame_needed = 0, uses_anonymous_args = 0
 321 0000 00B5     		push	{lr}
 322              		.cfi_def_cfa_offset 4
 323              		.cfi_offset 14, -4
 324 0002 83B0     		sub	sp, sp, #12
 325              		.cfi_def_cfa_offset 16
 326 0004 0190     		str	r0, [sp, #4]
 327              		.loc 1 112 0
 328 0006 019B     		ldr	r3, [sp, #4]
 329 0008 1846     		mov	r0, r3
 330 000a 0121     		movs	r1, #1
 331 000c FFF7FEFF 		bl	chSemReset
 332              		.loc 1 113 0
 333 0010 03B0     		add	sp, sp, #12
 334              		.cfi_def_cfa_offset 4
 335              		@ sp needed
ARM GAS  /tmp/ccYGSUgk.s 			page 7


 336 0012 5DF804FB 		ldr	pc, [sp], #4
 337              		.cfi_endproc
 338              	.LFE117:
 339              		.size	gfxSemDestroy, .-gfxSemDestroy
 340 0016 00BFAFF3 		.section	.text.gfxSemWait,"ax",%progbits
 340      0080AFF3 
 340      0080
 341              		.align	2
 342              		.p2align 4,,15
 343              		.global	gfxSemWait
 344              		.thumb
 345              		.thumb_func
 346              		.type	gfxSemWait, %function
 347              	gfxSemWait:
 348              	.LFB118:
 349              		.loc 1 116 0
 350              		.cfi_startproc
 351              		@ args = 0, pretend = 0, frame = 8
 352              		@ frame_needed = 0, uses_anonymous_args = 0
 353 0000 00B5     		push	{lr}
 354              		.cfi_def_cfa_offset 4
 355              		.cfi_offset 14, -4
 356 0002 83B0     		sub	sp, sp, #12
 357              		.cfi_def_cfa_offset 16
 358 0004 0190     		str	r0, [sp, #4]
 359 0006 0091     		str	r1, [sp]
 360              		.loc 1 118 0
 361 0008 009B     		ldr	r3, [sp]
 362 000a 002B     		cmp	r3, #0
 363 000c 03D0     		beq	.L33
 364 000e B3F1FF3F 		cmp	r3, #-1
 365 0012 0DD0     		beq	.L34
 366 0014 12E0     		b	.L36
 367              	.L33:
 368              		.loc 1 119 0
 369 0016 019B     		ldr	r3, [sp, #4]
 370 0018 1846     		mov	r0, r3
 371 001a 0021     		movs	r1, #0
 372 001c FFF7FEFF 		bl	chSemWaitTimeout
 373 0020 0346     		mov	r3, r0
 374 0022 B3F1FF3F 		cmp	r3, #-1
 375 0026 14BF     		ite	ne
 376 0028 0123     		movne	r3, #1
 377 002a 0023     		moveq	r3, #0
 378 002c DBB2     		uxtb	r3, r3
 379 002e 1CE0     		b	.L35
 380              	.L34:
 381              		.loc 1 120 0
 382 0030 019B     		ldr	r3, [sp, #4]
 383 0032 1846     		mov	r0, r3
 384 0034 FFF7FEFF 		bl	chSemWait
 385 0038 0123     		movs	r3, #1
 386 003a 16E0     		b	.L35
 387              	.L36:
 388              		.loc 1 121 0
 389 003c 0199     		ldr	r1, [sp, #4]
 390 003e 009B     		ldr	r3, [sp]
ARM GAS  /tmp/ccYGSUgk.s 			page 8


 391 0040 4FF47A72 		mov	r2, #1000
 392 0044 02FB03F3 		mul	r3, r2, r3
 393 0048 013B     		subs	r3, r3, #1
 394 004a 0A4A     		ldr	r2, .L37
 395 004c A2FB0323 		umull	r2, r3, r2, r3
 396 0050 9B09     		lsrs	r3, r3, #6
 397 0052 0133     		adds	r3, r3, #1
 398 0054 0846     		mov	r0, r1
 399 0056 1946     		mov	r1, r3
 400 0058 FFF7FEFF 		bl	chSemWaitTimeout
 401 005c 0346     		mov	r3, r0
 402 005e B3F1FF3F 		cmp	r3, #-1
 403 0062 14BF     		ite	ne
 404 0064 0123     		movne	r3, #1
 405 0066 0023     		moveq	r3, #0
 406 0068 DBB2     		uxtb	r3, r3
 407              	.L35:
 408              		.loc 1 130 0
 409 006a 1846     		mov	r0, r3
 410 006c 03B0     		add	sp, sp, #12
 411              		.cfi_def_cfa_offset 4
 412              		@ sp needed
 413 006e 5DF804FB 		ldr	pc, [sp], #4
 414              	.L38:
 415 0072 00BF     		.align	2
 416              	.L37:
 417 0074 D34D6210 		.word	274877907
 418              		.cfi_endproc
 419              	.LFE118:
 420              		.size	gfxSemWait, .-gfxSemWait
 421 0078 AFF30080 		.section	.text.gfxSemWaitI,"ax",%progbits
 421      AFF30080 
 422              		.align	2
 423              		.p2align 4,,15
 424              		.global	gfxSemWaitI
 425              		.thumb
 426              		.thumb_func
 427              		.type	gfxSemWaitI, %function
 428              	gfxSemWaitI:
 429              	.LFB119:
 430              		.loc 1 133 0
 431              		.cfi_startproc
 432              		@ args = 0, pretend = 0, frame = 8
 433              		@ frame_needed = 0, uses_anonymous_args = 0
 434              		@ link register save eliminated.
 435 0000 82B0     		sub	sp, sp, #8
 436              		.cfi_def_cfa_offset 8
 437 0002 0190     		str	r0, [sp, #4]
 438              		.loc 1 134 0
 439 0004 019B     		ldr	r3, [sp, #4]
 440 0006 9B68     		ldr	r3, [r3, #8]
 441 0008 002B     		cmp	r3, #0
 442 000a 01DC     		bgt	.L40
 443              		.loc 1 135 0
 444 000c 0023     		movs	r3, #0
 445 000e 05E0     		b	.L41
 446              	.L40:
ARM GAS  /tmp/ccYGSUgk.s 			page 9


 447              		.loc 1 136 0
 448 0010 019B     		ldr	r3, [sp, #4]
 449 0012 9B68     		ldr	r3, [r3, #8]
 450 0014 5A1E     		subs	r2, r3, #1
 451 0016 019B     		ldr	r3, [sp, #4]
 452 0018 9A60     		str	r2, [r3, #8]
 453              		.loc 1 137 0
 454 001a 0123     		movs	r3, #1
 455              	.L41:
 456              		.loc 1 138 0
 457 001c 1846     		mov	r0, r3
 458 001e 02B0     		add	sp, sp, #8
 459              		.cfi_def_cfa_offset 0
 460              		@ sp needed
 461 0020 7047     		bx	lr
 462              		.cfi_endproc
 463              	.LFE119:
 464              		.size	gfxSemWaitI, .-gfxSemWaitI
 465 0022 00BFAFF3 		.section	.text.gfxSemSignal,"ax",%progbits
 465      0080AFF3 
 465      0080AFF3 
 465      0080
 466              		.align	2
 467              		.p2align 4,,15
 468              		.global	gfxSemSignal
 469              		.thumb
 470              		.thumb_func
 471              		.type	gfxSemSignal, %function
 472              	gfxSemSignal:
 473              	.LFB120:
 474              		.loc 1 141 0
 475              		.cfi_startproc
 476              		@ args = 0, pretend = 0, frame = 8
 477              		@ frame_needed = 0, uses_anonymous_args = 0
 478 0000 00B5     		push	{lr}
 479              		.cfi_def_cfa_offset 4
 480              		.cfi_offset 14, -4
 481 0002 83B0     		sub	sp, sp, #12
 482              		.cfi_def_cfa_offset 16
 483 0004 0190     		str	r0, [sp, #4]
 484              		.loc 1 142 0
 485              	@ 142 "/home/makkmarci/workspace/ugfx/src/gos/gos_chibios.c" 1
 486 0006 FFF7FEFF 		bl      _port_lock
 487              	@ 0 "" 2
 488              		.loc 1 144 0
 489              		.thumb
 490 000a 019B     		ldr	r3, [sp, #4]
 491 000c 9A68     		ldr	r2, [r3, #8]
 492 000e 019B     		ldr	r3, [sp, #4]
 493 0010 DB68     		ldr	r3, [r3, #12]
 494 0012 9A42     		cmp	r2, r3
 495 0014 03DA     		bge	.L43
 496              		.loc 1 145 0
 497 0016 019B     		ldr	r3, [sp, #4]
 498 0018 1846     		mov	r0, r3
 499 001a FFF7FEFF 		bl	chSemSignalI
 500              	.L43:
ARM GAS  /tmp/ccYGSUgk.s 			page 10


 501              		.loc 1 147 0
 502 001e FFF7FEFF 		bl	chSchRescheduleS
 503              		.loc 1 148 0
 504              	@ 148 "/home/makkmarci/workspace/ugfx/src/gos/gos_chibios.c" 1
 505 0022 FFF7FEFF 		bl      _port_unlock
 506              	@ 0 "" 2
 507              		.loc 1 149 0
 508              		.thumb
 509 0026 03B0     		add	sp, sp, #12
 510              		.cfi_def_cfa_offset 4
 511              		@ sp needed
 512 0028 5DF804FB 		ldr	pc, [sp], #4
 513              		.cfi_endproc
 514              	.LFE120:
 515              		.size	gfxSemSignal, .-gfxSemSignal
 516 002c AFF30080 		.section	.text.gfxSemSignalI,"ax",%progbits
 517              		.align	2
 518              		.p2align 4,,15
 519              		.global	gfxSemSignalI
 520              		.thumb
 521              		.thumb_func
 522              		.type	gfxSemSignalI, %function
 523              	gfxSemSignalI:
 524              	.LFB121:
 525              		.loc 1 152 0
 526              		.cfi_startproc
 527              		@ args = 0, pretend = 0, frame = 8
 528              		@ frame_needed = 0, uses_anonymous_args = 0
 529 0000 00B5     		push	{lr}
 530              		.cfi_def_cfa_offset 4
 531              		.cfi_offset 14, -4
 532 0002 83B0     		sub	sp, sp, #12
 533              		.cfi_def_cfa_offset 16
 534 0004 0190     		str	r0, [sp, #4]
 535              		.loc 1 153 0
 536 0006 019B     		ldr	r3, [sp, #4]
 537 0008 9A68     		ldr	r2, [r3, #8]
 538 000a 019B     		ldr	r3, [sp, #4]
 539 000c DB68     		ldr	r3, [r3, #12]
 540 000e 9A42     		cmp	r2, r3
 541 0010 03DA     		bge	.L44
 542              		.loc 1 154 0
 543 0012 019B     		ldr	r3, [sp, #4]
 544 0014 1846     		mov	r0, r3
 545 0016 FFF7FEFF 		bl	chSemSignalI
 546              	.L44:
 547              		.loc 1 155 0
 548 001a 03B0     		add	sp, sp, #12
 549              		.cfi_def_cfa_offset 4
 550              		@ sp needed
 551 001c 5DF804FB 		ldr	pc, [sp], #4
 552              		.cfi_endproc
 553              	.LFE121:
 554              		.size	gfxSemSignalI, .-gfxSemSignalI
 555              		.section	.text.gfxThreadCreate,"ax",%progbits
 556              		.align	2
 557              		.p2align 4,,15
ARM GAS  /tmp/ccYGSUgk.s 			page 11


 558              		.global	gfxThreadCreate
 559              		.thumb
 560              		.thumb_func
 561              		.type	gfxThreadCreate, %function
 562              	gfxThreadCreate:
 563              	.LFB122:
 564              		.loc 1 158 0
 565              		.cfi_startproc
 566              		@ args = 4, pretend = 0, frame = 16
 567              		@ frame_needed = 0, uses_anonymous_args = 0
 568 0000 00B5     		push	{lr}
 569              		.cfi_def_cfa_offset 4
 570              		.cfi_offset 14, -4
 571 0002 87B0     		sub	sp, sp, #28
 572              		.cfi_def_cfa_offset 32
 573 0004 0590     		str	r0, [sp, #20]
 574 0006 0491     		str	r1, [sp, #16]
 575 0008 0392     		str	r2, [sp, #12]
 576 000a 0293     		str	r3, [sp, #8]
 577              		.loc 1 159 0
 578 000c 059B     		ldr	r3, [sp, #20]
 579 000e 002B     		cmp	r3, #0
 580 0010 0FD1     		bne	.L47
 581              		.loc 1 160 0
 582 0012 049B     		ldr	r3, [sp, #16]
 583 0014 002B     		cmp	r3, #0
 584 0016 02D1     		bne	.L48
 585              		.loc 1 160 0 is_stmt 0 discriminator 1
 586 0018 4FF48073 		mov	r3, #256
 587 001c 0493     		str	r3, [sp, #16]
 588              	.L48:
 589              		.loc 1 161 0 is_stmt 1
 590 001e 089B     		ldr	r3, [sp, #32]
 591 0020 0093     		str	r3, [sp]
 592 0022 0020     		movs	r0, #0
 593 0024 0499     		ldr	r1, [sp, #16]
 594 0026 039A     		ldr	r2, [sp, #12]
 595 0028 029B     		ldr	r3, [sp, #8]
 596 002a FFF7FEFF 		bl	chThdCreateFromHeap
 597 002e 0346     		mov	r3, r0
 598 0030 0DE0     		b	.L49
 599              	.L47:
 600              		.loc 1 164 0
 601 0032 049B     		ldr	r3, [sp, #16]
 602 0034 002B     		cmp	r3, #0
 603 0036 01D1     		bne	.L50
 604              		.loc 1 165 0
 605 0038 0023     		movs	r3, #0
 606 003a 08E0     		b	.L49
 607              	.L50:
 608              		.loc 1 167 0
 609 003c 089B     		ldr	r3, [sp, #32]
 610 003e 0093     		str	r3, [sp]
 611 0040 0598     		ldr	r0, [sp, #20]
 612 0042 0499     		ldr	r1, [sp, #16]
 613 0044 039A     		ldr	r2, [sp, #12]
 614 0046 029B     		ldr	r3, [sp, #8]
ARM GAS  /tmp/ccYGSUgk.s 			page 12


 615 0048 FFF7FEFF 		bl	chThdCreateStatic
 616 004c 0346     		mov	r3, r0
 617              	.L49:
 618              		.loc 1 168 0
 619 004e 1846     		mov	r0, r3
 620 0050 07B0     		add	sp, sp, #28
 621              		.cfi_def_cfa_offset 4
 622              		@ sp needed
 623 0052 5DF804FB 		ldr	pc, [sp], #4
 624              		.cfi_endproc
 625              	.LFE122:
 626              		.size	gfxThreadCreate, .-gfxThreadCreate
 627 0056 00BFAFF3 		.text
 627      0080AFF3 
 627      0080
 628              	.Letext0:
 629              		.file 2 "/opt/gcc-arm-none-eabi/lib/gcc/arm-none-eabi/4.9.3/include/stddef.h"
 630              		.file 3 "/opt/gcc-arm-none-eabi/arm-none-eabi/include/machine/_default_types.h"
 631              		.file 4 "/opt/gcc-arm-none-eabi/arm-none-eabi/include/stdint.h"
 632              		.file 5 "/home/makkmarci/workspace/ChibiOS_2.6.8/os/ports/GCC/ARMCMx/chtypes.h"
 633              		.file 6 "/home/makkmarci/workspace/ChibiOS_2.6.8/os/kernel/include/chlists.h"
 634              		.file 7 "/home/makkmarci/workspace/ChibiOS_2.6.8/os/kernel/include/chthreads.h"
 635              		.file 8 "/home/makkmarci/workspace/ChibiOS_2.6.8/os/ports/GCC/ARMCMx/chcore_v7m.h"
 636              		.file 9 "/home/makkmarci/workspace/ChibiOS_2.6.8/os/kernel/include/chschd.h"
 637              		.file 10 "/home/makkmarci/workspace/ChibiOS_2.6.8/os/kernel/include/chsem.h"
 638              		.file 11 "/home/makkmarci/workspace/ChibiOS_2.6.8/os/kernel/include/chmtx.h"
 639              		.file 12 "/home/makkmarci/workspace/ugfx/src/gos/gos_chibios.h"
 640              		.file 13 "/home/makkmarci/workspace/ChibiOS_2.6.8/os/ports/common/ARMCMx/CMSIS/include/core_cm4.h"