ARM GAS  /tmp/ccddCc5y.s 			page 1


   1              		.syntax unified
   2              		.cpu cortex-m4
   3              		.eabi_attribute 27, 3
   4              		.eabi_attribute 28, 1
   5              		.fpu fpv4-sp-d16
   6              		.eabi_attribute 20, 1
   7              		.eabi_attribute 21, 1
   8              		.eabi_attribute 23, 3
   9              		.eabi_attribute 24, 1
  10              		.eabi_attribute 25, 1
  11              		.eabi_attribute 26, 1
  12              		.eabi_attribute 30, 2
  13              		.eabi_attribute 34, 1
  14              		.eabi_attribute 18, 4
  15              		.thumb
  16              		.file	"gqueue.c"
  17              		.text
  18              	.Ltext0:
  19              		.cfi_sections	.debug_frame
  20              		.section	.text._gqueueInit,"ax",%progbits
  21              		.align	2
  22              		.p2align 4,,15
  23              		.global	_gqueueInit
  24              		.thumb
  25              		.thumb_func
  26              		.type	_gqueueInit, %function
  27              	_gqueueInit:
  28              	.LFB111:
  29              		.file 1 "/home/makkmarci/devel/ugfx/src/gqueue/gqueue.c"
  30              		.loc 1 22 0
  31              		.cfi_startproc
  32              		@ args = 0, pretend = 0, frame = 0
  33              		@ frame_needed = 0, uses_anonymous_args = 0
  34              		@ link register save eliminated.
  35 0000 7047     		bx	lr
  36              		.cfi_endproc
  37              	.LFE111:
  38              		.size	_gqueueInit, .-_gqueueInit
  39 0002 00BFAFF3 		.section	.text._gqueueDeinit,"ax",%progbits
  39      0080AFF3 
  39      0080AFF3 
  39      0080
  40              		.align	2
  41              		.p2align 4,,15
  42              		.global	_gqueueDeinit
  43              		.thumb
  44              		.thumb_func
  45              		.type	_gqueueDeinit, %function
  46              	_gqueueDeinit:
  47              	.LFB112:
  48              		.loc 1 29 0
  49              		.cfi_startproc
  50              		@ args = 0, pretend = 0, frame = 0
  51              		@ frame_needed = 0, uses_anonymous_args = 0
  52              		@ link register save eliminated.
  53 0000 7047     		bx	lr
  54              		.cfi_endproc
ARM GAS  /tmp/ccddCc5y.s 			page 2


  55              	.LFE112:
  56              		.size	_gqueueDeinit, .-_gqueueDeinit
  57 0002 00BFAFF3 		.section	.text.gfxQueueASyncInit,"ax",%progbits
  57      0080AFF3 
  57      0080AFF3 
  57      0080
  58              		.align	2
  59              		.p2align 4,,15
  60              		.global	gfxQueueASyncInit
  61              		.thumb
  62              		.thumb_func
  63              		.type	gfxQueueASyncInit, %function
  64              	gfxQueueASyncInit:
  65              	.LFB113:
  66              		.loc 1 33 0
  67              		.cfi_startproc
  68              		@ args = 0, pretend = 0, frame = 0
  69              		@ frame_needed = 0, uses_anonymous_args = 0
  70              		@ link register save eliminated.
  71              	.LVL0:
  72              		.loc 1 34 0
  73 0000 0023     		movs	r3, #0
  74 0002 4360     		str	r3, [r0, #4]
  75 0004 0360     		str	r3, [r0]
  76 0006 7047     		bx	lr
  77              		.cfi_endproc
  78              	.LFE113:
  79              		.size	gfxQueueASyncInit, .-gfxQueueASyncInit
  80 0008 AFF30080 		.section	.text.gfxQueueASyncGet,"ax",%progbits
  80      AFF30080 
  81              		.align	2
  82              		.p2align 4,,15
  83              		.global	gfxQueueASyncGet
  84              		.thumb
  85              		.thumb_func
  86              		.type	gfxQueueASyncGet, %function
  87              	gfxQueueASyncGet:
  88              	.LFB114:
  89              		.loc 1 37 0
  90              		.cfi_startproc
  91              		@ args = 0, pretend = 0, frame = 0
  92              		@ frame_needed = 0, uses_anonymous_args = 0
  93              	.LVL1:
  94              		.loc 1 41 0
  95 0000 0268     		ldr	r2, [r0]
  96              		.loc 1 37 0
  97 0002 00B5     		push	{lr}
  98              		.cfi_def_cfa_offset 4
  99              		.cfi_offset 14, -4
 100              		.loc 1 41 0
 101 0004 4AB1     		cbz	r2, .L5
 102              		.loc 1 44 0
 103              	@ 44 "/home/makkmarci/devel/ugfx/src/gqueue/gqueue.c" 1
 104 0006 FFF7FEFF 		bl      _port_lock
 105              	@ 0 "" 2
 106              	.LVL2:
 107              		.thumb
ARM GAS  /tmp/ccddCc5y.s 			page 3


 108              	.LBB12:
 109              	.LBB13:
 110              		.loc 1 53 0
 111 000a 0268     		ldr	r2, [r0]
 112              	.LVL3:
 113 000c 1AB1     		cbz	r2, .L6
 114              		.loc 1 54 0
 115 000e 1368     		ldr	r3, [r2]
 116 0010 0360     		str	r3, [r0]
 117              		.loc 1 55 0
 118 0012 0023     		movs	r3, #0
 119 0014 1360     		str	r3, [r2]
 120              	.L6:
 121              	.LBE13:
 122              	.LBE12:
 123              		.loc 1 46 0
 124              	@ 46 "/home/makkmarci/devel/ugfx/src/gqueue/gqueue.c" 1
 125 0016 FFF7FEFF 		bl      _port_unlock
 126              	@ 0 "" 2
 127              	.LVL4:
 128              		.thumb
 129              	.L5:
 130              		.loc 1 49 0
 131 001a 1046     		mov	r0, r2
 132              	.LVL5:
 133 001c 5DF804FB 		ldr	pc, [sp], #4
 134              		.cfi_endproc
 135              	.LFE114:
 136              		.size	gfxQueueASyncGet, .-gfxQueueASyncGet
 137              		.section	.text.gfxQueueASyncGetI,"ax",%progbits
 138              		.align	2
 139              		.p2align 4,,15
 140              		.global	gfxQueueASyncGetI
 141              		.thumb
 142              		.thumb_func
 143              		.type	gfxQueueASyncGetI, %function
 144              	gfxQueueASyncGetI:
 145              	.LFB115:
 146              		.loc 1 50 0
 147              		.cfi_startproc
 148              		@ args = 0, pretend = 0, frame = 0
 149              		@ frame_needed = 0, uses_anonymous_args = 0
 150              		@ link register save eliminated.
 151              	.LVL6:
 152              		.loc 1 53 0
 153 0000 0368     		ldr	r3, [r0]
 154              	.LVL7:
 155 0002 1BB1     		cbz	r3, .L15
 156              		.loc 1 54 0
 157 0004 1A68     		ldr	r2, [r3]
 158 0006 0260     		str	r2, [r0]
 159              		.loc 1 55 0
 160 0008 0022     		movs	r2, #0
 161 000a 1A60     		str	r2, [r3]
 162              	.L15:
 163              		.loc 1 59 0
 164 000c 1846     		mov	r0, r3
ARM GAS  /tmp/ccddCc5y.s 			page 4


 165              	.LVL8:
 166 000e 7047     		bx	lr
 167              		.cfi_endproc
 168              	.LFE115:
 169              		.size	gfxQueueASyncGetI, .-gfxQueueASyncGetI
 170              		.section	.text.gfxQueueASyncPut,"ax",%progbits
 171              		.align	2
 172              		.p2align 4,,15
 173              		.global	gfxQueueASyncPut
 174              		.thumb
 175              		.thumb_func
 176              		.type	gfxQueueASyncPut, %function
 177              	gfxQueueASyncPut:
 178              	.LFB116:
 179              		.loc 1 61 0
 180              		.cfi_startproc
 181              		@ args = 0, pretend = 0, frame = 0
 182              		@ frame_needed = 0, uses_anonymous_args = 0
 183              	.LVL9:
 184 0000 00B5     		push	{lr}
 185              		.cfi_def_cfa_offset 4
 186              		.cfi_offset 14, -4
 187              		.loc 1 62 0
 188              	@ 62 "/home/makkmarci/devel/ugfx/src/gqueue/gqueue.c" 1
 189 0002 FFF7FEFF 		bl      _port_lock
 190              	@ 0 "" 2
 191              	.LVL10:
 192              		.thumb
 193              	.LBB14:
 194              	.LBB15:
 195              		.loc 1 67 0
 196 0006 31B1     		cbz	r1, .L20
 197              		.loc 1 69 0
 198 0008 0368     		ldr	r3, [r0]
 199              		.loc 1 68 0
 200 000a 0022     		movs	r2, #0
 201 000c 0A60     		str	r2, [r1]
 202              		.loc 1 69 0
 203 000e 33B1     		cbz	r3, .L25
 204              		.loc 1 72 0
 205 0010 4368     		ldr	r3, [r0, #4]
 206 0012 1960     		str	r1, [r3]
 207              		.loc 1 73 0
 208 0014 4160     		str	r1, [r0, #4]
 209              	.L20:
 210              	.LBE15:
 211              	.LBE14:
 212              		.loc 1 64 0
 213              	@ 64 "/home/makkmarci/devel/ugfx/src/gqueue/gqueue.c" 1
 214 0016 FFF7FEFF 		bl      _port_unlock
 215              	@ 0 "" 2
 216              		.thumb
 217 001a 5DF804FB 		ldr	pc, [sp], #4
 218              	.L25:
 219              	.LBB17:
 220              	.LBB16:
 221              		.loc 1 70 0
ARM GAS  /tmp/ccddCc5y.s 			page 5


 222 001e 4160     		str	r1, [r0, #4]
 223 0020 0160     		str	r1, [r0]
 224 0022 F8E7     		b	.L20
 225              	.LBE16:
 226              	.LBE17:
 227              		.cfi_endproc
 228              	.LFE116:
 229              		.size	gfxQueueASyncPut, .-gfxQueueASyncPut
 230 0024 AFF30080 		.section	.text.gfxQueueASyncPutI,"ax",%progbits
 230      AFF30080 
 230      AFF30080 
 231              		.align	2
 232              		.p2align 4,,15
 233              		.global	gfxQueueASyncPutI
 234              		.thumb
 235              		.thumb_func
 236              		.type	gfxQueueASyncPutI, %function
 237              	gfxQueueASyncPutI:
 238              	.LFB117:
 239              		.loc 1 66 0
 240              		.cfi_startproc
 241              		@ args = 0, pretend = 0, frame = 0
 242              		@ frame_needed = 0, uses_anonymous_args = 0
 243              		@ link register save eliminated.
 244              	.LVL11:
 245              		.loc 1 67 0
 246 0000 31B1     		cbz	r1, .L26
 247              		.loc 1 69 0
 248 0002 0368     		ldr	r3, [r0]
 249              		.loc 1 68 0
 250 0004 0022     		movs	r2, #0
 251 0006 0A60     		str	r2, [r1]
 252              		.loc 1 69 0
 253 0008 1BB1     		cbz	r3, .L32
 254              		.loc 1 72 0
 255 000a 4368     		ldr	r3, [r0, #4]
 256 000c 1960     		str	r1, [r3]
 257              		.loc 1 73 0
 258 000e 4160     		str	r1, [r0, #4]
 259              	.L26:
 260 0010 7047     		bx	lr
 261              	.L32:
 262              		.loc 1 70 0
 263 0012 4160     		str	r1, [r0, #4]
 264 0014 0160     		str	r1, [r0]
 265 0016 7047     		bx	lr
 266              		.cfi_endproc
 267              	.LFE117:
 268              		.size	gfxQueueASyncPutI, .-gfxQueueASyncPutI
 269 0018 AFF30080 		.section	.text.gfxQueueASyncPush,"ax",%progbits
 269      AFF30080 
 270              		.align	2
 271              		.p2align 4,,15
 272              		.global	gfxQueueASyncPush
 273              		.thumb
 274              		.thumb_func
 275              		.type	gfxQueueASyncPush, %function
ARM GAS  /tmp/ccddCc5y.s 			page 6


 276              	gfxQueueASyncPush:
 277              	.LFB118:
 278              		.loc 1 77 0
 279              		.cfi_startproc
 280              		@ args = 0, pretend = 0, frame = 0
 281              		@ frame_needed = 0, uses_anonymous_args = 0
 282              	.LVL12:
 283 0000 00B5     		push	{lr}
 284              		.cfi_def_cfa_offset 4
 285              		.cfi_offset 14, -4
 286              		.loc 1 78 0
 287              	@ 78 "/home/makkmarci/devel/ugfx/src/gqueue/gqueue.c" 1
 288 0002 FFF7FEFF 		bl      _port_lock
 289              	@ 0 "" 2
 290              	.LVL13:
 291              		.thumb
 292              	.LBB18:
 293              	.LBB19:
 294              		.loc 1 83 0
 295 0006 19B1     		cbz	r1, .L35
 296              		.loc 1 84 0
 297 0008 0368     		ldr	r3, [r0]
 298 000a 0B60     		str	r3, [r1]
 299              		.loc 1 85 0
 300 000c 0160     		str	r1, [r0]
 301              		.loc 1 86 0
 302 000e 1BB1     		cbz	r3, .L37
 303              	.L35:
 304              	.LBE19:
 305              	.LBE18:
 306              		.loc 1 80 0
 307              	@ 80 "/home/makkmarci/devel/ugfx/src/gqueue/gqueue.c" 1
 308 0010 FFF7FEFF 		bl      _port_unlock
 309              	@ 0 "" 2
 310              		.thumb
 311 0014 5DF804FB 		ldr	pc, [sp], #4
 312              	.L37:
 313              	.LBB21:
 314              	.LBB20:
 315              		.loc 1 87 0
 316 0018 4160     		str	r1, [r0, #4]
 317              	.LBE20:
 318              	.LBE21:
 319              		.loc 1 80 0
 320              	@ 80 "/home/makkmarci/devel/ugfx/src/gqueue/gqueue.c" 1
 321 001a FFF7FEFF 		bl      _port_unlock
 322              	@ 0 "" 2
 323              		.thumb
 324 001e 5DF804FB 		ldr	pc, [sp], #4
 325              		.cfi_endproc
 326              	.LFE118:
 327              		.size	gfxQueueASyncPush, .-gfxQueueASyncPush
 328 0022 00BFAFF3 		.section	.text.gfxQueueASyncPushI,"ax",%progbits
 328      0080AFF3 
 328      0080AFF3 
 328      0080
 329              		.align	2
ARM GAS  /tmp/ccddCc5y.s 			page 7


 330              		.p2align 4,,15
 331              		.global	gfxQueueASyncPushI
 332              		.thumb
 333              		.thumb_func
 334              		.type	gfxQueueASyncPushI, %function
 335              	gfxQueueASyncPushI:
 336              	.LFB119:
 337              		.loc 1 82 0
 338              		.cfi_startproc
 339              		@ args = 0, pretend = 0, frame = 0
 340              		@ frame_needed = 0, uses_anonymous_args = 0
 341              		@ link register save eliminated.
 342              	.LVL14:
 343              		.loc 1 83 0
 344 0000 19B1     		cbz	r1, .L38
 345              		.loc 1 84 0
 346 0002 0368     		ldr	r3, [r0]
 347 0004 0B60     		str	r3, [r1]
 348              		.loc 1 85 0
 349 0006 0160     		str	r1, [r0]
 350              		.loc 1 86 0
 351 0008 03B1     		cbz	r3, .L42
 352              	.L38:
 353 000a 7047     		bx	lr
 354              	.L42:
 355              		.loc 1 87 0
 356 000c 4160     		str	r1, [r0, #4]
 357 000e 7047     		bx	lr
 358              		.cfi_endproc
 359              	.LFE119:
 360              		.size	gfxQueueASyncPushI, .-gfxQueueASyncPushI
 361              		.section	.text.gfxQueueASyncInsertI,"ax",%progbits
 362              		.align	2
 363              		.p2align 4,,15
 364              		.global	gfxQueueASyncInsertI
 365              		.thumb
 366              		.thumb_func
 367              		.type	gfxQueueASyncInsertI, %function
 368              	gfxQueueASyncInsertI:
 369              	.LFB121:
 370              		.loc 1 95 0
 371              		.cfi_startproc
 372              		@ args = 0, pretend = 0, frame = 0
 373              		@ frame_needed = 0, uses_anonymous_args = 0
 374              		@ link register save eliminated.
 375              	.LVL15:
 376 0000 10B4     		push	{r4}
 377              		.cfi_def_cfa_offset 4
 378              		.cfi_offset 4, -4
 379              		.loc 1 96 0
 380 0002 69B1     		cbz	r1, .L43
 381              	.LBB22:
 382              	.LBB23:
 383              		.loc 1 153 0
 384 0004 0368     		ldr	r3, [r0]
 385              	.LBE23:
 386              	.LBE22:
ARM GAS  /tmp/ccddCc5y.s 			page 8


 387              		.loc 1 98 0
 388 0006 AAB1     		cbz	r2, .L46
 389              	.LVL16:
 390              	.LBB25:
 391              	.LBB24:
 392              		.loc 1 153 0
 393 0008 13B9     		cbnz	r3, .L50
 394 000a 19E0     		b	.L60
 395              	.L59:
 396 000c 1B68     		ldr	r3, [r3]
 397              	.LVL17:
 398 000e 53B1     		cbz	r3, .L58
 399              	.L50:
 400              		.loc 1 154 0
 401 0010 9A42     		cmp	r2, r3
 402 0012 FBD1     		bne	.L59
 403              	.LBE24:
 404              	.LBE25:
 405              		.loc 1 101 0
 406 0014 4468     		ldr	r4, [r0, #4]
 407              		.loc 1 99 0
 408 0016 1368     		ldr	r3, [r2]
 409              	.LVL18:
 410 0018 0B60     		str	r3, [r1]
 411              		.loc 1 101 0
 412 001a 9442     		cmp	r4, r2
 413              		.loc 1 100 0
 414 001c 1160     		str	r1, [r2]
 415              		.loc 1 101 0
 416 001e 05D0     		beq	.L57
 417              	.LVL19:
 418              	.L43:
 419              		.loc 1 112 0
 420 0020 5DF8044B 		ldr	r4, [sp], #4
 421 0024 7047     		bx	lr
 422              	.LVL20:
 423              	.L58:
 424              		.loc 1 104 0
 425 0026 0B60     		str	r3, [r1]
 426              	.LVL21:
 427              	.L52:
 428              		.loc 1 108 0
 429 0028 4368     		ldr	r3, [r0, #4]
 430 002a 1960     		str	r1, [r3]
 431              	.L57:
 432              		.loc 1 109 0
 433 002c 4160     		str	r1, [r0, #4]
 434              		.loc 1 112 0
 435 002e 5DF8044B 		ldr	r4, [sp], #4
 436 0032 7047     		bx	lr
 437              	.L46:
 438              		.loc 1 104 0
 439 0034 0A60     		str	r2, [r1]
 440              		.loc 1 105 0
 441 0036 002B     		cmp	r3, #0
 442 0038 F6D1     		bne	.L52
 443              	.L55:
ARM GAS  /tmp/ccddCc5y.s 			page 9


 444              		.loc 1 106 0
 445 003a 4160     		str	r1, [r0, #4]
 446 003c 0160     		str	r1, [r0]
 447 003e EFE7     		b	.L43
 448              	.LVL22:
 449              	.L60:
 450              		.loc 1 104 0
 451 0040 0B60     		str	r3, [r1]
 452 0042 FAE7     		b	.L55
 453              		.cfi_endproc
 454              	.LFE121:
 455              		.size	gfxQueueASyncInsertI, .-gfxQueueASyncInsertI
 456 0044 AFF30080 		.section	.text.gfxQueueASyncInsert,"ax",%progbits
 456      AFF30080 
 456      AFF30080 
 457              		.align	2
 458              		.p2align 4,,15
 459              		.global	gfxQueueASyncInsert
 460              		.thumb
 461              		.thumb_func
 462              		.type	gfxQueueASyncInsert, %function
 463              	gfxQueueASyncInsert:
 464              	.LFB120:
 465              		.loc 1 90 0
 466              		.cfi_startproc
 467              		@ args = 0, pretend = 0, frame = 0
 468              		@ frame_needed = 0, uses_anonymous_args = 0
 469              	.LVL23:
 470 0000 08B5     		push	{r3, lr}
 471              		.cfi_def_cfa_offset 8
 472              		.cfi_offset 3, -8
 473              		.cfi_offset 14, -4
 474              		.loc 1 91 0
 475              	@ 91 "/home/makkmarci/devel/ugfx/src/gqueue/gqueue.c" 1
 476 0002 FFF7FEFF 		bl      _port_lock
 477              	@ 0 "" 2
 478              		.loc 1 92 0
 479              		.thumb
 480 0006 FFF7FEFF 		bl	gfxQueueASyncInsertI
 481              	.LVL24:
 482              		.loc 1 93 0
 483              	@ 93 "/home/makkmarci/devel/ugfx/src/gqueue/gqueue.c" 1
 484 000a FFF7FEFF 		bl      _port_unlock
 485              	@ 0 "" 2
 486              		.thumb
 487 000e 08BD     		pop	{r3, pc}
 488              		.cfi_endproc
 489              	.LFE120:
 490              		.size	gfxQueueASyncInsert, .-gfxQueueASyncInsert
 491              		.section	.text.gfxQueueASyncRemoveI,"ax",%progbits
 492              		.align	2
 493              		.p2align 4,,15
 494              		.global	gfxQueueASyncRemoveI
 495              		.thumb
 496              		.thumb_func
 497              		.type	gfxQueueASyncRemoveI, %function
 498              	gfxQueueASyncRemoveI:
ARM GAS  /tmp/ccddCc5y.s 			page 10


 499              	.LFB123:
 500              		.loc 1 119 0
 501              		.cfi_startproc
 502              		@ args = 0, pretend = 0, frame = 0
 503              		@ frame_needed = 0, uses_anonymous_args = 0
 504              		@ link register save eliminated.
 505              	.LVL25:
 506 0000 10B4     		push	{r4}
 507              		.cfi_def_cfa_offset 4
 508              		.cfi_offset 4, -4
 509              		.loc 1 122 0
 510 0002 51B1     		cbz	r1, .L62
 511              		.loc 1 123 0
 512 0004 0268     		ldr	r2, [r0]
 513 0006 42B1     		cbz	r2, .L62
 514              		.loc 1 124 0
 515 0008 9142     		cmp	r1, r2
 516 000a 03D1     		bne	.L66
 517 000c 14E0     		b	.L76
 518              	.LVL26:
 519              	.L68:
 520              		.loc 1 129 0
 521 000e 9942     		cmp	r1, r3
 522 0010 06D0     		beq	.L65
 523 0012 1A46     		mov	r2, r3
 524              	.LVL27:
 525              	.L66:
 526              		.loc 1 128 0 discriminator 1
 527 0014 1368     		ldr	r3, [r2]
 528 0016 002B     		cmp	r3, #0
 529 0018 F9D1     		bne	.L68
 530              	.LVL28:
 531              	.L62:
 532              		.loc 1 139 0
 533 001a 5DF8044B 		ldr	r4, [sp], #4
 534 001e 7047     		bx	lr
 535              	.LVL29:
 536              	.L65:
 537              		.loc 1 131 0
 538 0020 4468     		ldr	r4, [r0, #4]
 539              		.loc 1 130 0
 540 0022 0B68     		ldr	r3, [r1]
 541 0024 1360     		str	r3, [r2]
 542              		.loc 1 131 0
 543 0026 8C42     		cmp	r4, r1
 544              		.loc 1 133 0
 545 0028 4FF00003 		mov	r3, #0
 546              		.loc 1 132 0
 547 002c 08BF     		it	eq
 548 002e 4260     		streq	r2, [r0, #4]
 549              		.loc 1 139 0
 550 0030 5DF8044B 		ldr	r4, [sp], #4
 551              		.loc 1 133 0
 552 0034 0B60     		str	r3, [r1]
 553              		.loc 1 139 0
 554 0036 7047     		bx	lr
 555              	.LVL30:
ARM GAS  /tmp/ccddCc5y.s 			page 11


 556              	.L76:
 557              		.loc 1 125 0
 558 0038 0B68     		ldr	r3, [r1]
 559 003a 0360     		str	r3, [r0]
 560              		.loc 1 126 0
 561 003c 0023     		movs	r3, #0
 562 003e 0B60     		str	r3, [r1]
 563 0040 EBE7     		b	.L62
 564              		.cfi_endproc
 565              	.LFE123:
 566              		.size	gfxQueueASyncRemoveI, .-gfxQueueASyncRemoveI
 567 0042 00BFAFF3 		.section	.text.gfxQueueASyncRemove,"ax",%progbits
 567      0080AFF3 
 567      0080AFF3 
 567      0080
 568              		.align	2
 569              		.p2align 4,,15
 570              		.global	gfxQueueASyncRemove
 571              		.thumb
 572              		.thumb_func
 573              		.type	gfxQueueASyncRemove, %function
 574              	gfxQueueASyncRemove:
 575              	.LFB122:
 576              		.loc 1 114 0
 577              		.cfi_startproc
 578              		@ args = 0, pretend = 0, frame = 0
 579              		@ frame_needed = 0, uses_anonymous_args = 0
 580              	.LVL31:
 581 0000 08B5     		push	{r3, lr}
 582              		.cfi_def_cfa_offset 8
 583              		.cfi_offset 3, -8
 584              		.cfi_offset 14, -4
 585              		.loc 1 115 0
 586              	@ 115 "/home/makkmarci/devel/ugfx/src/gqueue/gqueue.c" 1
 587 0002 FFF7FEFF 		bl      _port_lock
 588              	@ 0 "" 2
 589              		.loc 1 116 0
 590              		.thumb
 591 0006 FFF7FEFF 		bl	gfxQueueASyncRemoveI
 592              	.LVL32:
 593              		.loc 1 117 0
 594              	@ 117 "/home/makkmarci/devel/ugfx/src/gqueue/gqueue.c" 1
 595 000a FFF7FEFF 		bl      _port_unlock
 596              	@ 0 "" 2
 597              		.thumb
 598 000e 08BD     		pop	{r3, pc}
 599              		.cfi_endproc
 600              	.LFE122:
 601              		.size	gfxQueueASyncRemove, .-gfxQueueASyncRemove
 602              		.section	.text.gfxQueueASyncIsIn,"ax",%progbits
 603              		.align	2
 604              		.p2align 4,,15
 605              		.global	gfxQueueASyncIsIn
 606              		.thumb
 607              		.thumb_func
 608              		.type	gfxQueueASyncIsIn, %function
 609              	gfxQueueASyncIsIn:
ARM GAS  /tmp/ccddCc5y.s 			page 12


 610              	.LFB124:
 611              		.loc 1 141 0
 612              		.cfi_startproc
 613              		@ args = 0, pretend = 0, frame = 0
 614              		@ frame_needed = 0, uses_anonymous_args = 0
 615              	.LVL33:
 616 0000 00B5     		push	{lr}
 617              		.cfi_def_cfa_offset 4
 618              		.cfi_offset 14, -4
 619              		.loc 1 144 0
 620              	@ 144 "/home/makkmarci/devel/ugfx/src/gqueue/gqueue.c" 1
 621 0002 FFF7FEFF 		bl      _port_lock
 622              	@ 0 "" 2
 623              		.thumb
 624 0006 01E0     		b	.L86
 625              	.LVL34:
 626              	.L87:
 627              	.LBB26:
 628              	.LBB27:
 629              		.loc 1 154 0
 630 0008 8142     		cmp	r1, r0
 631 000a 06D0     		beq	.L84
 632              	.LVL35:
 633              	.L86:
 634              		.loc 1 153 0
 635 000c 0068     		ldr	r0, [r0]
 636              	.LVL36:
 637 000e 0028     		cmp	r0, #0
 638 0010 FAD1     		bne	.L87
 639              	.LBE27:
 640              	.LBE26:
 641              		.loc 1 146 0
 642              	@ 146 "/home/makkmarci/devel/ugfx/src/gqueue/gqueue.c" 1
 643 0012 FFF7FEFF 		bl      _port_unlock
 644              	@ 0 "" 2
 645              		.loc 1 149 0
 646              		.thumb
 647 0016 5DF804FB 		ldr	pc, [sp], #4
 648              	.L84:
 649              	.LBB29:
 650              	.LBB28:
 651              		.loc 1 155 0
 652 001a 0120     		movs	r0, #1
 653              	.LVL37:
 654              	.LBE28:
 655              	.LBE29:
 656              		.loc 1 146 0
 657              	@ 146 "/home/makkmarci/devel/ugfx/src/gqueue/gqueue.c" 1
 658 001c FFF7FEFF 		bl      _port_unlock
 659              	@ 0 "" 2
 660              		.loc 1 149 0
 661              		.thumb
 662 0020 5DF804FB 		ldr	pc, [sp], #4
 663              		.cfi_endproc
 664              	.LFE124:
 665              		.size	gfxQueueASyncIsIn, .-gfxQueueASyncIsIn
 666 0024 AFF30080 		.section	.text.gfxQueueASyncIsInI,"ax",%progbits
ARM GAS  /tmp/ccddCc5y.s 			page 13


 666      AFF30080 
 666      AFF30080 
 667              		.align	2
 668              		.p2align 4,,15
 669              		.global	gfxQueueASyncIsInI
 670              		.thumb
 671              		.thumb_func
 672              		.type	gfxQueueASyncIsInI, %function
 673              	gfxQueueASyncIsInI:
 674              	.LFB125:
 675              		.loc 1 150 0
 676              		.cfi_startproc
 677              		@ args = 0, pretend = 0, frame = 0
 678              		@ frame_needed = 0, uses_anonymous_args = 0
 679              		@ link register save eliminated.
 680              	.LVL38:
 681              		.loc 1 153 0
 682 0000 0068     		ldr	r0, [r0]
 683              	.LVL39:
 684 0002 48B1     		cbz	r0, .L89
 685              		.loc 1 154 0
 686 0004 8842     		cmp	r0, r1
 687 0006 02D1     		bne	.L90
 688 0008 05E0     		b	.L94
 689              	.L91:
 690 000a 8142     		cmp	r1, r0
 691 000c 03D0     		beq	.L94
 692              	.L90:
 693              		.loc 1 153 0
 694 000e 0068     		ldr	r0, [r0]
 695              	.LVL40:
 696 0010 0028     		cmp	r0, #0
 697 0012 FAD1     		bne	.L91
 698 0014 7047     		bx	lr
 699              	.L94:
 700              		.loc 1 155 0
 701 0016 0120     		movs	r0, #1
 702              	.LVL41:
 703              	.L89:
 704              		.loc 1 158 0
 705 0018 7047     		bx	lr
 706              		.cfi_endproc
 707              	.LFE125:
 708              		.size	gfxQueueASyncIsInI, .-gfxQueueASyncIsInI
 709 001a 00BFAFF3 		.text
 709      0080
 710              	.Letext0:
 711              		.file 2 "/opt/ARM/arm-none-eabi/include/machine/_default_types.h"
 712              		.file 3 "/opt/ARM/arm-none-eabi/include/stdint.h"
 713              		.file 4 "../../os/ports/GCC/ARMCMx/chtypes.h"
 714              		.file 5 "/home/makkmarci/devel/ugfx/src/gqueue/sys_defs.h"
 715              		.file 6 "../../os/ports/common/ARMCMx/CMSIS/include/core_cm4.h"