ARM GAS  /tmp/ccddCc5y.s 			page 1


   1              		.syntax unified
   2              		.cpu cortex-m4
   3              		.eabi_attribute 27, 3
   4              		.eabi_attribute 28, 1
   5              		.fpu fpv4-sp-d16
   6              		.eabi_attribute 20, 1
   7              		.eabi_attribute 21, 1
   8              		.eabi_attribute 23, 3
   9              		.eabi_attribute 24, 1
  10              		.eabi_attribute 25, 1
  11              		.eabi_attribute 26, 1
  12              		.eabi_attribute 30, 2
  13              		.eabi_attribute 34, 1
  14              		.eabi_attribute 18, 4
  15              		.thumb
  16              		.file	"gqueue.c"
  17              		.text
  18              	.Ltext0:
  19              		.cfi_sections	.debug_frame
  20              		.section	.text._gqueueInit,"ax",%progbits
  21              		.align	2
  22              		.p2align 4,,15
  23              		.global	_gqueueInit
  24              		.thumb
  25              		.thumb_func
  26              		.type	_gqueueInit, %function
  27              	_gqueueInit:
  28              	.LFB111:
  29              		.file 1 "/home/makkmarci/devel/ugfx/src/gqueue/gqueue.c"
  30              		.loc 1 22 0
  31              		.cfi_startproc
  32              		@ args = 0, pretend = 0, frame = 0
  33              		@ frame_needed = 0, uses_anonymous_args = 0
  34              		@ link register save eliminated.
  35 0000 7047     		bx	lr
  36              		.cfi_endproc
  37              	.LFE111:
  38              		.size	_gqueueInit, .-_gqueueInit
  39 0002 00BFAFF3 		.section	.text._gqueueDeinit,"ax",%progbits
  39      0080AFF3 
  39      0080AFF3 
  39      0080
  40              		.align	2
  41              		.p2align 4,,15
  42              		.global	_gqueueDeinit
  43              		.thumb
  44              		.thumb_func
  45              		.type	_gqueueDeinit, %function
  46              	_gqueueDeinit:
  47              	.LFB112:
  48              		.loc 1 29 0
  49              		.cfi_startproc
  50              		@ args = 0, pretend = 0, frame = 0
  51              		@ frame_needed = 0, uses_anonymous_args = 0
  52              		@ link register save eliminated.
  53 0000 7047     		bx	lr
  54              		.cfi_endproc
ARM GAS  /tmp/ccddCc5y.s 			page 2


  55              	.LFE112:
  56              		.size	_gqueueDeinit, .-_gqueueDeinit
  57 0002 00BFAFF3 		.section	.text.gfxQueueASyncInit,"ax",%progbits
  57      0080AFF3 
  57      0080AFF3 
  57      0080
  58              		.align	2
  59              		.p2align 4,,15
  60              		.global	gfxQueueASyncInit
  61              		.thumb
  62              		.thumb_func
  63              		.type	gfxQueueASyncInit, %function
  64              	gfxQueueASyncInit:
  65              	.LFB113:
  66              		.loc 1 33 0
  67              		.cfi_startproc
  68              		@ args = 0, pretend = 0, frame = 0
  69              		@ frame_needed = 0, uses_anonymous_args = 0
  70              		@ link register save eliminated.
  71              	.LVL0:
  72              		.loc 1 34 0
  73 0000 0023     		movs	r3, #0
  74 0002 4360     		str	r3, [r0, #4]
  75 0004 0360     		str	r3, [r0]
  76 0006 7047     		bx	lr
  77              		.cfi_endproc
  78              	.LFE113:
  79              		.size	gfxQueueASyncInit, .-gfxQueueASyncInit
  80 0008 AFF30080 		.section	.text.gfxQueueASyncGet,"ax",%progbits
  80      AFF30080 
  81              		.align	2
  82              		.p2align 4,,15
  83              		.global	gfxQueueASyncGet
  84              		.thumb
  85              		.thumb_func
  86              		.type	gfxQueueASyncGet, %function
  87              	gfxQueueASyncGet:
  88              	.LFB114:
  89              		.loc 1 37 0
  90              		.cfi_startproc
  91              		@ args = 0, pretend = 0, frame = 0
  92              		@ frame_needed = 0, uses_anonymous_args = 0
  93              	.LVL1:
  94              		.loc 1 41 0
  95 0000 0268     		ldr	r2, [r0]
  96              		.loc 1 37 0
  97 0002 00B5     		push	{lr}
  98              		.cfi_def_cfa_offset 4
  99              		.cfi_offset 14, -4
 100              		.loc 1 41 0
 101 0004 4AB1     		cbz	r2, .L5
 102              		.loc 1 44 0
 103              	@ 44 "/home/makkmarci/devel/ugfx/src/gqueue/gqueue.c" 1
 104 0006 FFF7FEFF 		bl      _port_lock
 105              	@ 0 "" 2
 106              	.LVL2:
 107              		.thumb
ARM GAS  /tmp/ccddCc5y.s 			page 3


 108              	.LBB12:
 109              	.LBB13:
 110              		.loc 1 53 0
 111 000a 0268     		ldr	r2, [r0]
 112              	.LVL3:
 113 000c 1AB1     		cbz	r2, .L6
 114              		.loc 1 54 0
 115 000e 1368     		ldr	r3, [r2]
 116 0010 0360     		str	r3, [r0]
 117              		.loc 1 55 0
 118 0012 0023     		movs	r3, #0
 119 0014 1360     		str	r3, [r2]
 120              	.L6:
 121              	.LBE13:
 122              	.LBE12:
 123              		.loc 1 46 0
 124              	@ 46 "/home/makkmarci/devel/ugfx/src/gqueue/gqueue.c" 1
 125 0016 FFF7FEFF 		bl      _port_unlock
 126              	@ 0 "" 2
 127              	.LVL4:
 128              		.thumb
 129              	.L5:
 130              		.loc 1 49 0
 131 001a 1046     		mov	r0, r2
 132              	.LVL5:
 133 001c 5DF804FB 		ldr	pc, [sp], #4
 134              		.cfi_endproc
 135              	.LFE114:
 136              		.size	gfxQueueASyncGet, .-gfxQueueASyncGet
 137              		.section	.text.gfxQueueASyncGetI,"ax",%progbits
 138              		.align	2
 139              		.p2align 4,,15
 140              		.global	gfxQueueASyncGetI
 141              		.thumb
 142              		.thumb_func
 143              		.type	gfxQueueASyncGetI, %function
 144              	gfxQueueASyncGetI:
 145              	.LFB115:
 146              		.loc 1 50 0
 147              		.cfi_startproc
 148              		@ args = 0, pretend = 0, frame = 0
 149              		@ frame_needed = 0, uses_anonymous_args = 0
 150              		@ link register save eliminated.
 151              	.LVL6:
 152              		.loc 1 53 0
 153 0000 0368     		ldr	r3, [r0]
 154              	.LVL7:
 155 0002 1BB1     		cbz	r3, .L15
 156              		.loc 1 54 0
 157 0004 1A68     		ldr	r2, [r3]
 158 0006 0260     		str	r2, [r0]
 159              		.loc 1 55 0
 160 0008 0022     		movs	r2, #0
 161 000a 1A60     		str	r2, [r3]
 162              	.L15:
 163              		.loc 1 59 0
 164 000c 1846     		mov	r0, r3
ARM GAS  /tmp/ccddCc5y.s 			page 4


 165              	.LVL8:
 166 000e 7047     		bx	lr
 167              		.cfi_endproc
 168              	.LFE115:
 169              		.size	gfxQueueASyncGetI, .-gfxQueueASyncGetI
 170              		.section	.text.gfxQueueASyncPut,"ax",%progbits
 171              		.align	2
 172              		.p2align 4,,15
 173              		.global	gfxQueueASyncPut
 174              		.thumb
 175              		.thumb_func
 176              		.type	gfxQueueASyncPut, %function
 177              	gfxQueueASyncPut:
 178              	.LFB116:
 179              		.loc 1 61 0
 180              		.cfi_startproc
 181              		@ args = 0, pretend = 0, frame = 0
 182              		@ frame_needed = 0, uses_anonymous_args = 0
 183              	.LVL9:
 184 0000 00B5     		push	{lr}
 185              		.cfi_def_cfa_offset 4
 186              		.cfi_offset 14, -4
 187              		.loc 1 62 0
 188              	@ 62 "/home/makkmarci/devel/ugfx/src/gqueue/gqueue.c" 1
 189 0002 FFF7FEFF 		bl      _port_lock
 190              	@ 0 "" 2
 191              	.LVL10:
 192              		.thumb
 193              	.LBB14:
 194              	.LBB15:
 195              		.loc 1 67 0
 196 0006 31B1     		cbz	r1, .L20
 197              		.loc 1 69 0
 198 0008 0368     		ldr	r3, [r0]
 199              		.loc 1 68 0
 200 000a 0022     		movs	r2, #0
 201 000c 0A60     		str	r2, [r1]
 202              		.loc 1 69 0
 203 000e 33B1     		cbz	r3, .L25
 204              		.loc 1 72 0
 205 0010 4368     		ldr	r3, [r0, #4]
 206 0012 1960     		str	r1, [r3]
 207              		.loc 1 73 0
 208 0014 4160     		str	r1, [r0, #4]
 209              	.L20:
 210              	.LBE15:
 211              	.LBE14:
 212              		.loc 1 64 0
 213              	@ 64 "/home/makkmarci/devel/ugfx/src/gqueue/gqueue.c" 1
 214 0016 FFF7FEFF 		bl      _port_unlock
 215              	@ 0 "" 2
 216              		.thumb
 217 001a 5DF804FB 		ldr	pc, [sp], #4
 218              	.L25:
 219              	.LBB17:
 220              	.LBB16:
 221              		.loc 1 70 0
ARM GAS  /tmp/ccddCc5y.s 			page 5


 222 001e 4160     		str	r1, [r0, #4]
 223 0020 0160     		str	r1, [r0]
 224 0022 F8E7     		b	.L20
 225              	.LBE16:
 226              	.LBE17:
 227              		.cfi_endproc
 228              	.LFE116:
 229              		.size	gfxQueueASyncPut, .-gfxQueueASyncPut
 230 0024 AFF30080 		.section	.text.gfxQueueASyncPutI,"ax",%progbits
 230      AFF30080 
 230      AFF30080 
 231              		.align	2
 232              		.p2align 4,,15
 233              		.global	gfxQueueASyncPutI
 234              		.thumb
 235              		.thumb_func
 236              		.type	gfxQueueASyncPutI, %function
 237              	gfxQueueASyncPutI:
 238              	.LFB117:
 239              		.loc 1 66 0
 240              		.cfi_startproc
 241              		@ args = 0, pretend = 0, frame = 0
 242              		@ frame_needed = 0, uses_anonymous_args = 0
 243              		@ link register save eliminated.
 244              	.LVL11:
 245              		.loc 1 67 0
 246 0000 31B1     		cbz	r1, .L26
 247              		.loc 1 69 0
 248 0002 0368     		ldr	r3, [r0]
 249              		.loc 1 68 0
 250 0004 0022     		movs	r2, #0
 251 0006 0A60     		str	r2, [r1]
 252              		.loc 1 69 0
 253 0008 1BB1     		cbz	r3, .L32
 254              		.loc 1 72 0
 255 000a 4368     		ldr	r3, [r0, #4]
 256 000c 1960     		str	r1, [r3]
 257              		.loc 1 73 0
 258 000e 4160     		str	r1, [r0, #4]
 259              	.L26:
 260 0010 7047     		bx	lr
 261              	.L32:
 262              		.loc 1 70 0
 263 0012 4160     		str	r1, [r0, #4]
 264 0014 0160     		str	r1, [r0]
 265 0016 7047     		bx	lr
 266              		.cfi_endproc
 267              	.LFE117:
 268              		.size	gfxQueueASyncPutI, .-gfxQueueASyncPutI
 269 0018 AFF30080 		.section	.text.gfxQueueASyncPush,"ax",%progbits
 269      AFF30080 
 270              		.align	2
 271              		.p2align 4,,15
 272              		.global	gfxQueueASyncPush
 273              		.thumb
 274              		.thumb_func
 275              		.type	gfxQueueASyncPush, %function
ARM GAS  /tmp/ccddCc5y.s 			page 6


 276              	gfxQueueASyncPush:
 277              	.LFB118:
 278              		.loc 1 77 0
 279              		.cfi_startproc
 280              		@ args = 0, pretend = 0, frame = 0
 281              		@ frame_needed = 0, uses_anonymous_args = 0
 282              	.LVL12:
 283 0000 00B5     		push	{lr}
 284              		.cfi_def_cfa_offset 4
 285              		.cfi_offset 14, -4
 286              		.loc 1 78 0
 287              	@ 78 "/home/makkmarci/devel/ugfx/src/gqueue/gqueue.c" 1
 288 0002 FFF7FEFF 		bl      _port_lock
 289              	@ 0 "" 2
 290              	.LVL13:
 291              		.thumb
 292              	.LBB18:
 293              	.LBB19:
 294              		.loc 1 83 0
 295 0006 19B1     		cbz	r1, .L35
 296              		.loc 1 84 0
 297 0008 0368     		ldr	r3, [r0]
 298 000a 0B60     		str	r3, [r1]
 299              		.loc 1 85 0
 300 000c 0160     		str	r1, [r0]
 301              		.loc 1 86 0
 302 000e 1BB1     		cbz	r3, .L37
 303              	.L35:
 304              	.LBE19:
 305              	.LBE18:
 306              		.loc 1 80 0
 307              	@ 80 "/home/makkmarci/devel/ugfx/src/gqueue/gqueue.c" 1
 308 0010 FFF7FEFF 		bl      _port_unlock
 309              	@ 0 "" 2
 310              		.thumb
 311 0014 5DF804FB 		ldr	pc, [sp], #4
 312              	.L37:
 313              	.LBB21:
 314              	.LBB20:
 315              		.loc 1 87 0
 316 0018 4160     		str	r1, [r0, #4]
 317              	.LBE20:
 318              	.LBE21:
 319              		.loc 1 80 0
 320              	@ 80 "/home/makkmarci/devel/ugfx/src/gqueue/gqueue.c" 1
 321 001a FFF7FEFF 		bl      _port_unlock
 322              	@ 0 "" 2
 323              		.thumb
 324 001e 5DF804FB 		ldr	pc, [sp], #4
 325              		.cfi_endproc
 326              	.LFE118:
 327              		.size	gfxQueueASyncPush, .-gfxQueueASyncPush
 328 0022 00BFAFF3 		.section	.text.gfxQueueASyncPushI,"ax",%progbits
 328      0080AFF3 
 328      0080AFF3 
 328      0080
 329              		.align	2
ARM GAS  /tmp/ccddCc5y.s 			page 7


 330              		.p2align 4,,15
 331              		.global	gfxQueueASyncPushI
 332              		.thumb
 333              		.thumb_func
 334              		.type	gfxQueueASyncPushI, %function
 335              	gfxQueueASyncPushI:
 336              	.LFB119:
 337              		.loc 1 82 0
 338              		.cfi_startproc
 339              		@ args = 0, pretend = 0, frame = 0
 340              		@ frame_needed = 0, uses_anonymous_args = 0
 341              		@ link register save eliminated.
 342              	.LVL14:
 343              		.loc 1 83 0
 344 0000 19B1     		cbz	r1, .L38
 345              		.loc 1 84 0
 346 0002 0368     		ldr	r3, [r0]
 347 0004 0B60     		str	r3, [r1]
 348              		.loc 1 85 0
 349 0006 0160     		str	r1, [r0]
 350              		.loc 1 86 0
 351 0008 03B1     		cbz	r3, .L42
 352              	.L38:
 353 000a 7047     		bx	lr
 354              	.L42:
 355              		.loc 1 87 0
 356 000c 4160     		str	r1, [r0, #4]
 357 000e 7047     		bx	lr
 358              		.cfi_endproc
 359              	.LFE119:
 360              		.size	gfxQueueASyncPushI, .-gfxQueueASyncPushI
 361              		.section	.text.gfxQueueASyncInsertI,"ax",%progbits
 362              		.align	2
 363              		.p2align 4,,15
 364              		.global	gfxQueueASyncInsertI
 365              		.thumb
 366              		.thumb_func
 367              		.type	gfxQueueASyncInsertI, %function
 368              	gfxQueueASyncInsertI:
 369              	.LFB121:
 370              		.loc 1 95 0
 371              		.cfi_startproc
 372              		@ args = 0, pretend = 0, frame = 0
 373              		@ frame_needed = 0, uses_anonymous_args = 0
 374              		@ link register save eliminated.
 375              	.LVL15:
 376 0000 10B4     		push	{r4}
 377              		.cfi_def_cfa_offset 4
 378              		.cfi_offset 4, -4
 379              		.loc 1 96 0
 380 0002 69B1     		cbz	r1, .L43
 381              	.LBB22:
 382              	.LBB23:
 383              		.loc 1 153 0
 384 0004 0368     		ldr	r3, [r0]
 385              	.LBE23:
 386              	.LBE22:
ARM GAS  /tmp/ccddCc5y.s 			page 8


 387              		.loc 1 98 0
 388 0006 AAB1     		cbz	r2, .L46
 389              	.LVL16:
 390              	.LBB25:
 391              	.LBB24:
 392              		.loc 1 153 0
 393 0008 13B9     		cbnz	r3, .L50
 394 000a 19E0     		b	.L60
 395              	.L59:
 396 000c 1B68     		ldr	r3, [r3]
 397              	.LVL17:
 398 000e 53B1     		cbz	r3, .L58
 399              	.L50:
 400              		.loc 1 154 0
 401 0010 9A42     		cmp	r2, r3
 402 0012 FBD1     		bne	.L59
 403              	.LBE24:
 404              	.LBE25:
 405              		.loc 1 101 0
 406 0014 4468     		ldr	r4, [r0, #4]
 407              		.loc 1 99 0
 408 0016 1368     		ldr	r3, [r2]
 409              	.LVL18:
 410 0018 0B60     		str	r3, [r1]
 411              		.loc 1 101 0
 412 001a 9442     		cmp	r4, r2
 413              		.loc 1 100 0
 414 001c 1160     		str	r1, [r2]
 415              		.loc 1 101 0
 416 001e 05D0     		beq	.L57
 417              	.LVL19:
 418              	.L43:
 419              		.loc 1 112 0
 420 0020 5DF8044B 		ldr	r4, [sp], #4
 421 0024 7047     		bx	lr
 422              	.LVL20:
 423              	.L58:
 424              		.loc 1 104 0
 425 0026 0B60     		str	r3, [r1]
 426              	.LVL21:
 427              	.L52:
 428              		.loc 1 108 0
 429 0028 4368     		ldr	r3, [r0, #4]
 430 002a 1960     		str	r1, [r3]
 431              	.L57:
 432              		.loc 1 109 0
 433 002c 4160     		str	r1, [r0, #4]
 434              		.loc 1 112 0
 435 002e 5DF8044B 		ldr	r4, [sp], #4
 436 0032 7047     		bx	lr
 437              	.L46:
 438              		.loc 1 104 0
 439 0034 0A60     		str	r2, [r1]
 440              		.loc 1 105 0
 441 0036 002B     		cmp	r3, #0
 442 0038 F6D1     		bne	.L52
 443              	.L55:
ARM GAS  /tmp/ccddCc5y.s 			page 9


 444              		.loc 1 106 0
 445 003a 4160     		str	r1, [r0, #4]
 446 003c 0160     		str	r1, [r0]
 447 003e EFE7     		b	.L43
 448              	.LVL22:
 449              	.L60:
 450              		.loc 1 104 0
 451 0040 0B60     		str	r3, [r1]
 452 0042 FAE7     		b	.L55
 453              		.cfi_endproc
 454              	.LFE121:
 455              		.size	gfxQueueASyncInsertI, .-gfxQueueASyncInsertI
 456 0044 AFF30080 		.section	.text.gfxQueueASyncInsert,"ax",%progbits
 456      AFF30080 
 456      AFF30080 
 457              		.align	2
 458              		.p2align 4,,15
 459              		.global	gfxQueueASyncInsert
 460              		.thumb
 461              		.thumb_func
 462              		.type	gfxQueueASyncInsert, %function
 463              	gfxQueueASyncInsert:
 464              	.LFB120:
 465              		.loc 1 90 0
 466              		.cfi_startproc
 467              		@ args = 0, pretend = 0, frame = 0
 468              		@ frame_needed = 0, uses_anonymous_args = 0
 469              	.LVL23:
 470 0000 08B5     		push	{r3, lr}
 471              		.cfi_def_cfa_offset 8
 472              		.cfi_offset 3, -8
 473              		.cfi_offset 14, -4
 474              		.loc 1 91 0
 475              	@ 91 "/home/makkmarci/devel/ugfx/src/gqueue/gqueue.c" 1
 476 0002 FFF7FEFF 		bl      _port_lock
 477              	@ 0 "" 2
 478              		.loc 1 92 0
 479              		.thumb
 480 0006 FFF7FEFF 		bl	gfxQueueASyncInsertI
 481              	.LVL24:
 482              		.loc 1 93 0
 483              	@ 93 "/home/makkmarci/devel/ugfx/src/gqueue/gqueue.c" 1
 484 000a FFF7FEFF 		bl      _port_unlock
 485              	@ 0 "" 2
 486              		.thumb
 487 000e 08BD     		pop	{r3, pc}
 488              		.cfi_endproc
 489              	.LFE120:
 490              		.size	gfxQueueASyncInsert, .-gfxQueueASyncInsert
 491              		.section	.text.gfxQueueASyncRemoveI,"ax",%progbits
 492              		.align	2
 493              		.p2align 4,,15
 494              		.global	gfxQueueASyncRemoveI
 495              		.thumb
 496              		.thumb_func
 497              		.type	gfxQueueASyncRemoveI, %function
 498              	gfxQueueASyncRemoveI:
ARM GAS  /tmp/ccddCc5y.s 			page 10


 499              	.LFB123:
 500              		.loc 1 119 0
 501              		.cfi_startproc
 502              		@ args = 0, pretend = 0, frame = 0
 503              		@ frame_needed = 0, uses_anonymous_args = 0
 504              		@ link register save eliminated.
 505              	.LVL25:
 506 0000 10B4     		push	{r4}
 507              		.cfi_def_cfa_offset 4
 508              		.cfi_offset 4, -4
 509              		.loc 1 122 0
 510 0002 51B1     		cbz	r1, .L62
 511              		.loc 1 123 0
 512 0004 0268     		ldr	r2, [r0]
 513 0006 42B1     		cbz	r2, .L62
 514              		.loc 1 124 0
 515 0008 9142     		cmp	r1, r2
 516 000a 03D1     		bne	.L66
 517 000c 14E0     		b	.L76
 518              	.LVL26:
 519              	.L68:
 520              		.loc 1 129 0
 521 000e 9942     		cmp	r1, r3
 522 0010 06D0     		beq	.L65
 523 0012 1A46     		mov	r2, r3
 524              	.LVL27:
 525              	.L66:
 526              		.loc 1 128 0 discriminator 1
 527 0014 1368     		ldr	r3, [r2]
 528 0016 002B     		cmp	r3, #0
 529 0018 F9D1     		bne	.L68
 530              	.LVL28:
 531              	.L62:
 532              		.loc 1 139 0
 533 001a 5DF8044B 		ldr	r4, [sp], #4
 534 001e 7047     		bx	lr
 535              	.LVL29:
 536              	.L65:
 537              		.loc 1 131 0
 538 0020 4468     		ldr	r4, [r0, #4]
 539              		.loc 1 130 0
 540 0022 0B68     		ldr	r3, [r1]
 541 0024 1360     		str	r3, [r2]
 542              		.loc 1 131 0
 543 0026 8C42     		cmp	r4, r1
 544              		.loc 1 133 0
 545 0028 4FF00003 		mov	r3, #0
 546              		.loc 1 132 0
 547 002c 08BF     		it	eq
 548 002e 4260     		streq	r2, [r0, #4]
 549              		.loc 1 139 0
 550 0030 5DF8044B 		ldr	r4, [sp], #4
 551              		.loc 1 133 0
 552 0034 0B60     		str	r3, [r1]
 553              		.loc 1 139 0
 554 0036 7047     		bx	lr
 555              	.LVL30:
ARM GAS  /tmp/ccddCc5y.s 			page 11


 556              	.L76:
 557              		.loc 1 125 0
 558 0038 0B68     		ldr	r3, [r1]
 559 003a 0360     		str	r3, [r0]
 560              		.loc 1 126 0
 561 003c 0023     		movs	r3, #0
 562 003e 0B60     		str	r3, [r1]
 563 0040 EBE7     		b	.L62
 564              		.cfi_endproc
 565              	.LFE123:
 566              		.size	gfxQueueASyncRemoveI, .-gfxQueueASyncRemoveI
 567 0042 00BFAFF3 		.section	.text.gfxQueueASyncRemove,"ax",%progbits
 567      0080AFF3 
 567      0080AFF3 
 567      0080
 568              		.align	2
 569              		.p2align 4,,15
 570              		.global	gfxQueueASyncRemove
 571              		.thumb
 572              		.thumb_func
 573              		.type	gfxQueueASyncRemove, %function
 574              	gfxQueueASyncRemove:
 575              	.LFB122:
 576              		.loc 1 114 0
 577              		.cfi_startproc
 578              		@ args = 0, pretend = 0, frame = 0
 579              		@ frame_needed = 0, uses_anonymous_args = 0
 580              	.LVL31:
 581 0000 08B5     		push	{r3, lr}
 582              		.cfi_def_cfa_offset 8
 583              		.cfi_offset 3, -8
 584              		.cfi_offset 14, -4
 585              		.loc 1 115 0
 586              	@ 115 "/home/makkmarci/devel/ugfx/src/gqueue/gqueue.c" 1
 587 0002 FFF7FEFF 		bl      _port_lock
 588              	@ 0 "" 2
 589              		.loc 1 116 0
 590              		.thumb
 591 0006 FFF7FEFF 		bl	gfxQueueASyncRemoveI
 592              	.LVL32:
 593              		.loc 1 117 0
 594              	@ 117 "/home/makkmarci/devel/ugfx/src/gqueue/gqueue.c" 1
 595 000a FFF7FEFF 		bl      _port_unlock
 596              	@ 0 "" 2
 597              		.thumb
 598 000e 08BD     		pop	{r3, pc}
 599              		.cfi_endproc
 600              	.LFE122:
 601              		.size	gfxQueueASyncRemove, .-gfxQueueASyncRemove
 602              		.section	.text.gfxQueueASyncIsIn,"ax",%progbits
 603              		.align	2
 604              		.p2align 4,,15
 605              		.global	gfxQueueASyncIsIn
 606              		.thumb
 607              		.thumb_func
 608              		.type	gfxQueueASyncIsIn, %function
 609              	gfxQueueASyncIsIn:
ARM GAS  /tmp/ccddCc5y.s 			page 12


 610              	.LFB124:
 611              		.loc 1 141 0
 612              		.cfi_startproc
 613              		@ args = 0, pretend = 0, frame = 0
 614              		@ frame_needed = 0, uses_anonymous_args = 0
 615              	.LVL33:
 616 0000 00B5     		push	{lr}
 617              		.cfi_def_cfa_offset 4
 618              		.cfi_offset 14, -4
 619              		.loc 1 144 0
 620              	@ 144 "/home/makkmarci/devel/ugfx/src/gqueue/gqueue.c" 1
 621 0002 FFF7FEFF 		bl      _port_lock
 622              	@ 0 "" 2
 623              		.thumb
 624 0006 01E0     		b	.L86
 625              	.LVL34:
 626              	.L87:
 627              	.LBB26:
 628              	.LBB27:
 629              		.loc 1 154 0
 630 0008 8142     		cmp	r1, r0
 631 000a 06D0     		beq	.L84
 632              	.LVL35:
 633              	.L86:
 634              		.loc 1 153 0
 635 000c 0068     		ldr	r0, [r0]
 636              	.LVL36:
 637 000e 0028     		cmp	r0, #0
 638 0010 FAD1     		bne	.L87
 639              	.LBE27:
 640              	.LBE26:
 641              		.loc 1 146 0
 642              	@ 146 "/home/makkmarci/devel/ugfx/src/gqueue/gqueue.c" 1
 643 0012 FFF7FEFF 		bl      _port_unlock
 644              	@ 0 "" 2
 645              		.loc 1 149 0
 646              		.thumb
 647 0016 5DF804FB 		ldr	pc, [sp], #4
 648              	.L84:
 649              	.LBB29:
 650              	.LBB28:
 651              		.loc 1 155 0
 652 001a 0120     		movs	r0, #1
 653              	.LVL37:
 654              	.LBE28:
 655              	.LBE29:
 656              		.loc 1 146 0
 657              	@ 146 "/home/makkmarci/devel/ugfx/src/gqueue/gqueue.c" 1
 658 001c FFF7FEFF 		bl      _port_unlock
 659              	@ 0 "" 2
 660              		.loc 1 149 0
 661              		.thumb
 662 0020 5DF804FB 		ldr	pc, [sp], #4
 663              		.cfi_endproc
 664              	.LFE124:
 665              		.size	gfxQueueASyncIsIn, .-gfxQueueASyncIsIn
 666 0024 AFF30080 		.section	.text.gfxQueueASyncIsInI,"ax",%progbits
ARM GAS  /tmp/ccddCc5y.s 			page 13


 666      AFF30080 
 666      AFF30080 
 667              		.align	2
 668              		.p2align 4,,15
 669              		.global	gfxQueueASyncIsInI
 670              		.thumb
 671              		.thumb_func
 672              		.type	gfxQueueASyncIsInI, %function
 673              	gfxQueueASyncIsInI:
 674              	.LFB125:
 675              		.loc 1 150 0
 676              		.cfi_startproc
 677              		@ args = 0, pretend = 0, frame = 0
 678              		@ frame_needed = 0, uses_anonymous_args = 0
 679              		@ link register save eliminated.
 680              	.LVL38:
 681              		.loc 1 153 0
 682 0000 0068     		ldr	r0, [r0]
 683              	.LVL39:
 684 0002 48B1     		cbz	r0, .L89
 685              		.loc 1 154 0
 686 0004 8842     		cmp	r0, r1
 687 0006 02D1     		bne	.L90
 688 0008 05E0     		b	.L94
 689              	.L91:
 690 000a 8142     		cmp	r1, r0
 691 000c 03D0     		beq	.L94
 692              	.L90:
 693              		.loc 1 153 0
 694 000e 0068     		ldr	r0, [r0]
 695              	.LVL40:
 696 0010 0028     		cmp	r0, #0
 697 0012 FAD1     		bne	.L91
 698 0014 7047     		bx	lr
 699              	.L94:
 700              		.loc 1 155 0
 701 0016 0120     		movs	r0, #1
 702              	.LVL41:
 703              	.L89:
 704              		.loc 1 158 0
 705 0018 7047     		bx	lr
 706              		.cfi_endproc
 707              	.LFE125:
 708              		.size	gfxQueueASyncIsInI, .-gfxQueueASyncIsInI
 709 001a 00BFAFF3 		.text
 709      0080
 710              	.Letext0:
 711              		.file 2 "/opt/ARM/arm-none-eabi/include/machine/_default_types.h"
 712              		.file 3 "/opt/ARM/arm-none-eabi/include/stdint.h"
 713              		.file 4 "../../os/ports/GCC/ARMCMx/chtypes.h"
 714              		.file 5 "/home/makkmarci/devel/ugfx/src/gqueue/sys_defs.h"
 715              		.file 6 "../../os/ports/common/ARMCMx/CMSIS/include/core_cm4.h"
 716              		.section	.debug_info,"",%progbits
 717              	.Ldebug_info0:
 718 0000 5E050000 		.4byte	0x55e
 719 0004 0400     		.2byte	0x4
 720 0006 00000000 		.4byte	.Ldebug_abbrev0
ARM GAS  /tmp/ccddCc5y.s 			page 14


 721 000a 04       		.byte	0x4
 722 000b 01       		.uleb128 0x1
 723 000c 6E020000 		.4byte	.LASF38
 724 0010 01       		.byte	0x1
 725 0011 38000000 		.4byte	.LASF39
 726 0015 83010000 		.4byte	.LASF40
 727 0019 60000000 		.4byte	.Ldebug_ranges0+0x60
 728 001d 00000000 		.4byte	0
 729 0021 00000000 		.4byte	.Ldebug_line0
 730 0025 02       		.uleb128 0x2
 731 0026 04       		.byte	0x4
 732 0027 05       		.byte	0x5
 733 0028 696E7400 		.ascii	"int\000"
 734 002c 03       		.uleb128 0x3
 735 002d 04       		.byte	0x4
 736 002e 07       		.byte	0x7
 737 002f E0010000 		.4byte	.LASF0
 738 0033 03       		.uleb128 0x3
 739 0034 01       		.byte	0x1
 740 0035 06       		.byte	0x6
 741 0036 62020000 		.4byte	.LASF1
 742 003a 03       		.uleb128 0x3
 743 003b 01       		.byte	0x1
 744 003c 08       		.byte	0x8
 745 003d F1000000 		.4byte	.LASF2
 746 0041 03       		.uleb128 0x3
 747 0042 02       		.byte	0x2
 748 0043 05       		.byte	0x5
 749 0044 44020000 		.4byte	.LASF3
 750 0048 03       		.uleb128 0x3
 751 0049 02       		.byte	0x2
 752 004a 07       		.byte	0x7
 753 004b 34010000 		.4byte	.LASF4
 754 004f 04       		.uleb128 0x4
 755 0050 67000000 		.4byte	.LASF9
 756 0054 02       		.byte	0x2
 757 0055 37       		.byte	0x37
 758 0056 5A000000 		.4byte	0x5a
 759 005a 03       		.uleb128 0x3
 760 005b 04       		.byte	0x4
 761 005c 05       		.byte	0x5
 762 005d 59020000 		.4byte	.LASF5
 763 0061 03       		.uleb128 0x3
 764 0062 04       		.byte	0x4
 765 0063 07       		.byte	0x7
 766 0064 22010000 		.4byte	.LASF6
 767 0068 03       		.uleb128 0x3
 768 0069 08       		.byte	0x8
 769 006a 05       		.byte	0x5
 770 006b 15020000 		.4byte	.LASF7
 771 006f 03       		.uleb128 0x3
 772 0070 08       		.byte	0x8
 773 0071 07       		.byte	0x7
 774 0072 DA000000 		.4byte	.LASF8
 775 0076 04       		.uleb128 0x4
 776 0077 04020000 		.4byte	.LASF10
 777 007b 03       		.byte	0x3
ARM GAS  /tmp/ccddCc5y.s 			page 15


 778 007c 41       		.byte	0x41
 779 007d 4F000000 		.4byte	0x4f
 780 0081 04       		.uleb128 0x4
 781 0082 BB000000 		.4byte	.LASF11
 782 0086 04       		.byte	0x4
 783 0087 2B       		.byte	0x2b
 784 0088 8C000000 		.4byte	0x8c
 785 008c 03       		.uleb128 0x3
 786 008d 01       		.byte	0x1
 787 008e 02       		.byte	0x2
 788 008f 87030000 		.4byte	.LASF12
 789 0093 03       		.uleb128 0x3
 790 0094 04       		.byte	0x4
 791 0095 07       		.byte	0x7
 792 0096 0C020000 		.4byte	.LASF13
 793 009a 03       		.uleb128 0x3
 794 009b 01       		.byte	0x1
 795 009c 08       		.byte	0x8
 796 009d ED010000 		.4byte	.LASF14
 797 00a1 05       		.uleb128 0x5
 798 00a2 76000000 		.4byte	0x76
 799 00a6 06       		.uleb128 0x6
 800 00a7 71000000 		.4byte	.LASF15
 801 00ab 04       		.byte	0x4
 802 00ac 05       		.byte	0x5
 803 00ad 28       		.byte	0x28
 804 00ae BF000000 		.4byte	0xbf
 805 00b2 07       		.uleb128 0x7
 806 00b3 25000000 		.4byte	.LASF17
 807 00b7 05       		.byte	0x5
 808 00b8 29       		.byte	0x29
 809 00b9 BF000000 		.4byte	0xbf
 810 00bd 00       		.byte	0
 811 00be 00       		.byte	0
 812 00bf 08       		.uleb128 0x8
 813 00c0 04       		.byte	0x4
 814 00c1 A6000000 		.4byte	0xa6
 815 00c5 04       		.uleb128 0x4
 816 00c6 71000000 		.4byte	.LASF15
 817 00ca 05       		.byte	0x5
 818 00cb 2A       		.byte	0x2a
 819 00cc A6000000 		.4byte	0xa6
 820 00d0 06       		.uleb128 0x6
 821 00d1 2A000000 		.4byte	.LASF16
 822 00d5 08       		.byte	0x8
 823 00d6 05       		.byte	0x5
 824 00d7 36       		.byte	0x36
 825 00d8 F5000000 		.4byte	0xf5
 826 00dc 07       		.uleb128 0x7
 827 00dd 7E010000 		.4byte	.LASF18
 828 00e1 05       		.byte	0x5
 829 00e2 37       		.byte	0x37
 830 00e3 F5000000 		.4byte	0xf5
 831 00e7 00       		.byte	0
 832 00e8 07       		.uleb128 0x7
 833 00e9 4E020000 		.4byte	.LASF19
 834 00ed 05       		.byte	0x5
ARM GAS  /tmp/ccddCc5y.s 			page 16


 835 00ee 38       		.byte	0x38
 836 00ef F5000000 		.4byte	0xf5
 837 00f3 04       		.byte	0x4
 838 00f4 00       		.byte	0
 839 00f5 08       		.uleb128 0x8
 840 00f6 04       		.byte	0x4
 841 00f7 C5000000 		.4byte	0xc5
 842 00fb 04       		.uleb128 0x4
 843 00fc 2A000000 		.4byte	.LASF16
 844 0100 05       		.byte	0x5
 845 0101 39       		.byte	0x39
 846 0102 D0000000 		.4byte	0xd0
 847 0106 09       		.uleb128 0x9
 848 0107 83000000 		.4byte	.LASF24
 849 010b 01       		.byte	0x1
 850 010c 32       		.byte	0x32
 851 010d F5000000 		.4byte	0xf5
 852 0111 01       		.byte	0x1
 853 0112 2C010000 		.4byte	0x12c
 854 0116 0A       		.uleb128 0xa
 855 0117 77010000 		.4byte	.LASF20
 856 011b 01       		.byte	0x1
 857 011c 32       		.byte	0x32
 858 011d 2C010000 		.4byte	0x12c
 859 0121 0B       		.uleb128 0xb
 860 0122 706900   		.ascii	"pi\000"
 861 0125 01       		.byte	0x1
 862 0126 33       		.byte	0x33
 863 0127 F5000000 		.4byte	0xf5
 864 012b 00       		.byte	0
 865 012c 08       		.uleb128 0x8
 866 012d 04       		.byte	0x4
 867 012e FB000000 		.4byte	0xfb
 868 0132 0C       		.uleb128 0xc
 869 0133 F2010000 		.4byte	.LASF22
 870 0137 01       		.byte	0x1
 871 0138 42       		.byte	0x42
 872 0139 01       		.byte	0x1
 873 013a 55010000 		.4byte	0x155
 874 013e 0A       		.uleb128 0xa
 875 013f 77010000 		.4byte	.LASF20
 876 0143 01       		.byte	0x1
 877 0144 42       		.byte	0x42
 878 0145 2C010000 		.4byte	0x12c
 879 0149 0A       		.uleb128 0xa
 880 014a 53020000 		.4byte	.LASF21
 881 014e 01       		.byte	0x1
 882 014f 42       		.byte	0x42
 883 0150 F5000000 		.4byte	0xf5
 884 0154 00       		.byte	0
 885 0155 0C       		.uleb128 0xc
 886 0156 CD010000 		.4byte	.LASF23
 887 015a 01       		.byte	0x1
 888 015b 52       		.byte	0x52
 889 015c 01       		.byte	0x1
 890 015d 78010000 		.4byte	0x178
 891 0161 0A       		.uleb128 0xa
ARM GAS  /tmp/ccddCc5y.s 			page 17


 892 0162 77010000 		.4byte	.LASF20
 893 0166 01       		.byte	0x1
 894 0167 52       		.byte	0x52
 895 0168 2C010000 		.4byte	0x12c
 896 016c 0A       		.uleb128 0xa
 897 016d 53020000 		.4byte	.LASF21
 898 0171 01       		.byte	0x1
 899 0172 52       		.byte	0x52
 900 0173 F5000000 		.4byte	0xf5
 901 0177 00       		.byte	0
 902 0178 09       		.uleb128 0x9
 903 0179 12000000 		.4byte	.LASF25
 904 017d 01       		.byte	0x1
 905 017e 96       		.byte	0x96
 906 017f 81000000 		.4byte	0x81
 907 0183 01       		.byte	0x1
 908 0184 A9010000 		.4byte	0x1a9
 909 0188 0A       		.uleb128 0xa
 910 0189 77010000 		.4byte	.LASF20
 911 018d 01       		.byte	0x1
 912 018e 96       		.byte	0x96
 913 018f 2C010000 		.4byte	0x12c
 914 0193 0A       		.uleb128 0xa
 915 0194 53020000 		.4byte	.LASF21
 916 0198 01       		.byte	0x1
 917 0199 96       		.byte	0x96
 918 019a A9010000 		.4byte	0x1a9
 919 019e 0B       		.uleb128 0xb
 920 019f 706900   		.ascii	"pi\000"
 921 01a2 01       		.byte	0x1
 922 01a3 97       		.byte	0x97
 923 01a4 F5000000 		.4byte	0xf5
 924 01a8 00       		.byte	0
 925 01a9 08       		.uleb128 0x8
 926 01aa 04       		.byte	0x4
 927 01ab AF010000 		.4byte	0x1af
 928 01af 0D       		.uleb128 0xd
 929 01b0 C5000000 		.4byte	0xc5
 930 01b4 0E       		.uleb128 0xe
 931 01b5 23020000 		.4byte	.LASF26
 932 01b9 01       		.byte	0x1
 933 01ba 15       		.byte	0x15
 934 01bb 00000000 		.4byte	.LFB111
 935 01bf 02000000 		.4byte	.LFE111-.LFB111
 936 01c3 01       		.uleb128 0x1
 937 01c4 9C       		.byte	0x9c
 938 01c5 0E       		.uleb128 0xe
 939 01c6 69010000 		.4byte	.LASF27
 940 01ca 01       		.byte	0x1
 941 01cb 1C       		.byte	0x1c
 942 01cc 00000000 		.4byte	.LFB112
 943 01d0 02000000 		.4byte	.LFE112-.LFB112
 944 01d4 01       		.uleb128 0x1
 945 01d5 9C       		.byte	0x9c
 946 01d6 0F       		.uleb128 0xf
 947 01d7 00000000 		.4byte	.LASF28
 948 01db 01       		.byte	0x1
ARM GAS  /tmp/ccddCc5y.s 			page 18


 949 01dc 21       		.byte	0x21
 950 01dd 00000000 		.4byte	.LFB113
 951 01e1 08000000 		.4byte	.LFE113-.LFB113
 952 01e5 01       		.uleb128 0x1
 953 01e6 9C       		.byte	0x9c
 954 01e7 F9010000 		.4byte	0x1f9
 955 01eb 10       		.uleb128 0x10
 956 01ec 77010000 		.4byte	.LASF20
 957 01f0 01       		.byte	0x1
 958 01f1 21       		.byte	0x21
 959 01f2 2C010000 		.4byte	0x12c
 960 01f6 01       		.uleb128 0x1
 961 01f7 50       		.byte	0x50
 962 01f8 00       		.byte	0
 963 01f9 11       		.uleb128 0x11
 964 01fa FF000000 		.4byte	.LASF36
 965 01fe 01       		.byte	0x1
 966 01ff 25       		.byte	0x25
 967 0200 F5000000 		.4byte	0xf5
 968 0204 00000000 		.4byte	.LFB114
 969 0208 20000000 		.4byte	.LFE114-.LFB114
 970 020c 01       		.uleb128 0x1
 971 020d 9C       		.byte	0x9c
 972 020e 5A020000 		.4byte	0x25a
 973 0212 12       		.uleb128 0x12
 974 0213 77010000 		.4byte	.LASF20
 975 0217 01       		.byte	0x1
 976 0218 25       		.byte	0x25
 977 0219 2C010000 		.4byte	0x12c
 978 021d 00000000 		.4byte	.LLST0
 979 0221 13       		.uleb128 0x13
 980 0222 706900   		.ascii	"pi\000"
 981 0225 01       		.byte	0x1
 982 0226 26       		.byte	0x26
 983 0227 F5000000 		.4byte	0xf5
 984 022b 01       		.uleb128 0x1
 985 022c 52       		.byte	0x52
 986 022d 14       		.uleb128 0x14
 987 022e 06010000 		.4byte	0x106
 988 0232 0A000000 		.4byte	.LBB12
 989 0236 0C000000 		.4byte	.LBE12-.LBB12
 990 023a 01       		.byte	0x1
 991 023b 2D       		.byte	0x2d
 992 023c 15       		.uleb128 0x15
 993 023d 16010000 		.4byte	0x116
 994 0241 21000000 		.4byte	.LLST1
 995 0245 16       		.uleb128 0x16
 996 0246 0A000000 		.4byte	.LBB13
 997 024a 0C000000 		.4byte	.LBE13-.LBB13
 998 024e 17       		.uleb128 0x17
 999 024f 21010000 		.4byte	0x121
 1000 0253 34000000 		.4byte	.LLST2
 1001 0257 00       		.byte	0
 1002 0258 00       		.byte	0
 1003 0259 00       		.byte	0
 1004 025a 18       		.uleb128 0x18
 1005 025b 06010000 		.4byte	0x106
ARM GAS  /tmp/ccddCc5y.s 			page 19


 1006 025f 00000000 		.4byte	.LFB115
 1007 0263 10000000 		.4byte	.LFE115-.LFB115
 1008 0267 01       		.uleb128 0x1
 1009 0268 9C       		.byte	0x9c
 1010 0269 7E020000 		.4byte	0x27e
 1011 026d 15       		.uleb128 0x15
 1012 026e 16010000 		.4byte	0x116
 1013 0272 47000000 		.4byte	.LLST3
 1014 0276 19       		.uleb128 0x19
 1015 0277 21010000 		.4byte	0x121
 1016 027b 01       		.uleb128 0x1
 1017 027c 53       		.byte	0x53
 1018 027d 00       		.byte	0
 1019 027e 0F       		.uleb128 0xf
 1020 027f C2000000 		.4byte	.LASF29
 1021 0283 01       		.byte	0x1
 1022 0284 3D       		.byte	0x3d
 1023 0285 00000000 		.4byte	.LFB116
 1024 0289 24000000 		.4byte	.LFE116-.LFB116
 1025 028d 01       		.uleb128 0x1
 1026 028e 9C       		.byte	0x9c
 1027 028f CC020000 		.4byte	0x2cc
 1028 0293 10       		.uleb128 0x10
 1029 0294 77010000 		.4byte	.LASF20
 1030 0298 01       		.byte	0x1
 1031 0299 3D       		.byte	0x3d
 1032 029a 2C010000 		.4byte	0x12c
 1033 029e 01       		.uleb128 0x1
 1034 029f 50       		.byte	0x50
 1035 02a0 10       		.uleb128 0x10
 1036 02a1 53020000 		.4byte	.LASF21
 1037 02a5 01       		.byte	0x1
 1038 02a6 3D       		.byte	0x3d
 1039 02a7 F5000000 		.4byte	0xf5
 1040 02ab 01       		.uleb128 0x1
 1041 02ac 51       		.byte	0x51
 1042 02ad 1A       		.uleb128 0x1a
 1043 02ae 32010000 		.4byte	0x132
 1044 02b2 06000000 		.4byte	.LBB14
 1045 02b6 00000000 		.4byte	.Ldebug_ranges0+0
 1046 02ba 01       		.byte	0x1
 1047 02bb 3F       		.byte	0x3f
 1048 02bc 1B       		.uleb128 0x1b
 1049 02bd 49010000 		.4byte	0x149
 1050 02c1 01       		.uleb128 0x1
 1051 02c2 51       		.byte	0x51
 1052 02c3 1B       		.uleb128 0x1b
 1053 02c4 3E010000 		.4byte	0x13e
 1054 02c8 01       		.uleb128 0x1
 1055 02c9 50       		.byte	0x50
 1056 02ca 00       		.byte	0
 1057 02cb 00       		.byte	0
 1058 02cc 18       		.uleb128 0x18
 1059 02cd 32010000 		.4byte	0x132
 1060 02d1 00000000 		.4byte	.LFB117
 1061 02d5 18000000 		.4byte	.LFE117-.LFB117
 1062 02d9 01       		.uleb128 0x1
ARM GAS  /tmp/ccddCc5y.s 			page 20


 1063 02da 9C       		.byte	0x9c
 1064 02db EE020000 		.4byte	0x2ee
 1065 02df 1B       		.uleb128 0x1b
 1066 02e0 3E010000 		.4byte	0x13e
 1067 02e4 01       		.uleb128 0x1
 1068 02e5 50       		.byte	0x50
 1069 02e6 1B       		.uleb128 0x1b
 1070 02e7 49010000 		.4byte	0x149
 1071 02eb 01       		.uleb128 0x1
 1072 02ec 51       		.byte	0x51
 1073 02ed 00       		.byte	0
 1074 02ee 0F       		.uleb128 0xf
 1075 02ef 10010000 		.4byte	.LASF30
 1076 02f3 01       		.byte	0x1
 1077 02f4 4D       		.byte	0x4d
 1078 02f5 00000000 		.4byte	.LFB118
 1079 02f9 22000000 		.4byte	.LFE118-.LFB118
 1080 02fd 01       		.uleb128 0x1
 1081 02fe 9C       		.byte	0x9c
 1082 02ff 3C030000 		.4byte	0x33c
 1083 0303 10       		.uleb128 0x10
 1084 0304 77010000 		.4byte	.LASF20
 1085 0308 01       		.byte	0x1
 1086 0309 4D       		.byte	0x4d
 1087 030a 2C010000 		.4byte	0x12c
 1088 030e 01       		.uleb128 0x1
 1089 030f 50       		.byte	0x50
 1090 0310 10       		.uleb128 0x10
 1091 0311 53020000 		.4byte	.LASF21
 1092 0315 01       		.byte	0x1
 1093 0316 4D       		.byte	0x4d
 1094 0317 F5000000 		.4byte	0xf5
 1095 031b 01       		.uleb128 0x1
 1096 031c 51       		.byte	0x51
 1097 031d 1A       		.uleb128 0x1a
 1098 031e 55010000 		.4byte	0x155
 1099 0322 06000000 		.4byte	.LBB18
 1100 0326 18000000 		.4byte	.Ldebug_ranges0+0x18
 1101 032a 01       		.byte	0x1
 1102 032b 4F       		.byte	0x4f
 1103 032c 1B       		.uleb128 0x1b
 1104 032d 6C010000 		.4byte	0x16c
 1105 0331 01       		.uleb128 0x1
 1106 0332 51       		.byte	0x51
 1107 0333 1B       		.uleb128 0x1b
 1108 0334 61010000 		.4byte	0x161
 1109 0338 01       		.uleb128 0x1
 1110 0339 50       		.byte	0x50
 1111 033a 00       		.byte	0
 1112 033b 00       		.byte	0
 1113 033c 18       		.uleb128 0x18
 1114 033d 55010000 		.4byte	0x155
 1115 0341 00000000 		.4byte	.LFB119
 1116 0345 10000000 		.4byte	.LFE119-.LFB119
 1117 0349 01       		.uleb128 0x1
 1118 034a 9C       		.byte	0x9c
 1119 034b 5E030000 		.4byte	0x35e
ARM GAS  /tmp/ccddCc5y.s 			page 21


 1120 034f 1B       		.uleb128 0x1b
 1121 0350 61010000 		.4byte	0x161
 1122 0354 01       		.uleb128 0x1
 1123 0355 50       		.byte	0x50
 1124 0356 1B       		.uleb128 0x1b
 1125 0357 6C010000 		.4byte	0x16c
 1126 035b 01       		.uleb128 0x1
 1127 035c 51       		.byte	0x51
 1128 035d 00       		.byte	0
 1129 035e 0F       		.uleb128 0xf
 1130 035f 2F020000 		.4byte	.LASF31
 1131 0363 01       		.byte	0x1
 1132 0364 5F       		.byte	0x5f
 1133 0365 00000000 		.4byte	.LFB121
 1134 0369 44000000 		.4byte	.LFE121-.LFB121
 1135 036d 01       		.uleb128 0x1
 1136 036e 9C       		.byte	0x9c
 1137 036f CC030000 		.4byte	0x3cc
 1138 0373 10       		.uleb128 0x10
 1139 0374 77010000 		.4byte	.LASF20
 1140 0378 01       		.byte	0x1
 1141 0379 5F       		.byte	0x5f
 1142 037a 2C010000 		.4byte	0x12c
 1143 037e 01       		.uleb128 0x1
 1144 037f 50       		.byte	0x50
 1145 0380 10       		.uleb128 0x10
 1146 0381 53020000 		.4byte	.LASF21
 1147 0385 01       		.byte	0x1
 1148 0386 5F       		.byte	0x5f
 1149 0387 F5000000 		.4byte	0xf5
 1150 038b 01       		.uleb128 0x1
 1151 038c 51       		.byte	0x51
 1152 038d 10       		.uleb128 0x10
 1153 038e D3000000 		.4byte	.LASF32
 1154 0392 01       		.byte	0x1
 1155 0393 5F       		.byte	0x5f
 1156 0394 F5000000 		.4byte	0xf5
 1157 0398 01       		.uleb128 0x1
 1158 0399 52       		.byte	0x52
 1159 039a 1A       		.uleb128 0x1a
 1160 039b 78010000 		.4byte	0x178
 1161 039f 04000000 		.4byte	.LBB22
 1162 03a3 30000000 		.4byte	.Ldebug_ranges0+0x30
 1163 03a7 01       		.byte	0x1
 1164 03a8 62       		.byte	0x62
 1165 03a9 15       		.uleb128 0x15
 1166 03aa 93010000 		.4byte	0x193
 1167 03ae 68000000 		.4byte	.LLST4
 1168 03b2 15       		.uleb128 0x15
 1169 03b3 88010000 		.4byte	0x188
 1170 03b7 91000000 		.4byte	.LLST5
 1171 03bb 1C       		.uleb128 0x1c
 1172 03bc 30000000 		.4byte	.Ldebug_ranges0+0x30
 1173 03c0 17       		.uleb128 0x17
 1174 03c1 9E010000 		.4byte	0x19e
 1175 03c5 BA000000 		.4byte	.LLST6
 1176 03c9 00       		.byte	0
ARM GAS  /tmp/ccddCc5y.s 			page 22


 1177 03ca 00       		.byte	0
 1178 03cb 00       		.byte	0
 1179 03cc 0F       		.uleb128 0xf
 1180 03cd 95000000 		.4byte	.LASF33
 1181 03d1 01       		.byte	0x1
 1182 03d2 5A       		.byte	0x5a
 1183 03d3 00000000 		.4byte	.LFB120
 1184 03d7 10000000 		.4byte	.LFE120-.LFB120
 1185 03db 01       		.uleb128 0x1
 1186 03dc 9C       		.byte	0x9c
 1187 03dd 2E040000 		.4byte	0x42e
 1188 03e1 12       		.uleb128 0x12
 1189 03e2 77010000 		.4byte	.LASF20
 1190 03e6 01       		.byte	0x1
 1191 03e7 5A       		.byte	0x5a
 1192 03e8 2C010000 		.4byte	0x12c
 1193 03ec E3000000 		.4byte	.LLST7
 1194 03f0 12       		.uleb128 0x12
 1195 03f1 53020000 		.4byte	.LASF21
 1196 03f5 01       		.byte	0x1
 1197 03f6 5A       		.byte	0x5a
 1198 03f7 F5000000 		.4byte	0xf5
 1199 03fb 04010000 		.4byte	.LLST8
 1200 03ff 12       		.uleb128 0x12
 1201 0400 D3000000 		.4byte	.LASF32
 1202 0404 01       		.byte	0x1
 1203 0405 5A       		.byte	0x5a
 1204 0406 F5000000 		.4byte	0xf5
 1205 040a 25010000 		.4byte	.LLST9
 1206 040e 1D       		.uleb128 0x1d
 1207 040f 0A000000 		.4byte	.LVL24
 1208 0413 5E030000 		.4byte	0x35e
 1209 0417 1E       		.uleb128 0x1e
 1210 0418 01       		.uleb128 0x1
 1211 0419 52       		.byte	0x52
 1212 041a 03       		.uleb128 0x3
 1213 041b F3       		.byte	0xf3
 1214 041c 01       		.uleb128 0x1
 1215 041d 52       		.byte	0x52
 1216 041e 1E       		.uleb128 0x1e
 1217 041f 01       		.uleb128 0x1
 1218 0420 51       		.byte	0x51
 1219 0421 03       		.uleb128 0x3
 1220 0422 F3       		.byte	0xf3
 1221 0423 01       		.uleb128 0x1
 1222 0424 51       		.byte	0x51
 1223 0425 1E       		.uleb128 0x1e
 1224 0426 01       		.uleb128 0x1
 1225 0427 50       		.byte	0x50
 1226 0428 03       		.uleb128 0x3
 1227 0429 F3       		.byte	0xf3
 1228 042a 01       		.uleb128 0x1
 1229 042b 50       		.byte	0x50
 1230 042c 00       		.byte	0
 1231 042d 00       		.byte	0
 1232 042e 0F       		.uleb128 0xf
 1233 042f 47010000 		.4byte	.LASF34
ARM GAS  /tmp/ccddCc5y.s 			page 23


 1234 0433 01       		.byte	0x1
 1235 0434 77       		.byte	0x77
 1236 0435 00000000 		.4byte	.LFB123
 1237 0439 42000000 		.4byte	.LFE123-.LFB123
 1238 043d 01       		.uleb128 0x1
 1239 043e 9C       		.byte	0x9c
 1240 043f 6C040000 		.4byte	0x46c
 1241 0443 10       		.uleb128 0x10
 1242 0444 77010000 		.4byte	.LASF20
 1243 0448 01       		.byte	0x1
 1244 0449 77       		.byte	0x77
 1245 044a 2C010000 		.4byte	0x12c
 1246 044e 01       		.uleb128 0x1
 1247 044f 50       		.byte	0x50
 1248 0450 10       		.uleb128 0x10
 1249 0451 53020000 		.4byte	.LASF21
 1250 0455 01       		.byte	0x1
 1251 0456 77       		.byte	0x77
 1252 0457 F5000000 		.4byte	0xf5
 1253 045b 01       		.uleb128 0x1
 1254 045c 51       		.byte	0x51
 1255 045d 1F       		.uleb128 0x1f
 1256 045e 706900   		.ascii	"pi\000"
 1257 0461 01       		.byte	0x1
 1258 0462 78       		.byte	0x78
 1259 0463 F5000000 		.4byte	0xf5
 1260 0467 46010000 		.4byte	.LLST10
 1261 046b 00       		.byte	0
 1262 046c 0F       		.uleb128 0xf
 1263 046d 8D030000 		.4byte	.LASF35
 1264 0471 01       		.byte	0x1
 1265 0472 72       		.byte	0x72
 1266 0473 00000000 		.4byte	.LFB122
 1267 0477 10000000 		.4byte	.LFE122-.LFB122
 1268 047b 01       		.uleb128 0x1
 1269 047c 9C       		.byte	0x9c
 1270 047d B8040000 		.4byte	0x4b8
 1271 0481 12       		.uleb128 0x12
 1272 0482 77010000 		.4byte	.LASF20
 1273 0486 01       		.byte	0x1
 1274 0487 72       		.byte	0x72
 1275 0488 2C010000 		.4byte	0x12c
 1276 048c 64010000 		.4byte	.LLST11
 1277 0490 12       		.uleb128 0x12
 1278 0491 53020000 		.4byte	.LASF21
 1279 0495 01       		.byte	0x1
 1280 0496 72       		.byte	0x72
 1281 0497 F5000000 		.4byte	0xf5
 1282 049b 85010000 		.4byte	.LLST12
 1283 049f 1D       		.uleb128 0x1d
 1284 04a0 0A000000 		.4byte	.LVL32
 1285 04a4 2E040000 		.4byte	0x42e
 1286 04a8 1E       		.uleb128 0x1e
 1287 04a9 01       		.uleb128 0x1
 1288 04aa 51       		.byte	0x51
 1289 04ab 03       		.uleb128 0x3
 1290 04ac F3       		.byte	0xf3
ARM GAS  /tmp/ccddCc5y.s 			page 24


 1291 04ad 01       		.uleb128 0x1
 1292 04ae 51       		.byte	0x51
 1293 04af 1E       		.uleb128 0x1e
 1294 04b0 01       		.uleb128 0x1
 1295 04b1 50       		.byte	0x50
 1296 04b2 03       		.uleb128 0x3
 1297 04b3 F3       		.byte	0xf3
 1298 04b4 01       		.uleb128 0x1
 1299 04b5 50       		.byte	0x50
 1300 04b6 00       		.byte	0
 1301 04b7 00       		.byte	0
 1302 04b8 11       		.uleb128 0x11
 1303 04b9 A9000000 		.4byte	.LASF37
 1304 04bd 01       		.byte	0x1
 1305 04be 8D       		.byte	0x8d
 1306 04bf 81000000 		.4byte	0x81
 1307 04c3 00000000 		.4byte	.LFB124
 1308 04c7 24000000 		.4byte	.LFE124-.LFB124
 1309 04cb 01       		.uleb128 0x1
 1310 04cc 9C       		.byte	0x9c
 1311 04cd 28050000 		.4byte	0x528
 1312 04d1 12       		.uleb128 0x12
 1313 04d2 77010000 		.4byte	.LASF20
 1314 04d6 01       		.byte	0x1
 1315 04d7 8D       		.byte	0x8d
 1316 04d8 2C010000 		.4byte	0x12c
 1317 04dc A6010000 		.4byte	.LLST13
 1318 04e0 10       		.uleb128 0x10
 1319 04e1 53020000 		.4byte	.LASF21
 1320 04e5 01       		.byte	0x1
 1321 04e6 8D       		.byte	0x8d
 1322 04e7 A9010000 		.4byte	0x1a9
 1323 04eb 01       		.uleb128 0x1
 1324 04ec 51       		.byte	0x51
 1325 04ed 0B       		.uleb128 0xb
 1326 04ee 72657300 		.ascii	"res\000"
 1327 04f2 01       		.byte	0x1
 1328 04f3 8E       		.byte	0x8e
 1329 04f4 81000000 		.4byte	0x81
 1330 04f8 1A       		.uleb128 0x1a
 1331 04f9 78010000 		.4byte	0x178
 1332 04fd 08000000 		.4byte	.LBB26
 1333 0501 48000000 		.4byte	.Ldebug_ranges0+0x48
 1334 0505 01       		.byte	0x1
 1335 0506 91       		.byte	0x91
 1336 0507 1B       		.uleb128 0x1b
 1337 0508 93010000 		.4byte	0x193
 1338 050c 01       		.uleb128 0x1
 1339 050d 51       		.byte	0x51
 1340 050e 15       		.uleb128 0x15
 1341 050f 88010000 		.4byte	0x188
 1342 0513 C7010000 		.4byte	.LLST14
 1343 0517 1C       		.uleb128 0x1c
 1344 0518 48000000 		.4byte	.Ldebug_ranges0+0x48
 1345 051c 17       		.uleb128 0x17
 1346 051d 9E010000 		.4byte	0x19e
 1347 0521 DA010000 		.4byte	.LLST15
ARM GAS  /tmp/ccddCc5y.s 			page 25


 1348 0525 00       		.byte	0
 1349 0526 00       		.byte	0
 1350 0527 00       		.byte	0
 1351 0528 18       		.uleb128 0x18
 1352 0529 78010000 		.4byte	0x178
 1353 052d 00000000 		.4byte	.LFB125
 1354 0531 1A000000 		.4byte	.LFE125-.LFB125
 1355 0535 01       		.uleb128 0x1
 1356 0536 9C       		.byte	0x9c
 1357 0537 55050000 		.4byte	0x555
 1358 053b 15       		.uleb128 0x15
 1359 053c 88010000 		.4byte	0x188
 1360 0540 F8010000 		.4byte	.LLST16
 1361 0544 1B       		.uleb128 0x1b
 1362 0545 93010000 		.4byte	0x193
 1363 0549 01       		.uleb128 0x1
 1364 054a 51       		.byte	0x51
 1365 054b 17       		.uleb128 0x17
 1366 054c 9E010000 		.4byte	0x19e
 1367 0550 19020000 		.4byte	.LLST17
 1368 0554 00       		.byte	0
 1369 0555 20       		.uleb128 0x20
 1370 0556 5C010000 		.4byte	.LASF41
 1371 055a 06       		.byte	0x6
 1372 055b 9806     		.2byte	0x698
 1373 055d A1000000 		.4byte	0xa1
 1374 0561 00       		.byte	0
 1375              		.section	.debug_abbrev,"",%progbits
 1376              	.Ldebug_abbrev0:
 1377 0000 01       		.uleb128 0x1
 1378 0001 11       		.uleb128 0x11
 1379 0002 01       		.byte	0x1
 1380 0003 25       		.uleb128 0x25
 1381 0004 0E       		.uleb128 0xe
 1382 0005 13       		.uleb128 0x13
 1383 0006 0B       		.uleb128 0xb
 1384 0007 03       		.uleb128 0x3
 1385 0008 0E       		.uleb128 0xe
 1386 0009 1B       		.uleb128 0x1b
 1387 000a 0E       		.uleb128 0xe
 1388 000b 55       		.uleb128 0x55
 1389 000c 17       		.uleb128 0x17
 1390 000d 11       		.uleb128 0x11
 1391 000e 01       		.uleb128 0x1
 1392 000f 10       		.uleb128 0x10
 1393 0010 17       		.uleb128 0x17
 1394 0011 00       		.byte	0
 1395 0012 00       		.byte	0
 1396 0013 02       		.uleb128 0x2
 1397 0014 24       		.uleb128 0x24
 1398 0015 00       		.byte	0
 1399 0016 0B       		.uleb128 0xb
 1400 0017 0B       		.uleb128 0xb
 1401 0018 3E       		.uleb128 0x3e
 1402 0019 0B       		.uleb128 0xb
 1403 001a 03       		.uleb128 0x3
 1404 001b 08       		.uleb128 0x8
ARM GAS  /tmp/ccddCc5y.s 			page 26


 1405 001c 00       		.byte	0
 1406 001d 00       		.byte	0
 1407 001e 03       		.uleb128 0x3
 1408 001f 24       		.uleb128 0x24
 1409 0020 00       		.byte	0
 1410 0021 0B       		.uleb128 0xb
 1411 0022 0B       		.uleb128 0xb
 1412 0023 3E       		.uleb128 0x3e
 1413 0024 0B       		.uleb128 0xb
 1414 0025 03       		.uleb128 0x3
 1415 0026 0E       		.uleb128 0xe
 1416 0027 00       		.byte	0
 1417 0028 00       		.byte	0
 1418 0029 04       		.uleb128 0x4
 1419 002a 16       		.uleb128 0x16
 1420 002b 00       		.byte	0
 1421 002c 03       		.uleb128 0x3
 1422 002d 0E       		.uleb128 0xe
 1423 002e 3A       		.uleb128 0x3a
 1424 002f 0B       		.uleb128 0xb
 1425 0030 3B       		.uleb128 0x3b
 1426 0031 0B       		.uleb128 0xb
 1427 0032 49       		.uleb128 0x49
 1428 0033 13       		.uleb128 0x13
 1429 0034 00       		.byte	0
 1430 0035 00       		.byte	0
 1431 0036 05       		.uleb128 0x5
 1432 0037 35       		.uleb128 0x35
 1433 0038 00       		.byte	0
 1434 0039 49       		.uleb128 0x49
 1435 003a 13       		.uleb128 0x13
 1436 003b 00       		.byte	0
 1437 003c 00       		.byte	0
 1438 003d 06       		.uleb128 0x6
 1439 003e 13       		.uleb128 0x13
 1440 003f 01       		.byte	0x1
 1441 0040 03       		.uleb128 0x3
 1442 0041 0E       		.uleb128 0xe
 1443 0042 0B       		.uleb128 0xb
 1444 0043 0B       		.uleb128 0xb
 1445 0044 3A       		.uleb128 0x3a
 1446 0045 0B       		.uleb128 0xb
 1447 0046 3B       		.uleb128 0x3b
 1448 0047 0B       		.uleb128 0xb
 1449 0048 01       		.uleb128 0x1
 1450 0049 13       		.uleb128 0x13
 1451 004a 00       		.byte	0
 1452 004b 00       		.byte	0
 1453 004c 07       		.uleb128 0x7
 1454 004d 0D       		.uleb128 0xd
 1455 004e 00       		.byte	0
 1456 004f 03       		.uleb128 0x3
 1457 0050 0E       		.uleb128 0xe
 1458 0051 3A       		.uleb128 0x3a
 1459 0052 0B       		.uleb128 0xb
 1460 0053 3B       		.uleb128 0x3b
 1461 0054 0B       		.uleb128 0xb
ARM GAS  /tmp/ccddCc5y.s 			page 27


 1462 0055 49       		.uleb128 0x49
 1463 0056 13       		.uleb128 0x13
 1464 0057 38       		.uleb128 0x38
 1465 0058 0B       		.uleb128 0xb
 1466 0059 00       		.byte	0
 1467 005a 00       		.byte	0
 1468 005b 08       		.uleb128 0x8
 1469 005c 0F       		.uleb128 0xf
 1470 005d 00       		.byte	0
 1471 005e 0B       		.uleb128 0xb
 1472 005f 0B       		.uleb128 0xb
 1473 0060 49       		.uleb128 0x49
 1474 0061 13       		.uleb128 0x13
 1475 0062 00       		.byte	0
 1476 0063 00       		.byte	0
 1477 0064 09       		.uleb128 0x9
 1478 0065 2E       		.uleb128 0x2e
 1479 0066 01       		.byte	0x1
 1480 0067 3F       		.uleb128 0x3f
 1481 0068 19       		.uleb128 0x19
 1482 0069 03       		.uleb128 0x3
 1483 006a 0E       		.uleb128 0xe
 1484 006b 3A       		.uleb128 0x3a
 1485 006c 0B       		.uleb128 0xb
 1486 006d 3B       		.uleb128 0x3b
 1487 006e 0B       		.uleb128 0xb
 1488 006f 27       		.uleb128 0x27
 1489 0070 19       		.uleb128 0x19
 1490 0071 49       		.uleb128 0x49
 1491 0072 13       		.uleb128 0x13
 1492 0073 20       		.uleb128 0x20
 1493 0074 0B       		.uleb128 0xb
 1494 0075 01       		.uleb128 0x1
 1495 0076 13       		.uleb128 0x13
 1496 0077 00       		.byte	0
 1497 0078 00       		.byte	0
 1498 0079 0A       		.uleb128 0xa
 1499 007a 05       		.uleb128 0x5
 1500 007b 00       		.byte	0
 1501 007c 03       		.uleb128 0x3
 1502 007d 0E       		.uleb128 0xe
 1503 007e 3A       		.uleb128 0x3a
 1504 007f 0B       		.uleb128 0xb
 1505 0080 3B       		.uleb128 0x3b
 1506 0081 0B       		.uleb128 0xb
 1507 0082 49       		.uleb128 0x49
 1508 0083 13       		.uleb128 0x13
 1509 0084 00       		.byte	0
 1510 0085 00       		.byte	0
 1511 0086 0B       		.uleb128 0xb
 1512 0087 34       		.uleb128 0x34
 1513 0088 00       		.byte	0
 1514 0089 03       		.uleb128 0x3
 1515 008a 08       		.uleb128 0x8
 1516 008b 3A       		.uleb128 0x3a
 1517 008c 0B       		.uleb128 0xb
 1518 008d 3B       		.uleb128 0x3b
ARM GAS  /tmp/ccddCc5y.s 			page 28


 1519 008e 0B       		.uleb128 0xb
 1520 008f 49       		.uleb128 0x49
 1521 0090 13       		.uleb128 0x13
 1522 0091 00       		.byte	0
 1523 0092 00       		.byte	0
 1524 0093 0C       		.uleb128 0xc
 1525 0094 2E       		.uleb128 0x2e
 1526 0095 01       		.byte	0x1
 1527 0096 3F       		.uleb128 0x3f
 1528 0097 19       		.uleb128 0x19
 1529 0098 03       		.uleb128 0x3
 1530 0099 0E       		.uleb128 0xe
 1531 009a 3A       		.uleb128 0x3a
 1532 009b 0B       		.uleb128 0xb
 1533 009c 3B       		.uleb128 0x3b
 1534 009d 0B       		.uleb128 0xb
 1535 009e 27       		.uleb128 0x27
 1536 009f 19       		.uleb128 0x19
 1537 00a0 20       		.uleb128 0x20
 1538 00a1 0B       		.uleb128 0xb
 1539 00a2 01       		.uleb128 0x1
 1540 00a3 13       		.uleb128 0x13
 1541 00a4 00       		.byte	0
 1542 00a5 00       		.byte	0
 1543 00a6 0D       		.uleb128 0xd
 1544 00a7 26       		.uleb128 0x26
 1545 00a8 00       		.byte	0
 1546 00a9 49       		.uleb128 0x49
 1547 00aa 13       		.uleb128 0x13
 1548 00ab 00       		.byte	0
 1549 00ac 00       		.byte	0
 1550 00ad 0E       		.uleb128 0xe
 1551 00ae 2E       		.uleb128 0x2e
 1552 00af 00       		.byte	0
 1553 00b0 3F       		.uleb128 0x3f
 1554 00b1 19       		.uleb128 0x19
 1555 00b2 03       		.uleb128 0x3
 1556 00b3 0E       		.uleb128 0xe
 1557 00b4 3A       		.uleb128 0x3a
 1558 00b5 0B       		.uleb128 0xb
 1559 00b6 3B       		.uleb128 0x3b
 1560 00b7 0B       		.uleb128 0xb
 1561 00b8 27       		.uleb128 0x27
 1562 00b9 19       		.uleb128 0x19
 1563 00ba 11       		.uleb128 0x11
 1564 00bb 01       		.uleb128 0x1
 1565 00bc 12       		.uleb128 0x12
 1566 00bd 06       		.uleb128 0x6
 1567 00be 40       		.uleb128 0x40
 1568 00bf 18       		.uleb128 0x18
 1569 00c0 9742     		.uleb128 0x2117
 1570 00c2 19       		.uleb128 0x19
 1571 00c3 00       		.byte	0
 1572 00c4 00       		.byte	0
 1573 00c5 0F       		.uleb128 0xf
 1574 00c6 2E       		.uleb128 0x2e
 1575 00c7 01       		.byte	0x1
ARM GAS  /tmp/ccddCc5y.s 			page 29


 1576 00c8 3F       		.uleb128 0x3f
 1577 00c9 19       		.uleb128 0x19
 1578 00ca 03       		.uleb128 0x3
 1579 00cb 0E       		.uleb128 0xe
 1580 00cc 3A       		.uleb128 0x3a
 1581 00cd 0B       		.uleb128 0xb
 1582 00ce 3B       		.uleb128 0x3b
 1583 00cf 0B       		.uleb128 0xb
 1584 00d0 27       		.uleb128 0x27
 1585 00d1 19       		.uleb128 0x19
 1586 00d2 11       		.uleb128 0x11
 1587 00d3 01       		.uleb128 0x1
 1588 00d4 12       		.uleb128 0x12
 1589 00d5 06       		.uleb128 0x6
 1590 00d6 40       		.uleb128 0x40
 1591 00d7 18       		.uleb128 0x18
 1592 00d8 9742     		.uleb128 0x2117
 1593 00da 19       		.uleb128 0x19
 1594 00db 01       		.uleb128 0x1
 1595 00dc 13       		.uleb128 0x13
 1596 00dd 00       		.byte	0
 1597 00de 00       		.byte	0
 1598 00df 10       		.uleb128 0x10
 1599 00e0 05       		.uleb128 0x5
 1600 00e1 00       		.byte	0
 1601 00e2 03       		.uleb128 0x3
 1602 00e3 0E       		.uleb128 0xe
 1603 00e4 3A       		.uleb128 0x3a
 1604 00e5 0B       		.uleb128 0xb
 1605 00e6 3B       		.uleb128 0x3b
 1606 00e7 0B       		.uleb128 0xb
 1607 00e8 49       		.uleb128 0x49
 1608 00e9 13       		.uleb128 0x13
 1609 00ea 02       		.uleb128 0x2
 1610 00eb 18       		.uleb128 0x18
 1611 00ec 00       		.byte	0
 1612 00ed 00       		.byte	0
 1613 00ee 11       		.uleb128 0x11
 1614 00ef 2E       		.uleb128 0x2e
 1615 00f0 01       		.byte	0x1
 1616 00f1 3F       		.uleb128 0x3f
 1617 00f2 19       		.uleb128 0x19
 1618 00f3 03       		.uleb128 0x3
 1619 00f4 0E       		.uleb128 0xe
 1620 00f5 3A       		.uleb128 0x3a
 1621 00f6 0B       		.uleb128 0xb
 1622 00f7 3B       		.uleb128 0x3b
 1623 00f8 0B       		.uleb128 0xb
 1624 00f9 27       		.uleb128 0x27
 1625 00fa 19       		.uleb128 0x19
 1626 00fb 49       		.uleb128 0x49
 1627 00fc 13       		.uleb128 0x13
 1628 00fd 11       		.uleb128 0x11
 1629 00fe 01       		.uleb128 0x1
 1630 00ff 12       		.uleb128 0x12
 1631 0100 06       		.uleb128 0x6
 1632 0101 40       		.uleb128 0x40
ARM GAS  /tmp/ccddCc5y.s 			page 30


 1633 0102 18       		.uleb128 0x18
 1634 0103 9742     		.uleb128 0x2117
 1635 0105 19       		.uleb128 0x19
 1636 0106 01       		.uleb128 0x1
 1637 0107 13       		.uleb128 0x13
 1638 0108 00       		.byte	0
 1639 0109 00       		.byte	0
 1640 010a 12       		.uleb128 0x12
 1641 010b 05       		.uleb128 0x5
 1642 010c 00       		.byte	0
 1643 010d 03       		.uleb128 0x3
 1644 010e 0E       		.uleb128 0xe
 1645 010f 3A       		.uleb128 0x3a
 1646 0110 0B       		.uleb128 0xb
 1647 0111 3B       		.uleb128 0x3b
 1648 0112 0B       		.uleb128 0xb
 1649 0113 49       		.uleb128 0x49
 1650 0114 13       		.uleb128 0x13
 1651 0115 02       		.uleb128 0x2
 1652 0116 17       		.uleb128 0x17
 1653 0117 00       		.byte	0
 1654 0118 00       		.byte	0
 1655 0119 13       		.uleb128 0x13
 1656 011a 34       		.uleb128 0x34
 1657 011b 00       		.byte	0
 1658 011c 03       		.uleb128 0x3
 1659 011d 08       		.uleb128 0x8
 1660 011e 3A       		.uleb128 0x3a
 1661 011f 0B       		.uleb128 0xb
 1662 0120 3B       		.uleb128 0x3b
 1663 0121 0B       		.uleb128 0xb
 1664 0122 49       		.uleb128 0x49
 1665 0123 13       		.uleb128 0x13
 1666 0124 02       		.uleb128 0x2
 1667 0125 18       		.uleb128 0x18
 1668 0126 00       		.byte	0
 1669 0127 00       		.byte	0
 1670 0128 14       		.uleb128 0x14
 1671 0129 1D       		.uleb128 0x1d
 1672 012a 01       		.byte	0x1
 1673 012b 31       		.uleb128 0x31
 1674 012c 13       		.uleb128 0x13
 1675 012d 11       		.uleb128 0x11
 1676 012e 01       		.uleb128 0x1
 1677 012f 12       		.uleb128 0x12
 1678 0130 06       		.uleb128 0x6
 1679 0131 58       		.uleb128 0x58
 1680 0132 0B       		.uleb128 0xb
 1681 0133 59       		.uleb128 0x59
 1682 0134 0B       		.uleb128 0xb
 1683 0135 00       		.byte	0
 1684 0136 00       		.byte	0
 1685 0137 15       		.uleb128 0x15
 1686 0138 05       		.uleb128 0x5
 1687 0139 00       		.byte	0
 1688 013a 31       		.uleb128 0x31
 1689 013b 13       		.uleb128 0x13
ARM GAS  /tmp/ccddCc5y.s 			page 31


 1690 013c 02       		.uleb128 0x2
 1691 013d 17       		.uleb128 0x17
 1692 013e 00       		.byte	0
 1693 013f 00       		.byte	0
 1694 0140 16       		.uleb128 0x16
 1695 0141 0B       		.uleb128 0xb
 1696 0142 01       		.byte	0x1
 1697 0143 11       		.uleb128 0x11
 1698 0144 01       		.uleb128 0x1
 1699 0145 12       		.uleb128 0x12
 1700 0146 06       		.uleb128 0x6
 1701 0147 00       		.byte	0
 1702 0148 00       		.byte	0
 1703 0149 17       		.uleb128 0x17
 1704 014a 34       		.uleb128 0x34
 1705 014b 00       		.byte	0
 1706 014c 31       		.uleb128 0x31
 1707 014d 13       		.uleb128 0x13
 1708 014e 02       		.uleb128 0x2
 1709 014f 17       		.uleb128 0x17
 1710 0150 00       		.byte	0
 1711 0151 00       		.byte	0
 1712 0152 18       		.uleb128 0x18
 1713 0153 2E       		.uleb128 0x2e
 1714 0154 01       		.byte	0x1
 1715 0155 31       		.uleb128 0x31
 1716 0156 13       		.uleb128 0x13
 1717 0157 11       		.uleb128 0x11
 1718 0158 01       		.uleb128 0x1
 1719 0159 12       		.uleb128 0x12
 1720 015a 06       		.uleb128 0x6
 1721 015b 40       		.uleb128 0x40
 1722 015c 18       		.uleb128 0x18
 1723 015d 9742     		.uleb128 0x2117
 1724 015f 19       		.uleb128 0x19
 1725 0160 01       		.uleb128 0x1
 1726 0161 13       		.uleb128 0x13
 1727 0162 00       		.byte	0
 1728 0163 00       		.byte	0
 1729 0164 19       		.uleb128 0x19
 1730 0165 34       		.uleb128 0x34
 1731 0166 00       		.byte	0
 1732 0167 31       		.uleb128 0x31
 1733 0168 13       		.uleb128 0x13
 1734 0169 02       		.uleb128 0x2
 1735 016a 18       		.uleb128 0x18
 1736 016b 00       		.byte	0
 1737 016c 00       		.byte	0
 1738 016d 1A       		.uleb128 0x1a
 1739 016e 1D       		.uleb128 0x1d
 1740 016f 01       		.byte	0x1
 1741 0170 31       		.uleb128 0x31
 1742 0171 13       		.uleb128 0x13
 1743 0172 52       		.uleb128 0x52
 1744 0173 01       		.uleb128 0x1
 1745 0174 55       		.uleb128 0x55
 1746 0175 17       		.uleb128 0x17
ARM GAS  /tmp/ccddCc5y.s 			page 32


 1747 0176 58       		.uleb128 0x58
 1748 0177 0B       		.uleb128 0xb
 1749 0178 59       		.uleb128 0x59
 1750 0179 0B       		.uleb128 0xb
 1751 017a 00       		.byte	0
 1752 017b 00       		.byte	0
 1753 017c 1B       		.uleb128 0x1b
 1754 017d 05       		.uleb128 0x5
 1755 017e 00       		.byte	0
 1756 017f 31       		.uleb128 0x31
 1757 0180 13       		.uleb128 0x13
 1758 0181 02       		.uleb128 0x2
 1759 0182 18       		.uleb128 0x18
 1760 0183 00       		.byte	0
 1761 0184 00       		.byte	0
 1762 0185 1C       		.uleb128 0x1c
 1763 0186 0B       		.uleb128 0xb
 1764 0187 01       		.byte	0x1
 1765 0188 55       		.uleb128 0x55
 1766 0189 17       		.uleb128 0x17
 1767 018a 00       		.byte	0
 1768 018b 00       		.byte	0
 1769 018c 1D       		.uleb128 0x1d
 1770 018d 898201   		.uleb128 0x4109
 1771 0190 01       		.byte	0x1
 1772 0191 11       		.uleb128 0x11
 1773 0192 01       		.uleb128 0x1
 1774 0193 31       		.uleb128 0x31
 1775 0194 13       		.uleb128 0x13
 1776 0195 00       		.byte	0
 1777 0196 00       		.byte	0
 1778 0197 1E       		.uleb128 0x1e
 1779 0198 8A8201   		.uleb128 0x410a
 1780 019b 00       		.byte	0
 1781 019c 02       		.uleb128 0x2
 1782 019d 18       		.uleb128 0x18
 1783 019e 9142     		.uleb128 0x2111
 1784 01a0 18       		.uleb128 0x18
 1785 01a1 00       		.byte	0
 1786 01a2 00       		.byte	0
 1787 01a3 1F       		.uleb128 0x1f
 1788 01a4 34       		.uleb128 0x34
 1789 01a5 00       		.byte	0
 1790 01a6 03       		.uleb128 0x3
 1791 01a7 08       		.uleb128 0x8
 1792 01a8 3A       		.uleb128 0x3a
 1793 01a9 0B       		.uleb128 0xb
 1794 01aa 3B       		.uleb128 0x3b
 1795 01ab 0B       		.uleb128 0xb
 1796 01ac 49       		.uleb128 0x49
 1797 01ad 13       		.uleb128 0x13
 1798 01ae 02       		.uleb128 0x2
 1799 01af 17       		.uleb128 0x17
 1800 01b0 00       		.byte	0
 1801 01b1 00       		.byte	0
 1802 01b2 20       		.uleb128 0x20
 1803 01b3 34       		.uleb128 0x34
ARM GAS  /tmp/ccddCc5y.s 			page 33


 1804 01b4 00       		.byte	0
 1805 01b5 03       		.uleb128 0x3
 1806 01b6 0E       		.uleb128 0xe
 1807 01b7 3A       		.uleb128 0x3a
 1808 01b8 0B       		.uleb128 0xb
 1809 01b9 3B       		.uleb128 0x3b
 1810 01ba 05       		.uleb128 0x5
 1811 01bb 49       		.uleb128 0x49
 1812 01bc 13       		.uleb128 0x13
 1813 01bd 3F       		.uleb128 0x3f
 1814 01be 19       		.uleb128 0x19
 1815 01bf 3C       		.uleb128 0x3c
 1816 01c0 19       		.uleb128 0x19
 1817 01c1 00       		.byte	0
 1818 01c2 00       		.byte	0
 1819 01c3 00       		.byte	0
 1820              		.section	.debug_loc,"",%progbits
 1821              	.Ldebug_loc0:
 1822              	.LLST0:
 1823 0000 00000000 		.4byte	.LVL1
 1824 0004 1C000000 		.4byte	.LVL5
 1825 0008 0100     		.2byte	0x1
 1826 000a 50       		.byte	0x50
 1827 000b 1C000000 		.4byte	.LVL5
 1828 000f 20000000 		.4byte	.LFE114
 1829 0013 0400     		.2byte	0x4
 1830 0015 F3       		.byte	0xf3
 1831 0016 01       		.uleb128 0x1
 1832 0017 50       		.byte	0x50
 1833 0018 9F       		.byte	0x9f
 1834 0019 00000000 		.4byte	0
 1835 001d 00000000 		.4byte	0
 1836              	.LLST1:
 1837 0021 0A000000 		.4byte	.LVL2
 1838 0025 1A000000 		.4byte	.LVL4
 1839 0029 0100     		.2byte	0x1
 1840 002b 50       		.byte	0x50
 1841 002c 00000000 		.4byte	0
 1842 0030 00000000 		.4byte	0
 1843              	.LLST2:
 1844 0034 0C000000 		.4byte	.LVL3
 1845 0038 1A000000 		.4byte	.LVL4
 1846 003c 0100     		.2byte	0x1
 1847 003e 52       		.byte	0x52
 1848 003f 00000000 		.4byte	0
 1849 0043 00000000 		.4byte	0
 1850              	.LLST3:
 1851 0047 00000000 		.4byte	.LVL6
 1852 004b 0E000000 		.4byte	.LVL8
 1853 004f 0100     		.2byte	0x1
 1854 0051 50       		.byte	0x50
 1855 0052 0E000000 		.4byte	.LVL8
 1856 0056 10000000 		.4byte	.LFE115
 1857 005a 0400     		.2byte	0x4
 1858 005c F3       		.byte	0xf3
 1859 005d 01       		.uleb128 0x1
 1860 005e 50       		.byte	0x50
ARM GAS  /tmp/ccddCc5y.s 			page 34


 1861 005f 9F       		.byte	0x9f
 1862 0060 00000000 		.4byte	0
 1863 0064 00000000 		.4byte	0
 1864              	.LLST4:
 1865 0068 08000000 		.4byte	.LVL16
 1866 006c 20000000 		.4byte	.LVL19
 1867 0070 0100     		.2byte	0x1
 1868 0072 52       		.byte	0x52
 1869 0073 26000000 		.4byte	.LVL20
 1870 0077 28000000 		.4byte	.LVL21
 1871 007b 0100     		.2byte	0x1
 1872 007d 52       		.byte	0x52
 1873 007e 40000000 		.4byte	.LVL22
 1874 0082 44000000 		.4byte	.LFE121
 1875 0086 0100     		.2byte	0x1
 1876 0088 52       		.byte	0x52
 1877 0089 00000000 		.4byte	0
 1878 008d 00000000 		.4byte	0
 1879              	.LLST5:
 1880 0091 08000000 		.4byte	.LVL16
 1881 0095 20000000 		.4byte	.LVL19
 1882 0099 0100     		.2byte	0x1
 1883 009b 50       		.byte	0x50
 1884 009c 26000000 		.4byte	.LVL20
 1885 00a0 28000000 		.4byte	.LVL21
 1886 00a4 0100     		.2byte	0x1
 1887 00a6 50       		.byte	0x50
 1888 00a7 40000000 		.4byte	.LVL22
 1889 00ab 44000000 		.4byte	.LFE121
 1890 00af 0100     		.2byte	0x1
 1891 00b1 50       		.byte	0x50
 1892 00b2 00000000 		.4byte	0
 1893 00b6 00000000 		.4byte	0
 1894              	.LLST6:
 1895 00ba 08000000 		.4byte	.LVL16
 1896 00be 18000000 		.4byte	.LVL18
 1897 00c2 0100     		.2byte	0x1
 1898 00c4 53       		.byte	0x53
 1899 00c5 26000000 		.4byte	.LVL20
 1900 00c9 28000000 		.4byte	.LVL21
 1901 00cd 0100     		.2byte	0x1
 1902 00cf 53       		.byte	0x53
 1903 00d0 40000000 		.4byte	.LVL22
 1904 00d4 44000000 		.4byte	.LFE121
 1905 00d8 0100     		.2byte	0x1
 1906 00da 53       		.byte	0x53
 1907 00db 00000000 		.4byte	0
 1908 00df 00000000 		.4byte	0
 1909              	.LLST7:
 1910 00e3 00000000 		.4byte	.LVL23
 1911 00e7 09000000 		.4byte	.LVL24-1
 1912 00eb 0100     		.2byte	0x1
 1913 00ed 50       		.byte	0x50
 1914 00ee 09000000 		.4byte	.LVL24-1
 1915 00f2 10000000 		.4byte	.LFE120
 1916 00f6 0400     		.2byte	0x4
 1917 00f8 F3       		.byte	0xf3
ARM GAS  /tmp/ccddCc5y.s 			page 35


 1918 00f9 01       		.uleb128 0x1
 1919 00fa 50       		.byte	0x50
 1920 00fb 9F       		.byte	0x9f
 1921 00fc 00000000 		.4byte	0
 1922 0100 00000000 		.4byte	0
 1923              	.LLST8:
 1924 0104 00000000 		.4byte	.LVL23
 1925 0108 09000000 		.4byte	.LVL24-1
 1926 010c 0100     		.2byte	0x1
 1927 010e 51       		.byte	0x51
 1928 010f 09000000 		.4byte	.LVL24-1
 1929 0113 10000000 		.4byte	.LFE120
 1930 0117 0400     		.2byte	0x4
 1931 0119 F3       		.byte	0xf3
 1932 011a 01       		.uleb128 0x1
 1933 011b 51       		.byte	0x51
 1934 011c 9F       		.byte	0x9f
 1935 011d 00000000 		.4byte	0
 1936 0121 00000000 		.4byte	0
 1937              	.LLST9:
 1938 0125 00000000 		.4byte	.LVL23
 1939 0129 09000000 		.4byte	.LVL24-1
 1940 012d 0100     		.2byte	0x1
 1941 012f 52       		.byte	0x52
 1942 0130 09000000 		.4byte	.LVL24-1
 1943 0134 10000000 		.4byte	.LFE120
 1944 0138 0400     		.2byte	0x4
 1945 013a F3       		.byte	0xf3
 1946 013b 01       		.uleb128 0x1
 1947 013c 52       		.byte	0x52
 1948 013d 9F       		.byte	0x9f
 1949 013e 00000000 		.4byte	0
 1950 0142 00000000 		.4byte	0
 1951              	.LLST10:
 1952 0146 0E000000 		.4byte	.LVL26
 1953 014a 1A000000 		.4byte	.LVL28
 1954 014e 0100     		.2byte	0x1
 1955 0150 52       		.byte	0x52
 1956 0151 20000000 		.4byte	.LVL29
 1957 0155 38000000 		.4byte	.LVL30
 1958 0159 0100     		.2byte	0x1
 1959 015b 52       		.byte	0x52
 1960 015c 00000000 		.4byte	0
 1961 0160 00000000 		.4byte	0
 1962              	.LLST11:
 1963 0164 00000000 		.4byte	.LVL31
 1964 0168 09000000 		.4byte	.LVL32-1
 1965 016c 0100     		.2byte	0x1
 1966 016e 50       		.byte	0x50
 1967 016f 09000000 		.4byte	.LVL32-1
 1968 0173 10000000 		.4byte	.LFE122
 1969 0177 0400     		.2byte	0x4
 1970 0179 F3       		.byte	0xf3
 1971 017a 01       		.uleb128 0x1
 1972 017b 50       		.byte	0x50
 1973 017c 9F       		.byte	0x9f
 1974 017d 00000000 		.4byte	0
ARM GAS  /tmp/ccddCc5y.s 			page 36


 1975 0181 00000000 		.4byte	0
 1976              	.LLST12:
 1977 0185 00000000 		.4byte	.LVL31
 1978 0189 09000000 		.4byte	.LVL32-1
 1979 018d 0100     		.2byte	0x1
 1980 018f 51       		.byte	0x51
 1981 0190 09000000 		.4byte	.LVL32-1
 1982 0194 10000000 		.4byte	.LFE122
 1983 0198 0400     		.2byte	0x4
 1984 019a F3       		.byte	0xf3
 1985 019b 01       		.uleb128 0x1
 1986 019c 51       		.byte	0x51
 1987 019d 9F       		.byte	0x9f
 1988 019e 00000000 		.4byte	0
 1989 01a2 00000000 		.4byte	0
 1990              	.LLST13:
 1991 01a6 00000000 		.4byte	.LVL33
 1992 01aa 08000000 		.4byte	.LVL34
 1993 01ae 0100     		.2byte	0x1
 1994 01b0 50       		.byte	0x50
 1995 01b1 08000000 		.4byte	.LVL34
 1996 01b5 24000000 		.4byte	.LFE124
 1997 01b9 0400     		.2byte	0x4
 1998 01bb F3       		.byte	0xf3
 1999 01bc 01       		.uleb128 0x1
 2000 01bd 50       		.byte	0x50
 2001 01be 9F       		.byte	0x9f
 2002 01bf 00000000 		.4byte	0
 2003 01c3 00000000 		.4byte	0
 2004              	.LLST14:
 2005 01c7 0C000000 		.4byte	.LVL35
 2006 01cb 0E000000 		.4byte	.LVL36
 2007 01cf 0100     		.2byte	0x1
 2008 01d1 50       		.byte	0x50
 2009 01d2 00000000 		.4byte	0
 2010 01d6 00000000 		.4byte	0
 2011              	.LLST15:
 2012 01da 08000000 		.4byte	.LVL34
 2013 01de 0C000000 		.4byte	.LVL35
 2014 01e2 0100     		.2byte	0x1
 2015 01e4 50       		.byte	0x50
 2016 01e5 0E000000 		.4byte	.LVL36
 2017 01e9 1C000000 		.4byte	.LVL37
 2018 01ed 0100     		.2byte	0x1
 2019 01ef 50       		.byte	0x50
 2020 01f0 00000000 		.4byte	0
 2021 01f4 00000000 		.4byte	0
 2022              	.LLST16:
 2023 01f8 00000000 		.4byte	.LVL38
 2024 01fc 02000000 		.4byte	.LVL39
 2025 0200 0100     		.2byte	0x1
 2026 0202 50       		.byte	0x50
 2027 0203 02000000 		.4byte	.LVL39
 2028 0207 1A000000 		.4byte	.LFE125
 2029 020b 0400     		.2byte	0x4
 2030 020d F3       		.byte	0xf3
 2031 020e 01       		.uleb128 0x1
ARM GAS  /tmp/ccddCc5y.s 			page 37


 2032 020f 50       		.byte	0x50
 2033 0210 9F       		.byte	0x9f
 2034 0211 00000000 		.4byte	0
 2035 0215 00000000 		.4byte	0
 2036              	.LLST17:
 2037 0219 02000000 		.4byte	.LVL39
 2038 021d 18000000 		.4byte	.LVL41
 2039 0221 0100     		.2byte	0x1
 2040 0223 50       		.byte	0x50
 2041 0224 00000000 		.4byte	0
 2042 0228 00000000 		.4byte	0
 2043              		.section	.debug_aranges,"",%progbits
 2044 0000 8C000000 		.4byte	0x8c
 2045 0004 0200     		.2byte	0x2
 2046 0006 00000000 		.4byte	.Ldebug_info0
 2047 000a 04       		.byte	0x4
 2048 000b 00       		.byte	0
 2049 000c 0000     		.2byte	0
 2050 000e 0000     		.2byte	0
 2051 0010 00000000 		.4byte	.LFB111
 2052 0014 02000000 		.4byte	.LFE111-.LFB111
 2053 0018 00000000 		.4byte	.LFB112
 2054 001c 02000000 		.4byte	.LFE112-.LFB112
 2055 0020 00000000 		.4byte	.LFB113
 2056 0024 08000000 		.4byte	.LFE113-.LFB113
 2057 0028 00000000 		.4byte	.LFB114
 2058 002c 20000000 		.4byte	.LFE114-.LFB114
 2059 0030 00000000 		.4byte	.LFB115
 2060 0034 10000000 		.4byte	.LFE115-.LFB115
 2061 0038 00000000 		.4byte	.LFB116
 2062 003c 24000000 		.4byte	.LFE116-.LFB116
 2063 0040 00000000 		.4byte	.LFB117
 2064 0044 18000000 		.4byte	.LFE117-.LFB117
 2065 0048 00000000 		.4byte	.LFB118
 2066 004c 22000000 		.4byte	.LFE118-.LFB118
 2067 0050 00000000 		.4byte	.LFB119
 2068 0054 10000000 		.4byte	.LFE119-.LFB119
 2069 0058 00000000 		.4byte	.LFB121
 2070 005c 44000000 		.4byte	.LFE121-.LFB121
 2071 0060 00000000 		.4byte	.LFB120
 2072 0064 10000000 		.4byte	.LFE120-.LFB120
 2073 0068 00000000 		.4byte	.LFB123
 2074 006c 42000000 		.4byte	.LFE123-.LFB123
 2075 0070 00000000 		.4byte	.LFB122
 2076 0074 10000000 		.4byte	.LFE122-.LFB122
 2077 0078 00000000 		.4byte	.LFB124
 2078 007c 24000000 		.4byte	.LFE124-.LFB124
 2079 0080 00000000 		.4byte	.LFB125
 2080 0084 1A000000 		.4byte	.LFE125-.LFB125
 2081 0088 00000000 		.4byte	0
 2082 008c 00000000 		.4byte	0
 2083              		.section	.debug_ranges,"",%progbits
 2084              	.Ldebug_ranges0:
 2085 0000 06000000 		.4byte	.LBB14
 2086 0004 16000000 		.4byte	.LBE14
 2087 0008 1E000000 		.4byte	.LBB17
 2088 000c 24000000 		.4byte	.LBE17
ARM GAS  /tmp/ccddCc5y.s 			page 38


 2089 0010 00000000 		.4byte	0
 2090 0014 00000000 		.4byte	0
 2091 0018 06000000 		.4byte	.LBB18
 2092 001c 10000000 		.4byte	.LBE18
 2093 0020 18000000 		.4byte	.LBB21
 2094 0024 1A000000 		.4byte	.LBE21
 2095 0028 00000000 		.4byte	0
 2096 002c 00000000 		.4byte	0
 2097 0030 04000000 		.4byte	.LBB22
 2098 0034 06000000 		.4byte	.LBE22
 2099 0038 08000000 		.4byte	.LBB25
 2100 003c 14000000 		.4byte	.LBE25
 2101 0040 00000000 		.4byte	0
 2102 0044 00000000 		.4byte	0
 2103 0048 08000000 		.4byte	.LBB26
 2104 004c 12000000 		.4byte	.LBE26
 2105 0050 1A000000 		.4byte	.LBB29
 2106 0054 1C000000 		.4byte	.LBE29
 2107 0058 00000000 		.4byte	0
 2108 005c 00000000 		.4byte	0
 2109 0060 00000000 		.4byte	.LFB111
 2110 0064 02000000 		.4byte	.LFE111
 2111 0068 00000000 		.4byte	.LFB112
 2112 006c 02000000 		.4byte	.LFE112
 2113 0070 00000000 		.4byte	.LFB113
 2114 0074 08000000 		.4byte	.LFE113
 2115 0078 00000000 		.4byte	.LFB114
 2116 007c 20000000 		.4byte	.LFE114
 2117 0080 00000000 		.4byte	.LFB115
 2118 0084 10000000 		.4byte	.LFE115
 2119 0088 00000000 		.4byte	.LFB116
 2120 008c 24000000 		.4byte	.LFE116
 2121 0090 00000000 		.4byte	.LFB117
 2122 0094 18000000 		.4byte	.LFE117
 2123 0098 00000000 		.4byte	.LFB118
 2124 009c 22000000 		.4byte	.LFE118
 2125 00a0 00000000 		.4byte	.LFB119
 2126 00a4 10000000 		.4byte	.LFE119
 2127 00a8 00000000 		.4byte	.LFB121
 2128 00ac 44000000 		.4byte	.LFE121
 2129 00b0 00000000 		.4byte	.LFB120
 2130 00b4 10000000 		.4byte	.LFE120
 2131 00b8 00000000 		.4byte	.LFB123
 2132 00bc 42000000 		.4byte	.LFE123
 2133 00c0 00000000 		.4byte	.LFB122
 2134 00c4 10000000 		.4byte	.LFE122
 2135 00c8 00000000 		.4byte	.LFB124
 2136 00cc 24000000 		.4byte	.LFE124
 2137 00d0 00000000 		.4byte	.LFB125
 2138 00d4 1A000000 		.4byte	.LFE125
 2139 00d8 00000000 		.4byte	0
 2140 00dc 00000000 		.4byte	0
 2141              		.section	.debug_line,"",%progbits
 2142              	.Ldebug_line0:
 2143 0000 94020000 		.section	.debug_str,"MS",%progbits,1
 2143      02001901 
 2143      00000201 
ARM GAS  /tmp/ccddCc5y.s 			page 39


 2143      FB0E0D00 
 2143      01010101 
 2144              	.LASF28:
 2145 0000 67667851 		.ascii	"gfxQueueASyncInit\000"
 2145      75657565 
 2145      4153796E 
 2145      63496E69 
 2145      7400
 2146              	.LASF25:
 2147 0012 67667851 		.ascii	"gfxQueueASyncIsInI\000"
 2147      75657565 
 2147      4153796E 
 2147      63497349 
 2147      6E4900
 2148              	.LASF17:
 2149 0025 6E657874 		.ascii	"next\000"
 2149      00
 2150              	.LASF16:
 2151 002a 67667851 		.ascii	"gfxQueueASync\000"
 2151      75657565 
 2151      4153796E 
 2151      6300
 2152              	.LASF39:
 2153 0038 2F686F6D 		.ascii	"/home/makkmarci/devel/ugfx/src/gqueue/gqueue.c\000"
 2153      652F6D61 
 2153      6B6B6D61 
 2153      7263692F 
 2153      64657665 
 2154              	.LASF9:
 2155 0067 5F5F696E 		.ascii	"__int32_t\000"
 2155      7433325F 
 2155      7400
 2156              	.LASF15:
 2157 0071 67667851 		.ascii	"gfxQueueASyncItem\000"
 2157      75657565 
 2157      4153796E 
 2157      63497465 
 2157      6D00
 2158              	.LASF24:
 2159 0083 67667851 		.ascii	"gfxQueueASyncGetI\000"
 2159      75657565 
 2159      4153796E 
 2159      63476574 
 2159      4900
 2160              	.LASF33:
 2161 0095 67667851 		.ascii	"gfxQueueASyncInsert\000"
 2161      75657565 
 2161      4153796E 
 2161      63496E73 
 2161      65727400 
 2162              	.LASF37:
 2163 00a9 67667851 		.ascii	"gfxQueueASyncIsIn\000"
 2163      75657565 
 2163      4153796E 
 2163      63497349 
 2163      6E00
 2164              	.LASF11:
ARM GAS  /tmp/ccddCc5y.s 			page 40


 2165 00bb 626F6F6C 		.ascii	"bool_t\000"
 2165      5F7400
 2166              	.LASF29:
 2167 00c2 67667851 		.ascii	"gfxQueueASyncPut\000"
 2167      75657565 
 2167      4153796E 
 2167      63507574 
 2167      00
 2168              	.LASF32:
 2169 00d3 70616674 		.ascii	"pafter\000"
 2169      657200
 2170              	.LASF8:
 2171 00da 6C6F6E67 		.ascii	"long long unsigned int\000"
 2171      206C6F6E 
 2171      6720756E 
 2171      7369676E 
 2171      65642069 
 2172              	.LASF2:
 2173 00f1 756E7369 		.ascii	"unsigned char\000"
 2173      676E6564 
 2173      20636861 
 2173      7200
 2174              	.LASF36:
 2175 00ff 67667851 		.ascii	"gfxQueueASyncGet\000"
 2175      75657565 
 2175      4153796E 
 2175      63476574 
 2175      00
 2176              	.LASF30:
 2177 0110 67667851 		.ascii	"gfxQueueASyncPush\000"
 2177      75657565 
 2177      4153796E 
 2177      63507573 
 2177      6800
 2178              	.LASF6:
 2179 0122 6C6F6E67 		.ascii	"long unsigned int\000"
 2179      20756E73 
 2179      69676E65 
 2179      6420696E 
 2179      7400
 2180              	.LASF4:
 2181 0134 73686F72 		.ascii	"short unsigned int\000"
 2181      7420756E 
 2181      7369676E 
 2181      65642069 
 2181      6E7400
 2182              	.LASF34:
 2183 0147 67667851 		.ascii	"gfxQueueASyncRemoveI\000"
 2183      75657565 
 2183      4153796E 
 2183      6352656D 
 2183      6F766549 
 2184              	.LASF41:
 2185 015c 49544D5F 		.ascii	"ITM_RxBuffer\000"
 2185      52784275 
 2185      66666572 
 2185      00
ARM GAS  /tmp/ccddCc5y.s 			page 41


 2186              	.LASF27:
 2187 0169 5F677175 		.ascii	"_gqueueDeinit\000"
 2187      65756544 
 2187      65696E69 
 2187      7400
 2188              	.LASF20:
 2189 0177 70717565 		.ascii	"pqueue\000"
 2189      756500
 2190              	.LASF18:
 2191 017e 68656164 		.ascii	"head\000"
 2191      00
 2192              	.LASF40:
 2193 0183 2F686F6D 		.ascii	"/home/makkmarci/devel/ChibiOS_2.6.5/projects/STM32F"
 2193      652F6D61 
 2193      6B6B6D61 
 2193      7263692F 
 2193      64657665 
 2194 01b6 345F4368 		.ascii	"4_ChibiOS_uGFX_gwin_2/\000"
 2194      6962694F 
 2194      535F7547 
 2194      46585F67 
 2194      77696E5F 
 2195              	.LASF23:
 2196 01cd 67667851 		.ascii	"gfxQueueASyncPushI\000"
 2196      75657565 
 2196      4153796E 
 2196      63507573 
 2196      684900
 2197              	.LASF0:
 2198 01e0 756E7369 		.ascii	"unsigned int\000"
 2198      676E6564 
 2198      20696E74 
 2198      00
 2199              	.LASF14:
 2200 01ed 63686172 		.ascii	"char\000"
 2200      00
 2201              	.LASF22:
 2202 01f2 67667851 		.ascii	"gfxQueueASyncPutI\000"
 2202      75657565 
 2202      4153796E 
 2202      63507574 
 2202      4900
 2203              	.LASF10:
 2204 0204 696E7433 		.ascii	"int32_t\000"
 2204      325F7400 
 2205              	.LASF13:
 2206 020c 73697A65 		.ascii	"sizetype\000"
 2206      74797065 
 2206      00
 2207              	.LASF7:
 2208 0215 6C6F6E67 		.ascii	"long long int\000"
 2208      206C6F6E 
 2208      6720696E 
 2208      7400
 2209              	.LASF26:
 2210 0223 5F677175 		.ascii	"_gqueueInit\000"
 2210      65756549 
ARM GAS  /tmp/ccddCc5y.s 			page 42


 2210      6E697400 
 2211              	.LASF31:
 2212 022f 67667851 		.ascii	"gfxQueueASyncInsertI\000"
 2212      75657565 
 2212      4153796E 
 2212      63496E73 
 2212      65727449 
 2213              	.LASF3:
 2214 0244 73686F72 		.ascii	"short int\000"
 2214      7420696E 
 2214      7400
 2215              	.LASF19:
 2216 024e 7461696C 		.ascii	"tail\000"
 2216      00
 2217              	.LASF21:
 2218 0253 70697465 		.ascii	"pitem\000"
 2218      6D00
 2219              	.LASF5:
 2220 0259 6C6F6E67 		.ascii	"long int\000"
 2220      20696E74 
 2220      00
 2221              	.LASF1:
 2222 0262 7369676E 		.ascii	"signed char\000"
 2222      65642063 
 2222      68617200 
 2223              	.LASF38:
 2224 026e 474E5520 		.ascii	"GNU C 4.8.4 20140526 (release) [ARM/embedded-4_8-br"
 2224      4320342E 
 2224      382E3420 
 2224      32303134 
 2224      30353236 
 2225 02a1 616E6368 		.ascii	"anch revision 211358] -mcpu=cortex-m4 -mfloat-abi=h"
 2225      20726576 
 2225      6973696F 
 2225      6E203231 
 2225      31333538 
 2226 02d4 61726420 		.ascii	"ard -mfpu=fpv4-sp-d16 -mno-thumb-interwork -mthumb "
 2226      2D6D6670 
 2226      753D6670 
 2226      76342D73 
 2226      702D6431 
 2227 0307 2D676764 		.ascii	"-ggdb -O2 -fomit-frame-pointer -falign-functions=16"
 2227      62202D4F 
 2227      32202D66 
 2227      6F6D6974 
 2227      2D667261 
 2228 033a 202D6666 		.ascii	" -ffunction-sections -fdata-sections -fno-common -f"
 2228      756E6374 
 2228      696F6E2D 
 2228      73656374 
 2228      696F6E73 
 2229 036d 73696E67 		.ascii	"single-precision-constant\000"
 2229      6C652D70 
 2229      72656369 
 2229      73696F6E 
 2229      2D636F6E 
 2230              	.LASF12:
ARM GAS  /tmp/ccddCc5y.s 			page 43


 2231 0387 5F426F6F 		.ascii	"_Bool\000"
 2231      6C00
 2232              	.LASF35:
 2233 038d 67667851 		.ascii	"gfxQueueASyncRemove\000"
 2233      75657565 
 2233      4153796E 
 2233      6352656D 
 2233      6F766500 
 2234              		.ident	"GCC: (GNU Tools for ARM Embedded Processors) 4.8.4 20140526 (release) [ARM/embedded-4_8-br
ARM GAS  /tmp/ccddCc5y.s 			page 44


DEFINED SYMBOLS
                            *ABS*:00000000 gqueue.c
     /tmp/ccddCc5y.s:21     .text._gqueueInit:00000000 $t
     /tmp/ccddCc5y.s:27     .text._gqueueInit:00000000 _gqueueInit
     /tmp/ccddCc5y.s:40     .text._gqueueDeinit:00000000 $t
     /tmp/ccddCc5y.s:46     .text._gqueueDeinit:00000000 _gqueueDeinit
     /tmp/ccddCc5y.s:58     .text.gfxQueueASyncInit:00000000 $t
     /tmp/ccddCc5y.s:64     .text.gfxQueueASyncInit:00000000 gfxQueueASyncInit
     /tmp/ccddCc5y.s:81     .text.gfxQueueASyncGet:00000000 $t
     /tmp/ccddCc5y.s:87     .text.gfxQueueASyncGet:00000000 gfxQueueASyncGet
     /tmp/ccddCc5y.s:138    .text.gfxQueueASyncGetI:00000000 $t
     /tmp/ccddCc5y.s:144    .text.gfxQueueASyncGetI:00000000 gfxQueueASyncGetI
     /tmp/ccddCc5y.s:171    .text.gfxQueueASyncPut:00000000 $t
     /tmp/ccddCc5y.s:177    .text.gfxQueueASyncPut:00000000 gfxQueueASyncPut
     /tmp/ccddCc5y.s:231    .text.gfxQueueASyncPutI:00000000 $t
     /tmp/ccddCc5y.s:237    .text.gfxQueueASyncPutI:00000000 gfxQueueASyncPutI
     /tmp/ccddCc5y.s:270    .text.gfxQueueASyncPush:00000000 $t
     /tmp/ccddCc5y.s:276    .text.gfxQueueASyncPush:00000000 gfxQueueASyncPush
     /tmp/ccddCc5y.s:329    .text.gfxQueueASyncPushI:00000000 $t
     /tmp/ccddCc5y.s:335    .text.gfxQueueASyncPushI:00000000 gfxQueueASyncPushI
     /tmp/ccddCc5y.s:362    .text.gfxQueueASyncInsertI:00000000 $t
     /tmp/ccddCc5y.s:368    .text.gfxQueueASyncInsertI:00000000 gfxQueueASyncInsertI
     /tmp/ccddCc5y.s:457    .text.gfxQueueASyncInsert:00000000 $t
     /tmp/ccddCc5y.s:463    .text.gfxQueueASyncInsert:00000000 gfxQueueASyncInsert
     /tmp/ccddCc5y.s:492    .text.gfxQueueASyncRemoveI:00000000 $t
     /tmp/ccddCc5y.s:498    .text.gfxQueueASyncRemoveI:00000000 gfxQueueASyncRemoveI
     /tmp/ccddCc5y.s:568    .text.gfxQueueASyncRemove:00000000 $t
     /tmp/ccddCc5y.s:574    .text.gfxQueueASyncRemove:00000000 gfxQueueASyncRemove
     /tmp/ccddCc5y.s:603    .text.gfxQueueASyncIsIn:00000000 $t
     /tmp/ccddCc5y.s:609    .text.gfxQueueASyncIsIn:00000000 gfxQueueASyncIsIn
     /tmp/ccddCc5y.s:667    .text.gfxQueueASyncIsInI:00000000 $t
     /tmp/ccddCc5y.s:673    .text.gfxQueueASyncIsInI:00000000 gfxQueueASyncIsInI
                     .debug_frame:00000010 $d

UNDEFINED SYMBOLS
_port_lock
_port_unlock
