ARM GAS  /tmp/cc5yMhnM.s 			page 1


   1              		.syntax unified
   2              		.cpu cortex-m4
   3              		.eabi_attribute 27, 3
   4              		.eabi_attribute 28, 1
   5              		.fpu fpv4-sp-d16
   6              		.eabi_attribute 20, 1
   7              		.eabi_attribute 21, 1
   8              		.eabi_attribute 23, 3
   9              		.eabi_attribute 24, 1
  10              		.eabi_attribute 25, 1
  11              		.eabi_attribute 26, 1
  12              		.eabi_attribute 30, 2
  13              		.eabi_attribute 34, 1
  14              		.eabi_attribute 18, 4
  15              		.thumb
  16              		.file	"gtimer.c"
  17              		.text
  18              	.Ltext0:
  19              		.cfi_sections	.debug_frame
  20              		.section	.text.GTimerThreadHandler,"ax",%progbits
  21              		.align	2
  22              		.p2align 4,,15
  23              		.thumb
  24              		.thumb_func
  25              		.type	GTimerThreadHandler, %function
  26              	GTimerThreadHandler:
  27              	.LFB111:
  28              		.file 1 "/home/makkmarci/devel/ugfx/src/gtimer/gtimer.c"
  29              		.loc 1 38 0
  30              		.cfi_startproc
  31              		@ args = 0, pretend = 0, frame = 0
  32              		@ frame_needed = 0, uses_anonymous_args = 0
  33              	.LVL0:
  34 0000 2DE9F047 		push	{r4, r5, r6, r7, r8, r9, r10, lr}
  35              		.cfi_def_cfa_offset 32
  36              		.cfi_offset 4, -32
  37              		.cfi_offset 5, -28
  38              		.cfi_offset 6, -24
  39              		.cfi_offset 7, -20
  40              		.cfi_offset 8, -16
  41              		.cfi_offset 9, -12
  42              		.cfi_offset 10, -8
  43              		.cfi_offset 14, -4
  44 0004 2E4F     		ldr	r7, .L26
  45 0006 2F4E     		ldr	r6, .L26+4
  46              		.loc 1 48 0
  47 0008 4FF0000A 		mov	r10, #0
  48              		.loc 1 47 0
  49 000c 4FF0FF39 		mov	r9, #-1
  50              	.LVL1:
  51              	.L16:
  52              		.loc 1 51 0
  53 0010 FFF7FEFF 		bl	chThdYield
  54              	.LVL2:
  55              		.loc 1 52 0
  56 0014 4946     		mov	r1, r9
  57 0016 2C48     		ldr	r0, .L26+8
ARM GAS  /tmp/cc5yMhnM.s 			page 2


  58 0018 FFF7FEFF 		bl	gfxSemWait
  59              	.LVL3:
  60              		.loc 1 93 0
  61 001c 4FF00008 		mov	r8, #0
  62              	.LVL4:
  63              	.L2:
  64              		.loc 1 61 0
  65 0020 2A48     		ldr	r0, .L26+12
  66              		.loc 1 57 0
  67 0022 FC68     		ldr	r4, [r7, #12]
  68              	.LVL5:
  69              		.loc 1 61 0
  70 0024 FFF7FEFF 		bl	chMtxLock
  71              	.LVL6:
  72              		.loc 1 63 0
  73 0028 3568     		ldr	r5, [r6]
  74 002a 002D     		cmp	r5, #0
  75 002c 3ED0     		beq	.L17
  76 002e 2B46     		mov	r3, r5
  77 0030 4FF0FF39 		mov	r9, #-1
  78 0034 0AE0     		b	.L15
  79              	.LVL7:
  80              	.L24:
  81              		.loc 1 67 0 discriminator 1
  82 0036 8245     		cmp	r10, r0
  83 0038 01D8     		bhi	.L9
  84              	.L22:
  85 003a 8442     		cmp	r4, r0
  86 003c 10D2     		bcs	.L10
  87              	.L9:
  88              		.loc 1 108 0 discriminator 1
  89 003e 001B     		subs	r0, r0, r4
  90 0040 8145     		cmp	r9, r0
  91 0042 28BF     		it	cs
  92 0044 8146     		movcs	r9, r0
  93              	.LVL8:
  94              	.L7:
  95              		.loc 1 110 0
  96 0046 5B69     		ldr	r3, [r3, #20]
  97              	.LVL9:
  98              		.loc 1 111 0
  99 0048 9D42     		cmp	r5, r3
 100 004a 31D0     		beq	.L3
 101              	.LVL10:
 102              	.L15:
 103              		.loc 1 67 0
 104 004c 1A8A     		ldrh	r2, [r3, #16]
 105 004e 5107     		lsls	r1, r2, #29
 106 0050 06D4     		bmi	.L10
 107              		.loc 1 67 0 is_stmt 0 discriminator 1
 108 0052 9107     		lsls	r1, r2, #30
 109 0054 F7D4     		bmi	.L7
 110 0056 A245     		cmp	r10, r4
 111 0058 9868     		ldr	r0, [r3, #8]
 112 005a ECD9     		bls	.L24
 113 005c 8245     		cmp	r10, r0
 114 005e ECD8     		bhi	.L22
ARM GAS  /tmp/cc5yMhnM.s 			page 3


 115              	.L10:
 116              		.loc 1 70 0 is_stmt 1
 117 0060 D007     		lsls	r0, r2, #31
 118 0062 15D5     		bpl	.L6
 119              		.loc 1 70 0 is_stmt 0 discriminator 1
 120 0064 D968     		ldr	r1, [r3, #12]
 121 0066 99B1     		cbz	r1, .L6
 122              		.loc 1 72 0 is_stmt 1
 123 0068 9007     		lsls	r0, r2, #30
 124 006a 07D4     		bmi	.L11
 125              		.loc 1 77 0
 126 006c 9868     		ldr	r0, [r3, #8]
 127 006e 0C44     		add	r4, r4, r1
 128              	.LVL11:
 129 0070 241A     		subs	r4, r4, r0
 130 0072 B4FBF1F4 		udiv	r4, r4, r1
 131 0076 01FB0401 		mla	r1, r1, r4, r0
 132 007a 9960     		str	r1, [r3, #8]
 133              	.L11:
 134              		.loc 1 81 0
 135 007c 22F00402 		bic	r2, r2, #4
 136 0080 1A82     		strh	r2, [r3, #16]	@ movhi
 137              	.L12:
 138              		.loc 1 97 0
 139 0082 93E83000 		ldmia	r3, {r4, r5}
 140              	.LVL12:
 141              		.loc 1 99 0
 142 0086 FFF7FEFF 		bl	chMtxUnlock
 143              	.LVL13:
 144              		.loc 1 100 0
 145 008a 2846     		mov	r0, r5
 146 008c A047     		blx	r4
 147              	.LVL14:
 148              		.loc 1 104 0
 149 008e C7E7     		b	.L2
 150              	.LVL15:
 151              	.L6:
 152              		.loc 1 85 0
 153 0090 5A69     		ldr	r2, [r3, #20]
 154 0092 9969     		ldr	r1, [r3, #24]
 155 0094 8A42     		cmp	r2, r1
 156 0096 0FD0     		beq	.L25
 157              		.loc 1 88 0
 158 0098 9161     		str	r1, [r2, #24]
 159              		.loc 1 89 0
 160 009a 9969     		ldr	r1, [r3, #24]
 161              		.loc 1 90 0
 162 009c AB42     		cmp	r3, r5
 163              		.loc 1 89 0
 164 009e 4A61     		str	r2, [r1, #20]
 165              		.loc 1 91 0
 166 00a0 04BF     		itt	eq
 167 00a2 5A69     		ldreq	r2, [r3, #20]
 168 00a4 3260     		streq	r2, [r6]
 169              	.L14:
 170              		.loc 1 93 0
 171 00a6 A3F81080 		strh	r8, [r3, #16]	@ movhi
ARM GAS  /tmp/cc5yMhnM.s 			page 4


 172 00aa EAE7     		b	.L12
 173              	.LVL16:
 174              	.L17:
 175              		.loc 1 58 0
 176 00ac 4FF0FF39 		mov	r9, #-1
 177              	.LVL17:
 178              	.L3:
 179              		.loc 1 116 0
 180 00b0 FFF7FEFF 		bl	chMtxUnlock
 181              	.LVL18:
 182              		.loc 1 117 0
 183 00b4 A246     		mov	r10, r4
 184 00b6 ABE7     		b	.L16
 185              	.LVL19:
 186              	.L25:
 187              		.loc 1 86 0
 188 00b8 C6F80080 		str	r8, [r6]
 189 00bc F3E7     		b	.L14
 190              	.L27:
 191 00be 00BF     		.align	2
 192              	.L26:
 193 00c0 00000000 		.word	vtlist
 194 00c4 00000000 		.word	.LANCHOR2
 195 00c8 00000000 		.word	.LANCHOR0
 196 00cc 00000000 		.word	.LANCHOR1
 197              		.cfi_endproc
 198              	.LFE111:
 199              		.size	GTimerThreadHandler, .-GTimerThreadHandler
 200              		.section	.text._gtimerInit,"ax",%progbits
 201              		.align	2
 202              		.p2align 4,,15
 203              		.global	_gtimerInit
 204              		.thumb
 205              		.thumb_func
 206              		.type	_gtimerInit, %function
 207              	_gtimerInit:
 208              	.LFB112:
 209              		.loc 1 122 0
 210              		.cfi_startproc
 211              		@ args = 0, pretend = 0, frame = 0
 212              		@ frame_needed = 0, uses_anonymous_args = 0
 213 0000 08B5     		push	{r3, lr}
 214              		.cfi_def_cfa_offset 8
 215              		.cfi_offset 3, -8
 216              		.cfi_offset 14, -4
 217              		.loc 1 123 0
 218 0002 0548     		ldr	r0, .L29
 219 0004 0021     		movs	r1, #0
 220 0006 0122     		movs	r2, #1
 221 0008 FFF7FEFF 		bl	gfxSemInit
 222              	.LVL20:
 223              		.loc 1 124 0
 224 000c 0348     		ldr	r0, .L29+4
 225              		.loc 1 125 0
 226 000e BDE80840 		pop	{r3, lr}
 227              		.loc 1 124 0
 228 0012 FFF7FEBF 		b	chMtxInit
ARM GAS  /tmp/cc5yMhnM.s 			page 5


 229              	.LVL21:
 230              	.L30:
 231 0016 00BF     		.align	2
 232              	.L29:
 233 0018 00000000 		.word	.LANCHOR0
 234 001c 00000000 		.word	.LANCHOR1
 235              		.cfi_endproc
 236              	.LFE112:
 237              		.size	_gtimerInit, .-_gtimerInit
 238              		.section	.text._gtimerDeinit,"ax",%progbits
 239              		.align	2
 240              		.p2align 4,,15
 241              		.global	_gtimerDeinit
 242              		.thumb
 243              		.thumb_func
 244              		.type	_gtimerDeinit, %function
 245              	_gtimerDeinit:
 246              	.LFB113:
 247              		.loc 1 128 0
 248              		.cfi_startproc
 249              		@ args = 0, pretend = 0, frame = 0
 250              		@ frame_needed = 0, uses_anonymous_args = 0
 251              		@ link register save eliminated.
 252              		.loc 1 129 0
 253 0000 0148     		ldr	r0, .L32
 254 0002 FFF7FEBF 		b	gfxSemDestroy
 255              	.LVL22:
 256              	.L33:
 257 0006 00BF     		.align	2
 258              	.L32:
 259 0008 00000000 		.word	.LANCHOR0
 260              		.cfi_endproc
 261              	.LFE113:
 262              		.size	_gtimerDeinit, .-_gtimerDeinit
 263 000c AFF30080 		.section	.text.gtimerInit,"ax",%progbits
 264              		.align	2
 265              		.p2align 4,,15
 266              		.global	gtimerInit
 267              		.thumb
 268              		.thumb_func
 269              		.type	gtimerInit, %function
 270              	gtimerInit:
 271              	.LFB114:
 272              		.loc 1 135 0
 273              		.cfi_startproc
 274              		@ args = 0, pretend = 0, frame = 0
 275              		@ frame_needed = 0, uses_anonymous_args = 0
 276              		@ link register save eliminated.
 277              	.LVL23:
 278              		.loc 1 136 0
 279 0000 0023     		movs	r3, #0
 280 0002 0382     		strh	r3, [r0, #16]	@ movhi
 281 0004 7047     		bx	lr
 282              		.cfi_endproc
 283              	.LFE114:
 284              		.size	gtimerInit, .-gtimerInit
 285 0006 00BFAFF3 		.section	.text.gtimerStart,"ax",%progbits
ARM GAS  /tmp/cc5yMhnM.s 			page 6


 285      0080AFF3 
 285      0080
 286              		.align	2
 287              		.p2align 4,,15
 288              		.global	gtimerStart
 289              		.thumb
 290              		.thumb_func
 291              		.type	gtimerStart, %function
 292              	gtimerStart:
 293              	.LFB116:
 294              		.loc 1 144 0
 295              		.cfi_startproc
 296              		@ args = 4, pretend = 0, frame = 0
 297              		@ frame_needed = 0, uses_anonymous_args = 0
 298              	.LVL24:
 299 0000 2DE9F043 		push	{r4, r5, r6, r7, r8, r9, lr}
 300              		.cfi_def_cfa_offset 28
 301              		.cfi_offset 4, -28
 302              		.cfi_offset 5, -24
 303              		.cfi_offset 6, -20
 304              		.cfi_offset 7, -16
 305              		.cfi_offset 8, -12
 306              		.cfi_offset 9, -8
 307              		.cfi_offset 14, -4
 308              		.loc 1 148 0
 309 0004 384E     		ldr	r6, .L53
 310              		.loc 1 144 0
 311 0006 83B0     		sub	sp, sp, #12
 312              		.cfi_def_cfa_offset 40
 313              		.loc 1 144 0
 314 0008 0446     		mov	r4, r0
 315              		.loc 1 145 0
 316 000a 3848     		ldr	r0, .L53+4
 317              	.LVL25:
 318              		.loc 1 144 0
 319 000c 0A9D     		ldr	r5, [sp, #40]
 320 000e 8946     		mov	r9, r1
 321 0010 9046     		mov	r8, r2
 322 0012 1F46     		mov	r7, r3
 323              		.loc 1 145 0
 324 0014 FFF7FEFF 		bl	chMtxLock
 325              	.LVL26:
 326              		.loc 1 148 0
 327 0018 3068     		ldr	r0, [r6]
 328 001a 0028     		cmp	r0, #0
 329 001c 5AD0     		beq	.L48
 330              	.L36:
 331              		.loc 1 154 0
 332 001e 238A     		ldrh	r3, [r4, #16]
 333 0020 1907     		lsls	r1, r3, #28
 334 0022 2FD4     		bmi	.L37
 335 0024 3248     		ldr	r0, .L53+8
 336              	.L38:
 337              		.loc 1 167 0
 338 0026 C4F80090 		str	r9, [r4]
 339              		.loc 1 168 0
 340 002a C4F80480 		str	r8, [r4, #4]
ARM GAS  /tmp/cc5yMhnM.s 			page 7


 341              		.loc 1 170 0
 342 002e 002F     		cmp	r7, #0
 343 0030 3BD1     		bne	.L41
 344              	.L51:
 345              		.loc 1 169 0
 346 0032 4FF00803 		mov	r3, #8	@ movhi
 347              		.loc 1 172 0
 348 0036 6A1C     		adds	r2, r5, #1
 349              		.loc 1 169 0
 350 0038 2382     		strh	r3, [r4, #16]	@ movhi
 351              		.loc 1 172 0
 352 003a 3BD0     		beq	.L49
 353              	.L43:
 354              		.loc 1 176 0
 355 003c 4FF47A72 		mov	r2, #1000
 356 0040 02FB05F2 		mul	r2, r2, r5
 357 0044 2B4E     		ldr	r6, .L53+12
 358              		.loc 1 177 0
 359 0046 2C49     		ldr	r1, .L53+16
 360 0048 238A     		ldrh	r3, [r4, #16]
 361 004a C968     		ldr	r1, [r1, #12]
 362              		.loc 1 176 0
 363 004c 013A     		subs	r2, r2, #1
 364 004e A6FB0252 		umull	r5, r2, r6, r2
 365 0052 9209     		lsrs	r2, r2, #6
 366 0054 0132     		adds	r2, r2, #1
 367              		.loc 1 177 0
 368 0056 1144     		add	r1, r1, r2
 369              		.loc 1 176 0
 370 0058 E260     		str	r2, [r4, #12]
 371              		.loc 1 181 0
 372 005a 0268     		ldr	r2, [r0]
 373              		.loc 1 177 0
 374 005c A160     		str	r1, [r4, #8]
 375              		.loc 1 181 0
 376 005e 2449     		ldr	r1, .L53+8
 377 0060 002A     		cmp	r2, #0
 378 0062 30D0     		beq	.L45
 379              	.L52:
 380              		.loc 1 183 0
 381 0064 9169     		ldr	r1, [r2, #24]
 382 0066 A161     		str	r1, [r4, #24]
 383              		.loc 1 182 0
 384 0068 6261     		str	r2, [r4, #20]
 385              		.loc 1 184 0
 386 006a 4C61     		str	r4, [r1, #20]
 387              		.loc 1 185 0
 388 006c 6269     		ldr	r2, [r4, #20]
 389 006e 9461     		str	r4, [r2, #24]
 390              	.L46:
 391              		.loc 1 190 0
 392 0070 9B07     		lsls	r3, r3, #30
 393 0072 02D4     		bmi	.L47
 394              		.loc 1 191 0
 395 0074 2148     		ldr	r0, .L53+20
 396 0076 FFF7FEFF 		bl	gfxSemSignal
 397              	.LVL27:
ARM GAS  /tmp/cc5yMhnM.s 			page 8


 398              	.L47:
 399              		.loc 1 193 0
 400 007a 03B0     		add	sp, sp, #12
 401              		@ sp needed
 402 007c BDE8F043 		pop	{r4, r5, r6, r7, r8, r9, lr}
 403              	.LVL28:
 404              		.loc 1 192 0
 405 0080 FFF7FEBF 		b	chMtxUnlock
 406              	.LVL29:
 407              	.L37:
 408              		.loc 1 156 0
 409 0084 6369     		ldr	r3, [r4, #20]
 410 0086 A269     		ldr	r2, [r4, #24]
 411              		.loc 1 157 0
 412 0088 1948     		ldr	r0, .L53+8
 413              		.loc 1 156 0
 414 008a 9342     		cmp	r3, r2
 415 008c 1FD0     		beq	.L50
 416              		.loc 1 159 0
 417 008e 9A61     		str	r2, [r3, #24]
 418              		.loc 1 160 0
 419 0090 A169     		ldr	r1, [r4, #24]
 420              		.loc 1 161 0
 421 0092 0268     		ldr	r2, [r0]
 422              		.loc 1 160 0
 423 0094 4B61     		str	r3, [r1, #20]
 424              		.loc 1 161 0
 425 0096 A242     		cmp	r2, r4
 426              		.loc 1 162 0
 427 0098 04BF     		itt	eq
 428 009a 6369     		ldreq	r3, [r4, #20]
 429 009c 0360     		streq	r3, [r0]
 430              		.loc 1 167 0
 431 009e C4F80090 		str	r9, [r4]
 432              		.loc 1 168 0
 433 00a2 C4F80480 		str	r8, [r4, #4]
 434              		.loc 1 170 0
 435 00a6 002F     		cmp	r7, #0
 436 00a8 C3D0     		beq	.L51
 437              	.L41:
 438              		.loc 1 171 0
 439 00aa 4FF00903 		mov	r3, #9	@ movhi
 440              		.loc 1 172 0
 441 00ae 6A1C     		adds	r2, r5, #1
 442              		.loc 1 171 0
 443 00b0 2382     		strh	r3, [r4, #16]	@ movhi
 444              		.loc 1 172 0
 445 00b2 C3D1     		bne	.L43
 446              	.L49:
 447              		.loc 1 173 0
 448 00b4 238A     		ldrh	r3, [r4, #16]
 449              		.loc 1 181 0
 450 00b6 0268     		ldr	r2, [r0]
 451              		.loc 1 174 0
 452 00b8 E560     		str	r5, [r4, #12]
 453              		.loc 1 173 0
 454 00ba 43F00203 		orr	r3, r3, #2
ARM GAS  /tmp/cc5yMhnM.s 			page 9


 455 00be 2382     		strh	r3, [r4, #16]	@ movhi
 456              		.loc 1 181 0
 457 00c0 0B49     		ldr	r1, .L53+8
 458 00c2 002A     		cmp	r2, #0
 459 00c4 CED1     		bne	.L52
 460              	.L45:
 461              		.loc 1 187 0
 462 00c6 0C60     		str	r4, [r1]
 463 00c8 A461     		str	r4, [r4, #24]
 464 00ca 6461     		str	r4, [r4, #20]
 465 00cc D0E7     		b	.L46
 466              	.L50:
 467              		.loc 1 157 0
 468 00ce 0023     		movs	r3, #0
 469 00d0 0360     		str	r3, [r0]
 470 00d2 A8E7     		b	.L38
 471              	.L48:
 472              		.loc 1 149 0
 473 00d4 0090     		str	r0, [sp]
 474 00d6 0A4B     		ldr	r3, .L53+24
 475 00d8 0A48     		ldr	r0, .L53+28
 476 00da 40F65811 		movw	r1, #2392
 477 00de 7F22     		movs	r2, #127
 478 00e0 FFF7FEFF 		bl	gfxThreadCreate
 479              	.LVL30:
 480 00e4 3060     		str	r0, [r6]
 481 00e6 9AE7     		b	.L36
 482              	.L54:
 483              		.align	2
 484              	.L53:
 485 00e8 00000000 		.word	.LANCHOR3
 486 00ec 00000000 		.word	.LANCHOR1
 487 00f0 00000000 		.word	.LANCHOR2
 488 00f4 D34D6210 		.word	274877907
 489 00f8 00000000 		.word	vtlist
 490 00fc 00000000 		.word	.LANCHOR0
 491 0100 00000000 		.word	GTimerThreadHandler
 492 0104 00000000 		.word	.LANCHOR4
 493              		.cfi_endproc
 494              	.LFE116:
 495              		.size	gtimerStart, .-gtimerStart
 496 0108 AFF30080 		.section	.text.gtimerStop,"ax",%progbits
 496      AFF30080 
 497              		.align	2
 498              		.p2align 4,,15
 499              		.global	gtimerStop
 500              		.thumb
 501              		.thumb_func
 502              		.type	gtimerStop, %function
 503              	gtimerStop:
 504              	.LFB117:
 505              		.loc 1 195 0
 506              		.cfi_startproc
 507              		@ args = 0, pretend = 0, frame = 0
 508              		@ frame_needed = 0, uses_anonymous_args = 0
 509              	.LVL31:
 510 0000 10B5     		push	{r4, lr}
ARM GAS  /tmp/cc5yMhnM.s 			page 10


 511              		.cfi_def_cfa_offset 8
 512              		.cfi_offset 4, -8
 513              		.cfi_offset 14, -4
 514              		.loc 1 195 0
 515 0002 0446     		mov	r4, r0
 516              		.loc 1 196 0
 517 0004 0E48     		ldr	r0, .L63
 518              	.LVL32:
 519 0006 FFF7FEFF 		bl	chMtxLock
 520              	.LVL33:
 521              		.loc 1 197 0
 522 000a 238A     		ldrh	r3, [r4, #16]
 523 000c 1B07     		lsls	r3, r3, #28
 524 000e 0ED5     		bpl	.L56
 525              		.loc 1 199 0
 526 0010 6369     		ldr	r3, [r4, #20]
 527 0012 A269     		ldr	r2, [r4, #24]
 528 0014 9342     		cmp	r3, r2
 529 0016 0ED0     		beq	.L62
 530              		.loc 1 204 0
 531 0018 0A49     		ldr	r1, .L63+4
 532              		.loc 1 202 0
 533 001a 9A61     		str	r2, [r3, #24]
 534              		.loc 1 203 0
 535 001c A069     		ldr	r0, [r4, #24]
 536              		.loc 1 204 0
 537 001e 0A68     		ldr	r2, [r1]
 538              		.loc 1 203 0
 539 0020 4361     		str	r3, [r0, #20]
 540              		.loc 1 204 0
 541 0022 A242     		cmp	r2, r4
 542              		.loc 1 205 0
 543 0024 04BF     		itt	eq
 544 0026 6369     		ldreq	r3, [r4, #20]
 545 0028 0B60     		streq	r3, [r1]
 546              	.L58:
 547              		.loc 1 208 0
 548 002a 0023     		movs	r3, #0
 549 002c 2382     		strh	r3, [r4, #16]	@ movhi
 550              	.L56:
 551              		.loc 1 211 0
 552 002e BDE81040 		pop	{r4, lr}
 553              	.LVL34:
 554              		.loc 1 210 0
 555 0032 FFF7FEBF 		b	chMtxUnlock
 556              	.LVL35:
 557              	.L62:
 558              		.loc 1 200 0
 559 0036 034B     		ldr	r3, .L63+4
 560 0038 0022     		movs	r2, #0
 561 003a 1A60     		str	r2, [r3]
 562 003c F5E7     		b	.L58
 563              	.L64:
 564 003e 00BF     		.align	2
 565              	.L63:
 566 0040 00000000 		.word	.LANCHOR1
 567 0044 00000000 		.word	.LANCHOR2
ARM GAS  /tmp/cc5yMhnM.s 			page 11


 568              		.cfi_endproc
 569              	.LFE117:
 570              		.size	gtimerStop, .-gtimerStop
 571 0048 AFF30080 		.section	.text.gtimerDeinit,"ax",%progbits
 571      AFF30080 
 572              		.align	2
 573              		.p2align 4,,15
 574              		.global	gtimerDeinit
 575              		.thumb
 576              		.thumb_func
 577              		.type	gtimerDeinit, %function
 578              	gtimerDeinit:
 579              	.LFB115:
 580              		.loc 1 140 0
 581              		.cfi_startproc
 582              		@ args = 0, pretend = 0, frame = 0
 583              		@ frame_needed = 0, uses_anonymous_args = 0
 584              		@ link register save eliminated.
 585              	.LVL36:
 586              		.loc 1 141 0
 587 0000 FFF7FEBF 		b	gtimerStop
 588              	.LVL37:
 589              		.cfi_endproc
 590              	.LFE115:
 591              		.size	gtimerDeinit, .-gtimerDeinit
 592 0004 AFF30080 		.section	.text.gtimerIsActive,"ax",%progbits
 592      AFF30080 
 592      AFF30080 
 593              		.align	2
 594              		.p2align 4,,15
 595              		.global	gtimerIsActive
 596              		.thumb
 597              		.thumb_func
 598              		.type	gtimerIsActive, %function
 599              	gtimerIsActive:
 600              	.LFB118:
 601              		.loc 1 213 0
 602              		.cfi_startproc
 603              		@ args = 0, pretend = 0, frame = 0
 604              		@ frame_needed = 0, uses_anonymous_args = 0
 605              		@ link register save eliminated.
 606              	.LVL38:
 607              		.loc 1 214 0
 608 0000 008A     		ldrh	r0, [r0, #16]
 609              	.LVL39:
 610              		.loc 1 215 0
 611 0002 C0F3C000 		ubfx	r0, r0, #3, #1
 612 0006 7047     		bx	lr
 613              		.cfi_endproc
 614              	.LFE118:
 615              		.size	gtimerIsActive, .-gtimerIsActive
 616 0008 AFF30080 		.section	.text.gtimerJab,"ax",%progbits
 616      AFF30080 
 617              		.align	2
 618              		.p2align 4,,15
 619              		.global	gtimerJab
 620              		.thumb
ARM GAS  /tmp/cc5yMhnM.s 			page 12


 621              		.thumb_func
 622              		.type	gtimerJab, %function
 623              	gtimerJab:
 624              	.LFB119:
 625              		.loc 1 217 0
 626              		.cfi_startproc
 627              		@ args = 0, pretend = 0, frame = 0
 628              		@ frame_needed = 0, uses_anonymous_args = 0
 629              	.LVL40:
 630 0000 10B5     		push	{r4, lr}
 631              		.cfi_def_cfa_offset 8
 632              		.cfi_offset 4, -8
 633              		.cfi_offset 14, -4
 634              		.loc 1 217 0
 635 0002 0446     		mov	r4, r0
 636              		.loc 1 218 0
 637 0004 0648     		ldr	r0, .L68
 638              	.LVL41:
 639 0006 FFF7FEFF 		bl	chMtxLock
 640              	.LVL42:
 641              		.loc 1 221 0
 642 000a 238A     		ldrh	r3, [r4, #16]
 643              		.loc 1 224 0
 644 000c 0548     		ldr	r0, .L68+4
 645              		.loc 1 221 0
 646 000e 43F00403 		orr	r3, r3, #4
 647 0012 2382     		strh	r3, [r4, #16]	@ movhi
 648              		.loc 1 224 0
 649 0014 FFF7FEFF 		bl	gfxSemSignal
 650              	.LVL43:
 651              		.loc 1 226 0
 652 0018 BDE81040 		pop	{r4, lr}
 653              	.LVL44:
 654              		.loc 1 225 0
 655 001c FFF7FEBF 		b	chMtxUnlock
 656              	.LVL45:
 657              	.L69:
 658              		.align	2
 659              	.L68:
 660 0020 00000000 		.word	.LANCHOR1
 661 0024 00000000 		.word	.LANCHOR0
 662              		.cfi_endproc
 663              	.LFE119:
 664              		.size	gtimerJab, .-gtimerJab
 665 0028 AFF30080 		.section	.text.gtimerJabI,"ax",%progbits
 665      AFF30080 
 666              		.align	2
 667              		.p2align 4,,15
 668              		.global	gtimerJabI
 669              		.thumb
 670              		.thumb_func
 671              		.type	gtimerJabI, %function
 672              	gtimerJabI:
 673              	.LFB120:
 674              		.loc 1 228 0
 675              		.cfi_startproc
 676              		@ args = 0, pretend = 0, frame = 0
ARM GAS  /tmp/cc5yMhnM.s 			page 13


 677              		@ frame_needed = 0, uses_anonymous_args = 0
 678              		@ link register save eliminated.
 679              	.LVL46:
 680              		.loc 1 228 0
 681 0000 0346     		mov	r3, r0
 682              		.loc 1 233 0
 683 0002 0348     		ldr	r0, .L71
 684              	.LVL47:
 685              		.loc 1 230 0
 686 0004 1A8A     		ldrh	r2, [r3, #16]
 687 0006 42F00402 		orr	r2, r2, #4
 688 000a 1A82     		strh	r2, [r3, #16]	@ movhi
 689              		.loc 1 233 0
 690 000c FFF7FEBF 		b	gfxSemSignalI
 691              	.LVL48:
 692              	.L72:
 693              		.align	2
 694              	.L71:
 695 0010 00000000 		.word	.LANCHOR0
 696              		.cfi_endproc
 697              	.LFE120:
 698              		.size	gtimerJabI, .-gtimerJabI
 699 0014 AFF30080 		.section	.bss.mutex,"aw",%nobits
 699      AFF30080 
 699      AFF30080 
 700              		.align	2
 701              		.set	.LANCHOR1,. + 0
 702              		.type	mutex, %object
 703              		.size	mutex, 16
 704              	mutex:
 705 0000 00000000 		.space	16
 705      00000000 
 705      00000000 
 705      00000000 
 706              		.section	.bss.hThread,"aw",%nobits
 707              		.align	2
 708              		.set	.LANCHOR3,. + 0
 709              		.type	hThread, %object
 710              		.size	hThread, 4
 711              	hThread:
 712 0000 00000000 		.space	4
 713              		.section	.bss.waTimerThread,"aw",%nobits
 714              		.align	3
 715              		.set	.LANCHOR4,. + 0
 716              		.type	waTimerThread, %object
 717              		.size	waTimerThread, 2392
 718              	waTimerThread:
 719 0000 00000000 		.space	2392
 719      00000000 
 719      00000000 
 719      00000000 
 719      00000000 
 720              		.section	.bss.pTimerHead,"aw",%nobits
 721              		.align	2
 722              		.set	.LANCHOR2,. + 0
 723              		.type	pTimerHead, %object
 724              		.size	pTimerHead, 4
ARM GAS  /tmp/cc5yMhnM.s 			page 14


 725              	pTimerHead:
 726 0000 00000000 		.space	4
 727              		.section	.bss.waitsem,"aw",%nobits
 728              		.align	2
 729              		.set	.LANCHOR0,. + 0
 730              		.type	waitsem, %object
 731              		.size	waitsem, 16
 732              	waitsem:
 733 0000 00000000 		.space	16
 733      00000000 
 733      00000000 
 733      00000000 
 734              		.text
 735              	.Letext0:
 736              		.file 2 "/opt/ARM/lib/gcc/arm-none-eabi/4.8.4/include/stddef.h"
 737              		.file 3 "/opt/ARM/arm-none-eabi/include/machine/_default_types.h"
 738              		.file 4 "/opt/ARM/arm-none-eabi/include/stdint.h"
 739              		.file 5 "../../os/ports/GCC/ARMCMx/chtypes.h"
 740              		.file 6 "../../os/kernel/include/chlists.h"
 741              		.file 7 "../../os/kernel/include/chthreads.h"
 742              		.file 8 "../../os/ports/GCC/ARMCMx/chcore_v7m.h"
 743              		.file 9 "../../os/kernel/include/chvt.h"
 744              		.file 10 "../../os/kernel/include/chsem.h"
 745              		.file 11 "../../os/kernel/include/chmtx.h"
 746              		.file 12 "/home/makkmarci/devel/ugfx/src/gos/chibios.h"
 747              		.file 13 "/home/makkmarci/devel/ugfx/src/gtimer/sys_defs.h"
 748              		.file 14 "../../os/ports/common/ARMCMx/CMSIS/include/core_cm4.h"