ARM GAS  /tmp/cckBSJma.s 			page 1


   1              		.syntax unified
   2              		.cpu cortex-m4
   3              		.eabi_attribute 27, 3
   4              		.eabi_attribute 28, 1
   5              		.fpu fpv4-sp-d16
   6              		.eabi_attribute 20, 1
   7              		.eabi_attribute 21, 1
   8              		.eabi_attribute 23, 3
   9              		.eabi_attribute 24, 1
  10              		.eabi_attribute 25, 1
  11              		.eabi_attribute 26, 1
  12              		.eabi_attribute 30, 2
  13              		.eabi_attribute 34, 1
  14              		.eabi_attribute 18, 4
  15              		.thumb
  16              		.file	"gwidget.c"
  17              		.text
  18              	.Ltext0:
  19              		.cfi_sections	.debug_frame
  20              		.section	.text._gwidgetCreate,"ax",%progbits
  21              		.align	2
  22              		.p2align 4,,15
  23              		.global	_gwidgetCreate
  24              		.thumb
  25              		.thumb_func
  26              		.type	_gwidgetCreate, %function
  27              	_gwidgetCreate:
  28              	.LFB114:
  29              		.file 1 "/home/makkmarci/devel/ugfx/src/gwin/gwidget.c"
  30              		.loc 1 232 0
  31              		.cfi_startproc
  32              		@ args = 0, pretend = 0, frame = 0
  33              		@ frame_needed = 0, uses_anonymous_args = 0
  34              	.LVL0:
  35 0000 70B5     		push	{r4, r5, r6, lr}
  36              		.cfi_def_cfa_offset 16
  37              		.cfi_offset 4, -16
  38              		.cfi_offset 5, -12
  39              		.cfi_offset 6, -8
  40              		.cfi_offset 14, -4
  41 0002 82B0     		sub	sp, sp, #8
  42              		.cfi_def_cfa_offset 24
  43              		.loc 1 233 0
  44 0004 4FF48634 		mov	r4, #68608
  45 0008 0094     		str	r4, [sp]
  46              		.loc 1 232 0
  47 000a 1E46     		mov	r6, r3
  48 000c 1446     		mov	r4, r2
  49              		.loc 1 233 0
  50 000e FFF7FEFF 		bl	_gwindowCreate
  51              	.LVL1:
  52 0012 68B1     		cbz	r0, .L2
  53              		.loc 1 241 0
  54 0014 E268     		ldr	r2, [r4, #12]
  55 0016 0A4D     		ldr	r5, .L14
  56              		.loc 1 242 0
  57 0018 2169     		ldr	r1, [r4, #16]
ARM GAS  /tmp/cckBSJma.s 			page 2


  58              		.loc 1 241 0
  59 001a 002A     		cmp	r2, #0
  60 001c 08BF     		it	eq
  61 001e 2A46     		moveq	r2, r5
  62 0020 0262     		str	r2, [r0, #32]
  63              		.loc 1 242 0
  64 0022 39B1     		cbz	r1, .L12
  65              	.L4:
  66              		.loc 1 244 0 discriminator 3
  67 0024 A369     		ldr	r3, [r4, #24]
  68              		.loc 1 243 0 discriminator 3
  69 0026 6269     		ldr	r2, [r4, #20]
  70 0028 8262     		str	r2, [r0, #40]
  71              		.loc 1 242 0 discriminator 3
  72 002a 4162     		str	r1, [r0, #36]
  73              		.loc 1 244 0 discriminator 3
  74 002c 23B1     		cbz	r3, .L13
  75              	.L5:
  76 002e C362     		str	r3, [r0, #44]
  77              	.L2:
  78              		.loc 1 247 0
  79 0030 02B0     		add	sp, sp, #8
  80              		@ sp needed
  81 0032 70BD     		pop	{r4, r5, r6, pc}
  82              	.LVL2:
  83              	.L12:
  84              		.loc 1 242 0 discriminator 2
  85 0034 7169     		ldr	r1, [r6, #20]
  86 0036 F5E7     		b	.L4
  87              	.L13:
  88              		.loc 1 244 0 discriminator 2
  89 0038 024B     		ldr	r3, .L14+4
  90 003a 1B68     		ldr	r3, [r3]
  91 003c F7E7     		b	.L5
  92              	.L15:
  93 003e 00BF     		.align	2
  94              	.L14:
  95 0040 00000000 		.word	.LC0
  96 0044 00000000 		.word	.LANCHOR0
  97              		.cfi_endproc
  98              	.LFE114:
  99              		.size	_gwidgetCreate, .-_gwidgetCreate
 100 0048 AFF30080 		.section	.text.gwidgetEvent,"ax",%progbits
 100      AFF30080 
 101              		.align	2
 102              		.p2align 4,,15
 103              		.thumb
 104              		.thumb_func
 105              		.type	gwidgetEvent, %function
 106              	gwidgetEvent:
 107              	.LFB111:
 108              		.loc 1 84 0
 109              		.cfi_startproc
 110              		@ args = 0, pretend = 0, frame = 0
 111              		@ frame_needed = 0, uses_anonymous_args = 0
 112              	.LVL3:
 113 0000 F8B5     		push	{r3, r4, r5, r6, r7, lr}
ARM GAS  /tmp/cckBSJma.s 			page 3


 114              		.cfi_def_cfa_offset 24
 115              		.cfi_offset 3, -24
 116              		.cfi_offset 4, -20
 117              		.cfi_offset 5, -16
 118              		.cfi_offset 6, -12
 119              		.cfi_offset 7, -8
 120              		.cfi_offset 14, -4
 121              		.loc 1 96 0
 122 0002 0B88     		ldrh	r3, [r1]
 123 0004 A3F58073 		sub	r3, r3, #256
 124 0008 012B     		cmp	r3, #1
 125              		.loc 1 84 0
 126 000a 0D46     		mov	r5, r1
 127              		.loc 1 96 0
 128 000c 00D9     		bls	.L42
 129              	.LVL4:
 130              	.L16:
 131 000e F8BD     		pop	{r3, r4, r5, r6, r7, pc}
 132              	.LVL5:
 133              	.L42:
 134              	.LBB11:
 135              	.LBB12:
 136              		.loc 1 102 0
 137 0010 0020     		movs	r0, #0
 138              	.LVL6:
 139 0012 FFF7FEFF 		bl	gwinGetNextWindow
 140              	.LVL7:
 141 0016 0446     		mov	r4, r0
 142 0018 30B9     		cbnz	r0, .L26
 143 001a F8E7     		b	.L16
 144              	.LVL8:
 145              	.L21:
 146 001c 2046     		mov	r0, r4
 147 001e FFF7FEFF 		bl	gwinGetNextWindow
 148              	.LVL9:
 149 0022 0446     		mov	r4, r0
 150 0024 0028     		cmp	r0, #0
 151 0026 F2D0     		beq	.L16
 152              	.L26:
 153              		.loc 1 105 0
 154 0028 A268     		ldr	r2, [r4, #8]
 155 002a 2B69     		ldr	r3, [r5, #16]
 156 002c 9A42     		cmp	r2, r3
 157 002e F5D1     		bne	.L21
 158              		.loc 1 109 0
 159 0030 A369     		ldr	r3, [r4, #24]
 160 0032 03F48532 		and	r2, r3, #68096
 161 0036 B2F5853F 		cmp	r2, #68096
 162 003a EFD1     		bne	.L21
 163              		.loc 1 113 0
 164 003c 5A04     		lsls	r2, r3, #17
 165 003e 18D5     		bpl	.L23
 166              		.loc 1 114 0
 167 0040 AA89     		ldrh	r2, [r5, #12]
 168 0042 6989     		ldrh	r1, [r5, #10]
 169 0044 02F00102 		and	r2, r2, #1
 170 0048 32EA0101 		bics	r1, r2, r1
ARM GAS  /tmp/cckBSJma.s 			page 4


 171 004c 3FD0     		beq	.L24
 172              		.loc 1 116 0
 173 004e 6268     		ldr	r2, [r4, #4]
 174 0050 D669     		ldr	r6, [r2, #28]
 175              		.loc 1 115 0
 176 0052 23F48043 		bic	r3, r3, #16384
 177 0056 A361     		str	r3, [r4, #24]
 178              		.loc 1 116 0
 179 0058 002E     		cmp	r6, #0
 180 005a DFD0     		beq	.L21
 181              		.loc 1 117 0
 182 005c A888     		ldrh	r0, [r5, #4]
 183              	.LVL10:
 184 005e A189     		ldrh	r1, [r4, #12]
 185 0060 EA88     		ldrh	r2, [r5, #6]
 186 0062 E389     		ldrh	r3, [r4, #14]
 187 0064 411A     		subs	r1, r0, r1
 188 0066 D21A     		subs	r2, r2, r3
 189 0068 09B2     		sxth	r1, r1
 190 006a 12B2     		sxth	r2, r2
 191 006c 2046     		mov	r0, r4
 192 006e B047     		blx	r6
 193              	.LVL11:
 194 0070 D4E7     		b	.L21
 195              	.LVL12:
 196              	.L23:
 197              		.loc 1 122 0
 198 0072 6A89     		ldrh	r2, [r5, #10]
 199 0074 A989     		ldrh	r1, [r5, #12]
 200 0076 02F00102 		and	r2, r2, #1
 201 007a 32EA0101 		bics	r1, r2, r1
 202 007e CDD0     		beq	.L21
 203              		.loc 1 123 0
 204 0080 AE88     		ldrh	r6, [r5, #4]
 205 0082 A089     		ldrh	r0, [r4, #12]
 206              	.LVL13:
 207 0084 32B2     		sxth	r2, r6
 208 0086 01B2     		sxth	r1, r0
 209 0088 8A42     		cmp	r2, r1
 210 008a C7DB     		blt	.L21
 211 008c B4F91070 		ldrsh	r7, [r4, #16]
 212 0090 3944     		add	r1, r1, r7
 213 0092 8A42     		cmp	r2, r1
 214 0094 C2DA     		bge	.L21
 215              		.loc 1 124 0
 216 0096 EF88     		ldrh	r7, [r5, #6]
 217 0098 E289     		ldrh	r2, [r4, #14]
 218 009a 39B2     		sxth	r1, r7
 219 009c 0FFA82FE 		sxth	lr, r2
 220 00a0 7145     		cmp	r1, lr
 221 00a2 BBDB     		blt	.L21
 222 00a4 B4F912C0 		ldrsh	ip, [r4, #18]
 223 00a8 E644     		add	lr, lr, ip
 224 00aa 7145     		cmp	r1, lr
 225 00ac B6DA     		bge	.L21
 226              		.loc 1 126 0
 227 00ae 6168     		ldr	r1, [r4, #4]
ARM GAS  /tmp/cckBSJma.s 			page 5


 228 00b0 D1F818C0 		ldr	ip, [r1, #24]
 229              		.loc 1 125 0
 230 00b4 43F48043 		orr	r3, r3, #16384
 231 00b8 A361     		str	r3, [r4, #24]
 232              		.loc 1 126 0
 233 00ba BCF1000F 		cmp	ip, #0
 234 00be ADD0     		beq	.L21
 235              		.loc 1 127 0
 236 00c0 311A     		subs	r1, r6, r0
 237 00c2 BA1A     		subs	r2, r7, r2
 238 00c4 09B2     		sxth	r1, r1
 239 00c6 12B2     		sxth	r2, r2
 240 00c8 2046     		mov	r0, r4
 241 00ca E047     		blx	ip
 242              	.LVL14:
 243 00cc A6E7     		b	.L21
 244              	.LVL15:
 245              	.L24:
 246              		.loc 1 118 0
 247 00ce 6368     		ldr	r3, [r4, #4]
 248 00d0 1B6A     		ldr	r3, [r3, #32]
 249 00d2 002B     		cmp	r3, #0
 250 00d4 A2D0     		beq	.L21
 251              		.loc 1 119 0
 252 00d6 E888     		ldrh	r0, [r5, #6]
 253              	.LVL16:
 254 00d8 AE88     		ldrh	r6, [r5, #4]
 255 00da A189     		ldrh	r1, [r4, #12]
 256 00dc E289     		ldrh	r2, [r4, #14]
 257 00de 711A     		subs	r1, r6, r1
 258 00e0 821A     		subs	r2, r0, r2
 259 00e2 09B2     		sxth	r1, r1
 260 00e4 12B2     		sxth	r2, r2
 261 00e6 2046     		mov	r0, r4
 262 00e8 9847     		blx	r3
 263              	.LVL17:
 264 00ea 97E7     		b	.L21
 265              	.LBE12:
 266              	.LBE11:
 267              		.cfi_endproc
 268              	.LFE111:
 269              		.size	gwidgetEvent, .-gwidgetEvent
 270 00ec AFF30080 		.section	.text._gwidgetUpdate.part.1,"ax",%progbits
 271              		.align	2
 272              		.p2align 4,,15
 273              		.thumb
 274              		.thumb_func
 275              		.type	_gwidgetUpdate.part.1, %function
 276              	_gwidgetUpdate.part.1:
 277              	.LFB129:
 278              		.loc 1 295 0
 279              		.cfi_startproc
 280              		@ args = 0, pretend = 0, frame = 0
 281              		@ frame_needed = 0, uses_anonymous_args = 0
 282              	.LVL18:
 283 0000 30B5     		push	{r4, r5, lr}
 284              		.cfi_def_cfa_offset 12
ARM GAS  /tmp/cckBSJma.s 			page 6


 285              		.cfi_offset 4, -12
 286              		.cfi_offset 5, -8
 287              		.cfi_offset 14, -4
 288 0002 0446     		mov	r4, r0
 289 0004 83B0     		sub	sp, sp, #12
 290              		.cfi_def_cfa_offset 24
 291              		.loc 1 300 0
 292 0006 B4F91250 		ldrsh	r5, [r4, #18]
 293 000a B4F90C10 		ldrsh	r1, [r4, #12]
 294 000e B4F90E20 		ldrsh	r2, [r4, #14]
 295 0012 B4F91030 		ldrsh	r3, [r4, #16]
 296 0016 8068     		ldr	r0, [r0, #8]
 297              	.LVL19:
 298 0018 0095     		str	r5, [sp]
 299 001a FFF7FEFF 		bl	gdispGSetClip
 300              	.LVL20:
 301              		.loc 1 302 0
 302 001e 2046     		mov	r0, r4
 303 0020 636A     		ldr	r3, [r4, #36]
 304 0022 A16A     		ldr	r1, [r4, #40]
 305 0024 9847     		blx	r3
 306              	.LVL21:
 307              		.loc 1 303 0
 308 0026 03B0     		add	sp, sp, #12
 309              		@ sp needed
 310 0028 30BD     		pop	{r4, r5, pc}
 311              		.cfi_endproc
 312              	.LFE129:
 313              		.size	_gwidgetUpdate.part.1, .-_gwidgetUpdate.part.1
 314 002a 00BFAFF3 		.section	.text._gwidgetInit,"ax",%progbits
 314      0080
 315              		.align	2
 316              		.p2align 4,,15
 317              		.global	_gwidgetInit
 318              		.thumb
 319              		.thumb_func
 320              		.type	_gwidgetInit, %function
 321              	_gwidgetInit:
 322              	.LFB112:
 323              		.loc 1 222 0
 324              		.cfi_startproc
 325              		@ args = 0, pretend = 0, frame = 0
 326              		@ frame_needed = 0, uses_anonymous_args = 0
 327 0000 10B5     		push	{r4, lr}
 328              		.cfi_def_cfa_offset 8
 329              		.cfi_offset 4, -8
 330              		.cfi_offset 14, -4
 331              		.loc 1 223 0
 332 0002 054C     		ldr	r4, .L45
 333 0004 2046     		mov	r0, r4
 334 0006 FFF7FEFF 		bl	geventListenerInit
 335              	.LVL22:
 336              		.loc 1 224 0
 337 000a 2046     		mov	r0, r4
 338 000c 0349     		ldr	r1, .L45+4
 339 000e 0022     		movs	r2, #0
 340              		.loc 1 225 0
ARM GAS  /tmp/cckBSJma.s 			page 7


 341 0010 BDE81040 		pop	{r4, lr}
 342              		.loc 1 224 0
 343 0014 FFF7FEBF 		b	geventRegisterCallback
 344              	.LVL23:
 345              	.L46:
 346              		.align	2
 347              	.L45:
 348 0018 00000000 		.word	.LANCHOR1
 349 001c 00000000 		.word	gwidgetEvent
 350              		.cfi_endproc
 351              	.LFE112:
 352              		.size	_gwidgetInit, .-_gwidgetInit
 353              		.section	.text._gwidgetDeinit,"ax",%progbits
 354              		.align	2
 355              		.p2align 4,,15
 356              		.global	_gwidgetDeinit
 357              		.thumb
 358              		.thumb_func
 359              		.type	_gwidgetDeinit, %function
 360              	_gwidgetDeinit:
 361              	.LFB113:
 362              		.loc 1 228 0
 363              		.cfi_startproc
 364              		@ args = 0, pretend = 0, frame = 0
 365              		@ frame_needed = 0, uses_anonymous_args = 0
 366              		@ link register save eliminated.
 367 0000 7047     		bx	lr
 368              		.cfi_endproc
 369              	.LFE113:
 370              		.size	_gwidgetDeinit, .-_gwidgetDeinit
 371 0002 00BFAFF3 		.section	.text._gwidgetDestroy,"ax",%progbits
 371      0080AFF3 
 371      0080AFF3 
 371      0080
 372              		.align	2
 373              		.p2align 4,,15
 374              		.global	_gwidgetDestroy
 375              		.thumb
 376              		.thumb_func
 377              		.type	_gwidgetDestroy, %function
 378              	_gwidgetDestroy:
 379              	.LFB115:
 380              		.loc 1 249 0
 381              		.cfi_startproc
 382              		@ args = 0, pretend = 0, frame = 0
 383              		@ frame_needed = 0, uses_anonymous_args = 0
 384              	.LVL24:
 385              		.loc 1 255 0
 386 0000 8369     		ldr	r3, [r0, #24]
 387 0002 9A04     		lsls	r2, r3, #18
 388              		.loc 1 249 0
 389 0004 10B5     		push	{r4, lr}
 390              		.cfi_def_cfa_offset 8
 391              		.cfi_offset 4, -8
 392              		.cfi_offset 14, -4
 393              		.loc 1 249 0
 394 0006 0446     		mov	r4, r0
ARM GAS  /tmp/cckBSJma.s 			page 8


 395              		.loc 1 255 0
 396 0008 05D5     		bpl	.L49
 397              		.loc 1 256 0
 398 000a 23F40053 		bic	r3, r3, #8192
 399 000e 8361     		str	r3, [r0, #24]
 400              		.loc 1 257 0
 401 0010 006A     		ldr	r0, [r0, #32]
 402              	.LVL25:
 403 0012 FFF7FEFF 		bl	chHeapFree
 404              	.LVL26:
 405              	.L49:
 406              		.loc 1 285 0
 407 0016 2046     		mov	r0, r4
 408              		.loc 1 286 0
 409 0018 BDE81040 		pop	{r4, lr}
 410              	.LVL27:
 411              		.loc 1 285 0
 412 001c FFF7FEBF 		b	geventDetachSourceListeners
 413              	.LVL28:
 414              		.cfi_endproc
 415              	.LFE115:
 416              		.size	_gwidgetDestroy, .-_gwidgetDestroy
 417              		.section	.text._gwidgetRedraw,"ax",%progbits
 418              		.align	2
 419              		.p2align 4,,15
 420              		.global	_gwidgetRedraw
 421              		.thumb
 422              		.thumb_func
 423              		.type	_gwidgetRedraw, %function
 424              	_gwidgetRedraw:
 425              	.LFB116:
 426              		.loc 1 288 0
 427              		.cfi_startproc
 428              		@ args = 0, pretend = 0, frame = 0
 429              		@ frame_needed = 0, uses_anonymous_args = 0
 430              	.LVL29:
 431              		.loc 1 289 0
 432 0000 8269     		ldr	r2, [r0, #24]
 433 0002 9205     		lsls	r2, r2, #22
 434              		.loc 1 288 0
 435 0004 08B5     		push	{r3, lr}
 436              		.cfi_def_cfa_offset 8
 437              		.cfi_offset 3, -8
 438              		.cfi_offset 14, -4
 439              		.loc 1 289 0
 440 0006 02D5     		bpl	.L53
 441              		.loc 1 292 0
 442 0008 426A     		ldr	r2, [r0, #36]
 443 000a 816A     		ldr	r1, [r0, #40]
 444 000c 9047     		blx	r2
 445              	.LVL30:
 446              	.L53:
 447 000e 08BD     		pop	{r3, pc}
 448              		.cfi_endproc
 449              	.LFE116:
 450              		.size	_gwidgetRedraw, .-_gwidgetRedraw
 451              		.section	.text._gwidgetUpdate,"ax",%progbits
ARM GAS  /tmp/cckBSJma.s 			page 9


 452              		.align	2
 453              		.p2align 4,,15
 454              		.global	_gwidgetUpdate
 455              		.thumb
 456              		.thumb_func
 457              		.type	_gwidgetUpdate, %function
 458              	_gwidgetUpdate:
 459              	.LFB117:
 460              		.loc 1 295 0
 461              		.cfi_startproc
 462              		@ args = 0, pretend = 0, frame = 0
 463              		@ frame_needed = 0, uses_anonymous_args = 0
 464              		@ link register save eliminated.
 465              	.LVL31:
 466              		.loc 1 296 0
 467 0000 8369     		ldr	r3, [r0, #24]
 468 0002 9B05     		lsls	r3, r3, #22
 469 0004 00D4     		bmi	.L60
 470 0006 7047     		bx	lr
 471              	.L60:
 472 0008 FFF7FEBF 		b	_gwidgetUpdate.part.1
 473              	.LVL32:
 474              		.cfi_endproc
 475              	.LFE117:
 476              		.size	_gwidgetUpdate, .-_gwidgetUpdate
 477 000c AFF30080 		.section	.text.gwinWidgetClearInit,"ax",%progbits
 478              		.align	2
 479              		.p2align 4,,15
 480              		.global	gwinWidgetClearInit
 481              		.thumb
 482              		.thumb_func
 483              		.type	gwinWidgetClearInit, %function
 484              	gwinWidgetClearInit:
 485              	.LFB118:
 486              		.loc 1 305 0
 487              		.cfi_startproc
 488              		@ args = 0, pretend = 0, frame = 0
 489              		@ frame_needed = 0, uses_anonymous_args = 0
 490              		@ link register save eliminated.
 491              	.LVL33:
 492 0000 00F11C02 		add	r2, r0, #28
 493              		.loc 1 310 0
 494 0004 0023     		movs	r3, #0
 495              	.LVL34:
 496              	.L63:
 497              		.loc 1 310 0 is_stmt 0 discriminator 2
 498 0006 00F8013B 		strb	r3, [r0], #1
 499              	.LVL35:
 500              		.loc 1 309 0 is_stmt 1 discriminator 2
 501 000a 9042     		cmp	r0, r2
 502 000c FBD1     		bne	.L63
 503              		.loc 1 311 0
 504 000e 7047     		bx	lr
 505              		.cfi_endproc
 506              	.LFE118:
 507              		.size	gwinWidgetClearInit, .-gwinWidgetClearInit
 508              		.section	.text.gwinGetDefaultStyle,"ax",%progbits
ARM GAS  /tmp/cckBSJma.s 			page 10


 509              		.align	2
 510              		.p2align 4,,15
 511              		.global	gwinGetDefaultStyle
 512              		.thumb
 513              		.thumb_func
 514              		.type	gwinGetDefaultStyle, %function
 515              	gwinGetDefaultStyle:
 516              	.LFB120:
 517              		.loc 1 336 0
 518              		.cfi_startproc
 519              		@ args = 0, pretend = 0, frame = 0
 520              		@ frame_needed = 0, uses_anonymous_args = 0
 521              		@ link register save eliminated.
 522              		.loc 1 337 0
 523 0000 014B     		ldr	r3, .L66
 524              		.loc 1 338 0
 525 0002 1868     		ldr	r0, [r3]
 526 0004 7047     		bx	lr
 527              	.L67:
 528 0006 00BF     		.align	2
 529              	.L66:
 530 0008 00000000 		.word	.LANCHOR0
 531              		.cfi_endproc
 532              	.LFE120:
 533              		.size	gwinGetDefaultStyle, .-gwinGetDefaultStyle
 534 000c AFF30080 		.section	.text.gwinSetText,"ax",%progbits
 535              		.align	2
 536              		.p2align 4,,15
 537              		.global	gwinSetText
 538              		.thumb
 539              		.thumb_func
 540              		.type	gwinSetText, %function
 541              	gwinSetText:
 542              	.LFB121:
 543              		.loc 1 341 0
 544              		.cfi_startproc
 545              		@ args = 0, pretend = 0, frame = 0
 546              		@ frame_needed = 0, uses_anonymous_args = 0
 547              	.LVL36:
 548              		.loc 1 342 0
 549 0000 8369     		ldr	r3, [r0, #24]
 550              		.loc 1 341 0
 551 0002 70B5     		push	{r4, r5, r6, lr}
 552              		.cfi_def_cfa_offset 16
 553              		.cfi_offset 4, -16
 554              		.cfi_offset 5, -12
 555              		.cfi_offset 6, -8
 556              		.cfi_offset 14, -4
 557              		.loc 1 341 0
 558 0004 0D46     		mov	r5, r1
 559              		.loc 1 342 0
 560 0006 D903     		lsls	r1, r3, #15
 561              	.LVL37:
 562              		.loc 1 341 0
 563 0008 0446     		mov	r4, r0
 564 000a 1646     		mov	r6, r2
 565              		.loc 1 342 0
ARM GAS  /tmp/cckBSJma.s 			page 11


 566 000c 17D5     		bpl	.L68
 567              		.loc 1 346 0
 568 000e 9A04     		lsls	r2, r3, #18
 569              	.LVL38:
 570 0010 08D5     		bpl	.L72
 571              		.loc 1 348 0
 572 0012 006A     		ldr	r0, [r0, #32]
 573              	.LVL39:
 574              		.loc 1 347 0
 575 0014 23F40053 		bic	r3, r3, #8192
 576 0018 A361     		str	r3, [r4, #24]
 577              		.loc 1 348 0
 578 001a 18B1     		cbz	r0, .L72
 579              		.loc 1 349 0
 580 001c FFF7FEFF 		bl	chHeapFree
 581              	.LVL40:
 582              		.loc 1 350 0
 583 0020 124B     		ldr	r3, .L93
 584 0022 2362     		str	r3, [r4, #32]
 585              	.L72:
 586              		.loc 1 355 0
 587 0024 0DB1     		cbz	r5, .L74
 588              		.loc 1 355 0 is_stmt 0 discriminator 1
 589 0026 2B78     		ldrb	r3, [r5]	@ zero_extendqisi2
 590 0028 53B9     		cbnz	r3, .L75
 591              	.L74:
 592              		.loc 1 356 0 is_stmt 1
 593 002a 104B     		ldr	r3, .L93
 594 002c 2362     		str	r3, [r4, #32]
 595              	.L76:
 596              	.LVL41:
 597              	.LBB13:
 598              	.LBB14:
 599              		.loc 1 296 0
 600 002e A369     		ldr	r3, [r4, #24]
 601 0030 9B05     		lsls	r3, r3, #22
 602 0032 04D5     		bpl	.L68
 603 0034 2046     		mov	r0, r4
 604              	.LBE14:
 605              	.LBE13:
 606              		.loc 1 368 0
 607 0036 BDE87040 		pop	{r4, r5, r6, lr}
 608              	.LVL42:
 609              	.LBB16:
 610              	.LBB15:
 611 003a FFF7FEBF 		b	_gwidgetUpdate.part.1
 612              	.LVL43:
 613              	.L68:
 614 003e 70BD     		pop	{r4, r5, r6, pc}
 615              	.LVL44:
 616              	.L75:
 617              	.LBE15:
 618              	.LBE16:
 619              		.loc 1 357 0
 620 0040 0EB9     		cbnz	r6, .L92
 621              		.loc 1 366 0
 622 0042 2562     		str	r5, [r4, #32]
ARM GAS  /tmp/cckBSJma.s 			page 12


 623 0044 F3E7     		b	.L76
 624              	.L92:
 625              	.LBB17:
 626              		.loc 1 360 0
 627 0046 2846     		mov	r0, r5
 628 0048 FFF7FEFF 		bl	strlen
 629              	.LVL45:
 630 004c 411C     		adds	r1, r0, #1
 631 004e 0020     		movs	r0, #0
 632 0050 FFF7FEFF 		bl	chHeapAlloc
 633              	.LVL46:
 634 0054 0646     		mov	r6, r0
 635 0056 30B1     		cbz	r0, .L78
 636              		.loc 1 361 0
 637 0058 A369     		ldr	r3, [r4, #24]
 638 005a 43F40053 		orr	r3, r3, #8192
 639              		.loc 1 362 0
 640 005e 2946     		mov	r1, r5
 641              		.loc 1 361 0
 642 0060 A361     		str	r3, [r4, #24]
 643              		.loc 1 362 0
 644 0062 FFF7FEFF 		bl	strcpy
 645              	.LVL47:
 646              	.L78:
 647              		.loc 1 364 0
 648 0066 2662     		str	r6, [r4, #32]
 649              	.LBE17:
 650 0068 E1E7     		b	.L76
 651              	.L94:
 652 006a 00BF     		.align	2
 653              	.L93:
 654 006c 00000000 		.word	.LC0
 655              		.cfi_endproc
 656              	.LFE121:
 657              		.size	gwinSetText, .-gwinSetText
 658              		.section	.text.gwinGetText,"ax",%progbits
 659              		.align	2
 660              		.p2align 4,,15
 661              		.global	gwinGetText
 662              		.thumb
 663              		.thumb_func
 664              		.type	gwinGetText, %function
 665              	gwinGetText:
 666              	.LFB122:
 667              		.loc 1 370 0
 668              		.cfi_startproc
 669              		@ args = 0, pretend = 0, frame = 0
 670              		@ frame_needed = 0, uses_anonymous_args = 0
 671              		@ link register save eliminated.
 672              	.LVL48:
 673              		.loc 1 371 0
 674 0000 8369     		ldr	r3, [r0, #24]
 675 0002 13F48033 		ands	r3, r3, #65536
 676              		.loc 1 374 0
 677 0006 14BF     		ite	ne
 678 0008 006A     		ldrne	r0, [r0, #32]
 679              	.LVL49:
ARM GAS  /tmp/cckBSJma.s 			page 13


 680              		.loc 1 372 0
 681 000a 1846     		moveq	r0, r3
 682              		.loc 1 375 0
 683 000c 7047     		bx	lr
 684              		.cfi_endproc
 685              	.LFE122:
 686              		.size	gwinGetText, .-gwinGetText
 687 000e 00BF     		.section	.text.gwinSetStyle,"ax",%progbits
 688              		.align	2
 689              		.p2align 4,,15
 690              		.global	gwinSetStyle
 691              		.thumb
 692              		.thumb_func
 693              		.type	gwinSetStyle, %function
 694              	gwinSetStyle:
 695              	.LFB123:
 696              		.loc 1 377 0
 697              		.cfi_startproc
 698              		@ args = 0, pretend = 0, frame = 0
 699              		@ frame_needed = 0, uses_anonymous_args = 0
 700              		@ link register save eliminated.
 701              	.LVL50:
 702              		.loc 1 378 0
 703 0000 8369     		ldr	r3, [r0, #24]
 704 0002 DA03     		lsls	r2, r3, #15
 705              		.loc 1 377 0
 706 0004 30B4     		push	{r4, r5}
 707              		.cfi_def_cfa_offset 8
 708              		.cfi_offset 4, -8
 709              		.cfi_offset 5, -4
 710              		.loc 1 378 0
 711 0006 08D5     		bpl	.L98
 712              		.loc 1 380 0
 713 0008 61B1     		cbz	r1, .L107
 714 000a 0D46     		mov	r5, r1
 715              	.L101:
 716              		.loc 1 381 0 discriminator 3
 717 000c 0C88     		ldrh	r4, [r1]
 718              		.loc 1 382 0 discriminator 3
 719 000e 4A88     		ldrh	r2, [r1, #2]
 720 0010 8282     		strh	r2, [r0, #20]	@ movhi
 721              	.LVL51:
 722              	.LBB18:
 723              	.LBB19:
 724              		.loc 1 296 0 discriminator 3
 725 0012 9B05     		lsls	r3, r3, #22
 726              	.LBE19:
 727              	.LBE18:
 728              		.loc 1 380 0 discriminator 3
 729 0014 C562     		str	r5, [r0, #44]
 730              		.loc 1 381 0 discriminator 3
 731 0016 C482     		strh	r4, [r0, #22]	@ movhi
 732              	.LBB22:
 733              	.LBB20:
 734              		.loc 1 296 0 discriminator 3
 735 0018 01D4     		bmi	.L108
 736              	.LVL52:
ARM GAS  /tmp/cckBSJma.s 			page 14


 737              	.L98:
 738              	.LBE20:
 739              	.LBE22:
 740              		.loc 1 384 0
 741 001a 30BC     		pop	{r4, r5}
 742 001c 7047     		bx	lr
 743              	.LVL53:
 744              	.L108:
 745 001e 30BC     		pop	{r4, r5}
 746              	.LBB23:
 747              	.LBB21:
 748 0020 FFF7FEBF 		b	_gwidgetUpdate.part.1
 749              	.LVL54:
 750              	.L107:
 751              	.LBE21:
 752              	.LBE23:
 753              		.loc 1 380 0 discriminator 2
 754 0024 014A     		ldr	r2, .L109
 755 0026 1568     		ldr	r5, [r2]
 756 0028 F0E7     		b	.L101
 757              	.L110:
 758 002a 00BF     		.align	2
 759              	.L109:
 760 002c 00000000 		.word	.LANCHOR0
 761              		.cfi_endproc
 762              	.LFE123:
 763              		.size	gwinSetStyle, .-gwinSetStyle
 764              		.section	.text.gwinSetDefaultStyle,"ax",%progbits
 765              		.align	2
 766              		.p2align 4,,15
 767              		.global	gwinSetDefaultStyle
 768              		.thumb
 769              		.thumb_func
 770              		.type	gwinSetDefaultStyle, %function
 771              	gwinSetDefaultStyle:
 772              	.LFB119:
 773              		.loc 1 313 0
 774              		.cfi_startproc
 775              		@ args = 0, pretend = 0, frame = 0
 776              		@ frame_needed = 0, uses_anonymous_args = 0
 777              	.LVL55:
 778 0000 70B5     		push	{r4, r5, r6, lr}
 779              		.cfi_def_cfa_offset 16
 780              		.cfi_offset 4, -16
 781              		.cfi_offset 5, -12
 782              		.cfi_offset 6, -8
 783              		.cfi_offset 14, -4
 784              		.loc 1 315 0
 785 0002 144E     		ldr	r6, .L130
 786 0004 0028     		cmp	r0, #0
 787 0006 18BF     		it	ne
 788 0008 0646     		movne	r6, r0
 789              	.LVL56:
 790              		.loc 1 317 0
 791 000a 29B9     		cbnz	r1, .L113
 792              	.LVL57:
 793              	.L129:
ARM GAS  /tmp/cckBSJma.s 			page 15


 794 000c 124D     		ldr	r5, .L130+4
 795              	.L114:
 796              		.loc 1 327 0
 797 000e 3088     		ldrh	r0, [r6]
 798 0010 FFF7FEFF 		bl	gwinSetDefaultBgColor
 799              	.LVL58:
 800              		.loc 1 328 0
 801 0014 2E60     		str	r6, [r5]
 802 0016 70BD     		pop	{r4, r5, r6, pc}
 803              	.LVL59:
 804              	.L113:
 805              	.LBB24:
 806              		.loc 1 320 0
 807 0018 0020     		movs	r0, #0
 808 001a FFF7FEFF 		bl	gwinGetNextWindow
 809              	.LVL60:
 810 001e 0446     		mov	r4, r0
 811 0020 0028     		cmp	r0, #0
 812 0022 F3D0     		beq	.L129
 813 0024 0C4D     		ldr	r5, .L130+4
 814 0026 07E0     		b	.L117
 815              	.L115:
 816              		.loc 1 324 0
 817 0028 FFF7FEFF 		bl	gwinRedraw
 818              	.LVL61:
 819              	.L116:
 820              		.loc 1 320 0
 821 002c 2046     		mov	r0, r4
 822 002e FFF7FEFF 		bl	gwinGetNextWindow
 823              	.LVL62:
 824 0032 0446     		mov	r4, r0
 825 0034 0028     		cmp	r0, #0
 826 0036 EAD0     		beq	.L114
 827              	.L117:
 828              		.loc 1 321 0
 829 0038 A369     		ldr	r3, [r4, #24]
 830 003a 13F4803F 		tst	r3, #65536
 831              		.loc 1 324 0
 832 003e 2046     		mov	r0, r4
 833              		.loc 1 321 0
 834 0040 F2D0     		beq	.L115
 835              		.loc 1 321 0 is_stmt 0 discriminator 1
 836 0042 E26A     		ldr	r2, [r4, #44]
 837 0044 2B68     		ldr	r3, [r5]
 838 0046 9A42     		cmp	r2, r3
 839 0048 EED1     		bne	.L115
 840              		.loc 1 322 0 is_stmt 1
 841 004a 3146     		mov	r1, r6
 842 004c FFF7FEFF 		bl	gwinSetStyle
 843              	.LVL63:
 844 0050 ECE7     		b	.L116
 845              	.L131:
 846 0052 00BF     		.align	2
 847              	.L130:
 848 0054 00000000 		.word	.LANCHOR2
 849 0058 00000000 		.word	.LANCHOR0
 850              	.LBE24:
ARM GAS  /tmp/cckBSJma.s 			page 16


 851              		.cfi_endproc
 852              	.LFE119:
 853              		.size	gwinSetDefaultStyle, .-gwinSetDefaultStyle
 854 005c AFF30080 		.section	.text.gwinGetStyle,"ax",%progbits
 855              		.align	2
 856              		.p2align 4,,15
 857              		.global	gwinGetStyle
 858              		.thumb
 859              		.thumb_func
 860              		.type	gwinGetStyle, %function
 861              	gwinGetStyle:
 862              	.LFB124:
 863              		.loc 1 386 0
 864              		.cfi_startproc
 865              		@ args = 0, pretend = 0, frame = 0
 866              		@ frame_needed = 0, uses_anonymous_args = 0
 867              		@ link register save eliminated.
 868              	.LVL64:
 869              		.loc 1 387 0
 870 0000 8369     		ldr	r3, [r0, #24]
 871 0002 13F48033 		ands	r3, r3, #65536
 872              		.loc 1 390 0
 873 0006 14BF     		ite	ne
 874 0008 C06A     		ldrne	r0, [r0, #44]
 875              	.LVL65:
 876              		.loc 1 388 0
 877 000a 1846     		moveq	r0, r3
 878              		.loc 1 391 0
 879 000c 7047     		bx	lr
 880              		.cfi_endproc
 881              	.LFE124:
 882              		.size	gwinGetStyle, .-gwinGetStyle
 883 000e 00BF     		.section	.text.gwinSetCustomDraw,"ax",%progbits
 884              		.align	2
 885              		.p2align 4,,15
 886              		.global	gwinSetCustomDraw
 887              		.thumb
 888              		.thumb_func
 889              		.type	gwinSetCustomDraw, %function
 890              	gwinSetCustomDraw:
 891              	.LFB125:
 892              		.loc 1 393 0
 893              		.cfi_startproc
 894              		@ args = 0, pretend = 0, frame = 0
 895              		@ frame_needed = 0, uses_anonymous_args = 0
 896              		@ link register save eliminated.
 897              	.LVL66:
 898              		.loc 1 394 0
 899 0000 8369     		ldr	r3, [r0, #24]
 900 0002 13F4803F 		tst	r3, #65536
 901 0006 04D0     		beq	.L135
 902              		.loc 1 397 0
 903 0008 31B1     		cbz	r1, .L144
 904              	.LVL67:
 905              	.L138:
 906              	.LBB25:
 907              	.LBB26:
ARM GAS  /tmp/cckBSJma.s 			page 17


 908              		.loc 1 296 0 discriminator 3
 909 000a 9B05     		lsls	r3, r3, #22
 910              	.LBE26:
 911              	.LBE25:
 912              		.loc 1 397 0 discriminator 3
 913 000c 4162     		str	r1, [r0, #36]
 914              		.loc 1 398 0 discriminator 3
 915 000e 8262     		str	r2, [r0, #40]
 916              	.LVL68:
 917              	.LBB28:
 918              	.LBB27:
 919              		.loc 1 296 0 discriminator 3
 920 0010 00D4     		bmi	.L145
 921              	.LVL69:
 922              	.L135:
 923 0012 7047     		bx	lr
 924              	.LVL70:
 925              	.L145:
 926 0014 FFF7FEBF 		b	_gwidgetUpdate.part.1
 927              	.LVL71:
 928              	.L144:
 929              	.LBE27:
 930              	.LBE28:
 931              		.loc 1 397 0 discriminator 1
 932 0018 4168     		ldr	r1, [r0, #4]
 933              	.LVL72:
 934 001a 4969     		ldr	r1, [r1, #20]
 935 001c F5E7     		b	.L138
 936              		.cfi_endproc
 937              	.LFE125:
 938              		.size	gwinSetCustomDraw, .-gwinSetCustomDraw
 939 001e 00BF     		.section	.text.gwinAttachListener,"ax",%progbits
 940              		.align	2
 941              		.p2align 4,,15
 942              		.global	gwinAttachListener
 943              		.thumb
 944              		.thumb_func
 945              		.type	gwinAttachListener, %function
 946              	gwinAttachListener:
 947              	.LFB126:
 948              		.loc 1 402 0
 949              		.cfi_startproc
 950              		@ args = 0, pretend = 0, frame = 0
 951              		@ frame_needed = 0, uses_anonymous_args = 0
 952              		@ link register save eliminated.
 953              	.LVL73:
 954              		.loc 1 403 0
 955 0000 0149     		ldr	r1, .L147
 956 0002 0022     		movs	r2, #0
 957 0004 FFF7FEBF 		b	geventAttachSource
 958              	.LVL74:
 959              	.L148:
 960              		.align	2
 961              	.L147:
 962 0008 00000000 		.word	_gwidgetCreate
 963              		.cfi_endproc
 964              	.LFE126:
ARM GAS  /tmp/cckBSJma.s 			page 18


 965              		.size	gwinAttachListener, .-gwinAttachListener
 966 000c AFF30080 		.section	.text.gwinAttachMouse,"ax",%progbits
 967              		.align	2
 968              		.p2align 4,,15
 969              		.global	gwinAttachMouse
 970              		.thumb
 971              		.thumb_func
 972              		.type	gwinAttachMouse, %function
 973              	gwinAttachMouse:
 974              	.LFB127:
 975              		.loc 1 407 0
 976              		.cfi_startproc
 977              		@ args = 0, pretend = 0, frame = 0
 978              		@ frame_needed = 0, uses_anonymous_args = 0
 979              	.LVL75:
 980 0000 08B5     		push	{r3, lr}
 981              		.cfi_def_cfa_offset 8
 982              		.cfi_offset 3, -8
 983              		.cfi_offset 14, -4
 984              		.loc 1 410 0
 985 0002 FFF7FEFF 		bl	ginputGetMouse
 986              	.LVL76:
 987 0006 0146     		mov	r1, r0
 988 0008 28B1     		cbz	r0, .L150
 989              		.loc 1 413 0
 990 000a 0348     		ldr	r0, .L151
 991              	.LVL77:
 992 000c 0322     		movs	r2, #3
 993              		.loc 1 414 0
 994 000e BDE80840 		pop	{r3, lr}
 995              		.loc 1 413 0
 996 0012 FFF7FEBF 		b	geventAttachSource
 997              	.LVL78:
 998              	.L150:
 999              		.loc 1 414 0
 1000 0016 08BD     		pop	{r3, pc}
 1001              	.L152:
 1002              		.align	2
 1003              	.L151:
 1004 0018 00000000 		.word	.LANCHOR1
 1005              		.cfi_endproc
 1006              	.LFE127:
 1007              		.size	gwinAttachMouse, .-gwinAttachMouse
 1008              		.global	BlackWidgetStyle
 1009              		.global	WhiteWidgetStyle
 1010 001c AFF30080 		.section	.bss.gl,"aw",%nobits
 1011              		.align	2
 1012              		.set	.LANCHOR1,. + 0
 1013              		.type	gl, %object
 1014              		.size	gl, 72
 1015              	gl:
 1016 0000 00000000 		.space	72
 1016      00000000 
 1016      00000000 
 1016      00000000 
 1016      00000000 
 1017              		.section	.data.defaultStyle,"aw",%progbits
ARM GAS  /tmp/cckBSJma.s 			page 19


 1018              		.align	2
 1019              		.set	.LANCHOR0,. + 0
 1020              		.type	defaultStyle, %object
 1021              		.size	defaultStyle, 4
 1022              	defaultStyle:
 1023 0000 00000000 		.word	BlackWidgetStyle
 1024              		.section	.rodata.BlackWidgetStyle,"a",%progbits
 1025              		.align	2
 1026              		.set	.LANCHOR2,. + 0
 1027              		.type	BlackWidgetStyle, %object
 1028              		.size	BlackWidgetStyle, 26
 1029              	BlackWidgetStyle:
 1030 0000 0000     		.short	0
 1031 0002 18C6     		.short	-14824
 1032 0004 18C6     		.short	-14824
 1033 0006 0C63     		.short	25356
 1034 0008 0842     		.short	16904
 1035 000a 1084     		.short	-31728
 1036 000c 0842     		.short	16904
 1037 000e 0842     		.short	16904
 1038 0010 0002     		.short	512
 1039 0012 FFFF     		.short	-1
 1040 0014 18C6     		.short	-14824
 1041 0016 1CE7     		.short	-6372
 1042 0018 0004     		.short	1024
 1043 001a 0000     		.section	.rodata.WhiteWidgetStyle,"a",%progbits
 1044              		.align	2
 1045              		.type	WhiteWidgetStyle, %object
 1046              		.size	WhiteWidgetStyle, 26
 1047              	WhiteWidgetStyle:
 1048 0000 FFFF     		.short	-1
 1049 0002 0000     		.short	0
 1050 0004 0842     		.short	16904
 1051 0006 1CE7     		.short	-6372
 1052 0008 1CE7     		.short	-6372
 1053 000a 18C6     		.short	-14824
 1054 000c 1084     		.short	-31728
 1055 000e 1CE7     		.short	-6372
 1056 0010 18C7     		.short	-14568
 1057 0012 0842     		.short	16904
 1058 0014 0842     		.short	16904
 1059 0016 1084     		.short	-31728
 1060 0018 0007     		.short	1792
 1061 001a 0000     		.section	.rodata.str1.4,"aMS",%progbits,1
 1062              		.align	2
 1063              	.LC0:
 1064 0000 00       		.ascii	"\000"
 1065 0001 000000   		.text
 1066              	.Letext0:
 1067              		.file 2 "/opt/ARM/lib/gcc/arm-none-eabi/4.8.4/include/stddef.h"
 1068              		.file 3 "/opt/ARM/arm-none-eabi/include/machine/_default_types.h"
 1069              		.file 4 "/opt/ARM/arm-none-eabi/include/stdint.h"
 1070              		.file 5 "../../os/ports/GCC/ARMCMx/chtypes.h"
 1071              		.file 6 "../../os/kernel/include/chlists.h"
 1072              		.file 7 "../../os/kernel/include/chthreads.h"
 1073              		.file 8 "../../os/ports/GCC/ARMCMx/chcore_v7m.h"
 1074              		.file 9 "../../os/kernel/include/chsem.h"
ARM GAS  /tmp/cckBSJma.s 			page 20


 1075              		.file 10 "../../os/kernel/include/chmtx.h"
 1076              		.file 11 "../../os/kernel/include/chmemcore.h"
 1077              		.file 12 "../../os/kernel/include/chheap.h"
 1078              		.file 13 "/home/makkmarci/devel/ugfx/src/gos/chibios.h"
 1079              		.file 14 "/home/makkmarci/devel/ugfx/src/gqueue/sys_defs.h"
 1080              		.file 15 "/home/makkmarci/devel/ugfx/src/gevent/sys_defs.h"
 1081              		.file 16 "/home/makkmarci/devel/ugfx/src/gdisp/sys_defs.h"
 1082              		.file 17 "/home/makkmarci/devel/ugfx/src/gdisp/colors.h"
 1083              		.file 18 "/home/makkmarci/devel/ugfx/src/gwin/sys_defs.h"
 1084              		.file 19 "/home/makkmarci/devel/ugfx/src/gwin/class_gwin.h"
 1085              		.file 20 "/home/makkmarci/devel/ugfx/src/gwin/gwidget.h"
 1086              		.file 21 "/home/makkmarci/devel/ugfx/src/ginput/mouse.h"
 1087              		.file 22 "../../os/ports/common/ARMCMx/CMSIS/include/core_cm4.h"
 1088              		.file 23 "/opt/ARM/arm-none-eabi/include/string.h"