ARM GAS  /tmp/cc4PPDfd.s 			page 1


   1              		.syntax unified
   2              		.cpu cortex-m4
   3              		.eabi_attribute 27, 1
   4              		.eabi_attribute 28, 1
   5              		.fpu fpv4-sp-d16
   6              		.eabi_attribute 20, 1
   7              		.eabi_attribute 21, 1
   8              		.eabi_attribute 23, 3
   9              		.eabi_attribute 24, 1
  10              		.eabi_attribute 25, 1
  11              		.eabi_attribute 26, 1
  12              		.eabi_attribute 30, 6
  13              		.eabi_attribute 34, 1
  14              		.eabi_attribute 18, 4
  15              		.thumb
  16              		.file	"gwin_console.c"
  17              		.text
  18              	.Ltext0:
  19              		.cfi_sections	.debug_frame
  20              		.section	.text.AfterClear,"ax",%progbits
  21              		.align	2
  22              		.p2align 4,,15
  23              		.thumb
  24              		.thumb_func
  25              		.type	AfterClear, %function
  26              	AfterClear:
  27              	.LFB111:
  28              		.file 1 "/home/makkmarci/workspace/ugfx/src/gwin/gwin_console.c"
  29              		.loc 1 297 0
  30              		.cfi_startproc
  31              		@ args = 0, pretend = 0, frame = 8
  32              		@ frame_needed = 0, uses_anonymous_args = 0
  33              		@ link register save eliminated.
  34 0000 82B0     		sub	sp, sp, #8
  35              		.cfi_def_cfa_offset 8
  36 0002 0190     		str	r0, [sp, #4]
  37              		.loc 1 299 0
  38 0004 019B     		ldr	r3, [sp, #4]
  39 0006 0022     		movs	r2, #0
  40 0008 1A84     		strh	r2, [r3, #32]	@ movhi
  41              		.loc 1 300 0
  42 000a 019B     		ldr	r3, [sp, #4]
  43 000c 0022     		movs	r2, #0
  44 000e 5A84     		strh	r2, [r3, #34]	@ movhi
  45              		.loc 1 306 0
  46 0010 02B0     		add	sp, sp, #8
  47              		.cfi_def_cfa_offset 0
  48              		@ sp needed
  49 0012 7047     		bx	lr
  50              		.cfi_endproc
  51              	.LFE111:
  52              		.size	AfterClear, .-AfterClear
  53 0014 AFF30080 		.section	.rodata
  53      AFF30080 
  53      AFF30080 
  54              		.align	2
  55              	.LC0:
ARM GAS  /tmp/cc4PPDfd.s 			page 2


  56 0000 436F6E73 		.ascii	"Console\000"
  56      6F6C6500 
  57              		.section	.rodata.consoleVMT,"a",%progbits
  58              		.align	2
  59              		.type	consoleVMT, %object
  60              		.size	consoleVMT, 20
  61              	consoleVMT:
  62 0000 00000000 		.word	.LC0
  63 0004 24000000 		.word	36
  64 0008 00000000 		.word	0
  65 000c 00000000 		.word	0
  66 0010 00000000 		.word	AfterClear
  67              		.section	.text.gwinGConsoleCreate,"ax",%progbits
  68              		.align	2
  69              		.p2align 4,,15
  70              		.global	gwinGConsoleCreate
  71              		.thumb
  72              		.thumb_func
  73              		.type	gwinGConsoleCreate, %function
  74              	gwinGConsoleCreate:
  75              	.LFB112:
  76              		.loc 1 321 0
  77              		.cfi_startproc
  78              		@ args = 0, pretend = 0, frame = 16
  79              		@ frame_needed = 0, uses_anonymous_args = 0
  80 0000 00B5     		push	{lr}
  81              		.cfi_def_cfa_offset 4
  82              		.cfi_offset 14, -4
  83 0002 87B0     		sub	sp, sp, #28
  84              		.cfi_def_cfa_offset 32
  85 0004 0590     		str	r0, [sp, #20]
  86 0006 0491     		str	r1, [sp, #16]
  87 0008 0392     		str	r2, [sp, #12]
  88              		.loc 1 322 0
  89 000a 049A     		ldr	r2, [sp, #16]
  90 000c 0023     		movs	r3, #0
  91 000e 0093     		str	r3, [sp]
  92 0010 0598     		ldr	r0, [sp, #20]
  93 0012 1146     		mov	r1, r2
  94 0014 039A     		ldr	r2, [sp, #12]
  95 0016 0D4B     		ldr	r3, .L5
  96 0018 FFF7FEFF 		bl	_gwindowCreate
  97 001c 0490     		str	r0, [sp, #16]
  98 001e 049B     		ldr	r3, [sp, #16]
  99 0020 002B     		cmp	r3, #0
 100 0022 01D1     		bne	.L3
 101              		.loc 1 323 0
 102 0024 0023     		movs	r3, #0
 103 0026 0CE0     		b	.L4
 104              	.L3:
 105              		.loc 1 336 0
 106 0028 049B     		ldr	r3, [sp, #16]
 107 002a 0022     		movs	r2, #0
 108 002c 1A84     		strh	r2, [r3, #32]	@ movhi
 109              		.loc 1 337 0
 110 002e 049B     		ldr	r3, [sp, #16]
 111 0030 0022     		movs	r2, #0
ARM GAS  /tmp/cc4PPDfd.s 			page 3


 112 0032 5A84     		strh	r2, [r3, #34]	@ movhi
 113              		.loc 1 344 0
 114 0034 039B     		ldr	r3, [sp, #12]
 115 0036 1B7A     		ldrb	r3, [r3, #8]	@ zero_extendqisi2
 116 0038 0498     		ldr	r0, [sp, #16]
 117 003a 1946     		mov	r1, r3
 118 003c FFF7FEFF 		bl	gwinSetVisible
 119              		.loc 1 346 0
 120 0040 049B     		ldr	r3, [sp, #16]
 121              	.L4:
 122              		.loc 1 347 0
 123 0042 1846     		mov	r0, r3
 124 0044 07B0     		add	sp, sp, #28
 125              		.cfi_def_cfa_offset 4
 126              		@ sp needed
 127 0046 5DF804FB 		ldr	pc, [sp], #4
 128              	.L6:
 129 004a 00BF     		.align	2
 130              	.L5:
 131 004c 00000000 		.word	consoleVMT
 132              		.cfi_endproc
 133              	.LFE112:
 134              		.size	gwinGConsoleCreate, .-gwinGConsoleCreate
 135              		.section	.text.gwinPutChar,"ax",%progbits
 136              		.align	2
 137              		.p2align 4,,15
 138              		.global	gwinPutChar
 139              		.thumb
 140              		.thumb_func
 141              		.type	gwinPutChar, %function
 142              	gwinPutChar:
 143              	.LFB113:
 144              		.loc 1 414 0
 145              		.cfi_startproc
 146              		@ args = 0, pretend = 0, frame = 16
 147              		@ frame_needed = 0, uses_anonymous_args = 0
 148 0000 30B5     		push	{r4, r5, lr}
 149              		.cfi_def_cfa_offset 12
 150              		.cfi_offset 4, -12
 151              		.cfi_offset 5, -8
 152              		.cfi_offset 14, -4
 153 0002 87B0     		sub	sp, sp, #28
 154              		.cfi_def_cfa_offset 40
 155 0004 0390     		str	r0, [sp, #12]
 156 0006 0B46     		mov	r3, r1
 157 0008 8DF80B30 		strb	r3, [sp, #11]
 158              		.loc 1 418 0
 159 000c 039B     		ldr	r3, [sp, #12]
 160 000e 5B68     		ldr	r3, [r3, #4]
 161 0010 3C4A     		ldr	r2, .L26
 162 0012 9342     		cmp	r3, r2
 163 0014 03D1     		bne	.L8
 164              		.loc 1 418 0 is_stmt 0 discriminator 1
 165 0016 039B     		ldr	r3, [sp, #12]
 166 0018 DB69     		ldr	r3, [r3, #28]
 167 001a 002B     		cmp	r3, #0
 168 001c 00D1     		bne	.L9
ARM GAS  /tmp/cc4PPDfd.s 			page 4


 169              	.L8:
 170              		.loc 1 419 0 is_stmt 1
 171 001e 37E1     		b	.L7
 172              	.L9:
 173              		.loc 1 421 0
 174 0020 039B     		ldr	r3, [sp, #12]
 175 0022 DB69     		ldr	r3, [r3, #28]
 176 0024 1846     		mov	r0, r3
 177 0026 0021     		movs	r1, #0
 178 0028 FFF7FEFF 		bl	gdispGetFontMetric
 179 002c 0346     		mov	r3, r0
 180 002e 8DF81730 		strb	r3, [sp, #23]
 181              		.loc 1 475 0
 182 0032 9DF80B30 		ldrb	r3, [sp, #11]	@ zero_extendqisi2
 183 0036 0A2B     		cmp	r3, #10
 184 0038 03D0     		beq	.L12
 185 003a 0D2B     		cmp	r3, #13
 186 003c 00F02781 		beq	.L25
 187 0040 50E0     		b	.L24
 188              	.L12:
 189              		.loc 1 479 0
 190 0042 039B     		ldr	r3, [sp, #12]
 191 0044 1B8C     		ldrh	r3, [r3, #32]
 192 0046 002B     		cmp	r3, #0
 193 0048 3DD1     		bne	.L14
 194              		.loc 1 479 0 is_stmt 0 discriminator 1
 195 004a 039B     		ldr	r3, [sp, #12]
 196 004c 5B8C     		ldrh	r3, [r3, #34]
 197 004e 1AB2     		sxth	r2, r3
 198 0050 9DF81730 		ldrb	r3, [sp, #23]	@ zero_extendqisi2
 199 0054 1A44     		add	r2, r2, r3
 200 0056 039B     		ldr	r3, [sp, #12]
 201 0058 5B8A     		ldrh	r3, [r3, #18]
 202 005a 1BB2     		sxth	r3, r3
 203 005c 9A42     		cmp	r2, r3
 204 005e 32DA     		bge	.L14
 205              		.loc 1 479 0 discriminator 2
 206 0060 039B     		ldr	r3, [sp, #12]
 207 0062 9B69     		ldr	r3, [r3, #24]
 208 0064 03F00103 		and	r3, r3, #1
 209 0068 002B     		cmp	r3, #0
 210 006a 05D1     		bne	.L15
 211              		.loc 1 479 0 discriminator 3
 212 006c 0398     		ldr	r0, [sp, #12]
 213 006e FFF7FEFF 		bl	_gwinDrawStart
 214 0072 0346     		mov	r3, r0
 215 0074 002B     		cmp	r3, #0
 216 0076 26D0     		beq	.L14
 217              	.L15:
 218              		.loc 1 480 0 is_stmt 1
 219 0078 039B     		ldr	r3, [sp, #12]
 220 007a 9868     		ldr	r0, [r3, #8]
 221 007c 039B     		ldr	r3, [sp, #12]
 222 007e 9989     		ldrh	r1, [r3, #12]
 223 0080 039B     		ldr	r3, [sp, #12]
 224 0082 DB89     		ldrh	r3, [r3, #14]
 225 0084 9AB2     		uxth	r2, r3
ARM GAS  /tmp/cc4PPDfd.s 			page 5


 226 0086 039B     		ldr	r3, [sp, #12]
 227 0088 5B8C     		ldrh	r3, [r3, #34]
 228 008a 9BB2     		uxth	r3, r3
 229 008c 1344     		add	r3, r3, r2
 230 008e 9BB2     		uxth	r3, r3
 231 0090 9DB2     		uxth	r5, r3
 232 0092 039B     		ldr	r3, [sp, #12]
 233 0094 1C8A     		ldrh	r4, [r3, #16]
 234 0096 9DF81730 		ldrb	r3, [sp, #23]	@ zero_extendqisi2
 235 009a 9AB2     		uxth	r2, r3
 236 009c 039B     		ldr	r3, [sp, #12]
 237 009e DB8A     		ldrh	r3, [r3, #22]
 238 00a0 09B2     		sxth	r1, r1
 239 00a2 2DB2     		sxth	r5, r5
 240 00a4 24B2     		sxth	r4, r4
 241 00a6 12B2     		sxth	r2, r2
 242 00a8 0092     		str	r2, [sp]
 243 00aa 0193     		str	r3, [sp, #4]
 244 00ac 2A46     		mov	r2, r5
 245 00ae 2346     		mov	r3, r4
 246 00b0 FFF7FEFF 		bl	gdispGFillArea
 247              		.loc 1 481 0
 248 00b4 039B     		ldr	r3, [sp, #12]
 249 00b6 9B69     		ldr	r3, [r3, #24]
 250 00b8 03F00103 		and	r3, r3, #1
 251 00bc 002B     		cmp	r3, #0
 252 00be 02D1     		bne	.L14
 253              		.loc 1 481 0 is_stmt 0 discriminator 1
 254 00c0 0398     		ldr	r0, [sp, #12]
 255 00c2 FFF7FEFF 		bl	_gwinDrawEnd
 256              	.L14:
 257              		.loc 1 485 0 is_stmt 1
 258 00c6 039B     		ldr	r3, [sp, #12]
 259 00c8 0022     		movs	r2, #0
 260 00ca 1A84     		strh	r2, [r3, #32]	@ movhi
 261              		.loc 1 486 0
 262 00cc 039B     		ldr	r3, [sp, #12]
 263 00ce 5B8C     		ldrh	r3, [r3, #34]
 264 00d0 9AB2     		uxth	r2, r3
 265 00d2 9DF81730 		ldrb	r3, [sp, #23]	@ zero_extendqisi2
 266 00d6 9BB2     		uxth	r3, r3
 267 00d8 1344     		add	r3, r3, r2
 268 00da 9BB2     		uxth	r3, r3
 269 00dc 9AB2     		uxth	r2, r3
 270 00de 039B     		ldr	r3, [sp, #12]
 271 00e0 5A84     		strh	r2, [r3, #34]	@ movhi
 272              		.loc 1 489 0
 273 00e2 D5E0     		b	.L7
 274              	.L24:
 275              		.loc 1 503 0
 276 00e4 039B     		ldr	r3, [sp, #12]
 277 00e6 DB69     		ldr	r3, [r3, #28]
 278 00e8 9DF80B20 		ldrb	r2, [sp, #11]	@ zero_extendqisi2
 279 00ec 1046     		mov	r0, r2
 280 00ee 1946     		mov	r1, r3
 281 00f0 FFF7FEFF 		bl	gdispGetCharWidth
 282 00f4 0346     		mov	r3, r0
ARM GAS  /tmp/cc4PPDfd.s 			page 6


 283 00f6 8DF81630 		strb	r3, [sp, #22]
 284 00fa 9DF81630 		ldrb	r3, [sp, #22]	@ zero_extendqisi2
 285 00fe 002B     		cmp	r3, #0
 286 0100 02D1     		bne	.L16
 287              		.loc 1 504 0 discriminator 3
 288 0102 C5E0     		b	.L7
 289              	.L27:
 290              		.align	2
 291              	.L26:
 292 0104 00000000 		.word	consoleVMT
 293              	.L16:
 294              		.loc 1 513 0
 295 0108 039B     		ldr	r3, [sp, #12]
 296 010a 1B8C     		ldrh	r3, [r3, #32]
 297 010c 1AB2     		sxth	r2, r3
 298 010e 9DF81630 		ldrb	r3, [sp, #22]	@ zero_extendqisi2
 299 0112 1A44     		add	r2, r2, r3
 300 0114 039B     		ldr	r3, [sp, #12]
 301 0116 1B8A     		ldrh	r3, [r3, #16]
 302 0118 1BB2     		sxth	r3, r3
 303 011a 9A42     		cmp	r2, r3
 304 011c 0DDB     		blt	.L17
 305              		.loc 1 514 0
 306 011e 039B     		ldr	r3, [sp, #12]
 307 0120 0022     		movs	r2, #0
 308 0122 1A84     		strh	r2, [r3, #32]	@ movhi
 309              		.loc 1 515 0
 310 0124 039B     		ldr	r3, [sp, #12]
 311 0126 5B8C     		ldrh	r3, [r3, #34]
 312 0128 9AB2     		uxth	r2, r3
 313 012a 9DF81730 		ldrb	r3, [sp, #23]	@ zero_extendqisi2
 314 012e 9BB2     		uxth	r3, r3
 315 0130 1344     		add	r3, r3, r2
 316 0132 9BB2     		uxth	r3, r3
 317 0134 9AB2     		uxth	r2, r3
 318 0136 039B     		ldr	r3, [sp, #12]
 319 0138 5A84     		strh	r2, [r3, #34]	@ movhi
 320              	.L17:
 321              		.loc 1 520 0
 322 013a 039B     		ldr	r3, [sp, #12]
 323 013c 5B8C     		ldrh	r3, [r3, #34]
 324 013e 1AB2     		sxth	r2, r3
 325 0140 9DF81730 		ldrb	r3, [sp, #23]	@ zero_extendqisi2
 326 0144 1A44     		add	r2, r2, r3
 327 0146 039B     		ldr	r3, [sp, #12]
 328 0148 5B8A     		ldrh	r3, [r3, #18]
 329 014a 1BB2     		sxth	r3, r3
 330 014c 9A42     		cmp	r2, r3
 331 014e 30DD     		ble	.L18
 332              		.loc 1 548 0
 333 0150 039B     		ldr	r3, [sp, #12]
 334 0152 9B69     		ldr	r3, [r3, #24]
 335 0154 03F00103 		and	r3, r3, #1
 336 0158 002B     		cmp	r3, #0
 337 015a 05D1     		bne	.L19
 338              		.loc 1 548 0 is_stmt 0 discriminator 1
 339 015c 0398     		ldr	r0, [sp, #12]
ARM GAS  /tmp/cc4PPDfd.s 			page 7


 340 015e FFF7FEFF 		bl	_gwinDrawStart
 341 0162 0346     		mov	r3, r0
 342 0164 002B     		cmp	r3, #0
 343 0166 1ED0     		beq	.L20
 344              	.L19:
 345              		.loc 1 549 0 is_stmt 1
 346 0168 039B     		ldr	r3, [sp, #12]
 347 016a 9868     		ldr	r0, [r3, #8]
 348 016c 039B     		ldr	r3, [sp, #12]
 349 016e 9989     		ldrh	r1, [r3, #12]
 350 0170 039B     		ldr	r3, [sp, #12]
 351 0172 DD89     		ldrh	r5, [r3, #14]
 352 0174 039B     		ldr	r3, [sp, #12]
 353 0176 1C8A     		ldrh	r4, [r3, #16]
 354 0178 039B     		ldr	r3, [sp, #12]
 355 017a 5A8A     		ldrh	r2, [r3, #18]
 356 017c 039B     		ldr	r3, [sp, #12]
 357 017e DB8A     		ldrh	r3, [r3, #22]
 358 0180 09B2     		sxth	r1, r1
 359 0182 2DB2     		sxth	r5, r5
 360 0184 24B2     		sxth	r4, r4
 361 0186 12B2     		sxth	r2, r2
 362 0188 0092     		str	r2, [sp]
 363 018a 0193     		str	r3, [sp, #4]
 364 018c 2A46     		mov	r2, r5
 365 018e 2346     		mov	r3, r4
 366 0190 FFF7FEFF 		bl	gdispGFillArea
 367              		.loc 1 550 0
 368 0194 039B     		ldr	r3, [sp, #12]
 369 0196 9B69     		ldr	r3, [r3, #24]
 370 0198 03F00103 		and	r3, r3, #1
 371 019c 002B     		cmp	r3, #0
 372 019e 02D1     		bne	.L20
 373              		.loc 1 550 0 is_stmt 0 discriminator 1
 374 01a0 0398     		ldr	r0, [sp, #12]
 375 01a2 FFF7FEFF 		bl	_gwinDrawEnd
 376              	.L20:
 377              		.loc 1 552 0 is_stmt 1
 378 01a6 039B     		ldr	r3, [sp, #12]
 379 01a8 0022     		movs	r2, #0
 380 01aa 1A84     		strh	r2, [r3, #32]	@ movhi
 381              		.loc 1 553 0
 382 01ac 039B     		ldr	r3, [sp, #12]
 383 01ae 0022     		movs	r2, #0
 384 01b0 5A84     		strh	r2, [r3, #34]	@ movhi
 385              	.L18:
 386              		.loc 1 565 0
 387 01b2 039B     		ldr	r3, [sp, #12]
 388 01b4 9B69     		ldr	r3, [r3, #24]
 389 01b6 03F00103 		and	r3, r3, #1
 390 01ba 002B     		cmp	r3, #0
 391 01bc 05D1     		bne	.L21
 392              		.loc 1 565 0 is_stmt 0 discriminator 1
 393 01be 0398     		ldr	r0, [sp, #12]
 394 01c0 FFF7FEFF 		bl	_gwinDrawStart
 395 01c4 0346     		mov	r3, r0
 396 01c6 002B     		cmp	r3, #0
ARM GAS  /tmp/cc4PPDfd.s 			page 8


 397 01c8 4DD0     		beq	.L22
 398              	.L21:
 399              		.loc 1 569 0 is_stmt 1
 400 01ca 039B     		ldr	r3, [sp, #12]
 401 01cc 1B8C     		ldrh	r3, [r3, #32]
 402 01ce 002B     		cmp	r3, #0
 403 01d0 1DD1     		bne	.L23
 404              		.loc 1 570 0
 405 01d2 039B     		ldr	r3, [sp, #12]
 406 01d4 9868     		ldr	r0, [r3, #8]
 407 01d6 039B     		ldr	r3, [sp, #12]
 408 01d8 9989     		ldrh	r1, [r3, #12]
 409 01da 039B     		ldr	r3, [sp, #12]
 410 01dc DB89     		ldrh	r3, [r3, #14]
 411 01de 9AB2     		uxth	r2, r3
 412 01e0 039B     		ldr	r3, [sp, #12]
 413 01e2 5B8C     		ldrh	r3, [r3, #34]
 414 01e4 9BB2     		uxth	r3, r3
 415 01e6 1344     		add	r3, r3, r2
 416 01e8 9BB2     		uxth	r3, r3
 417 01ea 9DB2     		uxth	r5, r3
 418 01ec 039B     		ldr	r3, [sp, #12]
 419 01ee 1C8A     		ldrh	r4, [r3, #16]
 420 01f0 9DF81730 		ldrb	r3, [sp, #23]	@ zero_extendqisi2
 421 01f4 9AB2     		uxth	r2, r3
 422 01f6 039B     		ldr	r3, [sp, #12]
 423 01f8 DB8A     		ldrh	r3, [r3, #22]
 424 01fa 09B2     		sxth	r1, r1
 425 01fc 2DB2     		sxth	r5, r5
 426 01fe 24B2     		sxth	r4, r4
 427 0200 12B2     		sxth	r2, r2
 428 0202 0092     		str	r2, [sp]
 429 0204 0193     		str	r3, [sp, #4]
 430 0206 2A46     		mov	r2, r5
 431 0208 2346     		mov	r3, r4
 432 020a FFF7FEFF 		bl	gdispGFillArea
 433              	.L23:
 434              		.loc 1 576 0
 435 020e 039B     		ldr	r3, [sp, #12]
 436 0210 9868     		ldr	r0, [r3, #8]
 437 0212 039B     		ldr	r3, [sp, #12]
 438 0214 9B89     		ldrh	r3, [r3, #12]
 439 0216 9AB2     		uxth	r2, r3
 440 0218 039B     		ldr	r3, [sp, #12]
 441 021a 1B8C     		ldrh	r3, [r3, #32]
 442 021c 9BB2     		uxth	r3, r3
 443 021e 1344     		add	r3, r3, r2
 444 0220 9BB2     		uxth	r3, r3
 445 0222 99B2     		uxth	r1, r3
 446 0224 039B     		ldr	r3, [sp, #12]
 447 0226 DB89     		ldrh	r3, [r3, #14]
 448 0228 9AB2     		uxth	r2, r3
 449 022a 039B     		ldr	r3, [sp, #12]
 450 022c 5B8C     		ldrh	r3, [r3, #34]
 451 022e 9BB2     		uxth	r3, r3
 452 0230 1344     		add	r3, r3, r2
 453 0232 9BB2     		uxth	r3, r3
ARM GAS  /tmp/cc4PPDfd.s 			page 9


 454 0234 9DB2     		uxth	r5, r3
 455 0236 9DF80B30 		ldrb	r3, [sp, #11]	@ zero_extendqisi2
 456 023a 9CB2     		uxth	r4, r3
 457 023c 039B     		ldr	r3, [sp, #12]
 458 023e DA69     		ldr	r2, [r3, #28]
 459 0240 039B     		ldr	r3, [sp, #12]
 460 0242 9B8A     		ldrh	r3, [r3, #20]
 461 0244 09B2     		sxth	r1, r1
 462 0246 2DB2     		sxth	r5, r5
 463 0248 0092     		str	r2, [sp]
 464 024a 0193     		str	r3, [sp, #4]
 465 024c 2A46     		mov	r2, r5
 466 024e 2346     		mov	r3, r4
 467 0250 FFF7FEFF 		bl	gdispGDrawChar
 468              		.loc 1 590 0
 469 0254 039B     		ldr	r3, [sp, #12]
 470 0256 9B69     		ldr	r3, [r3, #24]
 471 0258 03F00103 		and	r3, r3, #1
 472 025c 002B     		cmp	r3, #0
 473 025e 02D1     		bne	.L22
 474              		.loc 1 590 0 is_stmt 0 discriminator 1
 475 0260 0398     		ldr	r0, [sp, #12]
 476 0262 FFF7FEFF 		bl	_gwinDrawEnd
 477              	.L22:
 478              		.loc 1 594 0 is_stmt 1
 479 0266 9DF81640 		ldrb	r4, [sp, #22]	@ zero_extendqisi2
 480 026a 039B     		ldr	r3, [sp, #12]
 481 026c DB69     		ldr	r3, [r3, #28]
 482 026e 1846     		mov	r0, r3
 483 0270 0321     		movs	r1, #3
 484 0272 FFF7FEFF 		bl	gdispGetFontMetric
 485 0276 0346     		mov	r3, r0
 486 0278 E118     		adds	r1, r4, r3
 487 027a 039B     		ldr	r3, [sp, #12]
 488 027c 1B8C     		ldrh	r3, [r3, #32]
 489 027e 9AB2     		uxth	r2, r3
 490 0280 8BB2     		uxth	r3, r1
 491 0282 1344     		add	r3, r3, r2
 492 0284 9BB2     		uxth	r3, r3
 493 0286 9AB2     		uxth	r2, r3
 494 0288 039B     		ldr	r3, [sp, #12]
 495 028a 1A84     		strh	r2, [r3, #32]	@ movhi
 496 028c 00E0     		b	.L7
 497              	.L25:
 498              		.loc 1 493 0
 499 028e 00BF     		nop
 500              	.L7:
 501              		.loc 1 597 0
 502 0290 07B0     		add	sp, sp, #28
 503              		.cfi_def_cfa_offset 12
 504              		@ sp needed
 505 0292 30BD     		pop	{r4, r5, pc}
 506              		.cfi_endproc
 507              	.LFE113:
 508              		.size	gwinPutChar, .-gwinPutChar
 509 0294 AFF30080 		.section	.text.gwinPutString,"ax",%progbits
 509      AFF30080 
ARM GAS  /tmp/cc4PPDfd.s 			page 10


 509      AFF30080 
 510              		.align	2
 511              		.p2align 4,,15
 512              		.global	gwinPutString
 513              		.thumb
 514              		.thumb_func
 515              		.type	gwinPutString, %function
 516              	gwinPutString:
 517              	.LFB114:
 518              		.loc 1 599 0
 519              		.cfi_startproc
 520              		@ args = 0, pretend = 0, frame = 8
 521              		@ frame_needed = 0, uses_anonymous_args = 0
 522 0000 00B5     		push	{lr}
 523              		.cfi_def_cfa_offset 4
 524              		.cfi_offset 14, -4
 525 0002 83B0     		sub	sp, sp, #12
 526              		.cfi_def_cfa_offset 16
 527 0004 0190     		str	r0, [sp, #4]
 528 0006 0091     		str	r1, [sp]
 529              		.loc 1 600 0
 530 0008 07E0     		b	.L29
 531              	.L30:
 532              		.loc 1 601 0
 533 000a 009B     		ldr	r3, [sp]
 534 000c 5A1C     		adds	r2, r3, #1
 535 000e 0092     		str	r2, [sp]
 536 0010 1B78     		ldrb	r3, [r3]	@ zero_extendqisi2
 537 0012 0198     		ldr	r0, [sp, #4]
 538 0014 1946     		mov	r1, r3
 539 0016 FFF7FEFF 		bl	gwinPutChar
 540              	.L29:
 541              		.loc 1 600 0
 542 001a 009B     		ldr	r3, [sp]
 543 001c 1B78     		ldrb	r3, [r3]	@ zero_extendqisi2
 544 001e 002B     		cmp	r3, #0
 545 0020 F3D1     		bne	.L30
 546              		.loc 1 602 0
 547 0022 03B0     		add	sp, sp, #12
 548              		.cfi_def_cfa_offset 4
 549              		@ sp needed
 550 0024 5DF804FB 		ldr	pc, [sp], #4
 551              		.cfi_endproc
 552              	.LFE114:
 553              		.size	gwinPutString, .-gwinPutString
 554 0028 AFF30080 		.section	.text.gwinPutCharArray,"ax",%progbits
 554      AFF30080 
 555              		.align	2
 556              		.p2align 4,,15
 557              		.global	gwinPutCharArray
 558              		.thumb
 559              		.thumb_func
 560              		.type	gwinPutCharArray, %function
 561              	gwinPutCharArray:
 562              	.LFB115:
 563              		.loc 1 604 0
 564              		.cfi_startproc
ARM GAS  /tmp/cc4PPDfd.s 			page 11


 565              		@ args = 0, pretend = 0, frame = 16
 566              		@ frame_needed = 0, uses_anonymous_args = 0
 567 0000 00B5     		push	{lr}
 568              		.cfi_def_cfa_offset 4
 569              		.cfi_offset 14, -4
 570 0002 85B0     		sub	sp, sp, #20
 571              		.cfi_def_cfa_offset 24
 572 0004 0390     		str	r0, [sp, #12]
 573 0006 0291     		str	r1, [sp, #8]
 574 0008 0192     		str	r2, [sp, #4]
 575              		.loc 1 605 0
 576 000a 07E0     		b	.L32
 577              	.L33:
 578              		.loc 1 606 0
 579 000c 029B     		ldr	r3, [sp, #8]
 580 000e 5A1C     		adds	r2, r3, #1
 581 0010 0292     		str	r2, [sp, #8]
 582 0012 1B78     		ldrb	r3, [r3]	@ zero_extendqisi2
 583 0014 0398     		ldr	r0, [sp, #12]
 584 0016 1946     		mov	r1, r3
 585 0018 FFF7FEFF 		bl	gwinPutChar
 586              	.L32:
 587              		.loc 1 605 0
 588 001c 019B     		ldr	r3, [sp, #4]
 589 001e 5A1E     		subs	r2, r3, #1
 590 0020 0192     		str	r2, [sp, #4]
 591 0022 002B     		cmp	r3, #0
 592 0024 F2D1     		bne	.L33
 593              		.loc 1 607 0
 594 0026 05B0     		add	sp, sp, #20
 595              		.cfi_def_cfa_offset 4
 596              		@ sp needed
 597 0028 5DF804FB 		ldr	pc, [sp], #4
 598              		.cfi_endproc
 599              	.LFE115:
 600              		.size	gwinPutCharArray, .-gwinPutCharArray
 601 002c AFF30080 		.section	.text.ltoa_wd,"ax",%progbits
 602              		.align	2
 603              		.p2align 4,,15
 604              		.thumb
 605              		.thumb_func
 606              		.type	ltoa_wd, %function
 607              	ltoa_wd:
 608              	.LFB116:
 609              		.loc 1 614 0
 610              		.cfi_startproc
 611              		@ args = 0, pretend = 0, frame = 24
 612              		@ frame_needed = 0, uses_anonymous_args = 0
 613              		@ link register save eliminated.
 614 0000 86B0     		sub	sp, sp, #24
 615              		.cfi_def_cfa_offset 24
 616 0002 0390     		str	r0, [sp, #12]
 617 0004 0291     		str	r1, [sp, #8]
 618 0006 0192     		str	r2, [sp, #4]
 619 0008 0093     		str	r3, [sp]
 620              		.loc 1 618 0
 621 000a 009B     		ldr	r3, [sp]
ARM GAS  /tmp/cc4PPDfd.s 			page 12


 622 000c 002B     		cmp	r3, #0
 623 000e 01D1     		bne	.L35
 624              		.loc 1 618 0 is_stmt 0 discriminator 1
 625 0010 029B     		ldr	r3, [sp, #8]
 626 0012 0093     		str	r3, [sp]
 627              	.L35:
 628              		.loc 1 620 0 is_stmt 1
 629 0014 039B     		ldr	r3, [sp, #12]
 630 0016 0B33     		adds	r3, r3, #11
 631 0018 0493     		str	r3, [sp, #16]
 632              	.L37:
 633              		.loc 1 622 0
 634 001a 029B     		ldr	r3, [sp, #8]
 635 001c 019A     		ldr	r2, [sp, #4]
 636 001e B3FBF2F2 		udiv	r2, r3, r2
 637 0022 0199     		ldr	r1, [sp, #4]
 638 0024 01FB02F2 		mul	r2, r1, r2
 639 0028 9B1A     		subs	r3, r3, r2
 640 002a 0593     		str	r3, [sp, #20]
 641              		.loc 1 623 0
 642 002c 059B     		ldr	r3, [sp, #20]
 643 002e 3033     		adds	r3, r3, #48
 644 0030 0593     		str	r3, [sp, #20]
 645              		.loc 1 624 0
 646 0032 059B     		ldr	r3, [sp, #20]
 647 0034 392B     		cmp	r3, #57
 648 0036 02DD     		ble	.L36
 649              		.loc 1 625 0
 650 0038 059B     		ldr	r3, [sp, #20]
 651 003a 0733     		adds	r3, r3, #7
 652 003c 0593     		str	r3, [sp, #20]
 653              	.L36:
 654              		.loc 1 626 0
 655 003e 049B     		ldr	r3, [sp, #16]
 656 0040 013B     		subs	r3, r3, #1
 657 0042 0493     		str	r3, [sp, #16]
 658 0044 059B     		ldr	r3, [sp, #20]
 659 0046 DAB2     		uxtb	r2, r3
 660 0048 049B     		ldr	r3, [sp, #16]
 661 004a 1A70     		strb	r2, [r3]
 662              		.loc 1 627 0
 663 004c 029A     		ldr	r2, [sp, #8]
 664 004e 019B     		ldr	r3, [sp, #4]
 665 0050 B2FBF3F3 		udiv	r3, r2, r3
 666 0054 0293     		str	r3, [sp, #8]
 667              		.loc 1 628 0
 668 0056 009A     		ldr	r2, [sp]
 669 0058 019B     		ldr	r3, [sp, #4]
 670 005a B2FBF3F3 		udiv	r3, r2, r3
 671 005e 0093     		str	r3, [sp]
 672 0060 009B     		ldr	r3, [sp]
 673 0062 002B     		cmp	r3, #0
 674 0064 D9D1     		bne	.L37
 675              		.loc 1 630 0
 676 0066 039B     		ldr	r3, [sp, #12]
 677 0068 0B33     		adds	r3, r3, #11
 678 006a 1A46     		mov	r2, r3
ARM GAS  /tmp/cc4PPDfd.s 			page 13


 679 006c 049B     		ldr	r3, [sp, #16]
 680 006e D31A     		subs	r3, r2, r3
 681 0070 0593     		str	r3, [sp, #20]
 682              	.L38:
 683              		.loc 1 632 0 discriminator 1
 684 0072 039B     		ldr	r3, [sp, #12]
 685 0074 5A1C     		adds	r2, r3, #1
 686 0076 0392     		str	r2, [sp, #12]
 687 0078 049A     		ldr	r2, [sp, #16]
 688 007a 511C     		adds	r1, r2, #1
 689 007c 0491     		str	r1, [sp, #16]
 690 007e 1278     		ldrb	r2, [r2]	@ zero_extendqisi2
 691 0080 1A70     		strb	r2, [r3]
 692              		.loc 1 633 0 discriminator 1
 693 0082 059B     		ldr	r3, [sp, #20]
 694 0084 013B     		subs	r3, r3, #1
 695 0086 0593     		str	r3, [sp, #20]
 696 0088 059B     		ldr	r3, [sp, #20]
 697 008a 002B     		cmp	r3, #0
 698 008c F1D1     		bne	.L38
 699              		.loc 1 635 0
 700 008e 039B     		ldr	r3, [sp, #12]
 701              		.loc 1 636 0
 702 0090 1846     		mov	r0, r3
 703 0092 06B0     		add	sp, sp, #24
 704              		.cfi_def_cfa_offset 0
 705              		@ sp needed
 706 0094 7047     		bx	lr
 707              		.cfi_endproc
 708              	.LFE116:
 709              		.size	ltoa_wd, .-ltoa_wd
 710 0096 00BFAFF3 		.section	.rodata
 710      0080AFF3 
 710      0080
 711              		.align	2
 712              	.LC1:
 713 0008 286E756C 		.ascii	"(null)\000"
 713      6C2900
 714 000f 00       		.section	.text.gwinPrintf,"ax",%progbits
 715              		.align	2
 716              		.p2align 4,,15
 717              		.global	gwinPrintf
 718              		.thumb
 719              		.thumb_func
 720              		.type	gwinPrintf, %function
 721              	gwinPrintf:
 722              	.LFB117:
 723              		.loc 1 651 0
 724              		.cfi_startproc
 725              		@ args = 4, pretend = 12, frame = 56
 726              		@ frame_needed = 0, uses_anonymous_args = 1
 727 0000 0EB4     		push	{r1, r2, r3}
 728              		.cfi_def_cfa_offset 12
 729              		.cfi_offset 1, -12
 730              		.cfi_offset 2, -8
 731              		.cfi_offset 3, -4
 732 0002 00B5     		push	{lr}
ARM GAS  /tmp/cc4PPDfd.s 			page 14


 733              		.cfi_def_cfa_offset 16
 734              		.cfi_offset 14, -16
 735 0004 8EB0     		sub	sp, sp, #56
 736              		.cfi_def_cfa_offset 72
 737 0006 0190     		str	r0, [sp, #4]
 738              		.loc 1 664 0
 739 0008 019B     		ldr	r3, [sp, #4]
 740 000a 5B68     		ldr	r3, [r3, #4]
 741 000c BA4A     		ldr	r2, .L95
 742 000e 9342     		cmp	r3, r2
 743 0010 03D1     		bne	.L41
 744              		.loc 1 664 0 is_stmt 0 discriminator 1
 745 0012 019B     		ldr	r3, [sp, #4]
 746 0014 DB69     		ldr	r3, [r3, #28]
 747 0016 002B     		cmp	r3, #0
 748 0018 00D1     		bne	.L42
 749              	.L41:
 750              		.loc 1 665 0 is_stmt 1
 751 001a 0AE2     		b	.L40
 752              	.L42:
 753              		.loc 1 667 0
 754 001c 10AB     		add	r3, sp, #64
 755 001e 0593     		str	r3, [sp, #20]
 756              	.L93:
 757              		.loc 1 669 0
 758 0020 0F9B     		ldr	r3, [sp, #60]
 759 0022 5A1C     		adds	r2, r3, #1
 760 0024 0F92     		str	r2, [sp, #60]
 761 0026 1B78     		ldrb	r3, [r3]
 762 0028 8DF82F30 		strb	r3, [sp, #47]
 763              		.loc 1 670 0
 764 002c 9DF82F30 		ldrb	r3, [sp, #47]	@ zero_extendqisi2
 765 0030 002B     		cmp	r3, #0
 766 0032 00D1     		bne	.L44
 767              		.loc 1 672 0
 768 0034 FDE1     		b	.L40
 769              	.L44:
 770              		.loc 1 674 0
 771 0036 9DF82F30 		ldrb	r3, [sp, #47]	@ zero_extendqisi2
 772 003a 252B     		cmp	r3, #37
 773 003c 06D0     		beq	.L45
 774              		.loc 1 675 0
 775 003e 9DF82F30 		ldrb	r3, [sp, #47]	@ zero_extendqisi2
 776 0042 0198     		ldr	r0, [sp, #4]
 777 0044 1946     		mov	r1, r3
 778 0046 FFF7FEFF 		bl	gwinPutChar
 779              		.loc 1 676 0
 780 004a F1E1     		b	.L46
 781              	.L45:
 782              		.loc 1 679 0
 783 004c 02AB     		add	r3, sp, #8
 784 004e 0D93     		str	r3, [sp, #52]
 785              		.loc 1 680 0
 786 0050 02AB     		add	r3, sp, #8
 787 0052 0C93     		str	r3, [sp, #48]
 788              		.loc 1 681 0
 789 0054 0023     		movs	r3, #0
ARM GAS  /tmp/cc4PPDfd.s 			page 15


 790 0056 8DF81E30 		strb	r3, [sp, #30]
 791              		.loc 1 682 0
 792 005a 0F9B     		ldr	r3, [sp, #60]
 793 005c 1B78     		ldrb	r3, [r3]	@ zero_extendqisi2
 794 005e 2D2B     		cmp	r3, #45
 795 0060 05D1     		bne	.L47
 796              		.loc 1 683 0
 797 0062 0F9B     		ldr	r3, [sp, #60]
 798 0064 0133     		adds	r3, r3, #1
 799 0066 0F93     		str	r3, [sp, #60]
 800              		.loc 1 684 0
 801 0068 0123     		movs	r3, #1
 802 006a 8DF81E30 		strb	r3, [sp, #30]
 803              	.L47:
 804              		.loc 1 686 0
 805 006e 2023     		movs	r3, #32
 806 0070 8DF82E30 		strb	r3, [sp, #46]
 807              		.loc 1 687 0
 808 0074 0F9B     		ldr	r3, [sp, #60]
 809 0076 1B78     		ldrb	r3, [r3]	@ zero_extendqisi2
 810 0078 302B     		cmp	r3, #48
 811 007a 05D1     		bne	.L48
 812              		.loc 1 688 0
 813 007c 0F9B     		ldr	r3, [sp, #60]
 814 007e 0133     		adds	r3, r3, #1
 815 0080 0F93     		str	r3, [sp, #60]
 816              		.loc 1 689 0
 817 0082 3023     		movs	r3, #48
 818 0084 8DF82E30 		strb	r3, [sp, #46]
 819              	.L48:
 820              		.loc 1 691 0
 821 0088 0023     		movs	r3, #0
 822 008a 0893     		str	r3, [sp, #32]
 823              	.L53:
 824              		.loc 1 694 0
 825 008c 0F9B     		ldr	r3, [sp, #60]
 826 008e 5A1C     		adds	r2, r3, #1
 827 0090 0F92     		str	r2, [sp, #60]
 828 0092 1B78     		ldrb	r3, [r3]
 829 0094 8DF82F30 		strb	r3, [sp, #47]
 830              		.loc 1 695 0
 831 0098 9DF82F30 		ldrb	r3, [sp, #47]	@ zero_extendqisi2
 832 009c 2F2B     		cmp	r3, #47
 833 009e 09D9     		bls	.L49
 834              		.loc 1 695 0 is_stmt 0 discriminator 1
 835 00a0 9DF82F30 		ldrb	r3, [sp, #47]	@ zero_extendqisi2
 836 00a4 392B     		cmp	r3, #57
 837 00a6 05D8     		bhi	.L49
 838              		.loc 1 696 0 is_stmt 1
 839 00a8 9DF82F30 		ldrb	r3, [sp, #47]
 840 00ac 303B     		subs	r3, r3, #48
 841 00ae 8DF82F30 		strb	r3, [sp, #47]
 842 00b2 12E0     		b	.L50
 843              	.L49:
 844              		.loc 1 697 0
 845 00b4 9DF82F30 		ldrb	r3, [sp, #47]	@ zero_extendqisi2
 846 00b8 2A2B     		cmp	r3, #42
ARM GAS  /tmp/cc4PPDfd.s 			page 16


 847 00ba 06D1     		bne	.L51
 848              		.loc 1 698 0
 849 00bc 059B     		ldr	r3, [sp, #20]
 850 00be 1A1D     		adds	r2, r3, #4
 851 00c0 0592     		str	r2, [sp, #20]
 852 00c2 1B68     		ldr	r3, [r3]
 853 00c4 8DF82F30 		strb	r3, [sp, #47]
 854 00c8 07E0     		b	.L50
 855              	.L51:
 856              		.loc 1 700 0
 857 00ca 00BF     		nop
 858              		.loc 1 703 0
 859 00cc 0023     		movs	r3, #0
 860 00ce 0993     		str	r3, [sp, #36]
 861              		.loc 1 704 0
 862 00d0 9DF82F30 		ldrb	r3, [sp, #47]	@ zero_extendqisi2
 863 00d4 2E2B     		cmp	r3, #46
 864 00d6 36D1     		bne	.L54
 865 00d8 0AE0     		b	.L58
 866              	.L50:
 867              		.loc 1 701 0
 868 00da 089A     		ldr	r2, [sp, #32]
 869 00dc 1346     		mov	r3, r2
 870 00de 9B00     		lsls	r3, r3, #2
 871 00e0 1344     		add	r3, r3, r2
 872 00e2 5B00     		lsls	r3, r3, #1
 873 00e4 1A46     		mov	r2, r3
 874 00e6 9DF82F30 		ldrb	r3, [sp, #47]	@ zero_extendqisi2
 875 00ea 1344     		add	r3, r3, r2
 876 00ec 0893     		str	r3, [sp, #32]
 877              		.loc 1 702 0
 878 00ee CDE7     		b	.L53
 879              	.L58:
 880              		.loc 1 706 0
 881 00f0 0F9B     		ldr	r3, [sp, #60]
 882 00f2 5A1C     		adds	r2, r3, #1
 883 00f4 0F92     		str	r2, [sp, #60]
 884 00f6 1B78     		ldrb	r3, [r3]
 885 00f8 8DF82F30 		strb	r3, [sp, #47]
 886              		.loc 1 707 0
 887 00fc 9DF82F30 		ldrb	r3, [sp, #47]	@ zero_extendqisi2
 888 0100 2F2B     		cmp	r3, #47
 889 0102 09D9     		bls	.L55
 890              		.loc 1 707 0 is_stmt 0 discriminator 1
 891 0104 9DF82F30 		ldrb	r3, [sp, #47]	@ zero_extendqisi2
 892 0108 392B     		cmp	r3, #57
 893 010a 05D8     		bhi	.L55
 894              		.loc 1 708 0 is_stmt 1
 895 010c 9DF82F30 		ldrb	r3, [sp, #47]
 896 0110 303B     		subs	r3, r3, #48
 897 0112 8DF82F30 		strb	r3, [sp, #47]
 898 0116 0BE0     		b	.L56
 899              	.L55:
 900              		.loc 1 709 0
 901 0118 9DF82F30 		ldrb	r3, [sp, #47]	@ zero_extendqisi2
 902 011c 2A2B     		cmp	r3, #42
 903 011e 06D1     		bne	.L57
ARM GAS  /tmp/cc4PPDfd.s 			page 17


 904              		.loc 1 710 0
 905 0120 059B     		ldr	r3, [sp, #20]
 906 0122 1A1D     		adds	r2, r3, #4
 907 0124 0592     		str	r2, [sp, #20]
 908 0126 1B68     		ldr	r3, [r3]
 909 0128 8DF82F30 		strb	r3, [sp, #47]
 910 012c 00E0     		b	.L56
 911              	.L57:
 912              		.loc 1 712 0
 913 012e 0AE0     		b	.L54
 914              	.L56:
 915              		.loc 1 713 0
 916 0130 099A     		ldr	r2, [sp, #36]
 917 0132 1346     		mov	r3, r2
 918 0134 9B00     		lsls	r3, r3, #2
 919 0136 1344     		add	r3, r3, r2
 920 0138 5B00     		lsls	r3, r3, #1
 921 013a 1A46     		mov	r2, r3
 922 013c 9DF82F30 		ldrb	r3, [sp, #47]	@ zero_extendqisi2
 923 0140 1344     		add	r3, r3, r2
 924 0142 0993     		str	r3, [sp, #36]
 925              		.loc 1 714 0
 926 0144 D4E7     		b	.L58
 927              	.L54:
 928              		.loc 1 717 0
 929 0146 9DF82F30 		ldrb	r3, [sp, #47]	@ zero_extendqisi2
 930 014a 6C2B     		cmp	r3, #108
 931 014c 03D0     		beq	.L59
 932              		.loc 1 717 0 is_stmt 0 discriminator 1
 933 014e 9DF82F30 		ldrb	r3, [sp, #47]	@ zero_extendqisi2
 934 0152 4C2B     		cmp	r3, #76
 935 0154 0ED1     		bne	.L60
 936              	.L59:
 937              		.loc 1 718 0 is_stmt 1
 938 0156 0123     		movs	r3, #1
 939 0158 8DF81F30 		strb	r3, [sp, #31]
 940              		.loc 1 719 0
 941 015c 0F9B     		ldr	r3, [sp, #60]
 942 015e 1B78     		ldrb	r3, [r3]	@ zero_extendqisi2
 943 0160 002B     		cmp	r3, #0
 944 0162 06D0     		beq	.L61
 945              		.loc 1 720 0
 946 0164 0F9B     		ldr	r3, [sp, #60]
 947 0166 5A1C     		adds	r2, r3, #1
 948 0168 0F92     		str	r2, [sp, #60]
 949 016a 1B78     		ldrb	r3, [r3]
 950 016c 8DF82F30 		strb	r3, [sp, #47]
 951              		.loc 1 719 0
 952 0170 13E0     		b	.L62
 953              	.L61:
 954 0172 12E0     		b	.L62
 955              	.L60:
 956              		.loc 1 723 0
 957 0174 9DF82F30 		ldrb	r3, [sp, #47]	@ zero_extendqisi2
 958 0178 402B     		cmp	r3, #64
 959 017a 05D9     		bls	.L63
 960              		.loc 1 723 0 is_stmt 0 discriminator 1
ARM GAS  /tmp/cc4PPDfd.s 			page 18


 961 017c 9DF82F30 		ldrb	r3, [sp, #47]	@ zero_extendqisi2
 962 0180 5A2B     		cmp	r3, #90
 963 0182 01D8     		bhi	.L63
 964              		.loc 1 723 0 discriminator 3
 965 0184 0123     		movs	r3, #1
 966 0186 00E0     		b	.L64
 967              	.L63:
 968              		.loc 1 723 0 discriminator 4
 969 0188 0023     		movs	r3, #0
 970              	.L64:
 971              		.loc 1 723 0 discriminator 6
 972 018a 8DF81F30 		strb	r3, [sp, #31]
 973 018e 9DF81F30 		ldrb	r3, [sp, #31]
 974 0192 03F00103 		and	r3, r3, #1
 975 0196 8DF81F30 		strb	r3, [sp, #31]
 976              	.L62:
 977              		.loc 1 726 0 is_stmt 1
 978 019a 9DF82F30 		ldrb	r3, [sp, #47]	@ zero_extendqisi2
 979 019e 443B     		subs	r3, r3, #68
 980 01a0 342B     		cmp	r3, #52
 981 01a2 00F2E980 		bhi	.L65
 982 01a6 01A2     		adr	r2, .L67
 983 01a8 52F823F0 		ldr	pc, [r2, r3, lsl #2]
 984              		.p2align 2
 985              	.L67:
 986 01ac E3020000 		.word	.L66+1
 987 01b0 79030000 		.word	.L65+1
 988 01b4 79030000 		.word	.L65+1
 989 01b8 79030000 		.word	.L65+1
 990 01bc 79030000 		.word	.L65+1
 991 01c0 79030000 		.word	.L65+1
 992 01c4 79030000 		.word	.L65+1
 993 01c8 79030000 		.word	.L65+1
 994 01cc 79030000 		.word	.L65+1
 995 01d0 79030000 		.word	.L65+1
 996 01d4 79030000 		.word	.L65+1
 997 01d8 41030000 		.word	.L68+1
 998 01dc 79030000 		.word	.L65+1
 999 01e0 79030000 		.word	.L65+1
 1000 01e4 79030000 		.word	.L65+1
 1001 01e8 79030000 		.word	.L65+1
 1002 01ec 79030000 		.word	.L65+1
 1003 01f0 39030000 		.word	.L69+1
 1004 01f4 79030000 		.word	.L65+1
 1005 01f8 79030000 		.word	.L65+1
 1006 01fc 31030000 		.word	.L70+1
 1007 0200 79030000 		.word	.L65+1
 1008 0204 79030000 		.word	.L65+1
 1009 0208 79030000 		.word	.L65+1
 1010 020c 79030000 		.word	.L65+1
 1011 0210 79030000 		.word	.L65+1
 1012 0214 79030000 		.word	.L65+1
 1013 0218 79030000 		.word	.L65+1
 1014 021c 79030000 		.word	.L65+1
 1015 0220 79030000 		.word	.L65+1
 1016 0224 79030000 		.word	.L65+1
 1017 0228 81020000 		.word	.L71+1
ARM GAS  /tmp/cc4PPDfd.s 			page 19


 1018 022c E3020000 		.word	.L66+1
 1019 0230 79030000 		.word	.L65+1
 1020 0234 79030000 		.word	.L65+1
 1021 0238 79030000 		.word	.L65+1
 1022 023c 79030000 		.word	.L65+1
 1023 0240 79030000 		.word	.L65+1
 1024 0244 79030000 		.word	.L65+1
 1025 0248 79030000 		.word	.L65+1
 1026 024c 79030000 		.word	.L65+1
 1027 0250 79030000 		.word	.L65+1
 1028 0254 79030000 		.word	.L65+1
 1029 0258 41030000 		.word	.L68+1
 1030 025c 79030000 		.word	.L65+1
 1031 0260 79030000 		.word	.L65+1
 1032 0264 79030000 		.word	.L65+1
 1033 0268 9B020000 		.word	.L72+1
 1034 026c 79030000 		.word	.L65+1
 1035 0270 39030000 		.word	.L69+1
 1036 0274 79030000 		.word	.L65+1
 1037 0278 79030000 		.word	.L65+1
 1038 027c 31030000 		.word	.L70+1
 1039              		.p2align 1
 1040              	.L71:
 1041              		.loc 1 728 0
 1042 0280 2023     		movs	r3, #32
 1043 0282 8DF82E30 		strb	r3, [sp, #46]
 1044              		.loc 1 729 0
 1045 0286 0D9B     		ldr	r3, [sp, #52]
 1046 0288 5A1C     		adds	r2, r3, #1
 1047 028a 0D92     		str	r2, [sp, #52]
 1048 028c 059A     		ldr	r2, [sp, #20]
 1049 028e 111D     		adds	r1, r2, #4
 1050 0290 0591     		str	r1, [sp, #20]
 1051 0292 1268     		ldr	r2, [r2]
 1052 0294 D2B2     		uxtb	r2, r2
 1053 0296 1A70     		strb	r2, [r3]
 1054              		.loc 1 730 0
 1055 0298 75E0     		b	.L73
 1056              	.L72:
 1057              		.loc 1 732 0
 1058 029a 2023     		movs	r3, #32
 1059 029c 8DF82E30 		strb	r3, [sp, #46]
 1060              		.loc 1 733 0
 1061 02a0 059B     		ldr	r3, [sp, #20]
 1062 02a2 1A1D     		adds	r2, r3, #4
 1063 02a4 0592     		str	r2, [sp, #20]
 1064 02a6 1B68     		ldr	r3, [r3]
 1065 02a8 0C93     		str	r3, [sp, #48]
 1066 02aa 0C9B     		ldr	r3, [sp, #48]
 1067 02ac 002B     		cmp	r3, #0
 1068 02ae 01D1     		bne	.L74
 1069              		.loc 1 734 0
 1070 02b0 124B     		ldr	r3, .L95+4
 1071 02b2 0C93     		str	r3, [sp, #48]
 1072              	.L74:
 1073              		.loc 1 735 0
 1074 02b4 099B     		ldr	r3, [sp, #36]
ARM GAS  /tmp/cc4PPDfd.s 			page 20


 1075 02b6 002B     		cmp	r3, #0
 1076 02b8 02D1     		bne	.L75
 1077              		.loc 1 736 0
 1078 02ba 47F6FF73 		movw	r3, #32767
 1079 02be 0993     		str	r3, [sp, #36]
 1080              	.L75:
 1081              		.loc 1 737 0
 1082 02c0 0C9B     		ldr	r3, [sp, #48]
 1083 02c2 0D93     		str	r3, [sp, #52]
 1084 02c4 02E0     		b	.L76
 1085              	.L78:
 1086              		.loc 1 737 0 is_stmt 0 discriminator 4
 1087 02c6 0D9B     		ldr	r3, [sp, #52]
 1088 02c8 0133     		adds	r3, r3, #1
 1089 02ca 0D93     		str	r3, [sp, #52]
 1090              	.L76:
 1091              		.loc 1 737 0 discriminator 1
 1092 02cc 0D9B     		ldr	r3, [sp, #52]
 1093 02ce 1B78     		ldrb	r3, [r3]	@ zero_extendqisi2
 1094 02d0 002B     		cmp	r3, #0
 1095 02d2 05D0     		beq	.L77
 1096              		.loc 1 737 0 discriminator 3
 1097 02d4 099B     		ldr	r3, [sp, #36]
 1098 02d6 013B     		subs	r3, r3, #1
 1099 02d8 0993     		str	r3, [sp, #36]
 1100 02da 099B     		ldr	r3, [sp, #36]
 1101 02dc 002B     		cmp	r3, #0
 1102 02de F2DA     		bge	.L78
 1103              	.L77:
 1104              		.loc 1 738 0 is_stmt 1
 1105 02e0 51E0     		b	.L73
 1106              	.L66:
 1107              		.loc 1 741 0
 1108 02e2 9DF81F30 		ldrb	r3, [sp, #31]	@ zero_extendqisi2
 1109 02e6 002B     		cmp	r3, #0
 1110 02e8 0AD0     		beq	.L79
 1111              		.loc 1 742 0
 1112 02ea 059B     		ldr	r3, [sp, #20]
 1113 02ec 1A1D     		adds	r2, r3, #4
 1114 02ee 0592     		str	r2, [sp, #20]
 1115 02f0 1B68     		ldr	r3, [r3]
 1116 02f2 0693     		str	r3, [sp, #24]
 1117 02f4 09E0     		b	.L80
 1118              	.L96:
 1119 02f6 00BF     		.align	2
 1120              	.L95:
 1121 02f8 00000000 		.word	consoleVMT
 1122 02fc 08000000 		.word	.LC1
 1123              	.L79:
 1124              		.loc 1 744 0
 1125 0300 059B     		ldr	r3, [sp, #20]
 1126 0302 1A1D     		adds	r2, r3, #4
 1127 0304 0592     		str	r2, [sp, #20]
 1128 0306 1B68     		ldr	r3, [r3]
 1129 0308 0693     		str	r3, [sp, #24]
 1130              	.L80:
 1131              		.loc 1 745 0
ARM GAS  /tmp/cc4PPDfd.s 			page 21


 1132 030a 069B     		ldr	r3, [sp, #24]
 1133 030c 002B     		cmp	r3, #0
 1134 030e 07DA     		bge	.L81
 1135              		.loc 1 746 0
 1136 0310 0D9B     		ldr	r3, [sp, #52]
 1137 0312 5A1C     		adds	r2, r3, #1
 1138 0314 0D92     		str	r2, [sp, #52]
 1139 0316 2D22     		movs	r2, #45
 1140 0318 1A70     		strb	r2, [r3]
 1141              		.loc 1 747 0
 1142 031a 069B     		ldr	r3, [sp, #24]
 1143 031c 5B42     		negs	r3, r3
 1144 031e 0693     		str	r3, [sp, #24]
 1145              	.L81:
 1146              		.loc 1 749 0
 1147 0320 0D98     		ldr	r0, [sp, #52]
 1148 0322 0699     		ldr	r1, [sp, #24]
 1149 0324 0A22     		movs	r2, #10
 1150 0326 0023     		movs	r3, #0
 1151 0328 FFF7FEFF 		bl	ltoa_wd
 1152 032c 0D90     		str	r0, [sp, #52]
 1153              		.loc 1 750 0
 1154 032e 2AE0     		b	.L73
 1155              	.L70:
 1156              		.loc 1 763 0
 1157 0330 1023     		movs	r3, #16
 1158 0332 8DF82F30 		strb	r3, [sp, #47]
 1159              		.loc 1 764 0
 1160 0336 06E0     		b	.L82
 1161              	.L69:
 1162              		.loc 1 767 0
 1163 0338 0A23     		movs	r3, #10
 1164 033a 8DF82F30 		strb	r3, [sp, #47]
 1165              		.loc 1 768 0
 1166 033e 02E0     		b	.L82
 1167              	.L68:
 1168              		.loc 1 771 0
 1169 0340 0823     		movs	r3, #8
 1170 0342 8DF82F30 		strb	r3, [sp, #47]
 1171              	.L82:
 1172              		.loc 1 773 0
 1173 0346 9DF81F30 		ldrb	r3, [sp, #31]	@ zero_extendqisi2
 1174 034a 002B     		cmp	r3, #0
 1175 034c 05D0     		beq	.L83
 1176              		.loc 1 774 0
 1177 034e 059B     		ldr	r3, [sp, #20]
 1178 0350 1A1D     		adds	r2, r3, #4
 1179 0352 0592     		str	r2, [sp, #20]
 1180 0354 1B68     		ldr	r3, [r3]
 1181 0356 0693     		str	r3, [sp, #24]
 1182 0358 04E0     		b	.L84
 1183              	.L83:
 1184              		.loc 1 776 0
 1185 035a 059B     		ldr	r3, [sp, #20]
 1186 035c 1A1D     		adds	r2, r3, #4
 1187 035e 0592     		str	r2, [sp, #20]
 1188 0360 1B68     		ldr	r3, [r3]
ARM GAS  /tmp/cc4PPDfd.s 			page 22


 1189 0362 0693     		str	r3, [sp, #24]
 1190              	.L84:
 1191              		.loc 1 777 0
 1192 0364 9DF82F30 		ldrb	r3, [sp, #47]	@ zero_extendqisi2
 1193 0368 0D98     		ldr	r0, [sp, #52]
 1194 036a 0699     		ldr	r1, [sp, #24]
 1195 036c 1A46     		mov	r2, r3
 1196 036e 0023     		movs	r3, #0
 1197 0370 FFF7FEFF 		bl	ltoa_wd
 1198 0374 0D90     		str	r0, [sp, #52]
 1199              		.loc 1 778 0
 1200 0376 06E0     		b	.L73
 1201              	.L65:
 1202              		.loc 1 780 0
 1203 0378 0D9B     		ldr	r3, [sp, #52]
 1204 037a 5A1C     		adds	r2, r3, #1
 1205 037c 0D92     		str	r2, [sp, #52]
 1206 037e 9DF82F20 		ldrb	r2, [sp, #47]
 1207 0382 1A70     		strb	r2, [r3]
 1208              		.loc 1 781 0
 1209 0384 00BF     		nop
 1210              	.L73:
 1211              		.loc 1 784 0
 1212 0386 0D9A     		ldr	r2, [sp, #52]
 1213 0388 0C9B     		ldr	r3, [sp, #48]
 1214 038a D31A     		subs	r3, r2, r3
 1215 038c 0A93     		str	r3, [sp, #40]
 1216              		.loc 1 785 0
 1217 038e 089A     		ldr	r2, [sp, #32]
 1218 0390 0A9B     		ldr	r3, [sp, #40]
 1219 0392 D31A     		subs	r3, r2, r3
 1220 0394 0893     		str	r3, [sp, #32]
 1221 0396 089B     		ldr	r3, [sp, #32]
 1222 0398 002B     		cmp	r3, #0
 1223 039a 01DA     		bge	.L85
 1224              		.loc 1 786 0
 1225 039c 0023     		movs	r3, #0
 1226 039e 0893     		str	r3, [sp, #32]
 1227              	.L85:
 1228              		.loc 1 787 0
 1229 03a0 9DF81E30 		ldrb	r3, [sp, #30]
 1230 03a4 83F00103 		eor	r3, r3, #1
 1231 03a8 DBB2     		uxtb	r3, r3
 1232 03aa 002B     		cmp	r3, #0
 1233 03ac 02D0     		beq	.L86
 1234              		.loc 1 788 0
 1235 03ae 089B     		ldr	r3, [sp, #32]
 1236 03b0 5B42     		negs	r3, r3
 1237 03b2 0893     		str	r3, [sp, #32]
 1238              	.L86:
 1239              		.loc 1 789 0
 1240 03b4 089B     		ldr	r3, [sp, #32]
 1241 03b6 002B     		cmp	r3, #0
 1242 03b8 1EDA     		bge	.L87
 1243              		.loc 1 790 0
 1244 03ba 0C9B     		ldr	r3, [sp, #48]
 1245 03bc 1B78     		ldrb	r3, [r3]	@ zero_extendqisi2
ARM GAS  /tmp/cc4PPDfd.s 			page 23


 1246 03be 2D2B     		cmp	r3, #45
 1247 03c0 0ED1     		bne	.L88
 1248              		.loc 1 790 0 is_stmt 0 discriminator 1
 1249 03c2 9DF82E30 		ldrb	r3, [sp, #46]	@ zero_extendqisi2
 1250 03c6 302B     		cmp	r3, #48
 1251 03c8 0AD1     		bne	.L88
 1252              		.loc 1 791 0 is_stmt 1
 1253 03ca 0C9B     		ldr	r3, [sp, #48]
 1254 03cc 5A1C     		adds	r2, r3, #1
 1255 03ce 0C92     		str	r2, [sp, #48]
 1256 03d0 1B78     		ldrb	r3, [r3]	@ zero_extendqisi2
 1257 03d2 0198     		ldr	r0, [sp, #4]
 1258 03d4 1946     		mov	r1, r3
 1259 03d6 FFF7FEFF 		bl	gwinPutChar
 1260              		.loc 1 792 0
 1261 03da 0A9B     		ldr	r3, [sp, #40]
 1262 03dc 013B     		subs	r3, r3, #1
 1263 03de 0A93     		str	r3, [sp, #40]
 1264              	.L88:
 1265              		.loc 1 795 0 discriminator 1
 1266 03e0 9DF82E30 		ldrb	r3, [sp, #46]	@ zero_extendqisi2
 1267 03e4 0198     		ldr	r0, [sp, #4]
 1268 03e6 1946     		mov	r1, r3
 1269 03e8 FFF7FEFF 		bl	gwinPutChar
 1270              		.loc 1 796 0 discriminator 1
 1271 03ec 089B     		ldr	r3, [sp, #32]
 1272 03ee 0133     		adds	r3, r3, #1
 1273 03f0 0893     		str	r3, [sp, #32]
 1274 03f2 089B     		ldr	r3, [sp, #32]
 1275 03f4 002B     		cmp	r3, #0
 1276 03f6 F3D1     		bne	.L88
 1277              	.L87:
 1278              		.loc 1 798 0
 1279 03f8 07E0     		b	.L89
 1280              	.L90:
 1281              		.loc 1 799 0
 1282 03fa 0C9B     		ldr	r3, [sp, #48]
 1283 03fc 5A1C     		adds	r2, r3, #1
 1284 03fe 0C92     		str	r2, [sp, #48]
 1285 0400 1B78     		ldrb	r3, [r3]	@ zero_extendqisi2
 1286 0402 0198     		ldr	r0, [sp, #4]
 1287 0404 1946     		mov	r1, r3
 1288 0406 FFF7FEFF 		bl	gwinPutChar
 1289              	.L89:
 1290              		.loc 1 798 0
 1291 040a 0A9B     		ldr	r3, [sp, #40]
 1292 040c 013B     		subs	r3, r3, #1
 1293 040e 0A93     		str	r3, [sp, #40]
 1294 0410 0A9B     		ldr	r3, [sp, #40]
 1295 0412 002B     		cmp	r3, #0
 1296 0414 F1DA     		bge	.L90
 1297              		.loc 1 800 0
 1298 0416 08E0     		b	.L91
 1299              	.L92:
 1300              		.loc 1 801 0
 1301 0418 9DF82E30 		ldrb	r3, [sp, #46]	@ zero_extendqisi2
 1302 041c 0198     		ldr	r0, [sp, #4]
ARM GAS  /tmp/cc4PPDfd.s 			page 24


 1303 041e 1946     		mov	r1, r3
 1304 0420 FFF7FEFF 		bl	gwinPutChar
 1305              		.loc 1 802 0
 1306 0424 089B     		ldr	r3, [sp, #32]
 1307 0426 013B     		subs	r3, r3, #1
 1308 0428 0893     		str	r3, [sp, #32]
 1309              	.L91:
 1310              		.loc 1 800 0
 1311 042a 089B     		ldr	r3, [sp, #32]
 1312 042c 002B     		cmp	r3, #0
 1313 042e F3D1     		bne	.L92
 1314              	.L46:
 1315              		.loc 1 804 0
 1316 0430 F6E5     		b	.L93
 1317              	.L40:
 1318              		.loc 1 805 0
 1319 0432 0EB0     		add	sp, sp, #56
 1320              		.cfi_def_cfa_offset 16
 1321              		@ sp needed
 1322 0434 5DF804EB 		ldr	lr, [sp], #4
 1323              		.cfi_restore 14
 1324              		.cfi_def_cfa_offset 12
 1325 0438 03B0     		add	sp, sp, #12
 1326              		.cfi_restore 3
 1327              		.cfi_restore 2
 1328              		.cfi_restore 1
 1329              		.cfi_def_cfa_offset 0
 1330 043a 7047     		bx	lr
 1331              		.cfi_endproc
 1332              	.LFE117:
 1333              		.size	gwinPrintf, .-gwinPrintf
 1334 043c AFF30080 		.text
 1335              	.Letext0:
 1336              		.file 2 "/opt/gcc-arm-none-eabi/lib/gcc/arm-none-eabi/4.9.3/include/stddef.h"
 1337              		.file 3 "/opt/gcc-arm-none-eabi/arm-none-eabi/include/machine/_default_types.h"
 1338              		.file 4 "/opt/gcc-arm-none-eabi/arm-none-eabi/include/stdint.h"
 1339              		.file 5 "/home/makkmarci/workspace/ChibiOS_2.6.8/os/ports/GCC/ARMCMx/chtypes.h"
 1340              		.file 6 "/home/makkmarci/workspace/ugfx/src/gqueue/gqueue.h"
 1341              		.file 7 "/home/makkmarci/workspace/ugfx/src/gdisp/gdisp.h"
 1342              		.file 8 "/home/makkmarci/workspace/ugfx/src/gdisp/gdisp_colors.h"
 1343              		.file 9 "/home/makkmarci/workspace/ugfx/src/gwin/gwin.h"
 1344              		.file 10 "/home/makkmarci/workspace/ugfx/src/gwin/gwin_class.h"
 1345              		.file 11 "/home/makkmarci/workspace/ugfx/src/gwin/gwin_console.h"
 1346              		.file 12 "/opt/gcc-arm-none-eabi/lib/gcc/arm-none-eabi/4.9.3/include/stdarg.h"
 1347              		.file 13 "<built-in>"
 1348              		.file 14 "/home/makkmarci/workspace/ChibiOS_2.6.8/os/ports/common/ARMCMx/CMSIS/include/core_cm4.h"
 1349              		.section	.debug_info,"",%progbits
 1350              	.Ldebug_info0:
 1351 0000 51060000 		.4byte	0x651
 1352 0004 0400     		.2byte	0x4
 1353 0006 00000000 		.4byte	.Ldebug_abbrev0
 1354 000a 04       		.byte	0x4
 1355 000b 01       		.uleb128 0x1
 1356 000c F9000000 		.4byte	.LASF70
 1357 0010 01       		.byte	0x1
 1358 0011 52040000 		.4byte	.LASF71
 1359 0015 25030000 		.4byte	.LASF72
ARM GAS  /tmp/cc4PPDfd.s 			page 25


 1360 0019 00000000 		.4byte	.Ldebug_ranges0+0
 1361 001d 00000000 		.4byte	0
 1362 0021 00000000 		.4byte	.Ldebug_line0
 1363 0025 02       		.uleb128 0x2
 1364 0026 04       		.byte	0x4
 1365 0027 05       		.byte	0x5
 1366 0028 696E7400 		.ascii	"int\000"
 1367 002c 03       		.uleb128 0x3
 1368 002d 49000000 		.4byte	.LASF2
 1369 0031 02       		.byte	0x2
 1370 0032 D4       		.byte	0xd4
 1371 0033 37000000 		.4byte	0x37
 1372 0037 04       		.uleb128 0x4
 1373 0038 04       		.byte	0x4
 1374 0039 07       		.byte	0x7
 1375 003a E2020000 		.4byte	.LASF0
 1376 003e 04       		.uleb128 0x4
 1377 003f 01       		.byte	0x1
 1378 0040 06       		.byte	0x6
 1379 0041 D4000000 		.4byte	.LASF1
 1380 0045 03       		.uleb128 0x3
 1381 0046 37020000 		.4byte	.LASF3
 1382 004a 03       		.byte	0x3
 1383 004b 1D       		.byte	0x1d
 1384 004c 50000000 		.4byte	0x50
 1385 0050 04       		.uleb128 0x4
 1386 0051 01       		.byte	0x1
 1387 0052 08       		.byte	0x8
 1388 0053 5E020000 		.4byte	.LASF4
 1389 0057 03       		.uleb128 0x3
 1390 0058 06000000 		.4byte	.LASF5
 1391 005c 03       		.byte	0x3
 1392 005d 29       		.byte	0x29
 1393 005e 62000000 		.4byte	0x62
 1394 0062 04       		.uleb128 0x4
 1395 0063 02       		.byte	0x2
 1396 0064 05       		.byte	0x5
 1397 0065 3F000000 		.4byte	.LASF6
 1398 0069 03       		.uleb128 0x3
 1399 006a 81000000 		.4byte	.LASF7
 1400 006e 03       		.byte	0x3
 1401 006f 2B       		.byte	0x2b
 1402 0070 74000000 		.4byte	0x74
 1403 0074 04       		.uleb128 0x4
 1404 0075 02       		.byte	0x2
 1405 0076 07       		.byte	0x7
 1406 0077 12030000 		.4byte	.LASF8
 1407 007b 03       		.uleb128 0x3
 1408 007c C4030000 		.4byte	.LASF9
 1409 0080 03       		.byte	0x3
 1410 0081 3F       		.byte	0x3f
 1411 0082 86000000 		.4byte	0x86
 1412 0086 04       		.uleb128 0x4
 1413 0087 04       		.byte	0x4
 1414 0088 05       		.byte	0x5
 1415 0089 2E020000 		.4byte	.LASF10
 1416 008d 03       		.uleb128 0x3
ARM GAS  /tmp/cc4PPDfd.s 			page 26


 1417 008e 61000000 		.4byte	.LASF11
 1418 0092 03       		.byte	0x3
 1419 0093 41       		.byte	0x41
 1420 0094 98000000 		.4byte	0x98
 1421 0098 04       		.uleb128 0x4
 1422 0099 04       		.byte	0x4
 1423 009a 07       		.byte	0x7
 1424 009b 9E030000 		.4byte	.LASF12
 1425 009f 04       		.uleb128 0x4
 1426 00a0 08       		.byte	0x8
 1427 00a1 05       		.byte	0x5
 1428 00a2 EB000000 		.4byte	.LASF13
 1429 00a6 04       		.uleb128 0x4
 1430 00a7 08       		.byte	0x8
 1431 00a8 07       		.byte	0x7
 1432 00a9 AC020000 		.4byte	.LASF14
 1433 00ad 03       		.uleb128 0x3
 1434 00ae A9000000 		.4byte	.LASF15
 1435 00b2 04       		.byte	0x4
 1436 00b3 15       		.byte	0x15
 1437 00b4 45000000 		.4byte	0x45
 1438 00b8 03       		.uleb128 0x3
 1439 00b9 75030000 		.4byte	.LASF16
 1440 00bd 04       		.byte	0x4
 1441 00be 20       		.byte	0x20
 1442 00bf 57000000 		.4byte	0x57
 1443 00c3 03       		.uleb128 0x3
 1444 00c4 EF020000 		.4byte	.LASF17
 1445 00c8 04       		.byte	0x4
 1446 00c9 21       		.byte	0x21
 1447 00ca 69000000 		.4byte	0x69
 1448 00ce 03       		.uleb128 0x3
 1449 00cf 66030000 		.4byte	.LASF18
 1450 00d3 04       		.byte	0x4
 1451 00d4 2C       		.byte	0x2c
 1452 00d5 7B000000 		.4byte	0x7b
 1453 00d9 03       		.uleb128 0x3
 1454 00da CB000000 		.4byte	.LASF19
 1455 00de 04       		.byte	0x4
 1456 00df 2D       		.byte	0x2d
 1457 00e0 8D000000 		.4byte	0x8d
 1458 00e4 03       		.uleb128 0x3
 1459 00e5 6E030000 		.4byte	.LASF20
 1460 00e9 05       		.byte	0x5
 1461 00ea 2B       		.byte	0x2b
 1462 00eb EF000000 		.4byte	0xef
 1463 00ef 04       		.uleb128 0x4
 1464 00f0 01       		.byte	0x1
 1465 00f1 02       		.byte	0x2
 1466 00f2 85030000 		.4byte	.LASF21
 1467 00f6 05       		.uleb128 0x5
 1468 00f7 04       		.byte	0x4
 1469 00f8 04       		.uleb128 0x4
 1470 00f9 04       		.byte	0x4
 1471 00fa 07       		.byte	0x7
 1472 00fb 50000000 		.4byte	.LASF22
 1473 00ff 06       		.uleb128 0x6
ARM GAS  /tmp/cc4PPDfd.s 			page 27


 1474 0100 04       		.byte	0x4
 1475 0101 05010000 		.4byte	0x105
 1476 0105 07       		.uleb128 0x7
 1477 0106 0A010000 		.4byte	0x10a
 1478 010a 04       		.uleb128 0x4
 1479 010b 01       		.byte	0x1
 1480 010c 08       		.byte	0x8
 1481 010d 61030000 		.4byte	.LASF23
 1482 0111 08       		.uleb128 0x8
 1483 0112 CE000000 		.4byte	0xce
 1484 0116 09       		.uleb128 0x9
 1485 0117 1D000000 		.4byte	.LASF24
 1486 011b 04       		.byte	0x4
 1487 011c 06       		.byte	0x6
 1488 011d 28       		.byte	0x28
 1489 011e 2F010000 		.4byte	0x12f
 1490 0122 0A       		.uleb128 0xa
 1491 0123 93040000 		.4byte	.LASF37
 1492 0127 06       		.byte	0x6
 1493 0128 29       		.byte	0x29
 1494 0129 2F010000 		.4byte	0x12f
 1495 012d 00       		.byte	0
 1496 012e 00       		.byte	0
 1497 012f 06       		.uleb128 0x6
 1498 0130 04       		.byte	0x4
 1499 0131 16010000 		.4byte	0x116
 1500 0135 03       		.uleb128 0x3
 1501 0136 1D000000 		.4byte	.LASF24
 1502 013a 06       		.byte	0x6
 1503 013b 2A       		.byte	0x2a
 1504 013c 16010000 		.4byte	0x116
 1505 0140 03       		.uleb128 0x3
 1506 0141 7D030000 		.4byte	.LASF25
 1507 0145 07       		.byte	0x7
 1508 0146 27       		.byte	0x27
 1509 0147 B8000000 		.4byte	0xb8
 1510 014b 0B       		.uleb128 0xb
 1511 014c 18020000 		.4byte	.LASF73
 1512 0150 01       		.byte	0x1
 1513 0151 07       		.byte	0x7
 1514 0152 3A       		.byte	0x3a
 1515 0153 7C010000 		.4byte	0x17c
 1516 0157 0C       		.uleb128 0xc
 1517 0158 EE030000 		.4byte	.LASF26
 1518 015c 00       		.sleb128 0
 1519 015d 0C       		.uleb128 0xc
 1520 015e 6C000000 		.4byte	.LASF27
 1521 0162 01       		.sleb128 1
 1522 0163 0C       		.uleb128 0xc
 1523 0164 75020000 		.4byte	.LASF28
 1524 0168 02       		.sleb128 2
 1525 0169 0C       		.uleb128 0xc
 1526 016a B1000000 		.4byte	.LASF29
 1527 016e 03       		.sleb128 3
 1528 016f 0C       		.uleb128 0xc
 1529 0170 05030000 		.4byte	.LASF30
 1530 0174 04       		.sleb128 4
ARM GAS  /tmp/cc4PPDfd.s 			page 28


 1531 0175 0C       		.uleb128 0xc
 1532 0176 94000000 		.4byte	.LASF31
 1533 017a 05       		.sleb128 5
 1534 017b 00       		.byte	0
 1535 017c 03       		.uleb128 0x3
 1536 017d 4B040000 		.4byte	.LASF32
 1537 0181 07       		.byte	0x7
 1538 0182 3E       		.byte	0x3e
 1539 0183 87010000 		.4byte	0x187
 1540 0187 06       		.uleb128 0x6
 1541 0188 04       		.byte	0x4
 1542 0189 8D010000 		.4byte	0x18d
 1543 018d 07       		.uleb128 0x7
 1544 018e 92010000 		.4byte	0x192
 1545 0192 0D       		.uleb128 0xd
 1546 0193 C1000000 		.4byte	.LASF34
 1547 0197 03       		.uleb128 0x3
 1548 0198 6C020000 		.4byte	.LASF33
 1549 019c 07       		.byte	0x7
 1550 019d 4D       		.byte	0x4d
 1551 019e A2010000 		.4byte	0x1a2
 1552 01a2 0D       		.uleb128 0xd
 1553 01a3 6C020000 		.4byte	.LASF33
 1554 01a7 0E       		.uleb128 0xe
 1555 01a8 A1000000 		.4byte	.LASF35
 1556 01ac 08       		.byte	0x8
 1557 01ad 9001     		.2byte	0x190
 1558 01af C3000000 		.4byte	0xc3
 1559 01b3 06       		.uleb128 0x6
 1560 01b4 04       		.byte	0x4
 1561 01b5 B9010000 		.4byte	0x1b9
 1562 01b9 09       		.uleb128 0x9
 1563 01ba 28040000 		.4byte	.LASF36
 1564 01be 20       		.byte	0x20
 1565 01bf 09       		.byte	0x9
 1566 01c0 26       		.byte	0x26
 1567 01c1 46020000 		.4byte	0x246
 1568 01c5 0F       		.uleb128 0xf
 1569 01c6 776D7100 		.ascii	"wmq\000"
 1570 01ca 09       		.byte	0x9
 1571 01cb 29       		.byte	0x29
 1572 01cc 35010000 		.4byte	0x135
 1573 01d0 00       		.byte	0
 1574 01d1 0F       		.uleb128 0xf
 1575 01d2 766D7400 		.ascii	"vmt\000"
 1576 01d6 09       		.byte	0x9
 1577 01d7 2B       		.byte	0x2b
 1578 01d8 8F020000 		.4byte	0x28f
 1579 01dc 04       		.byte	0x4
 1580 01dd 0A       		.uleb128 0xa
 1581 01de B7030000 		.4byte	.LASF38
 1582 01e2 09       		.byte	0x9
 1583 01e3 2C       		.byte	0x2c
 1584 01e4 9A020000 		.4byte	0x29a
 1585 01e8 08       		.byte	0x8
 1586 01e9 0F       		.uleb128 0xf
 1587 01ea 7800     		.ascii	"x\000"
ARM GAS  /tmp/cc4PPDfd.s 			page 29


 1588 01ec 09       		.byte	0x9
 1589 01ed 2D       		.byte	0x2d
 1590 01ee 40010000 		.4byte	0x140
 1591 01f2 0C       		.byte	0xc
 1592 01f3 0F       		.uleb128 0xf
 1593 01f4 7900     		.ascii	"y\000"
 1594 01f6 09       		.byte	0x9
 1595 01f7 2D       		.byte	0x2d
 1596 01f8 40010000 		.4byte	0x140
 1597 01fc 0E       		.byte	0xe
 1598 01fd 0A       		.uleb128 0xa
 1599 01fe E0000000 		.4byte	.LASF39
 1600 0202 09       		.byte	0x9
 1601 0203 2E       		.byte	0x2e
 1602 0204 40010000 		.4byte	0x140
 1603 0208 10       		.byte	0x10
 1604 0209 0A       		.uleb128 0xa
 1605 020a 8B030000 		.4byte	.LASF40
 1606 020e 09       		.byte	0x9
 1607 020f 2E       		.byte	0x2e
 1608 0210 40010000 		.4byte	0x140
 1609 0214 12       		.byte	0x12
 1610 0215 0A       		.uleb128 0xa
 1611 0216 17040000 		.4byte	.LASF41
 1612 021a 09       		.byte	0x9
 1613 021b 2F       		.byte	0x2f
 1614 021c A7010000 		.4byte	0x1a7
 1615 0220 14       		.byte	0x14
 1616 0221 0A       		.uleb128 0xa
 1617 0222 10000000 		.4byte	.LASF42
 1618 0226 09       		.byte	0x9
 1619 0227 2F       		.byte	0x2f
 1620 0228 A7010000 		.4byte	0x1a7
 1621 022c 16       		.byte	0x16
 1622 022d 0A       		.uleb128 0xa
 1623 022e A6020000 		.4byte	.LASF43
 1624 0232 09       		.byte	0x9
 1625 0233 30       		.byte	0x30
 1626 0234 D9000000 		.4byte	0xd9
 1627 0238 18       		.byte	0x18
 1628 0239 0A       		.uleb128 0xa
 1629 023a E6000000 		.4byte	.LASF44
 1630 023e 09       		.byte	0x9
 1631 023f 32       		.byte	0x32
 1632 0240 7C010000 		.4byte	0x17c
 1633 0244 1C       		.byte	0x1c
 1634 0245 00       		.byte	0
 1635 0246 09       		.uleb128 0x9
 1636 0247 DF030000 		.4byte	.LASF45
 1637 024b 14       		.byte	0x14
 1638 024c 0A       		.byte	0xa
 1639 024d 3B       		.byte	0x3b
 1640 024e 8F020000 		.4byte	0x28f
 1641 0252 0A       		.uleb128 0xa
 1642 0253 54020000 		.4byte	.LASF46
 1643 0257 0A       		.byte	0xa
 1644 0258 3C       		.byte	0x3c
ARM GAS  /tmp/cc4PPDfd.s 			page 30


 1645 0259 FF000000 		.4byte	0xff
 1646 025d 00       		.byte	0
 1647 025e 0A       		.uleb128 0xa
 1648 025f BF030000 		.4byte	.LASF47
 1649 0263 0A       		.byte	0xa
 1650 0264 3D       		.byte	0x3d
 1651 0265 2C000000 		.4byte	0x2c
 1652 0269 04       		.byte	0x4
 1653 026a 0A       		.uleb128 0xa
 1654 026b 59000000 		.4byte	.LASF48
 1655 026f 0A       		.byte	0xa
 1656 0270 3E       		.byte	0x3e
 1657 0271 4A030000 		.4byte	0x34a
 1658 0275 08       		.byte	0x8
 1659 0276 0A       		.uleb128 0xa
 1660 0277 B0030000 		.4byte	.LASF49
 1661 027b 0A       		.byte	0xa
 1662 027c 3F       		.byte	0x3f
 1663 027d 4A030000 		.4byte	0x34a
 1664 0281 0C       		.byte	0xc
 1665 0282 0A       		.uleb128 0xa
 1666 0283 C3020000 		.4byte	.LASF50
 1667 0287 0A       		.byte	0xa
 1668 0288 40       		.byte	0x40
 1669 0289 4A030000 		.4byte	0x34a
 1670 028d 10       		.byte	0x10
 1671 028e 00       		.byte	0
 1672 028f 06       		.uleb128 0x6
 1673 0290 04       		.byte	0x4
 1674 0291 95020000 		.4byte	0x295
 1675 0295 07       		.uleb128 0x7
 1676 0296 46020000 		.4byte	0x246
 1677 029a 06       		.uleb128 0x6
 1678 029b 04       		.byte	0x4
 1679 029c 97010000 		.4byte	0x197
 1680 02a0 03       		.uleb128 0x3
 1681 02a1 28040000 		.4byte	.LASF36
 1682 02a5 09       		.byte	0x9
 1683 02a6 37       		.byte	0x37
 1684 02a7 B9010000 		.4byte	0x1b9
 1685 02ab 09       		.uleb128 0x9
 1686 02ac 92030000 		.4byte	.LASF51
 1687 02b0 0A       		.byte	0xa
 1688 02b1 09       		.byte	0x9
 1689 02b2 46       		.byte	0x46
 1690 02b3 F0020000 		.4byte	0x2f0
 1691 02b7 0F       		.uleb128 0xf
 1692 02b8 7800     		.ascii	"x\000"
 1693 02ba 09       		.byte	0x9
 1694 02bb 47       		.byte	0x47
 1695 02bc 40010000 		.4byte	0x140
 1696 02c0 00       		.byte	0
 1697 02c1 0F       		.uleb128 0xf
 1698 02c2 7900     		.ascii	"y\000"
 1699 02c4 09       		.byte	0x9
 1700 02c5 47       		.byte	0x47
 1701 02c6 40010000 		.4byte	0x140
ARM GAS  /tmp/cc4PPDfd.s 			page 31


 1702 02ca 02       		.byte	0x2
 1703 02cb 0A       		.uleb128 0xa
 1704 02cc E0000000 		.4byte	.LASF39
 1705 02d0 09       		.byte	0x9
 1706 02d1 48       		.byte	0x48
 1707 02d2 40010000 		.4byte	0x140
 1708 02d6 04       		.byte	0x4
 1709 02d7 0A       		.uleb128 0xa
 1710 02d8 8B030000 		.4byte	.LASF40
 1711 02dc 09       		.byte	0x9
 1712 02dd 48       		.byte	0x48
 1713 02de 40010000 		.4byte	0x140
 1714 02e2 06       		.byte	0x6
 1715 02e3 0A       		.uleb128 0xa
 1716 02e4 18000000 		.4byte	.LASF52
 1717 02e8 09       		.byte	0x9
 1718 02e9 49       		.byte	0x49
 1719 02ea E4000000 		.4byte	0xe4
 1720 02ee 08       		.byte	0x8
 1721 02ef 00       		.byte	0
 1722 02f0 03       		.uleb128 0x3
 1723 02f1 92030000 		.4byte	.LASF51
 1724 02f5 09       		.byte	0x9
 1725 02f6 4D       		.byte	0x4d
 1726 02f7 AB020000 		.4byte	0x2ab
 1727 02fb 09       		.uleb128 0x9
 1728 02fc 08040000 		.4byte	.LASF53
 1729 0300 24       		.byte	0x24
 1730 0301 0B       		.byte	0xb
 1731 0302 1E       		.byte	0x1e
 1732 0303 28030000 		.4byte	0x328
 1733 0307 0F       		.uleb128 0xf
 1734 0308 6700     		.ascii	"g\000"
 1735 030a 0B       		.byte	0xb
 1736 030b 1F       		.byte	0x1f
 1737 030c A0020000 		.4byte	0x2a0
 1738 0310 00       		.byte	0
 1739 0311 0F       		.uleb128 0xf
 1740 0312 637800   		.ascii	"cx\000"
 1741 0315 0B       		.byte	0xb
 1742 0316 20       		.byte	0x20
 1743 0317 40010000 		.4byte	0x140
 1744 031b 20       		.byte	0x20
 1745 031c 0F       		.uleb128 0xf
 1746 031d 637900   		.ascii	"cy\000"
 1747 0320 0B       		.byte	0xb
 1748 0321 20       		.byte	0x20
 1749 0322 40010000 		.4byte	0x140
 1750 0326 22       		.byte	0x22
 1751 0327 00       		.byte	0
 1752 0328 03       		.uleb128 0x3
 1753 0329 08040000 		.4byte	.LASF53
 1754 032d 0B       		.byte	0xb
 1755 032e 35       		.byte	0x35
 1756 032f FB020000 		.4byte	0x2fb
 1757 0333 06       		.uleb128 0x6
 1758 0334 04       		.byte	0x4
ARM GAS  /tmp/cc4PPDfd.s 			page 32


 1759 0335 0A010000 		.4byte	0x10a
 1760 0339 10       		.uleb128 0x10
 1761 033a 44030000 		.4byte	0x344
 1762 033e 11       		.uleb128 0x11
 1763 033f 44030000 		.4byte	0x344
 1764 0343 00       		.byte	0
 1765 0344 06       		.uleb128 0x6
 1766 0345 04       		.byte	0x4
 1767 0346 A0020000 		.4byte	0x2a0
 1768 034a 06       		.uleb128 0x6
 1769 034b 04       		.byte	0x4
 1770 034c 39030000 		.4byte	0x339
 1771 0350 03       		.uleb128 0x3
 1772 0351 DF030000 		.4byte	.LASF45
 1773 0355 0A       		.byte	0xa
 1774 0356 41       		.byte	0x41
 1775 0357 46020000 		.4byte	0x246
 1776 035b 06       		.uleb128 0x6
 1777 035c 04       		.byte	0x4
 1778 035d 61030000 		.4byte	0x361
 1779 0361 07       		.uleb128 0x7
 1780 0362 F0020000 		.4byte	0x2f0
 1781 0366 03       		.uleb128 0x3
 1782 0367 F9030000 		.4byte	.LASF54
 1783 036b 0C       		.byte	0xc
 1784 036c 28       		.byte	0x28
 1785 036d 71030000 		.4byte	0x371
 1786 0371 09       		.uleb128 0x9
 1787 0372 0E020000 		.4byte	.LASF55
 1788 0376 04       		.byte	0x4
 1789 0377 0D       		.byte	0xd
 1790 0378 00       		.byte	0
 1791 0379 88030000 		.4byte	0x388
 1792 037d 12       		.uleb128 0x12
 1793 037e 5C030000 		.4byte	.LASF74
 1794 0382 F6000000 		.4byte	0xf6
 1795 0386 00       		.byte	0
 1796 0387 00       		.byte	0
 1797 0388 03       		.uleb128 0x3
 1798 0389 8C000000 		.4byte	.LASF56
 1799 038d 0C       		.byte	0xc
 1800 038e 62       		.byte	0x62
 1801 038f 66030000 		.4byte	0x366
 1802 0393 13       		.uleb128 0x13
 1803 0394 C3020000 		.4byte	.LASF50
 1804 0398 01       		.byte	0x1
 1805 0399 2901     		.2byte	0x129
 1806 039b 00000000 		.4byte	.LFB111
 1807 039f 14000000 		.4byte	.LFE111-.LFB111
 1808 03a3 01       		.uleb128 0x1
 1809 03a4 9C       		.byte	0x9c
 1810 03a5 B8030000 		.4byte	0x3b8
 1811 03a9 14       		.uleb128 0x14
 1812 03aa 676800   		.ascii	"gh\000"
 1813 03ad 01       		.byte	0x1
 1814 03ae 2901     		.2byte	0x129
 1815 03b0 44030000 		.4byte	0x344
ARM GAS  /tmp/cc4PPDfd.s 			page 33


 1816 03b4 02       		.uleb128 0x2
 1817 03b5 91       		.byte	0x91
 1818 03b6 7C       		.sleb128 -4
 1819 03b7 00       		.byte	0
 1820 03b8 15       		.uleb128 0x15
 1821 03b9 85020000 		.4byte	.LASF75
 1822 03bd 01       		.byte	0x1
 1823 03be 4101     		.2byte	0x141
 1824 03c0 B3010000 		.4byte	0x1b3
 1825 03c4 00000000 		.4byte	.LFB112
 1826 03c8 50000000 		.4byte	.LFE112-.LFB112
 1827 03cc 01       		.uleb128 0x1
 1828 03cd 9C       		.byte	0x9c
 1829 03ce FD030000 		.4byte	0x3fd
 1830 03d2 14       		.uleb128 0x14
 1831 03d3 6700     		.ascii	"g\000"
 1832 03d5 01       		.byte	0x1
 1833 03d6 4101     		.2byte	0x141
 1834 03d8 9A020000 		.4byte	0x29a
 1835 03dc 02       		.uleb128 0x2
 1836 03dd 91       		.byte	0x91
 1837 03de 74       		.sleb128 -12
 1838 03df 14       		.uleb128 0x14
 1839 03e0 676300   		.ascii	"gc\000"
 1840 03e3 01       		.byte	0x1
 1841 03e4 4101     		.2byte	0x141
 1842 03e6 FD030000 		.4byte	0x3fd
 1843 03ea 02       		.uleb128 0x2
 1844 03eb 91       		.byte	0x91
 1845 03ec 70       		.sleb128 -16
 1846 03ed 16       		.uleb128 0x16
 1847 03ee 00000000 		.4byte	.LASF57
 1848 03f2 01       		.byte	0x1
 1849 03f3 4101     		.2byte	0x141
 1850 03f5 5B030000 		.4byte	0x35b
 1851 03f9 02       		.uleb128 0x2
 1852 03fa 91       		.byte	0x91
 1853 03fb 6C       		.sleb128 -20
 1854 03fc 00       		.byte	0
 1855 03fd 06       		.uleb128 0x6
 1856 03fe 04       		.byte	0x4
 1857 03ff 28030000 		.4byte	0x328
 1858 0403 17       		.uleb128 0x17
 1859 0404 CE020000 		.4byte	.LASF58
 1860 0408 01       		.byte	0x1
 1861 0409 9E01     		.2byte	0x19e
 1862 040b 00000000 		.4byte	.LFB113
 1863 040f 94020000 		.4byte	.LFE113-.LFB113
 1864 0413 01       		.uleb128 0x1
 1865 0414 9C       		.byte	0x9c
 1866 0415 52040000 		.4byte	0x452
 1867 0419 14       		.uleb128 0x14
 1868 041a 676800   		.ascii	"gh\000"
 1869 041d 01       		.byte	0x1
 1870 041e 9E01     		.2byte	0x19e
 1871 0420 B3010000 		.4byte	0x1b3
 1872 0424 02       		.uleb128 0x2
ARM GAS  /tmp/cc4PPDfd.s 			page 34


 1873 0425 91       		.byte	0x91
 1874 0426 64       		.sleb128 -28
 1875 0427 14       		.uleb128 0x14
 1876 0428 6300     		.ascii	"c\000"
 1877 042a 01       		.byte	0x1
 1878 042b 9E01     		.2byte	0x19e
 1879 042d 0A010000 		.4byte	0x10a
 1880 0431 02       		.uleb128 0x2
 1881 0432 91       		.byte	0x91
 1882 0433 63       		.sleb128 -29
 1883 0434 18       		.uleb128 0x18
 1884 0435 E0000000 		.4byte	.LASF39
 1885 0439 01       		.byte	0x1
 1886 043a A001     		.2byte	0x1a0
 1887 043c AD000000 		.4byte	0xad
 1888 0440 02       		.uleb128 0x2
 1889 0441 91       		.byte	0x91
 1890 0442 6E       		.sleb128 -18
 1891 0443 19       		.uleb128 0x19
 1892 0444 667900   		.ascii	"fy\000"
 1893 0447 01       		.byte	0x1
 1894 0448 A001     		.2byte	0x1a0
 1895 044a AD000000 		.4byte	0xad
 1896 044e 02       		.uleb128 0x2
 1897 044f 91       		.byte	0x91
 1898 0450 6F       		.sleb128 -17
 1899 0451 00       		.byte	0
 1900 0452 17       		.uleb128 0x17
 1901 0453 98020000 		.4byte	.LASF59
 1902 0457 01       		.byte	0x1
 1903 0458 5702     		.2byte	0x257
 1904 045a 00000000 		.4byte	.LFB114
 1905 045e 28000000 		.4byte	.LFE114-.LFB114
 1906 0462 01       		.uleb128 0x1
 1907 0463 9C       		.byte	0x9c
 1908 0464 86040000 		.4byte	0x486
 1909 0468 14       		.uleb128 0x14
 1910 0469 676800   		.ascii	"gh\000"
 1911 046c 01       		.byte	0x1
 1912 046d 5702     		.2byte	0x257
 1913 046f B3010000 		.4byte	0x1b3
 1914 0473 02       		.uleb128 0x2
 1915 0474 91       		.byte	0x91
 1916 0475 74       		.sleb128 -12
 1917 0476 14       		.uleb128 0x14
 1918 0477 73747200 		.ascii	"str\000"
 1919 047b 01       		.byte	0x1
 1920 047c 5702     		.2byte	0x257
 1921 047e FF000000 		.4byte	0xff
 1922 0482 02       		.uleb128 0x2
 1923 0483 91       		.byte	0x91
 1924 0484 70       		.sleb128 -16
 1925 0485 00       		.byte	0
 1926 0486 17       		.uleb128 0x17
 1927 0487 CE030000 		.4byte	.LASF60
 1928 048b 01       		.byte	0x1
 1929 048c 5C02     		.2byte	0x25c
ARM GAS  /tmp/cc4PPDfd.s 			page 35


 1930 048e 00000000 		.4byte	.LFB115
 1931 0492 2C000000 		.4byte	.LFE115-.LFB115
 1932 0496 01       		.uleb128 0x1
 1933 0497 9C       		.byte	0x9c
 1934 0498 C7040000 		.4byte	0x4c7
 1935 049c 14       		.uleb128 0x14
 1936 049d 676800   		.ascii	"gh\000"
 1937 04a0 01       		.byte	0x1
 1938 04a1 5C02     		.2byte	0x25c
 1939 04a3 B3010000 		.4byte	0x1b3
 1940 04a7 02       		.uleb128 0x2
 1941 04a8 91       		.byte	0x91
 1942 04a9 74       		.sleb128 -12
 1943 04aa 14       		.uleb128 0x14
 1944 04ab 73747200 		.ascii	"str\000"
 1945 04af 01       		.byte	0x1
 1946 04b0 5C02     		.2byte	0x25c
 1947 04b2 FF000000 		.4byte	0xff
 1948 04b6 02       		.uleb128 0x2
 1949 04b7 91       		.byte	0x91
 1950 04b8 70       		.sleb128 -16
 1951 04b9 14       		.uleb128 0x14
 1952 04ba 6E00     		.ascii	"n\000"
 1953 04bc 01       		.byte	0x1
 1954 04bd 5C02     		.2byte	0x25c
 1955 04bf 2C000000 		.4byte	0x2c
 1956 04c3 02       		.uleb128 0x2
 1957 04c4 91       		.byte	0x91
 1958 04c5 6C       		.sleb128 -20
 1959 04c6 00       		.byte	0
 1960 04c7 1A       		.uleb128 0x1a
 1961 04c8 DA020000 		.4byte	.LASF76
 1962 04cc 01       		.byte	0x1
 1963 04cd 6602     		.2byte	0x266
 1964 04cf 33030000 		.4byte	0x333
 1965 04d3 00000000 		.4byte	.LFB116
 1966 04d7 96000000 		.4byte	.LFE116-.LFB116
 1967 04db 01       		.uleb128 0x1
 1968 04dc 9C       		.byte	0x9c
 1969 04dd 36050000 		.4byte	0x536
 1970 04e1 14       		.uleb128 0x14
 1971 04e2 7000     		.ascii	"p\000"
 1972 04e4 01       		.byte	0x1
 1973 04e5 6602     		.2byte	0x266
 1974 04e7 33030000 		.4byte	0x333
 1975 04eb 02       		.uleb128 0x2
 1976 04ec 91       		.byte	0x91
 1977 04ed 74       		.sleb128 -12
 1978 04ee 14       		.uleb128 0x14
 1979 04ef 6E756D00 		.ascii	"num\000"
 1980 04f3 01       		.byte	0x1
 1981 04f4 6602     		.2byte	0x266
 1982 04f6 86000000 		.4byte	0x86
 1983 04fa 02       		.uleb128 0x2
 1984 04fb 91       		.byte	0x91
 1985 04fc 70       		.sleb128 -16
 1986 04fd 16       		.uleb128 0x16
ARM GAS  /tmp/cc4PPDfd.s 			page 36


 1987 04fe FF020000 		.4byte	.LASF61
 1988 0502 01       		.byte	0x1
 1989 0503 6602     		.2byte	0x266
 1990 0505 37000000 		.4byte	0x37
 1991 0509 02       		.uleb128 0x2
 1992 050a 91       		.byte	0x91
 1993 050b 6C       		.sleb128 -20
 1994 050c 16       		.uleb128 0x16
 1995 050d 36040000 		.4byte	.LASF62
 1996 0511 01       		.byte	0x1
 1997 0512 6602     		.2byte	0x266
 1998 0514 86000000 		.4byte	0x86
 1999 0518 02       		.uleb128 0x2
 2000 0519 91       		.byte	0x91
 2001 051a 68       		.sleb128 -24
 2002 051b 19       		.uleb128 0x19
 2003 051c 6900     		.ascii	"i\000"
 2004 051e 01       		.byte	0x1
 2005 051f 6702     		.2byte	0x267
 2006 0521 25000000 		.4byte	0x25
 2007 0525 02       		.uleb128 0x2
 2008 0526 91       		.byte	0x91
 2009 0527 7C       		.sleb128 -4
 2010 0528 19       		.uleb128 0x19
 2011 0529 7100     		.ascii	"q\000"
 2012 052b 01       		.byte	0x1
 2013 052c 6802     		.2byte	0x268
 2014 052e 33030000 		.4byte	0x333
 2015 0532 02       		.uleb128 0x2
 2016 0533 91       		.byte	0x91
 2017 0534 78       		.sleb128 -8
 2018 0535 00       		.byte	0
 2019 0536 17       		.uleb128 0x17
 2020 0537 41020000 		.4byte	.LASF63
 2021 053b 01       		.byte	0x1
 2022 053c 8B02     		.2byte	0x28b
 2023 053e 00000000 		.4byte	.LFB117
 2024 0542 3C040000 		.4byte	.LFE117-.LFB117
 2025 0546 01       		.uleb128 0x1
 2026 0547 9C       		.byte	0x9c
 2027 0548 21060000 		.4byte	0x621
 2028 054c 14       		.uleb128 0x14
 2029 054d 676800   		.ascii	"gh\000"
 2030 0550 01       		.byte	0x1
 2031 0551 8B02     		.2byte	0x28b
 2032 0553 B3010000 		.4byte	0x1b3
 2033 0557 03       		.uleb128 0x3
 2034 0558 91       		.byte	0x91
 2035 0559 BC7F     		.sleb128 -68
 2036 055b 14       		.uleb128 0x14
 2037 055c 666D7400 		.ascii	"fmt\000"
 2038 0560 01       		.byte	0x1
 2039 0561 8B02     		.2byte	0x28b
 2040 0563 FF000000 		.4byte	0xff
 2041 0567 02       		.uleb128 0x2
 2042 0568 91       		.byte	0x91
 2043 0569 74       		.sleb128 -12
ARM GAS  /tmp/cc4PPDfd.s 			page 37


 2044 056a 1B       		.uleb128 0x1b
 2045 056b 19       		.uleb128 0x19
 2046 056c 617000   		.ascii	"ap\000"
 2047 056f 01       		.byte	0x1
 2048 0570 8C02     		.2byte	0x28c
 2049 0572 88030000 		.4byte	0x388
 2050 0576 02       		.uleb128 0x2
 2051 0577 91       		.byte	0x91
 2052 0578 4C       		.sleb128 -52
 2053 0579 19       		.uleb128 0x19
 2054 057a 7000     		.ascii	"p\000"
 2055 057c 01       		.byte	0x1
 2056 057d 8D02     		.2byte	0x28d
 2057 057f 33030000 		.4byte	0x333
 2058 0583 02       		.uleb128 0x2
 2059 0584 91       		.byte	0x91
 2060 0585 6C       		.sleb128 -20
 2061 0586 19       		.uleb128 0x19
 2062 0587 7300     		.ascii	"s\000"
 2063 0589 01       		.byte	0x1
 2064 058a 8D02     		.2byte	0x28d
 2065 058c 33030000 		.4byte	0x333
 2066 0590 02       		.uleb128 0x2
 2067 0591 91       		.byte	0x91
 2068 0592 68       		.sleb128 -24
 2069 0593 19       		.uleb128 0x19
 2070 0594 6300     		.ascii	"c\000"
 2071 0596 01       		.byte	0x1
 2072 0597 8D02     		.2byte	0x28d
 2073 0599 0A010000 		.4byte	0x10a
 2074 059d 02       		.uleb128 0x2
 2075 059e 91       		.byte	0x91
 2076 059f 67       		.sleb128 -25
 2077 05a0 18       		.uleb128 0x18
 2078 05a1 E7030000 		.4byte	.LASF64
 2079 05a5 01       		.byte	0x1
 2080 05a6 8D02     		.2byte	0x28d
 2081 05a8 0A010000 		.4byte	0x10a
 2082 05ac 02       		.uleb128 0x2
 2083 05ad 91       		.byte	0x91
 2084 05ae 66       		.sleb128 -26
 2085 05af 19       		.uleb128 0x19
 2086 05b0 6900     		.ascii	"i\000"
 2087 05b2 01       		.byte	0x1
 2088 05b3 8E02     		.2byte	0x28e
 2089 05b5 25000000 		.4byte	0x25
 2090 05b9 02       		.uleb128 0x2
 2091 05ba 91       		.byte	0x91
 2092 05bb 60       		.sleb128 -32
 2093 05bc 18       		.uleb128 0x18
 2094 05bd 89040000 		.4byte	.LASF65
 2095 05c1 01       		.byte	0x1
 2096 05c2 8E02     		.2byte	0x28e
 2097 05c4 25000000 		.4byte	0x25
 2098 05c8 02       		.uleb128 0x2
 2099 05c9 91       		.byte	0x91
 2100 05ca 5C       		.sleb128 -36
ARM GAS  /tmp/cc4PPDfd.s 			page 38


 2101 05cb 18       		.uleb128 0x18
 2102 05cc E0000000 		.4byte	.LASF39
 2103 05d0 01       		.byte	0x1
 2104 05d1 8E02     		.2byte	0x28e
 2105 05d3 25000000 		.4byte	0x25
 2106 05d7 02       		.uleb128 0x2
 2107 05d8 91       		.byte	0x91
 2108 05d9 58       		.sleb128 -40
 2109 05da 18       		.uleb128 0x18
 2110 05db 4C020000 		.4byte	.LASF66
 2111 05df 01       		.byte	0x1
 2112 05e0 8F02     		.2byte	0x28f
 2113 05e2 E4000000 		.4byte	0xe4
 2114 05e6 02       		.uleb128 0x2
 2115 05e7 91       		.byte	0x91
 2116 05e8 57       		.sleb128 -41
 2117 05e9 18       		.uleb128 0x18
 2118 05ea 23020000 		.4byte	.LASF67
 2119 05ee 01       		.byte	0x1
 2120 05ef 8F02     		.2byte	0x28f
 2121 05f1 E4000000 		.4byte	0xe4
 2122 05f5 02       		.uleb128 0x2
 2123 05f6 91       		.byte	0x91
 2124 05f7 56       		.sleb128 -42
 2125 05f8 19       		.uleb128 0x19
 2126 05f9 6C00     		.ascii	"l\000"
 2127 05fb 01       		.byte	0x1
 2128 05fc 9002     		.2byte	0x290
 2129 05fe 86000000 		.4byte	0x86
 2130 0602 02       		.uleb128 0x2
 2131 0603 91       		.byte	0x91
 2132 0604 50       		.sleb128 -48
 2133 0605 18       		.uleb128 0x18
 2134 0606 F8020000 		.4byte	.LASF68
 2135 060a 01       		.byte	0x1
 2136 060b 9502     		.2byte	0x295
 2137 060d 21060000 		.4byte	0x621
 2138 0611 02       		.uleb128 0x2
 2139 0612 91       		.byte	0x91
 2140 0613 40       		.sleb128 -64
 2141 0614 1C       		.uleb128 0x1c
 2142 0615 2F000000 		.4byte	.LASF77
 2143 0619 01       		.byte	0x1
 2144 061a 0403     		.2byte	0x304
 2145 061c 46030000 		.4byte	.L82
 2146 0620 00       		.byte	0
 2147 0621 1D       		.uleb128 0x1d
 2148 0622 0A010000 		.4byte	0x10a
 2149 0626 31060000 		.4byte	0x631
 2150 062a 1E       		.uleb128 0x1e
 2151 062b F8000000 		.4byte	0xf8
 2152 062f 0B       		.byte	0xb
 2153 0630 00       		.byte	0
 2154 0631 18       		.uleb128 0x18
 2155 0632 1D040000 		.4byte	.LASF69
 2156 0636 01       		.byte	0x1
 2157 0637 3401     		.2byte	0x134
ARM GAS  /tmp/cc4PPDfd.s 			page 39


 2158 0639 43060000 		.4byte	0x643
 2159 063d 05       		.uleb128 0x5
 2160 063e 03       		.byte	0x3
 2161 063f 00000000 		.4byte	consoleVMT
 2162 0643 07       		.uleb128 0x7
 2163 0644 50030000 		.4byte	0x350
 2164 0648 1F       		.uleb128 0x1f
 2165 0649 3E040000 		.4byte	.LASF78
 2166 064d 0E       		.byte	0xe
 2167 064e 9806     		.2byte	0x698
 2168 0650 11010000 		.4byte	0x111
 2169 0654 00       		.byte	0
 2170              		.section	.debug_abbrev,"",%progbits
 2171              	.Ldebug_abbrev0:
 2172 0000 01       		.uleb128 0x1
 2173 0001 11       		.uleb128 0x11
 2174 0002 01       		.byte	0x1
 2175 0003 25       		.uleb128 0x25
 2176 0004 0E       		.uleb128 0xe
 2177 0005 13       		.uleb128 0x13
 2178 0006 0B       		.uleb128 0xb
 2179 0007 03       		.uleb128 0x3
 2180 0008 0E       		.uleb128 0xe
 2181 0009 1B       		.uleb128 0x1b
 2182 000a 0E       		.uleb128 0xe
 2183 000b 55       		.uleb128 0x55
 2184 000c 17       		.uleb128 0x17
 2185 000d 11       		.uleb128 0x11
 2186 000e 01       		.uleb128 0x1
 2187 000f 10       		.uleb128 0x10
 2188 0010 17       		.uleb128 0x17
 2189 0011 00       		.byte	0
 2190 0012 00       		.byte	0
 2191 0013 02       		.uleb128 0x2
 2192 0014 24       		.uleb128 0x24
 2193 0015 00       		.byte	0
 2194 0016 0B       		.uleb128 0xb
 2195 0017 0B       		.uleb128 0xb
 2196 0018 3E       		.uleb128 0x3e
 2197 0019 0B       		.uleb128 0xb
 2198 001a 03       		.uleb128 0x3
 2199 001b 08       		.uleb128 0x8
 2200 001c 00       		.byte	0
 2201 001d 00       		.byte	0
 2202 001e 03       		.uleb128 0x3
 2203 001f 16       		.uleb128 0x16
 2204 0020 00       		.byte	0
 2205 0021 03       		.uleb128 0x3
 2206 0022 0E       		.uleb128 0xe
 2207 0023 3A       		.uleb128 0x3a
 2208 0024 0B       		.uleb128 0xb
 2209 0025 3B       		.uleb128 0x3b
 2210 0026 0B       		.uleb128 0xb
 2211 0027 49       		.uleb128 0x49
 2212 0028 13       		.uleb128 0x13
 2213 0029 00       		.byte	0
 2214 002a 00       		.byte	0
ARM GAS  /tmp/cc4PPDfd.s 			page 40


 2215 002b 04       		.uleb128 0x4
 2216 002c 24       		.uleb128 0x24
 2217 002d 00       		.byte	0
 2218 002e 0B       		.uleb128 0xb
 2219 002f 0B       		.uleb128 0xb
 2220 0030 3E       		.uleb128 0x3e
 2221 0031 0B       		.uleb128 0xb
 2222 0032 03       		.uleb128 0x3
 2223 0033 0E       		.uleb128 0xe
 2224 0034 00       		.byte	0
 2225 0035 00       		.byte	0
 2226 0036 05       		.uleb128 0x5
 2227 0037 0F       		.uleb128 0xf
 2228 0038 00       		.byte	0
 2229 0039 0B       		.uleb128 0xb
 2230 003a 0B       		.uleb128 0xb
 2231 003b 00       		.byte	0
 2232 003c 00       		.byte	0
 2233 003d 06       		.uleb128 0x6
 2234 003e 0F       		.uleb128 0xf
 2235 003f 00       		.byte	0
 2236 0040 0B       		.uleb128 0xb
 2237 0041 0B       		.uleb128 0xb
 2238 0042 49       		.uleb128 0x49
 2239 0043 13       		.uleb128 0x13
 2240 0044 00       		.byte	0
 2241 0045 00       		.byte	0
 2242 0046 07       		.uleb128 0x7
 2243 0047 26       		.uleb128 0x26
 2244 0048 00       		.byte	0
 2245 0049 49       		.uleb128 0x49
 2246 004a 13       		.uleb128 0x13
 2247 004b 00       		.byte	0
 2248 004c 00       		.byte	0
 2249 004d 08       		.uleb128 0x8
 2250 004e 35       		.uleb128 0x35
 2251 004f 00       		.byte	0
 2252 0050 49       		.uleb128 0x49
 2253 0051 13       		.uleb128 0x13
 2254 0052 00       		.byte	0
 2255 0053 00       		.byte	0
 2256 0054 09       		.uleb128 0x9
 2257 0055 13       		.uleb128 0x13
 2258 0056 01       		.byte	0x1
 2259 0057 03       		.uleb128 0x3
 2260 0058 0E       		.uleb128 0xe
 2261 0059 0B       		.uleb128 0xb
 2262 005a 0B       		.uleb128 0xb
 2263 005b 3A       		.uleb128 0x3a
 2264 005c 0B       		.uleb128 0xb
 2265 005d 3B       		.uleb128 0x3b
 2266 005e 0B       		.uleb128 0xb
 2267 005f 01       		.uleb128 0x1
 2268 0060 13       		.uleb128 0x13
 2269 0061 00       		.byte	0
 2270 0062 00       		.byte	0
 2271 0063 0A       		.uleb128 0xa
ARM GAS  /tmp/cc4PPDfd.s 			page 41


 2272 0064 0D       		.uleb128 0xd
 2273 0065 00       		.byte	0
 2274 0066 03       		.uleb128 0x3
 2275 0067 0E       		.uleb128 0xe
 2276 0068 3A       		.uleb128 0x3a
 2277 0069 0B       		.uleb128 0xb
 2278 006a 3B       		.uleb128 0x3b
 2279 006b 0B       		.uleb128 0xb
 2280 006c 49       		.uleb128 0x49
 2281 006d 13       		.uleb128 0x13
 2282 006e 38       		.uleb128 0x38
 2283 006f 0B       		.uleb128 0xb
 2284 0070 00       		.byte	0
 2285 0071 00       		.byte	0
 2286 0072 0B       		.uleb128 0xb
 2287 0073 04       		.uleb128 0x4
 2288 0074 01       		.byte	0x1
 2289 0075 03       		.uleb128 0x3
 2290 0076 0E       		.uleb128 0xe
 2291 0077 0B       		.uleb128 0xb
 2292 0078 0B       		.uleb128 0xb
 2293 0079 3A       		.uleb128 0x3a
 2294 007a 0B       		.uleb128 0xb
 2295 007b 3B       		.uleb128 0x3b
 2296 007c 0B       		.uleb128 0xb
 2297 007d 01       		.uleb128 0x1
 2298 007e 13       		.uleb128 0x13
 2299 007f 00       		.byte	0
 2300 0080 00       		.byte	0
 2301 0081 0C       		.uleb128 0xc
 2302 0082 28       		.uleb128 0x28
 2303 0083 00       		.byte	0
 2304 0084 03       		.uleb128 0x3
 2305 0085 0E       		.uleb128 0xe
 2306 0086 1C       		.uleb128 0x1c
 2307 0087 0D       		.uleb128 0xd
 2308 0088 00       		.byte	0
 2309 0089 00       		.byte	0
 2310 008a 0D       		.uleb128 0xd
 2311 008b 13       		.uleb128 0x13
 2312 008c 00       		.byte	0
 2313 008d 03       		.uleb128 0x3
 2314 008e 0E       		.uleb128 0xe
 2315 008f 3C       		.uleb128 0x3c
 2316 0090 19       		.uleb128 0x19
 2317 0091 00       		.byte	0
 2318 0092 00       		.byte	0
 2319 0093 0E       		.uleb128 0xe
 2320 0094 16       		.uleb128 0x16
 2321 0095 00       		.byte	0
 2322 0096 03       		.uleb128 0x3
 2323 0097 0E       		.uleb128 0xe
 2324 0098 3A       		.uleb128 0x3a
 2325 0099 0B       		.uleb128 0xb
 2326 009a 3B       		.uleb128 0x3b
 2327 009b 05       		.uleb128 0x5
 2328 009c 49       		.uleb128 0x49
ARM GAS  /tmp/cc4PPDfd.s 			page 42


 2329 009d 13       		.uleb128 0x13
 2330 009e 00       		.byte	0
 2331 009f 00       		.byte	0
 2332 00a0 0F       		.uleb128 0xf
 2333 00a1 0D       		.uleb128 0xd
 2334 00a2 00       		.byte	0
 2335 00a3 03       		.uleb128 0x3
 2336 00a4 08       		.uleb128 0x8
 2337 00a5 3A       		.uleb128 0x3a
 2338 00a6 0B       		.uleb128 0xb
 2339 00a7 3B       		.uleb128 0x3b
 2340 00a8 0B       		.uleb128 0xb
 2341 00a9 49       		.uleb128 0x49
 2342 00aa 13       		.uleb128 0x13
 2343 00ab 38       		.uleb128 0x38
 2344 00ac 0B       		.uleb128 0xb
 2345 00ad 00       		.byte	0
 2346 00ae 00       		.byte	0
 2347 00af 10       		.uleb128 0x10
 2348 00b0 15       		.uleb128 0x15
 2349 00b1 01       		.byte	0x1
 2350 00b2 27       		.uleb128 0x27
 2351 00b3 19       		.uleb128 0x19
 2352 00b4 01       		.uleb128 0x1
 2353 00b5 13       		.uleb128 0x13
 2354 00b6 00       		.byte	0
 2355 00b7 00       		.byte	0
 2356 00b8 11       		.uleb128 0x11
 2357 00b9 05       		.uleb128 0x5
 2358 00ba 00       		.byte	0
 2359 00bb 49       		.uleb128 0x49
 2360 00bc 13       		.uleb128 0x13
 2361 00bd 00       		.byte	0
 2362 00be 00       		.byte	0
 2363 00bf 12       		.uleb128 0x12
 2364 00c0 0D       		.uleb128 0xd
 2365 00c1 00       		.byte	0
 2366 00c2 03       		.uleb128 0x3
 2367 00c3 0E       		.uleb128 0xe
 2368 00c4 49       		.uleb128 0x49
 2369 00c5 13       		.uleb128 0x13
 2370 00c6 38       		.uleb128 0x38
 2371 00c7 0B       		.uleb128 0xb
 2372 00c8 34       		.uleb128 0x34
 2373 00c9 19       		.uleb128 0x19
 2374 00ca 00       		.byte	0
 2375 00cb 00       		.byte	0
 2376 00cc 13       		.uleb128 0x13
 2377 00cd 2E       		.uleb128 0x2e
 2378 00ce 01       		.byte	0x1
 2379 00cf 03       		.uleb128 0x3
 2380 00d0 0E       		.uleb128 0xe
 2381 00d1 3A       		.uleb128 0x3a
 2382 00d2 0B       		.uleb128 0xb
 2383 00d3 3B       		.uleb128 0x3b
 2384 00d4 05       		.uleb128 0x5
 2385 00d5 27       		.uleb128 0x27
ARM GAS  /tmp/cc4PPDfd.s 			page 43


 2386 00d6 19       		.uleb128 0x19
 2387 00d7 11       		.uleb128 0x11
 2388 00d8 01       		.uleb128 0x1
 2389 00d9 12       		.uleb128 0x12
 2390 00da 06       		.uleb128 0x6
 2391 00db 40       		.uleb128 0x40
 2392 00dc 18       		.uleb128 0x18
 2393 00dd 9742     		.uleb128 0x2117
 2394 00df 19       		.uleb128 0x19
 2395 00e0 01       		.uleb128 0x1
 2396 00e1 13       		.uleb128 0x13
 2397 00e2 00       		.byte	0
 2398 00e3 00       		.byte	0
 2399 00e4 14       		.uleb128 0x14
 2400 00e5 05       		.uleb128 0x5
 2401 00e6 00       		.byte	0
 2402 00e7 03       		.uleb128 0x3
 2403 00e8 08       		.uleb128 0x8
 2404 00e9 3A       		.uleb128 0x3a
 2405 00ea 0B       		.uleb128 0xb
 2406 00eb 3B       		.uleb128 0x3b
 2407 00ec 05       		.uleb128 0x5
 2408 00ed 49       		.uleb128 0x49
 2409 00ee 13       		.uleb128 0x13
 2410 00ef 02       		.uleb128 0x2
 2411 00f0 18       		.uleb128 0x18
 2412 00f1 00       		.byte	0
 2413 00f2 00       		.byte	0
 2414 00f3 15       		.uleb128 0x15
 2415 00f4 2E       		.uleb128 0x2e
 2416 00f5 01       		.byte	0x1
 2417 00f6 3F       		.uleb128 0x3f
 2418 00f7 19       		.uleb128 0x19
 2419 00f8 03       		.uleb128 0x3
 2420 00f9 0E       		.uleb128 0xe
 2421 00fa 3A       		.uleb128 0x3a
 2422 00fb 0B       		.uleb128 0xb
 2423 00fc 3B       		.uleb128 0x3b
 2424 00fd 05       		.uleb128 0x5
 2425 00fe 27       		.uleb128 0x27
 2426 00ff 19       		.uleb128 0x19
 2427 0100 49       		.uleb128 0x49
 2428 0101 13       		.uleb128 0x13
 2429 0102 11       		.uleb128 0x11
 2430 0103 01       		.uleb128 0x1
 2431 0104 12       		.uleb128 0x12
 2432 0105 06       		.uleb128 0x6
 2433 0106 40       		.uleb128 0x40
 2434 0107 18       		.uleb128 0x18
 2435 0108 9642     		.uleb128 0x2116
 2436 010a 19       		.uleb128 0x19
 2437 010b 01       		.uleb128 0x1
 2438 010c 13       		.uleb128 0x13
 2439 010d 00       		.byte	0
 2440 010e 00       		.byte	0
 2441 010f 16       		.uleb128 0x16
 2442 0110 05       		.uleb128 0x5
ARM GAS  /tmp/cc4PPDfd.s 			page 44


 2443 0111 00       		.byte	0
 2444 0112 03       		.uleb128 0x3
 2445 0113 0E       		.uleb128 0xe
 2446 0114 3A       		.uleb128 0x3a
 2447 0115 0B       		.uleb128 0xb
 2448 0116 3B       		.uleb128 0x3b
 2449 0117 05       		.uleb128 0x5
 2450 0118 49       		.uleb128 0x49
 2451 0119 13       		.uleb128 0x13
 2452 011a 02       		.uleb128 0x2
 2453 011b 18       		.uleb128 0x18
 2454 011c 00       		.byte	0
 2455 011d 00       		.byte	0
 2456 011e 17       		.uleb128 0x17
 2457 011f 2E       		.uleb128 0x2e
 2458 0120 01       		.byte	0x1
 2459 0121 3F       		.uleb128 0x3f
 2460 0122 19       		.uleb128 0x19
 2461 0123 03       		.uleb128 0x3
 2462 0124 0E       		.uleb128 0xe
 2463 0125 3A       		.uleb128 0x3a
 2464 0126 0B       		.uleb128 0xb
 2465 0127 3B       		.uleb128 0x3b
 2466 0128 05       		.uleb128 0x5
 2467 0129 27       		.uleb128 0x27
 2468 012a 19       		.uleb128 0x19
 2469 012b 11       		.uleb128 0x11
 2470 012c 01       		.uleb128 0x1
 2471 012d 12       		.uleb128 0x12
 2472 012e 06       		.uleb128 0x6
 2473 012f 40       		.uleb128 0x40
 2474 0130 18       		.uleb128 0x18
 2475 0131 9642     		.uleb128 0x2116
 2476 0133 19       		.uleb128 0x19
 2477 0134 01       		.uleb128 0x1
 2478 0135 13       		.uleb128 0x13
 2479 0136 00       		.byte	0
 2480 0137 00       		.byte	0
 2481 0138 18       		.uleb128 0x18
 2482 0139 34       		.uleb128 0x34
 2483 013a 00       		.byte	0
 2484 013b 03       		.uleb128 0x3
 2485 013c 0E       		.uleb128 0xe
 2486 013d 3A       		.uleb128 0x3a
 2487 013e 0B       		.uleb128 0xb
 2488 013f 3B       		.uleb128 0x3b
 2489 0140 05       		.uleb128 0x5
 2490 0141 49       		.uleb128 0x49
 2491 0142 13       		.uleb128 0x13
 2492 0143 02       		.uleb128 0x2
 2493 0144 18       		.uleb128 0x18
 2494 0145 00       		.byte	0
 2495 0146 00       		.byte	0
 2496 0147 19       		.uleb128 0x19
 2497 0148 34       		.uleb128 0x34
 2498 0149 00       		.byte	0
 2499 014a 03       		.uleb128 0x3
ARM GAS  /tmp/cc4PPDfd.s 			page 45


 2500 014b 08       		.uleb128 0x8
 2501 014c 3A       		.uleb128 0x3a
 2502 014d 0B       		.uleb128 0xb
 2503 014e 3B       		.uleb128 0x3b
 2504 014f 05       		.uleb128 0x5
 2505 0150 49       		.uleb128 0x49
 2506 0151 13       		.uleb128 0x13
 2507 0152 02       		.uleb128 0x2
 2508 0153 18       		.uleb128 0x18
 2509 0154 00       		.byte	0
 2510 0155 00       		.byte	0
 2511 0156 1A       		.uleb128 0x1a
 2512 0157 2E       		.uleb128 0x2e
 2513 0158 01       		.byte	0x1
 2514 0159 03       		.uleb128 0x3
 2515 015a 0E       		.uleb128 0xe
 2516 015b 3A       		.uleb128 0x3a
 2517 015c 0B       		.uleb128 0xb
 2518 015d 3B       		.uleb128 0x3b
 2519 015e 05       		.uleb128 0x5
 2520 015f 27       		.uleb128 0x27
 2521 0160 19       		.uleb128 0x19
 2522 0161 49       		.uleb128 0x49
 2523 0162 13       		.uleb128 0x13
 2524 0163 11       		.uleb128 0x11
 2525 0164 01       		.uleb128 0x1
 2526 0165 12       		.uleb128 0x12
 2527 0166 06       		.uleb128 0x6
 2528 0167 40       		.uleb128 0x40
 2529 0168 18       		.uleb128 0x18
 2530 0169 9742     		.uleb128 0x2117
 2531 016b 19       		.uleb128 0x19
 2532 016c 01       		.uleb128 0x1
 2533 016d 13       		.uleb128 0x13
 2534 016e 00       		.byte	0
 2535 016f 00       		.byte	0
 2536 0170 1B       		.uleb128 0x1b
 2537 0171 18       		.uleb128 0x18
 2538 0172 00       		.byte	0
 2539 0173 00       		.byte	0
 2540 0174 00       		.byte	0
 2541 0175 1C       		.uleb128 0x1c
 2542 0176 0A       		.uleb128 0xa
 2543 0177 00       		.byte	0
 2544 0178 03       		.uleb128 0x3
 2545 0179 0E       		.uleb128 0xe
 2546 017a 3A       		.uleb128 0x3a
 2547 017b 0B       		.uleb128 0xb
 2548 017c 3B       		.uleb128 0x3b
 2549 017d 05       		.uleb128 0x5
 2550 017e 11       		.uleb128 0x11
 2551 017f 01       		.uleb128 0x1
 2552 0180 00       		.byte	0
 2553 0181 00       		.byte	0
 2554 0182 1D       		.uleb128 0x1d
 2555 0183 01       		.uleb128 0x1
 2556 0184 01       		.byte	0x1
ARM GAS  /tmp/cc4PPDfd.s 			page 46


 2557 0185 49       		.uleb128 0x49
 2558 0186 13       		.uleb128 0x13
 2559 0187 01       		.uleb128 0x1
 2560 0188 13       		.uleb128 0x13
 2561 0189 00       		.byte	0
 2562 018a 00       		.byte	0
 2563 018b 1E       		.uleb128 0x1e
 2564 018c 21       		.uleb128 0x21
 2565 018d 00       		.byte	0
 2566 018e 49       		.uleb128 0x49
 2567 018f 13       		.uleb128 0x13
 2568 0190 2F       		.uleb128 0x2f
 2569 0191 0B       		.uleb128 0xb
 2570 0192 00       		.byte	0
 2571 0193 00       		.byte	0
 2572 0194 1F       		.uleb128 0x1f
 2573 0195 34       		.uleb128 0x34
 2574 0196 00       		.byte	0
 2575 0197 03       		.uleb128 0x3
 2576 0198 0E       		.uleb128 0xe
 2577 0199 3A       		.uleb128 0x3a
 2578 019a 0B       		.uleb128 0xb
 2579 019b 3B       		.uleb128 0x3b
 2580 019c 05       		.uleb128 0x5
 2581 019d 49       		.uleb128 0x49
 2582 019e 13       		.uleb128 0x13
 2583 019f 3F       		.uleb128 0x3f
 2584 01a0 19       		.uleb128 0x19
 2585 01a1 3C       		.uleb128 0x3c
 2586 01a2 19       		.uleb128 0x19
 2587 01a3 00       		.byte	0
 2588 01a4 00       		.byte	0
 2589 01a5 00       		.byte	0
 2590              		.section	.debug_aranges,"",%progbits
 2591 0000 4C000000 		.4byte	0x4c
 2592 0004 0200     		.2byte	0x2
 2593 0006 00000000 		.4byte	.Ldebug_info0
 2594 000a 04       		.byte	0x4
 2595 000b 00       		.byte	0
 2596 000c 0000     		.2byte	0
 2597 000e 0000     		.2byte	0
 2598 0010 00000000 		.4byte	.LFB111
 2599 0014 14000000 		.4byte	.LFE111-.LFB111
 2600 0018 00000000 		.4byte	.LFB112
 2601 001c 50000000 		.4byte	.LFE112-.LFB112
 2602 0020 00000000 		.4byte	.LFB113
 2603 0024 94020000 		.4byte	.LFE113-.LFB113
 2604 0028 00000000 		.4byte	.LFB114
 2605 002c 28000000 		.4byte	.LFE114-.LFB114
 2606 0030 00000000 		.4byte	.LFB115
 2607 0034 2C000000 		.4byte	.LFE115-.LFB115
 2608 0038 00000000 		.4byte	.LFB116
 2609 003c 96000000 		.4byte	.LFE116-.LFB116
 2610 0040 00000000 		.4byte	.LFB117
 2611 0044 3C040000 		.4byte	.LFE117-.LFB117
 2612 0048 00000000 		.4byte	0
 2613 004c 00000000 		.4byte	0
ARM GAS  /tmp/cc4PPDfd.s 			page 47


 2614              		.section	.debug_ranges,"",%progbits
 2615              	.Ldebug_ranges0:
 2616 0000 00000000 		.4byte	.LFB111
 2617 0004 14000000 		.4byte	.LFE111
 2618 0008 00000000 		.4byte	.LFB112
 2619 000c 50000000 		.4byte	.LFE112
 2620 0010 00000000 		.4byte	.LFB113
 2621 0014 94020000 		.4byte	.LFE113
 2622 0018 00000000 		.4byte	.LFB114
 2623 001c 28000000 		.4byte	.LFE114
 2624 0020 00000000 		.4byte	.LFB115
 2625 0024 2C000000 		.4byte	.LFE115
 2626 0028 00000000 		.4byte	.LFB116
 2627 002c 96000000 		.4byte	.LFE116
 2628 0030 00000000 		.4byte	.LFB117
 2629 0034 3C040000 		.4byte	.LFE117
 2630 0038 00000000 		.4byte	0
 2631 003c 00000000 		.4byte	0
 2632              		.section	.debug_line,"",%progbits
 2633              	.Ldebug_line0:
 2634 0000 4E040000 		.section	.debug_str,"MS",%progbits,1
 2634      02007C02 
 2634      00000201 
 2634      FB0E0D00 
 2634      01010101 
 2635              	.LASF57:
 2636 0000 70496E69 		.ascii	"pInit\000"
 2636      7400
 2637              	.LASF5:
 2638 0006 5F5F696E 		.ascii	"__int16_t\000"
 2638      7431365F 
 2638      7400
 2639              	.LASF42:
 2640 0010 6267636F 		.ascii	"bgcolor\000"
 2640      6C6F7200 
 2641              	.LASF52:
 2642 0018 73686F77 		.ascii	"show\000"
 2642      00
 2643              	.LASF24:
 2644 001d 67667851 		.ascii	"gfxQueueASyncItem\000"
 2644      75657565 
 2644      4153796E 
 2644      63497465 
 2644      6D00
 2645              	.LASF77:
 2646 002f 756E7369 		.ascii	"unsigned_common\000"
 2646      676E6564 
 2646      5F636F6D 
 2646      6D6F6E00 
 2647              	.LASF6:
 2648 003f 73686F72 		.ascii	"short int\000"
 2648      7420696E 
 2648      7400
 2649              	.LASF2:
 2650 0049 73697A65 		.ascii	"size_t\000"
 2650      5F7400
 2651              	.LASF22:
ARM GAS  /tmp/cc4PPDfd.s 			page 48


 2652 0050 73697A65 		.ascii	"sizetype\000"
 2652      74797065 
 2652      00
 2653              	.LASF48:
 2654 0059 44657374 		.ascii	"Destroy\000"
 2654      726F7900 
 2655              	.LASF11:
 2656 0061 5F5F7569 		.ascii	"__uint32_t\000"
 2656      6E743332 
 2656      5F7400
 2657              	.LASF27:
 2658 006c 666F6E74 		.ascii	"fontDescendersHeight\000"
 2658      44657363 
 2658      656E6465 
 2658      72734865 
 2658      69676874 
 2659              	.LASF7:
 2660 0081 5F5F7569 		.ascii	"__uint16_t\000"
 2660      6E743136 
 2660      5F7400
 2661              	.LASF56:
 2662 008c 76615F6C 		.ascii	"va_list\000"
 2662      69737400 
 2663              	.LASF31:
 2664 0094 666F6E74 		.ascii	"fontMaxWidth\000"
 2664      4D617857 
 2664      69647468 
 2664      00
 2665              	.LASF35:
 2666 00a1 636F6C6F 		.ascii	"color_t\000"
 2666      725F7400 
 2667              	.LASF15:
 2668 00a9 75696E74 		.ascii	"uint8_t\000"
 2668      385F7400 
 2669              	.LASF29:
 2670 00b1 666F6E74 		.ascii	"fontCharPadding\000"
 2670      43686172 
 2670      50616464 
 2670      696E6700 
 2671              	.LASF34:
 2672 00c1 6D665F66 		.ascii	"mf_font_s\000"
 2672      6F6E745F 
 2672      7300
 2673              	.LASF19:
 2674 00cb 75696E74 		.ascii	"uint32_t\000"
 2674      33325F74 
 2674      00
 2675              	.LASF1:
 2676 00d4 7369676E 		.ascii	"signed char\000"
 2676      65642063 
 2676      68617200 
 2677              	.LASF39:
 2678 00e0 77696474 		.ascii	"width\000"
 2678      6800
 2679              	.LASF44:
 2680 00e6 666F6E74 		.ascii	"font\000"
 2680      00
ARM GAS  /tmp/cc4PPDfd.s 			page 49


 2681              	.LASF13:
 2682 00eb 6C6F6E67 		.ascii	"long long int\000"
 2682      206C6F6E 
 2682      6720696E 
 2682      7400
 2683              	.LASF70:
 2684 00f9 474E5520 		.ascii	"GNU C 4.9.3 20150303 (release) [ARM/embedded-4_9-br"
 2684      4320342E 
 2684      392E3320 
 2684      32303135 
 2684      30333033 
 2685 012c 616E6368 		.ascii	"anch revision 221220] -mcpu=cortex-m4 -mfloat-abi=h"
 2685      20726576 
 2685      6973696F 
 2685      6E203232 
 2685      31323230 
 2686 015f 61726420 		.ascii	"ard -mfpu=fpv4-sp-d16 -mno-thumb-interwork -mthumb "
 2686      2D6D6670 
 2686      753D6670 
 2686      76342D73 
 2686      702D6431 
 2687 0192 2D676764 		.ascii	"-ggdb -fomit-frame-pointer -falign-functions=16 -ff"
 2687      62202D66 
 2687      6F6D6974 
 2687      2D667261 
 2687      6D652D70 
 2688 01c5 756E6374 		.ascii	"unction-sections -fdata-sections -fno-common -fsing"
 2688      696F6E2D 
 2688      73656374 
 2688      696F6E73 
 2688      202D6664 
 2689 01f8 6C652D70 		.ascii	"le-precision-constant\000"
 2689      72656369 
 2689      73696F6E 
 2689      2D636F6E 
 2689      7374616E 
 2690              	.LASF55:
 2691 020e 5F5F7661 		.ascii	"__va_list\000"
 2691      5F6C6973 
 2691      7400
 2692              	.LASF73:
 2693 0218 666F6E74 		.ascii	"fontmetric\000"
 2693      6D657472 
 2693      696300
 2694              	.LASF67:
 2695 0223 6C656674 		.ascii	"left_align\000"
 2695      5F616C69 
 2695      676E00
 2696              	.LASF10:
 2697 022e 6C6F6E67 		.ascii	"long int\000"
 2697      20696E74 
 2697      00
 2698              	.LASF3:
 2699 0237 5F5F7569 		.ascii	"__uint8_t\000"
 2699      6E74385F 
 2699      7400
 2700              	.LASF63:
ARM GAS  /tmp/cc4PPDfd.s 			page 50


 2701 0241 6777696E 		.ascii	"gwinPrintf\000"
 2701      5072696E 
 2701      746600
 2702              	.LASF66:
 2703 024c 69735F6C 		.ascii	"is_long\000"
 2703      6F6E6700 
 2704              	.LASF46:
 2705 0254 636C6173 		.ascii	"classname\000"
 2705      736E616D 
 2705      6500
 2706              	.LASF4:
 2707 025e 756E7369 		.ascii	"unsigned char\000"
 2707      676E6564 
 2707      20636861 
 2707      7200
 2708              	.LASF33:
 2709 026c 47446973 		.ascii	"GDisplay\000"
 2709      706C6179 
 2709      00
 2710              	.LASF28:
 2711 0275 666F6E74 		.ascii	"fontLineSpacing\000"
 2711      4C696E65 
 2711      53706163 
 2711      696E6700 
 2712              	.LASF75:
 2713 0285 6777696E 		.ascii	"gwinGConsoleCreate\000"
 2713      47436F6E 
 2713      736F6C65 
 2713      43726561 
 2713      746500
 2714              	.LASF59:
 2715 0298 6777696E 		.ascii	"gwinPutString\000"
 2715      50757453 
 2715      7472696E 
 2715      6700
 2716              	.LASF43:
 2717 02a6 666C6167 		.ascii	"flags\000"
 2717      7300
 2718              	.LASF14:
 2719 02ac 6C6F6E67 		.ascii	"long long unsigned int\000"
 2719      206C6F6E 
 2719      6720756E 
 2719      7369676E 
 2719      65642069 
 2720              	.LASF50:
 2721 02c3 41667465 		.ascii	"AfterClear\000"
 2721      72436C65 
 2721      617200
 2722              	.LASF58:
 2723 02ce 6777696E 		.ascii	"gwinPutChar\000"
 2723      50757443 
 2723      68617200 
 2724              	.LASF76:
 2725 02da 6C746F61 		.ascii	"ltoa_wd\000"
 2725      5F776400 
 2726              	.LASF0:
 2727 02e2 756E7369 		.ascii	"unsigned int\000"
ARM GAS  /tmp/cc4PPDfd.s 			page 51


 2727      676E6564 
 2727      20696E74 
 2727      00
 2728              	.LASF17:
 2729 02ef 75696E74 		.ascii	"uint16_t\000"
 2729      31365F74 
 2729      00
 2730              	.LASF68:
 2731 02f8 746D7062 		.ascii	"tmpbuf\000"
 2731      756600
 2732              	.LASF61:
 2733 02ff 72616469 		.ascii	"radix\000"
 2733      7800
 2734              	.LASF30:
 2735 0305 666F6E74 		.ascii	"fontMinWidth\000"
 2735      4D696E57 
 2735      69647468 
 2735      00
 2736              	.LASF8:
 2737 0312 73686F72 		.ascii	"short unsigned int\000"
 2737      7420756E 
 2737      7369676E 
 2737      65642069 
 2737      6E7400
 2738              	.LASF72:
 2739 0325 2F686F6D 		.ascii	"/home/makkmarci/workspace/STM32F4_ChibiOS_uGFX_gwin"
 2739      652F6D61 
 2739      6B6B6D61 
 2739      7263692F 
 2739      776F726B 
 2740 0358 5F322F00 		.ascii	"_2/\000"
 2741              	.LASF74:
 2742 035c 5F5F6170 		.ascii	"__ap\000"
 2742      00
 2743              	.LASF23:
 2744 0361 63686172 		.ascii	"char\000"
 2744      00
 2745              	.LASF18:
 2746 0366 696E7433 		.ascii	"int32_t\000"
 2746      325F7400 
 2747              	.LASF20:
 2748 036e 626F6F6C 		.ascii	"bool_t\000"
 2748      5F7400
 2749              	.LASF16:
 2750 0375 696E7431 		.ascii	"int16_t\000"
 2750      365F7400 
 2751              	.LASF25:
 2752 037d 636F6F72 		.ascii	"coord_t\000"
 2752      645F7400 
 2753              	.LASF21:
 2754 0385 5F426F6F 		.ascii	"_Bool\000"
 2754      6C00
 2755              	.LASF40:
 2756 038b 68656967 		.ascii	"height\000"
 2756      687400
 2757              	.LASF51:
 2758 0392 4757696E 		.ascii	"GWindowInit\000"
ARM GAS  /tmp/cc4PPDfd.s 			page 52


 2758      646F7749 
 2758      6E697400 
 2759              	.LASF12:
 2760 039e 6C6F6E67 		.ascii	"long unsigned int\000"
 2760      20756E73 
 2760      69676E65 
 2760      6420696E 
 2760      7400
 2761              	.LASF49:
 2762 03b0 52656472 		.ascii	"Redraw\000"
 2762      617700
 2763              	.LASF38:
 2764 03b7 64697370 		.ascii	"display\000"
 2764      6C617900 
 2765              	.LASF47:
 2766 03bf 73697A65 		.ascii	"size\000"
 2766      00
 2767              	.LASF9:
 2768 03c4 5F5F696E 		.ascii	"__int32_t\000"
 2768      7433325F 
 2768      7400
 2769              	.LASF60:
 2770 03ce 6777696E 		.ascii	"gwinPutCharArray\000"
 2770      50757443 
 2770      68617241 
 2770      72726179 
 2770      00
 2771              	.LASF45:
 2772 03df 6777696E 		.ascii	"gwinVMT\000"
 2772      564D5400 
 2773              	.LASF64:
 2774 03e7 66696C6C 		.ascii	"filler\000"
 2774      657200
 2775              	.LASF26:
 2776 03ee 666F6E74 		.ascii	"fontHeight\000"
 2776      48656967 
 2776      687400
 2777              	.LASF54:
 2778 03f9 5F5F676E 		.ascii	"__gnuc_va_list\000"
 2778      75635F76 
 2778      615F6C69 
 2778      737400
 2779              	.LASF53:
 2780 0408 47436F6E 		.ascii	"GConsoleObject\000"
 2780      736F6C65 
 2780      4F626A65 
 2780      637400
 2781              	.LASF41:
 2782 0417 636F6C6F 		.ascii	"color\000"
 2782      7200
 2783              	.LASF69:
 2784 041d 636F6E73 		.ascii	"consoleVMT\000"
 2784      6F6C6556 
 2784      4D5400
 2785              	.LASF36:
 2786 0428 4757696E 		.ascii	"GWindowObject\000"
 2786      646F774F 
ARM GAS  /tmp/cc4PPDfd.s 			page 53


 2786      626A6563 
 2786      7400
 2787              	.LASF62:
 2788 0436 64697669 		.ascii	"divisor\000"
 2788      736F7200 
 2789              	.LASF78:
 2790 043e 49544D5F 		.ascii	"ITM_RxBuffer\000"
 2790      52784275 
 2790      66666572 
 2790      00
 2791              	.LASF32:
 2792 044b 666F6E74 		.ascii	"font_t\000"
 2792      5F7400
 2793              	.LASF71:
 2794 0452 2F686F6D 		.ascii	"/home/makkmarci/workspace/ugfx/src/gwin/gwin_consol"
 2794      652F6D61 
 2794      6B6B6D61 
 2794      7263692F 
 2794      776F726B 
 2795 0485 652E6300 		.ascii	"e.c\000"
 2796              	.LASF65:
 2797 0489 70726563 		.ascii	"precision\000"
 2797      6973696F 
 2797      6E00
 2798              	.LASF37:
 2799 0493 6E657874 		.ascii	"next\000"
 2799      00
 2800              		.ident	"GCC: (GNU Tools for ARM Embedded Processors) 4.9.3 20150303 (release) [ARM/embedded-4_9-br
ARM GAS  /tmp/cc4PPDfd.s 			page 54


DEFINED SYMBOLS
                            *ABS*:00000000 gwin_console.c
     /tmp/cc4PPDfd.s:21     .text.AfterClear:00000000 $t
     /tmp/cc4PPDfd.s:26     .text.AfterClear:00000000 AfterClear
     /tmp/cc4PPDfd.s:54     .rodata:00000000 $d
     /tmp/cc4PPDfd.s:58     .rodata.consoleVMT:00000000 $d
     /tmp/cc4PPDfd.s:61     .rodata.consoleVMT:00000000 consoleVMT
     /tmp/cc4PPDfd.s:68     .text.gwinGConsoleCreate:00000000 $t
     /tmp/cc4PPDfd.s:74     .text.gwinGConsoleCreate:00000000 gwinGConsoleCreate
     /tmp/cc4PPDfd.s:131    .text.gwinGConsoleCreate:0000004c $d
     /tmp/cc4PPDfd.s:136    .text.gwinPutChar:00000000 $t
     /tmp/cc4PPDfd.s:142    .text.gwinPutChar:00000000 gwinPutChar
     /tmp/cc4PPDfd.s:292    .text.gwinPutChar:00000104 $d
     /tmp/cc4PPDfd.s:295    .text.gwinPutChar:00000108 $t
     /tmp/cc4PPDfd.s:510    .text.gwinPutString:00000000 $t
     /tmp/cc4PPDfd.s:516    .text.gwinPutString:00000000 gwinPutString
     /tmp/cc4PPDfd.s:555    .text.gwinPutCharArray:00000000 $t
     /tmp/cc4PPDfd.s:561    .text.gwinPutCharArray:00000000 gwinPutCharArray
     /tmp/cc4PPDfd.s:602    .text.ltoa_wd:00000000 $t
     /tmp/cc4PPDfd.s:607    .text.ltoa_wd:00000000 ltoa_wd
     /tmp/cc4PPDfd.s:715    .text.gwinPrintf:00000000 $t
     /tmp/cc4PPDfd.s:721    .text.gwinPrintf:00000000 gwinPrintf
     /tmp/cc4PPDfd.s:986    .text.gwinPrintf:000001ac $d
     /tmp/cc4PPDfd.s:1039   .text.gwinPrintf:00000280 $t
     /tmp/cc4PPDfd.s:1121   .text.gwinPrintf:000002f8 $d
     /tmp/cc4PPDfd.s:1125   .text.gwinPrintf:00000300 $t
                     .debug_frame:00000010 $d

UNDEFINED SYMBOLS
_gwindowCreate
gwinSetVisible
gdispGetFontMetric
_gwinDrawStart
gdispGFillArea
_gwinDrawEnd
gdispGetCharWidth
gdispGDrawChar
