ARM GAS  /tmp/cc4PPDfd.s 			page 1


   1              		.syntax unified
   2              		.cpu cortex-m4
   3              		.eabi_attribute 27, 1
   4              		.eabi_attribute 28, 1
   5              		.fpu fpv4-sp-d16
   6              		.eabi_attribute 20, 1
   7              		.eabi_attribute 21, 1
   8              		.eabi_attribute 23, 3
   9              		.eabi_attribute 24, 1
  10              		.eabi_attribute 25, 1
  11              		.eabi_attribute 26, 1
  12              		.eabi_attribute 30, 6
  13              		.eabi_attribute 34, 1
  14              		.eabi_attribute 18, 4
  15              		.thumb
  16              		.file	"gwin_console.c"
  17              		.text
  18              	.Ltext0:
  19              		.cfi_sections	.debug_frame
  20              		.section	.text.AfterClear,"ax",%progbits
  21              		.align	2
  22              		.p2align 4,,15
  23              		.thumb
  24              		.thumb_func
  25              		.type	AfterClear, %function
  26              	AfterClear:
  27              	.LFB111:
  28              		.file 1 "/home/makkmarci/workspace/ugfx/src/gwin/gwin_console.c"
  29              		.loc 1 297 0
  30              		.cfi_startproc
  31              		@ args = 0, pretend = 0, frame = 8
  32              		@ frame_needed = 0, uses_anonymous_args = 0
  33              		@ link register save eliminated.
  34 0000 82B0     		sub	sp, sp, #8
  35              		.cfi_def_cfa_offset 8
  36 0002 0190     		str	r0, [sp, #4]
  37              		.loc 1 299 0
  38 0004 019B     		ldr	r3, [sp, #4]
  39 0006 0022     		movs	r2, #0
  40 0008 1A84     		strh	r2, [r3, #32]	@ movhi
  41              		.loc 1 300 0
  42 000a 019B     		ldr	r3, [sp, #4]
  43 000c 0022     		movs	r2, #0
  44 000e 5A84     		strh	r2, [r3, #34]	@ movhi
  45              		.loc 1 306 0
  46 0010 02B0     		add	sp, sp, #8
  47              		.cfi_def_cfa_offset 0
  48              		@ sp needed
  49 0012 7047     		bx	lr
  50              		.cfi_endproc
  51              	.LFE111:
  52              		.size	AfterClear, .-AfterClear
  53 0014 AFF30080 		.section	.rodata
  53      AFF30080 
  53      AFF30080 
  54              		.align	2
  55              	.LC0:
ARM GAS  /tmp/cc4PPDfd.s 			page 2


  56 0000 436F6E73 		.ascii	"Console\000"
  56      6F6C6500 
  57              		.section	.rodata.consoleVMT,"a",%progbits
  58              		.align	2
  59              		.type	consoleVMT, %object
  60              		.size	consoleVMT, 20
  61              	consoleVMT:
  62 0000 00000000 		.word	.LC0
  63 0004 24000000 		.word	36
  64 0008 00000000 		.word	0
  65 000c 00000000 		.word	0
  66 0010 00000000 		.word	AfterClear
  67              		.section	.text.gwinGConsoleCreate,"ax",%progbits
  68              		.align	2
  69              		.p2align 4,,15
  70              		.global	gwinGConsoleCreate
  71              		.thumb
  72              		.thumb_func
  73              		.type	gwinGConsoleCreate, %function
  74              	gwinGConsoleCreate:
  75              	.LFB112:
  76              		.loc 1 321 0
  77              		.cfi_startproc
  78              		@ args = 0, pretend = 0, frame = 16
  79              		@ frame_needed = 0, uses_anonymous_args = 0
  80 0000 00B5     		push	{lr}
  81              		.cfi_def_cfa_offset 4
  82              		.cfi_offset 14, -4
  83 0002 87B0     		sub	sp, sp, #28
  84              		.cfi_def_cfa_offset 32
  85 0004 0590     		str	r0, [sp, #20]
  86 0006 0491     		str	r1, [sp, #16]
  87 0008 0392     		str	r2, [sp, #12]
  88              		.loc 1 322 0
  89 000a 049A     		ldr	r2, [sp, #16]
  90 000c 0023     		movs	r3, #0
  91 000e 0093     		str	r3, [sp]
  92 0010 0598     		ldr	r0, [sp, #20]
  93 0012 1146     		mov	r1, r2
  94 0014 039A     		ldr	r2, [sp, #12]
  95 0016 0D4B     		ldr	r3, .L5
  96 0018 FFF7FEFF 		bl	_gwindowCreate
  97 001c 0490     		str	r0, [sp, #16]
  98 001e 049B     		ldr	r3, [sp, #16]
  99 0020 002B     		cmp	r3, #0
 100 0022 01D1     		bne	.L3
 101              		.loc 1 323 0
 102 0024 0023     		movs	r3, #0
 103 0026 0CE0     		b	.L4
 104              	.L3:
 105              		.loc 1 336 0
 106 0028 049B     		ldr	r3, [sp, #16]
 107 002a 0022     		movs	r2, #0
 108 002c 1A84     		strh	r2, [r3, #32]	@ movhi
 109              		.loc 1 337 0
 110 002e 049B     		ldr	r3, [sp, #16]
 111 0030 0022     		movs	r2, #0
ARM GAS  /tmp/cc4PPDfd.s 			page 3


 112 0032 5A84     		strh	r2, [r3, #34]	@ movhi
 113              		.loc 1 344 0
 114 0034 039B     		ldr	r3, [sp, #12]
 115 0036 1B7A     		ldrb	r3, [r3, #8]	@ zero_extendqisi2
 116 0038 0498     		ldr	r0, [sp, #16]
 117 003a 1946     		mov	r1, r3
 118 003c FFF7FEFF 		bl	gwinSetVisible
 119              		.loc 1 346 0
 120 0040 049B     		ldr	r3, [sp, #16]
 121              	.L4:
 122              		.loc 1 347 0
 123 0042 1846     		mov	r0, r3
 124 0044 07B0     		add	sp, sp, #28
 125              		.cfi_def_cfa_offset 4
 126              		@ sp needed
 127 0046 5DF804FB 		ldr	pc, [sp], #4
 128              	.L6:
 129 004a 00BF     		.align	2
 130              	.L5:
 131 004c 00000000 		.word	consoleVMT
 132              		.cfi_endproc
 133              	.LFE112:
 134              		.size	gwinGConsoleCreate, .-gwinGConsoleCreate
 135              		.section	.text.gwinPutChar,"ax",%progbits
 136              		.align	2
 137              		.p2align 4,,15
 138              		.global	gwinPutChar
 139              		.thumb
 140              		.thumb_func
 141              		.type	gwinPutChar, %function
 142              	gwinPutChar:
 143              	.LFB113:
 144              		.loc 1 414 0
 145              		.cfi_startproc
 146              		@ args = 0, pretend = 0, frame = 16
 147              		@ frame_needed = 0, uses_anonymous_args = 0
 148 0000 30B5     		push	{r4, r5, lr}
 149              		.cfi_def_cfa_offset 12
 150              		.cfi_offset 4, -12
 151              		.cfi_offset 5, -8
 152              		.cfi_offset 14, -4
 153 0002 87B0     		sub	sp, sp, #28
 154              		.cfi_def_cfa_offset 40
 155 0004 0390     		str	r0, [sp, #12]
 156 0006 0B46     		mov	r3, r1
 157 0008 8DF80B30 		strb	r3, [sp, #11]
 158              		.loc 1 418 0
 159 000c 039B     		ldr	r3, [sp, #12]
 160 000e 5B68     		ldr	r3, [r3, #4]
 161 0010 3C4A     		ldr	r2, .L26
 162 0012 9342     		cmp	r3, r2
 163 0014 03D1     		bne	.L8
 164              		.loc 1 418 0 is_stmt 0 discriminator 1
 165 0016 039B     		ldr	r3, [sp, #12]
 166 0018 DB69     		ldr	r3, [r3, #28]
 167 001a 002B     		cmp	r3, #0
 168 001c 00D1     		bne	.L9
ARM GAS  /tmp/cc4PPDfd.s 			page 4


 169              	.L8:
 170              		.loc 1 419 0 is_stmt 1
 171 001e 37E1     		b	.L7
 172              	.L9:
 173              		.loc 1 421 0
 174 0020 039B     		ldr	r3, [sp, #12]
 175 0022 DB69     		ldr	r3, [r3, #28]
 176 0024 1846     		mov	r0, r3
 177 0026 0021     		movs	r1, #0
 178 0028 FFF7FEFF 		bl	gdispGetFontMetric
 179 002c 0346     		mov	r3, r0
 180 002e 8DF81730 		strb	r3, [sp, #23]
 181              		.loc 1 475 0
 182 0032 9DF80B30 		ldrb	r3, [sp, #11]	@ zero_extendqisi2
 183 0036 0A2B     		cmp	r3, #10
 184 0038 03D0     		beq	.L12
 185 003a 0D2B     		cmp	r3, #13
 186 003c 00F02781 		beq	.L25
 187 0040 50E0     		b	.L24
 188              	.L12:
 189              		.loc 1 479 0
 190 0042 039B     		ldr	r3, [sp, #12]
 191 0044 1B8C     		ldrh	r3, [r3, #32]
 192 0046 002B     		cmp	r3, #0
 193 0048 3DD1     		bne	.L14
 194              		.loc 1 479 0 is_stmt 0 discriminator 1
 195 004a 039B     		ldr	r3, [sp, #12]
 196 004c 5B8C     		ldrh	r3, [r3, #34]
 197 004e 1AB2     		sxth	r2, r3
 198 0050 9DF81730 		ldrb	r3, [sp, #23]	@ zero_extendqisi2
 199 0054 1A44     		add	r2, r2, r3
 200 0056 039B     		ldr	r3, [sp, #12]
 201 0058 5B8A     		ldrh	r3, [r3, #18]
 202 005a 1BB2     		sxth	r3, r3
 203 005c 9A42     		cmp	r2, r3
 204 005e 32DA     		bge	.L14
 205              		.loc 1 479 0 discriminator 2
 206 0060 039B     		ldr	r3, [sp, #12]
 207 0062 9B69     		ldr	r3, [r3, #24]
 208 0064 03F00103 		and	r3, r3, #1
 209 0068 002B     		cmp	r3, #0
 210 006a 05D1     		bne	.L15
 211              		.loc 1 479 0 discriminator 3
 212 006c 0398     		ldr	r0, [sp, #12]
 213 006e FFF7FEFF 		bl	_gwinDrawStart
 214 0072 0346     		mov	r3, r0
 215 0074 002B     		cmp	r3, #0
 216 0076 26D0     		beq	.L14
 217              	.L15:
 218              		.loc 1 480 0 is_stmt 1
 219 0078 039B     		ldr	r3, [sp, #12]
 220 007a 9868     		ldr	r0, [r3, #8]
 221 007c 039B     		ldr	r3, [sp, #12]
 222 007e 9989     		ldrh	r1, [r3, #12]
 223 0080 039B     		ldr	r3, [sp, #12]
 224 0082 DB89     		ldrh	r3, [r3, #14]
 225 0084 9AB2     		uxth	r2, r3
ARM GAS  /tmp/cc4PPDfd.s 			page 5


 226 0086 039B     		ldr	r3, [sp, #12]
 227 0088 5B8C     		ldrh	r3, [r3, #34]
 228 008a 9BB2     		uxth	r3, r3
 229 008c 1344     		add	r3, r3, r2
 230 008e 9BB2     		uxth	r3, r3
 231 0090 9DB2     		uxth	r5, r3
 232 0092 039B     		ldr	r3, [sp, #12]
 233 0094 1C8A     		ldrh	r4, [r3, #16]
 234 0096 9DF81730 		ldrb	r3, [sp, #23]	@ zero_extendqisi2
 235 009a 9AB2     		uxth	r2, r3
 236 009c 039B     		ldr	r3, [sp, #12]
 237 009e DB8A     		ldrh	r3, [r3, #22]
 238 00a0 09B2     		sxth	r1, r1
 239 00a2 2DB2     		sxth	r5, r5
 240 00a4 24B2     		sxth	r4, r4
 241 00a6 12B2     		sxth	r2, r2
 242 00a8 0092     		str	r2, [sp]
 243 00aa 0193     		str	r3, [sp, #4]
 244 00ac 2A46     		mov	r2, r5
 245 00ae 2346     		mov	r3, r4
 246 00b0 FFF7FEFF 		bl	gdispGFillArea
 247              		.loc 1 481 0
 248 00b4 039B     		ldr	r3, [sp, #12]
 249 00b6 9B69     		ldr	r3, [r3, #24]
 250 00b8 03F00103 		and	r3, r3, #1
 251 00bc 002B     		cmp	r3, #0
 252 00be 02D1     		bne	.L14
 253              		.loc 1 481 0 is_stmt 0 discriminator 1
 254 00c0 0398     		ldr	r0, [sp, #12]
 255 00c2 FFF7FEFF 		bl	_gwinDrawEnd
 256              	.L14:
 257              		.loc 1 485 0 is_stmt 1
 258 00c6 039B     		ldr	r3, [sp, #12]
 259 00c8 0022     		movs	r2, #0
 260 00ca 1A84     		strh	r2, [r3, #32]	@ movhi
 261              		.loc 1 486 0
 262 00cc 039B     		ldr	r3, [sp, #12]
 263 00ce 5B8C     		ldrh	r3, [r3, #34]
 264 00d0 9AB2     		uxth	r2, r3
 265 00d2 9DF81730 		ldrb	r3, [sp, #23]	@ zero_extendqisi2
 266 00d6 9BB2     		uxth	r3, r3
 267 00d8 1344     		add	r3, r3, r2
 268 00da 9BB2     		uxth	r3, r3
 269 00dc 9AB2     		uxth	r2, r3
 270 00de 039B     		ldr	r3, [sp, #12]
 271 00e0 5A84     		strh	r2, [r3, #34]	@ movhi
 272              		.loc 1 489 0
 273 00e2 D5E0     		b	.L7
 274              	.L24:
 275              		.loc 1 503 0
 276 00e4 039B     		ldr	r3, [sp, #12]
 277 00e6 DB69     		ldr	r3, [r3, #28]
 278 00e8 9DF80B20 		ldrb	r2, [sp, #11]	@ zero_extendqisi2
 279 00ec 1046     		mov	r0, r2
 280 00ee 1946     		mov	r1, r3
 281 00f0 FFF7FEFF 		bl	gdispGetCharWidth
 282 00f4 0346     		mov	r3, r0
ARM GAS  /tmp/cc4PPDfd.s 			page 6


 283 00f6 8DF81630 		strb	r3, [sp, #22]
 284 00fa 9DF81630 		ldrb	r3, [sp, #22]	@ zero_extendqisi2
 285 00fe 002B     		cmp	r3, #0
 286 0100 02D1     		bne	.L16
 287              		.loc 1 504 0 discriminator 3
 288 0102 C5E0     		b	.L7
 289              	.L27:
 290              		.align	2
 291              	.L26:
 292 0104 00000000 		.word	consoleVMT
 293              	.L16:
 294              		.loc 1 513 0
 295 0108 039B     		ldr	r3, [sp, #12]
 296 010a 1B8C     		ldrh	r3, [r3, #32]
 297 010c 1AB2     		sxth	r2, r3
 298 010e 9DF81630 		ldrb	r3, [sp, #22]	@ zero_extendqisi2
 299 0112 1A44     		add	r2, r2, r3
 300 0114 039B     		ldr	r3, [sp, #12]
 301 0116 1B8A     		ldrh	r3, [r3, #16]
 302 0118 1BB2     		sxth	r3, r3
 303 011a 9A42     		cmp	r2, r3
 304 011c 0DDB     		blt	.L17
 305              		.loc 1 514 0
 306 011e 039B     		ldr	r3, [sp, #12]
 307 0120 0022     		movs	r2, #0
 308 0122 1A84     		strh	r2, [r3, #32]	@ movhi
 309              		.loc 1 515 0
 310 0124 039B     		ldr	r3, [sp, #12]
 311 0126 5B8C     		ldrh	r3, [r3, #34]
 312 0128 9AB2     		uxth	r2, r3
 313 012a 9DF81730 		ldrb	r3, [sp, #23]	@ zero_extendqisi2
 314 012e 9BB2     		uxth	r3, r3
 315 0130 1344     		add	r3, r3, r2
 316 0132 9BB2     		uxth	r3, r3
 317 0134 9AB2     		uxth	r2, r3
 318 0136 039B     		ldr	r3, [sp, #12]
 319 0138 5A84     		strh	r2, [r3, #34]	@ movhi
 320              	.L17:
 321              		.loc 1 520 0
 322 013a 039B     		ldr	r3, [sp, #12]
 323 013c 5B8C     		ldrh	r3, [r3, #34]
 324 013e 1AB2     		sxth	r2, r3
 325 0140 9DF81730 		ldrb	r3, [sp, #23]	@ zero_extendqisi2
 326 0144 1A44     		add	r2, r2, r3
 327 0146 039B     		ldr	r3, [sp, #12]
 328 0148 5B8A     		ldrh	r3, [r3, #18]
 329 014a 1BB2     		sxth	r3, r3
 330 014c 9A42     		cmp	r2, r3
 331 014e 30DD     		ble	.L18
 332              		.loc 1 548 0
 333 0150 039B     		ldr	r3, [sp, #12]
 334 0152 9B69     		ldr	r3, [r3, #24]
 335 0154 03F00103 		and	r3, r3, #1
 336 0158 002B     		cmp	r3, #0
 337 015a 05D1     		bne	.L19
 338              		.loc 1 548 0 is_stmt 0 discriminator 1
 339 015c 0398     		ldr	r0, [sp, #12]
ARM GAS  /tmp/cc4PPDfd.s 			page 7


 340 015e FFF7FEFF 		bl	_gwinDrawStart
 341 0162 0346     		mov	r3, r0
 342 0164 002B     		cmp	r3, #0
 343 0166 1ED0     		beq	.L20
 344              	.L19:
 345              		.loc 1 549 0 is_stmt 1
 346 0168 039B     		ldr	r3, [sp, #12]
 347 016a 9868     		ldr	r0, [r3, #8]
 348 016c 039B     		ldr	r3, [sp, #12]
 349 016e 9989     		ldrh	r1, [r3, #12]
 350 0170 039B     		ldr	r3, [sp, #12]
 351 0172 DD89     		ldrh	r5, [r3, #14]
 352 0174 039B     		ldr	r3, [sp, #12]
 353 0176 1C8A     		ldrh	r4, [r3, #16]
 354 0178 039B     		ldr	r3, [sp, #12]
 355 017a 5A8A     		ldrh	r2, [r3, #18]
 356 017c 039B     		ldr	r3, [sp, #12]
 357 017e DB8A     		ldrh	r3, [r3, #22]
 358 0180 09B2     		sxth	r1, r1
 359 0182 2DB2     		sxth	r5, r5
 360 0184 24B2     		sxth	r4, r4
 361 0186 12B2     		sxth	r2, r2
 362 0188 0092     		str	r2, [sp]
 363 018a 0193     		str	r3, [sp, #4]
 364 018c 2A46     		mov	r2, r5
 365 018e 2346     		mov	r3, r4
 366 0190 FFF7FEFF 		bl	gdispGFillArea
 367              		.loc 1 550 0
 368 0194 039B     		ldr	r3, [sp, #12]
 369 0196 9B69     		ldr	r3, [r3, #24]
 370 0198 03F00103 		and	r3, r3, #1
 371 019c 002B     		cmp	r3, #0
 372 019e 02D1     		bne	.L20
 373              		.loc 1 550 0 is_stmt 0 discriminator 1
 374 01a0 0398     		ldr	r0, [sp, #12]
 375 01a2 FFF7FEFF 		bl	_gwinDrawEnd
 376              	.L20:
 377              		.loc 1 552 0 is_stmt 1
 378 01a6 039B     		ldr	r3, [sp, #12]
 379 01a8 0022     		movs	r2, #0
 380 01aa 1A84     		strh	r2, [r3, #32]	@ movhi
 381              		.loc 1 553 0
 382 01ac 039B     		ldr	r3, [sp, #12]
 383 01ae 0022     		movs	r2, #0
 384 01b0 5A84     		strh	r2, [r3, #34]	@ movhi
 385              	.L18:
 386              		.loc 1 565 0
 387 01b2 039B     		ldr	r3, [sp, #12]
 388 01b4 9B69     		ldr	r3, [r3, #24]
 389 01b6 03F00103 		and	r3, r3, #1
 390 01ba 002B     		cmp	r3, #0
 391 01bc 05D1     		bne	.L21
 392              		.loc 1 565 0 is_stmt 0 discriminator 1
 393 01be 0398     		ldr	r0, [sp, #12]
 394 01c0 FFF7FEFF 		bl	_gwinDrawStart
 395 01c4 0346     		mov	r3, r0
 396 01c6 002B     		cmp	r3, #0
ARM GAS  /tmp/cc4PPDfd.s 			page 8


 397 01c8 4DD0     		beq	.L22
 398              	.L21:
 399              		.loc 1 569 0 is_stmt 1
 400 01ca 039B     		ldr	r3, [sp, #12]
 401 01cc 1B8C     		ldrh	r3, [r3, #32]
 402 01ce 002B     		cmp	r3, #0
 403 01d0 1DD1     		bne	.L23
 404              		.loc 1 570 0
 405 01d2 039B     		ldr	r3, [sp, #12]
 406 01d4 9868     		ldr	r0, [r3, #8]
 407 01d6 039B     		ldr	r3, [sp, #12]
 408 01d8 9989     		ldrh	r1, [r3, #12]
 409 01da 039B     		ldr	r3, [sp, #12]
 410 01dc DB89     		ldrh	r3, [r3, #14]
 411 01de 9AB2     		uxth	r2, r3
 412 01e0 039B     		ldr	r3, [sp, #12]
 413 01e2 5B8C     		ldrh	r3, [r3, #34]
 414 01e4 9BB2     		uxth	r3, r3
 415 01e6 1344     		add	r3, r3, r2
 416 01e8 9BB2     		uxth	r3, r3
 417 01ea 9DB2     		uxth	r5, r3
 418 01ec 039B     		ldr	r3, [sp, #12]
 419 01ee 1C8A     		ldrh	r4, [r3, #16]
 420 01f0 9DF81730 		ldrb	r3, [sp, #23]	@ zero_extendqisi2
 421 01f4 9AB2     		uxth	r2, r3
 422 01f6 039B     		ldr	r3, [sp, #12]
 423 01f8 DB8A     		ldrh	r3, [r3, #22]
 424 01fa 09B2     		sxth	r1, r1
 425 01fc 2DB2     		sxth	r5, r5
 426 01fe 24B2     		sxth	r4, r4
 427 0200 12B2     		sxth	r2, r2
 428 0202 0092     		str	r2, [sp]
 429 0204 0193     		str	r3, [sp, #4]
 430 0206 2A46     		mov	r2, r5
 431 0208 2346     		mov	r3, r4
 432 020a FFF7FEFF 		bl	gdispGFillArea
 433              	.L23:
 434              		.loc 1 576 0
 435 020e 039B     		ldr	r3, [sp, #12]
 436 0210 9868     		ldr	r0, [r3, #8]
 437 0212 039B     		ldr	r3, [sp, #12]
 438 0214 9B89     		ldrh	r3, [r3, #12]
 439 0216 9AB2     		uxth	r2, r3
 440 0218 039B     		ldr	r3, [sp, #12]
 441 021a 1B8C     		ldrh	r3, [r3, #32]
 442 021c 9BB2     		uxth	r3, r3
 443 021e 1344     		add	r3, r3, r2
 444 0220 9BB2     		uxth	r3, r3
 445 0222 99B2     		uxth	r1, r3
 446 0224 039B     		ldr	r3, [sp, #12]
 447 0226 DB89     		ldrh	r3, [r3, #14]
 448 0228 9AB2     		uxth	r2, r3
 449 022a 039B     		ldr	r3, [sp, #12]
 450 022c 5B8C     		ldrh	r3, [r3, #34]
 451 022e 9BB2     		uxth	r3, r3
 452 0230 1344     		add	r3, r3, r2
 453 0232 9BB2     		uxth	r3, r3
ARM GAS  /tmp/cc4PPDfd.s 			page 9


 454 0234 9DB2     		uxth	r5, r3
 455 0236 9DF80B30 		ldrb	r3, [sp, #11]	@ zero_extendqisi2
 456 023a 9CB2     		uxth	r4, r3
 457 023c 039B     		ldr	r3, [sp, #12]
 458 023e DA69     		ldr	r2, [r3, #28]
 459 0240 039B     		ldr	r3, [sp, #12]
 460 0242 9B8A     		ldrh	r3, [r3, #20]
 461 0244 09B2     		sxth	r1, r1
 462 0246 2DB2     		sxth	r5, r5
 463 0248 0092     		str	r2, [sp]
 464 024a 0193     		str	r3, [sp, #4]
 465 024c 2A46     		mov	r2, r5
 466 024e 2346     		mov	r3, r4
 467 0250 FFF7FEFF 		bl	gdispGDrawChar
 468              		.loc 1 590 0
 469 0254 039B     		ldr	r3, [sp, #12]
 470 0256 9B69     		ldr	r3, [r3, #24]
 471 0258 03F00103 		and	r3, r3, #1
 472 025c 002B     		cmp	r3, #0
 473 025e 02D1     		bne	.L22
 474              		.loc 1 590 0 is_stmt 0 discriminator 1
 475 0260 0398     		ldr	r0, [sp, #12]
 476 0262 FFF7FEFF 		bl	_gwinDrawEnd
 477              	.L22:
 478              		.loc 1 594 0 is_stmt 1
 479 0266 9DF81640 		ldrb	r4, [sp, #22]	@ zero_extendqisi2
 480 026a 039B     		ldr	r3, [sp, #12]
 481 026c DB69     		ldr	r3, [r3, #28]
 482 026e 1846     		mov	r0, r3
 483 0270 0321     		movs	r1, #3
 484 0272 FFF7FEFF 		bl	gdispGetFontMetric
 485 0276 0346     		mov	r3, r0
 486 0278 E118     		adds	r1, r4, r3
 487 027a 039B     		ldr	r3, [sp, #12]
 488 027c 1B8C     		ldrh	r3, [r3, #32]
 489 027e 9AB2     		uxth	r2, r3
 490 0280 8BB2     		uxth	r3, r1
 491 0282 1344     		add	r3, r3, r2
 492 0284 9BB2     		uxth	r3, r3
 493 0286 9AB2     		uxth	r2, r3
 494 0288 039B     		ldr	r3, [sp, #12]
 495 028a 1A84     		strh	r2, [r3, #32]	@ movhi
 496 028c 00E0     		b	.L7
 497              	.L25:
 498              		.loc 1 493 0
 499 028e 00BF     		nop
 500              	.L7:
 501              		.loc 1 597 0
 502 0290 07B0     		add	sp, sp, #28
 503              		.cfi_def_cfa_offset 12
 504              		@ sp needed
 505 0292 30BD     		pop	{r4, r5, pc}
 506              		.cfi_endproc
 507              	.LFE113:
 508              		.size	gwinPutChar, .-gwinPutChar
 509 0294 AFF30080 		.section	.text.gwinPutString,"ax",%progbits
 509      AFF30080 
ARM GAS  /tmp/cc4PPDfd.s 			page 10


 509      AFF30080 
 510              		.align	2
 511              		.p2align 4,,15
 512              		.global	gwinPutString
 513              		.thumb
 514              		.thumb_func
 515              		.type	gwinPutString, %function
 516              	gwinPutString:
 517              	.LFB114:
 518              		.loc 1 599 0
 519              		.cfi_startproc
 520              		@ args = 0, pretend = 0, frame = 8
 521              		@ frame_needed = 0, uses_anonymous_args = 0
 522 0000 00B5     		push	{lr}
 523              		.cfi_def_cfa_offset 4
 524              		.cfi_offset 14, -4
 525 0002 83B0     		sub	sp, sp, #12
 526              		.cfi_def_cfa_offset 16
 527 0004 0190     		str	r0, [sp, #4]
 528 0006 0091     		str	r1, [sp]
 529              		.loc 1 600 0
 530 0008 07E0     		b	.L29
 531              	.L30:
 532              		.loc 1 601 0
 533 000a 009B     		ldr	r3, [sp]
 534 000c 5A1C     		adds	r2, r3, #1
 535 000e 0092     		str	r2, [sp]
 536 0010 1B78     		ldrb	r3, [r3]	@ zero_extendqisi2
 537 0012 0198     		ldr	r0, [sp, #4]
 538 0014 1946     		mov	r1, r3
 539 0016 FFF7FEFF 		bl	gwinPutChar
 540              	.L29:
 541              		.loc 1 600 0
 542 001a 009B     		ldr	r3, [sp]
 543 001c 1B78     		ldrb	r3, [r3]	@ zero_extendqisi2
 544 001e 002B     		cmp	r3, #0
 545 0020 F3D1     		bne	.L30
 546              		.loc 1 602 0
 547 0022 03B0     		add	sp, sp, #12
 548              		.cfi_def_cfa_offset 4
 549              		@ sp needed
 550 0024 5DF804FB 		ldr	pc, [sp], #4
 551              		.cfi_endproc
 552              	.LFE114:
 553              		.size	gwinPutString, .-gwinPutString
 554 0028 AFF30080 		.section	.text.gwinPutCharArray,"ax",%progbits
 554      AFF30080 
 555              		.align	2
 556              		.p2align 4,,15
 557              		.global	gwinPutCharArray
 558              		.thumb
 559              		.thumb_func
 560              		.type	gwinPutCharArray, %function
 561              	gwinPutCharArray:
 562              	.LFB115:
 563              		.loc 1 604 0
 564              		.cfi_startproc
ARM GAS  /tmp/cc4PPDfd.s 			page 11


 565              		@ args = 0, pretend = 0, frame = 16
 566              		@ frame_needed = 0, uses_anonymous_args = 0
 567 0000 00B5     		push	{lr}
 568              		.cfi_def_cfa_offset 4
 569              		.cfi_offset 14, -4
 570 0002 85B0     		sub	sp, sp, #20
 571              		.cfi_def_cfa_offset 24
 572 0004 0390     		str	r0, [sp, #12]
 573 0006 0291     		str	r1, [sp, #8]
 574 0008 0192     		str	r2, [sp, #4]
 575              		.loc 1 605 0
 576 000a 07E0     		b	.L32
 577              	.L33:
 578              		.loc 1 606 0
 579 000c 029B     		ldr	r3, [sp, #8]
 580 000e 5A1C     		adds	r2, r3, #1
 581 0010 0292     		str	r2, [sp, #8]
 582 0012 1B78     		ldrb	r3, [r3]	@ zero_extendqisi2
 583 0014 0398     		ldr	r0, [sp, #12]
 584 0016 1946     		mov	r1, r3
 585 0018 FFF7FEFF 		bl	gwinPutChar
 586              	.L32:
 587              		.loc 1 605 0
 588 001c 019B     		ldr	r3, [sp, #4]
 589 001e 5A1E     		subs	r2, r3, #1
 590 0020 0192     		str	r2, [sp, #4]
 591 0022 002B     		cmp	r3, #0
 592 0024 F2D1     		bne	.L33
 593              		.loc 1 607 0
 594 0026 05B0     		add	sp, sp, #20
 595              		.cfi_def_cfa_offset 4
 596              		@ sp needed
 597 0028 5DF804FB 		ldr	pc, [sp], #4
 598              		.cfi_endproc
 599              	.LFE115:
 600              		.size	gwinPutCharArray, .-gwinPutCharArray
 601 002c AFF30080 		.section	.text.ltoa_wd,"ax",%progbits
 602              		.align	2
 603              		.p2align 4,,15
 604              		.thumb
 605              		.thumb_func
 606              		.type	ltoa_wd, %function
 607              	ltoa_wd:
 608              	.LFB116:
 609              		.loc 1 614 0
 610              		.cfi_startproc
 611              		@ args = 0, pretend = 0, frame = 24
 612              		@ frame_needed = 0, uses_anonymous_args = 0
 613              		@ link register save eliminated.
 614 0000 86B0     		sub	sp, sp, #24
 615              		.cfi_def_cfa_offset 24
 616 0002 0390     		str	r0, [sp, #12]
 617 0004 0291     		str	r1, [sp, #8]
 618 0006 0192     		str	r2, [sp, #4]
 619 0008 0093     		str	r3, [sp]
 620              		.loc 1 618 0
 621 000a 009B     		ldr	r3, [sp]
ARM GAS  /tmp/cc4PPDfd.s 			page 12


 622 000c 002B     		cmp	r3, #0
 623 000e 01D1     		bne	.L35
 624              		.loc 1 618 0 is_stmt 0 discriminator 1
 625 0010 029B     		ldr	r3, [sp, #8]
 626 0012 0093     		str	r3, [sp]
 627              	.L35:
 628              		.loc 1 620 0 is_stmt 1
 629 0014 039B     		ldr	r3, [sp, #12]
 630 0016 0B33     		adds	r3, r3, #11
 631 0018 0493     		str	r3, [sp, #16]
 632              	.L37:
 633              		.loc 1 622 0
 634 001a 029B     		ldr	r3, [sp, #8]
 635 001c 019A     		ldr	r2, [sp, #4]
 636 001e B3FBF2F2 		udiv	r2, r3, r2
 637 0022 0199     		ldr	r1, [sp, #4]
 638 0024 01FB02F2 		mul	r2, r1, r2
 639 0028 9B1A     		subs	r3, r3, r2
 640 002a 0593     		str	r3, [sp, #20]
 641              		.loc 1 623 0
 642 002c 059B     		ldr	r3, [sp, #20]
 643 002e 3033     		adds	r3, r3, #48
 644 0030 0593     		str	r3, [sp, #20]
 645              		.loc 1 624 0
 646 0032 059B     		ldr	r3, [sp, #20]
 647 0034 392B     		cmp	r3, #57
 648 0036 02DD     		ble	.L36
 649              		.loc 1 625 0
 650 0038 059B     		ldr	r3, [sp, #20]
 651 003a 0733     		adds	r3, r3, #7
 652 003c 0593     		str	r3, [sp, #20]
 653              	.L36:
 654              		.loc 1 626 0
 655 003e 049B     		ldr	r3, [sp, #16]
 656 0040 013B     		subs	r3, r3, #1
 657 0042 0493     		str	r3, [sp, #16]
 658 0044 059B     		ldr	r3, [sp, #20]
 659 0046 DAB2     		uxtb	r2, r3
 660 0048 049B     		ldr	r3, [sp, #16]
 661 004a 1A70     		strb	r2, [r3]
 662              		.loc 1 627 0
 663 004c 029A     		ldr	r2, [sp, #8]
 664 004e 019B     		ldr	r3, [sp, #4]
 665 0050 B2FBF3F3 		udiv	r3, r2, r3
 666 0054 0293     		str	r3, [sp, #8]
 667              		.loc 1 628 0
 668 0056 009A     		ldr	r2, [sp]
 669 0058 019B     		ldr	r3, [sp, #4]
 670 005a B2FBF3F3 		udiv	r3, r2, r3
 671 005e 0093     		str	r3, [sp]
 672 0060 009B     		ldr	r3, [sp]
 673 0062 002B     		cmp	r3, #0
 674 0064 D9D1     		bne	.L37
 675              		.loc 1 630 0
 676 0066 039B     		ldr	r3, [sp, #12]
 677 0068 0B33     		adds	r3, r3, #11
 678 006a 1A46     		mov	r2, r3
ARM GAS  /tmp/cc4PPDfd.s 			page 13


 679 006c 049B     		ldr	r3, [sp, #16]
 680 006e D31A     		subs	r3, r2, r3
 681 0070 0593     		str	r3, [sp, #20]
 682              	.L38:
 683              		.loc 1 632 0 discriminator 1
 684 0072 039B     		ldr	r3, [sp, #12]
 685 0074 5A1C     		adds	r2, r3, #1
 686 0076 0392     		str	r2, [sp, #12]
 687 0078 049A     		ldr	r2, [sp, #16]
 688 007a 511C     		adds	r1, r2, #1
 689 007c 0491     		str	r1, [sp, #16]
 690 007e 1278     		ldrb	r2, [r2]	@ zero_extendqisi2
 691 0080 1A70     		strb	r2, [r3]
 692              		.loc 1 633 0 discriminator 1
 693 0082 059B     		ldr	r3, [sp, #20]
 694 0084 013B     		subs	r3, r3, #1
 695 0086 0593     		str	r3, [sp, #20]
 696 0088 059B     		ldr	r3, [sp, #20]
 697 008a 002B     		cmp	r3, #0
 698 008c F1D1     		bne	.L38
 699              		.loc 1 635 0
 700 008e 039B     		ldr	r3, [sp, #12]
 701              		.loc 1 636 0
 702 0090 1846     		mov	r0, r3
 703 0092 06B0     		add	sp, sp, #24
 704              		.cfi_def_cfa_offset 0
 705              		@ sp needed
 706 0094 7047     		bx	lr
 707              		.cfi_endproc
 708              	.LFE116:
 709              		.size	ltoa_wd, .-ltoa_wd
 710 0096 00BFAFF3 		.section	.rodata
 710      0080AFF3 
 710      0080
 711              		.align	2
 712              	.LC1:
 713 0008 286E756C 		.ascii	"(null)\000"
 713      6C2900
 714 000f 00       		.section	.text.gwinPrintf,"ax",%progbits
 715              		.align	2
 716              		.p2align 4,,15
 717              		.global	gwinPrintf
 718              		.thumb
 719              		.thumb_func
 720              		.type	gwinPrintf, %function
 721              	gwinPrintf:
 722              	.LFB117:
 723              		.loc 1 651 0
 724              		.cfi_startproc
 725              		@ args = 4, pretend = 12, frame = 56
 726              		@ frame_needed = 0, uses_anonymous_args = 1
 727 0000 0EB4     		push	{r1, r2, r3}
 728              		.cfi_def_cfa_offset 12
 729              		.cfi_offset 1, -12
 730              		.cfi_offset 2, -8
 731              		.cfi_offset 3, -4
 732 0002 00B5     		push	{lr}
ARM GAS  /tmp/cc4PPDfd.s 			page 14


 733              		.cfi_def_cfa_offset 16
 734              		.cfi_offset 14, -16
 735 0004 8EB0     		sub	sp, sp, #56
 736              		.cfi_def_cfa_offset 72
 737 0006 0190     		str	r0, [sp, #4]
 738              		.loc 1 664 0
 739 0008 019B     		ldr	r3, [sp, #4]
 740 000a 5B68     		ldr	r3, [r3, #4]
 741 000c BA4A     		ldr	r2, .L95
 742 000e 9342     		cmp	r3, r2
 743 0010 03D1     		bne	.L41
 744              		.loc 1 664 0 is_stmt 0 discriminator 1
 745 0012 019B     		ldr	r3, [sp, #4]
 746 0014 DB69     		ldr	r3, [r3, #28]
 747 0016 002B     		cmp	r3, #0
 748 0018 00D1     		bne	.L42
 749              	.L41:
 750              		.loc 1 665 0 is_stmt 1
 751 001a 0AE2     		b	.L40
 752              	.L42:
 753              		.loc 1 667 0
 754 001c 10AB     		add	r3, sp, #64
 755 001e 0593     		str	r3, [sp, #20]
 756              	.L93:
 757              		.loc 1 669 0
 758 0020 0F9B     		ldr	r3, [sp, #60]
 759 0022 5A1C     		adds	r2, r3, #1
 760 0024 0F92     		str	r2, [sp, #60]
 761 0026 1B78     		ldrb	r3, [r3]
 762 0028 8DF82F30 		strb	r3, [sp, #47]
 763              		.loc 1 670 0
 764 002c 9DF82F30 		ldrb	r3, [sp, #47]	@ zero_extendqisi2
 765 0030 002B     		cmp	r3, #0
 766 0032 00D1     		bne	.L44
 767              		.loc 1 672 0
 768 0034 FDE1     		b	.L40
 769              	.L44:
 770              		.loc 1 674 0
 771 0036 9DF82F30 		ldrb	r3, [sp, #47]	@ zero_extendqisi2
 772 003a 252B     		cmp	r3, #37
 773 003c 06D0     		beq	.L45
 774              		.loc 1 675 0
 775 003e 9DF82F30 		ldrb	r3, [sp, #47]	@ zero_extendqisi2
 776 0042 0198     		ldr	r0, [sp, #4]
 777 0044 1946     		mov	r1, r3
 778 0046 FFF7FEFF 		bl	gwinPutChar
 779              		.loc 1 676 0
 780 004a F1E1     		b	.L46
 781              	.L45:
 782              		.loc 1 679 0
 783 004c 02AB     		add	r3, sp, #8
 784 004e 0D93     		str	r3, [sp, #52]
 785              		.loc 1 680 0
 786 0050 02AB     		add	r3, sp, #8
 787 0052 0C93     		str	r3, [sp, #48]
 788              		.loc 1 681 0
 789 0054 0023     		movs	r3, #0
ARM GAS  /tmp/cc4PPDfd.s 			page 15


 790 0056 8DF81E30 		strb	r3, [sp, #30]
 791              		.loc 1 682 0
 792 005a 0F9B     		ldr	r3, [sp, #60]
 793 005c 1B78     		ldrb	r3, [r3]	@ zero_extendqisi2
 794 005e 2D2B     		cmp	r3, #45
 795 0060 05D1     		bne	.L47
 796              		.loc 1 683 0
 797 0062 0F9B     		ldr	r3, [sp, #60]
 798 0064 0133     		adds	r3, r3, #1
 799 0066 0F93     		str	r3, [sp, #60]
 800              		.loc 1 684 0
 801 0068 0123     		movs	r3, #1
 802 006a 8DF81E30 		strb	r3, [sp, #30]
 803              	.L47:
 804              		.loc 1 686 0
 805 006e 2023     		movs	r3, #32
 806 0070 8DF82E30 		strb	r3, [sp, #46]
 807              		.loc 1 687 0
 808 0074 0F9B     		ldr	r3, [sp, #60]
 809 0076 1B78     		ldrb	r3, [r3]	@ zero_extendqisi2
 810 0078 302B     		cmp	r3, #48
 811 007a 05D1     		bne	.L48
 812              		.loc 1 688 0
 813 007c 0F9B     		ldr	r3, [sp, #60]
 814 007e 0133     		adds	r3, r3, #1
 815 0080 0F93     		str	r3, [sp, #60]
 816              		.loc 1 689 0
 817 0082 3023     		movs	r3, #48
 818 0084 8DF82E30 		strb	r3, [sp, #46]
 819              	.L48:
 820              		.loc 1 691 0
 821 0088 0023     		movs	r3, #0
 822 008a 0893     		str	r3, [sp, #32]
 823              	.L53:
 824              		.loc 1 694 0
 825 008c 0F9B     		ldr	r3, [sp, #60]
 826 008e 5A1C     		adds	r2, r3, #1
 827 0090 0F92     		str	r2, [sp, #60]
 828 0092 1B78     		ldrb	r3, [r3]
 829 0094 8DF82F30 		strb	r3, [sp, #47]
 830              		.loc 1 695 0
 831 0098 9DF82F30 		ldrb	r3, [sp, #47]	@ zero_extendqisi2
 832 009c 2F2B     		cmp	r3, #47
 833 009e 09D9     		bls	.L49
 834              		.loc 1 695 0 is_stmt 0 discriminator 1
 835 00a0 9DF82F30 		ldrb	r3, [sp, #47]	@ zero_extendqisi2
 836 00a4 392B     		cmp	r3, #57
 837 00a6 05D8     		bhi	.L49
 838              		.loc 1 696 0 is_stmt 1
 839 00a8 9DF82F30 		ldrb	r3, [sp, #47]
 840 00ac 303B     		subs	r3, r3, #48
 841 00ae 8DF82F30 		strb	r3, [sp, #47]
 842 00b2 12E0     		b	.L50
 843              	.L49:
 844              		.loc 1 697 0
 845 00b4 9DF82F30 		ldrb	r3, [sp, #47]	@ zero_extendqisi2
 846 00b8 2A2B     		cmp	r3, #42
ARM GAS  /tmp/cc4PPDfd.s 			page 16


 847 00ba 06D1     		bne	.L51
 848              		.loc 1 698 0
 849 00bc 059B     		ldr	r3, [sp, #20]
 850 00be 1A1D     		adds	r2, r3, #4
 851 00c0 0592     		str	r2, [sp, #20]
 852 00c2 1B68     		ldr	r3, [r3]
 853 00c4 8DF82F30 		strb	r3, [sp, #47]
 854 00c8 07E0     		b	.L50
 855              	.L51:
 856              		.loc 1 700 0
 857 00ca 00BF     		nop
 858              		.loc 1 703 0
 859 00cc 0023     		movs	r3, #0
 860 00ce 0993     		str	r3, [sp, #36]
 861              		.loc 1 704 0
 862 00d0 9DF82F30 		ldrb	r3, [sp, #47]	@ zero_extendqisi2
 863 00d4 2E2B     		cmp	r3, #46
 864 00d6 36D1     		bne	.L54
 865 00d8 0AE0     		b	.L58
 866              	.L50:
 867              		.loc 1 701 0
 868 00da 089A     		ldr	r2, [sp, #32]
 869 00dc 1346     		mov	r3, r2
 870 00de 9B00     		lsls	r3, r3, #2
 871 00e0 1344     		add	r3, r3, r2
 872 00e2 5B00     		lsls	r3, r3, #1
 873 00e4 1A46     		mov	r2, r3
 874 00e6 9DF82F30 		ldrb	r3, [sp, #47]	@ zero_extendqisi2
 875 00ea 1344     		add	r3, r3, r2
 876 00ec 0893     		str	r3, [sp, #32]
 877              		.loc 1 702 0
 878 00ee CDE7     		b	.L53
 879              	.L58:
 880              		.loc 1 706 0
 881 00f0 0F9B     		ldr	r3, [sp, #60]
 882 00f2 5A1C     		adds	r2, r3, #1
 883 00f4 0F92     		str	r2, [sp, #60]
 884 00f6 1B78     		ldrb	r3, [r3]
 885 00f8 8DF82F30 		strb	r3, [sp, #47]
 886              		.loc 1 707 0
 887 00fc 9DF82F30 		ldrb	r3, [sp, #47]	@ zero_extendqisi2
 888 0100 2F2B     		cmp	r3, #47
 889 0102 09D9     		bls	.L55
 890              		.loc 1 707 0 is_stmt 0 discriminator 1
 891 0104 9DF82F30 		ldrb	r3, [sp, #47]	@ zero_extendqisi2
 892 0108 392B     		cmp	r3, #57
 893 010a 05D8     		bhi	.L55
 894              		.loc 1 708 0 is_stmt 1
 895 010c 9DF82F30 		ldrb	r3, [sp, #47]
 896 0110 303B     		subs	r3, r3, #48
 897 0112 8DF82F30 		strb	r3, [sp, #47]
 898 0116 0BE0     		b	.L56
 899              	.L55:
 900              		.loc 1 709 0
 901 0118 9DF82F30 		ldrb	r3, [sp, #47]	@ zero_extendqisi2
 902 011c 2A2B     		cmp	r3, #42
 903 011e 06D1     		bne	.L57
ARM GAS  /tmp/cc4PPDfd.s 			page 17


 904              		.loc 1 710 0
 905 0120 059B     		ldr	r3, [sp, #20]
 906 0122 1A1D     		adds	r2, r3, #4
 907 0124 0592     		str	r2, [sp, #20]
 908 0126 1B68     		ldr	r3, [r3]
 909 0128 8DF82F30 		strb	r3, [sp, #47]
 910 012c 00E0     		b	.L56
 911              	.L57:
 912              		.loc 1 712 0
 913 012e 0AE0     		b	.L54
 914              	.L56:
 915              		.loc 1 713 0
 916 0130 099A     		ldr	r2, [sp, #36]
 917 0132 1346     		mov	r3, r2
 918 0134 9B00     		lsls	r3, r3, #2
 919 0136 1344     		add	r3, r3, r2
 920 0138 5B00     		lsls	r3, r3, #1
 921 013a 1A46     		mov	r2, r3
 922 013c 9DF82F30 		ldrb	r3, [sp, #47]	@ zero_extendqisi2
 923 0140 1344     		add	r3, r3, r2
 924 0142 0993     		str	r3, [sp, #36]
 925              		.loc 1 714 0
 926 0144 D4E7     		b	.L58
 927              	.L54:
 928              		.loc 1 717 0
 929 0146 9DF82F30 		ldrb	r3, [sp, #47]	@ zero_extendqisi2
 930 014a 6C2B     		cmp	r3, #108
 931 014c 03D0     		beq	.L59
 932              		.loc 1 717 0 is_stmt 0 discriminator 1
 933 014e 9DF82F30 		ldrb	r3, [sp, #47]	@ zero_extendqisi2
 934 0152 4C2B     		cmp	r3, #76
 935 0154 0ED1     		bne	.L60
 936              	.L59:
 937              		.loc 1 718 0 is_stmt 1
 938 0156 0123     		movs	r3, #1
 939 0158 8DF81F30 		strb	r3, [sp, #31]
 940              		.loc 1 719 0
 941 015c 0F9B     		ldr	r3, [sp, #60]
 942 015e 1B78     		ldrb	r3, [r3]	@ zero_extendqisi2
 943 0160 002B     		cmp	r3, #0
 944 0162 06D0     		beq	.L61
 945              		.loc 1 720 0
 946 0164 0F9B     		ldr	r3, [sp, #60]
 947 0166 5A1C     		adds	r2, r3, #1
 948 0168 0F92     		str	r2, [sp, #60]
 949 016a 1B78     		ldrb	r3, [r3]
 950 016c 8DF82F30 		strb	r3, [sp, #47]
 951              		.loc 1 719 0
 952 0170 13E0     		b	.L62
 953              	.L61:
 954 0172 12E0     		b	.L62
 955              	.L60:
 956              		.loc 1 723 0
 957 0174 9DF82F30 		ldrb	r3, [sp, #47]	@ zero_extendqisi2
 958 0178 402B     		cmp	r3, #64
 959 017a 05D9     		bls	.L63
 960              		.loc 1 723 0 is_stmt 0 discriminator 1
ARM GAS  /tmp/cc4PPDfd.s 			page 18


 961 017c 9DF82F30 		ldrb	r3, [sp, #47]	@ zero_extendqisi2
 962 0180 5A2B     		cmp	r3, #90
 963 0182 01D8     		bhi	.L63
 964              		.loc 1 723 0 discriminator 3
 965 0184 0123     		movs	r3, #1
 966 0186 00E0     		b	.L64
 967              	.L63:
 968              		.loc 1 723 0 discriminator 4
 969 0188 0023     		movs	r3, #0
 970              	.L64:
 971              		.loc 1 723 0 discriminator 6
 972 018a 8DF81F30 		strb	r3, [sp, #31]
 973 018e 9DF81F30 		ldrb	r3, [sp, #31]
 974 0192 03F00103 		and	r3, r3, #1
 975 0196 8DF81F30 		strb	r3, [sp, #31]
 976              	.L62:
 977              		.loc 1 726 0 is_stmt 1
 978 019a 9DF82F30 		ldrb	r3, [sp, #47]	@ zero_extendqisi2
 979 019e 443B     		subs	r3, r3, #68
 980 01a0 342B     		cmp	r3, #52
 981 01a2 00F2E980 		bhi	.L65
 982 01a6 01A2     		adr	r2, .L67
 983 01a8 52F823F0 		ldr	pc, [r2, r3, lsl #2]
 984              		.p2align 2
 985              	.L67:
 986 01ac E3020000 		.word	.L66+1
 987 01b0 79030000 		.word	.L65+1
 988 01b4 79030000 		.word	.L65+1
 989 01b8 79030000 		.word	.L65+1
 990 01bc 79030000 		.word	.L65+1
 991 01c0 79030000 		.word	.L65+1
 992 01c4 79030000 		.word	.L65+1
 993 01c8 79030000 		.word	.L65+1
 994 01cc 79030000 		.word	.L65+1
 995 01d0 79030000 		.word	.L65+1
 996 01d4 79030000 		.word	.L65+1
 997 01d8 41030000 		.word	.L68+1
 998 01dc 79030000 		.word	.L65+1
 999 01e0 79030000 		.word	.L65+1
 1000 01e4 79030000 		.word	.L65+1
 1001 01e8 79030000 		.word	.L65+1
 1002 01ec 79030000 		.word	.L65+1
 1003 01f0 39030000 		.word	.L69+1
 1004 01f4 79030000 		.word	.L65+1
 1005 01f8 79030000 		.word	.L65+1
 1006 01fc 31030000 		.word	.L70+1
 1007 0200 79030000 		.word	.L65+1
 1008 0204 79030000 		.word	.L65+1
 1009 0208 79030000 		.word	.L65+1
 1010 020c 79030000 		.word	.L65+1
 1011 0210 79030000 		.word	.L65+1
 1012 0214 79030000 		.word	.L65+1
 1013 0218 79030000 		.word	.L65+1
 1014 021c 79030000 		.word	.L65+1
 1015 0220 79030000 		.word	.L65+1
 1016 0224 79030000 		.word	.L65+1
 1017 0228 81020000 		.word	.L71+1
ARM GAS  /tmp/cc4PPDfd.s 			page 19


 1018 022c E3020000 		.word	.L66+1
 1019 0230 79030000 		.word	.L65+1
 1020 0234 79030000 		.word	.L65+1
 1021 0238 79030000 		.word	.L65+1
 1022 023c 79030000 		.word	.L65+1
 1023 0240 79030000 		.word	.L65+1
 1024 0244 79030000 		.word	.L65+1
 1025 0248 79030000 		.word	.L65+1
 1026 024c 79030000 		.word	.L65+1
 1027 0250 79030000 		.word	.L65+1
 1028 0254 79030000 		.word	.L65+1
 1029 0258 41030000 		.word	.L68+1
 1030 025c 79030000 		.word	.L65+1
 1031 0260 79030000 		.word	.L65+1
 1032 0264 79030000 		.word	.L65+1
 1033 0268 9B020000 		.word	.L72+1
 1034 026c 79030000 		.word	.L65+1
 1035 0270 39030000 		.word	.L69+1
 1036 0274 79030000 		.word	.L65+1
 1037 0278 79030000 		.word	.L65+1
 1038 027c 31030000 		.word	.L70+1
 1039              		.p2align 1
 1040              	.L71:
 1041              		.loc 1 728 0
 1042 0280 2023     		movs	r3, #32
 1043 0282 8DF82E30 		strb	r3, [sp, #46]
 1044              		.loc 1 729 0
 1045 0286 0D9B     		ldr	r3, [sp, #52]
 1046 0288 5A1C     		adds	r2, r3, #1
 1047 028a 0D92     		str	r2, [sp, #52]
 1048 028c 059A     		ldr	r2, [sp, #20]
 1049 028e 111D     		adds	r1, r2, #4
 1050 0290 0591     		str	r1, [sp, #20]
 1051 0292 1268     		ldr	r2, [r2]
 1052 0294 D2B2     		uxtb	r2, r2
 1053 0296 1A70     		strb	r2, [r3]
 1054              		.loc 1 730 0
 1055 0298 75E0     		b	.L73
 1056              	.L72:
 1057              		.loc 1 732 0
 1058 029a 2023     		movs	r3, #32
 1059 029c 8DF82E30 		strb	r3, [sp, #46]
 1060              		.loc 1 733 0
 1061 02a0 059B     		ldr	r3, [sp, #20]
 1062 02a2 1A1D     		adds	r2, r3, #4
 1063 02a4 0592     		str	r2, [sp, #20]
 1064 02a6 1B68     		ldr	r3, [r3]
 1065 02a8 0C93     		str	r3, [sp, #48]
 1066 02aa 0C9B     		ldr	r3, [sp, #48]
 1067 02ac 002B     		cmp	r3, #0
 1068 02ae 01D1     		bne	.L74
 1069              		.loc 1 734 0
 1070 02b0 124B     		ldr	r3, .L95+4
 1071 02b2 0C93     		str	r3, [sp, #48]
 1072              	.L74:
 1073              		.loc 1 735 0
 1074 02b4 099B     		ldr	r3, [sp, #36]
ARM GAS  /tmp/cc4PPDfd.s 			page 20


 1075 02b6 002B     		cmp	r3, #0
 1076 02b8 02D1     		bne	.L75
 1077              		.loc 1 736 0
 1078 02ba 47F6FF73 		movw	r3, #32767
 1079 02be 0993     		str	r3, [sp, #36]
 1080              	.L75:
 1081              		.loc 1 737 0
 1082 02c0 0C9B     		ldr	r3, [sp, #48]
 1083 02c2 0D93     		str	r3, [sp, #52]
 1084 02c4 02E0     		b	.L76
 1085              	.L78:
 1086              		.loc 1 737 0 is_stmt 0 discriminator 4
 1087 02c6 0D9B     		ldr	r3, [sp, #52]
 1088 02c8 0133     		adds	r3, r3, #1
 1089 02ca 0D93     		str	r3, [sp, #52]
 1090              	.L76:
 1091              		.loc 1 737 0 discriminator 1
 1092 02cc 0D9B     		ldr	r3, [sp, #52]
 1093 02ce 1B78     		ldrb	r3, [r3]	@ zero_extendqisi2
 1094 02d0 002B     		cmp	r3, #0
 1095 02d2 05D0     		beq	.L77
 1096              		.loc 1 737 0 discriminator 3
 1097 02d4 099B     		ldr	r3, [sp, #36]
 1098 02d6 013B     		subs	r3, r3, #1
 1099 02d8 0993     		str	r3, [sp, #36]
 1100 02da 099B     		ldr	r3, [sp, #36]
 1101 02dc 002B     		cmp	r3, #0
 1102 02de F2DA     		bge	.L78
 1103              	.L77:
 1104              		.loc 1 738 0 is_stmt 1
 1105 02e0 51E0     		b	.L73
 1106              	.L66:
 1107              		.loc 1 741 0
 1108 02e2 9DF81F30 		ldrb	r3, [sp, #31]	@ zero_extendqisi2
 1109 02e6 002B     		cmp	r3, #0
 1110 02e8 0AD0     		beq	.L79
 1111              		.loc 1 742 0
 1112 02ea 059B     		ldr	r3, [sp, #20]
 1113 02ec 1A1D     		adds	r2, r3, #4
 1114 02ee 0592     		str	r2, [sp, #20]
 1115 02f0 1B68     		ldr	r3, [r3]
 1116 02f2 0693     		str	r3, [sp, #24]
 1117 02f4 09E0     		b	.L80
 1118              	.L96:
 1119 02f6 00BF     		.align	2
 1120              	.L95:
 1121 02f8 00000000 		.word	consoleVMT
 1122 02fc 08000000 		.word	.LC1
 1123              	.L79:
 1124              		.loc 1 744 0
 1125 0300 059B     		ldr	r3, [sp, #20]
 1126 0302 1A1D     		adds	r2, r3, #4
 1127 0304 0592     		str	r2, [sp, #20]
 1128 0306 1B68     		ldr	r3, [r3]
 1129 0308 0693     		str	r3, [sp, #24]
 1130              	.L80:
 1131              		.loc 1 745 0
ARM GAS  /tmp/cc4PPDfd.s 			page 21


 1132 030a 069B     		ldr	r3, [sp, #24]
 1133 030c 002B     		cmp	r3, #0
 1134 030e 07DA     		bge	.L81
 1135              		.loc 1 746 0
 1136 0310 0D9B     		ldr	r3, [sp, #52]
 1137 0312 5A1C     		adds	r2, r3, #1
 1138 0314 0D92     		str	r2, [sp, #52]
 1139 0316 2D22     		movs	r2, #45
 1140 0318 1A70     		strb	r2, [r3]
 1141              		.loc 1 747 0
 1142 031a 069B     		ldr	r3, [sp, #24]
 1143 031c 5B42     		negs	r3, r3
 1144 031e 0693     		str	r3, [sp, #24]
 1145              	.L81:
 1146              		.loc 1 749 0
 1147 0320 0D98     		ldr	r0, [sp, #52]
 1148 0322 0699     		ldr	r1, [sp, #24]
 1149 0324 0A22     		movs	r2, #10
 1150 0326 0023     		movs	r3, #0
 1151 0328 FFF7FEFF 		bl	ltoa_wd
 1152 032c 0D90     		str	r0, [sp, #52]
 1153              		.loc 1 750 0
 1154 032e 2AE0     		b	.L73
 1155              	.L70:
 1156              		.loc 1 763 0
 1157 0330 1023     		movs	r3, #16
 1158 0332 8DF82F30 		strb	r3, [sp, #47]
 1159              		.loc 1 764 0
 1160 0336 06E0     		b	.L82
 1161              	.L69:
 1162              		.loc 1 767 0
 1163 0338 0A23     		movs	r3, #10
 1164 033a 8DF82F30 		strb	r3, [sp, #47]
 1165              		.loc 1 768 0
 1166 033e 02E0     		b	.L82
 1167              	.L68:
 1168              		.loc 1 771 0
 1169 0340 0823     		movs	r3, #8
 1170 0342 8DF82F30 		strb	r3, [sp, #47]
 1171              	.L82:
 1172              		.loc 1 773 0
 1173 0346 9DF81F30 		ldrb	r3, [sp, #31]	@ zero_extendqisi2
 1174 034a 002B     		cmp	r3, #0
 1175 034c 05D0     		beq	.L83
 1176              		.loc 1 774 0
 1177 034e 059B     		ldr	r3, [sp, #20]
 1178 0350 1A1D     		adds	r2, r3, #4
 1179 0352 0592     		str	r2, [sp, #20]
 1180 0354 1B68     		ldr	r3, [r3]
 1181 0356 0693     		str	r3, [sp, #24]
 1182 0358 04E0     		b	.L84
 1183              	.L83:
 1184              		.loc 1 776 0
 1185 035a 059B     		ldr	r3, [sp, #20]
 1186 035c 1A1D     		adds	r2, r3, #4
 1187 035e 0592     		str	r2, [sp, #20]
 1188 0360 1B68     		ldr	r3, [r3]
ARM GAS  /tmp/cc4PPDfd.s 			page 22


 1189 0362 0693     		str	r3, [sp, #24]
 1190              	.L84:
 1191              		.loc 1 777 0
 1192 0364 9DF82F30 		ldrb	r3, [sp, #47]	@ zero_extendqisi2
 1193 0368 0D98     		ldr	r0, [sp, #52]
 1194 036a 0699     		ldr	r1, [sp, #24]
 1195 036c 1A46     		mov	r2, r3
 1196 036e 0023     		movs	r3, #0
 1197 0370 FFF7FEFF 		bl	ltoa_wd
 1198 0374 0D90     		str	r0, [sp, #52]
 1199              		.loc 1 778 0
 1200 0376 06E0     		b	.L73
 1201              	.L65:
 1202              		.loc 1 780 0
 1203 0378 0D9B     		ldr	r3, [sp, #52]
 1204 037a 5A1C     		adds	r2, r3, #1
 1205 037c 0D92     		str	r2, [sp, #52]
 1206 037e 9DF82F20 		ldrb	r2, [sp, #47]
 1207 0382 1A70     		strb	r2, [r3]
 1208              		.loc 1 781 0
 1209 0384 00BF     		nop
 1210              	.L73:
 1211              		.loc 1 784 0
 1212 0386 0D9A     		ldr	r2, [sp, #52]
 1213 0388 0C9B     		ldr	r3, [sp, #48]
 1214 038a D31A     		subs	r3, r2, r3
 1215 038c 0A93     		str	r3, [sp, #40]
 1216              		.loc 1 785 0
 1217 038e 089A     		ldr	r2, [sp, #32]
 1218 0390 0A9B     		ldr	r3, [sp, #40]
 1219 0392 D31A     		subs	r3, r2, r3
 1220 0394 0893     		str	r3, [sp, #32]
 1221 0396 089B     		ldr	r3, [sp, #32]
 1222 0398 002B     		cmp	r3, #0
 1223 039a 01DA     		bge	.L85
 1224              		.loc 1 786 0
 1225 039c 0023     		movs	r3, #0
 1226 039e 0893     		str	r3, [sp, #32]
 1227              	.L85:
 1228              		.loc 1 787 0
 1229 03a0 9DF81E30 		ldrb	r3, [sp, #30]
 1230 03a4 83F00103 		eor	r3, r3, #1
 1231 03a8 DBB2     		uxtb	r3, r3
 1232 03aa 002B     		cmp	r3, #0
 1233 03ac 02D0     		beq	.L86
 1234              		.loc 1 788 0
 1235 03ae 089B     		ldr	r3, [sp, #32]
 1236 03b0 5B42     		negs	r3, r3
 1237 03b2 0893     		str	r3, [sp, #32]
 1238              	.L86:
 1239              		.loc 1 789 0
 1240 03b4 089B     		ldr	r3, [sp, #32]
 1241 03b6 002B     		cmp	r3, #0
 1242 03b8 1EDA     		bge	.L87
 1243              		.loc 1 790 0
 1244 03ba 0C9B     		ldr	r3, [sp, #48]
 1245 03bc 1B78     		ldrb	r3, [r3]	@ zero_extendqisi2
ARM GAS  /tmp/cc4PPDfd.s 			page 23


 1246 03be 2D2B     		cmp	r3, #45
 1247 03c0 0ED1     		bne	.L88
 1248              		.loc 1 790 0 is_stmt 0 discriminator 1
 1249 03c2 9DF82E30 		ldrb	r3, [sp, #46]	@ zero_extendqisi2
 1250 03c6 302B     		cmp	r3, #48
 1251 03c8 0AD1     		bne	.L88
 1252              		.loc 1 791 0 is_stmt 1
 1253 03ca 0C9B     		ldr	r3, [sp, #48]
 1254 03cc 5A1C     		adds	r2, r3, #1
 1255 03ce 0C92     		str	r2, [sp, #48]
 1256 03d0 1B78     		ldrb	r3, [r3]	@ zero_extendqisi2
 1257 03d2 0198     		ldr	r0, [sp, #4]
 1258 03d4 1946     		mov	r1, r3
 1259 03d6 FFF7FEFF 		bl	gwinPutChar
 1260              		.loc 1 792 0
 1261 03da 0A9B     		ldr	r3, [sp, #40]
 1262 03dc 013B     		subs	r3, r3, #1
 1263 03de 0A93     		str	r3, [sp, #40]
 1264              	.L88:
 1265              		.loc 1 795 0 discriminator 1
 1266 03e0 9DF82E30 		ldrb	r3, [sp, #46]	@ zero_extendqisi2
 1267 03e4 0198     		ldr	r0, [sp, #4]
 1268 03e6 1946     		mov	r1, r3
 1269 03e8 FFF7FEFF 		bl	gwinPutChar
 1270              		.loc 1 796 0 discriminator 1
 1271 03ec 089B     		ldr	r3, [sp, #32]
 1272 03ee 0133     		adds	r3, r3, #1
 1273 03f0 0893     		str	r3, [sp, #32]
 1274 03f2 089B     		ldr	r3, [sp, #32]
 1275 03f4 002B     		cmp	r3, #0
 1276 03f6 F3D1     		bne	.L88
 1277              	.L87:
 1278              		.loc 1 798 0
 1279 03f8 07E0     		b	.L89
 1280              	.L90:
 1281              		.loc 1 799 0
 1282 03fa 0C9B     		ldr	r3, [sp, #48]
 1283 03fc 5A1C     		adds	r2, r3, #1
 1284 03fe 0C92     		str	r2, [sp, #48]
 1285 0400 1B78     		ldrb	r3, [r3]	@ zero_extendqisi2
 1286 0402 0198     		ldr	r0, [sp, #4]
 1287 0404 1946     		mov	r1, r3
 1288 0406 FFF7FEFF 		bl	gwinPutChar
 1289              	.L89:
 1290              		.loc 1 798 0
 1291 040a 0A9B     		ldr	r3, [sp, #40]
 1292 040c 013B     		subs	r3, r3, #1
 1293 040e 0A93     		str	r3, [sp, #40]
 1294 0410 0A9B     		ldr	r3, [sp, #40]
 1295 0412 002B     		cmp	r3, #0
 1296 0414 F1DA     		bge	.L90
 1297              		.loc 1 800 0
 1298 0416 08E0     		b	.L91
 1299              	.L92:
 1300              		.loc 1 801 0
 1301 0418 9DF82E30 		ldrb	r3, [sp, #46]	@ zero_extendqisi2
 1302 041c 0198     		ldr	r0, [sp, #4]
ARM GAS  /tmp/cc4PPDfd.s 			page 24


 1303 041e 1946     		mov	r1, r3
 1304 0420 FFF7FEFF 		bl	gwinPutChar
 1305              		.loc 1 802 0
 1306 0424 089B     		ldr	r3, [sp, #32]
 1307 0426 013B     		subs	r3, r3, #1
 1308 0428 0893     		str	r3, [sp, #32]
 1309              	.L91:
 1310              		.loc 1 800 0
 1311 042a 089B     		ldr	r3, [sp, #32]
 1312 042c 002B     		cmp	r3, #0
 1313 042e F3D1     		bne	.L92
 1314              	.L46:
 1315              		.loc 1 804 0
 1316 0430 F6E5     		b	.L93
 1317              	.L40:
 1318              		.loc 1 805 0
 1319 0432 0EB0     		add	sp, sp, #56
 1320              		.cfi_def_cfa_offset 16
 1321              		@ sp needed
 1322 0434 5DF804EB 		ldr	lr, [sp], #4
 1323              		.cfi_restore 14
 1324              		.cfi_def_cfa_offset 12
 1325 0438 03B0     		add	sp, sp, #12
 1326              		.cfi_restore 3
 1327              		.cfi_restore 2
 1328              		.cfi_restore 1
 1329              		.cfi_def_cfa_offset 0
 1330 043a 7047     		bx	lr
 1331              		.cfi_endproc
 1332              	.LFE117:
 1333              		.size	gwinPrintf, .-gwinPrintf
 1334 043c AFF30080 		.text
 1335              	.Letext0:
 1336              		.file 2 "/opt/gcc-arm-none-eabi/lib/gcc/arm-none-eabi/4.9.3/include/stddef.h"
 1337              		.file 3 "/opt/gcc-arm-none-eabi/arm-none-eabi/include/machine/_default_types.h"
 1338              		.file 4 "/opt/gcc-arm-none-eabi/arm-none-eabi/include/stdint.h"
 1339              		.file 5 "/home/makkmarci/workspace/ChibiOS_2.6.8/os/ports/GCC/ARMCMx/chtypes.h"
 1340              		.file 6 "/home/makkmarci/workspace/ugfx/src/gqueue/gqueue.h"
 1341              		.file 7 "/home/makkmarci/workspace/ugfx/src/gdisp/gdisp.h"
 1342              		.file 8 "/home/makkmarci/workspace/ugfx/src/gdisp/gdisp_colors.h"
 1343              		.file 9 "/home/makkmarci/workspace/ugfx/src/gwin/gwin.h"
 1344              		.file 10 "/home/makkmarci/workspace/ugfx/src/gwin/gwin_class.h"
 1345              		.file 11 "/home/makkmarci/workspace/ugfx/src/gwin/gwin_console.h"
 1346              		.file 12 "/opt/gcc-arm-none-eabi/lib/gcc/arm-none-eabi/4.9.3/include/stdarg.h"
 1347              		.file 13 "<built-in>"
 1348              		.file 14 "/home/makkmarci/workspace/ChibiOS_2.6.8/os/ports/common/ARMCMx/CMSIS/include/core_cm4.h"