ARM GAS  /tmp/cct0uSir.s 			page 1


   1              		.syntax unified
   2              		.cpu cortex-m4
   3              		.eabi_attribute 27, 1
   4              		.eabi_attribute 28, 1
   5              		.fpu fpv4-sp-d16
   6              		.eabi_attribute 20, 1
   7              		.eabi_attribute 21, 1
   8              		.eabi_attribute 23, 3
   9              		.eabi_attribute 24, 1
  10              		.eabi_attribute 25, 1
  11              		.eabi_attribute 26, 1
  12              		.eabi_attribute 30, 6
  13              		.eabi_attribute 34, 1
  14              		.eabi_attribute 18, 4
  15              		.thumb
  16              		.file	"gwin_label.c"
  17              		.text
  18              	.Ltext0:
  19              		.cfi_sections	.debug_frame
  20              		.section	.text.getwidth,"ax",%progbits
  21              		.align	2
  22              		.p2align 4,,15
  23              		.thumb
  24              		.thumb_func
  25              		.type	getwidth, %function
  26              	getwidth:
  27              	.LFB111:
  28              		.file 1 "/home/makkmarci/workspace/ugfx/src/gwin/gwin_label.c"
  29              		.loc 1 29 0
  30              		.cfi_startproc
  31              		@ args = 0, pretend = 0, frame = 16
  32              		@ frame_needed = 0, uses_anonymous_args = 0
  33 0000 00B5     		push	{lr}
  34              		.cfi_def_cfa_offset 4
  35              		.cfi_offset 14, -4
  36 0002 85B0     		sub	sp, sp, #20
  37              		.cfi_def_cfa_offset 24
  38 0004 0390     		str	r0, [sp, #12]
  39 0006 0291     		str	r1, [sp, #8]
  40 0008 1346     		mov	r3, r2
  41 000a ADF80630 		strh	r3, [sp, #6]	@ movhi
  42              		.loc 1 32 0
  43 000e 0398     		ldr	r0, [sp, #12]
  44 0010 0299     		ldr	r1, [sp, #8]
  45 0012 FFF7FEFF 		bl	gdispGetStringWidth
  46 0016 0346     		mov	r3, r0
  47 0018 9BB2     		uxth	r3, r3
  48 001a 0233     		adds	r3, r3, #2
  49 001c 9BB2     		uxth	r3, r3
  50 001e 9BB2     		uxth	r3, r3
  51 0020 1BB2     		sxth	r3, r3
  52              		.loc 1 33 0
  53 0022 1846     		mov	r0, r3
  54 0024 05B0     		add	sp, sp, #20
  55              		.cfi_def_cfa_offset 4
  56              		@ sp needed
  57 0026 5DF804FB 		ldr	pc, [sp], #4
ARM GAS  /tmp/cct0uSir.s 			page 2


  58              		.cfi_endproc
  59              	.LFE111:
  60              		.size	getwidth, .-getwidth
  61 002a 00BFAFF3 		.section	.text.getheight,"ax",%progbits
  61      0080
  62              		.align	2
  63              		.p2align 4,,15
  64              		.thumb
  65              		.thumb_func
  66              		.type	getheight, %function
  67              	getheight:
  68              	.LFB112:
  69              		.loc 1 36 0
  70              		.cfi_startproc
  71              		@ args = 0, pretend = 0, frame = 16
  72              		@ frame_needed = 0, uses_anonymous_args = 0
  73 0000 00B5     		push	{lr}
  74              		.cfi_def_cfa_offset 4
  75              		.cfi_offset 14, -4
  76 0002 85B0     		sub	sp, sp, #20
  77              		.cfi_def_cfa_offset 24
  78 0004 0390     		str	r0, [sp, #12]
  79 0006 0291     		str	r1, [sp, #8]
  80 0008 1346     		mov	r3, r2
  81 000a ADF80630 		strh	r3, [sp, #6]	@ movhi
  82              		.loc 1 40 0
  83 000e 0298     		ldr	r0, [sp, #8]
  84 0010 0021     		movs	r1, #0
  85 0012 FFF7FEFF 		bl	gdispGetFontMetric
  86 0016 0346     		mov	r3, r0
  87              		.loc 1 41 0
  88 0018 1846     		mov	r0, r3
  89 001a 05B0     		add	sp, sp, #20
  90              		.cfi_def_cfa_offset 4
  91              		@ sp needed
  92 001c 5DF804FB 		ldr	pc, [sp], #4
  93              		.cfi_endproc
  94              	.LFE112:
  95              		.size	getheight, .-getheight
  96              		.section	.rodata
  97              		.align	2
  98              	.LC0:
  99 0000 4C616265 		.ascii	"Label\000"
  99      6C00
 100 0006 0000     		.section	.rodata.labelVMT,"a",%progbits
 101              		.align	2
 102              		.type	labelVMT, %object
 103              		.size	labelVMT, 36
 104              	labelVMT:
 105 0000 00000000 		.word	.LC0
 106 0004 30000000 		.word	48
 107 0008 00000000 		.word	_gwidgetDestroy
 108 000c 00000000 		.word	_gwidgetRedraw
 109 0010 00000000 		.word	0
 110 0014 00000000 		.word	gwinLabelDefaultDraw
 111 0018 00000000 		.word	0
 112 001c 00000000 		.word	0
ARM GAS  /tmp/cct0uSir.s 			page 3


 113 0020 00000000 		.word	0
 114              		.section	.text.gwinGLabelCreate,"ax",%progbits
 115              		.align	2
 116              		.p2align 4,,15
 117              		.global	gwinGLabelCreate
 118              		.thumb
 119              		.thumb_func
 120              		.type	gwinGLabelCreate, %function
 121              	gwinGLabelCreate:
 122              	.LFB113:
 123              		.loc 1 80 0
 124              		.cfi_startproc
 125              		@ args = 0, pretend = 0, frame = 24
 126              		@ frame_needed = 0, uses_anonymous_args = 0
 127 0000 30B5     		push	{r4, r5, lr}
 128              		.cfi_def_cfa_offset 12
 129              		.cfi_offset 4, -12
 130              		.cfi_offset 5, -8
 131              		.cfi_offset 14, -4
 132 0002 87B0     		sub	sp, sp, #28
 133              		.cfi_def_cfa_offset 40
 134 0004 0390     		str	r0, [sp, #12]
 135 0006 0291     		str	r1, [sp, #8]
 136 0008 0192     		str	r2, [sp, #4]
 137              		.loc 1 81 0
 138 000a 0023     		movs	r3, #0
 139 000c ADF81630 		strh	r3, [sp, #22]	@ movhi
 140              		.loc 1 84 0
 141 0010 019B     		ldr	r3, [sp, #4]
 142 0012 9B88     		ldrh	r3, [r3, #4]
 143 0014 1BB2     		sxth	r3, r3
 144 0016 002B     		cmp	r3, #0
 145 0018 1FDC     		bgt	.L6
 146              		.loc 1 86 0
 147 001a BDF81630 		ldrh	r3, [sp, #22]	@ movhi
 148 001e 43F00103 		orr	r3, r3, #1
 149 0022 ADF81630 		strh	r3, [sp, #22]	@ movhi
 150              		.loc 1 87 0
 151 0026 019B     		ldr	r3, [sp, #4]
 152 0028 DC68     		ldr	r4, [r3, #12]
 153 002a FFF7FEFF 		bl	gwinGetDefaultFont
 154 002e 0546     		mov	r5, r0
 155 0030 0398     		ldr	r0, [sp, #12]
 156 0032 FFF7FEFF 		bl	gdispGGetWidth
 157 0036 0346     		mov	r3, r0
 158 0038 9AB2     		uxth	r2, r3
 159 003a 019B     		ldr	r3, [sp, #4]
 160 003c 1B88     		ldrh	r3, [r3]
 161 003e 9BB2     		uxth	r3, r3
 162 0040 D31A     		subs	r3, r2, r3
 163 0042 9BB2     		uxth	r3, r3
 164 0044 9BB2     		uxth	r3, r3
 165 0046 1BB2     		sxth	r3, r3
 166 0048 2046     		mov	r0, r4
 167 004a 2946     		mov	r1, r5
 168 004c 1A46     		mov	r2, r3
 169 004e FFF7FEFF 		bl	getwidth
ARM GAS  /tmp/cct0uSir.s 			page 4


 170 0052 0346     		mov	r3, r0
 171 0054 1A46     		mov	r2, r3
 172 0056 019B     		ldr	r3, [sp, #4]
 173 0058 9A80     		strh	r2, [r3, #4]	@ movhi
 174              	.L6:
 175              		.loc 1 91 0
 176 005a 019B     		ldr	r3, [sp, #4]
 177 005c DB88     		ldrh	r3, [r3, #6]
 178 005e 1BB2     		sxth	r3, r3
 179 0060 002B     		cmp	r3, #0
 180 0062 1FDC     		bgt	.L7
 181              		.loc 1 92 0
 182 0064 BDF81630 		ldrh	r3, [sp, #22]	@ movhi
 183 0068 43F00203 		orr	r3, r3, #2
 184 006c ADF81630 		strh	r3, [sp, #22]	@ movhi
 185              		.loc 1 93 0
 186 0070 019B     		ldr	r3, [sp, #4]
 187 0072 DC68     		ldr	r4, [r3, #12]
 188 0074 FFF7FEFF 		bl	gwinGetDefaultFont
 189 0078 0546     		mov	r5, r0
 190 007a 0398     		ldr	r0, [sp, #12]
 191 007c FFF7FEFF 		bl	gdispGGetWidth
 192 0080 0346     		mov	r3, r0
 193 0082 9AB2     		uxth	r2, r3
 194 0084 019B     		ldr	r3, [sp, #4]
 195 0086 1B88     		ldrh	r3, [r3]
 196 0088 9BB2     		uxth	r3, r3
 197 008a D31A     		subs	r3, r2, r3
 198 008c 9BB2     		uxth	r3, r3
 199 008e 9BB2     		uxth	r3, r3
 200 0090 1BB2     		sxth	r3, r3
 201 0092 2046     		mov	r0, r4
 202 0094 2946     		mov	r1, r5
 203 0096 1A46     		mov	r2, r3
 204 0098 FFF7FEFF 		bl	getheight
 205 009c 0346     		mov	r3, r0
 206 009e 1A46     		mov	r2, r3
 207 00a0 019B     		ldr	r3, [sp, #4]
 208 00a2 DA80     		strh	r2, [r3, #6]	@ movhi
 209              	.L7:
 210              		.loc 1 96 0
 211 00a4 029B     		ldr	r3, [sp, #8]
 212 00a6 0398     		ldr	r0, [sp, #12]
 213 00a8 1946     		mov	r1, r3
 214 00aa 019A     		ldr	r2, [sp, #4]
 215 00ac 0D4B     		ldr	r3, .L10
 216 00ae FFF7FEFF 		bl	_gwidgetCreate
 217 00b2 0290     		str	r0, [sp, #8]
 218 00b4 029B     		ldr	r3, [sp, #8]
 219 00b6 002B     		cmp	r3, #0
 220 00b8 01D1     		bne	.L8
 221              		.loc 1 97 0
 222 00ba 0023     		movs	r3, #0
 223 00bc 0EE0     		b	.L9
 224              	.L8:
 225              		.loc 1 104 0
 226 00be 029B     		ldr	r3, [sp, #8]
ARM GAS  /tmp/cct0uSir.s 			page 5


 227 00c0 9A69     		ldr	r2, [r3, #24]
 228 00c2 BDF81630 		ldrh	r3, [sp, #22]
 229 00c6 1A43     		orrs	r2, r2, r3
 230 00c8 029B     		ldr	r3, [sp, #8]
 231 00ca 9A61     		str	r2, [r3, #24]
 232              		.loc 1 105 0
 233 00cc 029A     		ldr	r2, [sp, #8]
 234 00ce 019B     		ldr	r3, [sp, #4]
 235 00d0 1B7A     		ldrb	r3, [r3, #8]	@ zero_extendqisi2
 236 00d2 1046     		mov	r0, r2
 237 00d4 1946     		mov	r1, r3
 238 00d6 FFF7FEFF 		bl	gwinSetVisible
 239              		.loc 1 107 0
 240 00da 029B     		ldr	r3, [sp, #8]
 241              	.L9:
 242              		.loc 1 108 0
 243 00dc 1846     		mov	r0, r3
 244 00de 07B0     		add	sp, sp, #28
 245              		.cfi_def_cfa_offset 12
 246              		@ sp needed
 247 00e0 30BD     		pop	{r4, r5, pc}
 248              	.L11:
 249 00e2 00BF     		.align	2
 250              	.L10:
 251 00e4 00000000 		.word	labelVMT
 252              		.cfi_endproc
 253              	.LFE113:
 254              		.size	gwinGLabelCreate, .-gwinGLabelCreate
 255 00e8 AFF30080 		.section	.text.gwinLabelSetBorder,"ax",%progbits
 255      AFF30080 
 256              		.align	2
 257              		.p2align 4,,15
 258              		.global	gwinLabelSetBorder
 259              		.thumb
 260              		.thumb_func
 261              		.type	gwinLabelSetBorder, %function
 262              	gwinLabelSetBorder:
 263              	.LFB114:
 264              		.loc 1 110 0
 265              		.cfi_startproc
 266              		@ args = 0, pretend = 0, frame = 8
 267              		@ frame_needed = 0, uses_anonymous_args = 0
 268              		@ link register save eliminated.
 269 0000 82B0     		sub	sp, sp, #8
 270              		.cfi_def_cfa_offset 8
 271 0002 0190     		str	r0, [sp, #4]
 272 0004 0B46     		mov	r3, r1
 273 0006 8DF80330 		strb	r3, [sp, #3]
 274              		.loc 1 112 0
 275 000a 019B     		ldr	r3, [sp, #4]
 276 000c 5B68     		ldr	r3, [r3, #4]
 277 000e 0B4A     		ldr	r2, .L16
 278 0010 9342     		cmp	r3, r2
 279 0012 00D0     		beq	.L13
 280              		.loc 1 113 0
 281 0014 10E0     		b	.L12
 282              	.L13:
ARM GAS  /tmp/cct0uSir.s 			page 6


 283              		.loc 1 115 0
 284 0016 9DF80330 		ldrb	r3, [sp, #3]	@ zero_extendqisi2
 285 001a 002B     		cmp	r3, #0
 286 001c 06D0     		beq	.L15
 287              		.loc 1 116 0
 288 001e 019B     		ldr	r3, [sp, #4]
 289 0020 9B69     		ldr	r3, [r3, #24]
 290 0022 43F00402 		orr	r2, r3, #4
 291 0026 019B     		ldr	r3, [sp, #4]
 292 0028 9A61     		str	r2, [r3, #24]
 293 002a 05E0     		b	.L12
 294              	.L15:
 295              		.loc 1 118 0
 296 002c 019B     		ldr	r3, [sp, #4]
 297 002e 9B69     		ldr	r3, [r3, #24]
 298 0030 23F00402 		bic	r2, r3, #4
 299 0034 019B     		ldr	r3, [sp, #4]
 300 0036 9A61     		str	r2, [r3, #24]
 301              	.L12:
 302              		.loc 1 119 0
 303 0038 02B0     		add	sp, sp, #8
 304              		.cfi_def_cfa_offset 0
 305              		@ sp needed
 306 003a 7047     		bx	lr
 307              	.L17:
 308              		.align	2
 309              	.L16:
 310 003c 00000000 		.word	labelVMT
 311              		.cfi_endproc
 312              	.LFE114:
 313              		.size	gwinLabelSetBorder, .-gwinLabelSetBorder
 314              		.section	.text.gwinLabelDefaultDraw,"ax",%progbits
 315              		.align	2
 316              		.p2align 4,,15
 317              		.thumb
 318              		.thumb_func
 319              		.type	gwinLabelDefaultDraw, %function
 320              	gwinLabelDefaultDraw:
 321              	.LFB115:
 322              		.loc 1 134 0
 323              		.cfi_startproc
 324              		@ args = 0, pretend = 0, frame = 16
 325              		@ frame_needed = 0, uses_anonymous_args = 0
 326 0000 F0B5     		push	{r4, r5, r6, r7, lr}
 327              		.cfi_def_cfa_offset 20
 328              		.cfi_offset 4, -20
 329              		.cfi_offset 5, -16
 330              		.cfi_offset 6, -12
 331              		.cfi_offset 7, -8
 332              		.cfi_offset 14, -4
 333 0002 8BB0     		sub	sp, sp, #44
 334              		.cfi_def_cfa_offset 64
 335 0004 0790     		str	r0, [sp, #28]
 336 0006 0691     		str	r1, [sp, #24]
 337              		.loc 1 140 0
 338 0008 079B     		ldr	r3, [sp, #28]
 339 000a 5B68     		ldr	r3, [r3, #4]
ARM GAS  /tmp/cct0uSir.s 			page 7


 340 000c 704A     		ldr	r2, .L33
 341 000e 9342     		cmp	r3, r2
 342 0010 00D0     		beq	.L19
 343              		.loc 1 141 0
 344 0012 DAE0     		b	.L18
 345              	.L19:
 346              		.loc 1 143 0
 347 0014 079B     		ldr	r3, [sp, #28]
 348 0016 9B69     		ldr	r3, [r3, #24]
 349 0018 03F00103 		and	r3, r3, #1
 350 001c 002B     		cmp	r3, #0
 351 001e 18D0     		beq	.L21
 352              		.loc 1 143 0 is_stmt 0 discriminator 1
 353 0020 079B     		ldr	r3, [sp, #28]
 354 0022 1D6A     		ldr	r5, [r3, #32]
 355 0024 079B     		ldr	r3, [sp, #28]
 356 0026 DC69     		ldr	r4, [r3, #28]
 357 0028 079B     		ldr	r3, [sp, #28]
 358 002a 9B68     		ldr	r3, [r3, #8]
 359 002c 1846     		mov	r0, r3
 360 002e FFF7FEFF 		bl	gdispGGetWidth
 361 0032 0346     		mov	r3, r0
 362 0034 9AB2     		uxth	r2, r3
 363 0036 079B     		ldr	r3, [sp, #28]
 364 0038 9B89     		ldrh	r3, [r3, #12]
 365 003a 9BB2     		uxth	r3, r3
 366 003c D31A     		subs	r3, r2, r3
 367 003e 9BB2     		uxth	r3, r3
 368 0040 9BB2     		uxth	r3, r3
 369 0042 1BB2     		sxth	r3, r3
 370 0044 2846     		mov	r0, r5
 371 0046 2146     		mov	r1, r4
 372 0048 1A46     		mov	r2, r3
 373 004a FFF7FEFF 		bl	getwidth
 374 004e 0346     		mov	r3, r0
 375 0050 01E0     		b	.L22
 376              	.L21:
 377              		.loc 1 143 0 discriminator 2
 378 0052 079B     		ldr	r3, [sp, #28]
 379 0054 1B8A     		ldrh	r3, [r3, #16]
 380              	.L22:
 381              		.loc 1 143 0 discriminator 4
 382 0056 ADF82630 		strh	r3, [sp, #38]	@ movhi
 383              		.loc 1 144 0 is_stmt 1 discriminator 4
 384 005a 079B     		ldr	r3, [sp, #28]
 385 005c 9B69     		ldr	r3, [r3, #24]
 386 005e 03F00203 		and	r3, r3, #2
 387 0062 002B     		cmp	r3, #0
 388 0064 18D0     		beq	.L23
 389              		.loc 1 144 0 is_stmt 0 discriminator 1
 390 0066 079B     		ldr	r3, [sp, #28]
 391 0068 1D6A     		ldr	r5, [r3, #32]
 392 006a 079B     		ldr	r3, [sp, #28]
 393 006c DC69     		ldr	r4, [r3, #28]
 394 006e 079B     		ldr	r3, [sp, #28]
 395 0070 9B68     		ldr	r3, [r3, #8]
 396 0072 1846     		mov	r0, r3
ARM GAS  /tmp/cct0uSir.s 			page 8


 397 0074 FFF7FEFF 		bl	gdispGGetWidth
 398 0078 0346     		mov	r3, r0
 399 007a 9AB2     		uxth	r2, r3
 400 007c 079B     		ldr	r3, [sp, #28]
 401 007e 9B89     		ldrh	r3, [r3, #12]
 402 0080 9BB2     		uxth	r3, r3
 403 0082 D31A     		subs	r3, r2, r3
 404 0084 9BB2     		uxth	r3, r3
 405 0086 9BB2     		uxth	r3, r3
 406 0088 1BB2     		sxth	r3, r3
 407 008a 2846     		mov	r0, r5
 408 008c 2146     		mov	r1, r4
 409 008e 1A46     		mov	r2, r3
 410 0090 FFF7FEFF 		bl	getheight
 411 0094 0346     		mov	r3, r0
 412 0096 01E0     		b	.L24
 413              	.L23:
 414              		.loc 1 144 0 discriminator 2
 415 0098 079B     		ldr	r3, [sp, #28]
 416 009a 5B8A     		ldrh	r3, [r3, #18]
 417              	.L24:
 418              		.loc 1 144 0 discriminator 4
 419 009c ADF82430 		strh	r3, [sp, #36]	@ movhi
 420              		.loc 1 145 0 is_stmt 1 discriminator 4
 421 00a0 079B     		ldr	r3, [sp, #28]
 422 00a2 9B69     		ldr	r3, [r3, #24]
 423 00a4 03F40063 		and	r3, r3, #2048
 424 00a8 002B     		cmp	r3, #0
 425 00aa 03D0     		beq	.L25
 426              		.loc 1 145 0 is_stmt 0 discriminator 1
 427 00ac 079B     		ldr	r3, [sp, #28]
 428 00ae DB6A     		ldr	r3, [r3, #44]
 429 00b0 5B88     		ldrh	r3, [r3, #2]
 430 00b2 02E0     		b	.L26
 431              	.L25:
 432              		.loc 1 145 0 discriminator 2
 433 00b4 079B     		ldr	r3, [sp, #28]
 434 00b6 DB6A     		ldr	r3, [r3, #44]
 435 00b8 5B89     		ldrh	r3, [r3, #10]
 436              	.L26:
 437              		.loc 1 145 0 discriminator 4
 438 00ba ADF82230 		strh	r3, [sp, #34]	@ movhi
 439              		.loc 1 147 0 is_stmt 1 discriminator 4
 440 00be 079B     		ldr	r3, [sp, #28]
 441 00c0 1B8A     		ldrh	r3, [r3, #16]
 442 00c2 BDF92620 		ldrsh	r2, [sp, #38]
 443 00c6 1BB2     		sxth	r3, r3
 444 00c8 9A42     		cmp	r2, r3
 445 00ca 06D1     		bne	.L27
 446              		.loc 1 147 0 is_stmt 0 discriminator 1
 447 00cc 079B     		ldr	r3, [sp, #28]
 448 00ce 5B8A     		ldrh	r3, [r3, #18]
 449 00d0 BDF92420 		ldrsh	r2, [sp, #36]
 450 00d4 1BB2     		sxth	r3, r3
 451 00d6 9A42     		cmp	r2, r3
 452 00d8 30D0     		beq	.L28
 453              	.L27:
ARM GAS  /tmp/cct0uSir.s 			page 9


 454              		.loc 1 153 0 is_stmt 1
 455 00da 079B     		ldr	r3, [sp, #28]
 456 00dc 1B8A     		ldrh	r3, [r3, #16]
 457 00de BDF92620 		ldrsh	r2, [sp, #38]
 458 00e2 1BB2     		sxth	r3, r3
 459 00e4 9A42     		cmp	r2, r3
 460 00e6 06DC     		bgt	.L29
 461              		.loc 1 153 0 is_stmt 0 discriminator 1
 462 00e8 079B     		ldr	r3, [sp, #28]
 463 00ea 5B8A     		ldrh	r3, [r3, #18]
 464 00ec BDF92420 		ldrsh	r2, [sp, #36]
 465 00f0 1BB2     		sxth	r3, r3
 466 00f2 9A42     		cmp	r2, r3
 467 00f4 1ADD     		ble	.L30
 468              	.L29:
 469              		.loc 1 154 0 is_stmt 1
 470 00f6 0799     		ldr	r1, [sp, #28]
 471 00f8 079B     		ldr	r3, [sp, #28]
 472 00fa 1B8A     		ldrh	r3, [r3, #16]
 473 00fc 1AB2     		sxth	r2, r3
 474 00fe BDF92630 		ldrsh	r3, [sp, #38]
 475 0102 9342     		cmp	r3, r2
 476 0104 B8BF     		it	lt
 477 0106 1346     		movlt	r3, r2
 478 0108 98B2     		uxth	r0, r3
 479 010a 079B     		ldr	r3, [sp, #28]
 480 010c 5B8A     		ldrh	r3, [r3, #18]
 481 010e 1AB2     		sxth	r2, r3
 482 0110 BDF92430 		ldrsh	r3, [sp, #36]
 483 0114 9342     		cmp	r3, r2
 484 0116 B8BF     		it	lt
 485 0118 1346     		movlt	r3, r2
 486 011a 9BB2     		uxth	r3, r3
 487 011c 02B2     		sxth	r2, r0
 488 011e 1BB2     		sxth	r3, r3
 489 0120 0846     		mov	r0, r1
 490 0122 1146     		mov	r1, r2
 491 0124 1A46     		mov	r2, r3
 492 0126 FFF7FEFF 		bl	gwinResize
 493              		.loc 1 155 0
 494 012a 4EE0     		b	.L18
 495              	.L30:
 496              		.loc 1 157 0
 497 012c 079B     		ldr	r3, [sp, #28]
 498 012e 1B8A     		ldrh	r3, [r3, #16]	@ movhi
 499 0130 ADF82630 		strh	r3, [sp, #38]	@ movhi
 500              		.loc 1 158 0
 501 0134 079B     		ldr	r3, [sp, #28]
 502 0136 5B8A     		ldrh	r3, [r3, #18]	@ movhi
 503 0138 ADF82430 		strh	r3, [sp, #36]	@ movhi
 504              	.L28:
 505              		.loc 1 168 0
 506 013c 079B     		ldr	r3, [sp, #28]
 507 013e 9F68     		ldr	r7, [r3, #8]
 508 0140 079B     		ldr	r3, [sp, #28]
 509 0142 9C89     		ldrh	r4, [r3, #12]
 510 0144 079B     		ldr	r3, [sp, #28]
ARM GAS  /tmp/cct0uSir.s 			page 10


 511 0146 D889     		ldrh	r0, [r3, #14]
 512 0148 079B     		ldr	r3, [sp, #28]
 513 014a 196A     		ldr	r1, [r3, #32]
 514 014c 079B     		ldr	r3, [sp, #28]
 515 014e DA69     		ldr	r2, [r3, #28]
 516 0150 079B     		ldr	r3, [sp, #28]
 517 0152 DB6A     		ldr	r3, [r3, #44]
 518 0154 1B88     		ldrh	r3, [r3]
 519 0156 26B2     		sxth	r6, r4
 520 0158 05B2     		sxth	r5, r0
 521 015a BDF92640 		ldrsh	r4, [sp, #38]
 522 015e BDF92400 		ldrsh	r0, [sp, #36]
 523 0162 0090     		str	r0, [sp]
 524 0164 0191     		str	r1, [sp, #4]
 525 0166 0292     		str	r2, [sp, #8]
 526 0168 BDF82220 		ldrh	r2, [sp, #34]
 527 016c 0392     		str	r2, [sp, #12]
 528 016e 0493     		str	r3, [sp, #16]
 529 0170 0023     		movs	r3, #0
 530 0172 0593     		str	r3, [sp, #20]
 531 0174 3846     		mov	r0, r7
 532 0176 3146     		mov	r1, r6
 533 0178 2A46     		mov	r2, r5
 534 017a 2346     		mov	r3, r4
 535 017c FFF7FEFF 		bl	gdispGFillStringBox
 536              		.loc 1 172 0
 537 0180 079B     		ldr	r3, [sp, #28]
 538 0182 9B69     		ldr	r3, [r3, #24]
 539 0184 03F00403 		and	r3, r3, #4
 540 0188 002B     		cmp	r3, #0
 541 018a 1ED0     		beq	.L18
 542              		.loc 1 173 0
 543 018c 079B     		ldr	r3, [sp, #28]
 544 018e 9868     		ldr	r0, [r3, #8]
 545 0190 079B     		ldr	r3, [sp, #28]
 546 0192 9989     		ldrh	r1, [r3, #12]
 547 0194 079B     		ldr	r3, [sp, #28]
 548 0196 DA89     		ldrh	r2, [r3, #14]
 549 0198 079B     		ldr	r3, [sp, #28]
 550 019a 9B69     		ldr	r3, [r3, #24]
 551 019c 03F40063 		and	r3, r3, #2048
 552 01a0 002B     		cmp	r3, #0
 553 01a2 03D0     		beq	.L31
 554              		.loc 1 173 0 is_stmt 0 discriminator 1
 555 01a4 079B     		ldr	r3, [sp, #28]
 556 01a6 DB6A     		ldr	r3, [r3, #44]
 557 01a8 9B88     		ldrh	r3, [r3, #4]
 558 01aa 02E0     		b	.L32
 559              	.L31:
 560              		.loc 1 173 0 discriminator 2
 561 01ac 079B     		ldr	r3, [sp, #28]
 562 01ae DB6A     		ldr	r3, [r3, #44]
 563 01b0 9B89     		ldrh	r3, [r3, #12]
 564              	.L32:
 565              		.loc 1 173 0 discriminator 4
 566 01b2 09B2     		sxth	r1, r1
 567 01b4 15B2     		sxth	r5, r2
ARM GAS  /tmp/cct0uSir.s 			page 11


 568 01b6 BDF92640 		ldrsh	r4, [sp, #38]
 569 01ba BDF92420 		ldrsh	r2, [sp, #36]
 570 01be 0092     		str	r2, [sp]
 571 01c0 0193     		str	r3, [sp, #4]
 572 01c2 2A46     		mov	r2, r5
 573 01c4 2346     		mov	r3, r4
 574 01c6 FFF7FEFF 		bl	gdispGDrawBox
 575              	.L18:
 576              		.loc 1 174 0 is_stmt 1
 577 01ca 0BB0     		add	sp, sp, #44
 578              		.cfi_def_cfa_offset 20
 579              		@ sp needed
 580 01cc F0BD     		pop	{r4, r5, r6, r7, pc}
 581              	.L34:
 582 01ce 00BF     		.align	2
 583              	.L33:
 584 01d0 00000000 		.word	labelVMT
 585              		.cfi_endproc
 586              	.LFE115:
 587              		.size	gwinLabelDefaultDraw, .-gwinLabelDefaultDraw
 588 01d4 AFF30080 		.text
 588      AFF30080 
 588      AFF30080 
 589              	.Letext0:
 590              		.file 2 "/opt/gcc-arm-none-eabi/lib/gcc/arm-none-eabi/4.9.3/include/stddef.h"
 591              		.file 3 "/opt/gcc-arm-none-eabi/arm-none-eabi/include/machine/_default_types.h"
 592              		.file 4 "/opt/gcc-arm-none-eabi/arm-none-eabi/include/stdint.h"
 593              		.file 5 "/home/makkmarci/workspace/ChibiOS_2.6.8/os/ports/GCC/ARMCMx/chtypes.h"
 594              		.file 6 "/home/makkmarci/workspace/ugfx/src/gqueue/gqueue.h"
 595              		.file 7 "/home/makkmarci/workspace/ugfx/src/gdisp/gdisp.h"
 596              		.file 8 "/home/makkmarci/workspace/ugfx/src/gdisp/gdisp_colors.h"
 597              		.file 9 "/home/makkmarci/workspace/ugfx/src/gwin/gwin.h"
 598              		.file 10 "/home/makkmarci/workspace/ugfx/src/gwin/gwin_class.h"
 599              		.file 11 "/home/makkmarci/workspace/ugfx/src/gwin/gwin_widget.h"
 600              		.file 12 "/home/makkmarci/workspace/ugfx/src/gwin/gwin_label.h"
 601              		.file 13 "/home/makkmarci/workspace/ChibiOS_2.6.8/os/ports/common/ARMCMx/CMSIS/include/core_cm4.h"