ARM GAS  /tmp/ccihpvPa.s 			page 1


   1              		.syntax unified
   2              		.cpu cortex-m4
   3              		.eabi_attribute 27, 1
   4              		.eabi_attribute 28, 1
   5              		.fpu fpv4-sp-d16
   6              		.eabi_attribute 20, 1
   7              		.eabi_attribute 21, 1
   8              		.eabi_attribute 23, 3
   9              		.eabi_attribute 24, 1
  10              		.eabi_attribute 25, 1
  11              		.eabi_attribute 26, 1
  12              		.eabi_attribute 30, 6
  13              		.eabi_attribute 34, 1
  14              		.eabi_attribute 18, 4
  15              		.thumb
  16              		.file	"gwin_wm.c"
  17              		.text
  18              	.Ltext0:
  19              		.cfi_sections	.debug_frame
  20              		.global	_GWINwm
  21              		.section	.bss._GWINwm,"aw",%nobits
  22              		.align	2
  23              		.type	_GWINwm, %object
  24              		.size	_GWINwm, 4
  25              	_GWINwm:
  26 0000 00000000 		.space	4
  27              		.global	_gwinFlashState
  28              		.section	.bss._gwinFlashState,"aw",%nobits
  29              		.type	_gwinFlashState, %object
  30              		.size	_gwinFlashState, 1
  31              	_gwinFlashState:
  32 0000 00       		.space	1
  33              		.section	.bss.gwinsem,"aw",%nobits
  34              		.align	2
  35              		.type	gwinsem, %object
  36              		.size	gwinsem, 16
  37              	gwinsem:
  38 0000 00000000 		.space	16
  38      00000000 
  38      00000000 
  38      00000000 
  39              		.section	.bss._GWINList,"aw",%nobits
  40              		.align	2
  41              		.type	_GWINList, %object
  42              		.size	_GWINList, 8
  43              	_GWINList:
  44 0000 00000000 		.space	8
  44      00000000 
  45              		.section	.bss.RedrawTimer,"aw",%nobits
  46              		.align	2
  47              		.type	RedrawTimer, %object
  48              		.size	RedrawTimer, 28
  49              	RedrawTimer:
  50 0000 00000000 		.space	28
  50      00000000 
  50      00000000 
  50      00000000 
ARM GAS  /tmp/ccihpvPa.s 			page 2


  50      00000000 
  51              		.section	.bss.RedrawPending,"aw",%nobits
  52              		.type	RedrawPending, %object
  53              		.size	RedrawPending, 1
  54              	RedrawPending:
  55 0000 00       		.space	1
  56              		.section	.text._gwmInit,"ax",%progbits
  57              		.align	2
  58              		.p2align 4,,15
  59              		.global	_gwmInit
  60              		.thumb
  61              		.thumb_func
  62              		.type	_gwmInit, %function
  63              	_gwmInit:
  64              	.LFB111:
  65              		.file 1 "/home/makkmarci/workspace/ugfx/src/gwin/gwin_wm.c"
  66              		.loc 1 186 0
  67              		.cfi_startproc
  68              		@ args = 0, pretend = 0, frame = 0
  69              		@ frame_needed = 0, uses_anonymous_args = 0
  70 0000 00B5     		push	{lr}
  71              		.cfi_def_cfa_offset 4
  72              		.cfi_offset 14, -4
  73 0002 83B0     		sub	sp, sp, #12
  74              		.cfi_def_cfa_offset 16
  75              		.loc 1 187 0
  76 0004 0F48     		ldr	r0, .L2
  77 0006 0121     		movs	r1, #1
  78 0008 0122     		movs	r2, #1
  79 000a FFF7FEFF 		bl	gfxSemInit
  80              		.loc 1 188 0
  81 000e 0E48     		ldr	r0, .L2+4
  82 0010 FFF7FEFF 		bl	gfxQueueASyncInit
  83              		.loc 1 193 0
  84 0014 0D48     		ldr	r0, .L2+8
  85 0016 FFF7FEFF 		bl	gtimerInit
  86              		.loc 1 194 0
  87 001a 4FF0FF33 		mov	r3, #-1
  88 001e 0093     		str	r3, [sp]
  89 0020 0A48     		ldr	r0, .L2+8
  90 0022 0B49     		ldr	r1, .L2+12
  91 0024 0022     		movs	r2, #0
  92 0026 0123     		movs	r3, #1
  93 0028 FFF7FEFF 		bl	gtimerStart
  94              		.loc 1 196 0
  95 002c 094B     		ldr	r3, .L2+16
  96 002e 0A4A     		ldr	r2, .L2+20
  97 0030 1A60     		str	r2, [r3]
  98              		.loc 1 197 0
  99 0032 084B     		ldr	r3, .L2+16
 100 0034 1B68     		ldr	r3, [r3]
 101 0036 1B68     		ldr	r3, [r3]
 102 0038 1B68     		ldr	r3, [r3]
 103 003a 9847     		blx	r3
 104              		.loc 1 198 0
 105 003c 03B0     		add	sp, sp, #12
 106              		.cfi_def_cfa_offset 4
ARM GAS  /tmp/ccihpvPa.s 			page 3


 107              		@ sp needed
 108 003e 5DF804FB 		ldr	pc, [sp], #4
 109              	.L3:
 110 0042 00BF     		.align	2
 111              	.L2:
 112 0044 00000000 		.word	gwinsem
 113 0048 00000000 		.word	_GWINList
 114 004c 00000000 		.word	RedrawTimer
 115 0050 00000000 		.word	RedrawTimerFn
 116 0054 00000000 		.word	_GWINwm
 117 0058 00000000 		.word	GNullWindowManager
 118              		.cfi_endproc
 119              	.LFE111:
 120              		.size	_gwmInit, .-_gwmInit
 121 005c AFF30080 		.section	.text._gwmDeinit,"ax",%progbits
 122              		.align	2
 123              		.p2align 4,,15
 124              		.global	_gwmDeinit
 125              		.thumb
 126              		.thumb_func
 127              		.type	_gwmDeinit, %function
 128              	_gwmDeinit:
 129              	.LFB112:
 130              		.loc 1 201 0
 131              		.cfi_startproc
 132              		@ args = 0, pretend = 0, frame = 8
 133              		@ frame_needed = 0, uses_anonymous_args = 0
 134 0000 00B5     		push	{lr}
 135              		.cfi_def_cfa_offset 4
 136              		.cfi_offset 14, -4
 137 0002 83B0     		sub	sp, sp, #12
 138              		.cfi_def_cfa_offset 16
 139              		.loc 1 204 0
 140 0004 02E0     		b	.L5
 141              	.L6:
 142              		.loc 1 205 0
 143 0006 0198     		ldr	r0, [sp, #4]
 144 0008 FFF7FEFF 		bl	gwinDestroy
 145              	.L5:
 146              		.loc 1 204 0
 147 000c 0020     		movs	r0, #0
 148 000e FFF7FEFF 		bl	gwinGetNextWindow
 149 0012 0190     		str	r0, [sp, #4]
 150 0014 019B     		ldr	r3, [sp, #4]
 151 0016 002B     		cmp	r3, #0
 152 0018 F5D1     		bne	.L6
 153              		.loc 1 207 0
 154 001a 074B     		ldr	r3, .L7
 155 001c 1B68     		ldr	r3, [r3]
 156 001e 1B68     		ldr	r3, [r3]
 157 0020 5B68     		ldr	r3, [r3, #4]
 158 0022 9847     		blx	r3
 159              		.loc 1 209 0
 160 0024 0548     		ldr	r0, .L7+4
 161 0026 FFF7FEFF 		bl	gtimerDeinit
 162              		.loc 1 212 0
 163 002a 0548     		ldr	r0, .L7+8
ARM GAS  /tmp/ccihpvPa.s 			page 4


 164 002c FFF7FEFF 		bl	gfxSemDestroy
 165              		.loc 1 213 0
 166 0030 03B0     		add	sp, sp, #12
 167              		.cfi_def_cfa_offset 4
 168              		@ sp needed
 169 0032 5DF804FB 		ldr	pc, [sp], #4
 170              	.L8:
 171 0036 00BF     		.align	2
 172              	.L7:
 173 0038 00000000 		.word	_GWINwm
 174 003c 00000000 		.word	RedrawTimer
 175 0040 00000000 		.word	gwinsem
 176              		.cfi_endproc
 177              	.LFE112:
 178              		.size	_gwmDeinit, .-_gwmDeinit
 179 0044 AFF30080 		.section	.text.RedrawTimerFn,"ax",%progbits
 179      AFF30080 
 179      AFF30080 
 180              		.align	2
 181              		.p2align 4,,15
 182              		.thumb
 183              		.thumb_func
 184              		.type	RedrawTimerFn, %function
 185              	RedrawTimerFn:
 186              	.LFB113:
 187              		.loc 1 220 0
 188              		.cfi_startproc
 189              		@ args = 0, pretend = 0, frame = 8
 190              		@ frame_needed = 0, uses_anonymous_args = 0
 191 0000 00B5     		push	{lr}
 192              		.cfi_def_cfa_offset 4
 193              		.cfi_offset 14, -4
 194 0002 83B0     		sub	sp, sp, #12
 195              		.cfi_def_cfa_offset 16
 196 0004 0190     		str	r0, [sp, #4]
 197              		.loc 1 222 0
 198 0006 0120     		movs	r0, #1
 199 0008 FFF7FEFF 		bl	_gwinFlushRedraws
 200              		.loc 1 223 0
 201 000c 03B0     		add	sp, sp, #12
 202              		.cfi_def_cfa_offset 4
 203              		@ sp needed
 204 000e 5DF804FB 		ldr	pc, [sp], #4
 205              		.cfi_endproc
 206              	.LFE113:
 207              		.size	RedrawTimerFn, .-RedrawTimerFn
 208 0012 00BFAFF3 		.section	.text._gwinFlushRedraws,"ax",%progbits
 208      0080AFF3 
 208      0080AFF3 
 208      0080
 209              		.align	2
 210              		.p2align 4,,15
 211              		.global	_gwinFlushRedraws
 212              		.thumb
 213              		.thumb_func
 214              		.type	_gwinFlushRedraws, %function
 215              	_gwinFlushRedraws:
ARM GAS  /tmp/ccihpvPa.s 			page 5


 216              	.LFB114:
 217              		.loc 1 226 0
 218              		.cfi_startproc
 219              		@ args = 0, pretend = 0, frame = 16
 220              		@ frame_needed = 0, uses_anonymous_args = 0
 221 0000 30B5     		push	{r4, r5, lr}
 222              		.cfi_def_cfa_offset 12
 223              		.cfi_offset 4, -12
 224              		.cfi_offset 5, -8
 225              		.cfi_offset 14, -4
 226 0002 87B0     		sub	sp, sp, #28
 227              		.cfi_def_cfa_offset 40
 228 0004 0346     		mov	r3, r0
 229 0006 8DF80F30 		strb	r3, [sp, #15]
 230              		.loc 1 230 0
 231 000a 804B     		ldr	r3, .L32
 232 000c 1B78     		ldrb	r3, [r3]
 233 000e DBB2     		uxtb	r3, r3
 234 0010 002B     		cmp	r3, #0
 235 0012 00D1     		bne	.L11
 236              		.loc 1 231 0
 237 0014 F7E0     		b	.L10
 238              	.L11:
 239              		.loc 1 234 0
 240 0016 9DF80F30 		ldrb	r3, [sp, #15]	@ zero_extendqisi2
 241 001a 002B     		cmp	r3, #0
 242 001c 05D1     		bne	.L13
 243              		.loc 1 235 0
 244 001e 7C48     		ldr	r0, .L32+4
 245 0020 4FF0FF31 		mov	r1, #-1
 246 0024 FFF7FEFF 		bl	gfxSemWait
 247 0028 0EE0     		b	.L14
 248              	.L13:
 249              		.loc 1 236 0
 250 002a 9DF80F30 		ldrb	r3, [sp, #15]	@ zero_extendqisi2
 251 002e 012B     		cmp	r3, #1
 252 0030 0AD1     		bne	.L14
 253              		.loc 1 236 0 is_stmt 0 discriminator 1
 254 0032 7748     		ldr	r0, .L32+4
 255 0034 0021     		movs	r1, #0
 256 0036 FFF7FEFF 		bl	gfxSemWait
 257 003a 0346     		mov	r3, r0
 258 003c 83F00103 		eor	r3, r3, #1
 259 0040 DBB2     		uxtb	r3, r3
 260 0042 002B     		cmp	r3, #0
 261 0044 00D0     		beq	.L14
 262              		.loc 1 238 0 is_stmt 1 discriminator 2
 263 0046 DEE0     		b	.L10
 264              	.L14:
 265              		.loc 1 241 0
 266 0048 59E0     		b	.L15
 267              	.L21:
 268              		.loc 1 242 0
 269 004a 704B     		ldr	r3, .L32
 270 004c 1B78     		ldrb	r3, [r3]
 271 004e DBB2     		uxtb	r3, r3
 272 0050 23F00103 		bic	r3, r3, #1
ARM GAS  /tmp/ccihpvPa.s 			page 6


 273 0054 DAB2     		uxtb	r2, r3
 274 0056 6D4B     		ldr	r3, .L32
 275 0058 1A70     		strb	r2, [r3]
 276              		.loc 1 244 0
 277 005a 0020     		movs	r0, #0
 278 005c FFF7FEFF 		bl	gwinGetNextWindow
 279 0060 0590     		str	r0, [sp, #20]
 280 0062 49E0     		b	.L16
 281              	.L20:
 282              		.loc 1 245 0
 283 0064 059B     		ldr	r3, [sp, #20]
 284 0066 9B69     		ldr	r3, [r3, #24]
 285 0068 03F48443 		and	r3, r3, #16896
 286 006c B3F5804F 		cmp	r3, #16384
 287 0070 00D0     		beq	.L17
 288              		.loc 1 246 0
 289 0072 3DE0     		b	.L18
 290              	.L17:
 291              		.loc 1 250 0
 292 0074 059B     		ldr	r3, [sp, #20]
 293 0076 9868     		ldr	r0, [r3, #8]
 294 0078 059B     		ldr	r3, [sp, #20]
 295 007a 9989     		ldrh	r1, [r3, #12]
 296 007c 059B     		ldr	r3, [sp, #20]
 297 007e DA89     		ldrh	r2, [r3, #14]
 298 0080 059B     		ldr	r3, [sp, #20]
 299 0082 1C8A     		ldrh	r4, [r3, #16]
 300 0084 059B     		ldr	r3, [sp, #20]
 301 0086 5B8A     		ldrh	r3, [r3, #18]
 302 0088 09B2     		sxth	r1, r1
 303 008a 12B2     		sxth	r2, r2
 304 008c 24B2     		sxth	r4, r4
 305 008e 1BB2     		sxth	r3, r3
 306 0090 0093     		str	r3, [sp]
 307 0092 2346     		mov	r3, r4
 308 0094 FFF7FEFF 		bl	gdispGSetClip
 309              		.loc 1 251 0
 310 0098 5E4B     		ldr	r3, .L32+8
 311 009a 1B68     		ldr	r3, [r3]
 312 009c 1B68     		ldr	r3, [r3]
 313 009e 1B69     		ldr	r3, [r3, #16]
 314 00a0 0598     		ldr	r0, [sp, #20]
 315 00a2 9847     		blx	r3
 316              		.loc 1 252 0
 317 00a4 059B     		ldr	r3, [sp, #20]
 318 00a6 9C68     		ldr	r4, [r3, #8]
 319 00a8 059B     		ldr	r3, [sp, #20]
 320 00aa 9B68     		ldr	r3, [r3, #8]
 321 00ac 1846     		mov	r0, r3
 322 00ae FFF7FEFF 		bl	gdispGGetWidth
 323 00b2 0346     		mov	r3, r0
 324 00b4 1D46     		mov	r5, r3
 325 00b6 059B     		ldr	r3, [sp, #20]
 326 00b8 9B68     		ldr	r3, [r3, #8]
 327 00ba 1846     		mov	r0, r3
 328 00bc FFF7FEFF 		bl	gdispGGetHeight
 329 00c0 0346     		mov	r3, r0
ARM GAS  /tmp/ccihpvPa.s 			page 7


 330 00c2 0093     		str	r3, [sp]
 331 00c4 2046     		mov	r0, r4
 332 00c6 0021     		movs	r1, #0
 333 00c8 0022     		movs	r2, #0
 334 00ca 2B46     		mov	r3, r5
 335 00cc FFF7FEFF 		bl	gdispGSetClip
 336              		.loc 1 259 0
 337 00d0 9DF80F30 		ldrb	r3, [sp, #15]	@ zero_extendqisi2
 338 00d4 012B     		cmp	r3, #1
 339 00d6 0BD1     		bne	.L18
 340              		.loc 1 260 0
 341 00d8 4C4B     		ldr	r3, .L32
 342 00da 1B78     		ldrb	r3, [r3]
 343 00dc DBB2     		uxtb	r3, r3
 344 00de 43F00103 		orr	r3, r3, #1
 345 00e2 DAB2     		uxtb	r2, r3
 346 00e4 494B     		ldr	r3, .L32
 347 00e6 1A70     		strb	r2, [r3]
 348              		.loc 1 261 0
 349 00e8 4B48     		ldr	r0, .L32+12
 350 00ea FFF7FEFF 		bl	gtimerJab
 351              		.loc 1 262 0
 352 00ee 7FE0     		b	.L19
 353              	.L18:
 354              		.loc 1 244 0 discriminator 2
 355 00f0 0598     		ldr	r0, [sp, #20]
 356 00f2 FFF7FEFF 		bl	gwinGetNextWindow
 357 00f6 0590     		str	r0, [sp, #20]
 358              	.L16:
 359              		.loc 1 244 0 is_stmt 0 discriminator 1
 360 00f8 059B     		ldr	r3, [sp, #20]
 361 00fa 002B     		cmp	r3, #0
 362 00fc B2D1     		bne	.L20
 363              	.L15:
 364              		.loc 1 241 0 is_stmt 1
 365 00fe 434B     		ldr	r3, .L32
 366 0100 1B78     		ldrb	r3, [r3]
 367 0102 DBB2     		uxtb	r3, r3
 368 0104 03F00103 		and	r3, r3, #1
 369 0108 002B     		cmp	r3, #0
 370 010a 9ED1     		bne	.L21
 371              		.loc 1 269 0
 372 010c 69E0     		b	.L22
 373              	.L30:
 374              		.loc 1 270 0
 375 010e 3F4B     		ldr	r3, .L32
 376 0110 1B78     		ldrb	r3, [r3]
 377 0112 DBB2     		uxtb	r3, r3
 378 0114 23F00203 		bic	r3, r3, #2
 379 0118 DAB2     		uxtb	r2, r3
 380 011a 3C4B     		ldr	r3, .L32
 381 011c 1A70     		strb	r2, [r3]
 382              		.loc 1 272 0
 383 011e 0020     		movs	r0, #0
 384 0120 FFF7FEFF 		bl	gwinGetNextWindow
 385 0124 0590     		str	r0, [sp, #20]
 386 0126 59E0     		b	.L23
ARM GAS  /tmp/ccihpvPa.s 			page 8


 387              	.L29:
 388              		.loc 1 273 0
 389 0128 059B     		ldr	r3, [sp, #20]
 390 012a 9B69     		ldr	r3, [r3, #24]
 391 012c 03F48443 		and	r3, r3, #16896
 392 0130 B3F5844F 		cmp	r3, #16896
 393 0134 00D0     		beq	.L24
 394              		.loc 1 274 0
 395 0136 4DE0     		b	.L25
 396              	.L24:
 397              		.loc 1 278 0
 398 0138 059B     		ldr	r3, [sp, #20]
 399 013a 9868     		ldr	r0, [r3, #8]
 400 013c 059B     		ldr	r3, [sp, #20]
 401 013e 9989     		ldrh	r1, [r3, #12]
 402 0140 059B     		ldr	r3, [sp, #20]
 403 0142 DA89     		ldrh	r2, [r3, #14]
 404 0144 059B     		ldr	r3, [sp, #20]
 405 0146 1C8A     		ldrh	r4, [r3, #16]
 406 0148 059B     		ldr	r3, [sp, #20]
 407 014a 5B8A     		ldrh	r3, [r3, #18]
 408 014c 09B2     		sxth	r1, r1
 409 014e 12B2     		sxth	r2, r2
 410 0150 24B2     		sxth	r4, r4
 411 0152 1BB2     		sxth	r3, r3
 412 0154 0093     		str	r3, [sp]
 413 0156 2346     		mov	r3, r4
 414 0158 FFF7FEFF 		bl	gdispGSetClip
 415              		.loc 1 279 0
 416 015c 2D4B     		ldr	r3, .L32+8
 417 015e 1B68     		ldr	r3, [r3]
 418 0160 1B68     		ldr	r3, [r3]
 419 0162 1B69     		ldr	r3, [r3, #16]
 420 0164 0598     		ldr	r0, [sp, #20]
 421 0166 9847     		blx	r3
 422              		.loc 1 280 0
 423 0168 059B     		ldr	r3, [sp, #20]
 424 016a 9C68     		ldr	r4, [r3, #8]
 425 016c 059B     		ldr	r3, [sp, #20]
 426 016e 9B68     		ldr	r3, [r3, #8]
 427 0170 1846     		mov	r0, r3
 428 0172 FFF7FEFF 		bl	gdispGGetWidth
 429 0176 0346     		mov	r3, r0
 430 0178 1D46     		mov	r5, r3
 431 017a 059B     		ldr	r3, [sp, #20]
 432 017c 9B68     		ldr	r3, [r3, #8]
 433 017e 1846     		mov	r0, r3
 434 0180 FFF7FEFF 		bl	gdispGGetHeight
 435 0184 0346     		mov	r3, r0
 436 0186 0093     		str	r3, [sp]
 437 0188 2046     		mov	r0, r4
 438 018a 0021     		movs	r1, #0
 439 018c 0022     		movs	r2, #0
 440 018e 2B46     		mov	r3, r5
 441 0190 FFF7FEFF 		bl	gdispGSetClip
 442              		.loc 1 287 0
 443 0194 9DF80F30 		ldrb	r3, [sp, #15]	@ zero_extendqisi2
ARM GAS  /tmp/ccihpvPa.s 			page 9


 444 0198 012B     		cmp	r3, #1
 445 019a 1BD1     		bne	.L25
 446              		.loc 1 288 0
 447 019c 12E0     		b	.L26
 448              	.L28:
 449              		.loc 1 289 0
 450 019e 059B     		ldr	r3, [sp, #20]
 451 01a0 9B69     		ldr	r3, [r3, #24]
 452 01a2 03F48443 		and	r3, r3, #16896
 453 01a6 B3F5844F 		cmp	r3, #16896
 454 01aa 0BD1     		bne	.L26
 455              		.loc 1 290 0
 456 01ac 174B     		ldr	r3, .L32
 457 01ae 1B78     		ldrb	r3, [r3]
 458 01b0 DBB2     		uxtb	r3, r3
 459 01b2 43F00203 		orr	r3, r3, #2
 460 01b6 DAB2     		uxtb	r2, r3
 461 01b8 144B     		ldr	r3, .L32
 462 01ba 1A70     		strb	r2, [r3]
 463              		.loc 1 291 0
 464 01bc 1648     		ldr	r0, .L32+12
 465 01be FFF7FEFF 		bl	gtimerJab
 466              		.loc 1 292 0
 467 01c2 06E0     		b	.L27
 468              	.L26:
 469              		.loc 1 288 0
 470 01c4 0598     		ldr	r0, [sp, #20]
 471 01c6 FFF7FEFF 		bl	gwinGetNextWindow
 472 01ca 0590     		str	r0, [sp, #20]
 473 01cc 059B     		ldr	r3, [sp, #20]
 474 01ce 002B     		cmp	r3, #0
 475 01d0 E5D1     		bne	.L28
 476              	.L27:
 477              		.loc 1 295 0
 478 01d2 0DE0     		b	.L19
 479              	.L25:
 480              		.loc 1 272 0 discriminator 2
 481 01d4 0598     		ldr	r0, [sp, #20]
 482 01d6 FFF7FEFF 		bl	gwinGetNextWindow
 483 01da 0590     		str	r0, [sp, #20]
 484              	.L23:
 485              		.loc 1 272 0 is_stmt 0 discriminator 1
 486 01dc 059B     		ldr	r3, [sp, #20]
 487 01de 002B     		cmp	r3, #0
 488 01e0 A2D1     		bne	.L29
 489              	.L22:
 490              		.loc 1 269 0 is_stmt 1
 491 01e2 0A4B     		ldr	r3, .L32
 492 01e4 1B78     		ldrb	r3, [r3]
 493 01e6 DBB2     		uxtb	r3, r3
 494 01e8 03F00203 		and	r3, r3, #2
 495 01ec 002B     		cmp	r3, #0
 496 01ee 8ED1     		bne	.L30
 497              	.L19:
 498              		.loc 1 306 0
 499 01f0 9DF80F30 		ldrb	r3, [sp, #15]	@ zero_extendqisi2
 500 01f4 002B     		cmp	r3, #0
ARM GAS  /tmp/ccihpvPa.s 			page 10


 501 01f6 03D0     		beq	.L31
 502              		.loc 1 306 0 is_stmt 0 discriminator 1
 503 01f8 9DF80F30 		ldrb	r3, [sp, #15]	@ zero_extendqisi2
 504 01fc 012B     		cmp	r3, #1
 505 01fe 02D1     		bne	.L10
 506              	.L31:
 507              		.loc 1 307 0 is_stmt 1
 508 0200 0348     		ldr	r0, .L32+4
 509 0202 FFF7FEFF 		bl	gfxSemSignal
 510              	.L10:
 511              		.loc 1 308 0
 512 0206 07B0     		add	sp, sp, #28
 513              		.cfi_def_cfa_offset 12
 514              		@ sp needed
 515 0208 30BD     		pop	{r4, r5, pc}
 516              	.L33:
 517 020a 00BF     		.align	2
 518              	.L32:
 519 020c 00000000 		.word	RedrawPending
 520 0210 00000000 		.word	gwinsem
 521 0214 00000000 		.word	_GWINwm
 522 0218 00000000 		.word	RedrawTimer
 523              		.cfi_endproc
 524              	.LFE114:
 525              		.size	_gwinFlushRedraws, .-_gwinFlushRedraws
 526 021c AFF30080 		.section	.text._gwinUpdate,"ax",%progbits
 527              		.align	2
 528              		.p2align 4,,15
 529              		.global	_gwinUpdate
 530              		.thumb
 531              		.thumb_func
 532              		.type	_gwinUpdate, %function
 533              	_gwinUpdate:
 534              	.LFB115:
 535              		.loc 1 310 0
 536              		.cfi_startproc
 537              		@ args = 0, pretend = 0, frame = 8
 538              		@ frame_needed = 0, uses_anonymous_args = 0
 539 0000 00B5     		push	{lr}
 540              		.cfi_def_cfa_offset 4
 541              		.cfi_offset 14, -4
 542 0002 83B0     		sub	sp, sp, #12
 543              		.cfi_def_cfa_offset 16
 544 0004 0190     		str	r0, [sp, #4]
 545              		.loc 1 312 0
 546 0006 019B     		ldr	r3, [sp, #4]
 547 0008 9B69     		ldr	r3, [r3, #24]
 548 000a 03F40073 		and	r3, r3, #512
 549 000e 002B     		cmp	r3, #0
 550 0010 00D1     		bne	.L35
 551              		.loc 1 313 0
 552 0012 10E0     		b	.L34
 553              	.L35:
 554              		.loc 1 316 0
 555 0014 019B     		ldr	r3, [sp, #4]
 556 0016 9B69     		ldr	r3, [r3, #24]
 557 0018 43F48042 		orr	r2, r3, #16384
ARM GAS  /tmp/ccihpvPa.s 			page 11


 558 001c 019B     		ldr	r3, [sp, #4]
 559 001e 9A61     		str	r2, [r3, #24]
 560              		.loc 1 317 0
 561 0020 064B     		ldr	r3, .L37
 562 0022 1B78     		ldrb	r3, [r3]
 563 0024 DBB2     		uxtb	r3, r3
 564 0026 43F00203 		orr	r3, r3, #2
 565 002a DAB2     		uxtb	r2, r3
 566 002c 034B     		ldr	r3, .L37
 567 002e 1A70     		strb	r2, [r3]
 568              		.loc 1 320 0
 569 0030 0348     		ldr	r0, .L37+4
 570 0032 FFF7FEFF 		bl	gtimerJab
 571              	.L34:
 572              		.loc 1 321 0
 573 0036 03B0     		add	sp, sp, #12
 574              		.cfi_def_cfa_offset 4
 575              		@ sp needed
 576 0038 5DF804FB 		ldr	pc, [sp], #4
 577              	.L38:
 578              		.align	2
 579              	.L37:
 580 003c 00000000 		.word	RedrawPending
 581 0040 00000000 		.word	RedrawTimer
 582              		.cfi_endproc
 583              	.LFE115:
 584              		.size	_gwinUpdate, .-_gwinUpdate
 585 0044 AFF30080 		.section	.text._gwinDrawStart,"ax",%progbits
 585      AFF30080 
 585      AFF30080 
 586              		.align	2
 587              		.p2align 4,,15
 588              		.global	_gwinDrawStart
 589              		.thumb
 590              		.thumb_func
 591              		.type	_gwinDrawStart, %function
 592              	_gwinDrawStart:
 593              	.LFB116:
 594              		.loc 1 357 0
 595              		.cfi_startproc
 596              		@ args = 0, pretend = 0, frame = 8
 597              		@ frame_needed = 0, uses_anonymous_args = 0
 598 0000 10B5     		push	{r4, lr}
 599              		.cfi_def_cfa_offset 8
 600              		.cfi_offset 4, -8
 601              		.cfi_offset 14, -4
 602 0002 84B0     		sub	sp, sp, #16
 603              		.cfi_def_cfa_offset 24
 604 0004 0390     		str	r0, [sp, #12]
 605              		.loc 1 360 0
 606 0006 039B     		ldr	r3, [sp, #12]
 607 0008 9B69     		ldr	r3, [r3, #24]
 608 000a 03F40073 		and	r3, r3, #512
 609 000e 002B     		cmp	r3, #0
 610 0010 01D1     		bne	.L40
 611              		.loc 1 361 0
 612 0012 0023     		movs	r3, #0
ARM GAS  /tmp/ccihpvPa.s 			page 12


 613 0014 22E0     		b	.L41
 614              	.L40:
 615              		.loc 1 364 0
 616 0016 1348     		ldr	r0, .L43
 617 0018 4FF0FF31 		mov	r1, #-1
 618 001c FFF7FEFF 		bl	gfxSemWait
 619              		.loc 1 367 0
 620 0020 039B     		ldr	r3, [sp, #12]
 621 0022 9B69     		ldr	r3, [r3, #24]
 622 0024 03F40073 		and	r3, r3, #512
 623 0028 002B     		cmp	r3, #0
 624 002a 04D1     		bne	.L42
 625              		.loc 1 368 0
 626 002c 0398     		ldr	r0, [sp, #12]
 627 002e FFF7FEFF 		bl	_gwinDrawEnd
 628              		.loc 1 369 0
 629 0032 0023     		movs	r3, #0
 630 0034 12E0     		b	.L41
 631              	.L42:
 632              		.loc 1 374 0
 633 0036 039B     		ldr	r3, [sp, #12]
 634 0038 9868     		ldr	r0, [r3, #8]
 635 003a 039B     		ldr	r3, [sp, #12]
 636 003c 9989     		ldrh	r1, [r3, #12]
 637 003e 039B     		ldr	r3, [sp, #12]
 638 0040 DA89     		ldrh	r2, [r3, #14]
 639 0042 039B     		ldr	r3, [sp, #12]
 640 0044 1C8A     		ldrh	r4, [r3, #16]
 641 0046 039B     		ldr	r3, [sp, #12]
 642 0048 5B8A     		ldrh	r3, [r3, #18]
 643 004a 09B2     		sxth	r1, r1
 644 004c 12B2     		sxth	r2, r2
 645 004e 24B2     		sxth	r4, r4
 646 0050 1BB2     		sxth	r3, r3
 647 0052 0093     		str	r3, [sp]
 648 0054 2346     		mov	r3, r4
 649 0056 FFF7FEFF 		bl	gdispGSetClip
 650              		.loc 1 376 0
 651 005a 0123     		movs	r3, #1
 652              	.L41:
 653              		.loc 1 377 0
 654 005c 1846     		mov	r0, r3
 655 005e 04B0     		add	sp, sp, #16
 656              		.cfi_def_cfa_offset 8
 657              		@ sp needed
 658 0060 10BD     		pop	{r4, pc}
 659              	.L44:
 660 0062 00BF     		.align	2
 661              	.L43:
 662 0064 00000000 		.word	gwinsem
 663              		.cfi_endproc
 664              	.LFE116:
 665              		.size	_gwinDrawStart, .-_gwinDrawStart
 666 0068 AFF30080 		.section	.text._gwinDrawEnd,"ax",%progbits
 666      AFF30080 
 667              		.align	2
 668              		.p2align 4,,15
ARM GAS  /tmp/ccihpvPa.s 			page 13


 669              		.global	_gwinDrawEnd
 670              		.thumb
 671              		.thumb_func
 672              		.type	_gwinDrawEnd, %function
 673              	_gwinDrawEnd:
 674              	.LFB117:
 675              		.loc 1 379 0
 676              		.cfi_startproc
 677              		@ args = 0, pretend = 0, frame = 8
 678              		@ frame_needed = 0, uses_anonymous_args = 0
 679 0000 30B5     		push	{r4, r5, lr}
 680              		.cfi_def_cfa_offset 12
 681              		.cfi_offset 4, -12
 682              		.cfi_offset 5, -8
 683              		.cfi_offset 14, -4
 684 0002 85B0     		sub	sp, sp, #20
 685              		.cfi_def_cfa_offset 32
 686 0004 0390     		str	r0, [sp, #12]
 687              		.loc 1 382 0
 688 0006 039B     		ldr	r3, [sp, #12]
 689 0008 9C68     		ldr	r4, [r3, #8]
 690 000a 039B     		ldr	r3, [sp, #12]
 691 000c 9B68     		ldr	r3, [r3, #8]
 692 000e 1846     		mov	r0, r3
 693 0010 FFF7FEFF 		bl	gdispGGetWidth
 694 0014 0346     		mov	r3, r0
 695 0016 1D46     		mov	r5, r3
 696 0018 039B     		ldr	r3, [sp, #12]
 697 001a 9B68     		ldr	r3, [r3, #8]
 698 001c 1846     		mov	r0, r3
 699 001e FFF7FEFF 		bl	gdispGGetHeight
 700 0022 0346     		mov	r3, r0
 701 0024 0093     		str	r3, [sp]
 702 0026 2046     		mov	r0, r4
 703 0028 0021     		movs	r1, #0
 704 002a 0022     		movs	r2, #0
 705 002c 2B46     		mov	r3, r5
 706 002e FFF7FEFF 		bl	gdispGSetClip
 707              		.loc 1 386 0
 708 0032 0220     		movs	r0, #2
 709 0034 FFF7FEFF 		bl	_gwinFlushRedraws
 710              		.loc 1 389 0
 711 0038 0248     		ldr	r0, .L46
 712 003a FFF7FEFF 		bl	gfxSemSignal
 713              		.loc 1 390 0
 714 003e 05B0     		add	sp, sp, #20
 715              		.cfi_def_cfa_offset 12
 716              		@ sp needed
 717 0040 30BD     		pop	{r4, r5, pc}
 718              	.L47:
 719 0042 00BF     		.align	2
 720              	.L46:
 721 0044 00000000 		.word	gwinsem
 722              		.cfi_endproc
 723              	.LFE117:
 724              		.size	_gwinDrawEnd, .-_gwinDrawEnd
 725 0048 AFF30080 		.section	.text._gwinWMAdd,"ax",%progbits
ARM GAS  /tmp/ccihpvPa.s 			page 14


 725      AFF30080 
 726              		.align	2
 727              		.p2align 4,,15
 728              		.global	_gwinWMAdd
 729              		.thumb
 730              		.thumb_func
 731              		.type	_gwinWMAdd, %function
 732              	_gwinWMAdd:
 733              	.LFB118:
 734              		.loc 1 392 0
 735              		.cfi_startproc
 736              		@ args = 0, pretend = 0, frame = 8
 737              		@ frame_needed = 0, uses_anonymous_args = 0
 738 0000 00B5     		push	{lr}
 739              		.cfi_def_cfa_offset 4
 740              		.cfi_offset 14, -4
 741 0002 83B0     		sub	sp, sp, #12
 742              		.cfi_def_cfa_offset 16
 743 0004 0190     		str	r0, [sp, #4]
 744 0006 0091     		str	r1, [sp]
 745              		.loc 1 403 0
 746 0008 094B     		ldr	r3, .L51
 747 000a 1B68     		ldr	r3, [r3]
 748 000c 1B68     		ldr	r3, [r3]
 749 000e 9B68     		ldr	r3, [r3, #8]
 750 0010 0198     		ldr	r0, [sp, #4]
 751 0012 0099     		ldr	r1, [sp]
 752 0014 9847     		blx	r3
 753 0016 0346     		mov	r3, r0
 754 0018 83F00103 		eor	r3, r3, #1
 755 001c DBB2     		uxtb	r3, r3
 756 001e 002B     		cmp	r3, #0
 757 0020 01D0     		beq	.L49
 758              		.loc 1 404 0
 759 0022 0023     		movs	r3, #0
 760 0024 00E0     		b	.L50
 761              	.L49:
 762              		.loc 1 412 0
 763 0026 0123     		movs	r3, #1
 764              	.L50:
 765              		.loc 1 413 0
 766 0028 1846     		mov	r0, r3
 767 002a 03B0     		add	sp, sp, #12
 768              		.cfi_def_cfa_offset 4
 769              		@ sp needed
 770 002c 5DF804FB 		ldr	pc, [sp], #4
 771              	.L52:
 772              		.align	2
 773              	.L51:
 774 0030 00000000 		.word	_GWINwm
 775              		.cfi_endproc
 776              	.LFE118:
 777              		.size	_gwinWMAdd, .-_gwinWMAdd
 778 0034 AFF30080 		.section	.text.gwinSetWindowManager,"ax",%progbits
 778      AFF30080 
 778      AFF30080 
 779              		.align	2
ARM GAS  /tmp/ccihpvPa.s 			page 15


 780              		.p2align 4,,15
 781              		.global	gwinSetWindowManager
 782              		.thumb
 783              		.thumb_func
 784              		.type	gwinSetWindowManager, %function
 785              	gwinSetWindowManager:
 786              	.LFB119:
 787              		.loc 1 415 0
 788              		.cfi_startproc
 789              		@ args = 0, pretend = 0, frame = 8
 790              		@ frame_needed = 0, uses_anonymous_args = 0
 791 0000 00B5     		push	{lr}
 792              		.cfi_def_cfa_offset 4
 793              		.cfi_offset 14, -4
 794 0002 83B0     		sub	sp, sp, #12
 795              		.cfi_def_cfa_offset 16
 796 0004 0190     		str	r0, [sp, #4]
 797              		.loc 1 416 0
 798 0006 019B     		ldr	r3, [sp, #4]
 799 0008 002B     		cmp	r3, #0
 800 000a 01D1     		bne	.L54
 801              		.loc 1 417 0
 802 000c 0B4B     		ldr	r3, .L56
 803 000e 0193     		str	r3, [sp, #4]
 804              	.L54:
 805              		.loc 1 418 0
 806 0010 0B4B     		ldr	r3, .L56+4
 807 0012 1A68     		ldr	r2, [r3]
 808 0014 019B     		ldr	r3, [sp, #4]
 809 0016 9A42     		cmp	r2, r3
 810 0018 0CD0     		beq	.L53
 811              		.loc 1 419 0
 812 001a 094B     		ldr	r3, .L56+4
 813 001c 1B68     		ldr	r3, [r3]
 814 001e 1B68     		ldr	r3, [r3]
 815 0020 5B68     		ldr	r3, [r3, #4]
 816 0022 9847     		blx	r3
 817              		.loc 1 420 0
 818 0024 064A     		ldr	r2, .L56+4
 819 0026 019B     		ldr	r3, [sp, #4]
 820 0028 1360     		str	r3, [r2]
 821              		.loc 1 421 0
 822 002a 054B     		ldr	r3, .L56+4
 823 002c 1B68     		ldr	r3, [r3]
 824 002e 1B68     		ldr	r3, [r3]
 825 0030 1B68     		ldr	r3, [r3]
 826 0032 9847     		blx	r3
 827              	.L53:
 828              		.loc 1 423 0
 829 0034 03B0     		add	sp, sp, #12
 830              		.cfi_def_cfa_offset 4
 831              		@ sp needed
 832 0036 5DF804FB 		ldr	pc, [sp], #4
 833              	.L57:
 834 003a 00BF     		.align	2
 835              	.L56:
 836 003c 00000000 		.word	GNullWindowManager
ARM GAS  /tmp/ccihpvPa.s 			page 16


 837 0040 00000000 		.word	_GWINwm
 838              		.cfi_endproc
 839              	.LFE119:
 840              		.size	gwinSetWindowManager, .-gwinSetWindowManager
 841 0044 AFF30080 		.section	.text.gwinRedraw,"ax",%progbits
 841      AFF30080 
 841      AFF30080 
 842              		.align	2
 843              		.p2align 4,,15
 844              		.global	gwinRedraw
 845              		.thumb
 846              		.thumb_func
 847              		.type	gwinRedraw, %function
 848              	gwinRedraw:
 849              	.LFB120:
 850              		.loc 1 425 0
 851              		.cfi_startproc
 852              		@ args = 0, pretend = 0, frame = 8
 853              		@ frame_needed = 0, uses_anonymous_args = 0
 854 0000 00B5     		push	{lr}
 855              		.cfi_def_cfa_offset 4
 856              		.cfi_offset 14, -4
 857 0002 83B0     		sub	sp, sp, #12
 858              		.cfi_def_cfa_offset 16
 859 0004 0190     		str	r0, [sp, #4]
 860              		.loc 1 427 0
 861 0006 019B     		ldr	r3, [sp, #4]
 862 0008 9B69     		ldr	r3, [r3, #24]
 863 000a 03F40073 		and	r3, r3, #512
 864 000e 002B     		cmp	r3, #0
 865 0010 00D1     		bne	.L59
 866              		.loc 1 428 0
 867 0012 10E0     		b	.L58
 868              	.L59:
 869              		.loc 1 431 0
 870 0014 019B     		ldr	r3, [sp, #4]
 871 0016 9B69     		ldr	r3, [r3, #24]
 872 0018 43F48042 		orr	r2, r3, #16384
 873 001c 019B     		ldr	r3, [sp, #4]
 874 001e 9A61     		str	r2, [r3, #24]
 875              		.loc 1 432 0
 876 0020 064B     		ldr	r3, .L61
 877 0022 1B78     		ldrb	r3, [r3]
 878 0024 DBB2     		uxtb	r3, r3
 879 0026 43F00203 		orr	r3, r3, #2
 880 002a DAB2     		uxtb	r2, r3
 881 002c 034B     		ldr	r3, .L61
 882 002e 1A70     		strb	r2, [r3]
 883              		.loc 1 435 0
 884 0030 0020     		movs	r0, #0
 885 0032 FFF7FEFF 		bl	_gwinFlushRedraws
 886              	.L58:
 887              		.loc 1 436 0
 888 0036 03B0     		add	sp, sp, #12
 889              		.cfi_def_cfa_offset 4
 890              		@ sp needed
 891 0038 5DF804FB 		ldr	pc, [sp], #4
ARM GAS  /tmp/ccihpvPa.s 			page 17


 892              	.L62:
 893              		.align	2
 894              	.L61:
 895 003c 00000000 		.word	RedrawPending
 896              		.cfi_endproc
 897              	.LFE120:
 898              		.size	gwinRedraw, .-gwinRedraw
 899              		.section	.text.gwinSetVisible,"ax",%progbits
 900              		.align	2
 901              		.p2align 4,,15
 902              		.global	gwinSetVisible
 903              		.thumb
 904              		.thumb_func
 905              		.type	gwinSetVisible, %function
 906              	gwinSetVisible:
 907              	.LFB121:
 908              		.loc 1 454 0
 909              		.cfi_startproc
 910              		@ args = 0, pretend = 0, frame = 8
 911              		@ frame_needed = 0, uses_anonymous_args = 0
 912 0000 00B5     		push	{lr}
 913              		.cfi_def_cfa_offset 4
 914              		.cfi_offset 14, -4
 915 0002 83B0     		sub	sp, sp, #12
 916              		.cfi_def_cfa_offset 16
 917 0004 0190     		str	r0, [sp, #4]
 918 0006 0B46     		mov	r3, r1
 919 0008 8DF80330 		strb	r3, [sp, #3]
 920              		.loc 1 455 0
 921 000c 9DF80330 		ldrb	r3, [sp, #3]	@ zero_extendqisi2
 922 0010 002B     		cmp	r3, #0
 923 0012 17D0     		beq	.L64
 924              		.loc 1 456 0
 925 0014 019B     		ldr	r3, [sp, #4]
 926 0016 9B69     		ldr	r3, [r3, #24]
 927 0018 03F48073 		and	r3, r3, #256
 928 001c 002B     		cmp	r3, #0
 929 001e 2ED1     		bne	.L63
 930              		.loc 1 457 0
 931 0020 019B     		ldr	r3, [sp, #4]
 932 0022 9B69     		ldr	r3, [r3, #24]
 933 0024 43F44342 		orr	r2, r3, #49920
 934 0028 019B     		ldr	r3, [sp, #4]
 935 002a 9A61     		str	r2, [r3, #24]
 936              		.loc 1 458 0
 937 002c 154B     		ldr	r3, .L67
 938 002e 1B78     		ldrb	r3, [r3]
 939 0030 DBB2     		uxtb	r3, r3
 940 0032 43F00203 		orr	r3, r3, #2
 941 0036 DAB2     		uxtb	r2, r3
 942 0038 124B     		ldr	r3, .L67
 943 003a 1A70     		strb	r2, [r3]
 944              		.loc 1 459 0
 945 003c 1248     		ldr	r0, .L67+4
 946 003e FFF7FEFF 		bl	gtimerJab
 947 0042 1CE0     		b	.L63
 948              	.L64:
ARM GAS  /tmp/ccihpvPa.s 			page 18


 949              		.loc 1 462 0
 950 0044 019B     		ldr	r3, [sp, #4]
 951 0046 9B69     		ldr	r3, [r3, #24]
 952 0048 03F48073 		and	r3, r3, #256
 953 004c 002B     		cmp	r3, #0
 954 004e 16D0     		beq	.L63
 955              		.loc 1 463 0
 956 0050 019B     		ldr	r3, [sp, #4]
 957 0052 9B69     		ldr	r3, [r3, #24]
 958 0054 23F44072 		bic	r2, r3, #768
 959 0058 019B     		ldr	r3, [sp, #4]
 960 005a 9A61     		str	r2, [r3, #24]
 961              		.loc 1 464 0
 962 005c 019B     		ldr	r3, [sp, #4]
 963 005e 9B69     		ldr	r3, [r3, #24]
 964 0060 43F44042 		orr	r2, r3, #49152
 965 0064 019B     		ldr	r3, [sp, #4]
 966 0066 9A61     		str	r2, [r3, #24]
 967              		.loc 1 465 0
 968 0068 064B     		ldr	r3, .L67
 969 006a 1B78     		ldrb	r3, [r3]
 970 006c DBB2     		uxtb	r3, r3
 971 006e 43F00103 		orr	r3, r3, #1
 972 0072 DAB2     		uxtb	r2, r3
 973 0074 034B     		ldr	r3, .L67
 974 0076 1A70     		strb	r2, [r3]
 975              		.loc 1 466 0
 976 0078 0348     		ldr	r0, .L67+4
 977 007a FFF7FEFF 		bl	gtimerJab
 978              	.L63:
 979              		.loc 1 469 0
 980 007e 03B0     		add	sp, sp, #12
 981              		.cfi_def_cfa_offset 4
 982              		@ sp needed
 983 0080 5DF804FB 		ldr	pc, [sp], #4
 984              	.L68:
 985              		.align	2
 986              	.L67:
 987 0084 00000000 		.word	RedrawPending
 988 0088 00000000 		.word	RedrawTimer
 989              		.cfi_endproc
 990              	.LFE121:
 991              		.size	gwinSetVisible, .-gwinSetVisible
 992 008c AFF30080 		.section	.text.gwinSetEnabled,"ax",%progbits
 993              		.align	2
 994              		.p2align 4,,15
 995              		.global	gwinSetEnabled
 996              		.thumb
 997              		.thumb_func
 998              		.type	gwinSetEnabled, %function
 999              	gwinSetEnabled:
 1000              	.LFB122:
 1001              		.loc 1 505 0
 1002              		.cfi_startproc
 1003              		@ args = 0, pretend = 0, frame = 8
 1004              		@ frame_needed = 0, uses_anonymous_args = 0
 1005 0000 00B5     		push	{lr}
ARM GAS  /tmp/ccihpvPa.s 			page 19


 1006              		.cfi_def_cfa_offset 4
 1007              		.cfi_offset 14, -4
 1008 0002 83B0     		sub	sp, sp, #12
 1009              		.cfi_def_cfa_offset 16
 1010 0004 0190     		str	r0, [sp, #4]
 1011 0006 0B46     		mov	r3, r1
 1012 0008 8DF80330 		strb	r3, [sp, #3]
 1013              		.loc 1 506 0
 1014 000c 9DF80330 		ldrb	r3, [sp, #3]	@ zero_extendqisi2
 1015 0010 002B     		cmp	r3, #0
 1016 0012 0FD0     		beq	.L70
 1017              		.loc 1 507 0
 1018 0014 019B     		ldr	r3, [sp, #4]
 1019 0016 9B69     		ldr	r3, [r3, #24]
 1020 0018 03F48063 		and	r3, r3, #1024
 1021 001c 002B     		cmp	r3, #0
 1022 001e 18D1     		bne	.L69
 1023              		.loc 1 508 0
 1024 0020 019B     		ldr	r3, [sp, #4]
 1025 0022 9B69     		ldr	r3, [r3, #24]
 1026 0024 43F44062 		orr	r2, r3, #3072
 1027 0028 019B     		ldr	r3, [sp, #4]
 1028 002a 9A61     		str	r2, [r3, #24]
 1029              		.loc 1 509 0
 1030 002c 0198     		ldr	r0, [sp, #4]
 1031 002e FFF7FEFF 		bl	_gwinUpdate
 1032 0032 0EE0     		b	.L69
 1033              	.L70:
 1034              		.loc 1 512 0
 1035 0034 019B     		ldr	r3, [sp, #4]
 1036 0036 9B69     		ldr	r3, [r3, #24]
 1037 0038 03F48063 		and	r3, r3, #1024
 1038 003c 002B     		cmp	r3, #0
 1039 003e 08D0     		beq	.L69
 1040              		.loc 1 513 0
 1041 0040 019B     		ldr	r3, [sp, #4]
 1042 0042 9B69     		ldr	r3, [r3, #24]
 1043 0044 23F44062 		bic	r2, r3, #3072
 1044 0048 019B     		ldr	r3, [sp, #4]
 1045 004a 9A61     		str	r2, [r3, #24]
 1046              		.loc 1 514 0
 1047 004c 0198     		ldr	r0, [sp, #4]
 1048 004e FFF7FEFF 		bl	_gwinUpdate
 1049              	.L69:
 1050              		.loc 1 517 0
 1051 0052 03B0     		add	sp, sp, #12
 1052              		.cfi_def_cfa_offset 4
 1053              		@ sp needed
 1054 0054 5DF804FB 		ldr	pc, [sp], #4
 1055              		.cfi_endproc
 1056              	.LFE122:
 1057              		.size	gwinSetEnabled, .-gwinSetEnabled
 1058 0058 AFF30080 		.section	.text.gwinMove,"ax",%progbits
 1058      AFF30080 
 1059              		.align	2
 1060              		.p2align 4,,15
 1061              		.global	gwinMove
ARM GAS  /tmp/ccihpvPa.s 			page 20


 1062              		.thumb
 1063              		.thumb_func
 1064              		.type	gwinMove, %function
 1065              	gwinMove:
 1066              	.LFB123:
 1067              		.loc 1 520 0
 1068              		.cfi_startproc
 1069              		@ args = 0, pretend = 0, frame = 8
 1070              		@ frame_needed = 0, uses_anonymous_args = 0
 1071 0000 00B5     		push	{lr}
 1072              		.cfi_def_cfa_offset 4
 1073              		.cfi_offset 14, -4
 1074 0002 83B0     		sub	sp, sp, #12
 1075              		.cfi_def_cfa_offset 16
 1076 0004 0190     		str	r0, [sp, #4]
 1077 0006 0B46     		mov	r3, r1
 1078 0008 ADF80230 		strh	r3, [sp, #2]	@ movhi
 1079 000c 1346     		mov	r3, r2	@ movhi
 1080 000e ADF80030 		strh	r3, [sp]	@ movhi
 1081              		.loc 1 521 0
 1082 0012 064B     		ldr	r3, .L74
 1083 0014 1B68     		ldr	r3, [r3]
 1084 0016 1B68     		ldr	r3, [r3]
 1085 0018 9B69     		ldr	r3, [r3, #24]
 1086 001a BDF90210 		ldrsh	r1, [sp, #2]
 1087 001e BDF90020 		ldrsh	r2, [sp]
 1088 0022 0198     		ldr	r0, [sp, #4]
 1089 0024 9847     		blx	r3
 1090              		.loc 1 522 0
 1091 0026 03B0     		add	sp, sp, #12
 1092              		.cfi_def_cfa_offset 4
 1093              		@ sp needed
 1094 0028 5DF804FB 		ldr	pc, [sp], #4
 1095              	.L75:
 1096              		.align	2
 1097              	.L74:
 1098 002c 00000000 		.word	_GWINwm
 1099              		.cfi_endproc
 1100              	.LFE123:
 1101              		.size	gwinMove, .-gwinMove
 1102              		.section	.text.gwinResize,"ax",%progbits
 1103              		.align	2
 1104              		.p2align 4,,15
 1105              		.global	gwinResize
 1106              		.thumb
 1107              		.thumb_func
 1108              		.type	gwinResize, %function
 1109              	gwinResize:
 1110              	.LFB124:
 1111              		.loc 1 524 0
 1112              		.cfi_startproc
 1113              		@ args = 0, pretend = 0, frame = 8
 1114              		@ frame_needed = 0, uses_anonymous_args = 0
 1115 0000 00B5     		push	{lr}
 1116              		.cfi_def_cfa_offset 4
 1117              		.cfi_offset 14, -4
 1118 0002 83B0     		sub	sp, sp, #12
ARM GAS  /tmp/ccihpvPa.s 			page 21


 1119              		.cfi_def_cfa_offset 16
 1120 0004 0190     		str	r0, [sp, #4]
 1121 0006 0B46     		mov	r3, r1
 1122 0008 ADF80230 		strh	r3, [sp, #2]	@ movhi
 1123 000c 1346     		mov	r3, r2	@ movhi
 1124 000e ADF80030 		strh	r3, [sp]	@ movhi
 1125              		.loc 1 525 0
 1126 0012 064B     		ldr	r3, .L77
 1127 0014 1B68     		ldr	r3, [r3]
 1128 0016 1B68     		ldr	r3, [r3]
 1129 0018 5B69     		ldr	r3, [r3, #20]
 1130 001a BDF90210 		ldrsh	r1, [sp, #2]
 1131 001e BDF90020 		ldrsh	r2, [sp]
 1132 0022 0198     		ldr	r0, [sp, #4]
 1133 0024 9847     		blx	r3
 1134              		.loc 1 526 0
 1135 0026 03B0     		add	sp, sp, #12
 1136              		.cfi_def_cfa_offset 4
 1137              		@ sp needed
 1138 0028 5DF804FB 		ldr	pc, [sp], #4
 1139              	.L78:
 1140              		.align	2
 1141              	.L77:
 1142 002c 00000000 		.word	_GWINwm
 1143              		.cfi_endproc
 1144              	.LFE124:
 1145              		.size	gwinResize, .-gwinResize
 1146              		.section	.text.gwinSetMinMax,"ax",%progbits
 1147              		.align	2
 1148              		.p2align 4,,15
 1149              		.global	gwinSetMinMax
 1150              		.thumb
 1151              		.thumb_func
 1152              		.type	gwinSetMinMax, %function
 1153              	gwinSetMinMax:
 1154              	.LFB125:
 1155              		.loc 1 528 0
 1156              		.cfi_startproc
 1157              		@ args = 0, pretend = 0, frame = 8
 1158              		@ frame_needed = 0, uses_anonymous_args = 0
 1159 0000 00B5     		push	{lr}
 1160              		.cfi_def_cfa_offset 4
 1161              		.cfi_offset 14, -4
 1162 0002 83B0     		sub	sp, sp, #12
 1163              		.cfi_def_cfa_offset 16
 1164 0004 0190     		str	r0, [sp, #4]
 1165 0006 0B46     		mov	r3, r1
 1166 0008 8DF80330 		strb	r3, [sp, #3]
 1167              		.loc 1 529 0
 1168 000c 054B     		ldr	r3, .L80
 1169 000e 1B68     		ldr	r3, [r3]
 1170 0010 1B68     		ldr	r3, [r3]
 1171 0012 1B6A     		ldr	r3, [r3, #32]
 1172 0014 9DF80320 		ldrb	r2, [sp, #3]	@ zero_extendqisi2
 1173 0018 0198     		ldr	r0, [sp, #4]
 1174 001a 1146     		mov	r1, r2
 1175 001c 9847     		blx	r3
ARM GAS  /tmp/ccihpvPa.s 			page 22


 1176              		.loc 1 530 0
 1177 001e 03B0     		add	sp, sp, #12
 1178              		.cfi_def_cfa_offset 4
 1179              		@ sp needed
 1180 0020 5DF804FB 		ldr	pc, [sp], #4
 1181              	.L81:
 1182              		.align	2
 1183              	.L80:
 1184 0024 00000000 		.word	_GWINwm
 1185              		.cfi_endproc
 1186              	.LFE125:
 1187              		.size	gwinSetMinMax, .-gwinSetMinMax
 1188 0028 AFF30080 		.section	.text.gwinRaise,"ax",%progbits
 1188      AFF30080 
 1189              		.align	2
 1190              		.p2align 4,,15
 1191              		.global	gwinRaise
 1192              		.thumb
 1193              		.thumb_func
 1194              		.type	gwinRaise, %function
 1195              	gwinRaise:
 1196              	.LFB126:
 1197              		.loc 1 532 0
 1198              		.cfi_startproc
 1199              		@ args = 0, pretend = 0, frame = 8
 1200              		@ frame_needed = 0, uses_anonymous_args = 0
 1201 0000 00B5     		push	{lr}
 1202              		.cfi_def_cfa_offset 4
 1203              		.cfi_offset 14, -4
 1204 0002 83B0     		sub	sp, sp, #12
 1205              		.cfi_def_cfa_offset 16
 1206 0004 0190     		str	r0, [sp, #4]
 1207              		.loc 1 533 0
 1208 0006 044B     		ldr	r3, .L83
 1209 0008 1B68     		ldr	r3, [r3]
 1210 000a 1B68     		ldr	r3, [r3]
 1211 000c DB69     		ldr	r3, [r3, #28]
 1212 000e 0198     		ldr	r0, [sp, #4]
 1213 0010 9847     		blx	r3
 1214              		.loc 1 534 0
 1215 0012 03B0     		add	sp, sp, #12
 1216              		.cfi_def_cfa_offset 4
 1217              		@ sp needed
 1218 0014 5DF804FB 		ldr	pc, [sp], #4
 1219              	.L84:
 1220              		.align	2
 1221              	.L83:
 1222 0018 00000000 		.word	_GWINwm
 1223              		.cfi_endproc
 1224              	.LFE126:
 1225              		.size	gwinRaise, .-gwinRaise
 1226 001c AFF30080 		.section	.text.gwinGetMinMax,"ax",%progbits
 1227              		.align	2
 1228              		.p2align 4,,15
 1229              		.global	gwinGetMinMax
 1230              		.thumb
 1231              		.thumb_func
ARM GAS  /tmp/ccihpvPa.s 			page 23


 1232              		.type	gwinGetMinMax, %function
 1233              	gwinGetMinMax:
 1234              	.LFB127:
 1235              		.loc 1 536 0
 1236              		.cfi_startproc
 1237              		@ args = 0, pretend = 0, frame = 8
 1238              		@ frame_needed = 0, uses_anonymous_args = 0
 1239              		@ link register save eliminated.
 1240 0000 82B0     		sub	sp, sp, #8
 1241              		.cfi_def_cfa_offset 8
 1242 0002 0190     		str	r0, [sp, #4]
 1243              		.loc 1 537 0
 1244 0004 019B     		ldr	r3, [sp, #4]
 1245 0006 9B69     		ldr	r3, [r3, #24]
 1246 0008 03F48013 		and	r3, r3, #1048576
 1247 000c 002B     		cmp	r3, #0
 1248 000e 01D0     		beq	.L86
 1249              		.loc 1 538 0
 1250 0010 0223     		movs	r3, #2
 1251 0012 08E0     		b	.L87
 1252              	.L86:
 1253              		.loc 1 539 0
 1254 0014 019B     		ldr	r3, [sp, #4]
 1255 0016 9B69     		ldr	r3, [r3, #24]
 1256 0018 03F40013 		and	r3, r3, #2097152
 1257 001c 002B     		cmp	r3, #0
 1258 001e 01D0     		beq	.L88
 1259              		.loc 1 540 0
 1260 0020 0123     		movs	r3, #1
 1261 0022 00E0     		b	.L87
 1262              	.L88:
 1263              		.loc 1 541 0
 1264 0024 0023     		movs	r3, #0
 1265              	.L87:
 1266              		.loc 1 542 0
 1267 0026 1846     		mov	r0, r3
 1268 0028 02B0     		add	sp, sp, #8
 1269              		.cfi_def_cfa_offset 0
 1270              		@ sp needed
 1271 002a 7047     		bx	lr
 1272              		.cfi_endproc
 1273              	.LFE127:
 1274              		.size	gwinGetMinMax, .-gwinGetMinMax
 1275 002c AFF30080 		.section	.text.gwinRedrawDisplay,"ax",%progbits
 1276              		.align	2
 1277              		.p2align 4,,15
 1278              		.global	gwinRedrawDisplay
 1279              		.thumb
 1280              		.thumb_func
 1281              		.type	gwinRedrawDisplay, %function
 1282              	gwinRedrawDisplay:
 1283              	.LFB128:
 1284              		.loc 1 544 0
 1285              		.cfi_startproc
 1286              		@ args = 0, pretend = 0, frame = 16
 1287              		@ frame_needed = 0, uses_anonymous_args = 0
 1288 0000 00B5     		push	{lr}
ARM GAS  /tmp/ccihpvPa.s 			page 24


 1289              		.cfi_def_cfa_offset 4
 1290              		.cfi_offset 14, -4
 1291 0002 85B0     		sub	sp, sp, #20
 1292              		.cfi_def_cfa_offset 24
 1293 0004 0190     		str	r0, [sp, #4]
 1294 0006 0B46     		mov	r3, r1
 1295 0008 8DF80330 		strb	r3, [sp, #3]
 1296              		.loc 1 547 0
 1297 000c 0020     		movs	r0, #0
 1298 000e FFF7FEFF 		bl	gwinGetNextWindow
 1299 0012 0390     		str	r0, [sp, #12]
 1300 0014 23E0     		b	.L90
 1301              	.L95:
 1302              		.loc 1 550 0
 1303 0016 019B     		ldr	r3, [sp, #4]
 1304 0018 002B     		cmp	r3, #0
 1305 001a 05D0     		beq	.L91
 1306              		.loc 1 550 0 is_stmt 0 discriminator 1
 1307 001c 039B     		ldr	r3, [sp, #12]
 1308 001e 9A68     		ldr	r2, [r3, #8]
 1309 0020 019B     		ldr	r3, [sp, #4]
 1310 0022 9A42     		cmp	r2, r3
 1311 0024 00D0     		beq	.L91
 1312              		.loc 1 551 0 is_stmt 1
 1313 0026 16E0     		b	.L92
 1314              	.L91:
 1315              		.loc 1 560 0
 1316 0028 039B     		ldr	r3, [sp, #12]
 1317 002a 9B69     		ldr	r3, [r3, #24]
 1318 002c 03F40073 		and	r3, r3, #512
 1319 0030 002B     		cmp	r3, #0
 1320 0032 00D1     		bne	.L93
 1321              		.loc 1 561 0
 1322 0034 0FE0     		b	.L92
 1323              	.L93:
 1324              		.loc 1 563 0
 1325 0036 9DF80330 		ldrb	r3, [sp, #3]
 1326 003a 83F00103 		eor	r3, r3, #1
 1327 003e DBB2     		uxtb	r3, r3
 1328 0040 002B     		cmp	r3, #0
 1329 0042 05D0     		beq	.L94
 1330              		.loc 1 564 0
 1331 0044 039B     		ldr	r3, [sp, #12]
 1332 0046 9B69     		ldr	r3, [r3, #24]
 1333 0048 43F40042 		orr	r2, r3, #32768
 1334 004c 039B     		ldr	r3, [sp, #12]
 1335 004e 9A61     		str	r2, [r3, #24]
 1336              	.L94:
 1337              		.loc 1 566 0
 1338 0050 0398     		ldr	r0, [sp, #12]
 1339 0052 FFF7FEFF 		bl	_gwinUpdate
 1340              	.L92:
 1341              		.loc 1 547 0 discriminator 2
 1342 0056 0398     		ldr	r0, [sp, #12]
 1343 0058 FFF7FEFF 		bl	gwinGetNextWindow
 1344 005c 0390     		str	r0, [sp, #12]
 1345              	.L90:
ARM GAS  /tmp/ccihpvPa.s 			page 25


 1346              		.loc 1 547 0 is_stmt 0 discriminator 1
 1347 005e 039B     		ldr	r3, [sp, #12]
 1348 0060 002B     		cmp	r3, #0
 1349 0062 D8D1     		bne	.L95
 1350              		.loc 1 568 0 is_stmt 1
 1351 0064 05B0     		add	sp, sp, #20
 1352              		.cfi_def_cfa_offset 4
 1353              		@ sp needed
 1354 0066 5DF804FB 		ldr	pc, [sp], #4
 1355              		.cfi_endproc
 1356              	.LFE128:
 1357              		.size	gwinRedrawDisplay, .-gwinRedrawDisplay
 1358 006a 00BFAFF3 		.section	.text.gwinGetNextWindow,"ax",%progbits
 1358      0080
 1359              		.align	2
 1360              		.p2align 4,,15
 1361              		.global	gwinGetNextWindow
 1362              		.thumb
 1363              		.thumb_func
 1364              		.type	gwinGetNextWindow, %function
 1365              	gwinGetNextWindow:
 1366              	.LFB129:
 1367              		.loc 1 570 0
 1368              		.cfi_startproc
 1369              		@ args = 0, pretend = 0, frame = 8
 1370              		@ frame_needed = 0, uses_anonymous_args = 0
 1371              		@ link register save eliminated.
 1372 0000 82B0     		sub	sp, sp, #8
 1373              		.cfi_def_cfa_offset 8
 1374 0002 0190     		str	r0, [sp, #4]
 1375              		.loc 1 571 0
 1376 0004 019B     		ldr	r3, [sp, #4]
 1377 0006 002B     		cmp	r3, #0
 1378 0008 02D0     		beq	.L97
 1379              		.loc 1 571 0 is_stmt 0 discriminator 1
 1380 000a 019B     		ldr	r3, [sp, #4]
 1381 000c 1B68     		ldr	r3, [r3]
 1382 000e 01E0     		b	.L98
 1383              	.L97:
 1384              		.loc 1 571 0 discriminator 2
 1385 0010 024B     		ldr	r3, .L100
 1386 0012 1B68     		ldr	r3, [r3]
 1387              	.L98:
 1388              		.loc 1 572 0 is_stmt 1 discriminator 4
 1389 0014 1846     		mov	r0, r3
 1390 0016 02B0     		add	sp, sp, #8
 1391              		.cfi_def_cfa_offset 0
 1392              		@ sp needed
 1393 0018 7047     		bx	lr
 1394              	.L101:
 1395 001a 00BF     		.align	2
 1396              	.L100:
 1397 001c 00000000 		.word	_GWINList
 1398              		.cfi_endproc
 1399              	.LFE129:
 1400              		.size	gwinGetNextWindow, .-gwinGetNextWindow
 1401              		.section	.rodata.GNullWindowManagerVMT,"a",%progbits
ARM GAS  /tmp/ccihpvPa.s 			page 26


 1402              		.align	2
 1403              		.type	GNullWindowManagerVMT, %object
 1404              		.size	GNullWindowManagerVMT, 36
 1405              	GNullWindowManagerVMT:
 1406 0000 00000000 		.word	WM_Init
 1407 0004 00000000 		.word	WM_DeInit
 1408 0008 00000000 		.word	WM_Add
 1409 000c 00000000 		.word	WM_Delete
 1410 0010 00000000 		.word	WM_Redraw
 1411 0014 00000000 		.word	WM_Size
 1412 0018 00000000 		.word	WM_Move
 1413 001c 00000000 		.word	WM_Raise
 1414 0020 00000000 		.word	WM_MinMax
 1415              		.global	GNullWindowManager
 1416              		.section	.rodata.GNullWindowManager,"a",%progbits
 1417              		.align	2
 1418              		.type	GNullWindowManager, %object
 1419              		.size	GNullWindowManager, 4
 1420              	GNullWindowManager:
 1421 0000 00000000 		.word	GNullWindowManagerVMT
 1422              		.section	.text.WM_Init,"ax",%progbits
 1423              		.align	2
 1424              		.p2align 4,,15
 1425              		.thumb
 1426              		.thumb_func
 1427              		.type	WM_Init, %function
 1428              	WM_Init:
 1429              	.LFB130:
 1430              		.loc 1 679 0
 1431              		.cfi_startproc
 1432              		@ args = 0, pretend = 0, frame = 0
 1433              		@ frame_needed = 0, uses_anonymous_args = 0
 1434              		@ link register save eliminated.
 1435              		.loc 1 686 0
 1436 0000 7047     		bx	lr
 1437              		.cfi_endproc
 1438              	.LFE130:
 1439              		.size	WM_Init, .-WM_Init
 1440 0002 00BFAFF3 		.section	.text.WM_DeInit,"ax",%progbits
 1440      0080AFF3 
 1440      0080AFF3 
 1440      0080
 1441              		.align	2
 1442              		.p2align 4,,15
 1443              		.thumb
 1444              		.thumb_func
 1445              		.type	WM_DeInit, %function
 1446              	WM_DeInit:
 1447              	.LFB131:
 1448              		.loc 1 688 0
 1449              		.cfi_startproc
 1450              		@ args = 0, pretend = 0, frame = 0
 1451              		@ frame_needed = 0, uses_anonymous_args = 0
 1452              		@ link register save eliminated.
 1453              		.loc 1 691 0
 1454 0000 7047     		bx	lr
 1455              		.cfi_endproc
ARM GAS  /tmp/ccihpvPa.s 			page 27


 1456              	.LFE131:
 1457              		.size	WM_DeInit, .-WM_DeInit
 1458 0002 00BFAFF3 		.section	.text.WM_Add,"ax",%progbits
 1458      0080AFF3 
 1458      0080AFF3 
 1458      0080
 1459              		.align	2
 1460              		.p2align 4,,15
 1461              		.thumb
 1462              		.thumb_func
 1463              		.type	WM_Add, %function
 1464              	WM_Add:
 1465              	.LFB132:
 1466              		.loc 1 693 0
 1467              		.cfi_startproc
 1468              		@ args = 0, pretend = 0, frame = 8
 1469              		@ frame_needed = 0, uses_anonymous_args = 0
 1470 0000 00B5     		push	{lr}
 1471              		.cfi_def_cfa_offset 4
 1472              		.cfi_offset 14, -4
 1473 0002 83B0     		sub	sp, sp, #12
 1474              		.cfi_def_cfa_offset 16
 1475 0004 0190     		str	r0, [sp, #4]
 1476 0006 0091     		str	r1, [sp]
 1477              		.loc 1 697 0
 1478 0008 019B     		ldr	r3, [sp, #4]
 1479 000a 1648     		ldr	r0, .L106
 1480 000c 1946     		mov	r1, r3
 1481 000e FFF7FEFF 		bl	gfxQueueASyncPut
 1482              		.loc 1 700 0
 1483 0012 019B     		ldr	r3, [sp, #4]
 1484 0014 0322     		movs	r2, #3
 1485 0016 1A82     		strh	r2, [r3, #16]	@ movhi
 1486 0018 019B     		ldr	r3, [sp, #4]
 1487 001a 0322     		movs	r2, #3
 1488 001c 5A82     		strh	r2, [r3, #18]	@ movhi
 1489              		.loc 1 701 0
 1490 001e 019B     		ldr	r3, [sp, #4]
 1491 0020 0022     		movs	r2, #0
 1492 0022 DA81     		strh	r2, [r3, #14]	@ movhi
 1493 0024 019B     		ldr	r3, [sp, #4]
 1494 0026 DA89     		ldrh	r2, [r3, #14]
 1495 0028 019B     		ldr	r3, [sp, #4]
 1496 002a 9A81     		strh	r2, [r3, #12]	@ movhi
 1497              		.loc 1 702 0
 1498 002c 009B     		ldr	r3, [sp]
 1499 002e 1A88     		ldrh	r2, [r3]
 1500 0030 009B     		ldr	r3, [sp]
 1501 0032 5B88     		ldrh	r3, [r3, #2]
 1502 0034 12B2     		sxth	r2, r2
 1503 0036 1BB2     		sxth	r3, r3
 1504 0038 0198     		ldr	r0, [sp, #4]
 1505 003a 1146     		mov	r1, r2
 1506 003c 1A46     		mov	r2, r3
 1507 003e FFF7FEFF 		bl	WM_Move
 1508              		.loc 1 703 0
 1509 0042 009B     		ldr	r3, [sp]
ARM GAS  /tmp/ccihpvPa.s 			page 28


 1510 0044 9A88     		ldrh	r2, [r3, #4]
 1511 0046 009B     		ldr	r3, [sp]
 1512 0048 DB88     		ldrh	r3, [r3, #6]
 1513 004a 12B2     		sxth	r2, r2
 1514 004c 1BB2     		sxth	r3, r3
 1515 004e 0198     		ldr	r0, [sp, #4]
 1516 0050 1146     		mov	r1, r2
 1517 0052 1A46     		mov	r2, r3
 1518 0054 FFF7FEFF 		bl	WM_Size
 1519              		.loc 1 704 0
 1520 0058 0123     		movs	r3, #1
 1521              		.loc 1 705 0
 1522 005a 1846     		mov	r0, r3
 1523 005c 03B0     		add	sp, sp, #12
 1524              		.cfi_def_cfa_offset 4
 1525              		@ sp needed
 1526 005e 5DF804FB 		ldr	pc, [sp], #4
 1527              	.L107:
 1528 0062 00BF     		.align	2
 1529              	.L106:
 1530 0064 00000000 		.word	_GWINList
 1531              		.cfi_endproc
 1532              	.LFE132:
 1533              		.size	WM_Add, .-WM_Add
 1534 0068 AFF30080 		.section	.text.WM_Delete,"ax",%progbits
 1534      AFF30080 
 1535              		.align	2
 1536              		.p2align 4,,15
 1537              		.thumb
 1538              		.thumb_func
 1539              		.type	WM_Delete, %function
 1540              	WM_Delete:
 1541              	.LFB133:
 1542              		.loc 1 707 0
 1543              		.cfi_startproc
 1544              		@ args = 0, pretend = 0, frame = 8
 1545              		@ frame_needed = 0, uses_anonymous_args = 0
 1546 0000 00B5     		push	{lr}
 1547              		.cfi_def_cfa_offset 4
 1548              		.cfi_offset 14, -4
 1549 0002 83B0     		sub	sp, sp, #12
 1550              		.cfi_def_cfa_offset 16
 1551 0004 0190     		str	r0, [sp, #4]
 1552              		.loc 1 709 0
 1553 0006 019B     		ldr	r3, [sp, #4]
 1554 0008 0348     		ldr	r0, .L109
 1555 000a 1946     		mov	r1, r3
 1556 000c FFF7FEFF 		bl	gfxQueueASyncRemove
 1557              		.loc 1 710 0
 1558 0010 03B0     		add	sp, sp, #12
 1559              		.cfi_def_cfa_offset 4
 1560              		@ sp needed
 1561 0012 5DF804FB 		ldr	pc, [sp], #4
 1562              	.L110:
 1563 0016 00BF     		.align	2
 1564              	.L109:
 1565 0018 00000000 		.word	_GWINList
ARM GAS  /tmp/ccihpvPa.s 			page 29


 1566              		.cfi_endproc
 1567              	.LFE133:
 1568              		.size	WM_Delete, .-WM_Delete
 1569 001c AFF30080 		.section	.text.WM_Redraw,"ax",%progbits
 1570              		.align	2
 1571              		.p2align 4,,15
 1572              		.thumb
 1573              		.thumb_func
 1574              		.type	WM_Redraw, %function
 1575              	WM_Redraw:
 1576              	.LFB134:
 1577              		.loc 1 712 0
 1578              		.cfi_startproc
 1579              		@ args = 0, pretend = 0, frame = 16
 1580              		@ frame_needed = 0, uses_anonymous_args = 0
 1581 0000 2DE9F041 		push	{r4, r5, r6, r7, r8, lr}
 1582              		.cfi_def_cfa_offset 24
 1583              		.cfi_offset 4, -24
 1584              		.cfi_offset 5, -20
 1585              		.cfi_offset 6, -16
 1586              		.cfi_offset 7, -12
 1587              		.cfi_offset 8, -8
 1588              		.cfi_offset 14, -4
 1589 0004 86B0     		sub	sp, sp, #24
 1590              		.cfi_def_cfa_offset 48
 1591 0006 0390     		str	r0, [sp, #12]
 1592              		.loc 1 716 0
 1593 0008 039B     		ldr	r3, [sp, #12]
 1594 000a 9B69     		ldr	r3, [r3, #24]
 1595 000c 03F40073 		and	r3, r3, #512
 1596 0010 002B     		cmp	r3, #0
 1597 0012 3AD0     		beq	.L112
 1598              		.loc 1 717 0
 1599 0014 039B     		ldr	r3, [sp, #12]
 1600 0016 5B68     		ldr	r3, [r3, #4]
 1601 0018 DB68     		ldr	r3, [r3, #12]
 1602 001a 002B     		cmp	r3, #0
 1603 001c 05D0     		beq	.L113
 1604              		.loc 1 718 0
 1605 001e 039B     		ldr	r3, [sp, #12]
 1606 0020 5B68     		ldr	r3, [r3, #4]
 1607 0022 DB68     		ldr	r3, [r3, #12]
 1608 0024 0398     		ldr	r0, [sp, #12]
 1609 0026 9847     		blx	r3
 1610 0028 B9E0     		b	.L115
 1611              	.L113:
 1612              		.loc 1 719 0
 1613 002a 039B     		ldr	r3, [sp, #12]
 1614 002c 9B69     		ldr	r3, [r3, #24]
 1615 002e 03F40043 		and	r3, r3, #32768
 1616 0032 002B     		cmp	r3, #0
 1617 0034 00F0B380 		beq	.L115
 1618              		.loc 1 721 0
 1619 0038 039B     		ldr	r3, [sp, #12]
 1620 003a 9868     		ldr	r0, [r3, #8]
 1621 003c 039B     		ldr	r3, [sp, #12]
 1622 003e 9989     		ldrh	r1, [r3, #12]
ARM GAS  /tmp/ccihpvPa.s 			page 30


 1623 0040 039B     		ldr	r3, [sp, #12]
 1624 0042 DD89     		ldrh	r5, [r3, #14]
 1625 0044 039B     		ldr	r3, [sp, #12]
 1626 0046 1C8A     		ldrh	r4, [r3, #16]
 1627 0048 039B     		ldr	r3, [sp, #12]
 1628 004a 5A8A     		ldrh	r2, [r3, #18]
 1629 004c 039B     		ldr	r3, [sp, #12]
 1630 004e DB8A     		ldrh	r3, [r3, #22]
 1631 0050 09B2     		sxth	r1, r1
 1632 0052 2DB2     		sxth	r5, r5
 1633 0054 24B2     		sxth	r4, r4
 1634 0056 12B2     		sxth	r2, r2
 1635 0058 0092     		str	r2, [sp]
 1636 005a 0193     		str	r3, [sp, #4]
 1637 005c 2A46     		mov	r2, r5
 1638 005e 2346     		mov	r3, r4
 1639 0060 FFF7FEFF 		bl	gdispGFillArea
 1640              		.loc 1 724 0
 1641 0064 039B     		ldr	r3, [sp, #12]
 1642 0066 9B69     		ldr	r3, [r3, #24]
 1643 0068 03F08073 		and	r3, r3, #16777216
 1644 006c 002B     		cmp	r3, #0
 1645 006e 40F09680 		bne	.L115
 1646              		.loc 1 724 0 is_stmt 0 discriminator 1
 1647 0072 039B     		ldr	r3, [sp, #12]
 1648 0074 5B68     		ldr	r3, [r3, #4]
 1649 0076 1B69     		ldr	r3, [r3, #16]
 1650 0078 002B     		cmp	r3, #0
 1651 007a 00F09080 		beq	.L115
 1652              		.loc 1 725 0 is_stmt 1
 1653 007e 039B     		ldr	r3, [sp, #12]
 1654 0080 5B68     		ldr	r3, [r3, #4]
 1655 0082 1B69     		ldr	r3, [r3, #16]
 1656 0084 0398     		ldr	r0, [sp, #12]
 1657 0086 9847     		blx	r3
 1658 0088 89E0     		b	.L115
 1659              	.L112:
 1660              		.loc 1 744 0
 1661 008a 039B     		ldr	r3, [sp, #12]
 1662 008c 9B69     		ldr	r3, [r3, #24]
 1663 008e 03F40043 		and	r3, r3, #32768
 1664 0092 002B     		cmp	r3, #0
 1665 0094 00F08380 		beq	.L115
 1666              	.LBB2:
 1667              		.loc 1 767 0
 1668 0098 039B     		ldr	r3, [sp, #12]
 1669 009a 9D68     		ldr	r5, [r3, #8]
 1670 009c 039B     		ldr	r3, [sp, #12]
 1671 009e B3F80C80 		ldrh	r8, [r3, #12]
 1672 00a2 039B     		ldr	r3, [sp, #12]
 1673 00a4 DF89     		ldrh	r7, [r3, #14]
 1674 00a6 039B     		ldr	r3, [sp, #12]
 1675 00a8 1C8A     		ldrh	r4, [r3, #16]
 1676 00aa 039B     		ldr	r3, [sp, #12]
 1677 00ac 5E8A     		ldrh	r6, [r3, #18]
 1678 00ae FFF7FEFF 		bl	gwinGetDefaultBgColor
 1679 00b2 0346     		mov	r3, r0
ARM GAS  /tmp/ccihpvPa.s 			page 31


 1680 00b4 1846     		mov	r0, r3
 1681 00b6 0FFA88F1 		sxth	r1, r8
 1682 00ba 3AB2     		sxth	r2, r7
 1683 00bc 24B2     		sxth	r4, r4
 1684 00be 33B2     		sxth	r3, r6
 1685 00c0 0093     		str	r3, [sp]
 1686 00c2 0190     		str	r0, [sp, #4]
 1687 00c4 2846     		mov	r0, r5
 1688 00c6 2346     		mov	r3, r4
 1689 00c8 FFF7FEFF 		bl	gdispGFillArea
 1690              		.loc 1 770 0
 1691 00cc 0020     		movs	r0, #0
 1692 00ce FFF7FEFF 		bl	gwinGetNextWindow
 1693 00d2 0590     		str	r0, [sp, #20]
 1694 00d4 60E0     		b	.L116
 1695              	.L119:
 1696              		.loc 1 771 0
 1697 00d6 059B     		ldr	r3, [sp, #20]
 1698 00d8 9B69     		ldr	r3, [r3, #24]
 1699 00da 03F40073 		and	r3, r3, #512
 1700 00de 002B     		cmp	r3, #0
 1701 00e0 56D0     		beq	.L117
 1702              		.loc 1 772 0
 1703 00e2 059B     		ldr	r3, [sp, #20]
 1704 00e4 9A68     		ldr	r2, [r3, #8]
 1705 00e6 039B     		ldr	r3, [sp, #12]
 1706 00e8 9B68     		ldr	r3, [r3, #8]
 1707 00ea 9A42     		cmp	r2, r3
 1708 00ec 50D1     		bne	.L117
 1709              		.loc 1 773 0
 1710 00ee 059B     		ldr	r3, [sp, #20]
 1711 00f0 9B89     		ldrh	r3, [r3, #12]
 1712 00f2 1AB2     		sxth	r2, r3
 1713 00f4 039B     		ldr	r3, [sp, #12]
 1714 00f6 9B89     		ldrh	r3, [r3, #12]
 1715 00f8 19B2     		sxth	r1, r3
 1716 00fa 039B     		ldr	r3, [sp, #12]
 1717 00fc 1B8A     		ldrh	r3, [r3, #16]
 1718 00fe 1BB2     		sxth	r3, r3
 1719 0100 0B44     		add	r3, r3, r1
 1720 0102 9A42     		cmp	r2, r3
 1721 0104 44DA     		bge	.L117
 1722              		.loc 1 773 0 is_stmt 0 discriminator 1
 1723 0106 059B     		ldr	r3, [sp, #20]
 1724 0108 DB89     		ldrh	r3, [r3, #14]
 1725 010a 1AB2     		sxth	r2, r3
 1726 010c 039B     		ldr	r3, [sp, #12]
 1727 010e DB89     		ldrh	r3, [r3, #14]
 1728 0110 19B2     		sxth	r1, r3
 1729 0112 039B     		ldr	r3, [sp, #12]
 1730 0114 5B8A     		ldrh	r3, [r3, #18]
 1731 0116 1BB2     		sxth	r3, r3
 1732 0118 0B44     		add	r3, r3, r1
 1733 011a 9A42     		cmp	r2, r3
 1734 011c 38DA     		bge	.L117
 1735              		.loc 1 773 0 discriminator 2
 1736 011e 059B     		ldr	r3, [sp, #20]
ARM GAS  /tmp/ccihpvPa.s 			page 32


 1737 0120 9B89     		ldrh	r3, [r3, #12]
 1738 0122 1AB2     		sxth	r2, r3
 1739 0124 059B     		ldr	r3, [sp, #20]
 1740 0126 1B8A     		ldrh	r3, [r3, #16]
 1741 0128 1BB2     		sxth	r3, r3
 1742 012a 1A44     		add	r2, r2, r3
 1743 012c 039B     		ldr	r3, [sp, #12]
 1744 012e 9B89     		ldrh	r3, [r3, #12]
 1745 0130 1BB2     		sxth	r3, r3
 1746 0132 9A42     		cmp	r2, r3
 1747 0134 2CDB     		blt	.L117
 1748              		.loc 1 773 0 discriminator 3
 1749 0136 059B     		ldr	r3, [sp, #20]
 1750 0138 DB89     		ldrh	r3, [r3, #14]
 1751 013a 1AB2     		sxth	r2, r3
 1752 013c 059B     		ldr	r3, [sp, #20]
 1753 013e 5B8A     		ldrh	r3, [r3, #18]
 1754 0140 1BB2     		sxth	r3, r3
 1755 0142 1A44     		add	r2, r2, r3
 1756 0144 039B     		ldr	r3, [sp, #12]
 1757 0146 DB89     		ldrh	r3, [r3, #14]
 1758 0148 1BB2     		sxth	r3, r3
 1759 014a 9A42     		cmp	r2, r3
 1760 014c 20DB     		blt	.L117
 1761              		.loc 1 774 0 is_stmt 1
 1762 014e 059B     		ldr	r3, [sp, #20]
 1763 0150 5B68     		ldr	r3, [r3, #4]
 1764 0152 DB68     		ldr	r3, [r3, #12]
 1765 0154 002B     		cmp	r3, #0
 1766 0156 05D0     		beq	.L118
 1767              		.loc 1 775 0
 1768 0158 059B     		ldr	r3, [sp, #20]
 1769 015a 5B68     		ldr	r3, [r3, #4]
 1770 015c DB68     		ldr	r3, [r3, #12]
 1771 015e 0598     		ldr	r0, [sp, #20]
 1772 0160 9847     		blx	r3
 1773 0162 15E0     		b	.L117
 1774              	.L118:
 1775              		.loc 1 778 0
 1776 0164 059B     		ldr	r3, [sp, #20]
 1777 0166 9868     		ldr	r0, [r3, #8]
 1778 0168 059B     		ldr	r3, [sp, #20]
 1779 016a 9989     		ldrh	r1, [r3, #12]
 1780 016c 059B     		ldr	r3, [sp, #20]
 1781 016e DD89     		ldrh	r5, [r3, #14]
 1782 0170 059B     		ldr	r3, [sp, #20]
 1783 0172 1C8A     		ldrh	r4, [r3, #16]
 1784 0174 059B     		ldr	r3, [sp, #20]
 1785 0176 5A8A     		ldrh	r2, [r3, #18]
 1786 0178 059B     		ldr	r3, [sp, #20]
 1787 017a DB8A     		ldrh	r3, [r3, #22]
 1788 017c 09B2     		sxth	r1, r1
 1789 017e 2DB2     		sxth	r5, r5
 1790 0180 24B2     		sxth	r4, r4
 1791 0182 12B2     		sxth	r2, r2
 1792 0184 0092     		str	r2, [sp]
 1793 0186 0193     		str	r3, [sp, #4]
ARM GAS  /tmp/ccihpvPa.s 			page 33


 1794 0188 2A46     		mov	r2, r5
 1795 018a 2346     		mov	r3, r4
 1796 018c FFF7FEFF 		bl	gdispGFillArea
 1797              	.L117:
 1798              		.loc 1 770 0 discriminator 2
 1799 0190 0598     		ldr	r0, [sp, #20]
 1800 0192 FFF7FEFF 		bl	gwinGetNextWindow
 1801 0196 0590     		str	r0, [sp, #20]
 1802              	.L116:
 1803              		.loc 1 770 0 is_stmt 0 discriminator 1
 1804 0198 059B     		ldr	r3, [sp, #20]
 1805 019a 002B     		cmp	r3, #0
 1806 019c 9BD1     		bne	.L119
 1807              	.L115:
 1808              	.LBE2:
 1809              		.loc 1 786 0 is_stmt 1
 1810 019e 039B     		ldr	r3, [sp, #12]
 1811 01a0 9B69     		ldr	r3, [r3, #24]
 1812 01a2 23F08073 		bic	r3, r3, #16777216
 1813 01a6 23F44043 		bic	r3, r3, #49152
 1814 01aa 039A     		ldr	r2, [sp, #12]
 1815 01ac 9361     		str	r3, [r2, #24]
 1816              		.loc 1 787 0
 1817 01ae 06B0     		add	sp, sp, #24
 1818              		.cfi_def_cfa_offset 24
 1819              		@ sp needed
 1820 01b0 BDE8F081 		pop	{r4, r5, r6, r7, r8, pc}
 1821              		.cfi_endproc
 1822              	.LFE134:
 1823              		.size	WM_Redraw, .-WM_Redraw
 1824 01b4 AFF30080 		.section	.text.WM_Size,"ax",%progbits
 1824      AFF30080 
 1824      AFF30080 
 1825              		.align	2
 1826              		.p2align 4,,15
 1827              		.thumb
 1828              		.thumb_func
 1829              		.type	WM_Size, %function
 1830              	WM_Size:
 1831              	.LFB135:
 1832              		.loc 1 789 0
 1833              		.cfi_startproc
 1834              		@ args = 0, pretend = 0, frame = 16
 1835              		@ frame_needed = 0, uses_anonymous_args = 0
 1836 0000 00B5     		push	{lr}
 1837              		.cfi_def_cfa_offset 4
 1838              		.cfi_offset 14, -4
 1839 0002 85B0     		sub	sp, sp, #20
 1840              		.cfi_def_cfa_offset 24
 1841 0004 0190     		str	r0, [sp, #4]
 1842 0006 0B46     		mov	r3, r1
 1843 0008 ADF80230 		strh	r3, [sp, #2]	@ movhi
 1844 000c 1346     		mov	r3, r2	@ movhi
 1845 000e ADF80030 		strh	r3, [sp]	@ movhi
 1846              		.loc 1 803 0
 1847 0012 019B     		ldr	r3, [sp, #4]
 1848 0014 9B68     		ldr	r3, [r3, #8]
ARM GAS  /tmp/ccihpvPa.s 			page 34


 1849 0016 1846     		mov	r0, r3
 1850 0018 FFF7FEFF 		bl	gdispGGetWidth
 1851 001c 0346     		mov	r3, r0
 1852 001e ADF80E30 		strh	r3, [sp, #14]	@ movhi
 1853              		.loc 1 804 0
 1854 0022 019B     		ldr	r3, [sp, #4]
 1855 0024 9B89     		ldrh	r3, [r3, #12]
 1856 0026 1AB2     		sxth	r2, r3
 1857 0028 BDF90230 		ldrsh	r3, [sp, #2]
 1858 002c 1A44     		add	r2, r2, r3
 1859 002e BDF90E30 		ldrsh	r3, [sp, #14]
 1860 0032 9A42     		cmp	r2, r3
 1861 0034 08DD     		ble	.L121
 1862              		.loc 1 804 0 is_stmt 0 discriminator 1
 1863 0036 BDF80E20 		ldrh	r2, [sp, #14]
 1864 003a 019B     		ldr	r3, [sp, #4]
 1865 003c 9B89     		ldrh	r3, [r3, #12]
 1866 003e 9BB2     		uxth	r3, r3
 1867 0040 D31A     		subs	r3, r2, r3
 1868 0042 9BB2     		uxth	r3, r3
 1869 0044 ADF80230 		strh	r3, [sp, #2]	@ movhi
 1870              	.L121:
 1871              		.loc 1 805 0 is_stmt 1
 1872 0048 019B     		ldr	r3, [sp, #4]
 1873 004a 9B68     		ldr	r3, [r3, #8]
 1874 004c 1846     		mov	r0, r3
 1875 004e FFF7FEFF 		bl	gdispGGetHeight
 1876 0052 0346     		mov	r3, r0
 1877 0054 ADF80E30 		strh	r3, [sp, #14]	@ movhi
 1878              		.loc 1 806 0
 1879 0058 019B     		ldr	r3, [sp, #4]
 1880 005a DB89     		ldrh	r3, [r3, #14]
 1881 005c 1AB2     		sxth	r2, r3
 1882 005e BDF90030 		ldrsh	r3, [sp]
 1883 0062 1A44     		add	r2, r2, r3
 1884 0064 BDF90E30 		ldrsh	r3, [sp, #14]
 1885 0068 9A42     		cmp	r2, r3
 1886 006a 08DD     		ble	.L122
 1887              		.loc 1 806 0 is_stmt 0 discriminator 1
 1888 006c BDF80E20 		ldrh	r2, [sp, #14]
 1889 0070 019B     		ldr	r3, [sp, #4]
 1890 0072 DB89     		ldrh	r3, [r3, #14]
 1891 0074 9BB2     		uxth	r3, r3
 1892 0076 D31A     		subs	r3, r2, r3
 1893 0078 9BB2     		uxth	r3, r3
 1894 007a ADF80030 		strh	r3, [sp]	@ movhi
 1895              	.L122:
 1896              		.loc 1 809 0 is_stmt 1
 1897 007e BDF90230 		ldrsh	r3, [sp, #2]
 1898 0082 022B     		cmp	r3, #2
 1899 0084 02DC     		bgt	.L123
 1900              		.loc 1 809 0 is_stmt 0 discriminator 1
 1901 0086 0323     		movs	r3, #3
 1902 0088 ADF80230 		strh	r3, [sp, #2]	@ movhi
 1903              	.L123:
 1904              		.loc 1 810 0 is_stmt 1
 1905 008c BDF90030 		ldrsh	r3, [sp]
ARM GAS  /tmp/ccihpvPa.s 			page 35


 1906 0090 022B     		cmp	r3, #2
 1907 0092 02DC     		bgt	.L124
 1908              		.loc 1 810 0 is_stmt 0 discriminator 1
 1909 0094 0323     		movs	r3, #3
 1910 0096 ADF80030 		strh	r3, [sp]	@ movhi
 1911              	.L124:
 1912              		.loc 1 813 0 is_stmt 1
 1913 009a 019B     		ldr	r3, [sp, #4]
 1914 009c 1B8A     		ldrh	r3, [r3, #16]
 1915 009e BDF90220 		ldrsh	r2, [sp, #2]
 1916 00a2 1BB2     		sxth	r3, r3
 1917 00a4 9A42     		cmp	r2, r3
 1918 00a6 07D1     		bne	.L125
 1919              		.loc 1 813 0 is_stmt 0 discriminator 1
 1920 00a8 019B     		ldr	r3, [sp, #4]
 1921 00aa 5B8A     		ldrh	r3, [r3, #18]
 1922 00ac BDF90020 		ldrsh	r2, [sp]
 1923 00b0 1BB2     		sxth	r3, r3
 1924 00b2 9A42     		cmp	r2, r3
 1925 00b4 00D1     		bne	.L125
 1926              		.loc 1 814 0 is_stmt 1
 1927 00b6 3BE0     		b	.L120
 1928              	.L125:
 1929              		.loc 1 817 0
 1930 00b8 019B     		ldr	r3, [sp, #4]
 1931 00ba 9B69     		ldr	r3, [r3, #24]
 1932 00bc 03F40073 		and	r3, r3, #512
 1933 00c0 002B     		cmp	r3, #0
 1934 00c2 2DD0     		beq	.L127
 1935              		.loc 1 818 0
 1936 00c4 019B     		ldr	r3, [sp, #4]
 1937 00c6 1B8A     		ldrh	r3, [r3, #16]
 1938 00c8 BDF90220 		ldrsh	r2, [sp, #2]
 1939 00cc 1BB2     		sxth	r3, r3
 1940 00ce 9A42     		cmp	r2, r3
 1941 00d0 12DB     		blt	.L128
 1942              		.loc 1 818 0 is_stmt 0 discriminator 1
 1943 00d2 019B     		ldr	r3, [sp, #4]
 1944 00d4 5B8A     		ldrh	r3, [r3, #18]
 1945 00d6 BDF90020 		ldrsh	r2, [sp]
 1946 00da 1BB2     		sxth	r3, r3
 1947 00dc 9A42     		cmp	r2, r3
 1948 00de 0BDB     		blt	.L128
 1949              		.loc 1 821 0 is_stmt 1
 1950 00e0 019B     		ldr	r3, [sp, #4]
 1951 00e2 BDF80220 		ldrh	r2, [sp, #2]	@ movhi
 1952 00e6 1A82     		strh	r2, [r3, #16]	@ movhi
 1953 00e8 019B     		ldr	r3, [sp, #4]
 1954 00ea BDF80020 		ldrh	r2, [sp]	@ movhi
 1955 00ee 5A82     		strh	r2, [r3, #18]	@ movhi
 1956              		.loc 1 822 0
 1957 00f0 0198     		ldr	r0, [sp, #4]
 1958 00f2 FFF7FEFF 		bl	_gwinUpdate
 1959 00f6 1BE0     		b	.L120
 1960              	.L128:
 1961              		.loc 1 826 0
 1962 00f8 0198     		ldr	r0, [sp, #4]
ARM GAS  /tmp/ccihpvPa.s 			page 36


 1963 00fa 0021     		movs	r1, #0
 1964 00fc FFF7FEFF 		bl	gwinSetVisible
 1965              		.loc 1 827 0
 1966 0100 0020     		movs	r0, #0
 1967 0102 FFF7FEFF 		bl	_gwinFlushRedraws
 1968              		.loc 1 830 0
 1969 0106 019B     		ldr	r3, [sp, #4]
 1970 0108 BDF80220 		ldrh	r2, [sp, #2]	@ movhi
 1971 010c 1A82     		strh	r2, [r3, #16]	@ movhi
 1972 010e 019B     		ldr	r3, [sp, #4]
 1973 0110 BDF80020 		ldrh	r2, [sp]	@ movhi
 1974 0114 5A82     		strh	r2, [r3, #18]	@ movhi
 1975              		.loc 1 844 0
 1976 0116 0198     		ldr	r0, [sp, #4]
 1977 0118 0121     		movs	r1, #1
 1978 011a FFF7FEFF 		bl	gwinSetVisible
 1979 011e 07E0     		b	.L120
 1980              	.L127:
 1981              		.loc 1 847 0
 1982 0120 019B     		ldr	r3, [sp, #4]
 1983 0122 BDF80220 		ldrh	r2, [sp, #2]	@ movhi
 1984 0126 1A82     		strh	r2, [r3, #16]	@ movhi
 1985 0128 019B     		ldr	r3, [sp, #4]
 1986 012a BDF80020 		ldrh	r2, [sp]	@ movhi
 1987 012e 5A82     		strh	r2, [r3, #18]	@ movhi
 1988              	.L120:
 1989              		.loc 1 860 0
 1990 0130 05B0     		add	sp, sp, #20
 1991              		.cfi_def_cfa_offset 4
 1992              		@ sp needed
 1993 0132 5DF804FB 		ldr	pc, [sp], #4
 1994              		.cfi_endproc
 1995              	.LFE135:
 1996              		.size	WM_Size, .-WM_Size
 1997 0136 00BFAFF3 		.section	.text.WM_Move,"ax",%progbits
 1997      0080AFF3 
 1997      0080
 1998              		.align	2
 1999              		.p2align 4,,15
 2000              		.thumb
 2001              		.thumb_func
 2002              		.type	WM_Move, %function
 2003              	WM_Move:
 2004              	.LFB136:
 2005              		.loc 1 862 0
 2006              		.cfi_startproc
 2007              		@ args = 0, pretend = 0, frame = 16
 2008              		@ frame_needed = 0, uses_anonymous_args = 0
 2009 0000 00B5     		push	{lr}
 2010              		.cfi_def_cfa_offset 4
 2011              		.cfi_offset 14, -4
 2012 0002 85B0     		sub	sp, sp, #20
 2013              		.cfi_def_cfa_offset 24
 2014 0004 0190     		str	r0, [sp, #4]
 2015 0006 0B46     		mov	r3, r1
 2016 0008 ADF80230 		strh	r3, [sp, #2]	@ movhi
 2017 000c 1346     		mov	r3, r2	@ movhi
ARM GAS  /tmp/ccihpvPa.s 			page 37


 2018 000e ADF80030 		strh	r3, [sp]	@ movhi
 2019              		.loc 1 874 0
 2020 0012 019B     		ldr	r3, [sp, #4]
 2021 0014 9B68     		ldr	r3, [r3, #8]
 2022 0016 1846     		mov	r0, r3
 2023 0018 FFF7FEFF 		bl	gdispGGetWidth
 2024 001c 0346     		mov	r3, r0
 2025 001e ADF80E30 		strh	r3, [sp, #14]	@ movhi
 2026              		.loc 1 875 0
 2027 0022 019B     		ldr	r3, [sp, #4]
 2028 0024 9B68     		ldr	r3, [r3, #8]
 2029 0026 1846     		mov	r0, r3
 2030 0028 FFF7FEFF 		bl	gdispGGetHeight
 2031 002c 0346     		mov	r3, r0
 2032 002e ADF80C30 		strh	r3, [sp, #12]	@ movhi
 2033              		.loc 1 879 0
 2034 0032 BDF90220 		ldrsh	r2, [sp, #2]
 2035 0036 019B     		ldr	r3, [sp, #4]
 2036 0038 1B8A     		ldrh	r3, [r3, #16]
 2037 003a 1BB2     		sxth	r3, r3
 2038 003c 1A44     		add	r2, r2, r3
 2039 003e BDF90E30 		ldrsh	r3, [sp, #14]
 2040 0042 9A42     		cmp	r2, r3
 2041 0044 08DD     		ble	.L131
 2042              		.loc 1 879 0 is_stmt 0 discriminator 1
 2043 0046 BDF80E20 		ldrh	r2, [sp, #14]
 2044 004a 019B     		ldr	r3, [sp, #4]
 2045 004c 1B8A     		ldrh	r3, [r3, #16]
 2046 004e 9BB2     		uxth	r3, r3
 2047 0050 D31A     		subs	r3, r2, r3
 2048 0052 9BB2     		uxth	r3, r3
 2049 0054 ADF80230 		strh	r3, [sp, #2]	@ movhi
 2050              	.L131:
 2051              		.loc 1 880 0 is_stmt 1
 2052 0058 BDF90230 		ldrsh	r3, [sp, #2]
 2053 005c 002B     		cmp	r3, #0
 2054 005e 02DA     		bge	.L132
 2055              		.loc 1 880 0 is_stmt 0 discriminator 1
 2056 0060 0023     		movs	r3, #0
 2057 0062 ADF80230 		strh	r3, [sp, #2]	@ movhi
 2058              	.L132:
 2059              		.loc 1 881 0 is_stmt 1
 2060 0066 BDF90020 		ldrsh	r2, [sp]
 2061 006a 019B     		ldr	r3, [sp, #4]
 2062 006c 5B8A     		ldrh	r3, [r3, #18]
 2063 006e 1BB2     		sxth	r3, r3
 2064 0070 1A44     		add	r2, r2, r3
 2065 0072 BDF90C30 		ldrsh	r3, [sp, #12]
 2066 0076 9A42     		cmp	r2, r3
 2067 0078 08DD     		ble	.L133
 2068              		.loc 1 881 0 is_stmt 0 discriminator 1
 2069 007a BDF80C20 		ldrh	r2, [sp, #12]
 2070 007e 019B     		ldr	r3, [sp, #4]
 2071 0080 5B8A     		ldrh	r3, [r3, #18]
 2072 0082 9BB2     		uxth	r3, r3
 2073 0084 D31A     		subs	r3, r2, r3
 2074 0086 9BB2     		uxth	r3, r3
ARM GAS  /tmp/ccihpvPa.s 			page 38


 2075 0088 ADF80030 		strh	r3, [sp]	@ movhi
 2076              	.L133:
 2077              		.loc 1 882 0 is_stmt 1
 2078 008c BDF90030 		ldrsh	r3, [sp]
 2079 0090 002B     		cmp	r3, #0
 2080 0092 02DA     		bge	.L134
 2081              		.loc 1 882 0 is_stmt 0 discriminator 1
 2082 0094 0023     		movs	r3, #0
 2083 0096 ADF80030 		strh	r3, [sp]	@ movhi
 2084              	.L134:
 2085              		.loc 1 885 0 is_stmt 1
 2086 009a BDF80E20 		ldrh	r2, [sp, #14]
 2087 009e BDF80230 		ldrh	r3, [sp, #2]
 2088 00a2 D31A     		subs	r3, r2, r3
 2089 00a4 9BB2     		uxth	r3, r3
 2090 00a6 ADF80E30 		strh	r3, [sp, #14]	@ movhi
 2091              		.loc 1 886 0
 2092 00aa BDF80C20 		ldrh	r2, [sp, #12]
 2093 00ae BDF80030 		ldrh	r3, [sp]
 2094 00b2 D31A     		subs	r3, r2, r3
 2095 00b4 9BB2     		uxth	r3, r3
 2096 00b6 ADF80C30 		strh	r3, [sp, #12]	@ movhi
 2097              		.loc 1 887 0
 2098 00ba 019B     		ldr	r3, [sp, #4]
 2099 00bc 1B8A     		ldrh	r3, [r3, #16]
 2100 00be BDF90E20 		ldrsh	r2, [sp, #14]
 2101 00c2 1BB2     		sxth	r3, r3
 2102 00c4 9A42     		cmp	r2, r3
 2103 00c6 03DD     		ble	.L135
 2104              		.loc 1 887 0 is_stmt 0 discriminator 1
 2105 00c8 019B     		ldr	r3, [sp, #4]
 2106 00ca 1B8A     		ldrh	r3, [r3, #16]	@ movhi
 2107 00cc ADF80E30 		strh	r3, [sp, #14]	@ movhi
 2108              	.L135:
 2109              		.loc 1 888 0 is_stmt 1
 2110 00d0 019B     		ldr	r3, [sp, #4]
 2111 00d2 5B8A     		ldrh	r3, [r3, #18]
 2112 00d4 BDF90C20 		ldrsh	r2, [sp, #12]
 2113 00d8 1BB2     		sxth	r3, r3
 2114 00da 9A42     		cmp	r2, r3
 2115 00dc 03DD     		ble	.L136
 2116              		.loc 1 888 0 is_stmt 0 discriminator 1
 2117 00de 019B     		ldr	r3, [sp, #4]
 2118 00e0 5B8A     		ldrh	r3, [r3, #18]	@ movhi
 2119 00e2 ADF80C30 		strh	r3, [sp, #12]	@ movhi
 2120              	.L136:
 2121              		.loc 1 889 0 is_stmt 1
 2122 00e6 019B     		ldr	r3, [sp, #4]
 2123 00e8 1B8A     		ldrh	r3, [r3, #16]
 2124 00ea BDF90E20 		ldrsh	r2, [sp, #14]
 2125 00ee 1BB2     		sxth	r3, r3
 2126 00f0 9A42     		cmp	r2, r3
 2127 00f2 06D1     		bne	.L137
 2128              		.loc 1 889 0 is_stmt 0 discriminator 1
 2129 00f4 019B     		ldr	r3, [sp, #4]
 2130 00f6 5B8A     		ldrh	r3, [r3, #18]
 2131 00f8 BDF90C20 		ldrsh	r2, [sp, #12]
ARM GAS  /tmp/ccihpvPa.s 			page 39


 2132 00fc 1BB2     		sxth	r3, r3
 2133 00fe 9A42     		cmp	r2, r3
 2134 0100 08D0     		beq	.L138
 2135              	.L137:
 2136              		.loc 1 890 0 is_stmt 1
 2137 0102 BDF90E20 		ldrsh	r2, [sp, #14]
 2138 0106 BDF90C30 		ldrsh	r3, [sp, #12]
 2139 010a 0198     		ldr	r0, [sp, #4]
 2140 010c 1146     		mov	r1, r2
 2141 010e 1A46     		mov	r2, r3
 2142 0110 FFF7FEFF 		bl	WM_Size
 2143              	.L138:
 2144              		.loc 1 901 0
 2145 0114 019B     		ldr	r3, [sp, #4]
 2146 0116 9B89     		ldrh	r3, [r3, #12]
 2147 0118 BDF90220 		ldrsh	r2, [sp, #2]
 2148 011c 1BB2     		sxth	r3, r3
 2149 011e 9A42     		cmp	r2, r3
 2150 0120 07D1     		bne	.L139
 2151              		.loc 1 901 0 is_stmt 0 discriminator 1
 2152 0122 019B     		ldr	r3, [sp, #4]
 2153 0124 DB89     		ldrh	r3, [r3, #14]
 2154 0126 BDF90020 		ldrsh	r2, [sp]
 2155 012a 1BB2     		sxth	r3, r3
 2156 012c 9A42     		cmp	r2, r3
 2157 012e 00D1     		bne	.L139
 2158              		.loc 1 902 0 is_stmt 1
 2159 0130 31E0     		b	.L130
 2160              	.L139:
 2161              		.loc 1 905 0
 2162 0132 019B     		ldr	r3, [sp, #4]
 2163 0134 9B69     		ldr	r3, [r3, #24]
 2164 0136 03F40073 		and	r3, r3, #512
 2165 013a 002B     		cmp	r3, #0
 2166 013c 1BD0     		beq	.L141
 2167              		.loc 1 907 0
 2168 013e 0198     		ldr	r0, [sp, #4]
 2169 0140 0021     		movs	r1, #0
 2170 0142 FFF7FEFF 		bl	gwinSetVisible
 2171              		.loc 1 908 0
 2172 0146 0020     		movs	r0, #0
 2173 0148 FFF7FEFF 		bl	_gwinFlushRedraws
 2174              		.loc 1 911 0
 2175 014c 019B     		ldr	r3, [sp, #4]
 2176 014e 9B89     		ldrh	r3, [r3, #12]	@ movhi
 2177 0150 ADF80E30 		strh	r3, [sp, #14]	@ movhi
 2178 0154 019B     		ldr	r3, [sp, #4]
 2179 0156 BDF80220 		ldrh	r2, [sp, #2]	@ movhi
 2180 015a 9A81     		strh	r2, [r3, #12]	@ movhi
 2181              		.loc 1 912 0
 2182 015c 019B     		ldr	r3, [sp, #4]
 2183 015e DB89     		ldrh	r3, [r3, #14]	@ movhi
 2184 0160 ADF80C30 		strh	r3, [sp, #12]	@ movhi
 2185 0164 019B     		ldr	r3, [sp, #4]
 2186 0166 BDF80020 		ldrh	r2, [sp]	@ movhi
 2187 016a DA81     		strh	r2, [r3, #14]	@ movhi
 2188              		.loc 1 925 0
ARM GAS  /tmp/ccihpvPa.s 			page 40


 2189 016c 0198     		ldr	r0, [sp, #4]
 2190 016e 0121     		movs	r1, #1
 2191 0170 FFF7FEFF 		bl	gwinSetVisible
 2192 0174 0FE0     		b	.L130
 2193              	.L141:
 2194              		.loc 1 927 0
 2195 0176 019B     		ldr	r3, [sp, #4]
 2196 0178 9B89     		ldrh	r3, [r3, #12]	@ movhi
 2197 017a ADF80E30 		strh	r3, [sp, #14]	@ movhi
 2198 017e 019B     		ldr	r3, [sp, #4]
 2199 0180 BDF80220 		ldrh	r2, [sp, #2]	@ movhi
 2200 0184 9A81     		strh	r2, [r3, #12]	@ movhi
 2201              		.loc 1 928 0
 2202 0186 019B     		ldr	r3, [sp, #4]
 2203 0188 DB89     		ldrh	r3, [r3, #14]	@ movhi
 2204 018a ADF80C30 		strh	r3, [sp, #12]	@ movhi
 2205 018e 019B     		ldr	r3, [sp, #4]
 2206 0190 BDF80020 		ldrh	r2, [sp]	@ movhi
 2207 0194 DA81     		strh	r2, [r3, #14]	@ movhi
 2208              	.L130:
 2209              		.loc 1 941 0
 2210 0196 05B0     		add	sp, sp, #20
 2211              		.cfi_def_cfa_offset 4
 2212              		@ sp needed
 2213 0198 5DF804FB 		ldr	pc, [sp], #4
 2214              		.cfi_endproc
 2215              	.LFE136:
 2216              		.size	WM_Move, .-WM_Move
 2217 019c AFF30080 		.section	.text.WM_MinMax,"ax",%progbits
 2218              		.align	2
 2219              		.p2align 4,,15
 2220              		.thumb
 2221              		.thumb_func
 2222              		.type	WM_MinMax, %function
 2223              	WM_MinMax:
 2224              	.LFB137:
 2225              		.loc 1 943 0
 2226              		.cfi_startproc
 2227              		@ args = 0, pretend = 0, frame = 8
 2228              		@ frame_needed = 0, uses_anonymous_args = 0
 2229              		@ link register save eliminated.
 2230 0000 82B0     		sub	sp, sp, #8
 2231              		.cfi_def_cfa_offset 8
 2232 0002 0190     		str	r0, [sp, #4]
 2233 0004 0B46     		mov	r3, r1
 2234 0006 8DF80330 		strb	r3, [sp, #3]
 2235              		.loc 1 946 0
 2236 000a 02B0     		add	sp, sp, #8
 2237              		.cfi_def_cfa_offset 0
 2238              		@ sp needed
 2239 000c 7047     		bx	lr
 2240              		.cfi_endproc
 2241              	.LFE137:
 2242              		.size	WM_MinMax, .-WM_MinMax
 2243 000e 00BF     		.section	.text.WM_Raise,"ax",%progbits
 2244              		.align	2
 2245              		.p2align 4,,15
ARM GAS  /tmp/ccihpvPa.s 			page 41


 2246              		.thumb
 2247              		.thumb_func
 2248              		.type	WM_Raise, %function
 2249              	WM_Raise:
 2250              	.LFB138:
 2251              		.loc 1 948 0
 2252              		.cfi_startproc
 2253              		@ args = 0, pretend = 0, frame = 8
 2254              		@ frame_needed = 0, uses_anonymous_args = 0
 2255 0000 00B5     		push	{lr}
 2256              		.cfi_def_cfa_offset 4
 2257              		.cfi_offset 14, -4
 2258 0002 83B0     		sub	sp, sp, #12
 2259              		.cfi_def_cfa_offset 16
 2260 0004 0190     		str	r0, [sp, #4]
 2261              		.loc 1 952 0
 2262 0006 019B     		ldr	r3, [sp, #4]
 2263 0008 0748     		ldr	r0, .L144
 2264 000a 1946     		mov	r1, r3
 2265 000c FFF7FEFF 		bl	gfxQueueASyncRemove
 2266              		.loc 1 953 0
 2267 0010 019B     		ldr	r3, [sp, #4]
 2268 0012 0548     		ldr	r0, .L144
 2269 0014 1946     		mov	r1, r3
 2270 0016 FFF7FEFF 		bl	gfxQueueASyncPut
 2271              		.loc 1 956 0
 2272 001a 0198     		ldr	r0, [sp, #4]
 2273 001c FFF7FEFF 		bl	_gwinUpdate
 2274              		.loc 1 957 0
 2275 0020 03B0     		add	sp, sp, #12
 2276              		.cfi_def_cfa_offset 4
 2277              		@ sp needed
 2278 0022 5DF804FB 		ldr	pc, [sp], #4
 2279              	.L145:
 2280 0026 00BF     		.align	2
 2281              	.L144:
 2282 0028 00000000 		.word	_GWINList
 2283              		.cfi_endproc
 2284              	.LFE138:
 2285              		.size	WM_Raise, .-WM_Raise
 2286 002c AFF30080 		.text
 2287              	.Letext0:
 2288              		.file 2 "/opt/gcc-arm-none-eabi/lib/gcc/arm-none-eabi/4.9.3/include/stddef.h"
 2289              		.file 3 "/opt/gcc-arm-none-eabi/arm-none-eabi/include/machine/_default_types.h"
 2290              		.file 4 "/opt/gcc-arm-none-eabi/arm-none-eabi/include/stdint.h"
 2291              		.file 5 "/home/makkmarci/workspace/ChibiOS_2.6.8/os/ports/GCC/ARMCMx/chtypes.h"
 2292              		.file 6 "/home/makkmarci/workspace/ChibiOS_2.6.8/os/kernel/include/chlists.h"
 2293              		.file 7 "/home/makkmarci/workspace/ChibiOS_2.6.8/os/kernel/include/chthreads.h"
 2294              		.file 8 "/home/makkmarci/workspace/ChibiOS_2.6.8/os/ports/GCC/ARMCMx/chcore_v7m.h"
 2295              		.file 9 "/home/makkmarci/workspace/ChibiOS_2.6.8/os/kernel/include/chsem.h"
 2296              		.file 10 "/home/makkmarci/workspace/ChibiOS_2.6.8/os/kernel/include/chmtx.h"
 2297              		.file 11 "/home/makkmarci/workspace/ugfx/src/gos/gos_chibios.h"
 2298              		.file 12 "/home/makkmarci/workspace/ugfx/src/gqueue/gqueue.h"
 2299              		.file 13 "/home/makkmarci/workspace/ugfx/src/gtimer/gtimer.h"
 2300              		.file 14 "/home/makkmarci/workspace/ugfx/src/gdisp/gdisp.h"
 2301              		.file 15 "/home/makkmarci/workspace/ugfx/src/gdisp/gdisp_colors.h"
 2302              		.file 16 "/home/makkmarci/workspace/ugfx/src/gwin/gwin.h"
ARM GAS  /tmp/ccihpvPa.s 			page 42


 2303              		.file 17 "/home/makkmarci/workspace/ugfx/src/gwin/gwin_class.h"
 2304              		.file 18 "/home/makkmarci/workspace/ChibiOS_2.6.8/os/ports/common/ARMCMx/CMSIS/include/core_cm4.h"