ARM GAS  /tmp/cchEzFXo.s 			page 1


   1              		.syntax unified
   2              		.cpu cortex-m4
   3              		.eabi_attribute 27, 1
   4              		.eabi_attribute 28, 1
   5              		.fpu fpv4-sp-d16
   6              		.eabi_attribute 20, 1
   7              		.eabi_attribute 21, 1
   8              		.eabi_attribute 23, 3
   9              		.eabi_attribute 24, 1
  10              		.eabi_attribute 25, 1
  11              		.eabi_attribute 26, 1
  12              		.eabi_attribute 30, 6
  13              		.eabi_attribute 34, 1
  14              		.eabi_attribute 18, 4
  15              		.thumb
  16              		.file	"gwin_image.c"
  17              		.text
  18              	.Ltext0:
  19              		.cfi_sections	.debug_frame
  20              		.section	.text._destroy,"ax",%progbits
  21              		.align	2
  22              		.p2align 4,,15
  23              		.thumb
  24              		.thumb_func
  25              		.type	_destroy, %function
  26              	_destroy:
  27              	.LFB111:
  28              		.file 1 "/home/makkmarci/workspace/ugfx/src/gwin/gwin_image.c"
  29              		.loc 1 21 0
  30              		.cfi_startproc
  31              		@ args = 0, pretend = 0, frame = 8
  32              		@ frame_needed = 0, uses_anonymous_args = 0
  33 0000 00B5     		push	{lr}
  34              		.cfi_def_cfa_offset 4
  35              		.cfi_offset 14, -4
  36 0002 83B0     		sub	sp, sp, #12
  37              		.cfi_def_cfa_offset 16
  38 0004 0190     		str	r0, [sp, #4]
  39              		.loc 1 22 0
  40 0006 019B     		ldr	r3, [sp, #4]
  41 0008 2033     		adds	r3, r3, #32
  42 000a 1846     		mov	r0, r3
  43 000c FFF7FEFF 		bl	gdispImageIsOpen
  44 0010 0346     		mov	r3, r0
  45 0012 002B     		cmp	r3, #0
  46 0014 04D0     		beq	.L1
  47              		.loc 1 23 0
  48 0016 019B     		ldr	r3, [sp, #4]
  49 0018 2033     		adds	r3, r3, #32
  50 001a 1846     		mov	r0, r3
  51 001c FFF7FEFF 		bl	gdispImageClose
  52              	.L1:
  53              		.loc 1 24 0
  54 0020 03B0     		add	sp, sp, #12
  55              		.cfi_def_cfa_offset 4
  56              		@ sp needed
  57 0022 5DF804FB 		ldr	pc, [sp], #4
ARM GAS  /tmp/cchEzFXo.s 			page 2


  58              		.cfi_endproc
  59              	.LFE111:
  60              		.size	_destroy, .-_destroy
  61 0026 00BFAFF3 		.section	.text._redraw,"ax",%progbits
  61      0080AFF3 
  61      0080
  62              		.align	2
  63              		.p2align 4,,15
  64              		.thumb
  65              		.thumb_func
  66              		.type	_redraw, %function
  67              	_redraw:
  68              	.LFB112:
  69              		.loc 1 32 0
  70              		.cfi_startproc
  71              		@ args = 0, pretend = 0, frame = 24
  72              		@ frame_needed = 0, uses_anonymous_args = 0
  73 0000 10B5     		push	{r4, lr}
  74              		.cfi_def_cfa_offset 8
  75              		.cfi_offset 4, -8
  76              		.cfi_offset 14, -4
  77 0002 8AB0     		sub	sp, sp, #40
  78              		.cfi_def_cfa_offset 48
  79 0004 0590     		str	r0, [sp, #20]
  80              		.loc 1 40 0
  81 0006 0023     		movs	r3, #0
  82 0008 ADF81E30 		strh	r3, [sp, #30]	@ movhi
  83              		.loc 1 41 0
  84 000c 0023     		movs	r3, #0
  85 000e ADF81C30 		strh	r3, [sp, #28]	@ movhi
  86              		.loc 1 42 0
  87 0012 059B     		ldr	r3, [sp, #20]
  88 0014 9B89     		ldrh	r3, [r3, #12]	@ movhi
  89 0016 ADF82630 		strh	r3, [sp, #38]	@ movhi
  90              		.loc 1 43 0
  91 001a 059B     		ldr	r3, [sp, #20]
  92 001c DB89     		ldrh	r3, [r3, #14]	@ movhi
  93 001e ADF82430 		strh	r3, [sp, #36]	@ movhi
  94              		.loc 1 44 0
  95 0022 059B     		ldr	r3, [sp, #20]
  96 0024 1B8A     		ldrh	r3, [r3, #16]	@ movhi
  97 0026 ADF82230 		strh	r3, [sp, #34]	@ movhi
  98              		.loc 1 45 0
  99 002a 059B     		ldr	r3, [sp, #20]
 100 002c 5B8A     		ldrh	r3, [r3, #18]	@ movhi
 101 002e ADF82030 		strh	r3, [sp, #32]	@ movhi
 102              		.loc 1 46 0
 103 0032 FFF7FEFF 		bl	gwinGetDefaultBgColor
 104 0036 0346     		mov	r3, r0
 105 0038 ADF81A30 		strh	r3, [sp, #26]	@ movhi
 106              		.loc 1 49 0
 107 003c 059B     		ldr	r3, [sp, #20]
 108 003e 2033     		adds	r3, r3, #32
 109 0040 1846     		mov	r0, r3
 110 0042 FFF7FEFF 		bl	gdispImageIsOpen
 111 0046 0346     		mov	r3, r0
 112 0048 83F00103 		eor	r3, r3, #1
ARM GAS  /tmp/cchEzFXo.s 			page 3


 113 004c DBB2     		uxtb	r3, r3
 114 004e 002B     		cmp	r3, #0
 115 0050 11D0     		beq	.L4
 116              		.loc 1 50 0
 117 0052 059B     		ldr	r3, [sp, #20]
 118 0054 9868     		ldr	r0, [r3, #8]
 119 0056 BDF92610 		ldrsh	r1, [sp, #38]
 120 005a BDF92420 		ldrsh	r2, [sp, #36]
 121 005e BDF92240 		ldrsh	r4, [sp, #34]
 122 0062 BDF92030 		ldrsh	r3, [sp, #32]
 123 0066 0093     		str	r3, [sp]
 124 0068 BDF81A30 		ldrh	r3, [sp, #26]
 125 006c 0193     		str	r3, [sp, #4]
 126 006e 2346     		mov	r3, r4
 127 0070 FFF7FEFF 		bl	gdispGFillArea
 128              		.loc 1 51 0
 129 0074 F8E0     		b	.L3
 130              	.L4:
 131              		.loc 1 55 0
 132 0076 059B     		ldr	r3, [sp, #20]
 133 0078 DB8C     		ldrh	r3, [r3, #38]
 134 007a BDF92220 		ldrsh	r2, [sp, #34]
 135 007e 1BB2     		sxth	r3, r3
 136 0080 9A42     		cmp	r2, r3
 137 0082 52DD     		ble	.L6
 138              		.loc 1 56 0
 139 0084 059B     		ldr	r3, [sp, #20]
 140 0086 DB8C     		ldrh	r3, [r3, #38]	@ movhi
 141 0088 ADF82230 		strh	r3, [sp, #34]	@ movhi
 142              		.loc 1 57 0
 143 008c 059B     		ldr	r3, [sp, #20]
 144 008e 1B8A     		ldrh	r3, [r3, #16]
 145 0090 1AB2     		sxth	r2, r3
 146 0092 BDF92230 		ldrsh	r3, [sp, #34]
 147 0096 D31A     		subs	r3, r2, r3
 148 0098 DA0F     		lsrs	r2, r3, #31
 149 009a 1344     		add	r3, r3, r2
 150 009c 5B10     		asrs	r3, r3, #1
 151 009e ADF81E30 		strh	r3, [sp, #30]	@ movhi
 152              		.loc 1 58 0
 153 00a2 BDF82620 		ldrh	r2, [sp, #38]
 154 00a6 BDF81E30 		ldrh	r3, [sp, #30]
 155 00aa 1344     		add	r3, r3, r2
 156 00ac 9BB2     		uxth	r3, r3
 157 00ae ADF82630 		strh	r3, [sp, #38]	@ movhi
 158              		.loc 1 59 0
 159 00b2 BDF91E30 		ldrsh	r3, [sp, #30]
 160 00b6 002B     		cmp	r3, #0
 161 00b8 11D0     		beq	.L7
 162              		.loc 1 60 0
 163 00ba 059B     		ldr	r3, [sp, #20]
 164 00bc 9868     		ldr	r0, [r3, #8]
 165 00be 059B     		ldr	r3, [sp, #20]
 166 00c0 9B89     		ldrh	r3, [r3, #12]
 167 00c2 19B2     		sxth	r1, r3
 168 00c4 BDF92420 		ldrsh	r2, [sp, #36]
 169 00c8 BDF91E40 		ldrsh	r4, [sp, #30]
ARM GAS  /tmp/cchEzFXo.s 			page 4


 170 00cc BDF92030 		ldrsh	r3, [sp, #32]
 171 00d0 0093     		str	r3, [sp]
 172 00d2 BDF81A30 		ldrh	r3, [sp, #26]
 173 00d6 0193     		str	r3, [sp, #4]
 174 00d8 2346     		mov	r3, r4
 175 00da FFF7FEFF 		bl	gdispGFillArea
 176              	.L7:
 177              		.loc 1 61 0
 178 00de 059B     		ldr	r3, [sp, #20]
 179 00e0 9868     		ldr	r0, [r3, #8]
 180 00e2 BDF82620 		ldrh	r2, [sp, #38]
 181 00e6 BDF82230 		ldrh	r3, [sp, #34]
 182 00ea 1344     		add	r3, r3, r2
 183 00ec 9BB2     		uxth	r3, r3
 184 00ee 99B2     		uxth	r1, r3
 185 00f0 059B     		ldr	r3, [sp, #20]
 186 00f2 1B8A     		ldrh	r3, [r3, #16]
 187 00f4 9AB2     		uxth	r2, r3
 188 00f6 BDF81E30 		ldrh	r3, [sp, #30]
 189 00fa D31A     		subs	r3, r2, r3
 190 00fc 9AB2     		uxth	r2, r3
 191 00fe BDF82230 		ldrh	r3, [sp, #34]
 192 0102 D31A     		subs	r3, r2, r3
 193 0104 9BB2     		uxth	r3, r3
 194 0106 9BB2     		uxth	r3, r3
 195 0108 09B2     		sxth	r1, r1
 196 010a BDF92420 		ldrsh	r2, [sp, #36]
 197 010e 1CB2     		sxth	r4, r3
 198 0110 BDF92030 		ldrsh	r3, [sp, #32]
 199 0114 0093     		str	r3, [sp]
 200 0116 BDF81A30 		ldrh	r3, [sp, #26]
 201 011a 0193     		str	r3, [sp, #4]
 202 011c 2346     		mov	r3, r4
 203 011e FFF7FEFF 		bl	gdispGFillArea
 204              		.loc 1 62 0
 205 0122 0023     		movs	r3, #0
 206 0124 ADF81E30 		strh	r3, [sp, #30]	@ movhi
 207 0128 11E0     		b	.L8
 208              	.L6:
 209              		.loc 1 66 0
 210 012a 059B     		ldr	r3, [sp, #20]
 211 012c DB8C     		ldrh	r3, [r3, #38]
 212 012e BDF92220 		ldrsh	r2, [sp, #34]
 213 0132 1BB2     		sxth	r3, r3
 214 0134 9A42     		cmp	r2, r3
 215 0136 0ADA     		bge	.L8
 216              		.loc 1 67 0
 217 0138 059B     		ldr	r3, [sp, #20]
 218 013a DB8C     		ldrh	r3, [r3, #38]
 219 013c 1AB2     		sxth	r2, r3
 220 013e BDF92230 		ldrsh	r3, [sp, #34]
 221 0142 D31A     		subs	r3, r2, r3
 222 0144 DA0F     		lsrs	r2, r3, #31
 223 0146 1344     		add	r3, r3, r2
 224 0148 5B10     		asrs	r3, r3, #1
 225 014a ADF81E30 		strh	r3, [sp, #30]	@ movhi
 226              	.L8:
ARM GAS  /tmp/cchEzFXo.s 			page 5


 227              		.loc 1 71 0
 228 014e 059B     		ldr	r3, [sp, #20]
 229 0150 1B8D     		ldrh	r3, [r3, #40]
 230 0152 BDF92020 		ldrsh	r2, [sp, #32]
 231 0156 1BB2     		sxth	r3, r3
 232 0158 9A42     		cmp	r2, r3
 233 015a 52DD     		ble	.L9
 234              		.loc 1 72 0
 235 015c 059B     		ldr	r3, [sp, #20]
 236 015e 1B8D     		ldrh	r3, [r3, #40]	@ movhi
 237 0160 ADF82030 		strh	r3, [sp, #32]	@ movhi
 238              		.loc 1 73 0
 239 0164 059B     		ldr	r3, [sp, #20]
 240 0166 5B8A     		ldrh	r3, [r3, #18]
 241 0168 1AB2     		sxth	r2, r3
 242 016a BDF92030 		ldrsh	r3, [sp, #32]
 243 016e D31A     		subs	r3, r2, r3
 244 0170 DA0F     		lsrs	r2, r3, #31
 245 0172 1344     		add	r3, r3, r2
 246 0174 5B10     		asrs	r3, r3, #1
 247 0176 ADF81C30 		strh	r3, [sp, #28]	@ movhi
 248              		.loc 1 74 0
 249 017a BDF82420 		ldrh	r2, [sp, #36]
 250 017e BDF81C30 		ldrh	r3, [sp, #28]
 251 0182 1344     		add	r3, r3, r2
 252 0184 9BB2     		uxth	r3, r3
 253 0186 ADF82430 		strh	r3, [sp, #36]	@ movhi
 254              		.loc 1 75 0
 255 018a BDF91C30 		ldrsh	r3, [sp, #28]
 256 018e 002B     		cmp	r3, #0
 257 0190 11D0     		beq	.L10
 258              		.loc 1 76 0
 259 0192 059B     		ldr	r3, [sp, #20]
 260 0194 9868     		ldr	r0, [r3, #8]
 261 0196 059B     		ldr	r3, [sp, #20]
 262 0198 DB89     		ldrh	r3, [r3, #14]
 263 019a BDF92610 		ldrsh	r1, [sp, #38]
 264 019e 1AB2     		sxth	r2, r3
 265 01a0 BDF92240 		ldrsh	r4, [sp, #34]
 266 01a4 BDF91C30 		ldrsh	r3, [sp, #28]
 267 01a8 0093     		str	r3, [sp]
 268 01aa BDF81A30 		ldrh	r3, [sp, #26]
 269 01ae 0193     		str	r3, [sp, #4]
 270 01b0 2346     		mov	r3, r4
 271 01b2 FFF7FEFF 		bl	gdispGFillArea
 272              	.L10:
 273              		.loc 1 77 0
 274 01b6 059B     		ldr	r3, [sp, #20]
 275 01b8 9868     		ldr	r0, [r3, #8]
 276 01ba BDF82420 		ldrh	r2, [sp, #36]
 277 01be BDF82030 		ldrh	r3, [sp, #32]
 278 01c2 1344     		add	r3, r3, r2
 279 01c4 9BB2     		uxth	r3, r3
 280 01c6 9CB2     		uxth	r4, r3
 281 01c8 059B     		ldr	r3, [sp, #20]
 282 01ca 5B8A     		ldrh	r3, [r3, #18]
 283 01cc 9AB2     		uxth	r2, r3
ARM GAS  /tmp/cchEzFXo.s 			page 6


 284 01ce BDF81C30 		ldrh	r3, [sp, #28]
 285 01d2 D31A     		subs	r3, r2, r3
 286 01d4 9AB2     		uxth	r2, r3
 287 01d6 BDF82030 		ldrh	r3, [sp, #32]
 288 01da D31A     		subs	r3, r2, r3
 289 01dc 9BB2     		uxth	r3, r3
 290 01de 9BB2     		uxth	r3, r3
 291 01e0 BDF92610 		ldrsh	r1, [sp, #38]
 292 01e4 22B2     		sxth	r2, r4
 293 01e6 BDF92240 		ldrsh	r4, [sp, #34]
 294 01ea 1BB2     		sxth	r3, r3
 295 01ec 0093     		str	r3, [sp]
 296 01ee BDF81A30 		ldrh	r3, [sp, #26]
 297 01f2 0193     		str	r3, [sp, #4]
 298 01f4 2346     		mov	r3, r4
 299 01f6 FFF7FEFF 		bl	gdispGFillArea
 300              		.loc 1 78 0
 301 01fa 0023     		movs	r3, #0
 302 01fc ADF81C30 		strh	r3, [sp, #28]	@ movhi
 303 0200 11E0     		b	.L11
 304              	.L9:
 305              		.loc 1 82 0
 306 0202 059B     		ldr	r3, [sp, #20]
 307 0204 1B8D     		ldrh	r3, [r3, #40]
 308 0206 BDF92020 		ldrsh	r2, [sp, #32]
 309 020a 1BB2     		sxth	r3, r3
 310 020c 9A42     		cmp	r2, r3
 311 020e 0ADA     		bge	.L11
 312              		.loc 1 83 0
 313 0210 059B     		ldr	r3, [sp, #20]
 314 0212 1B8D     		ldrh	r3, [r3, #40]
 315 0214 1AB2     		sxth	r2, r3
 316 0216 BDF92030 		ldrsh	r3, [sp, #32]
 317 021a D31A     		subs	r3, r2, r3
 318 021c DA0F     		lsrs	r2, r3, #31
 319 021e 1344     		add	r3, r3, r2
 320 0220 5B10     		asrs	r3, r3, #1
 321 0222 ADF81C30 		strh	r3, [sp, #28]	@ movhi
 322              	.L11:
 323              		.loc 1 87 0
 324 0226 059B     		ldr	r3, [sp, #20]
 325 0228 03F12002 		add	r2, r3, #32
 326 022c BDF81A30 		ldrh	r3, [sp, #26]
 327 0230 1046     		mov	r0, r2
 328 0232 1946     		mov	r1, r3
 329 0234 FFF7FEFF 		bl	gdispImageSetBgColor
 330              		.loc 1 90 0
 331 0238 059B     		ldr	r3, [sp, #20]
 332 023a 9868     		ldr	r0, [r3, #8]
 333 023c 059B     		ldr	r3, [sp, #20]
 334 023e 03F12001 		add	r1, r3, #32
 335 0242 BDF92620 		ldrsh	r2, [sp, #38]
 336 0246 BDF92440 		ldrsh	r4, [sp, #36]
 337 024a BDF92230 		ldrsh	r3, [sp, #34]
 338 024e 0093     		str	r3, [sp]
 339 0250 BDF92030 		ldrsh	r3, [sp, #32]
 340 0254 0193     		str	r3, [sp, #4]
ARM GAS  /tmp/cchEzFXo.s 			page 7


 341 0256 BDF91E30 		ldrsh	r3, [sp, #30]
 342 025a 0293     		str	r3, [sp, #8]
 343 025c BDF91C30 		ldrsh	r3, [sp, #28]
 344 0260 0393     		str	r3, [sp, #12]
 345 0262 2346     		mov	r3, r4
 346 0264 FFF7FEFF 		bl	gdispGImageDraw
 347              	.L3:
 348              		.loc 1 111 0
 349 0268 0AB0     		add	sp, sp, #40
 350              		.cfi_def_cfa_offset 8
 351              		@ sp needed
 352 026a 10BD     		pop	{r4, pc}
 353              		.cfi_endproc
 354              	.LFE112:
 355              		.size	_redraw, .-_redraw
 356 026c AFF30080 		.section	.rodata
 357              		.align	2
 358              	.LC0:
 359 0000 496D6167 		.ascii	"Image\000"
 359      6500
 360 0006 0000     		.section	.rodata.imageVMT,"a",%progbits
 361              		.align	2
 362              		.type	imageVMT, %object
 363              		.size	imageVMT, 20
 364              	imageVMT:
 365 0000 00000000 		.word	.LC0
 366 0004 38000000 		.word	56
 367 0008 00000000 		.word	_destroy
 368 000c 00000000 		.word	_redraw
 369 0010 00000000 		.word	0
 370              		.section	.text.gwinGImageCreate,"ax",%progbits
 371              		.align	2
 372              		.p2align 4,,15
 373              		.global	gwinGImageCreate
 374              		.thumb
 375              		.thumb_func
 376              		.type	gwinGImageCreate, %function
 377              	gwinGImageCreate:
 378              	.LFB113:
 379              		.loc 1 121 0
 380              		.cfi_startproc
 381              		@ args = 0, pretend = 0, frame = 16
 382              		@ frame_needed = 0, uses_anonymous_args = 0
 383 0000 00B5     		push	{lr}
 384              		.cfi_def_cfa_offset 4
 385              		.cfi_offset 14, -4
 386 0002 87B0     		sub	sp, sp, #28
 387              		.cfi_def_cfa_offset 32
 388 0004 0590     		str	r0, [sp, #20]
 389 0006 0491     		str	r1, [sp, #16]
 390 0008 0392     		str	r2, [sp, #12]
 391              		.loc 1 122 0
 392 000a 049A     		ldr	r2, [sp, #16]
 393 000c 0023     		movs	r3, #0
 394 000e 0093     		str	r3, [sp]
 395 0010 0598     		ldr	r0, [sp, #20]
 396 0012 1146     		mov	r1, r2
ARM GAS  /tmp/cchEzFXo.s 			page 8


 397 0014 039A     		ldr	r2, [sp, #12]
 398 0016 0C4B     		ldr	r3, .L15
 399 0018 FFF7FEFF 		bl	_gwindowCreate
 400 001c 0490     		str	r0, [sp, #16]
 401 001e 049B     		ldr	r3, [sp, #16]
 402 0020 002B     		cmp	r3, #0
 403 0022 01D1     		bne	.L13
 404              		.loc 1 123 0
 405 0024 0023     		movs	r3, #0
 406 0026 0BE0     		b	.L14
 407              	.L13:
 408              		.loc 1 126 0
 409 0028 049B     		ldr	r3, [sp, #16]
 410 002a 2033     		adds	r3, r3, #32
 411 002c 1846     		mov	r0, r3
 412 002e FFF7FEFF 		bl	gdispImageInit
 413              		.loc 1 133 0
 414 0032 039B     		ldr	r3, [sp, #12]
 415 0034 1B7A     		ldrb	r3, [r3, #8]	@ zero_extendqisi2
 416 0036 0498     		ldr	r0, [sp, #16]
 417 0038 1946     		mov	r1, r3
 418 003a FFF7FEFF 		bl	gwinSetVisible
 419              		.loc 1 135 0
 420 003e 049B     		ldr	r3, [sp, #16]
 421              	.L14:
 422              		.loc 1 136 0
 423 0040 1846     		mov	r0, r3
 424 0042 07B0     		add	sp, sp, #28
 425              		.cfi_def_cfa_offset 4
 426              		@ sp needed
 427 0044 5DF804FB 		ldr	pc, [sp], #4
 428              	.L16:
 429              		.align	2
 430              	.L15:
 431 0048 00000000 		.word	imageVMT
 432              		.cfi_endproc
 433              	.LFE113:
 434              		.size	gwinGImageCreate, .-gwinGImageCreate
 435 004c AFF30080 		.section	.text.gwinImageOpenGFile,"ax",%progbits
 436              		.align	2
 437              		.p2align 4,,15
 438              		.global	gwinImageOpenGFile
 439              		.thumb
 440              		.thumb_func
 441              		.type	gwinImageOpenGFile, %function
 442              	gwinImageOpenGFile:
 443              	.LFB114:
 444              		.loc 1 138 0
 445              		.cfi_startproc
 446              		@ args = 0, pretend = 0, frame = 8
 447              		@ frame_needed = 0, uses_anonymous_args = 0
 448 0000 00B5     		push	{lr}
 449              		.cfi_def_cfa_offset 4
 450              		.cfi_offset 14, -4
 451 0002 83B0     		sub	sp, sp, #12
 452              		.cfi_def_cfa_offset 16
 453 0004 0190     		str	r0, [sp, #4]
ARM GAS  /tmp/cchEzFXo.s 			page 9


 454 0006 0091     		str	r1, [sp]
 455              		.loc 1 140 0
 456 0008 019B     		ldr	r3, [sp, #4]
 457 000a 5B68     		ldr	r3, [r3, #4]
 458 000c 134A     		ldr	r2, .L22
 459 000e 9342     		cmp	r3, r2
 460 0010 01D0     		beq	.L18
 461              		.loc 1 141 0
 462 0012 0023     		movs	r3, #0
 463 0014 1DE0     		b	.L19
 464              	.L18:
 465              		.loc 1 143 0
 466 0016 019B     		ldr	r3, [sp, #4]
 467 0018 2033     		adds	r3, r3, #32
 468 001a 1846     		mov	r0, r3
 469 001c FFF7FEFF 		bl	gdispImageIsOpen
 470 0020 0346     		mov	r3, r0
 471 0022 002B     		cmp	r3, #0
 472 0024 04D0     		beq	.L20
 473              		.loc 1 144 0
 474 0026 019B     		ldr	r3, [sp, #4]
 475 0028 2033     		adds	r3, r3, #32
 476 002a 1846     		mov	r0, r3
 477 002c FFF7FEFF 		bl	gdispImageClose
 478              	.L20:
 479              		.loc 1 146 0
 480 0030 019B     		ldr	r3, [sp, #4]
 481 0032 2033     		adds	r3, r3, #32
 482 0034 1846     		mov	r0, r3
 483 0036 0099     		ldr	r1, [sp]
 484 0038 FFF7FEFF 		bl	gdispImageOpenGFile
 485 003c 0346     		mov	r3, r0
 486 003e 9BB2     		uxth	r3, r3
 487 0040 1BB2     		sxth	r3, r3
 488 0042 002B     		cmp	r3, #0
 489 0044 01DA     		bge	.L21
 490              		.loc 1 147 0
 491 0046 0023     		movs	r3, #0
 492 0048 03E0     		b	.L19
 493              	.L21:
 494              		.loc 1 149 0
 495 004a 0198     		ldr	r0, [sp, #4]
 496 004c FFF7FEFF 		bl	_gwinUpdate
 497              		.loc 1 151 0
 498 0050 0123     		movs	r3, #1
 499              	.L19:
 500              		.loc 1 152 0
 501 0052 1846     		mov	r0, r3
 502 0054 03B0     		add	sp, sp, #12
 503              		.cfi_def_cfa_offset 4
 504              		@ sp needed
 505 0056 5DF804FB 		ldr	pc, [sp], #4
 506              	.L23:
 507 005a 00BF     		.align	2
 508              	.L22:
 509 005c 00000000 		.word	imageVMT
 510              		.cfi_endproc
ARM GAS  /tmp/cchEzFXo.s 			page 10


 511              	.LFE114:
 512              		.size	gwinImageOpenGFile, .-gwinImageOpenGFile
 513              		.section	.text.gwinImageCache,"ax",%progbits
 514              		.align	2
 515              		.p2align 4,,15
 516              		.global	gwinImageCache
 517              		.thumb
 518              		.thumb_func
 519              		.type	gwinImageCache, %function
 520              	gwinImageCache:
 521              	.LFB115:
 522              		.loc 1 154 0
 523              		.cfi_startproc
 524              		@ args = 0, pretend = 0, frame = 8
 525              		@ frame_needed = 0, uses_anonymous_args = 0
 526 0000 00B5     		push	{lr}
 527              		.cfi_def_cfa_offset 4
 528              		.cfi_offset 14, -4
 529 0002 83B0     		sub	sp, sp, #12
 530              		.cfi_def_cfa_offset 16
 531 0004 0190     		str	r0, [sp, #4]
 532              		.loc 1 156 0
 533 0006 019B     		ldr	r3, [sp, #4]
 534 0008 5B68     		ldr	r3, [r3, #4]
 535 000a 084A     		ldr	r2, .L27
 536 000c 9342     		cmp	r3, r2
 537 000e 02D0     		beq	.L25
 538              		.loc 1 157 0
 539 0010 48F20103 		movw	r3, #32769
 540 0014 05E0     		b	.L26
 541              	.L25:
 542              		.loc 1 159 0
 543 0016 019B     		ldr	r3, [sp, #4]
 544 0018 2033     		adds	r3, r3, #32
 545 001a 1846     		mov	r0, r3
 546 001c FFF7FEFF 		bl	gdispImageCache
 547 0020 0346     		mov	r3, r0
 548              	.L26:
 549              		.loc 1 160 0
 550 0022 1846     		mov	r0, r3
 551 0024 03B0     		add	sp, sp, #12
 552              		.cfi_def_cfa_offset 4
 553              		@ sp needed
 554 0026 5DF804FB 		ldr	pc, [sp], #4
 555              	.L28:
 556 002a 00BF     		.align	2
 557              	.L27:
 558 002c 00000000 		.word	imageVMT
 559              		.cfi_endproc
 560              	.LFE115:
 561              		.size	gwinImageCache, .-gwinImageCache
 562              		.text
 563              	.Letext0:
 564              		.file 2 "/opt/gcc-arm-none-eabi/lib/gcc/arm-none-eabi/4.9.3/include/stddef.h"
 565              		.file 3 "/opt/gcc-arm-none-eabi/arm-none-eabi/include/machine/_default_types.h"
 566              		.file 4 "/opt/gcc-arm-none-eabi/arm-none-eabi/include/stdint.h"
 567              		.file 5 "/home/makkmarci/workspace/ChibiOS_2.6.8/os/ports/GCC/ARMCMx/chtypes.h"
ARM GAS  /tmp/cchEzFXo.s 			page 11


 568              		.file 6 "/home/makkmarci/workspace/ugfx/src/gfile/gfile.h"
 569              		.file 7 "/home/makkmarci/workspace/ugfx/src/gqueue/gqueue.h"
 570              		.file 8 "/home/makkmarci/workspace/ugfx/src/gdisp/gdisp.h"
 571              		.file 9 "/home/makkmarci/workspace/ugfx/src/gdisp/gdisp_colors.h"
 572              		.file 10 "/home/makkmarci/workspace/ugfx/src/gdisp/gdisp_image.h"
 573              		.file 11 "/home/makkmarci/workspace/ugfx/src/gwin/gwin.h"
 574              		.file 12 "/home/makkmarci/workspace/ugfx/src/gwin/gwin_class.h"
 575              		.file 13 "/home/makkmarci/workspace/ugfx/src/gwin/gwin_image.h"
 576              		.file 14 "/home/makkmarci/workspace/ChibiOS_2.6.8/os/ports/common/ARMCMx/CMSIS/include/core_cm4.h"