ARM GAS  /tmp/cc57xKLi.s 			page 1


   1              		.syntax unified
   2              		.cpu cortex-m4
   3              		.eabi_attribute 27, 1
   4              		.eabi_attribute 28, 1
   5              		.fpu fpv4-sp-d16
   6              		.eabi_attribute 20, 1
   7              		.eabi_attribute 21, 1
   8              		.eabi_attribute 23, 3
   9              		.eabi_attribute 24, 1
  10              		.eabi_attribute 25, 1
  11              		.eabi_attribute 26, 1
  12              		.eabi_attribute 30, 6
  13              		.eabi_attribute 34, 1
  14              		.eabi_attribute 18, 4
  15              		.thumb
  16              		.file	"gwin_slider.c"
  17              		.text
  18              	.Ltext0:
  19              		.cfi_sections	.debug_frame
  20              		.section	.text.CalculatePosFromDPos,"ax",%progbits
  21              		.align	2
  22              		.p2align 4,,15
  23              		.thumb
  24              		.thumb_func
  25              		.type	CalculatePosFromDPos, %function
  26              	CalculatePosFromDPos:
  27              	.LFB111:
  28              		.file 1 "/home/makkmarci/workspace/ugfx/src/gwin/gwin_slider.c"
  29              		.loc 1 22 0
  30              		.cfi_startproc
  31              		@ args = 0, pretend = 0, frame = 16
  32              		@ frame_needed = 0, uses_anonymous_args = 0
  33              		@ link register save eliminated.
  34 0000 84B0     		sub	sp, sp, #16
  35              		.cfi_def_cfa_offset 16
  36 0002 0190     		str	r0, [sp, #4]
  37              		.loc 1 26 0
  38 0004 019B     		ldr	r3, [sp, #4]
  39 0006 1A8A     		ldrh	r2, [r3, #16]
  40 0008 019B     		ldr	r3, [sp, #4]
  41 000a 5B8A     		ldrh	r3, [r3, #18]
  42 000c 12B2     		sxth	r2, r2
  43 000e 1BB2     		sxth	r3, r3
  44 0010 9A42     		cmp	r2, r3
  45 0012 41DA     		bge	.L2
  46              		.loc 1 27 0
  47 0014 019B     		ldr	r3, [sp, #4]
  48 0016 1B8E     		ldrh	r3, [r3, #48]
  49 0018 1AB2     		sxth	r2, r3
  50 001a 019B     		ldr	r3, [sp, #4]
  51 001c 5B8A     		ldrh	r3, [r3, #18]
  52 001e 1BB2     		sxth	r3, r3
  53 0020 053B     		subs	r3, r3, #5
  54 0022 9A42     		cmp	r2, r3
  55 0024 02DB     		blt	.L3
  56              		.loc 1 28 0
  57 0026 019B     		ldr	r3, [sp, #4]
ARM GAS  /tmp/cc57xKLi.s 			page 2


  58 0028 5B6B     		ldr	r3, [r3, #52]
  59 002a 72E0     		b	.L4
  60              	.L3:
  61              		.loc 1 29 0
  62 002c 019B     		ldr	r3, [sp, #4]
  63 002e 1B8E     		ldrh	r3, [r3, #48]
  64 0030 1BB2     		sxth	r3, r3
  65 0032 042B     		cmp	r3, #4
  66 0034 02DC     		bgt	.L5
  67              		.loc 1 30 0
  68 0036 019B     		ldr	r3, [sp, #4]
  69 0038 9B6B     		ldr	r3, [r3, #56]
  70 003a 6AE0     		b	.L4
  71              	.L5:
  72              		.loc 1 31 0
  73 003c 019B     		ldr	r3, [sp, #4]
  74 003e 5B8A     		ldrh	r3, [r3, #18]
  75 0040 1BB2     		sxth	r3, r3
  76 0042 DA0F     		lsrs	r2, r3, #31
  77 0044 1344     		add	r3, r3, r2
  78 0046 5B10     		asrs	r3, r3, #1
  79 0048 9BB2     		uxth	r3, r3
  80 004a 1BB2     		sxth	r3, r3
  81 004c 053B     		subs	r3, r3, #5
  82 004e 0393     		str	r3, [sp, #12]
  83              		.loc 1 32 0
  84 0050 019B     		ldr	r3, [sp, #4]
  85 0052 5A6B     		ldr	r2, [r3, #52]
  86 0054 019B     		ldr	r3, [sp, #4]
  87 0056 9B6B     		ldr	r3, [r3, #56]
  88 0058 9A42     		cmp	r2, r3
  89 005a 02DD     		ble	.L6
  90              		.loc 1 33 0
  91 005c 039B     		ldr	r3, [sp, #12]
  92 005e 5B42     		negs	r3, r3
  93 0060 0393     		str	r3, [sp, #12]
  94              	.L6:
  95              		.loc 1 34 0
  96 0062 019B     		ldr	r3, [sp, #4]
  97 0064 5B8A     		ldrh	r3, [r3, #18]
  98 0066 1BB2     		sxth	r3, r3
  99 0068 9A1F     		subs	r2, r3, #6
 100 006a 019B     		ldr	r3, [sp, #4]
 101 006c 1B8E     		ldrh	r3, [r3, #48]
 102 006e 1BB2     		sxth	r3, r3
 103 0070 D31A     		subs	r3, r2, r3
 104 0072 019A     		ldr	r2, [sp, #4]
 105 0074 916B     		ldr	r1, [r2, #56]
 106 0076 019A     		ldr	r2, [sp, #4]
 107 0078 526B     		ldr	r2, [r2, #52]
 108 007a 8A1A     		subs	r2, r1, r2
 109 007c 02FB03F2 		mul	r2, r2, r3
 110 0080 039B     		ldr	r3, [sp, #12]
 111 0082 1A44     		add	r2, r2, r3
 112 0084 019B     		ldr	r3, [sp, #4]
 113 0086 5B8A     		ldrh	r3, [r3, #18]
 114 0088 1BB2     		sxth	r3, r3
ARM GAS  /tmp/cc57xKLi.s 			page 3


 115 008a 0B3B     		subs	r3, r3, #11
 116 008c 92FBF3F2 		sdiv	r2, r2, r3
 117 0090 019B     		ldr	r3, [sp, #4]
 118 0092 5B6B     		ldr	r3, [r3, #52]
 119 0094 1344     		add	r3, r3, r2
 120 0096 3CE0     		b	.L4
 121              	.L2:
 122              		.loc 1 36 0
 123 0098 019B     		ldr	r3, [sp, #4]
 124 009a 1B8E     		ldrh	r3, [r3, #48]
 125 009c 1AB2     		sxth	r2, r3
 126 009e 019B     		ldr	r3, [sp, #4]
 127 00a0 1B8A     		ldrh	r3, [r3, #16]
 128 00a2 1BB2     		sxth	r3, r3
 129 00a4 053B     		subs	r3, r3, #5
 130 00a6 9A42     		cmp	r2, r3
 131 00a8 02DB     		blt	.L7
 132              		.loc 1 37 0
 133 00aa 019B     		ldr	r3, [sp, #4]
 134 00ac 9B6B     		ldr	r3, [r3, #56]
 135 00ae 30E0     		b	.L4
 136              	.L7:
 137              		.loc 1 38 0
 138 00b0 019B     		ldr	r3, [sp, #4]
 139 00b2 1B8E     		ldrh	r3, [r3, #48]
 140 00b4 1BB2     		sxth	r3, r3
 141 00b6 042B     		cmp	r3, #4
 142 00b8 02DC     		bgt	.L8
 143              		.loc 1 39 0
 144 00ba 019B     		ldr	r3, [sp, #4]
 145 00bc 5B6B     		ldr	r3, [r3, #52]
 146 00be 28E0     		b	.L4
 147              	.L8:
 148              		.loc 1 40 0
 149 00c0 019B     		ldr	r3, [sp, #4]
 150 00c2 1B8A     		ldrh	r3, [r3, #16]
 151 00c4 1BB2     		sxth	r3, r3
 152 00c6 DA0F     		lsrs	r2, r3, #31
 153 00c8 1344     		add	r3, r3, r2
 154 00ca 5B10     		asrs	r3, r3, #1
 155 00cc 9BB2     		uxth	r3, r3
 156 00ce 1BB2     		sxth	r3, r3
 157 00d0 053B     		subs	r3, r3, #5
 158 00d2 0393     		str	r3, [sp, #12]
 159              		.loc 1 41 0
 160 00d4 019B     		ldr	r3, [sp, #4]
 161 00d6 5A6B     		ldr	r2, [r3, #52]
 162 00d8 019B     		ldr	r3, [sp, #4]
 163 00da 9B6B     		ldr	r3, [r3, #56]
 164 00dc 9A42     		cmp	r2, r3
 165 00de 02DD     		ble	.L9
 166              		.loc 1 42 0
 167 00e0 039B     		ldr	r3, [sp, #12]
 168 00e2 5B42     		negs	r3, r3
 169 00e4 0393     		str	r3, [sp, #12]
 170              	.L9:
 171              		.loc 1 43 0
ARM GAS  /tmp/cc57xKLi.s 			page 4


 172 00e6 019B     		ldr	r3, [sp, #4]
 173 00e8 1B8E     		ldrh	r3, [r3, #48]
 174 00ea 1BB2     		sxth	r3, r3
 175 00ec 053B     		subs	r3, r3, #5
 176 00ee 019A     		ldr	r2, [sp, #4]
 177 00f0 916B     		ldr	r1, [r2, #56]
 178 00f2 019A     		ldr	r2, [sp, #4]
 179 00f4 526B     		ldr	r2, [r2, #52]
 180 00f6 8A1A     		subs	r2, r1, r2
 181 00f8 02FB03F2 		mul	r2, r2, r3
 182 00fc 039B     		ldr	r3, [sp, #12]
 183 00fe 1A44     		add	r2, r2, r3
 184 0100 019B     		ldr	r3, [sp, #4]
 185 0102 1B8A     		ldrh	r3, [r3, #16]
 186 0104 1BB2     		sxth	r3, r3
 187 0106 0B3B     		subs	r3, r3, #11
 188 0108 92FBF3F2 		sdiv	r2, r2, r3
 189 010c 019B     		ldr	r3, [sp, #4]
 190 010e 5B6B     		ldr	r3, [r3, #52]
 191 0110 1344     		add	r3, r3, r2
 192              	.L4:
 193              		.loc 1 44 0
 194 0112 1846     		mov	r0, r3
 195 0114 04B0     		add	sp, sp, #16
 196              		.cfi_def_cfa_offset 0
 197              		@ sp needed
 198 0116 7047     		bx	lr
 199              		.cfi_endproc
 200              	.LFE111:
 201              		.size	CalculatePosFromDPos, .-CalculatePosFromDPos
 202 0118 AFF30080 		.section	.text.SendSliderEvent,"ax",%progbits
 202      AFF30080 
 203              		.align	2
 204              		.p2align 4,,15
 205              		.thumb
 206              		.thumb_func
 207              		.type	SendSliderEvent, %function
 208              	SendSliderEvent:
 209              	.LFB112:
 210              		.loc 1 47 0
 211              		.cfi_startproc
 212              		@ args = 0, pretend = 0, frame = 16
 213              		@ frame_needed = 0, uses_anonymous_args = 0
 214 0000 00B5     		push	{lr}
 215              		.cfi_def_cfa_offset 4
 216              		.cfi_offset 14, -4
 217 0002 85B0     		sub	sp, sp, #20
 218              		.cfi_def_cfa_offset 24
 219 0004 0190     		str	r0, [sp, #4]
 220 0006 0B46     		mov	r3, r1
 221 0008 8DF80330 		strb	r3, [sp, #3]
 222              		.loc 1 53 0
 223 000c 9DF80330 		ldrb	r3, [sp, #3]	@ zero_extendqisi2
 224 0010 042B     		cmp	r3, #4
 225 0012 06D0     		beq	.L11
 226              		.loc 1 53 0 is_stmt 0 discriminator 1
 227 0014 019B     		ldr	r3, [sp, #4]
ARM GAS  /tmp/cc57xKLi.s 			page 5


 228 0016 9B69     		ldr	r3, [r3, #24]
 229 0018 03F00103 		and	r3, r3, #1
 230 001c 002B     		cmp	r3, #0
 231 001e 00D1     		bne	.L11
 232              		.loc 1 54 0 is_stmt 1
 233 0020 3BE0     		b	.L10
 234              	.L11:
 235              		.loc 1 56 0
 236 0022 0023     		movs	r3, #0
 237 0024 0393     		str	r3, [sp, #12]
 238              		.loc 1 57 0
 239 0026 30E0     		b	.L13
 240              	.L18:
 241              		.loc 1 61 0
 242 0028 039B     		ldr	r3, [sp, #12]
 243 002a DA68     		ldr	r2, [r3, #12]
 244 002c 9DF80330 		ldrb	r3, [sp, #3]	@ zero_extendqisi2
 245 0030 9A42     		cmp	r2, r3
 246 0032 03D2     		bcs	.L14
 247              		.loc 1 62 0
 248 0034 9DF80320 		ldrb	r2, [sp, #3]	@ zero_extendqisi2
 249 0038 039B     		ldr	r3, [sp, #12]
 250 003a DA60     		str	r2, [r3, #12]
 251              	.L14:
 252              		.loc 1 65 0
 253 003c 0398     		ldr	r0, [sp, #12]
 254 003e FFF7FEFF 		bl	geventGetEventBuffer
 255 0042 0290     		str	r0, [sp, #8]
 256 0044 029B     		ldr	r3, [sp, #8]
 257 0046 002B     		cmp	r3, #0
 258 0048 00D1     		bne	.L15
 259              		.loc 1 66 0
 260 004a 1EE0     		b	.L13
 261              	.L15:
 262              		.loc 1 69 0
 263 004c 029B     		ldr	r3, [sp, #8]
 264 004e 40F24122 		movw	r2, #577
 265 0052 1A80     		strh	r2, [r3]	@ movhi
 266              		.loc 1 70 0
 267 0054 029B     		ldr	r3, [sp, #8]
 268 0056 019A     		ldr	r2, [sp, #4]
 269 0058 5A60     		str	r2, [r3, #4]
 270              		.loc 1 71 0
 271 005a 039B     		ldr	r3, [sp, #12]
 272 005c DB68     		ldr	r3, [r3, #12]
 273 005e DAB2     		uxtb	r2, r3
 274 0060 029B     		ldr	r3, [sp, #8]
 275 0062 1A73     		strb	r2, [r3, #12]
 276              		.loc 1 77 0
 277 0064 029B     		ldr	r3, [sp, #8]
 278 0066 1B7B     		ldrb	r3, [r3, #12]	@ zero_extendqisi2
 279 0068 022B     		cmp	r3, #2
 280 006a 02D9     		bls	.L16
 281              		.loc 1 77 0 is_stmt 0 discriminator 1
 282 006c 019B     		ldr	r3, [sp, #4]
 283 006e DB6B     		ldr	r3, [r3, #60]
 284 0070 03E0     		b	.L17
ARM GAS  /tmp/cc57xKLi.s 			page 6


 285              	.L16:
 286              		.loc 1 77 0 discriminator 2
 287 0072 0198     		ldr	r0, [sp, #4]
 288 0074 FFF7FEFF 		bl	CalculatePosFromDPos
 289 0078 0346     		mov	r3, r0
 290              	.L17:
 291              		.loc 1 77 0 discriminator 4
 292 007a 029A     		ldr	r2, [sp, #8]
 293 007c 9360     		str	r3, [r2, #8]
 294              		.loc 1 80 0 is_stmt 1 discriminator 4
 295 007e 039B     		ldr	r3, [sp, #12]
 296 0080 0022     		movs	r2, #0
 297 0082 DA60     		str	r2, [r3, #12]
 298              		.loc 1 81 0 discriminator 4
 299 0084 0398     		ldr	r0, [sp, #12]
 300 0086 FFF7FEFF 		bl	geventSendEvent
 301              	.L13:
 302              		.loc 1 57 0
 303 008a 0548     		ldr	r0, .L19
 304 008c 0399     		ldr	r1, [sp, #12]
 305 008e FFF7FEFF 		bl	geventGetSourceListener
 306 0092 0390     		str	r0, [sp, #12]
 307 0094 039B     		ldr	r3, [sp, #12]
 308 0096 002B     		cmp	r3, #0
 309 0098 C6D1     		bne	.L18
 310              	.L10:
 311              		.loc 1 85 0
 312 009a 05B0     		add	sp, sp, #20
 313              		.cfi_def_cfa_offset 4
 314              		@ sp needed
 315 009c 5DF804FB 		ldr	pc, [sp], #4
 316              	.L20:
 317              		.align	2
 318              	.L19:
 319 00a0 00000000 		.word	_gwidgetCreate
 320              		.cfi_endproc
 321              	.LFE112:
 322              		.size	SendSliderEvent, .-SendSliderEvent
 323 00a4 AFF30080 		.section	.text.ResetDisplayPos,"ax",%progbits
 323      AFF30080 
 323      AFF30080 
 324              		.align	2
 325              		.p2align 4,,15
 326              		.thumb
 327              		.thumb_func
 328              		.type	ResetDisplayPos, %function
 329              	ResetDisplayPos:
 330              	.LFB113:
 331              		.loc 1 88 0
 332              		.cfi_startproc
 333              		@ args = 0, pretend = 0, frame = 8
 334              		@ frame_needed = 0, uses_anonymous_args = 0
 335              		@ link register save eliminated.
 336 0000 82B0     		sub	sp, sp, #8
 337              		.cfi_def_cfa_offset 8
 338 0002 0190     		str	r0, [sp, #4]
 339              		.loc 1 89 0
ARM GAS  /tmp/cc57xKLi.s 			page 7


 340 0004 019B     		ldr	r3, [sp, #4]
 341 0006 1A8A     		ldrh	r2, [r3, #16]
 342 0008 019B     		ldr	r3, [sp, #4]
 343 000a 5B8A     		ldrh	r3, [r3, #18]
 344 000c 12B2     		sxth	r2, r2
 345 000e 1BB2     		sxth	r3, r3
 346 0010 9A42     		cmp	r2, r3
 347 0012 1DDA     		bge	.L22
 348              		.loc 1 90 0
 349 0014 019B     		ldr	r3, [sp, #4]
 350 0016 5B8A     		ldrh	r3, [r3, #18]
 351 0018 9AB2     		uxth	r2, r3
 352 001a 019B     		ldr	r3, [sp, #4]
 353 001c 5B8A     		ldrh	r3, [r3, #18]
 354 001e 1BB2     		sxth	r3, r3
 355 0020 013B     		subs	r3, r3, #1
 356 0022 0199     		ldr	r1, [sp, #4]
 357 0024 C86B     		ldr	r0, [r1, #60]
 358 0026 0199     		ldr	r1, [sp, #4]
 359 0028 496B     		ldr	r1, [r1, #52]
 360 002a 411A     		subs	r1, r0, r1
 361 002c 01FB03F1 		mul	r1, r1, r3
 362 0030 019B     		ldr	r3, [sp, #4]
 363 0032 986B     		ldr	r0, [r3, #56]
 364 0034 019B     		ldr	r3, [sp, #4]
 365 0036 5B6B     		ldr	r3, [r3, #52]
 366 0038 C31A     		subs	r3, r0, r3
 367 003a 91FBF3F3 		sdiv	r3, r1, r3
 368 003e 9BB2     		uxth	r3, r3
 369 0040 D31A     		subs	r3, r2, r3
 370 0042 9BB2     		uxth	r3, r3
 371 0044 013B     		subs	r3, r3, #1
 372 0046 9BB2     		uxth	r3, r3
 373 0048 9AB2     		uxth	r2, r3
 374 004a 019B     		ldr	r3, [sp, #4]
 375 004c 1A86     		strh	r2, [r3, #48]	@ movhi
 376 004e 14E0     		b	.L21
 377              	.L22:
 378              		.loc 1 92 0
 379 0050 019B     		ldr	r3, [sp, #4]
 380 0052 1B8A     		ldrh	r3, [r3, #16]
 381 0054 1BB2     		sxth	r3, r3
 382 0056 013B     		subs	r3, r3, #1
 383 0058 019A     		ldr	r2, [sp, #4]
 384 005a D16B     		ldr	r1, [r2, #60]
 385 005c 019A     		ldr	r2, [sp, #4]
 386 005e 526B     		ldr	r2, [r2, #52]
 387 0060 8A1A     		subs	r2, r1, r2
 388 0062 02FB03F2 		mul	r2, r2, r3
 389 0066 019B     		ldr	r3, [sp, #4]
 390 0068 996B     		ldr	r1, [r3, #56]
 391 006a 019B     		ldr	r3, [sp, #4]
 392 006c 5B6B     		ldr	r3, [r3, #52]
 393 006e CB1A     		subs	r3, r1, r3
 394 0070 92FBF3F3 		sdiv	r3, r2, r3
 395 0074 9AB2     		uxth	r2, r3
 396 0076 019B     		ldr	r3, [sp, #4]
ARM GAS  /tmp/cc57xKLi.s 			page 8


 397 0078 1A86     		strh	r2, [r3, #48]	@ movhi
 398              	.L21:
 399              		.loc 1 93 0
 400 007a 02B0     		add	sp, sp, #8
 401              		.cfi_def_cfa_offset 0
 402              		@ sp needed
 403 007c 7047     		bx	lr
 404              		.cfi_endproc
 405              	.LFE113:
 406              		.size	ResetDisplayPos, .-ResetDisplayPos
 407 007e 00BF     		.section	.text.SetDisplayPosFromMouse,"ax",%progbits
 408              		.align	2
 409              		.p2align 4,,15
 410              		.thumb
 411              		.thumb_func
 412              		.type	SetDisplayPosFromMouse, %function
 413              	SetDisplayPosFromMouse:
 414              	.LFB114:
 415              		.loc 1 97 0
 416              		.cfi_startproc
 417              		@ args = 0, pretend = 0, frame = 8
 418              		@ frame_needed = 0, uses_anonymous_args = 0
 419              		@ link register save eliminated.
 420 0000 82B0     		sub	sp, sp, #8
 421              		.cfi_def_cfa_offset 8
 422 0002 0190     		str	r0, [sp, #4]
 423 0004 0B46     		mov	r3, r1
 424 0006 ADF80230 		strh	r3, [sp, #2]	@ movhi
 425 000a 1346     		mov	r3, r2	@ movhi
 426 000c ADF80030 		strh	r3, [sp]	@ movhi
 427              		.loc 1 98 0
 428 0010 019B     		ldr	r3, [sp, #4]
 429 0012 1A8A     		ldrh	r2, [r3, #16]
 430 0014 019B     		ldr	r3, [sp, #4]
 431 0016 5B8A     		ldrh	r3, [r3, #18]
 432 0018 12B2     		sxth	r2, r2
 433 001a 1BB2     		sxth	r3, r3
 434 001c 9A42     		cmp	r2, r3
 435 001e 19DA     		bge	.L25
 436              		.loc 1 99 0
 437 0020 BDF90030 		ldrsh	r3, [sp]
 438 0024 002B     		cmp	r3, #0
 439 0026 11DB     		blt	.L26
 440              		.loc 1 99 0 is_stmt 0 discriminator 1
 441 0028 019B     		ldr	r3, [sp, #4]
 442 002a 5B8A     		ldrh	r3, [r3, #18]
 443 002c BDF90020 		ldrsh	r2, [sp]
 444 0030 1BB2     		sxth	r3, r3
 445 0032 9A42     		cmp	r2, r3
 446 0034 06DB     		blt	.L27
 447              		.loc 1 99 0 discriminator 3
 448 0036 019B     		ldr	r3, [sp, #4]
 449 0038 5B8A     		ldrh	r3, [r3, #18]
 450 003a 9BB2     		uxth	r3, r3
 451 003c 013B     		subs	r3, r3, #1
 452 003e 9BB2     		uxth	r3, r3
 453 0040 9BB2     		uxth	r3, r3
ARM GAS  /tmp/cc57xKLi.s 			page 9


 454 0042 01E0     		b	.L28
 455              	.L27:
 456              		.loc 1 99 0 discriminator 4
 457 0044 BDF80030 		ldrh	r3, [sp]
 458              	.L28:
 459              		.loc 1 99 0 discriminator 6
 460 0048 9BB2     		uxth	r3, r3
 461 004a 00E0     		b	.L29
 462              	.L26:
 463              		.loc 1 99 0 discriminator 2
 464 004c 0023     		movs	r3, #0
 465              	.L29:
 466              		.loc 1 99 0 discriminator 8
 467 004e 019A     		ldr	r2, [sp, #4]
 468 0050 1386     		strh	r3, [r2, #48]	@ movhi
 469 0052 18E0     		b	.L24
 470              	.L25:
 471              		.loc 1 101 0 is_stmt 1
 472 0054 BDF90230 		ldrsh	r3, [sp, #2]
 473 0058 002B     		cmp	r3, #0
 474 005a 11DB     		blt	.L31
 475              		.loc 1 101 0 is_stmt 0 discriminator 1
 476 005c 019B     		ldr	r3, [sp, #4]
 477 005e 1B8A     		ldrh	r3, [r3, #16]
 478 0060 BDF90220 		ldrsh	r2, [sp, #2]
 479 0064 1BB2     		sxth	r3, r3
 480 0066 9A42     		cmp	r2, r3
 481 0068 06DB     		blt	.L32
 482              		.loc 1 101 0 discriminator 3
 483 006a 019B     		ldr	r3, [sp, #4]
 484 006c 1B8A     		ldrh	r3, [r3, #16]
 485 006e 9BB2     		uxth	r3, r3
 486 0070 013B     		subs	r3, r3, #1
 487 0072 9BB2     		uxth	r3, r3
 488 0074 9BB2     		uxth	r3, r3
 489 0076 01E0     		b	.L33
 490              	.L32:
 491              		.loc 1 101 0 discriminator 4
 492 0078 BDF80230 		ldrh	r3, [sp, #2]
 493              	.L33:
 494              		.loc 1 101 0 discriminator 6
 495 007c 9BB2     		uxth	r3, r3
 496 007e 00E0     		b	.L34
 497              	.L31:
 498              		.loc 1 101 0 discriminator 2
 499 0080 0023     		movs	r3, #0
 500              	.L34:
 501              		.loc 1 101 0 discriminator 8
 502 0082 019A     		ldr	r2, [sp, #4]
 503 0084 1386     		strh	r3, [r2, #48]	@ movhi
 504              	.L24:
 505              		.loc 1 102 0 is_stmt 1
 506 0086 02B0     		add	sp, sp, #8
 507              		.cfi_def_cfa_offset 0
 508              		@ sp needed
 509 0088 7047     		bx	lr
 510              		.cfi_endproc
ARM GAS  /tmp/cc57xKLi.s 			page 10


 511              	.LFE114:
 512              		.size	SetDisplayPosFromMouse, .-SetDisplayPosFromMouse
 513 008a 00BFAFF3 		.section	.text.MouseUp,"ax",%progbits
 513      0080
 514              		.align	2
 515              		.p2align 4,,15
 516              		.thumb
 517              		.thumb_func
 518              		.type	MouseUp, %function
 519              	MouseUp:
 520              	.LFB115:
 521              		.loc 1 105 0
 522              		.cfi_startproc
 523              		@ args = 0, pretend = 0, frame = 8
 524              		@ frame_needed = 0, uses_anonymous_args = 0
 525 0000 00B5     		push	{lr}
 526              		.cfi_def_cfa_offset 4
 527              		.cfi_offset 14, -4
 528 0002 83B0     		sub	sp, sp, #12
 529              		.cfi_def_cfa_offset 16
 530 0004 0190     		str	r0, [sp, #4]
 531 0006 0B46     		mov	r3, r1
 532 0008 ADF80230 		strh	r3, [sp, #2]	@ movhi
 533 000c 1346     		mov	r3, r2	@ movhi
 534 000e ADF80030 		strh	r3, [sp]	@ movhi
 535              		.loc 1 120 0
 536 0012 BDF90220 		ldrsh	r2, [sp, #2]
 537 0016 BDF90030 		ldrsh	r3, [sp]
 538 001a 0198     		ldr	r0, [sp, #4]
 539 001c 1146     		mov	r1, r2
 540 001e 1A46     		mov	r2, r3
 541 0020 FFF7FEFF 		bl	SetDisplayPosFromMouse
 542              		.loc 1 121 0
 543 0024 0198     		ldr	r0, [sp, #4]
 544 0026 FFF7FEFF 		bl	CalculatePosFromDPos
 545 002a 0246     		mov	r2, r0
 546 002c 019B     		ldr	r3, [sp, #4]
 547 002e DA63     		str	r2, [r3, #60]
 548              		.loc 1 138 0
 549 0030 0198     		ldr	r0, [sp, #4]
 550 0032 FFF7FEFF 		bl	ResetDisplayPos
 551              		.loc 1 140 0
 552 0036 019B     		ldr	r3, [sp, #4]
 553 0038 1846     		mov	r0, r3
 554 003a FFF7FEFF 		bl	_gwinUpdate
 555              		.loc 1 143 0
 556 003e 0198     		ldr	r0, [sp, #4]
 557 0040 0421     		movs	r1, #4
 558 0042 FFF7FEFF 		bl	SendSliderEvent
 559              		.loc 1 146 0
 560 0046 03B0     		add	sp, sp, #12
 561              		.cfi_def_cfa_offset 4
 562              		@ sp needed
 563 0048 5DF804FB 		ldr	pc, [sp], #4
 564              		.cfi_endproc
 565              	.LFE115:
 566              		.size	MouseUp, .-MouseUp
ARM GAS  /tmp/cc57xKLi.s 			page 11


 567 004c AFF30080 		.section	.text.MouseDown,"ax",%progbits
 568              		.align	2
 569              		.p2align 4,,15
 570              		.thumb
 571              		.thumb_func
 572              		.type	MouseDown, %function
 573              	MouseDown:
 574              	.LFB116:
 575              		.loc 1 149 0
 576              		.cfi_startproc
 577              		@ args = 0, pretend = 0, frame = 8
 578              		@ frame_needed = 0, uses_anonymous_args = 0
 579 0000 00B5     		push	{lr}
 580              		.cfi_def_cfa_offset 4
 581              		.cfi_offset 14, -4
 582 0002 83B0     		sub	sp, sp, #12
 583              		.cfi_def_cfa_offset 16
 584 0004 0190     		str	r0, [sp, #4]
 585 0006 0B46     		mov	r3, r1
 586 0008 ADF80230 		strh	r3, [sp, #2]	@ movhi
 587 000c 1346     		mov	r3, r2	@ movhi
 588 000e ADF80030 		strh	r3, [sp]	@ movhi
 589              		.loc 1 153 0
 590 0012 BDF90220 		ldrsh	r2, [sp, #2]
 591 0016 BDF90030 		ldrsh	r3, [sp]
 592 001a 0198     		ldr	r0, [sp, #4]
 593 001c 1146     		mov	r1, r2
 594 001e 1A46     		mov	r2, r3
 595 0020 FFF7FEFF 		bl	SetDisplayPosFromMouse
 596              		.loc 1 156 0
 597 0024 019B     		ldr	r3, [sp, #4]
 598 0026 1846     		mov	r0, r3
 599 0028 FFF7FEFF 		bl	_gwinUpdate
 600              		.loc 1 159 0
 601 002c 0198     		ldr	r0, [sp, #4]
 602 002e 0221     		movs	r1, #2
 603 0030 FFF7FEFF 		bl	SendSliderEvent
 604              		.loc 1 162 0
 605 0034 03B0     		add	sp, sp, #12
 606              		.cfi_def_cfa_offset 4
 607              		@ sp needed
 608 0036 5DF804FB 		ldr	pc, [sp], #4
 609              		.cfi_endproc
 610              	.LFE116:
 611              		.size	MouseDown, .-MouseDown
 612 003a 00BFAFF3 		.section	.text.MouseMove,"ax",%progbits
 612      0080
 613              		.align	2
 614              		.p2align 4,,15
 615              		.thumb
 616              		.thumb_func
 617              		.type	MouseMove, %function
 618              	MouseMove:
 619              	.LFB117:
 620              		.loc 1 165 0
 621              		.cfi_startproc
 622              		@ args = 0, pretend = 0, frame = 8
ARM GAS  /tmp/cc57xKLi.s 			page 12


 623              		@ frame_needed = 0, uses_anonymous_args = 0
 624 0000 00B5     		push	{lr}
 625              		.cfi_def_cfa_offset 4
 626              		.cfi_offset 14, -4
 627 0002 83B0     		sub	sp, sp, #12
 628              		.cfi_def_cfa_offset 16
 629 0004 0190     		str	r0, [sp, #4]
 630 0006 0B46     		mov	r3, r1
 631 0008 ADF80230 		strh	r3, [sp, #2]	@ movhi
 632 000c 1346     		mov	r3, r2	@ movhi
 633 000e ADF80030 		strh	r3, [sp]	@ movhi
 634              		.loc 1 169 0
 635 0012 BDF90220 		ldrsh	r2, [sp, #2]
 636 0016 BDF90030 		ldrsh	r3, [sp]
 637 001a 0198     		ldr	r0, [sp, #4]
 638 001c 1146     		mov	r1, r2
 639 001e 1A46     		mov	r2, r3
 640 0020 FFF7FEFF 		bl	SetDisplayPosFromMouse
 641              		.loc 1 172 0
 642 0024 019B     		ldr	r3, [sp, #4]
 643 0026 1846     		mov	r0, r3
 644 0028 FFF7FEFF 		bl	_gwinUpdate
 645              		.loc 1 175 0
 646 002c 0198     		ldr	r0, [sp, #4]
 647 002e 0121     		movs	r1, #1
 648 0030 FFF7FEFF 		bl	SendSliderEvent
 649              		.loc 1 178 0
 650 0034 03B0     		add	sp, sp, #12
 651              		.cfi_def_cfa_offset 4
 652              		@ sp needed
 653 0036 5DF804FB 		ldr	pc, [sp], #4
 654              		.cfi_endproc
 655              	.LFE117:
 656              		.size	MouseMove, .-MouseMove
 657 003a 00BFAFF3 		.section	.rodata
 657      0080
 658              		.align	2
 659              	.LC0:
 660 0000 536C6964 		.ascii	"Slider\000"
 660      657200
 661 0007 00       		.section	.rodata.sliderVMT,"a",%progbits
 662              		.align	2
 663              		.type	sliderVMT, %object
 664              		.size	sliderVMT, 36
 665              	sliderVMT:
 666 0000 00000000 		.word	.LC0
 667 0004 40000000 		.word	64
 668 0008 00000000 		.word	_gwidgetDestroy
 669 000c 00000000 		.word	_gwidgetRedraw
 670 0010 00000000 		.word	0
 671 0014 00000000 		.word	gwinSliderDraw_Std
 672 0018 00000000 		.word	MouseDown
 673 001c 00000000 		.word	MouseUp
 674 0020 00000000 		.word	MouseMove
 675              		.section	.text.gwinGSliderCreate,"ax",%progbits
 676              		.align	2
 677              		.p2align 4,,15
ARM GAS  /tmp/cc57xKLi.s 			page 13


 678              		.global	gwinGSliderCreate
 679              		.thumb
 680              		.thumb_func
 681              		.type	gwinGSliderCreate, %function
 682              	gwinGSliderCreate:
 683              	.LFB118:
 684              		.loc 1 272 0
 685              		.cfi_startproc
 686              		@ args = 0, pretend = 0, frame = 16
 687              		@ frame_needed = 0, uses_anonymous_args = 0
 688 0000 00B5     		push	{lr}
 689              		.cfi_def_cfa_offset 4
 690              		.cfi_offset 14, -4
 691 0002 85B0     		sub	sp, sp, #20
 692              		.cfi_def_cfa_offset 24
 693 0004 0390     		str	r0, [sp, #12]
 694 0006 0291     		str	r1, [sp, #8]
 695 0008 0192     		str	r2, [sp, #4]
 696              		.loc 1 273 0
 697 000a 029B     		ldr	r3, [sp, #8]
 698 000c 0398     		ldr	r0, [sp, #12]
 699 000e 1946     		mov	r1, r3
 700 0010 019A     		ldr	r2, [sp, #4]
 701 0012 104B     		ldr	r3, .L41
 702 0014 FFF7FEFF 		bl	_gwidgetCreate
 703 0018 0290     		str	r0, [sp, #8]
 704 001a 029B     		ldr	r3, [sp, #8]
 705 001c 002B     		cmp	r3, #0
 706 001e 01D1     		bne	.L39
 707              		.loc 1 274 0
 708 0020 0023     		movs	r3, #0
 709 0022 12E0     		b	.L40
 710              	.L39:
 711              		.loc 1 282 0
 712 0024 029B     		ldr	r3, [sp, #8]
 713 0026 0022     		movs	r2, #0
 714 0028 5A63     		str	r2, [r3, #52]
 715              		.loc 1 283 0
 716 002a 029B     		ldr	r3, [sp, #8]
 717 002c 6422     		movs	r2, #100
 718 002e 9A63     		str	r2, [r3, #56]
 719              		.loc 1 284 0
 720 0030 029B     		ldr	r3, [sp, #8]
 721 0032 0022     		movs	r2, #0
 722 0034 DA63     		str	r2, [r3, #60]
 723              		.loc 1 285 0
 724 0036 0298     		ldr	r0, [sp, #8]
 725 0038 FFF7FEFF 		bl	ResetDisplayPos
 726              		.loc 1 286 0
 727 003c 019B     		ldr	r3, [sp, #4]
 728 003e 1B7A     		ldrb	r3, [r3, #8]	@ zero_extendqisi2
 729 0040 0298     		ldr	r0, [sp, #8]
 730 0042 1946     		mov	r1, r3
 731 0044 FFF7FEFF 		bl	gwinSetVisible
 732              		.loc 1 287 0
 733 0048 029B     		ldr	r3, [sp, #8]
 734              	.L40:
ARM GAS  /tmp/cc57xKLi.s 			page 14


 735              		.loc 1 288 0
 736 004a 1846     		mov	r0, r3
 737 004c 05B0     		add	sp, sp, #20
 738              		.cfi_def_cfa_offset 4
 739              		@ sp needed
 740 004e 5DF804FB 		ldr	pc, [sp], #4
 741              	.L42:
 742 0052 00BF     		.align	2
 743              	.L41:
 744 0054 00000000 		.word	sliderVMT
 745              		.cfi_endproc
 746              	.LFE118:
 747              		.size	gwinGSliderCreate, .-gwinGSliderCreate
 748 0058 AFF30080 		.section	.text.gwinSliderSetRange,"ax",%progbits
 748      AFF30080 
 749              		.align	2
 750              		.p2align 4,,15
 751              		.global	gwinSliderSetRange
 752              		.thumb
 753              		.thumb_func
 754              		.type	gwinSliderSetRange, %function
 755              	gwinSliderSetRange:
 756              	.LFB119:
 757              		.loc 1 290 0
 758              		.cfi_startproc
 759              		@ args = 0, pretend = 0, frame = 16
 760              		@ frame_needed = 0, uses_anonymous_args = 0
 761 0000 00B5     		push	{lr}
 762              		.cfi_def_cfa_offset 4
 763              		.cfi_offset 14, -4
 764 0002 85B0     		sub	sp, sp, #20
 765              		.cfi_def_cfa_offset 24
 766 0004 0390     		str	r0, [sp, #12]
 767 0006 0291     		str	r1, [sp, #8]
 768 0008 0192     		str	r2, [sp, #4]
 769              		.loc 1 293 0
 770 000a 039B     		ldr	r3, [sp, #12]
 771 000c 5B68     		ldr	r3, [r3, #4]
 772 000e 0D4A     		ldr	r2, .L47
 773 0010 9342     		cmp	r3, r2
 774 0012 00D0     		beq	.L44
 775              		.loc 1 294 0
 776 0014 12E0     		b	.L43
 777              	.L44:
 778              		.loc 1 296 0
 779 0016 029A     		ldr	r2, [sp, #8]
 780 0018 019B     		ldr	r3, [sp, #4]
 781 001a 9A42     		cmp	r2, r3
 782 001c 02D1     		bne	.L46
 783              		.loc 1 297 0
 784 001e 019B     		ldr	r3, [sp, #4]
 785 0020 0133     		adds	r3, r3, #1
 786 0022 0193     		str	r3, [sp, #4]
 787              	.L46:
 788              		.loc 1 298 0
 789 0024 039B     		ldr	r3, [sp, #12]
 790 0026 029A     		ldr	r2, [sp, #8]
ARM GAS  /tmp/cc57xKLi.s 			page 15


 791 0028 5A63     		str	r2, [r3, #52]
 792              		.loc 1 299 0
 793 002a 039B     		ldr	r3, [sp, #12]
 794 002c 019A     		ldr	r2, [sp, #4]
 795 002e 9A63     		str	r2, [r3, #56]
 796              		.loc 1 300 0
 797 0030 039B     		ldr	r3, [sp, #12]
 798 0032 029A     		ldr	r2, [sp, #8]
 799 0034 DA63     		str	r2, [r3, #60]
 800              		.loc 1 301 0
 801 0036 0398     		ldr	r0, [sp, #12]
 802 0038 FFF7FEFF 		bl	ResetDisplayPos
 803              	.L43:
 804              		.loc 1 303 0
 805 003c 05B0     		add	sp, sp, #20
 806              		.cfi_def_cfa_offset 4
 807              		@ sp needed
 808 003e 5DF804FB 		ldr	pc, [sp], #4
 809              	.L48:
 810 0042 00BF     		.align	2
 811              	.L47:
 812 0044 00000000 		.word	sliderVMT
 813              		.cfi_endproc
 814              	.LFE119:
 815              		.size	gwinSliderSetRange, .-gwinSliderSetRange
 816 0048 AFF30080 		.section	.text.gwinSliderSetPosition,"ax",%progbits
 816      AFF30080 
 817              		.align	2
 818              		.p2align 4,,15
 819              		.global	gwinSliderSetPosition
 820              		.thumb
 821              		.thumb_func
 822              		.type	gwinSliderSetPosition, %function
 823              	gwinSliderSetPosition:
 824              	.LFB120:
 825              		.loc 1 305 0
 826              		.cfi_startproc
 827              		@ args = 0, pretend = 0, frame = 8
 828              		@ frame_needed = 0, uses_anonymous_args = 0
 829 0000 00B5     		push	{lr}
 830              		.cfi_def_cfa_offset 4
 831              		.cfi_offset 14, -4
 832 0002 83B0     		sub	sp, sp, #12
 833              		.cfi_def_cfa_offset 16
 834 0004 0190     		str	r0, [sp, #4]
 835 0006 0091     		str	r1, [sp]
 836              		.loc 1 308 0
 837 0008 019B     		ldr	r3, [sp, #4]
 838 000a 5B68     		ldr	r3, [r3, #4]
 839 000c 204A     		ldr	r2, .L59
 840 000e 9342     		cmp	r3, r2
 841 0010 00D0     		beq	.L50
 842              		.loc 1 309 0
 843 0012 3AE0     		b	.L49
 844              	.L50:
 845              		.loc 1 311 0
 846 0014 019B     		ldr	r3, [sp, #4]
ARM GAS  /tmp/cc57xKLi.s 			page 16


 847 0016 5A6B     		ldr	r2, [r3, #52]
 848 0018 019B     		ldr	r3, [sp, #4]
 849 001a 9B6B     		ldr	r3, [r3, #56]
 850 001c 9A42     		cmp	r2, r3
 851 001e 17DC     		bgt	.L52
 852              		.loc 1 312 0
 853 0020 019B     		ldr	r3, [sp, #4]
 854 0022 5A6B     		ldr	r2, [r3, #52]
 855 0024 009B     		ldr	r3, [sp]
 856 0026 9A42     		cmp	r2, r3
 857 0028 04DD     		ble	.L53
 858              		.loc 1 312 0 is_stmt 0 discriminator 1
 859 002a 019B     		ldr	r3, [sp, #4]
 860 002c 5A6B     		ldr	r2, [r3, #52]
 861 002e 019B     		ldr	r3, [sp, #4]
 862 0030 DA63     		str	r2, [r3, #60]
 863 0032 24E0     		b	.L56
 864              	.L53:
 865              		.loc 1 313 0 is_stmt 1
 866 0034 019B     		ldr	r3, [sp, #4]
 867 0036 9A6B     		ldr	r2, [r3, #56]
 868 0038 009B     		ldr	r3, [sp]
 869 003a 9A42     		cmp	r2, r3
 870 003c 04DA     		bge	.L55
 871              		.loc 1 313 0 is_stmt 0 discriminator 1
 872 003e 019B     		ldr	r3, [sp, #4]
 873 0040 9A6B     		ldr	r2, [r3, #56]
 874 0042 019B     		ldr	r3, [sp, #4]
 875 0044 DA63     		str	r2, [r3, #60]
 876 0046 1AE0     		b	.L56
 877              	.L55:
 878              		.loc 1 314 0 is_stmt 1
 879 0048 019B     		ldr	r3, [sp, #4]
 880 004a 009A     		ldr	r2, [sp]
 881 004c DA63     		str	r2, [r3, #60]
 882 004e 16E0     		b	.L56
 883              	.L52:
 884              		.loc 1 316 0
 885 0050 019B     		ldr	r3, [sp, #4]
 886 0052 5A6B     		ldr	r2, [r3, #52]
 887 0054 009B     		ldr	r3, [sp]
 888 0056 9A42     		cmp	r2, r3
 889 0058 04DA     		bge	.L57
 890              		.loc 1 316 0 is_stmt 0 discriminator 1
 891 005a 019B     		ldr	r3, [sp, #4]
 892 005c 5A6B     		ldr	r2, [r3, #52]
 893 005e 019B     		ldr	r3, [sp, #4]
 894 0060 DA63     		str	r2, [r3, #60]
 895 0062 0CE0     		b	.L56
 896              	.L57:
 897              		.loc 1 317 0 is_stmt 1
 898 0064 019B     		ldr	r3, [sp, #4]
 899 0066 9A6B     		ldr	r2, [r3, #56]
 900 0068 009B     		ldr	r3, [sp]
 901 006a 9A42     		cmp	r2, r3
 902 006c 04DD     		ble	.L58
 903              		.loc 1 317 0 is_stmt 0 discriminator 1
ARM GAS  /tmp/cc57xKLi.s 			page 17


 904 006e 019B     		ldr	r3, [sp, #4]
 905 0070 9A6B     		ldr	r2, [r3, #56]
 906 0072 019B     		ldr	r3, [sp, #4]
 907 0074 DA63     		str	r2, [r3, #60]
 908 0076 02E0     		b	.L56
 909              	.L58:
 910              		.loc 1 318 0 is_stmt 1
 911 0078 019B     		ldr	r3, [sp, #4]
 912 007a 009A     		ldr	r2, [sp]
 913 007c DA63     		str	r2, [r3, #60]
 914              	.L56:
 915              		.loc 1 320 0
 916 007e 0198     		ldr	r0, [sp, #4]
 917 0080 FFF7FEFF 		bl	ResetDisplayPos
 918              		.loc 1 321 0
 919 0084 0198     		ldr	r0, [sp, #4]
 920 0086 FFF7FEFF 		bl	_gwinUpdate
 921              	.L49:
 922              		.loc 1 324 0
 923 008a 03B0     		add	sp, sp, #12
 924              		.cfi_def_cfa_offset 4
 925              		@ sp needed
 926 008c 5DF804FB 		ldr	pc, [sp], #4
 927              	.L60:
 928              		.align	2
 929              	.L59:
 930 0090 00000000 		.word	sliderVMT
 931              		.cfi_endproc
 932              	.LFE120:
 933              		.size	gwinSliderSetPosition, .-gwinSliderSetPosition
 934 0094 AFF30080 		.section	.text.gwinSliderSendExtendedEvents,"ax",%progbits
 934      AFF30080 
 934      AFF30080 
 935              		.align	2
 936              		.p2align 4,,15
 937              		.global	gwinSliderSendExtendedEvents
 938              		.thumb
 939              		.thumb_func
 940              		.type	gwinSliderSendExtendedEvents, %function
 941              	gwinSliderSendExtendedEvents:
 942              	.LFB121:
 943              		.loc 1 326 0
 944              		.cfi_startproc
 945              		@ args = 0, pretend = 0, frame = 8
 946              		@ frame_needed = 0, uses_anonymous_args = 0
 947              		@ link register save eliminated.
 948 0000 82B0     		sub	sp, sp, #8
 949              		.cfi_def_cfa_offset 8
 950 0002 0190     		str	r0, [sp, #4]
 951 0004 0B46     		mov	r3, r1
 952 0006 8DF80330 		strb	r3, [sp, #3]
 953              		.loc 1 327 0
 954 000a 019B     		ldr	r3, [sp, #4]
 955 000c 5B68     		ldr	r3, [r3, #4]
 956 000e 0B4A     		ldr	r2, .L65
 957 0010 9342     		cmp	r3, r2
 958 0012 00D0     		beq	.L62
ARM GAS  /tmp/cc57xKLi.s 			page 18


 959              		.loc 1 328 0
 960 0014 10E0     		b	.L61
 961              	.L62:
 962              		.loc 1 330 0
 963 0016 9DF80330 		ldrb	r3, [sp, #3]	@ zero_extendqisi2
 964 001a 002B     		cmp	r3, #0
 965 001c 06D0     		beq	.L64
 966              		.loc 1 331 0
 967 001e 019B     		ldr	r3, [sp, #4]
 968 0020 9B69     		ldr	r3, [r3, #24]
 969 0022 43F00102 		orr	r2, r3, #1
 970 0026 019B     		ldr	r3, [sp, #4]
 971 0028 9A61     		str	r2, [r3, #24]
 972 002a 05E0     		b	.L61
 973              	.L64:
 974              		.loc 1 333 0
 975 002c 019B     		ldr	r3, [sp, #4]
 976 002e 9B69     		ldr	r3, [r3, #24]
 977 0030 23F00102 		bic	r2, r3, #1
 978 0034 019B     		ldr	r3, [sp, #4]
 979 0036 9A61     		str	r2, [r3, #24]
 980              	.L61:
 981              		.loc 1 334 0
 982 0038 02B0     		add	sp, sp, #8
 983              		.cfi_def_cfa_offset 0
 984              		@ sp needed
 985 003a 7047     		bx	lr
 986              	.L66:
 987              		.align	2
 988              	.L65:
 989 003c 00000000 		.word	sliderVMT
 990              		.cfi_endproc
 991              	.LFE121:
 992              		.size	gwinSliderSendExtendedEvents, .-gwinSliderSendExtendedEvents
 993              		.section	.text.gwinSliderDraw_Std,"ax",%progbits
 994              		.align	2
 995              		.p2align 4,,15
 996              		.global	gwinSliderDraw_Std
 997              		.thumb
 998              		.thumb_func
 999              		.type	gwinSliderDraw_Std, %function
 1000              	gwinSliderDraw_Std:
 1001              	.LFB122:
 1002              		.loc 1 340 0
 1003              		.cfi_startproc
 1004              		@ args = 0, pretend = 0, frame = 16
 1005              		@ frame_needed = 0, uses_anonymous_args = 0
 1006 0000 F0B5     		push	{r4, r5, r6, r7, lr}
 1007              		.cfi_def_cfa_offset 20
 1008              		.cfi_offset 4, -20
 1009              		.cfi_offset 5, -16
 1010              		.cfi_offset 6, -12
 1011              		.cfi_offset 7, -8
 1012              		.cfi_offset 14, -4
 1013 0002 8BB0     		sub	sp, sp, #44
 1014              		.cfi_def_cfa_offset 64
 1015 0004 0790     		str	r0, [sp, #28]
ARM GAS  /tmp/cc57xKLi.s 			page 19


 1016 0006 0691     		str	r1, [sp, #24]
 1017              		.loc 1 345 0
 1018 0008 079B     		ldr	r3, [sp, #28]
 1019 000a 5B68     		ldr	r3, [r3, #4]
 1020 000c 8C4A     		ldr	r2, .L81
 1021 000e 9342     		cmp	r3, r2
 1022 0010 00D0     		beq	.L68
 1023              		.loc 1 346 0
 1024 0012 42E2     		b	.L67
 1025              	.L68:
 1026              		.loc 1 348 0
 1027 0014 079B     		ldr	r3, [sp, #28]
 1028 0016 9B69     		ldr	r3, [r3, #24]
 1029 0018 03F40063 		and	r3, r3, #2048
 1030 001c 002B     		cmp	r3, #0
 1031 001e 04D0     		beq	.L70
 1032              		.loc 1 349 0
 1033 0020 079B     		ldr	r3, [sp, #28]
 1034 0022 DB6A     		ldr	r3, [r3, #44]
 1035 0024 1233     		adds	r3, r3, #18
 1036 0026 0993     		str	r3, [sp, #36]
 1037 0028 03E0     		b	.L71
 1038              	.L70:
 1039              		.loc 1 351 0
 1040 002a 079B     		ldr	r3, [sp, #28]
 1041 002c DB6A     		ldr	r3, [r3, #44]
 1042 002e 0A33     		adds	r3, r3, #10
 1043 0030 0993     		str	r3, [sp, #36]
 1044              	.L71:
 1045              		.loc 1 353 0
 1046 0032 079B     		ldr	r3, [sp, #28]
 1047 0034 1A8A     		ldrh	r2, [r3, #16]
 1048 0036 079B     		ldr	r3, [sp, #28]
 1049 0038 5B8A     		ldrh	r3, [r3, #18]
 1050 003a 12B2     		sxth	r2, r2
 1051 003c 1BB2     		sxth	r3, r3
 1052 003e 9A42     		cmp	r2, r3
 1053 0040 80F20081 		bge	.L72
 1054              		.loc 1 354 0
 1055 0044 079B     		ldr	r3, [sp, #28]
 1056 0046 1B8E     		ldrh	r3, [r3, #48]
 1057 0048 1AB2     		sxth	r2, r3
 1058 004a 079B     		ldr	r3, [sp, #28]
 1059 004c 5B8A     		ldrh	r3, [r3, #18]
 1060 004e 1BB2     		sxth	r3, r3
 1061 0050 013B     		subs	r3, r3, #1
 1062 0052 9A42     		cmp	r2, r3
 1063 0054 23D0     		beq	.L73
 1064              		.loc 1 355 0
 1065 0056 079B     		ldr	r3, [sp, #28]
 1066 0058 9868     		ldr	r0, [r3, #8]
 1067 005a 079B     		ldr	r3, [sp, #28]
 1068 005c 9989     		ldrh	r1, [r3, #12]
 1069 005e 079B     		ldr	r3, [sp, #28]
 1070 0060 DB89     		ldrh	r3, [r3, #14]
 1071 0062 9AB2     		uxth	r2, r3
 1072 0064 079B     		ldr	r3, [sp, #28]
ARM GAS  /tmp/cc57xKLi.s 			page 20


 1073 0066 1B8E     		ldrh	r3, [r3, #48]
 1074 0068 9BB2     		uxth	r3, r3
 1075 006a 1344     		add	r3, r3, r2
 1076 006c 9BB2     		uxth	r3, r3
 1077 006e 9DB2     		uxth	r5, r3
 1078 0070 079B     		ldr	r3, [sp, #28]
 1079 0072 1C8A     		ldrh	r4, [r3, #16]
 1080 0074 079B     		ldr	r3, [sp, #28]
 1081 0076 5B8A     		ldrh	r3, [r3, #18]
 1082 0078 9AB2     		uxth	r2, r3
 1083 007a 079B     		ldr	r3, [sp, #28]
 1084 007c 1B8E     		ldrh	r3, [r3, #48]
 1085 007e 9BB2     		uxth	r3, r3
 1086 0080 D31A     		subs	r3, r2, r3
 1087 0082 9BB2     		uxth	r3, r3
 1088 0084 9AB2     		uxth	r2, r3
 1089 0086 099B     		ldr	r3, [sp, #36]
 1090 0088 DB88     		ldrh	r3, [r3, #6]
 1091 008a 09B2     		sxth	r1, r1
 1092 008c 2DB2     		sxth	r5, r5
 1093 008e 24B2     		sxth	r4, r4
 1094 0090 12B2     		sxth	r2, r2
 1095 0092 0092     		str	r2, [sp]
 1096 0094 0193     		str	r3, [sp, #4]
 1097 0096 2A46     		mov	r2, r5
 1098 0098 2346     		mov	r3, r4
 1099 009a FFF7FEFF 		bl	gdispGFillArea
 1100              	.L73:
 1101              		.loc 1 356 0
 1102 009e 079B     		ldr	r3, [sp, #28]
 1103 00a0 1B8E     		ldrh	r3, [r3, #48]
 1104 00a2 002B     		cmp	r3, #0
 1105 00a4 16D0     		beq	.L74
 1106              		.loc 1 357 0
 1107 00a6 079B     		ldr	r3, [sp, #28]
 1108 00a8 9868     		ldr	r0, [r3, #8]
 1109 00aa 079B     		ldr	r3, [sp, #28]
 1110 00ac 9989     		ldrh	r1, [r3, #12]
 1111 00ae 079B     		ldr	r3, [sp, #28]
 1112 00b0 DD89     		ldrh	r5, [r3, #14]
 1113 00b2 079B     		ldr	r3, [sp, #28]
 1114 00b4 1C8A     		ldrh	r4, [r3, #16]
 1115 00b6 079B     		ldr	r3, [sp, #28]
 1116 00b8 1A8E     		ldrh	r2, [r3, #48]
 1117 00ba 079B     		ldr	r3, [sp, #28]
 1118 00bc DB6A     		ldr	r3, [r3, #44]
 1119 00be 1B89     		ldrh	r3, [r3, #8]
 1120 00c0 09B2     		sxth	r1, r1
 1121 00c2 2DB2     		sxth	r5, r5
 1122 00c4 24B2     		sxth	r4, r4
 1123 00c6 12B2     		sxth	r2, r2
 1124 00c8 0092     		str	r2, [sp]
 1125 00ca 0193     		str	r3, [sp, #4]
 1126 00cc 2A46     		mov	r2, r5
 1127 00ce 2346     		mov	r3, r4
 1128 00d0 FFF7FEFF 		bl	gdispGFillArea
 1129              	.L74:
ARM GAS  /tmp/cc57xKLi.s 			page 21


 1130              		.loc 1 358 0
 1131 00d4 079B     		ldr	r3, [sp, #28]
 1132 00d6 9868     		ldr	r0, [r3, #8]
 1133 00d8 079B     		ldr	r3, [sp, #28]
 1134 00da 9989     		ldrh	r1, [r3, #12]
 1135 00dc 079B     		ldr	r3, [sp, #28]
 1136 00de DD89     		ldrh	r5, [r3, #14]
 1137 00e0 079B     		ldr	r3, [sp, #28]
 1138 00e2 1C8A     		ldrh	r4, [r3, #16]
 1139 00e4 079B     		ldr	r3, [sp, #28]
 1140 00e6 5A8A     		ldrh	r2, [r3, #18]
 1141 00e8 099B     		ldr	r3, [sp, #36]
 1142 00ea 5B88     		ldrh	r3, [r3, #2]
 1143 00ec 09B2     		sxth	r1, r1
 1144 00ee 2DB2     		sxth	r5, r5
 1145 00f0 24B2     		sxth	r4, r4
 1146 00f2 12B2     		sxth	r2, r2
 1147 00f4 0092     		str	r2, [sp]
 1148 00f6 0193     		str	r3, [sp, #4]
 1149 00f8 2A46     		mov	r2, r5
 1150 00fa 2346     		mov	r3, r4
 1151 00fc FFF7FEFF 		bl	gdispGDrawBox
 1152              		.loc 1 359 0
 1153 0100 079B     		ldr	r3, [sp, #28]
 1154 0102 9868     		ldr	r0, [r3, #8]
 1155 0104 079B     		ldr	r3, [sp, #28]
 1156 0106 9989     		ldrh	r1, [r3, #12]
 1157 0108 079B     		ldr	r3, [sp, #28]
 1158 010a DB89     		ldrh	r3, [r3, #14]
 1159 010c 9AB2     		uxth	r2, r3
 1160 010e 079B     		ldr	r3, [sp, #28]
 1161 0110 1B8E     		ldrh	r3, [r3, #48]
 1162 0112 9BB2     		uxth	r3, r3
 1163 0114 1344     		add	r3, r3, r2
 1164 0116 9BB2     		uxth	r3, r3
 1165 0118 9DB2     		uxth	r5, r3
 1166 011a 079B     		ldr	r3, [sp, #28]
 1167 011c 9B89     		ldrh	r3, [r3, #12]
 1168 011e 9AB2     		uxth	r2, r3
 1169 0120 079B     		ldr	r3, [sp, #28]
 1170 0122 1B8A     		ldrh	r3, [r3, #16]
 1171 0124 9BB2     		uxth	r3, r3
 1172 0126 1344     		add	r3, r3, r2
 1173 0128 9BB2     		uxth	r3, r3
 1174 012a 013B     		subs	r3, r3, #1
 1175 012c 9BB2     		uxth	r3, r3
 1176 012e 9CB2     		uxth	r4, r3
 1177 0130 079B     		ldr	r3, [sp, #28]
 1178 0132 DB89     		ldrh	r3, [r3, #14]
 1179 0134 9AB2     		uxth	r2, r3
 1180 0136 079B     		ldr	r3, [sp, #28]
 1181 0138 1B8E     		ldrh	r3, [r3, #48]
 1182 013a 9BB2     		uxth	r3, r3
 1183 013c 1344     		add	r3, r3, r2
 1184 013e 9BB2     		uxth	r3, r3
 1185 0140 9AB2     		uxth	r2, r3
 1186 0142 099B     		ldr	r3, [sp, #36]
ARM GAS  /tmp/cc57xKLi.s 			page 22


 1187 0144 5B88     		ldrh	r3, [r3, #2]
 1188 0146 09B2     		sxth	r1, r1
 1189 0148 2DB2     		sxth	r5, r5
 1190 014a 24B2     		sxth	r4, r4
 1191 014c 12B2     		sxth	r2, r2
 1192 014e 0092     		str	r2, [sp]
 1193 0150 0193     		str	r3, [sp, #4]
 1194 0152 2A46     		mov	r2, r5
 1195 0154 2346     		mov	r3, r4
 1196 0156 FFF7FEFF 		bl	gdispGDrawLine
 1197              		.loc 1 360 0
 1198 015a 079B     		ldr	r3, [sp, #28]
 1199 015c 1B8E     		ldrh	r3, [r3, #48]
 1200 015e 1BB2     		sxth	r3, r3
 1201 0160 012B     		cmp	r3, #1
 1202 0162 30DD     		ble	.L75
 1203              		.loc 1 361 0
 1204 0164 079B     		ldr	r3, [sp, #28]
 1205 0166 9868     		ldr	r0, [r3, #8]
 1206 0168 079B     		ldr	r3, [sp, #28]
 1207 016a 9989     		ldrh	r1, [r3, #12]
 1208 016c 079B     		ldr	r3, [sp, #28]
 1209 016e DB89     		ldrh	r3, [r3, #14]
 1210 0170 9AB2     		uxth	r2, r3
 1211 0172 079B     		ldr	r3, [sp, #28]
 1212 0174 1B8E     		ldrh	r3, [r3, #48]
 1213 0176 9BB2     		uxth	r3, r3
 1214 0178 1344     		add	r3, r3, r2
 1215 017a 9BB2     		uxth	r3, r3
 1216 017c 023B     		subs	r3, r3, #2
 1217 017e 9BB2     		uxth	r3, r3
 1218 0180 9DB2     		uxth	r5, r3
 1219 0182 079B     		ldr	r3, [sp, #28]
 1220 0184 9B89     		ldrh	r3, [r3, #12]
 1221 0186 9AB2     		uxth	r2, r3
 1222 0188 079B     		ldr	r3, [sp, #28]
 1223 018a 1B8A     		ldrh	r3, [r3, #16]
 1224 018c 9BB2     		uxth	r3, r3
 1225 018e 1344     		add	r3, r3, r2
 1226 0190 9BB2     		uxth	r3, r3
 1227 0192 013B     		subs	r3, r3, #1
 1228 0194 9BB2     		uxth	r3, r3
 1229 0196 9CB2     		uxth	r4, r3
 1230 0198 079B     		ldr	r3, [sp, #28]
 1231 019a DB89     		ldrh	r3, [r3, #14]
 1232 019c 9AB2     		uxth	r2, r3
 1233 019e 079B     		ldr	r3, [sp, #28]
 1234 01a0 1B8E     		ldrh	r3, [r3, #48]
 1235 01a2 9BB2     		uxth	r3, r3
 1236 01a4 1344     		add	r3, r3, r2
 1237 01a6 9BB2     		uxth	r3, r3
 1238 01a8 023B     		subs	r3, r3, #2
 1239 01aa 9BB2     		uxth	r3, r3
 1240 01ac 9AB2     		uxth	r2, r3
 1241 01ae 099B     		ldr	r3, [sp, #36]
 1242 01b0 5B88     		ldrh	r3, [r3, #2]
 1243 01b2 09B2     		sxth	r1, r1
ARM GAS  /tmp/cc57xKLi.s 			page 23


 1244 01b4 2DB2     		sxth	r5, r5
 1245 01b6 24B2     		sxth	r4, r4
 1246 01b8 12B2     		sxth	r2, r2
 1247 01ba 0092     		str	r2, [sp]
 1248 01bc 0193     		str	r3, [sp, #4]
 1249 01be 2A46     		mov	r2, r5
 1250 01c0 2346     		mov	r3, r4
 1251 01c2 FFF7FEFF 		bl	gdispGDrawLine
 1252              	.L75:
 1253              		.loc 1 362 0
 1254 01c6 079B     		ldr	r3, [sp, #28]
 1255 01c8 1B8E     		ldrh	r3, [r3, #48]
 1256 01ca 1AB2     		sxth	r2, r3
 1257 01cc 079B     		ldr	r3, [sp, #28]
 1258 01ce 5B8A     		ldrh	r3, [r3, #18]
 1259 01d0 1BB2     		sxth	r3, r3
 1260 01d2 023B     		subs	r3, r3, #2
 1261 01d4 9A42     		cmp	r2, r3
 1262 01d6 00F33081 		bgt	.L77
 1263              		.loc 1 363 0
 1264 01da 079B     		ldr	r3, [sp, #28]
 1265 01dc 9868     		ldr	r0, [r3, #8]
 1266 01de 079B     		ldr	r3, [sp, #28]
 1267 01e0 9989     		ldrh	r1, [r3, #12]
 1268 01e2 079B     		ldr	r3, [sp, #28]
 1269 01e4 DB89     		ldrh	r3, [r3, #14]
 1270 01e6 9AB2     		uxth	r2, r3
 1271 01e8 079B     		ldr	r3, [sp, #28]
 1272 01ea 1B8E     		ldrh	r3, [r3, #48]
 1273 01ec 9BB2     		uxth	r3, r3
 1274 01ee 1344     		add	r3, r3, r2
 1275 01f0 9BB2     		uxth	r3, r3
 1276 01f2 0233     		adds	r3, r3, #2
 1277 01f4 9BB2     		uxth	r3, r3
 1278 01f6 9DB2     		uxth	r5, r3
 1279 01f8 079B     		ldr	r3, [sp, #28]
 1280 01fa 9B89     		ldrh	r3, [r3, #12]
 1281 01fc 9AB2     		uxth	r2, r3
 1282 01fe 079B     		ldr	r3, [sp, #28]
 1283 0200 1B8A     		ldrh	r3, [r3, #16]
 1284 0202 9BB2     		uxth	r3, r3
 1285 0204 1344     		add	r3, r3, r2
 1286 0206 9BB2     		uxth	r3, r3
 1287 0208 013B     		subs	r3, r3, #1
 1288 020a 9BB2     		uxth	r3, r3
 1289 020c 9CB2     		uxth	r4, r3
 1290 020e 079B     		ldr	r3, [sp, #28]
 1291 0210 DB89     		ldrh	r3, [r3, #14]
 1292 0212 9AB2     		uxth	r2, r3
 1293 0214 079B     		ldr	r3, [sp, #28]
 1294 0216 1B8E     		ldrh	r3, [r3, #48]
 1295 0218 9BB2     		uxth	r3, r3
 1296 021a 1344     		add	r3, r3, r2
 1297 021c 9BB2     		uxth	r3, r3
 1298 021e 0233     		adds	r3, r3, #2
 1299 0220 9BB2     		uxth	r3, r3
 1300 0222 9AB2     		uxth	r2, r3
ARM GAS  /tmp/cc57xKLi.s 			page 24


 1301 0224 099B     		ldr	r3, [sp, #36]
 1302 0226 5B88     		ldrh	r3, [r3, #2]
 1303 0228 09B2     		sxth	r1, r1
 1304 022a 2DB2     		sxth	r5, r5
 1305 022c 24B2     		sxth	r4, r4
 1306 022e 12B2     		sxth	r2, r2
 1307 0230 0092     		str	r2, [sp]
 1308 0232 0193     		str	r3, [sp, #4]
 1309 0234 2A46     		mov	r2, r5
 1310 0236 2346     		mov	r3, r4
 1311 0238 FFF7FEFF 		bl	gdispGDrawLine
 1312 023c FDE0     		b	.L77
 1313              	.L82:
 1314 023e 00BF     		.align	2
 1315              	.L81:
 1316 0240 00000000 		.word	sliderVMT
 1317              	.L72:
 1318              		.loc 1 367 0
 1319 0244 079B     		ldr	r3, [sp, #28]
 1320 0246 1B8E     		ldrh	r3, [r3, #48]
 1321 0248 1AB2     		sxth	r2, r3
 1322 024a 079B     		ldr	r3, [sp, #28]
 1323 024c 1B8A     		ldrh	r3, [r3, #16]
 1324 024e 1BB2     		sxth	r3, r3
 1325 0250 013B     		subs	r3, r3, #1
 1326 0252 9A42     		cmp	r2, r3
 1327 0254 24D0     		beq	.L78
 1328              		.loc 1 368 0
 1329 0256 079B     		ldr	r3, [sp, #28]
 1330 0258 9868     		ldr	r0, [r3, #8]
 1331 025a 079B     		ldr	r3, [sp, #28]
 1332 025c 9B89     		ldrh	r3, [r3, #12]
 1333 025e 9AB2     		uxth	r2, r3
 1334 0260 079B     		ldr	r3, [sp, #28]
 1335 0262 1B8E     		ldrh	r3, [r3, #48]
 1336 0264 9BB2     		uxth	r3, r3
 1337 0266 1344     		add	r3, r3, r2
 1338 0268 9BB2     		uxth	r3, r3
 1339 026a 99B2     		uxth	r1, r3
 1340 026c 079B     		ldr	r3, [sp, #28]
 1341 026e DD89     		ldrh	r5, [r3, #14]
 1342 0270 079B     		ldr	r3, [sp, #28]
 1343 0272 1B8A     		ldrh	r3, [r3, #16]
 1344 0274 9AB2     		uxth	r2, r3
 1345 0276 079B     		ldr	r3, [sp, #28]
 1346 0278 1B8E     		ldrh	r3, [r3, #48]
 1347 027a 9BB2     		uxth	r3, r3
 1348 027c D31A     		subs	r3, r2, r3
 1349 027e 9BB2     		uxth	r3, r3
 1350 0280 9CB2     		uxth	r4, r3
 1351 0282 079B     		ldr	r3, [sp, #28]
 1352 0284 5A8A     		ldrh	r2, [r3, #18]
 1353 0286 079B     		ldr	r3, [sp, #28]
 1354 0288 DB6A     		ldr	r3, [r3, #44]
 1355 028a 1B89     		ldrh	r3, [r3, #8]
 1356 028c 09B2     		sxth	r1, r1
 1357 028e 2DB2     		sxth	r5, r5
ARM GAS  /tmp/cc57xKLi.s 			page 25


 1358 0290 24B2     		sxth	r4, r4
 1359 0292 12B2     		sxth	r2, r2
 1360 0294 0092     		str	r2, [sp]
 1361 0296 0193     		str	r3, [sp, #4]
 1362 0298 2A46     		mov	r2, r5
 1363 029a 2346     		mov	r3, r4
 1364 029c FFF7FEFF 		bl	gdispGFillArea
 1365              	.L78:
 1366              		.loc 1 369 0
 1367 02a0 079B     		ldr	r3, [sp, #28]
 1368 02a2 1B8E     		ldrh	r3, [r3, #48]
 1369 02a4 002B     		cmp	r3, #0
 1370 02a6 15D0     		beq	.L79
 1371              		.loc 1 370 0
 1372 02a8 079B     		ldr	r3, [sp, #28]
 1373 02aa 9868     		ldr	r0, [r3, #8]
 1374 02ac 079B     		ldr	r3, [sp, #28]
 1375 02ae 9989     		ldrh	r1, [r3, #12]
 1376 02b0 079B     		ldr	r3, [sp, #28]
 1377 02b2 DD89     		ldrh	r5, [r3, #14]
 1378 02b4 079B     		ldr	r3, [sp, #28]
 1379 02b6 1C8E     		ldrh	r4, [r3, #48]
 1380 02b8 079B     		ldr	r3, [sp, #28]
 1381 02ba 5A8A     		ldrh	r2, [r3, #18]
 1382 02bc 099B     		ldr	r3, [sp, #36]
 1383 02be DB88     		ldrh	r3, [r3, #6]
 1384 02c0 09B2     		sxth	r1, r1
 1385 02c2 2DB2     		sxth	r5, r5
 1386 02c4 24B2     		sxth	r4, r4
 1387 02c6 12B2     		sxth	r2, r2
 1388 02c8 0092     		str	r2, [sp]
 1389 02ca 0193     		str	r3, [sp, #4]
 1390 02cc 2A46     		mov	r2, r5
 1391 02ce 2346     		mov	r3, r4
 1392 02d0 FFF7FEFF 		bl	gdispGFillArea
 1393              	.L79:
 1394              		.loc 1 371 0
 1395 02d4 079B     		ldr	r3, [sp, #28]
 1396 02d6 9868     		ldr	r0, [r3, #8]
 1397 02d8 079B     		ldr	r3, [sp, #28]
 1398 02da 9989     		ldrh	r1, [r3, #12]
 1399 02dc 079B     		ldr	r3, [sp, #28]
 1400 02de DD89     		ldrh	r5, [r3, #14]
 1401 02e0 079B     		ldr	r3, [sp, #28]
 1402 02e2 1C8A     		ldrh	r4, [r3, #16]
 1403 02e4 079B     		ldr	r3, [sp, #28]
 1404 02e6 5A8A     		ldrh	r2, [r3, #18]
 1405 02e8 099B     		ldr	r3, [sp, #36]
 1406 02ea 5B88     		ldrh	r3, [r3, #2]
 1407 02ec 09B2     		sxth	r1, r1
 1408 02ee 2DB2     		sxth	r5, r5
 1409 02f0 24B2     		sxth	r4, r4
 1410 02f2 12B2     		sxth	r2, r2
 1411 02f4 0092     		str	r2, [sp]
 1412 02f6 0193     		str	r3, [sp, #4]
 1413 02f8 2A46     		mov	r2, r5
 1414 02fa 2346     		mov	r3, r4
ARM GAS  /tmp/cc57xKLi.s 			page 26


 1415 02fc FFF7FEFF 		bl	gdispGDrawBox
 1416              		.loc 1 372 0
 1417 0300 079B     		ldr	r3, [sp, #28]
 1418 0302 9868     		ldr	r0, [r3, #8]
 1419 0304 079B     		ldr	r3, [sp, #28]
 1420 0306 9B89     		ldrh	r3, [r3, #12]
 1421 0308 9AB2     		uxth	r2, r3
 1422 030a 079B     		ldr	r3, [sp, #28]
 1423 030c 1B8E     		ldrh	r3, [r3, #48]
 1424 030e 9BB2     		uxth	r3, r3
 1425 0310 1344     		add	r3, r3, r2
 1426 0312 9BB2     		uxth	r3, r3
 1427 0314 99B2     		uxth	r1, r3
 1428 0316 079B     		ldr	r3, [sp, #28]
 1429 0318 DD89     		ldrh	r5, [r3, #14]
 1430 031a 079B     		ldr	r3, [sp, #28]
 1431 031c 9B89     		ldrh	r3, [r3, #12]
 1432 031e 9AB2     		uxth	r2, r3
 1433 0320 079B     		ldr	r3, [sp, #28]
 1434 0322 1B8E     		ldrh	r3, [r3, #48]
 1435 0324 9BB2     		uxth	r3, r3
 1436 0326 1344     		add	r3, r3, r2
 1437 0328 9BB2     		uxth	r3, r3
 1438 032a 9CB2     		uxth	r4, r3
 1439 032c 079B     		ldr	r3, [sp, #28]
 1440 032e DB89     		ldrh	r3, [r3, #14]
 1441 0330 9AB2     		uxth	r2, r3
 1442 0332 079B     		ldr	r3, [sp, #28]
 1443 0334 5B8A     		ldrh	r3, [r3, #18]
 1444 0336 9BB2     		uxth	r3, r3
 1445 0338 1344     		add	r3, r3, r2
 1446 033a 9BB2     		uxth	r3, r3
 1447 033c 013B     		subs	r3, r3, #1
 1448 033e 9BB2     		uxth	r3, r3
 1449 0340 9AB2     		uxth	r2, r3
 1450 0342 099B     		ldr	r3, [sp, #36]
 1451 0344 5B88     		ldrh	r3, [r3, #2]
 1452 0346 09B2     		sxth	r1, r1
 1453 0348 2DB2     		sxth	r5, r5
 1454 034a 24B2     		sxth	r4, r4
 1455 034c 12B2     		sxth	r2, r2
 1456 034e 0092     		str	r2, [sp]
 1457 0350 0193     		str	r3, [sp, #4]
 1458 0352 2A46     		mov	r2, r5
 1459 0354 2346     		mov	r3, r4
 1460 0356 FFF7FEFF 		bl	gdispGDrawLine
 1461              		.loc 1 373 0
 1462 035a 079B     		ldr	r3, [sp, #28]
 1463 035c 1B8E     		ldrh	r3, [r3, #48]
 1464 035e 1BB2     		sxth	r3, r3
 1465 0360 012B     		cmp	r3, #1
 1466 0362 30DD     		ble	.L80
 1467              		.loc 1 374 0
 1468 0364 079B     		ldr	r3, [sp, #28]
 1469 0366 9868     		ldr	r0, [r3, #8]
 1470 0368 079B     		ldr	r3, [sp, #28]
 1471 036a 9B89     		ldrh	r3, [r3, #12]
ARM GAS  /tmp/cc57xKLi.s 			page 27


 1472 036c 9AB2     		uxth	r2, r3
 1473 036e 079B     		ldr	r3, [sp, #28]
 1474 0370 1B8E     		ldrh	r3, [r3, #48]
 1475 0372 9BB2     		uxth	r3, r3
 1476 0374 1344     		add	r3, r3, r2
 1477 0376 9BB2     		uxth	r3, r3
 1478 0378 023B     		subs	r3, r3, #2
 1479 037a 9BB2     		uxth	r3, r3
 1480 037c 99B2     		uxth	r1, r3
 1481 037e 079B     		ldr	r3, [sp, #28]
 1482 0380 DD89     		ldrh	r5, [r3, #14]
 1483 0382 079B     		ldr	r3, [sp, #28]
 1484 0384 9B89     		ldrh	r3, [r3, #12]
 1485 0386 9AB2     		uxth	r2, r3
 1486 0388 079B     		ldr	r3, [sp, #28]
 1487 038a 1B8E     		ldrh	r3, [r3, #48]
 1488 038c 9BB2     		uxth	r3, r3
 1489 038e 1344     		add	r3, r3, r2
 1490 0390 9BB2     		uxth	r3, r3
 1491 0392 023B     		subs	r3, r3, #2
 1492 0394 9BB2     		uxth	r3, r3
 1493 0396 9CB2     		uxth	r4, r3
 1494 0398 079B     		ldr	r3, [sp, #28]
 1495 039a DB89     		ldrh	r3, [r3, #14]
 1496 039c 9AB2     		uxth	r2, r3
 1497 039e 079B     		ldr	r3, [sp, #28]
 1498 03a0 5B8A     		ldrh	r3, [r3, #18]
 1499 03a2 9BB2     		uxth	r3, r3
 1500 03a4 1344     		add	r3, r3, r2
 1501 03a6 9BB2     		uxth	r3, r3
 1502 03a8 013B     		subs	r3, r3, #1
 1503 03aa 9BB2     		uxth	r3, r3
 1504 03ac 9AB2     		uxth	r2, r3
 1505 03ae 099B     		ldr	r3, [sp, #36]
 1506 03b0 5B88     		ldrh	r3, [r3, #2]
 1507 03b2 09B2     		sxth	r1, r1
 1508 03b4 2DB2     		sxth	r5, r5
 1509 03b6 24B2     		sxth	r4, r4
 1510 03b8 12B2     		sxth	r2, r2
 1511 03ba 0092     		str	r2, [sp]
 1512 03bc 0193     		str	r3, [sp, #4]
 1513 03be 2A46     		mov	r2, r5
 1514 03c0 2346     		mov	r3, r4
 1515 03c2 FFF7FEFF 		bl	gdispGDrawLine
 1516              	.L80:
 1517              		.loc 1 375 0
 1518 03c6 079B     		ldr	r3, [sp, #28]
 1519 03c8 1B8E     		ldrh	r3, [r3, #48]
 1520 03ca 1AB2     		sxth	r2, r3
 1521 03cc 079B     		ldr	r3, [sp, #28]
 1522 03ce 1B8A     		ldrh	r3, [r3, #16]
 1523 03d0 1BB2     		sxth	r3, r3
 1524 03d2 023B     		subs	r3, r3, #2
 1525 03d4 9A42     		cmp	r2, r3
 1526 03d6 30DC     		bgt	.L77
 1527              		.loc 1 376 0
 1528 03d8 079B     		ldr	r3, [sp, #28]
ARM GAS  /tmp/cc57xKLi.s 			page 28


 1529 03da 9868     		ldr	r0, [r3, #8]
 1530 03dc 079B     		ldr	r3, [sp, #28]
 1531 03de 9B89     		ldrh	r3, [r3, #12]
 1532 03e0 9AB2     		uxth	r2, r3
 1533 03e2 079B     		ldr	r3, [sp, #28]
 1534 03e4 1B8E     		ldrh	r3, [r3, #48]
 1535 03e6 9BB2     		uxth	r3, r3
 1536 03e8 1344     		add	r3, r3, r2
 1537 03ea 9BB2     		uxth	r3, r3
 1538 03ec 0233     		adds	r3, r3, #2
 1539 03ee 9BB2     		uxth	r3, r3
 1540 03f0 99B2     		uxth	r1, r3
 1541 03f2 079B     		ldr	r3, [sp, #28]
 1542 03f4 DD89     		ldrh	r5, [r3, #14]
 1543 03f6 079B     		ldr	r3, [sp, #28]
 1544 03f8 9B89     		ldrh	r3, [r3, #12]
 1545 03fa 9AB2     		uxth	r2, r3
 1546 03fc 079B     		ldr	r3, [sp, #28]
 1547 03fe 1B8E     		ldrh	r3, [r3, #48]
 1548 0400 9BB2     		uxth	r3, r3
 1549 0402 1344     		add	r3, r3, r2
 1550 0404 9BB2     		uxth	r3, r3
 1551 0406 0233     		adds	r3, r3, #2
 1552 0408 9BB2     		uxth	r3, r3
 1553 040a 9CB2     		uxth	r4, r3
 1554 040c 079B     		ldr	r3, [sp, #28]
 1555 040e DB89     		ldrh	r3, [r3, #14]
 1556 0410 9AB2     		uxth	r2, r3
 1557 0412 079B     		ldr	r3, [sp, #28]
 1558 0414 5B8A     		ldrh	r3, [r3, #18]
 1559 0416 9BB2     		uxth	r3, r3
 1560 0418 1344     		add	r3, r3, r2
 1561 041a 9BB2     		uxth	r3, r3
 1562 041c 013B     		subs	r3, r3, #1
 1563 041e 9BB2     		uxth	r3, r3
 1564 0420 9AB2     		uxth	r2, r3
 1565 0422 099B     		ldr	r3, [sp, #36]
 1566 0424 5B88     		ldrh	r3, [r3, #2]
 1567 0426 09B2     		sxth	r1, r1
 1568 0428 2DB2     		sxth	r5, r5
 1569 042a 24B2     		sxth	r4, r4
 1570 042c 12B2     		sxth	r2, r2
 1571 042e 0092     		str	r2, [sp]
 1572 0430 0193     		str	r3, [sp, #4]
 1573 0432 2A46     		mov	r2, r5
 1574 0434 2346     		mov	r3, r4
 1575 0436 FFF7FEFF 		bl	gdispGDrawLine
 1576              	.L77:
 1577              		.loc 1 378 0
 1578 043a 079B     		ldr	r3, [sp, #28]
 1579 043c 9F68     		ldr	r7, [r3, #8]
 1580 043e 079B     		ldr	r3, [sp, #28]
 1581 0440 9B89     		ldrh	r3, [r3, #12]
 1582 0442 9BB2     		uxth	r3, r3
 1583 0444 0133     		adds	r3, r3, #1
 1584 0446 9BB2     		uxth	r3, r3
 1585 0448 9EB2     		uxth	r6, r3
ARM GAS  /tmp/cc57xKLi.s 			page 29


 1586 044a 079B     		ldr	r3, [sp, #28]
 1587 044c DB89     		ldrh	r3, [r3, #14]
 1588 044e 9BB2     		uxth	r3, r3
 1589 0450 0133     		adds	r3, r3, #1
 1590 0452 9BB2     		uxth	r3, r3
 1591 0454 9DB2     		uxth	r5, r3
 1592 0456 079B     		ldr	r3, [sp, #28]
 1593 0458 1B8A     		ldrh	r3, [r3, #16]
 1594 045a 9BB2     		uxth	r3, r3
 1595 045c 023B     		subs	r3, r3, #2
 1596 045e 9BB2     		uxth	r3, r3
 1597 0460 9CB2     		uxth	r4, r3
 1598 0462 079B     		ldr	r3, [sp, #28]
 1599 0464 5B8A     		ldrh	r3, [r3, #18]
 1600 0466 9BB2     		uxth	r3, r3
 1601 0468 023B     		subs	r3, r3, #2
 1602 046a 9BB2     		uxth	r3, r3
 1603 046c 98B2     		uxth	r0, r3
 1604 046e 079B     		ldr	r3, [sp, #28]
 1605 0470 196A     		ldr	r1, [r3, #32]
 1606 0472 079B     		ldr	r3, [sp, #28]
 1607 0474 DA69     		ldr	r2, [r3, #28]
 1608 0476 099B     		ldr	r3, [sp, #36]
 1609 0478 1B88     		ldrh	r3, [r3]
 1610 047a 36B2     		sxth	r6, r6
 1611 047c 2DB2     		sxth	r5, r5
 1612 047e 24B2     		sxth	r4, r4
 1613 0480 00B2     		sxth	r0, r0
 1614 0482 0090     		str	r0, [sp]
 1615 0484 0191     		str	r1, [sp, #4]
 1616 0486 0292     		str	r2, [sp, #8]
 1617 0488 0393     		str	r3, [sp, #12]
 1618 048a 0123     		movs	r3, #1
 1619 048c 0493     		str	r3, [sp, #16]
 1620 048e 3846     		mov	r0, r7
 1621 0490 3146     		mov	r1, r6
 1622 0492 2A46     		mov	r2, r5
 1623 0494 2346     		mov	r3, r4
 1624 0496 FFF7FEFF 		bl	gdispGDrawStringBox
 1625              	.L67:
 1626              		.loc 1 381 0
 1627 049a 0BB0     		add	sp, sp, #44
 1628              		.cfi_def_cfa_offset 20
 1629              		@ sp needed
 1630 049c F0BD     		pop	{r4, r5, r6, r7, pc}
 1631              		.cfi_endproc
 1632              	.LFE122:
 1633              		.size	gwinSliderDraw_Std, .-gwinSliderDraw_Std
 1634 049e 00BF     		.section	.text.gwinSliderDraw_Image,"ax",%progbits
 1635              		.align	2
 1636              		.p2align 4,,15
 1637              		.global	gwinSliderDraw_Image
 1638              		.thumb
 1639              		.thumb_func
 1640              		.type	gwinSliderDraw_Image, %function
 1641              	gwinSliderDraw_Image:
 1642              	.LFB123:
ARM GAS  /tmp/cc57xKLi.s 			page 30


 1643              		.loc 1 384 0
 1644              		.cfi_startproc
 1645              		@ args = 0, pretend = 0, frame = 16
 1646              		@ frame_needed = 0, uses_anonymous_args = 0
 1647 0000 F0B5     		push	{r4, r5, r6, r7, lr}
 1648              		.cfi_def_cfa_offset 20
 1649              		.cfi_offset 4, -20
 1650              		.cfi_offset 5, -16
 1651              		.cfi_offset 6, -12
 1652              		.cfi_offset 7, -8
 1653              		.cfi_offset 14, -4
 1654 0002 8BB0     		sub	sp, sp, #44
 1655              		.cfi_def_cfa_offset 64
 1656 0004 0790     		str	r0, [sp, #28]
 1657 0006 0691     		str	r1, [sp, #24]
 1658              		.loc 1 390 0
 1659 0008 079B     		ldr	r3, [sp, #28]
 1660 000a 5B68     		ldr	r3, [r3, #4]
 1661 000c 894A     		ldr	r2, .L100
 1662 000e 9342     		cmp	r3, r2
 1663 0010 00D0     		beq	.L84
 1664              		.loc 1 391 0
 1665 0012 CCE1     		b	.L83
 1666              	.L84:
 1667              		.loc 1 393 0
 1668 0014 079B     		ldr	r3, [sp, #28]
 1669 0016 9B69     		ldr	r3, [r3, #24]
 1670 0018 03F40063 		and	r3, r3, #2048
 1671 001c 002B     		cmp	r3, #0
 1672 001e 04D0     		beq	.L86
 1673              		.loc 1 394 0
 1674 0020 079B     		ldr	r3, [sp, #28]
 1675 0022 DB6A     		ldr	r3, [r3, #44]
 1676 0024 1233     		adds	r3, r3, #18
 1677 0026 0993     		str	r3, [sp, #36]
 1678 0028 03E0     		b	.L87
 1679              	.L86:
 1680              		.loc 1 396 0
 1681 002a 079B     		ldr	r3, [sp, #28]
 1682 002c DB6A     		ldr	r3, [r3, #44]
 1683 002e 0A33     		adds	r3, r3, #10
 1684 0030 0993     		str	r3, [sp, #36]
 1685              	.L87:
 1686              		.loc 1 398 0
 1687 0032 079B     		ldr	r3, [sp, #28]
 1688 0034 1A8A     		ldrh	r2, [r3, #16]
 1689 0036 079B     		ldr	r3, [sp, #28]
 1690 0038 5B8A     		ldrh	r3, [r3, #18]
 1691 003a 12B2     		sxth	r2, r2
 1692 003c 1BB2     		sxth	r3, r3
 1693 003e 9A42     		cmp	r2, r3
 1694 0040 80F2BE80 		bge	.L88
 1695              		.loc 1 399 0
 1696 0044 079B     		ldr	r3, [sp, #28]
 1697 0046 1B8E     		ldrh	r3, [r3, #48]
 1698 0048 002B     		cmp	r3, #0
 1699 004a 16D0     		beq	.L89
ARM GAS  /tmp/cc57xKLi.s 			page 31


 1700              		.loc 1 400 0
 1701 004c 079B     		ldr	r3, [sp, #28]
 1702 004e 9868     		ldr	r0, [r3, #8]
 1703 0050 079B     		ldr	r3, [sp, #28]
 1704 0052 9989     		ldrh	r1, [r3, #12]
 1705 0054 079B     		ldr	r3, [sp, #28]
 1706 0056 DD89     		ldrh	r5, [r3, #14]
 1707 0058 079B     		ldr	r3, [sp, #28]
 1708 005a 1C8A     		ldrh	r4, [r3, #16]
 1709 005c 079B     		ldr	r3, [sp, #28]
 1710 005e 1A8E     		ldrh	r2, [r3, #48]
 1711 0060 079B     		ldr	r3, [sp, #28]
 1712 0062 DB6A     		ldr	r3, [r3, #44]
 1713 0064 1B89     		ldrh	r3, [r3, #8]
 1714 0066 09B2     		sxth	r1, r1
 1715 0068 2DB2     		sxth	r5, r5
 1716 006a 24B2     		sxth	r4, r4
 1717 006c 12B2     		sxth	r2, r2
 1718 006e 0092     		str	r2, [sp]
 1719 0070 0193     		str	r3, [sp, #4]
 1720 0072 2A46     		mov	r2, r5
 1721 0074 2346     		mov	r3, r4
 1722 0076 FFF7FEFF 		bl	gdispGFillArea
 1723              	.L89:
 1724              		.loc 1 401 0
 1725 007a 079B     		ldr	r3, [sp, #28]
 1726 007c 1B8E     		ldrh	r3, [r3, #48]
 1727 007e 1AB2     		sxth	r2, r3
 1728 0080 079B     		ldr	r3, [sp, #28]
 1729 0082 5B8A     		ldrh	r3, [r3, #18]
 1730 0084 1BB2     		sxth	r3, r3
 1731 0086 013B     		subs	r3, r3, #1
 1732 0088 9A42     		cmp	r2, r3
 1733 008a 55D0     		beq	.L90
 1734              		.loc 1 402 0
 1735 008c 079B     		ldr	r3, [sp, #28]
 1736 008e 5B8A     		ldrh	r3, [r3, #18]	@ movhi
 1737 0090 ADF82230 		strh	r3, [sp, #34]	@ movhi
 1738 0094 069B     		ldr	r3, [sp, #24]
 1739 0096 1B89     		ldrh	r3, [r3, #8]	@ movhi
 1740 0098 ADF82030 		strh	r3, [sp, #32]	@ movhi
 1741 009c 45E0     		b	.L91
 1742              	.L93:
 1743              		.loc 1 403 0
 1744 009e BDF82220 		ldrh	r2, [sp, #34]
 1745 00a2 BDF82030 		ldrh	r3, [sp, #32]
 1746 00a6 D31A     		subs	r3, r2, r3
 1747 00a8 9BB2     		uxth	r3, r3
 1748 00aa ADF82230 		strh	r3, [sp, #34]	@ movhi
 1749              		.loc 1 404 0
 1750 00ae 079B     		ldr	r3, [sp, #28]
 1751 00b0 1B8E     		ldrh	r3, [r3, #48]
 1752 00b2 BDF92220 		ldrsh	r2, [sp, #34]
 1753 00b6 1BB2     		sxth	r3, r3
 1754 00b8 9A42     		cmp	r2, r3
 1755 00ba 10DA     		bge	.L92
 1756              		.loc 1 405 0
ARM GAS  /tmp/cc57xKLi.s 			page 32


 1757 00bc BDF82220 		ldrh	r2, [sp, #34]
 1758 00c0 079B     		ldr	r3, [sp, #28]
 1759 00c2 1B8E     		ldrh	r3, [r3, #48]
 1760 00c4 9BB2     		uxth	r3, r3
 1761 00c6 D31A     		subs	r3, r2, r3
 1762 00c8 9AB2     		uxth	r2, r3
 1763 00ca BDF82030 		ldrh	r3, [sp, #32]
 1764 00ce 1344     		add	r3, r3, r2
 1765 00d0 9BB2     		uxth	r3, r3
 1766 00d2 ADF82030 		strh	r3, [sp, #32]	@ movhi
 1767              		.loc 1 406 0
 1768 00d6 079B     		ldr	r3, [sp, #28]
 1769 00d8 1B8E     		ldrh	r3, [r3, #48]	@ movhi
 1770 00da ADF82230 		strh	r3, [sp, #34]	@ movhi
 1771              	.L92:
 1772              		.loc 1 408 0
 1773 00de 079B     		ldr	r3, [sp, #28]
 1774 00e0 9968     		ldr	r1, [r3, #8]
 1775 00e2 079B     		ldr	r3, [sp, #28]
 1776 00e4 9E89     		ldrh	r6, [r3, #12]
 1777 00e6 079B     		ldr	r3, [sp, #28]
 1778 00e8 DB89     		ldrh	r3, [r3, #14]
 1779 00ea 9AB2     		uxth	r2, r3
 1780 00ec BDF82230 		ldrh	r3, [sp, #34]
 1781 00f0 1344     		add	r3, r3, r2
 1782 00f2 9BB2     		uxth	r3, r3
 1783 00f4 9CB2     		uxth	r4, r3
 1784 00f6 079B     		ldr	r3, [sp, #28]
 1785 00f8 1D8A     		ldrh	r5, [r3, #16]
 1786 00fa 069B     		ldr	r3, [sp, #24]
 1787 00fc 1B89     		ldrh	r3, [r3, #8]
 1788 00fe 9AB2     		uxth	r2, r3
 1789 0100 BDF82030 		ldrh	r3, [sp, #32]
 1790 0104 D31A     		subs	r3, r2, r3
 1791 0106 9BB2     		uxth	r3, r3
 1792 0108 98B2     		uxth	r0, r3
 1793 010a 32B2     		sxth	r2, r6
 1794 010c 24B2     		sxth	r4, r4
 1795 010e 2BB2     		sxth	r3, r5
 1796 0110 0093     		str	r3, [sp]
 1797 0112 BDF92030 		ldrsh	r3, [sp, #32]
 1798 0116 0193     		str	r3, [sp, #4]
 1799 0118 0023     		movs	r3, #0
 1800 011a 0293     		str	r3, [sp, #8]
 1801 011c 03B2     		sxth	r3, r0
 1802 011e 0393     		str	r3, [sp, #12]
 1803 0120 0846     		mov	r0, r1
 1804 0122 0699     		ldr	r1, [sp, #24]
 1805 0124 2346     		mov	r3, r4
 1806 0126 FFF7FEFF 		bl	gdispGImageDraw
 1807              	.L91:
 1808              		.loc 1 402 0 discriminator 1
 1809 012a 079B     		ldr	r3, [sp, #28]
 1810 012c 1B8E     		ldrh	r3, [r3, #48]
 1811 012e BDF92220 		ldrsh	r2, [sp, #34]
 1812 0132 1BB2     		sxth	r3, r3
 1813 0134 9A42     		cmp	r2, r3
ARM GAS  /tmp/cc57xKLi.s 			page 33


 1814 0136 B2DC     		bgt	.L93
 1815              	.L90:
 1816              		.loc 1 411 0
 1817 0138 079B     		ldr	r3, [sp, #28]
 1818 013a 9868     		ldr	r0, [r3, #8]
 1819 013c 079B     		ldr	r3, [sp, #28]
 1820 013e 9989     		ldrh	r1, [r3, #12]
 1821 0140 079B     		ldr	r3, [sp, #28]
 1822 0142 DD89     		ldrh	r5, [r3, #14]
 1823 0144 079B     		ldr	r3, [sp, #28]
 1824 0146 1C8A     		ldrh	r4, [r3, #16]
 1825 0148 079B     		ldr	r3, [sp, #28]
 1826 014a 5A8A     		ldrh	r2, [r3, #18]
 1827 014c 099B     		ldr	r3, [sp, #36]
 1828 014e 5B88     		ldrh	r3, [r3, #2]
 1829 0150 09B2     		sxth	r1, r1
 1830 0152 2DB2     		sxth	r5, r5
 1831 0154 24B2     		sxth	r4, r4
 1832 0156 12B2     		sxth	r2, r2
 1833 0158 0092     		str	r2, [sp]
 1834 015a 0193     		str	r3, [sp, #4]
 1835 015c 2A46     		mov	r2, r5
 1836 015e 2346     		mov	r3, r4
 1837 0160 FFF7FEFF 		bl	gdispGDrawBox
 1838              		.loc 1 412 0
 1839 0164 079B     		ldr	r3, [sp, #28]
 1840 0166 9868     		ldr	r0, [r3, #8]
 1841 0168 079B     		ldr	r3, [sp, #28]
 1842 016a 9989     		ldrh	r1, [r3, #12]
 1843 016c 079B     		ldr	r3, [sp, #28]
 1844 016e DB89     		ldrh	r3, [r3, #14]
 1845 0170 9AB2     		uxth	r2, r3
 1846 0172 079B     		ldr	r3, [sp, #28]
 1847 0174 1B8E     		ldrh	r3, [r3, #48]
 1848 0176 9BB2     		uxth	r3, r3
 1849 0178 1344     		add	r3, r3, r2
 1850 017a 9BB2     		uxth	r3, r3
 1851 017c 9DB2     		uxth	r5, r3
 1852 017e 079B     		ldr	r3, [sp, #28]
 1853 0180 9B89     		ldrh	r3, [r3, #12]
 1854 0182 9AB2     		uxth	r2, r3
 1855 0184 079B     		ldr	r3, [sp, #28]
 1856 0186 1B8A     		ldrh	r3, [r3, #16]
 1857 0188 9BB2     		uxth	r3, r3
 1858 018a 1344     		add	r3, r3, r2
 1859 018c 9BB2     		uxth	r3, r3
 1860 018e 013B     		subs	r3, r3, #1
 1861 0190 9BB2     		uxth	r3, r3
 1862 0192 9CB2     		uxth	r4, r3
 1863 0194 079B     		ldr	r3, [sp, #28]
 1864 0196 DB89     		ldrh	r3, [r3, #14]
 1865 0198 9AB2     		uxth	r2, r3
 1866 019a 079B     		ldr	r3, [sp, #28]
 1867 019c 1B8E     		ldrh	r3, [r3, #48]
 1868 019e 9BB2     		uxth	r3, r3
 1869 01a0 1344     		add	r3, r3, r2
 1870 01a2 9BB2     		uxth	r3, r3
ARM GAS  /tmp/cc57xKLi.s 			page 34


 1871 01a4 9AB2     		uxth	r2, r3
 1872 01a6 099B     		ldr	r3, [sp, #36]
 1873 01a8 5B88     		ldrh	r3, [r3, #2]
 1874 01aa 09B2     		sxth	r1, r1
 1875 01ac 2DB2     		sxth	r5, r5
 1876 01ae 24B2     		sxth	r4, r4
 1877 01b0 12B2     		sxth	r2, r2
 1878 01b2 0092     		str	r2, [sp]
 1879 01b4 0193     		str	r3, [sp, #4]
 1880 01b6 2A46     		mov	r2, r5
 1881 01b8 2346     		mov	r3, r4
 1882 01ba FFF7FEFF 		bl	gdispGDrawLine
 1883 01be C6E0     		b	.L94
 1884              	.L88:
 1885              		.loc 1 416 0
 1886 01c0 079B     		ldr	r3, [sp, #28]
 1887 01c2 1B8E     		ldrh	r3, [r3, #48]
 1888 01c4 1AB2     		sxth	r2, r3
 1889 01c6 079B     		ldr	r3, [sp, #28]
 1890 01c8 1B8A     		ldrh	r3, [r3, #16]
 1891 01ca 1BB2     		sxth	r3, r3
 1892 01cc 013B     		subs	r3, r3, #1
 1893 01ce 9A42     		cmp	r2, r3
 1894 01d0 24D0     		beq	.L95
 1895              		.loc 1 417 0
 1896 01d2 079B     		ldr	r3, [sp, #28]
 1897 01d4 9868     		ldr	r0, [r3, #8]
 1898 01d6 079B     		ldr	r3, [sp, #28]
 1899 01d8 9B89     		ldrh	r3, [r3, #12]
 1900 01da 9AB2     		uxth	r2, r3
 1901 01dc 079B     		ldr	r3, [sp, #28]
 1902 01de 1B8E     		ldrh	r3, [r3, #48]
 1903 01e0 9BB2     		uxth	r3, r3
 1904 01e2 1344     		add	r3, r3, r2
 1905 01e4 9BB2     		uxth	r3, r3
 1906 01e6 99B2     		uxth	r1, r3
 1907 01e8 079B     		ldr	r3, [sp, #28]
 1908 01ea DD89     		ldrh	r5, [r3, #14]
 1909 01ec 079B     		ldr	r3, [sp, #28]
 1910 01ee 1B8A     		ldrh	r3, [r3, #16]
 1911 01f0 9AB2     		uxth	r2, r3
 1912 01f2 079B     		ldr	r3, [sp, #28]
 1913 01f4 1B8E     		ldrh	r3, [r3, #48]
 1914 01f6 9BB2     		uxth	r3, r3
 1915 01f8 D31A     		subs	r3, r2, r3
 1916 01fa 9BB2     		uxth	r3, r3
 1917 01fc 9CB2     		uxth	r4, r3
 1918 01fe 079B     		ldr	r3, [sp, #28]
 1919 0200 5A8A     		ldrh	r2, [r3, #18]
 1920 0202 079B     		ldr	r3, [sp, #28]
 1921 0204 DB6A     		ldr	r3, [r3, #44]
 1922 0206 1B89     		ldrh	r3, [r3, #8]
 1923 0208 09B2     		sxth	r1, r1
 1924 020a 2DB2     		sxth	r5, r5
 1925 020c 24B2     		sxth	r4, r4
 1926 020e 12B2     		sxth	r2, r2
 1927 0210 0092     		str	r2, [sp]
ARM GAS  /tmp/cc57xKLi.s 			page 35


 1928 0212 0193     		str	r3, [sp, #4]
 1929 0214 2A46     		mov	r2, r5
 1930 0216 2346     		mov	r3, r4
 1931 0218 FFF7FEFF 		bl	gdispGFillArea
 1932              	.L95:
 1933              		.loc 1 418 0
 1934 021c 079B     		ldr	r3, [sp, #28]
 1935 021e 1B8E     		ldrh	r3, [r3, #48]
 1936 0220 002B     		cmp	r3, #0
 1937 0222 51D0     		beq	.L96
 1938              		.loc 1 419 0
 1939 0224 0023     		movs	r3, #0
 1940 0226 ADF82230 		strh	r3, [sp, #34]	@ movhi
 1941 022a 069B     		ldr	r3, [sp, #24]
 1942 022c DB88     		ldrh	r3, [r3, #6]	@ movhi
 1943 022e ADF82030 		strh	r3, [sp, #32]	@ movhi
 1944 0232 42E0     		b	.L97
 1945              	.L101:
 1946              		.align	2
 1947              	.L100:
 1948 0234 00000000 		.word	sliderVMT
 1949              	.L99:
 1950              		.loc 1 420 0
 1951 0238 BDF92220 		ldrsh	r2, [sp, #34]
 1952 023c BDF92030 		ldrsh	r3, [sp, #32]
 1953 0240 1A44     		add	r2, r2, r3
 1954 0242 079B     		ldr	r3, [sp, #28]
 1955 0244 1B8E     		ldrh	r3, [r3, #48]
 1956 0246 1BB2     		sxth	r3, r3
 1957 0248 9A42     		cmp	r2, r3
 1958 024a 10DD     		ble	.L98
 1959              		.loc 1 421 0
 1960 024c 079B     		ldr	r3, [sp, #28]
 1961 024e 1B8E     		ldrh	r3, [r3, #48]
 1962 0250 9AB2     		uxth	r2, r3
 1963 0252 BDF82210 		ldrh	r1, [sp, #34]
 1964 0256 BDF82030 		ldrh	r3, [sp, #32]
 1965 025a 0B44     		add	r3, r3, r1
 1966 025c 9BB2     		uxth	r3, r3
 1967 025e D31A     		subs	r3, r2, r3
 1968 0260 9AB2     		uxth	r2, r3
 1969 0262 BDF82030 		ldrh	r3, [sp, #32]
 1970 0266 1344     		add	r3, r3, r2
 1971 0268 9BB2     		uxth	r3, r3
 1972 026a ADF82030 		strh	r3, [sp, #32]	@ movhi
 1973              	.L98:
 1974              		.loc 1 422 0 discriminator 2
 1975 026e 079B     		ldr	r3, [sp, #28]
 1976 0270 9968     		ldr	r1, [r3, #8]
 1977 0272 079B     		ldr	r3, [sp, #28]
 1978 0274 9B89     		ldrh	r3, [r3, #12]
 1979 0276 9AB2     		uxth	r2, r3
 1980 0278 BDF82230 		ldrh	r3, [sp, #34]
 1981 027c 1344     		add	r3, r3, r2
 1982 027e 9BB2     		uxth	r3, r3
 1983 0280 9AB2     		uxth	r2, r3
 1984 0282 079B     		ldr	r3, [sp, #28]
ARM GAS  /tmp/cc57xKLi.s 			page 36


 1985 0284 DC89     		ldrh	r4, [r3, #14]
 1986 0286 079B     		ldr	r3, [sp, #28]
 1987 0288 588A     		ldrh	r0, [r3, #18]
 1988 028a 12B2     		sxth	r2, r2
 1989 028c 24B2     		sxth	r4, r4
 1990 028e BDF92030 		ldrsh	r3, [sp, #32]
 1991 0292 0093     		str	r3, [sp]
 1992 0294 03B2     		sxth	r3, r0
 1993 0296 0193     		str	r3, [sp, #4]
 1994 0298 0023     		movs	r3, #0
 1995 029a 0293     		str	r3, [sp, #8]
 1996 029c 0023     		movs	r3, #0
 1997 029e 0393     		str	r3, [sp, #12]
 1998 02a0 0846     		mov	r0, r1
 1999 02a2 0699     		ldr	r1, [sp, #24]
 2000 02a4 2346     		mov	r3, r4
 2001 02a6 FFF7FEFF 		bl	gdispGImageDraw
 2002              		.loc 1 419 0 discriminator 2
 2003 02aa BDF82220 		ldrh	r2, [sp, #34]
 2004 02ae BDF82030 		ldrh	r3, [sp, #32]
 2005 02b2 1344     		add	r3, r3, r2
 2006 02b4 9BB2     		uxth	r3, r3
 2007 02b6 ADF82230 		strh	r3, [sp, #34]	@ movhi
 2008              	.L97:
 2009              		.loc 1 419 0 is_stmt 0 discriminator 1
 2010 02ba 079B     		ldr	r3, [sp, #28]
 2011 02bc 1B8E     		ldrh	r3, [r3, #48]
 2012 02be BDF92220 		ldrsh	r2, [sp, #34]
 2013 02c2 1BB2     		sxth	r3, r3
 2014 02c4 9A42     		cmp	r2, r3
 2015 02c6 B7DB     		blt	.L99
 2016              	.L96:
 2017              		.loc 1 425 0 is_stmt 1
 2018 02c8 079B     		ldr	r3, [sp, #28]
 2019 02ca 9868     		ldr	r0, [r3, #8]
 2020 02cc 079B     		ldr	r3, [sp, #28]
 2021 02ce 9989     		ldrh	r1, [r3, #12]
 2022 02d0 079B     		ldr	r3, [sp, #28]
 2023 02d2 DD89     		ldrh	r5, [r3, #14]
 2024 02d4 079B     		ldr	r3, [sp, #28]
 2025 02d6 1C8A     		ldrh	r4, [r3, #16]
 2026 02d8 079B     		ldr	r3, [sp, #28]
 2027 02da 5A8A     		ldrh	r2, [r3, #18]
 2028 02dc 099B     		ldr	r3, [sp, #36]
 2029 02de 5B88     		ldrh	r3, [r3, #2]
 2030 02e0 09B2     		sxth	r1, r1
 2031 02e2 2DB2     		sxth	r5, r5
 2032 02e4 24B2     		sxth	r4, r4
 2033 02e6 12B2     		sxth	r2, r2
 2034 02e8 0092     		str	r2, [sp]
 2035 02ea 0193     		str	r3, [sp, #4]
 2036 02ec 2A46     		mov	r2, r5
 2037 02ee 2346     		mov	r3, r4
 2038 02f0 FFF7FEFF 		bl	gdispGDrawBox
 2039              		.loc 1 426 0
 2040 02f4 079B     		ldr	r3, [sp, #28]
 2041 02f6 9868     		ldr	r0, [r3, #8]
ARM GAS  /tmp/cc57xKLi.s 			page 37


 2042 02f8 079B     		ldr	r3, [sp, #28]
 2043 02fa 9B89     		ldrh	r3, [r3, #12]
 2044 02fc 9AB2     		uxth	r2, r3
 2045 02fe 079B     		ldr	r3, [sp, #28]
 2046 0300 1B8E     		ldrh	r3, [r3, #48]
 2047 0302 9BB2     		uxth	r3, r3
 2048 0304 1344     		add	r3, r3, r2
 2049 0306 9BB2     		uxth	r3, r3
 2050 0308 99B2     		uxth	r1, r3
 2051 030a 079B     		ldr	r3, [sp, #28]
 2052 030c DD89     		ldrh	r5, [r3, #14]
 2053 030e 079B     		ldr	r3, [sp, #28]
 2054 0310 9B89     		ldrh	r3, [r3, #12]
 2055 0312 9AB2     		uxth	r2, r3
 2056 0314 079B     		ldr	r3, [sp, #28]
 2057 0316 1B8E     		ldrh	r3, [r3, #48]
 2058 0318 9BB2     		uxth	r3, r3
 2059 031a 1344     		add	r3, r3, r2
 2060 031c 9BB2     		uxth	r3, r3
 2061 031e 9CB2     		uxth	r4, r3
 2062 0320 079B     		ldr	r3, [sp, #28]
 2063 0322 DB89     		ldrh	r3, [r3, #14]
 2064 0324 9AB2     		uxth	r2, r3
 2065 0326 079B     		ldr	r3, [sp, #28]
 2066 0328 5B8A     		ldrh	r3, [r3, #18]
 2067 032a 9BB2     		uxth	r3, r3
 2068 032c 1344     		add	r3, r3, r2
 2069 032e 9BB2     		uxth	r3, r3
 2070 0330 013B     		subs	r3, r3, #1
 2071 0332 9BB2     		uxth	r3, r3
 2072 0334 9AB2     		uxth	r2, r3
 2073 0336 099B     		ldr	r3, [sp, #36]
 2074 0338 5B88     		ldrh	r3, [r3, #2]
 2075 033a 09B2     		sxth	r1, r1
 2076 033c 2DB2     		sxth	r5, r5
 2077 033e 24B2     		sxth	r4, r4
 2078 0340 12B2     		sxth	r2, r2
 2079 0342 0092     		str	r2, [sp]
 2080 0344 0193     		str	r3, [sp, #4]
 2081 0346 2A46     		mov	r2, r5
 2082 0348 2346     		mov	r3, r4
 2083 034a FFF7FEFF 		bl	gdispGDrawLine
 2084              	.L94:
 2085              		.loc 1 428 0
 2086 034e 079B     		ldr	r3, [sp, #28]
 2087 0350 9F68     		ldr	r7, [r3, #8]
 2088 0352 079B     		ldr	r3, [sp, #28]
 2089 0354 9B89     		ldrh	r3, [r3, #12]
 2090 0356 9BB2     		uxth	r3, r3
 2091 0358 0133     		adds	r3, r3, #1
 2092 035a 9BB2     		uxth	r3, r3
 2093 035c 9EB2     		uxth	r6, r3
 2094 035e 079B     		ldr	r3, [sp, #28]
 2095 0360 DB89     		ldrh	r3, [r3, #14]
 2096 0362 9BB2     		uxth	r3, r3
 2097 0364 0133     		adds	r3, r3, #1
 2098 0366 9BB2     		uxth	r3, r3
ARM GAS  /tmp/cc57xKLi.s 			page 38


 2099 0368 9DB2     		uxth	r5, r3
 2100 036a 079B     		ldr	r3, [sp, #28]
 2101 036c 1B8A     		ldrh	r3, [r3, #16]
 2102 036e 9BB2     		uxth	r3, r3
 2103 0370 023B     		subs	r3, r3, #2
 2104 0372 9BB2     		uxth	r3, r3
 2105 0374 9CB2     		uxth	r4, r3
 2106 0376 079B     		ldr	r3, [sp, #28]
 2107 0378 5B8A     		ldrh	r3, [r3, #18]
 2108 037a 9BB2     		uxth	r3, r3
 2109 037c 023B     		subs	r3, r3, #2
 2110 037e 9BB2     		uxth	r3, r3
 2111 0380 98B2     		uxth	r0, r3
 2112 0382 079B     		ldr	r3, [sp, #28]
 2113 0384 196A     		ldr	r1, [r3, #32]
 2114 0386 079B     		ldr	r3, [sp, #28]
 2115 0388 DA69     		ldr	r2, [r3, #28]
 2116 038a 099B     		ldr	r3, [sp, #36]
 2117 038c 1B88     		ldrh	r3, [r3]
 2118 038e 36B2     		sxth	r6, r6
 2119 0390 2DB2     		sxth	r5, r5
 2120 0392 24B2     		sxth	r4, r4
 2121 0394 00B2     		sxth	r0, r0
 2122 0396 0090     		str	r0, [sp]
 2123 0398 0191     		str	r1, [sp, #4]
 2124 039a 0292     		str	r2, [sp, #8]
 2125 039c 0393     		str	r3, [sp, #12]
 2126 039e 0123     		movs	r3, #1
 2127 03a0 0493     		str	r3, [sp, #16]
 2128 03a2 3846     		mov	r0, r7
 2129 03a4 3146     		mov	r1, r6
 2130 03a6 2A46     		mov	r2, r5
 2131 03a8 2346     		mov	r3, r4
 2132 03aa FFF7FEFF 		bl	gdispGDrawStringBox
 2133              	.L83:
 2134              		.loc 1 432 0
 2135 03ae 0BB0     		add	sp, sp, #44
 2136              		.cfi_def_cfa_offset 20
 2137              		@ sp needed
 2138 03b0 F0BD     		pop	{r4, r5, r6, r7, pc}
 2139              		.cfi_endproc
 2140              	.LFE123:
 2141              		.size	gwinSliderDraw_Image, .-gwinSliderDraw_Image
 2142 03b2 00BFAFF3 		.text
 2142      0080AFF3 
 2142      0080AFF3 
 2142      0080
 2143              	.Letext0:
 2144              		.file 2 "/opt/gcc-arm-none-eabi/lib/gcc/arm-none-eabi/4.9.3/include/stddef.h"
 2145              		.file 3 "/opt/gcc-arm-none-eabi/arm-none-eabi/include/machine/_default_types.h"
 2146              		.file 4 "/opt/gcc-arm-none-eabi/arm-none-eabi/include/stdint.h"
 2147              		.file 5 "/home/makkmarci/workspace/ChibiOS_2.6.8/os/ports/GCC/ARMCMx/chtypes.h"
 2148              		.file 6 "/home/makkmarci/workspace/ChibiOS_2.6.8/os/kernel/include/chlists.h"
 2149              		.file 7 "/home/makkmarci/workspace/ChibiOS_2.6.8/os/kernel/include/chthreads.h"
 2150              		.file 8 "/home/makkmarci/workspace/ChibiOS_2.6.8/os/ports/GCC/ARMCMx/chcore_v7m.h"
 2151              		.file 9 "/home/makkmarci/workspace/ChibiOS_2.6.8/os/kernel/include/chsem.h"
 2152              		.file 10 "/home/makkmarci/workspace/ChibiOS_2.6.8/os/kernel/include/chmtx.h"
ARM GAS  /tmp/cc57xKLi.s 			page 39


 2153              		.file 11 "/home/makkmarci/workspace/ugfx/src/gos/gos_chibios.h"
 2154              		.file 12 "/home/makkmarci/workspace/ugfx/src/gfile/gfile.h"
 2155              		.file 13 "/home/makkmarci/workspace/ugfx/src/gqueue/gqueue.h"
 2156              		.file 14 "/home/makkmarci/workspace/ugfx/src/gevent/gevent.h"
 2157              		.file 15 "/home/makkmarci/workspace/ugfx/src/gdisp/gdisp.h"
 2158              		.file 16 "/home/makkmarci/workspace/ugfx/src/gdisp/gdisp_colors.h"
 2159              		.file 17 "/home/makkmarci/workspace/ugfx/src/gdisp/gdisp_image.h"
 2160              		.file 18 "/home/makkmarci/workspace/ugfx/src/gwin/gwin.h"
 2161              		.file 19 "/home/makkmarci/workspace/ugfx/src/gwin/gwin_class.h"
 2162              		.file 20 "/home/makkmarci/workspace/ugfx/src/gwin/gwin_widget.h"
 2163              		.file 21 "/home/makkmarci/workspace/ugfx/src/gwin/gwin_slider.h"
 2164              		.file 22 "/home/makkmarci/workspace/ChibiOS_2.6.8/os/ports/common/ARMCMx/CMSIS/include/core_cm4.h"