ARM GAS  /tmp/cc8hijCZ.s 			page 1


   1              		.syntax unified
   2              		.cpu cortex-m4
   3              		.eabi_attribute 27, 1
   4              		.eabi_attribute 28, 1
   5              		.fpu fpv4-sp-d16
   6              		.eabi_attribute 20, 1
   7              		.eabi_attribute 21, 1
   8              		.eabi_attribute 23, 3
   9              		.eabi_attribute 24, 1
  10              		.eabi_attribute 25, 1
  11              		.eabi_attribute 26, 1
  12              		.eabi_attribute 30, 6
  13              		.eabi_attribute 34, 1
  14              		.eabi_attribute 18, 4
  15              		.thumb
  16              		.file	"gwin.c"
  17              		.text
  18              	.Ltext0:
  19              		.cfi_sections	.debug_frame
  20              		.section	.rodata
  21              		.align	2
  22              	.LC0:
  23 0000 4757494E 		.ascii	"GWIN\000"
  23      00
  24 0005 000000   		.section	.rodata.basegwinVMT,"a",%progbits
  25              		.align	2
  26              		.type	basegwinVMT, %object
  27              		.size	basegwinVMT, 20
  28              	basegwinVMT:
  29 0000 00000000 		.word	.LC0
  30 0004 20000000 		.word	32
  31 0008 00000000 		.word	0
  32 000c 00000000 		.word	0
  33 0010 00000000 		.word	0
  34              		.section	.data.defaultFgColor,"aw",%progbits
  35              		.align	1
  36              		.type	defaultFgColor, %object
  37              		.size	defaultFgColor, 2
  38              	defaultFgColor:
  39 0000 FFFF     		.short	-1
  40              		.section	.bss.defaultBgColor,"aw",%nobits
  41              		.align	1
  42              		.type	defaultBgColor, %object
  43              		.size	defaultBgColor, 2
  44              	defaultBgColor:
  45 0000 0000     		.space	2
  46              		.section	.bss.defaultFont,"aw",%nobits
  47              		.align	2
  48              		.type	defaultFont, %object
  49              		.size	defaultFont, 4
  50              	defaultFont:
  51 0000 00000000 		.space	4
  52              		.section	.text._gwinInit,"ax",%progbits
  53              		.align	2
  54              		.p2align 4,,15
  55              		.global	_gwinInit
  56              		.thumb
ARM GAS  /tmp/cc8hijCZ.s 			page 2


  57              		.thumb_func
  58              		.type	_gwinInit, %function
  59              	_gwinInit:
  60              	.LFB111:
  61              		.file 1 "/home/makkmarci/workspace/ugfx/src/gwin/gwin.c"
  62              		.loc 1 48 0
  63              		.cfi_startproc
  64              		@ args = 0, pretend = 0, frame = 0
  65              		@ frame_needed = 0, uses_anonymous_args = 0
  66 0000 08B5     		push	{r3, lr}
  67              		.cfi_def_cfa_offset 8
  68              		.cfi_offset 3, -8
  69              		.cfi_offset 14, -4
  70              		.loc 1 51 0
  71 0002 FFF7FEFF 		bl	_gwmInit
  72              		.loc 1 55 0
  73 0006 FFF7FEFF 		bl	_gwidgetInit
  74              		.loc 1 62 0
  75 000a 08BD     		pop	{r3, pc}
  76              		.cfi_endproc
  77              	.LFE111:
  78              		.size	_gwinInit, .-_gwinInit
  79 000c AFF30080 		.section	.text._gwinDeinit,"ax",%progbits
  80              		.align	2
  81              		.p2align 4,,15
  82              		.global	_gwinDeinit
  83              		.thumb
  84              		.thumb_func
  85              		.type	_gwinDeinit, %function
  86              	_gwinDeinit:
  87              	.LFB112:
  88              		.loc 1 65 0
  89              		.cfi_startproc
  90              		@ args = 0, pretend = 0, frame = 0
  91              		@ frame_needed = 0, uses_anonymous_args = 0
  92 0000 08B5     		push	{r3, lr}
  93              		.cfi_def_cfa_offset 8
  94              		.cfi_offset 3, -8
  95              		.cfi_offset 14, -4
  96              		.loc 1 76 0
  97 0002 FFF7FEFF 		bl	_gwidgetDeinit
  98              		.loc 1 79 0
  99 0006 FFF7FEFF 		bl	_gwmDeinit
 100              		.loc 1 80 0
 101 000a 08BD     		pop	{r3, pc}
 102              		.cfi_endproc
 103              	.LFE112:
 104              		.size	_gwinDeinit, .-_gwinDeinit
 105 000c AFF30080 		.section	.text._gwindowCreate,"ax",%progbits
 106              		.align	2
 107              		.p2align 4,,15
 108              		.global	_gwindowCreate
 109              		.thumb
 110              		.thumb_func
 111              		.type	_gwindowCreate, %function
 112              	_gwindowCreate:
 113              	.LFB113:
ARM GAS  /tmp/cc8hijCZ.s 			page 3


 114              		.loc 1 84 0
 115              		.cfi_startproc
 116              		@ args = 4, pretend = 0, frame = 16
 117              		@ frame_needed = 0, uses_anonymous_args = 0
 118 0000 00B5     		push	{lr}
 119              		.cfi_def_cfa_offset 4
 120              		.cfi_offset 14, -4
 121 0002 85B0     		sub	sp, sp, #20
 122              		.cfi_def_cfa_offset 24
 123 0004 0390     		str	r0, [sp, #12]
 124 0006 0291     		str	r1, [sp, #8]
 125 0008 0192     		str	r2, [sp, #4]
 126 000a 0093     		str	r3, [sp]
 127              		.loc 1 86 0
 128 000c 029B     		ldr	r3, [sp, #8]
 129 000e 002B     		cmp	r3, #0
 130 0010 11D1     		bne	.L4
 131              		.loc 1 87 0
 132 0012 009B     		ldr	r3, [sp]
 133 0014 5B68     		ldr	r3, [r3, #4]
 134 0016 0020     		movs	r0, #0
 135 0018 1946     		mov	r1, r3
 136 001a FFF7FEFF 		bl	chHeapAlloc
 137 001e 0290     		str	r0, [sp, #8]
 138 0020 029B     		ldr	r3, [sp, #8]
 139 0022 002B     		cmp	r3, #0
 140 0024 01D1     		bne	.L5
 141              		.loc 1 88 0
 142 0026 0023     		movs	r3, #0
 143 0028 3FE0     		b	.L6
 144              	.L5:
 145              		.loc 1 89 0
 146 002a 069B     		ldr	r3, [sp, #24]
 147 002c 43F48052 		orr	r2, r3, #4096
 148 0030 029B     		ldr	r3, [sp, #8]
 149 0032 9A61     		str	r2, [r3, #24]
 150 0034 02E0     		b	.L7
 151              	.L4:
 152              		.loc 1 91 0
 153 0036 029B     		ldr	r3, [sp, #8]
 154 0038 069A     		ldr	r2, [sp, #24]
 155 003a 9A61     		str	r2, [r3, #24]
 156              	.L7:
 157              		.loc 1 94 0
 158 003c 029B     		ldr	r3, [sp, #8]
 159 003e 039A     		ldr	r2, [sp, #12]
 160 0040 9A60     		str	r2, [r3, #8]
 161              		.loc 1 95 0
 162 0042 029B     		ldr	r3, [sp, #8]
 163 0044 009A     		ldr	r2, [sp]
 164 0046 5A60     		str	r2, [r3, #4]
 165              		.loc 1 96 0
 166 0048 1A4B     		ldr	r3, .L11
 167 004a 1A88     		ldrh	r2, [r3]
 168 004c 029B     		ldr	r3, [sp, #8]
 169 004e 9A82     		strh	r2, [r3, #20]	@ movhi
 170              		.loc 1 97 0
ARM GAS  /tmp/cc8hijCZ.s 			page 4


 171 0050 194B     		ldr	r3, .L11+4
 172 0052 1A88     		ldrh	r2, [r3]
 173 0054 029B     		ldr	r3, [sp, #8]
 174 0056 DA82     		strh	r2, [r3, #22]	@ movhi
 175              		.loc 1 99 0
 176 0058 184B     		ldr	r3, .L11+8
 177 005a 1A68     		ldr	r2, [r3]
 178 005c 029B     		ldr	r3, [sp, #8]
 179 005e DA61     		str	r2, [r3, #28]
 180              		.loc 1 103 0
 181 0060 009B     		ldr	r3, [sp]
 182 0062 5B68     		ldr	r3, [r3, #4]
 183 0064 202B     		cmp	r3, #32
 184 0066 0AD9     		bls	.L8
 185              		.loc 1 104 0
 186 0068 029B     		ldr	r3, [sp, #8]
 187 006a 03F12002 		add	r2, r3, #32
 188 006e 009B     		ldr	r3, [sp]
 189 0070 5B68     		ldr	r3, [r3, #4]
 190 0072 203B     		subs	r3, r3, #32
 191 0074 1046     		mov	r0, r2
 192 0076 0021     		movs	r1, #0
 193 0078 1A46     		mov	r2, r3
 194 007a FFF7FEFF 		bl	memset
 195              	.L8:
 196              		.loc 1 106 0
 197 007e 0298     		ldr	r0, [sp, #8]
 198 0080 0199     		ldr	r1, [sp, #4]
 199 0082 FFF7FEFF 		bl	_gwinWMAdd
 200 0086 0346     		mov	r3, r0
 201 0088 83F00103 		eor	r3, r3, #1
 202 008c DBB2     		uxtb	r3, r3
 203 008e 002B     		cmp	r3, #0
 204 0090 0AD0     		beq	.L9
 205              		.loc 1 107 0
 206 0092 029B     		ldr	r3, [sp, #8]
 207 0094 9B69     		ldr	r3, [r3, #24]
 208 0096 03F48053 		and	r3, r3, #4096
 209 009a 002B     		cmp	r3, #0
 210 009c 02D0     		beq	.L10
 211              		.loc 1 108 0
 212 009e 0298     		ldr	r0, [sp, #8]
 213 00a0 FFF7FEFF 		bl	chHeapFree
 214              	.L10:
 215              		.loc 1 109 0
 216 00a4 0023     		movs	r3, #0
 217 00a6 00E0     		b	.L6
 218              	.L9:
 219              		.loc 1 112 0
 220 00a8 029B     		ldr	r3, [sp, #8]
 221              	.L6:
 222              		.loc 1 113 0
 223 00aa 1846     		mov	r0, r3
 224 00ac 05B0     		add	sp, sp, #20
 225              		.cfi_def_cfa_offset 4
 226              		@ sp needed
 227 00ae 5DF804FB 		ldr	pc, [sp], #4
ARM GAS  /tmp/cc8hijCZ.s 			page 5


 228              	.L12:
 229 00b2 00BF     		.align	2
 230              	.L11:
 231 00b4 00000000 		.word	defaultFgColor
 232 00b8 00000000 		.word	defaultBgColor
 233 00bc 00000000 		.word	defaultFont
 234              		.cfi_endproc
 235              	.LFE113:
 236              		.size	_gwindowCreate, .-_gwindowCreate
 237              		.section	.text._gwinDestroy,"ax",%progbits
 238              		.align	2
 239              		.p2align 4,,15
 240              		.global	_gwinDestroy
 241              		.thumb
 242              		.thumb_func
 243              		.type	_gwinDestroy, %function
 244              	_gwinDestroy:
 245              	.LFB114:
 246              		.loc 1 116 0
 247              		.cfi_startproc
 248              		@ args = 0, pretend = 0, frame = 8
 249              		@ frame_needed = 0, uses_anonymous_args = 0
 250 0000 00B5     		push	{lr}
 251              		.cfi_def_cfa_offset 4
 252              		.cfi_offset 14, -4
 253 0002 83B0     		sub	sp, sp, #12
 254              		.cfi_def_cfa_offset 16
 255 0004 0190     		str	r0, [sp, #4]
 256 0006 0B46     		mov	r3, r1
 257 0008 8DF80330 		strb	r3, [sp, #3]
 258              		.loc 1 117 0
 259 000c 019B     		ldr	r3, [sp, #4]
 260 000e 002B     		cmp	r3, #0
 261 0010 00D1     		bne	.L14
 262              		.loc 1 118 0
 263 0012 28E0     		b	.L13
 264              	.L14:
 265              		.loc 1 121 0
 266 0014 0198     		ldr	r0, [sp, #4]
 267 0016 0021     		movs	r1, #0
 268 0018 FFF7FEFF 		bl	gwinSetVisible
 269              		.loc 1 124 0
 270 001c 9DF80330 		ldrb	r3, [sp, #3]	@ zero_extendqisi2
 271 0020 1846     		mov	r0, r3
 272 0022 FFF7FEFF 		bl	_gwinFlushRedraws
 273              		.loc 1 134 0
 274 0026 114B     		ldr	r3, .L18
 275 0028 1B68     		ldr	r3, [r3]
 276 002a 1B68     		ldr	r3, [r3]
 277 002c DB68     		ldr	r3, [r3, #12]
 278 002e 0198     		ldr	r0, [sp, #4]
 279 0030 9847     		blx	r3
 280              		.loc 1 138 0
 281 0032 019B     		ldr	r3, [sp, #4]
 282 0034 5B68     		ldr	r3, [r3, #4]
 283 0036 9B68     		ldr	r3, [r3, #8]
 284 0038 002B     		cmp	r3, #0
ARM GAS  /tmp/cc8hijCZ.s 			page 6


 285 003a 04D0     		beq	.L16
 286              		.loc 1 139 0
 287 003c 019B     		ldr	r3, [sp, #4]
 288 003e 5B68     		ldr	r3, [r3, #4]
 289 0040 9B68     		ldr	r3, [r3, #8]
 290 0042 0198     		ldr	r0, [sp, #4]
 291 0044 9847     		blx	r3
 292              	.L16:
 293              		.loc 1 142 0
 294 0046 019B     		ldr	r3, [sp, #4]
 295 0048 9B69     		ldr	r3, [r3, #24]
 296 004a 03F48053 		and	r3, r3, #4096
 297 004e 002B     		cmp	r3, #0
 298 0050 06D0     		beq	.L17
 299              		.loc 1 143 0
 300 0052 019B     		ldr	r3, [sp, #4]
 301 0054 0022     		movs	r2, #0
 302 0056 9A61     		str	r2, [r3, #24]
 303              		.loc 1 144 0
 304 0058 0198     		ldr	r0, [sp, #4]
 305 005a FFF7FEFF 		bl	chHeapFree
 306 005e 02E0     		b	.L13
 307              	.L17:
 308              		.loc 1 146 0
 309 0060 019B     		ldr	r3, [sp, #4]
 310 0062 0022     		movs	r2, #0
 311 0064 9A61     		str	r2, [r3, #24]
 312              	.L13:
 313              		.loc 1 147 0
 314 0066 03B0     		add	sp, sp, #12
 315              		.cfi_def_cfa_offset 4
 316              		@ sp needed
 317 0068 5DF804FB 		ldr	pc, [sp], #4
 318              	.L19:
 319              		.align	2
 320              	.L18:
 321 006c 00000000 		.word	_GWINwm
 322              		.cfi_endproc
 323              	.LFE114:
 324              		.size	_gwinDestroy, .-_gwinDestroy
 325              		.section	.text.gwinClearInit,"ax",%progbits
 326              		.align	2
 327              		.p2align 4,,15
 328              		.global	gwinClearInit
 329              		.thumb
 330              		.thumb_func
 331              		.type	gwinClearInit, %function
 332              	gwinClearInit:
 333              	.LFB115:
 334              		.loc 1 153 0
 335              		.cfi_startproc
 336              		@ args = 0, pretend = 0, frame = 16
 337              		@ frame_needed = 0, uses_anonymous_args = 0
 338              		@ link register save eliminated.
 339 0000 84B0     		sub	sp, sp, #16
 340              		.cfi_def_cfa_offset 16
 341 0002 0190     		str	r0, [sp, #4]
ARM GAS  /tmp/cc8hijCZ.s 			page 7


 342              		.loc 1 157 0
 343 0004 019B     		ldr	r3, [sp, #4]
 344 0006 0393     		str	r3, [sp, #12]
 345 0008 0A23     		movs	r3, #10
 346 000a 0293     		str	r3, [sp, #8]
 347 000c 07E0     		b	.L21
 348              	.L22:
 349              		.loc 1 158 0 discriminator 3
 350 000e 039B     		ldr	r3, [sp, #12]
 351 0010 5A1C     		adds	r2, r3, #1
 352 0012 0392     		str	r2, [sp, #12]
 353 0014 0022     		movs	r2, #0
 354 0016 1A70     		strb	r2, [r3]
 355              		.loc 1 157 0 discriminator 3
 356 0018 029B     		ldr	r3, [sp, #8]
 357 001a 013B     		subs	r3, r3, #1
 358 001c 0293     		str	r3, [sp, #8]
 359              	.L21:
 360              		.loc 1 157 0 is_stmt 0 discriminator 1
 361 001e 029B     		ldr	r3, [sp, #8]
 362 0020 002B     		cmp	r3, #0
 363 0022 F4D1     		bne	.L22
 364              		.loc 1 159 0 is_stmt 1
 365 0024 04B0     		add	sp, sp, #16
 366              		.cfi_def_cfa_offset 0
 367              		@ sp needed
 368 0026 7047     		bx	lr
 369              		.cfi_endproc
 370              	.LFE115:
 371              		.size	gwinClearInit, .-gwinClearInit
 372 0028 AFF30080 		.section	.text.gwinSetDefaultColor,"ax",%progbits
 372      AFF30080 
 373              		.align	2
 374              		.p2align 4,,15
 375              		.global	gwinSetDefaultColor
 376              		.thumb
 377              		.thumb_func
 378              		.type	gwinSetDefaultColor, %function
 379              	gwinSetDefaultColor:
 380              	.LFB116:
 381              		.loc 1 161 0
 382              		.cfi_startproc
 383              		@ args = 0, pretend = 0, frame = 8
 384              		@ frame_needed = 0, uses_anonymous_args = 0
 385              		@ link register save eliminated.
 386 0000 82B0     		sub	sp, sp, #8
 387              		.cfi_def_cfa_offset 8
 388 0002 0346     		mov	r3, r0
 389 0004 ADF80630 		strh	r3, [sp, #6]	@ movhi
 390              		.loc 1 162 0
 391 0008 024A     		ldr	r2, .L24
 392 000a BDF80630 		ldrh	r3, [sp, #6]	@ movhi
 393 000e 1380     		strh	r3, [r2]	@ movhi
 394              		.loc 1 163 0
 395 0010 02B0     		add	sp, sp, #8
 396              		.cfi_def_cfa_offset 0
 397              		@ sp needed
ARM GAS  /tmp/cc8hijCZ.s 			page 8


 398 0012 7047     		bx	lr
 399              	.L25:
 400              		.align	2
 401              	.L24:
 402 0014 00000000 		.word	defaultFgColor
 403              		.cfi_endproc
 404              	.LFE116:
 405              		.size	gwinSetDefaultColor, .-gwinSetDefaultColor
 406 0018 AFF30080 		.section	.text.gwinGetDefaultColor,"ax",%progbits
 406      AFF30080 
 407              		.align	2
 408              		.p2align 4,,15
 409              		.global	gwinGetDefaultColor
 410              		.thumb
 411              		.thumb_func
 412              		.type	gwinGetDefaultColor, %function
 413              	gwinGetDefaultColor:
 414              	.LFB117:
 415              		.loc 1 165 0
 416              		.cfi_startproc
 417              		@ args = 0, pretend = 0, frame = 0
 418              		@ frame_needed = 0, uses_anonymous_args = 0
 419              		@ link register save eliminated.
 420              		.loc 1 166 0
 421 0000 014B     		ldr	r3, .L28
 422 0002 1B88     		ldrh	r3, [r3]
 423              		.loc 1 167 0
 424 0004 1846     		mov	r0, r3
 425 0006 7047     		bx	lr
 426              	.L29:
 427              		.align	2
 428              	.L28:
 429 0008 00000000 		.word	defaultFgColor
 430              		.cfi_endproc
 431              	.LFE117:
 432              		.size	gwinGetDefaultColor, .-gwinGetDefaultColor
 433 000c AFF30080 		.section	.text.gwinSetDefaultBgColor,"ax",%progbits
 434              		.align	2
 435              		.p2align 4,,15
 436              		.global	gwinSetDefaultBgColor
 437              		.thumb
 438              		.thumb_func
 439              		.type	gwinSetDefaultBgColor, %function
 440              	gwinSetDefaultBgColor:
 441              	.LFB118:
 442              		.loc 1 169 0
 443              		.cfi_startproc
 444              		@ args = 0, pretend = 0, frame = 8
 445              		@ frame_needed = 0, uses_anonymous_args = 0
 446              		@ link register save eliminated.
 447 0000 82B0     		sub	sp, sp, #8
 448              		.cfi_def_cfa_offset 8
 449 0002 0346     		mov	r3, r0
 450 0004 ADF80630 		strh	r3, [sp, #6]	@ movhi
 451              		.loc 1 170 0
 452 0008 024A     		ldr	r2, .L31
 453 000a BDF80630 		ldrh	r3, [sp, #6]	@ movhi
ARM GAS  /tmp/cc8hijCZ.s 			page 9


 454 000e 1380     		strh	r3, [r2]	@ movhi
 455              		.loc 1 171 0
 456 0010 02B0     		add	sp, sp, #8
 457              		.cfi_def_cfa_offset 0
 458              		@ sp needed
 459 0012 7047     		bx	lr
 460              	.L32:
 461              		.align	2
 462              	.L31:
 463 0014 00000000 		.word	defaultBgColor
 464              		.cfi_endproc
 465              	.LFE118:
 466              		.size	gwinSetDefaultBgColor, .-gwinSetDefaultBgColor
 467 0018 AFF30080 		.section	.text.gwinGetDefaultBgColor,"ax",%progbits
 467      AFF30080 
 468              		.align	2
 469              		.p2align 4,,15
 470              		.global	gwinGetDefaultBgColor
 471              		.thumb
 472              		.thumb_func
 473              		.type	gwinGetDefaultBgColor, %function
 474              	gwinGetDefaultBgColor:
 475              	.LFB119:
 476              		.loc 1 173 0
 477              		.cfi_startproc
 478              		@ args = 0, pretend = 0, frame = 0
 479              		@ frame_needed = 0, uses_anonymous_args = 0
 480              		@ link register save eliminated.
 481              		.loc 1 174 0
 482 0000 014B     		ldr	r3, .L35
 483 0002 1B88     		ldrh	r3, [r3]
 484              		.loc 1 175 0
 485 0004 1846     		mov	r0, r3
 486 0006 7047     		bx	lr
 487              	.L36:
 488              		.align	2
 489              	.L35:
 490 0008 00000000 		.word	defaultBgColor
 491              		.cfi_endproc
 492              	.LFE119:
 493              		.size	gwinGetDefaultBgColor, .-gwinGetDefaultBgColor
 494 000c AFF30080 		.section	.text.gwinSetDefaultFont,"ax",%progbits
 495              		.align	2
 496              		.p2align 4,,15
 497              		.global	gwinSetDefaultFont
 498              		.thumb
 499              		.thumb_func
 500              		.type	gwinSetDefaultFont, %function
 501              	gwinSetDefaultFont:
 502              	.LFB120:
 503              		.loc 1 178 0
 504              		.cfi_startproc
 505              		@ args = 0, pretend = 0, frame = 8
 506              		@ frame_needed = 0, uses_anonymous_args = 0
 507              		@ link register save eliminated.
 508 0000 82B0     		sub	sp, sp, #8
 509              		.cfi_def_cfa_offset 8
ARM GAS  /tmp/cc8hijCZ.s 			page 10


 510 0002 0190     		str	r0, [sp, #4]
 511              		.loc 1 179 0
 512 0004 024A     		ldr	r2, .L38
 513 0006 019B     		ldr	r3, [sp, #4]
 514 0008 1360     		str	r3, [r2]
 515              		.loc 1 180 0
 516 000a 02B0     		add	sp, sp, #8
 517              		.cfi_def_cfa_offset 0
 518              		@ sp needed
 519 000c 7047     		bx	lr
 520              	.L39:
 521 000e 00BF     		.align	2
 522              	.L38:
 523 0010 00000000 		.word	defaultFont
 524              		.cfi_endproc
 525              	.LFE120:
 526              		.size	gwinSetDefaultFont, .-gwinSetDefaultFont
 527 0014 AFF30080 		.section	.text.gwinGetDefaultFont,"ax",%progbits
 527      AFF30080 
 527      AFF30080 
 528              		.align	2
 529              		.p2align 4,,15
 530              		.global	gwinGetDefaultFont
 531              		.thumb
 532              		.thumb_func
 533              		.type	gwinGetDefaultFont, %function
 534              	gwinGetDefaultFont:
 535              	.LFB121:
 536              		.loc 1 182 0
 537              		.cfi_startproc
 538              		@ args = 0, pretend = 0, frame = 0
 539              		@ frame_needed = 0, uses_anonymous_args = 0
 540              		@ link register save eliminated.
 541              		.loc 1 183 0
 542 0000 014B     		ldr	r3, .L42
 543 0002 1B68     		ldr	r3, [r3]
 544              		.loc 1 184 0
 545 0004 1846     		mov	r0, r3
 546 0006 7047     		bx	lr
 547              	.L43:
 548              		.align	2
 549              	.L42:
 550 0008 00000000 		.word	defaultFont
 551              		.cfi_endproc
 552              	.LFE121:
 553              		.size	gwinGetDefaultFont, .-gwinGetDefaultFont
 554 000c AFF30080 		.section	.text.gwinGWindowCreate,"ax",%progbits
 555              		.align	2
 556              		.p2align 4,,15
 557              		.global	gwinGWindowCreate
 558              		.thumb
 559              		.thumb_func
 560              		.type	gwinGWindowCreate, %function
 561              	gwinGWindowCreate:
 562              	.LFB122:
 563              		.loc 1 191 0
 564              		.cfi_startproc
ARM GAS  /tmp/cc8hijCZ.s 			page 11


 565              		@ args = 0, pretend = 0, frame = 16
 566              		@ frame_needed = 0, uses_anonymous_args = 0
 567 0000 00B5     		push	{lr}
 568              		.cfi_def_cfa_offset 4
 569              		.cfi_offset 14, -4
 570 0002 87B0     		sub	sp, sp, #28
 571              		.cfi_def_cfa_offset 32
 572 0004 0590     		str	r0, [sp, #20]
 573 0006 0491     		str	r1, [sp, #16]
 574 0008 0392     		str	r2, [sp, #12]
 575              		.loc 1 192 0
 576 000a 0023     		movs	r3, #0
 577 000c 0093     		str	r3, [sp]
 578 000e 0598     		ldr	r0, [sp, #20]
 579 0010 0499     		ldr	r1, [sp, #16]
 580 0012 039A     		ldr	r2, [sp, #12]
 581 0014 094B     		ldr	r3, .L47
 582 0016 FFF7FEFF 		bl	_gwindowCreate
 583 001a 0490     		str	r0, [sp, #16]
 584 001c 049B     		ldr	r3, [sp, #16]
 585 001e 002B     		cmp	r3, #0
 586 0020 01D1     		bne	.L45
 587              		.loc 1 193 0
 588 0022 0023     		movs	r3, #0
 589 0024 06E0     		b	.L46
 590              	.L45:
 591              		.loc 1 195 0
 592 0026 039B     		ldr	r3, [sp, #12]
 593 0028 1B7A     		ldrb	r3, [r3, #8]	@ zero_extendqisi2
 594 002a 0498     		ldr	r0, [sp, #16]
 595 002c 1946     		mov	r1, r3
 596 002e FFF7FEFF 		bl	gwinSetVisible
 597              		.loc 1 197 0
 598 0032 049B     		ldr	r3, [sp, #16]
 599              	.L46:
 600              		.loc 1 198 0
 601 0034 1846     		mov	r0, r3
 602 0036 07B0     		add	sp, sp, #28
 603              		.cfi_def_cfa_offset 4
 604              		@ sp needed
 605 0038 5DF804FB 		ldr	pc, [sp], #4
 606              	.L48:
 607              		.align	2
 608              	.L47:
 609 003c 00000000 		.word	basegwinVMT
 610              		.cfi_endproc
 611              	.LFE122:
 612              		.size	gwinGWindowCreate, .-gwinGWindowCreate
 613              		.section	.text.gwinDestroy,"ax",%progbits
 614              		.align	2
 615              		.p2align 4,,15
 616              		.global	gwinDestroy
 617              		.thumb
 618              		.thumb_func
 619              		.type	gwinDestroy, %function
 620              	gwinDestroy:
 621              	.LFB123:
ARM GAS  /tmp/cc8hijCZ.s 			page 12


 622              		.loc 1 200 0
 623              		.cfi_startproc
 624              		@ args = 0, pretend = 0, frame = 8
 625              		@ frame_needed = 0, uses_anonymous_args = 0
 626 0000 00B5     		push	{lr}
 627              		.cfi_def_cfa_offset 4
 628              		.cfi_offset 14, -4
 629 0002 83B0     		sub	sp, sp, #12
 630              		.cfi_def_cfa_offset 16
 631 0004 0190     		str	r0, [sp, #4]
 632              		.loc 1 201 0
 633 0006 0198     		ldr	r0, [sp, #4]
 634 0008 0021     		movs	r1, #0
 635 000a FFF7FEFF 		bl	_gwinDestroy
 636              		.loc 1 202 0
 637 000e 03B0     		add	sp, sp, #12
 638              		.cfi_def_cfa_offset 4
 639              		@ sp needed
 640 0010 5DF804FB 		ldr	pc, [sp], #4
 641              		.cfi_endproc
 642              	.LFE123:
 643              		.size	gwinDestroy, .-gwinDestroy
 644 0014 AFF30080 		.section	.text.gwinGetClassName,"ax",%progbits
 644      AFF30080 
 644      AFF30080 
 645              		.align	2
 646              		.p2align 4,,15
 647              		.global	gwinGetClassName
 648              		.thumb
 649              		.thumb_func
 650              		.type	gwinGetClassName, %function
 651              	gwinGetClassName:
 652              	.LFB124:
 653              		.loc 1 204 0
 654              		.cfi_startproc
 655              		@ args = 0, pretend = 0, frame = 8
 656              		@ frame_needed = 0, uses_anonymous_args = 0
 657              		@ link register save eliminated.
 658 0000 82B0     		sub	sp, sp, #8
 659              		.cfi_def_cfa_offset 8
 660 0002 0190     		str	r0, [sp, #4]
 661              		.loc 1 205 0
 662 0004 019B     		ldr	r3, [sp, #4]
 663 0006 5B68     		ldr	r3, [r3, #4]
 664 0008 1B68     		ldr	r3, [r3]
 665              		.loc 1 206 0
 666 000a 1846     		mov	r0, r3
 667 000c 02B0     		add	sp, sp, #8
 668              		.cfi_def_cfa_offset 0
 669              		@ sp needed
 670 000e 7047     		bx	lr
 671              		.cfi_endproc
 672              	.LFE124:
 673              		.size	gwinGetClassName, .-gwinGetClassName
 674              		.section	.text.gwinGetVisible,"ax",%progbits
 675              		.align	2
 676              		.p2align 4,,15
ARM GAS  /tmp/cc8hijCZ.s 			page 13


 677              		.global	gwinGetVisible
 678              		.thumb
 679              		.thumb_func
 680              		.type	gwinGetVisible, %function
 681              	gwinGetVisible:
 682              	.LFB125:
 683              		.loc 1 208 0
 684              		.cfi_startproc
 685              		@ args = 0, pretend = 0, frame = 8
 686              		@ frame_needed = 0, uses_anonymous_args = 0
 687              		@ link register save eliminated.
 688 0000 82B0     		sub	sp, sp, #8
 689              		.cfi_def_cfa_offset 8
 690 0002 0190     		str	r0, [sp, #4]
 691              		.loc 1 209 0
 692 0004 019B     		ldr	r3, [sp, #4]
 693 0006 9B69     		ldr	r3, [r3, #24]
 694 0008 03F40073 		and	r3, r3, #512
 695 000c 002B     		cmp	r3, #0
 696 000e 14BF     		ite	ne
 697 0010 0123     		movne	r3, #1
 698 0012 0023     		moveq	r3, #0
 699 0014 DBB2     		uxtb	r3, r3
 700              		.loc 1 210 0
 701 0016 1846     		mov	r0, r3
 702 0018 02B0     		add	sp, sp, #8
 703              		.cfi_def_cfa_offset 0
 704              		@ sp needed
 705 001a 7047     		bx	lr
 706              		.cfi_endproc
 707              	.LFE125:
 708              		.size	gwinGetVisible, .-gwinGetVisible
 709 001c AFF30080 		.section	.text.gwinGetEnabled,"ax",%progbits
 710              		.align	2
 711              		.p2align 4,,15
 712              		.global	gwinGetEnabled
 713              		.thumb
 714              		.thumb_func
 715              		.type	gwinGetEnabled, %function
 716              	gwinGetEnabled:
 717              	.LFB126:
 718              		.loc 1 212 0
 719              		.cfi_startproc
 720              		@ args = 0, pretend = 0, frame = 8
 721              		@ frame_needed = 0, uses_anonymous_args = 0
 722              		@ link register save eliminated.
 723 0000 82B0     		sub	sp, sp, #8
 724              		.cfi_def_cfa_offset 8
 725 0002 0190     		str	r0, [sp, #4]
 726              		.loc 1 213 0
 727 0004 019B     		ldr	r3, [sp, #4]
 728 0006 9B69     		ldr	r3, [r3, #24]
 729 0008 03F40063 		and	r3, r3, #2048
 730 000c 002B     		cmp	r3, #0
 731 000e 14BF     		ite	ne
 732 0010 0123     		movne	r3, #1
 733 0012 0023     		moveq	r3, #0
ARM GAS  /tmp/cc8hijCZ.s 			page 14


 734 0014 DBB2     		uxtb	r3, r3
 735              		.loc 1 214 0
 736 0016 1846     		mov	r0, r3
 737 0018 02B0     		add	sp, sp, #8
 738              		.cfi_def_cfa_offset 0
 739              		@ sp needed
 740 001a 7047     		bx	lr
 741              		.cfi_endproc
 742              	.LFE126:
 743              		.size	gwinGetEnabled, .-gwinGetEnabled
 744 001c AFF30080 		.section	.text.gwinSetFont,"ax",%progbits
 745              		.align	2
 746              		.p2align 4,,15
 747              		.global	gwinSetFont
 748              		.thumb
 749              		.thumb_func
 750              		.type	gwinSetFont, %function
 751              	gwinSetFont:
 752              	.LFB127:
 753              		.loc 1 217 0
 754              		.cfi_startproc
 755              		@ args = 0, pretend = 0, frame = 8
 756              		@ frame_needed = 0, uses_anonymous_args = 0
 757              		@ link register save eliminated.
 758 0000 82B0     		sub	sp, sp, #8
 759              		.cfi_def_cfa_offset 8
 760 0002 0190     		str	r0, [sp, #4]
 761 0004 0091     		str	r1, [sp]
 762              		.loc 1 218 0
 763 0006 019B     		ldr	r3, [sp, #4]
 764 0008 009A     		ldr	r2, [sp]
 765 000a DA61     		str	r2, [r3, #28]
 766              		.loc 1 219 0
 767 000c 02B0     		add	sp, sp, #8
 768              		.cfi_def_cfa_offset 0
 769              		@ sp needed
 770 000e 7047     		bx	lr
 771              		.cfi_endproc
 772              	.LFE127:
 773              		.size	gwinSetFont, .-gwinSetFont
 774              		.section	.text.gwinClear,"ax",%progbits
 775              		.align	2
 776              		.p2align 4,,15
 777              		.global	gwinClear
 778              		.thumb
 779              		.thumb_func
 780              		.type	gwinClear, %function
 781              	gwinClear:
 782              	.LFB128:
 783              		.loc 1 222 0
 784              		.cfi_startproc
 785              		@ args = 0, pretend = 0, frame = 8
 786              		@ frame_needed = 0, uses_anonymous_args = 0
 787 0000 30B5     		push	{r4, r5, lr}
 788              		.cfi_def_cfa_offset 12
 789              		.cfi_offset 4, -12
 790              		.cfi_offset 5, -8
ARM GAS  /tmp/cc8hijCZ.s 			page 15


 791              		.cfi_offset 14, -4
 792 0002 85B0     		sub	sp, sp, #20
 793              		.cfi_def_cfa_offset 32
 794 0004 0390     		str	r0, [sp, #12]
 795              		.loc 1 228 0
 796 0006 0398     		ldr	r0, [sp, #12]
 797 0008 FFF7FEFF 		bl	_gwinDrawStart
 798 000c 0346     		mov	r3, r0
 799 000e 002B     		cmp	r3, #0
 800 0010 18D0     		beq	.L58
 801              		.loc 1 229 0
 802 0012 039B     		ldr	r3, [sp, #12]
 803 0014 9868     		ldr	r0, [r3, #8]
 804 0016 039B     		ldr	r3, [sp, #12]
 805 0018 9989     		ldrh	r1, [r3, #12]
 806 001a 039B     		ldr	r3, [sp, #12]
 807 001c DD89     		ldrh	r5, [r3, #14]
 808 001e 039B     		ldr	r3, [sp, #12]
 809 0020 1C8A     		ldrh	r4, [r3, #16]
 810 0022 039B     		ldr	r3, [sp, #12]
 811 0024 5A8A     		ldrh	r2, [r3, #18]
 812 0026 039B     		ldr	r3, [sp, #12]
 813 0028 DB8A     		ldrh	r3, [r3, #22]
 814 002a 09B2     		sxth	r1, r1
 815 002c 2DB2     		sxth	r5, r5
 816 002e 24B2     		sxth	r4, r4
 817 0030 12B2     		sxth	r2, r2
 818 0032 0092     		str	r2, [sp]
 819 0034 0193     		str	r3, [sp, #4]
 820 0036 2A46     		mov	r2, r5
 821 0038 2346     		mov	r3, r4
 822 003a FFF7FEFF 		bl	gdispGFillArea
 823              		.loc 1 230 0
 824 003e 0398     		ldr	r0, [sp, #12]
 825 0040 FFF7FEFF 		bl	_gwinDrawEnd
 826              	.L58:
 827              		.loc 1 232 0
 828 0044 039B     		ldr	r3, [sp, #12]
 829 0046 5B68     		ldr	r3, [r3, #4]
 830 0048 1B69     		ldr	r3, [r3, #16]
 831 004a 002B     		cmp	r3, #0
 832 004c 04D0     		beq	.L57
 833              		.loc 1 233 0
 834 004e 039B     		ldr	r3, [sp, #12]
 835 0050 5B68     		ldr	r3, [r3, #4]
 836 0052 1B69     		ldr	r3, [r3, #16]
 837 0054 0398     		ldr	r0, [sp, #12]
 838 0056 9847     		blx	r3
 839              	.L57:
 840              		.loc 1 234 0
 841 0058 05B0     		add	sp, sp, #20
 842              		.cfi_def_cfa_offset 12
 843              		@ sp needed
 844 005a 30BD     		pop	{r4, r5, pc}
 845              		.cfi_endproc
 846              	.LFE128:
 847              		.size	gwinClear, .-gwinClear
ARM GAS  /tmp/cc8hijCZ.s 			page 16


 848 005c AFF30080 		.section	.text.gwinDrawPixel,"ax",%progbits
 849              		.align	2
 850              		.p2align 4,,15
 851              		.global	gwinDrawPixel
 852              		.thumb
 853              		.thumb_func
 854              		.type	gwinDrawPixel, %function
 855              	gwinDrawPixel:
 856              	.LFB129:
 857              		.loc 1 236 0
 858              		.cfi_startproc
 859              		@ args = 0, pretend = 0, frame = 8
 860              		@ frame_needed = 0, uses_anonymous_args = 0
 861 0000 00B5     		push	{lr}
 862              		.cfi_def_cfa_offset 4
 863              		.cfi_offset 14, -4
 864 0002 83B0     		sub	sp, sp, #12
 865              		.cfi_def_cfa_offset 16
 866 0004 0190     		str	r0, [sp, #4]
 867 0006 0B46     		mov	r3, r1
 868 0008 ADF80230 		strh	r3, [sp, #2]	@ movhi
 869 000c 1346     		mov	r3, r2	@ movhi
 870 000e ADF80030 		strh	r3, [sp]	@ movhi
 871              		.loc 1 237 0
 872 0012 0198     		ldr	r0, [sp, #4]
 873 0014 FFF7FEFF 		bl	_gwinDrawStart
 874 0018 0346     		mov	r3, r0
 875 001a 83F00103 		eor	r3, r3, #1
 876 001e DBB2     		uxtb	r3, r3
 877 0020 002B     		cmp	r3, #0
 878 0022 00D0     		beq	.L61
 879 0024 1AE0     		b	.L60
 880              	.L61:
 881              		.loc 1 238 0
 882 0026 019B     		ldr	r3, [sp, #4]
 883 0028 9868     		ldr	r0, [r3, #8]
 884 002a 019B     		ldr	r3, [sp, #4]
 885 002c 9B89     		ldrh	r3, [r3, #12]
 886 002e 9AB2     		uxth	r2, r3
 887 0030 BDF80230 		ldrh	r3, [sp, #2]
 888 0034 1344     		add	r3, r3, r2
 889 0036 9BB2     		uxth	r3, r3
 890 0038 99B2     		uxth	r1, r3
 891 003a 019B     		ldr	r3, [sp, #4]
 892 003c DB89     		ldrh	r3, [r3, #14]
 893 003e 9AB2     		uxth	r2, r3
 894 0040 BDF80030 		ldrh	r3, [sp]
 895 0044 1344     		add	r3, r3, r2
 896 0046 9BB2     		uxth	r3, r3
 897 0048 9AB2     		uxth	r2, r3
 898 004a 019B     		ldr	r3, [sp, #4]
 899 004c 9B8A     		ldrh	r3, [r3, #20]
 900 004e 09B2     		sxth	r1, r1
 901 0050 12B2     		sxth	r2, r2
 902 0052 FFF7FEFF 		bl	gdispGDrawPixel
 903              		.loc 1 239 0
 904 0056 0198     		ldr	r0, [sp, #4]
ARM GAS  /tmp/cc8hijCZ.s 			page 17


 905 0058 FFF7FEFF 		bl	_gwinDrawEnd
 906              	.L60:
 907              		.loc 1 240 0
 908 005c 03B0     		add	sp, sp, #12
 909              		.cfi_def_cfa_offset 4
 910              		@ sp needed
 911 005e 5DF804FB 		ldr	pc, [sp], #4
 912              		.cfi_endproc
 913              	.LFE129:
 914              		.size	gwinDrawPixel, .-gwinDrawPixel
 915 0062 00BFAFF3 		.section	.text.gwinDrawLine,"ax",%progbits
 915      0080AFF3 
 915      0080AFF3 
 915      0080
 916              		.align	2
 917              		.p2align 4,,15
 918              		.global	gwinDrawLine
 919              		.thumb
 920              		.thumb_func
 921              		.type	gwinDrawLine, %function
 922              	gwinDrawLine:
 923              	.LFB130:
 924              		.loc 1 242 0
 925              		.cfi_startproc
 926              		@ args = 4, pretend = 0, frame = 16
 927              		@ frame_needed = 0, uses_anonymous_args = 0
 928 0000 30B5     		push	{r4, r5, lr}
 929              		.cfi_def_cfa_offset 12
 930              		.cfi_offset 4, -12
 931              		.cfi_offset 5, -8
 932              		.cfi_offset 14, -4
 933 0002 87B0     		sub	sp, sp, #28
 934              		.cfi_def_cfa_offset 40
 935 0004 0590     		str	r0, [sp, #20]
 936 0006 0846     		mov	r0, r1
 937 0008 1146     		mov	r1, r2
 938 000a 1A46     		mov	r2, r3
 939 000c 0346     		mov	r3, r0	@ movhi
 940 000e ADF81230 		strh	r3, [sp, #18]	@ movhi
 941 0012 0B46     		mov	r3, r1	@ movhi
 942 0014 ADF81030 		strh	r3, [sp, #16]	@ movhi
 943 0018 1346     		mov	r3, r2	@ movhi
 944 001a ADF80E30 		strh	r3, [sp, #14]	@ movhi
 945              		.loc 1 243 0
 946 001e 0598     		ldr	r0, [sp, #20]
 947 0020 FFF7FEFF 		bl	_gwinDrawStart
 948 0024 0346     		mov	r3, r0
 949 0026 83F00103 		eor	r3, r3, #1
 950 002a DBB2     		uxtb	r3, r3
 951 002c 002B     		cmp	r3, #0
 952 002e 00D0     		beq	.L64
 953 0030 30E0     		b	.L63
 954              	.L64:
 955              		.loc 1 244 0
 956 0032 059B     		ldr	r3, [sp, #20]
 957 0034 9868     		ldr	r0, [r3, #8]
 958 0036 059B     		ldr	r3, [sp, #20]
ARM GAS  /tmp/cc8hijCZ.s 			page 18


 959 0038 9B89     		ldrh	r3, [r3, #12]
 960 003a 9AB2     		uxth	r2, r3
 961 003c BDF81230 		ldrh	r3, [sp, #18]
 962 0040 1344     		add	r3, r3, r2
 963 0042 9BB2     		uxth	r3, r3
 964 0044 99B2     		uxth	r1, r3
 965 0046 059B     		ldr	r3, [sp, #20]
 966 0048 DB89     		ldrh	r3, [r3, #14]
 967 004a 9AB2     		uxth	r2, r3
 968 004c BDF81030 		ldrh	r3, [sp, #16]
 969 0050 1344     		add	r3, r3, r2
 970 0052 9BB2     		uxth	r3, r3
 971 0054 9DB2     		uxth	r5, r3
 972 0056 059B     		ldr	r3, [sp, #20]
 973 0058 9B89     		ldrh	r3, [r3, #12]
 974 005a 9AB2     		uxth	r2, r3
 975 005c BDF80E30 		ldrh	r3, [sp, #14]
 976 0060 1344     		add	r3, r3, r2
 977 0062 9BB2     		uxth	r3, r3
 978 0064 9CB2     		uxth	r4, r3
 979 0066 059B     		ldr	r3, [sp, #20]
 980 0068 DB89     		ldrh	r3, [r3, #14]
 981 006a 9AB2     		uxth	r2, r3
 982 006c BDF82830 		ldrh	r3, [sp, #40]
 983 0070 1344     		add	r3, r3, r2
 984 0072 9BB2     		uxth	r3, r3
 985 0074 9AB2     		uxth	r2, r3
 986 0076 059B     		ldr	r3, [sp, #20]
 987 0078 9B8A     		ldrh	r3, [r3, #20]
 988 007a 09B2     		sxth	r1, r1
 989 007c 2DB2     		sxth	r5, r5
 990 007e 24B2     		sxth	r4, r4
 991 0080 12B2     		sxth	r2, r2
 992 0082 0092     		str	r2, [sp]
 993 0084 0193     		str	r3, [sp, #4]
 994 0086 2A46     		mov	r2, r5
 995 0088 2346     		mov	r3, r4
 996 008a FFF7FEFF 		bl	gdispGDrawLine
 997              		.loc 1 245 0
 998 008e 0598     		ldr	r0, [sp, #20]
 999 0090 FFF7FEFF 		bl	_gwinDrawEnd
 1000              	.L63:
 1001              		.loc 1 246 0
 1002 0094 07B0     		add	sp, sp, #28
 1003              		.cfi_def_cfa_offset 12
 1004              		@ sp needed
 1005 0096 30BD     		pop	{r4, r5, pc}
 1006              		.cfi_endproc
 1007              	.LFE130:
 1008              		.size	gwinDrawLine, .-gwinDrawLine
 1009 0098 AFF30080 		.section	.text.gwinDrawBox,"ax",%progbits
 1009      AFF30080 
 1010              		.align	2
 1011              		.p2align 4,,15
 1012              		.global	gwinDrawBox
 1013              		.thumb
 1014              		.thumb_func
ARM GAS  /tmp/cc8hijCZ.s 			page 19


 1015              		.type	gwinDrawBox, %function
 1016              	gwinDrawBox:
 1017              	.LFB131:
 1018              		.loc 1 248 0
 1019              		.cfi_startproc
 1020              		@ args = 4, pretend = 0, frame = 16
 1021              		@ frame_needed = 0, uses_anonymous_args = 0
 1022 0000 30B5     		push	{r4, r5, lr}
 1023              		.cfi_def_cfa_offset 12
 1024              		.cfi_offset 4, -12
 1025              		.cfi_offset 5, -8
 1026              		.cfi_offset 14, -4
 1027 0002 87B0     		sub	sp, sp, #28
 1028              		.cfi_def_cfa_offset 40
 1029 0004 0590     		str	r0, [sp, #20]
 1030 0006 0846     		mov	r0, r1
 1031 0008 1146     		mov	r1, r2
 1032 000a 1A46     		mov	r2, r3
 1033 000c 0346     		mov	r3, r0	@ movhi
 1034 000e ADF81230 		strh	r3, [sp, #18]	@ movhi
 1035 0012 0B46     		mov	r3, r1	@ movhi
 1036 0014 ADF81030 		strh	r3, [sp, #16]	@ movhi
 1037 0018 1346     		mov	r3, r2	@ movhi
 1038 001a ADF80E30 		strh	r3, [sp, #14]	@ movhi
 1039              		.loc 1 249 0
 1040 001e 0598     		ldr	r0, [sp, #20]
 1041 0020 FFF7FEFF 		bl	_gwinDrawStart
 1042 0024 0346     		mov	r3, r0
 1043 0026 83F00103 		eor	r3, r3, #1
 1044 002a DBB2     		uxtb	r3, r3
 1045 002c 002B     		cmp	r3, #0
 1046 002e 00D0     		beq	.L67
 1047 0030 22E0     		b	.L66
 1048              	.L67:
 1049              		.loc 1 250 0
 1050 0032 059B     		ldr	r3, [sp, #20]
 1051 0034 9868     		ldr	r0, [r3, #8]
 1052 0036 059B     		ldr	r3, [sp, #20]
 1053 0038 9B89     		ldrh	r3, [r3, #12]
 1054 003a 9AB2     		uxth	r2, r3
 1055 003c BDF81230 		ldrh	r3, [sp, #18]
 1056 0040 1344     		add	r3, r3, r2
 1057 0042 9BB2     		uxth	r3, r3
 1058 0044 99B2     		uxth	r1, r3
 1059 0046 059B     		ldr	r3, [sp, #20]
 1060 0048 DB89     		ldrh	r3, [r3, #14]
 1061 004a 9AB2     		uxth	r2, r3
 1062 004c BDF81030 		ldrh	r3, [sp, #16]
 1063 0050 1344     		add	r3, r3, r2
 1064 0052 9BB2     		uxth	r3, r3
 1065 0054 9AB2     		uxth	r2, r3
 1066 0056 059B     		ldr	r3, [sp, #20]
 1067 0058 9B8A     		ldrh	r3, [r3, #20]
 1068 005a 09B2     		sxth	r1, r1
 1069 005c 15B2     		sxth	r5, r2
 1070 005e BDF90E40 		ldrsh	r4, [sp, #14]
 1071 0062 BDF92820 		ldrsh	r2, [sp, #40]
ARM GAS  /tmp/cc8hijCZ.s 			page 20


 1072 0066 0092     		str	r2, [sp]
 1073 0068 0193     		str	r3, [sp, #4]
 1074 006a 2A46     		mov	r2, r5
 1075 006c 2346     		mov	r3, r4
 1076 006e FFF7FEFF 		bl	gdispGDrawBox
 1077              		.loc 1 251 0
 1078 0072 0598     		ldr	r0, [sp, #20]
 1079 0074 FFF7FEFF 		bl	_gwinDrawEnd
 1080              	.L66:
 1081              		.loc 1 252 0
 1082 0078 07B0     		add	sp, sp, #28
 1083              		.cfi_def_cfa_offset 12
 1084              		@ sp needed
 1085 007a 30BD     		pop	{r4, r5, pc}
 1086              		.cfi_endproc
 1087              	.LFE131:
 1088              		.size	gwinDrawBox, .-gwinDrawBox
 1089 007c AFF30080 		.section	.text.gwinFillArea,"ax",%progbits
 1090              		.align	2
 1091              		.p2align 4,,15
 1092              		.global	gwinFillArea
 1093              		.thumb
 1094              		.thumb_func
 1095              		.type	gwinFillArea, %function
 1096              	gwinFillArea:
 1097              	.LFB132:
 1098              		.loc 1 254 0
 1099              		.cfi_startproc
 1100              		@ args = 4, pretend = 0, frame = 16
 1101              		@ frame_needed = 0, uses_anonymous_args = 0
 1102 0000 30B5     		push	{r4, r5, lr}
 1103              		.cfi_def_cfa_offset 12
 1104              		.cfi_offset 4, -12
 1105              		.cfi_offset 5, -8
 1106              		.cfi_offset 14, -4
 1107 0002 87B0     		sub	sp, sp, #28
 1108              		.cfi_def_cfa_offset 40
 1109 0004 0590     		str	r0, [sp, #20]
 1110 0006 0846     		mov	r0, r1
 1111 0008 1146     		mov	r1, r2
 1112 000a 1A46     		mov	r2, r3
 1113 000c 0346     		mov	r3, r0	@ movhi
 1114 000e ADF81230 		strh	r3, [sp, #18]	@ movhi
 1115 0012 0B46     		mov	r3, r1	@ movhi
 1116 0014 ADF81030 		strh	r3, [sp, #16]	@ movhi
 1117 0018 1346     		mov	r3, r2	@ movhi
 1118 001a ADF80E30 		strh	r3, [sp, #14]	@ movhi
 1119              		.loc 1 255 0
 1120 001e 0598     		ldr	r0, [sp, #20]
 1121 0020 FFF7FEFF 		bl	_gwinDrawStart
 1122 0024 0346     		mov	r3, r0
 1123 0026 83F00103 		eor	r3, r3, #1
 1124 002a DBB2     		uxtb	r3, r3
 1125 002c 002B     		cmp	r3, #0
 1126 002e 00D0     		beq	.L70
 1127 0030 22E0     		b	.L69
 1128              	.L70:
ARM GAS  /tmp/cc8hijCZ.s 			page 21


 1129              		.loc 1 256 0
 1130 0032 059B     		ldr	r3, [sp, #20]
 1131 0034 9868     		ldr	r0, [r3, #8]
 1132 0036 059B     		ldr	r3, [sp, #20]
 1133 0038 9B89     		ldrh	r3, [r3, #12]
 1134 003a 9AB2     		uxth	r2, r3
 1135 003c BDF81230 		ldrh	r3, [sp, #18]
 1136 0040 1344     		add	r3, r3, r2
 1137 0042 9BB2     		uxth	r3, r3
 1138 0044 99B2     		uxth	r1, r3
 1139 0046 059B     		ldr	r3, [sp, #20]
 1140 0048 DB89     		ldrh	r3, [r3, #14]
 1141 004a 9AB2     		uxth	r2, r3
 1142 004c BDF81030 		ldrh	r3, [sp, #16]
 1143 0050 1344     		add	r3, r3, r2
 1144 0052 9BB2     		uxth	r3, r3
 1145 0054 9AB2     		uxth	r2, r3
 1146 0056 059B     		ldr	r3, [sp, #20]
 1147 0058 9B8A     		ldrh	r3, [r3, #20]
 1148 005a 09B2     		sxth	r1, r1
 1149 005c 15B2     		sxth	r5, r2
 1150 005e BDF90E40 		ldrsh	r4, [sp, #14]
 1151 0062 BDF92820 		ldrsh	r2, [sp, #40]
 1152 0066 0092     		str	r2, [sp]
 1153 0068 0193     		str	r3, [sp, #4]
 1154 006a 2A46     		mov	r2, r5
 1155 006c 2346     		mov	r3, r4
 1156 006e FFF7FEFF 		bl	gdispGFillArea
 1157              		.loc 1 257 0
 1158 0072 0598     		ldr	r0, [sp, #20]
 1159 0074 FFF7FEFF 		bl	_gwinDrawEnd
 1160              	.L69:
 1161              		.loc 1 258 0
 1162 0078 07B0     		add	sp, sp, #28
 1163              		.cfi_def_cfa_offset 12
 1164              		@ sp needed
 1165 007a 30BD     		pop	{r4, r5, pc}
 1166              		.cfi_endproc
 1167              	.LFE132:
 1168              		.size	gwinFillArea, .-gwinFillArea
 1169 007c AFF30080 		.section	.text.gwinBlitArea,"ax",%progbits
 1170              		.align	2
 1171              		.p2align 4,,15
 1172              		.global	gwinBlitArea
 1173              		.thumb
 1174              		.thumb_func
 1175              		.type	gwinBlitArea, %function
 1176              	gwinBlitArea:
 1177              	.LFB133:
 1178              		.loc 1 260 0
 1179              		.cfi_startproc
 1180              		@ args = 20, pretend = 0, frame = 16
 1181              		@ frame_needed = 0, uses_anonymous_args = 0
 1182 0000 10B5     		push	{r4, lr}
 1183              		.cfi_def_cfa_offset 8
 1184              		.cfi_offset 4, -8
 1185              		.cfi_offset 14, -4
ARM GAS  /tmp/cc8hijCZ.s 			page 22


 1186 0002 8AB0     		sub	sp, sp, #40
 1187              		.cfi_def_cfa_offset 48
 1188 0004 0990     		str	r0, [sp, #36]
 1189 0006 0846     		mov	r0, r1
 1190 0008 1146     		mov	r1, r2
 1191 000a 1A46     		mov	r2, r3
 1192 000c 0346     		mov	r3, r0	@ movhi
 1193 000e ADF82230 		strh	r3, [sp, #34]	@ movhi
 1194 0012 0B46     		mov	r3, r1	@ movhi
 1195 0014 ADF82030 		strh	r3, [sp, #32]	@ movhi
 1196 0018 1346     		mov	r3, r2	@ movhi
 1197 001a ADF81E30 		strh	r3, [sp, #30]	@ movhi
 1198              		.loc 1 261 0
 1199 001e 0998     		ldr	r0, [sp, #36]
 1200 0020 FFF7FEFF 		bl	_gwinDrawStart
 1201 0024 0346     		mov	r3, r0
 1202 0026 83F00103 		eor	r3, r3, #1
 1203 002a DBB2     		uxtb	r3, r3
 1204 002c 002B     		cmp	r3, #0
 1205 002e 00D0     		beq	.L73
 1206 0030 29E0     		b	.L72
 1207              	.L73:
 1208              		.loc 1 262 0
 1209 0032 099B     		ldr	r3, [sp, #36]
 1210 0034 9868     		ldr	r0, [r3, #8]
 1211 0036 099B     		ldr	r3, [sp, #36]
 1212 0038 9B89     		ldrh	r3, [r3, #12]
 1213 003a 9AB2     		uxth	r2, r3
 1214 003c BDF82230 		ldrh	r3, [sp, #34]
 1215 0040 1344     		add	r3, r3, r2
 1216 0042 9BB2     		uxth	r3, r3
 1217 0044 99B2     		uxth	r1, r3
 1218 0046 099B     		ldr	r3, [sp, #36]
 1219 0048 DB89     		ldrh	r3, [r3, #14]
 1220 004a 9AB2     		uxth	r2, r3
 1221 004c BDF82030 		ldrh	r3, [sp, #32]
 1222 0050 1344     		add	r3, r3, r2
 1223 0052 9BB2     		uxth	r3, r3
 1224 0054 9BB2     		uxth	r3, r3
 1225 0056 09B2     		sxth	r1, r1
 1226 0058 1AB2     		sxth	r2, r3
 1227 005a BDF91E40 		ldrsh	r4, [sp, #30]
 1228 005e BDF93030 		ldrsh	r3, [sp, #48]
 1229 0062 0093     		str	r3, [sp]
 1230 0064 BDF93430 		ldrsh	r3, [sp, #52]
 1231 0068 0193     		str	r3, [sp, #4]
 1232 006a BDF93830 		ldrsh	r3, [sp, #56]
 1233 006e 0293     		str	r3, [sp, #8]
 1234 0070 BDF93C30 		ldrsh	r3, [sp, #60]
 1235 0074 0393     		str	r3, [sp, #12]
 1236 0076 109B     		ldr	r3, [sp, #64]
 1237 0078 0493     		str	r3, [sp, #16]
 1238 007a 2346     		mov	r3, r4
 1239 007c FFF7FEFF 		bl	gdispGBlitArea
 1240              		.loc 1 263 0
 1241 0080 0998     		ldr	r0, [sp, #36]
 1242 0082 FFF7FEFF 		bl	_gwinDrawEnd
ARM GAS  /tmp/cc8hijCZ.s 			page 23


 1243              	.L72:
 1244              		.loc 1 264 0
 1245 0086 0AB0     		add	sp, sp, #40
 1246              		.cfi_def_cfa_offset 8
 1247              		@ sp needed
 1248 0088 10BD     		pop	{r4, pc}
 1249              		.cfi_endproc
 1250              	.LFE133:
 1251              		.size	gwinBlitArea, .-gwinBlitArea
 1252 008a 00BFAFF3 		.section	.text.gwinDrawChar,"ax",%progbits
 1252      0080
 1253              		.align	2
 1254              		.p2align 4,,15
 1255              		.global	gwinDrawChar
 1256              		.thumb
 1257              		.thumb_func
 1258              		.type	gwinDrawChar, %function
 1259              	gwinDrawChar:
 1260              	.LFB134:
 1261              		.loc 1 331 0
 1262              		.cfi_startproc
 1263              		@ args = 0, pretend = 0, frame = 16
 1264              		@ frame_needed = 0, uses_anonymous_args = 0
 1265 0000 30B5     		push	{r4, r5, lr}
 1266              		.cfi_def_cfa_offset 12
 1267              		.cfi_offset 4, -12
 1268              		.cfi_offset 5, -8
 1269              		.cfi_offset 14, -4
 1270 0002 87B0     		sub	sp, sp, #28
 1271              		.cfi_def_cfa_offset 40
 1272 0004 0590     		str	r0, [sp, #20]
 1273 0006 0846     		mov	r0, r1
 1274 0008 1146     		mov	r1, r2
 1275 000a 1A46     		mov	r2, r3
 1276 000c 0346     		mov	r3, r0	@ movhi
 1277 000e ADF81230 		strh	r3, [sp, #18]	@ movhi
 1278 0012 0B46     		mov	r3, r1	@ movhi
 1279 0014 ADF81030 		strh	r3, [sp, #16]	@ movhi
 1280 0018 1346     		mov	r3, r2
 1281 001a 8DF80F30 		strb	r3, [sp, #15]
 1282              		.loc 1 332 0
 1283 001e 059B     		ldr	r3, [sp, #20]
 1284 0020 DB69     		ldr	r3, [r3, #28]
 1285 0022 002B     		cmp	r3, #0
 1286 0024 08D0     		beq	.L76
 1287              		.loc 1 332 0 is_stmt 0 discriminator 1
 1288 0026 0598     		ldr	r0, [sp, #20]
 1289 0028 FFF7FEFF 		bl	_gwinDrawStart
 1290 002c 0346     		mov	r3, r0
 1291 002e 83F00103 		eor	r3, r3, #1
 1292 0032 DBB2     		uxtb	r3, r3
 1293 0034 002B     		cmp	r3, #0
 1294 0036 00D0     		beq	.L77
 1295              	.L76:
 1296              		.loc 1 332 0
 1297 0038 23E0     		b	.L75
 1298              	.L77:
ARM GAS  /tmp/cc8hijCZ.s 			page 24


 1299              		.loc 1 333 0 is_stmt 1
 1300 003a 059B     		ldr	r3, [sp, #20]
 1301 003c 9868     		ldr	r0, [r3, #8]
 1302 003e 059B     		ldr	r3, [sp, #20]
 1303 0040 9B89     		ldrh	r3, [r3, #12]
 1304 0042 9AB2     		uxth	r2, r3
 1305 0044 BDF81230 		ldrh	r3, [sp, #18]
 1306 0048 1344     		add	r3, r3, r2
 1307 004a 9BB2     		uxth	r3, r3
 1308 004c 99B2     		uxth	r1, r3
 1309 004e 059B     		ldr	r3, [sp, #20]
 1310 0050 DB89     		ldrh	r3, [r3, #14]
 1311 0052 9AB2     		uxth	r2, r3
 1312 0054 BDF81030 		ldrh	r3, [sp, #16]
 1313 0058 1344     		add	r3, r3, r2
 1314 005a 9BB2     		uxth	r3, r3
 1315 005c 9DB2     		uxth	r5, r3
 1316 005e 9DF80F30 		ldrb	r3, [sp, #15]	@ zero_extendqisi2
 1317 0062 9CB2     		uxth	r4, r3
 1318 0064 059B     		ldr	r3, [sp, #20]
 1319 0066 DA69     		ldr	r2, [r3, #28]
 1320 0068 059B     		ldr	r3, [sp, #20]
 1321 006a 9B8A     		ldrh	r3, [r3, #20]
 1322 006c 09B2     		sxth	r1, r1
 1323 006e 2DB2     		sxth	r5, r5
 1324 0070 0092     		str	r2, [sp]
 1325 0072 0193     		str	r3, [sp, #4]
 1326 0074 2A46     		mov	r2, r5
 1327 0076 2346     		mov	r3, r4
 1328 0078 FFF7FEFF 		bl	gdispGDrawChar
 1329              		.loc 1 334 0
 1330 007c 0598     		ldr	r0, [sp, #20]
 1331 007e FFF7FEFF 		bl	_gwinDrawEnd
 1332              	.L75:
 1333              		.loc 1 335 0
 1334 0082 07B0     		add	sp, sp, #28
 1335              		.cfi_def_cfa_offset 12
 1336              		@ sp needed
 1337 0084 30BD     		pop	{r4, r5, pc}
 1338              		.cfi_endproc
 1339              	.LFE134:
 1340              		.size	gwinDrawChar, .-gwinDrawChar
 1341 0086 00BFAFF3 		.section	.text.gwinFillChar,"ax",%progbits
 1341      0080AFF3 
 1341      0080
 1342              		.align	2
 1343              		.p2align 4,,15
 1344              		.global	gwinFillChar
 1345              		.thumb
 1346              		.thumb_func
 1347              		.type	gwinFillChar, %function
 1348              	gwinFillChar:
 1349              	.LFB135:
 1350              		.loc 1 337 0
 1351              		.cfi_startproc
 1352              		@ args = 0, pretend = 0, frame = 16
 1353              		@ frame_needed = 0, uses_anonymous_args = 0
ARM GAS  /tmp/cc8hijCZ.s 			page 25


 1354 0000 70B5     		push	{r4, r5, r6, lr}
 1355              		.cfi_def_cfa_offset 16
 1356              		.cfi_offset 4, -16
 1357              		.cfi_offset 5, -12
 1358              		.cfi_offset 6, -8
 1359              		.cfi_offset 14, -4
 1360 0002 88B0     		sub	sp, sp, #32
 1361              		.cfi_def_cfa_offset 48
 1362 0004 0790     		str	r0, [sp, #28]
 1363 0006 0846     		mov	r0, r1
 1364 0008 1146     		mov	r1, r2
 1365 000a 1A46     		mov	r2, r3
 1366 000c 0346     		mov	r3, r0	@ movhi
 1367 000e ADF81A30 		strh	r3, [sp, #26]	@ movhi
 1368 0012 0B46     		mov	r3, r1	@ movhi
 1369 0014 ADF81830 		strh	r3, [sp, #24]	@ movhi
 1370 0018 1346     		mov	r3, r2
 1371 001a 8DF81730 		strb	r3, [sp, #23]
 1372              		.loc 1 338 0
 1373 001e 079B     		ldr	r3, [sp, #28]
 1374 0020 DB69     		ldr	r3, [r3, #28]
 1375 0022 002B     		cmp	r3, #0
 1376 0024 08D0     		beq	.L80
 1377              		.loc 1 338 0 is_stmt 0 discriminator 1
 1378 0026 0798     		ldr	r0, [sp, #28]
 1379 0028 FFF7FEFF 		bl	_gwinDrawStart
 1380 002c 0346     		mov	r3, r0
 1381 002e 83F00103 		eor	r3, r3, #1
 1382 0032 DBB2     		uxtb	r3, r3
 1383 0034 002B     		cmp	r3, #0
 1384 0036 00D0     		beq	.L81
 1385              	.L80:
 1386              		.loc 1 338 0
 1387 0038 27E0     		b	.L79
 1388              	.L81:
 1389              		.loc 1 339 0 is_stmt 1
 1390 003a 079B     		ldr	r3, [sp, #28]
 1391 003c 9868     		ldr	r0, [r3, #8]
 1392 003e 079B     		ldr	r3, [sp, #28]
 1393 0040 9B89     		ldrh	r3, [r3, #12]
 1394 0042 9AB2     		uxth	r2, r3
 1395 0044 BDF81A30 		ldrh	r3, [sp, #26]
 1396 0048 1344     		add	r3, r3, r2
 1397 004a 9BB2     		uxth	r3, r3
 1398 004c 9EB2     		uxth	r6, r3
 1399 004e 079B     		ldr	r3, [sp, #28]
 1400 0050 DB89     		ldrh	r3, [r3, #14]
 1401 0052 9AB2     		uxth	r2, r3
 1402 0054 BDF81830 		ldrh	r3, [sp, #24]
 1403 0058 1344     		add	r3, r3, r2
 1404 005a 9BB2     		uxth	r3, r3
 1405 005c 9DB2     		uxth	r5, r3
 1406 005e 9DF81730 		ldrb	r3, [sp, #23]	@ zero_extendqisi2
 1407 0062 9CB2     		uxth	r4, r3
 1408 0064 079B     		ldr	r3, [sp, #28]
 1409 0066 D969     		ldr	r1, [r3, #28]
 1410 0068 079B     		ldr	r3, [sp, #28]
ARM GAS  /tmp/cc8hijCZ.s 			page 26


 1411 006a 9A8A     		ldrh	r2, [r3, #20]
 1412 006c 079B     		ldr	r3, [sp, #28]
 1413 006e DB8A     		ldrh	r3, [r3, #22]
 1414 0070 36B2     		sxth	r6, r6
 1415 0072 2DB2     		sxth	r5, r5
 1416 0074 0091     		str	r1, [sp]
 1417 0076 0192     		str	r2, [sp, #4]
 1418 0078 0293     		str	r3, [sp, #8]
 1419 007a 3146     		mov	r1, r6
 1420 007c 2A46     		mov	r2, r5
 1421 007e 2346     		mov	r3, r4
 1422 0080 FFF7FEFF 		bl	gdispGFillChar
 1423              		.loc 1 340 0
 1424 0084 0798     		ldr	r0, [sp, #28]
 1425 0086 FFF7FEFF 		bl	_gwinDrawEnd
 1426              	.L79:
 1427              		.loc 1 341 0
 1428 008a 08B0     		add	sp, sp, #32
 1429              		.cfi_def_cfa_offset 16
 1430              		@ sp needed
 1431 008c 70BD     		pop	{r4, r5, r6, pc}
 1432              		.cfi_endproc
 1433              	.LFE135:
 1434              		.size	gwinFillChar, .-gwinFillChar
 1435 008e 00BF     		.section	.text.gwinDrawString,"ax",%progbits
 1436              		.align	2
 1437              		.p2align 4,,15
 1438              		.global	gwinDrawString
 1439              		.thumb
 1440              		.thumb_func
 1441              		.type	gwinDrawString, %function
 1442              	gwinDrawString:
 1443              	.LFB136:
 1444              		.loc 1 343 0
 1445              		.cfi_startproc
 1446              		@ args = 0, pretend = 0, frame = 16
 1447              		@ frame_needed = 0, uses_anonymous_args = 0
 1448 0000 10B5     		push	{r4, lr}
 1449              		.cfi_def_cfa_offset 8
 1450              		.cfi_offset 4, -8
 1451              		.cfi_offset 14, -4
 1452 0002 86B0     		sub	sp, sp, #24
 1453              		.cfi_def_cfa_offset 32
 1454 0004 0590     		str	r0, [sp, #20]
 1455 0006 0393     		str	r3, [sp, #12]
 1456 0008 0B46     		mov	r3, r1	@ movhi
 1457 000a ADF81230 		strh	r3, [sp, #18]	@ movhi
 1458 000e 1346     		mov	r3, r2	@ movhi
 1459 0010 ADF81030 		strh	r3, [sp, #16]	@ movhi
 1460              		.loc 1 344 0
 1461 0014 059B     		ldr	r3, [sp, #20]
 1462 0016 DB69     		ldr	r3, [r3, #28]
 1463 0018 002B     		cmp	r3, #0
 1464 001a 08D0     		beq	.L84
 1465              		.loc 1 344 0 is_stmt 0 discriminator 1
 1466 001c 0598     		ldr	r0, [sp, #20]
 1467 001e FFF7FEFF 		bl	_gwinDrawStart
ARM GAS  /tmp/cc8hijCZ.s 			page 27


 1468 0022 0346     		mov	r3, r0
 1469 0024 83F00103 		eor	r3, r3, #1
 1470 0028 DBB2     		uxtb	r3, r3
 1471 002a 002B     		cmp	r3, #0
 1472 002c 00D0     		beq	.L85
 1473              	.L84:
 1474              		.loc 1 344 0
 1475 002e 20E0     		b	.L83
 1476              	.L85:
 1477              		.loc 1 345 0 is_stmt 1
 1478 0030 059B     		ldr	r3, [sp, #20]
 1479 0032 9868     		ldr	r0, [r3, #8]
 1480 0034 059B     		ldr	r3, [sp, #20]
 1481 0036 9B89     		ldrh	r3, [r3, #12]
 1482 0038 9AB2     		uxth	r2, r3
 1483 003a BDF81230 		ldrh	r3, [sp, #18]
 1484 003e 1344     		add	r3, r3, r2
 1485 0040 9BB2     		uxth	r3, r3
 1486 0042 99B2     		uxth	r1, r3
 1487 0044 059B     		ldr	r3, [sp, #20]
 1488 0046 DB89     		ldrh	r3, [r3, #14]
 1489 0048 9AB2     		uxth	r2, r3
 1490 004a BDF81030 		ldrh	r3, [sp, #16]
 1491 004e 1344     		add	r3, r3, r2
 1492 0050 9BB2     		uxth	r3, r3
 1493 0052 9CB2     		uxth	r4, r3
 1494 0054 059B     		ldr	r3, [sp, #20]
 1495 0056 DA69     		ldr	r2, [r3, #28]
 1496 0058 059B     		ldr	r3, [sp, #20]
 1497 005a 9B8A     		ldrh	r3, [r3, #20]
 1498 005c 09B2     		sxth	r1, r1
 1499 005e 24B2     		sxth	r4, r4
 1500 0060 0092     		str	r2, [sp]
 1501 0062 0193     		str	r3, [sp, #4]
 1502 0064 2246     		mov	r2, r4
 1503 0066 039B     		ldr	r3, [sp, #12]
 1504 0068 FFF7FEFF 		bl	gdispGDrawString
 1505              		.loc 1 346 0
 1506 006c 0598     		ldr	r0, [sp, #20]
 1507 006e FFF7FEFF 		bl	_gwinDrawEnd
 1508              	.L83:
 1509              		.loc 1 347 0
 1510 0072 06B0     		add	sp, sp, #24
 1511              		.cfi_def_cfa_offset 8
 1512              		@ sp needed
 1513 0074 10BD     		pop	{r4, pc}
 1514              		.cfi_endproc
 1515              	.LFE136:
 1516              		.size	gwinDrawString, .-gwinDrawString
 1517 0076 00BFAFF3 		.section	.text.gwinFillString,"ax",%progbits
 1517      0080AFF3 
 1517      0080
 1518              		.align	2
 1519              		.p2align 4,,15
 1520              		.global	gwinFillString
 1521              		.thumb
 1522              		.thumb_func
ARM GAS  /tmp/cc8hijCZ.s 			page 28


 1523              		.type	gwinFillString, %function
 1524              	gwinFillString:
 1525              	.LFB137:
 1526              		.loc 1 349 0
 1527              		.cfi_startproc
 1528              		@ args = 0, pretend = 0, frame = 16
 1529              		@ frame_needed = 0, uses_anonymous_args = 0
 1530 0000 30B5     		push	{r4, r5, lr}
 1531              		.cfi_def_cfa_offset 12
 1532              		.cfi_offset 4, -12
 1533              		.cfi_offset 5, -8
 1534              		.cfi_offset 14, -4
 1535 0002 89B0     		sub	sp, sp, #36
 1536              		.cfi_def_cfa_offset 48
 1537 0004 0790     		str	r0, [sp, #28]
 1538 0006 0593     		str	r3, [sp, #20]
 1539 0008 0B46     		mov	r3, r1	@ movhi
 1540 000a ADF81A30 		strh	r3, [sp, #26]	@ movhi
 1541 000e 1346     		mov	r3, r2	@ movhi
 1542 0010 ADF81830 		strh	r3, [sp, #24]	@ movhi
 1543              		.loc 1 350 0
 1544 0014 079B     		ldr	r3, [sp, #28]
 1545 0016 DB69     		ldr	r3, [r3, #28]
 1546 0018 002B     		cmp	r3, #0
 1547 001a 08D0     		beq	.L88
 1548              		.loc 1 350 0 is_stmt 0 discriminator 1
 1549 001c 0798     		ldr	r0, [sp, #28]
 1550 001e FFF7FEFF 		bl	_gwinDrawStart
 1551 0022 0346     		mov	r3, r0
 1552 0024 83F00103 		eor	r3, r3, #1
 1553 0028 DBB2     		uxtb	r3, r3
 1554 002a 002B     		cmp	r3, #0
 1555 002c 00D0     		beq	.L89
 1556              	.L88:
 1557              		.loc 1 350 0
 1558 002e 24E0     		b	.L87
 1559              	.L89:
 1560              		.loc 1 351 0 is_stmt 1
 1561 0030 079B     		ldr	r3, [sp, #28]
 1562 0032 9868     		ldr	r0, [r3, #8]
 1563 0034 079B     		ldr	r3, [sp, #28]
 1564 0036 9B89     		ldrh	r3, [r3, #12]
 1565 0038 9AB2     		uxth	r2, r3
 1566 003a BDF81A30 		ldrh	r3, [sp, #26]
 1567 003e 1344     		add	r3, r3, r2
 1568 0040 9BB2     		uxth	r3, r3
 1569 0042 9DB2     		uxth	r5, r3
 1570 0044 079B     		ldr	r3, [sp, #28]
 1571 0046 DB89     		ldrh	r3, [r3, #14]
 1572 0048 9AB2     		uxth	r2, r3
 1573 004a BDF81830 		ldrh	r3, [sp, #24]
 1574 004e 1344     		add	r3, r3, r2
 1575 0050 9BB2     		uxth	r3, r3
 1576 0052 9CB2     		uxth	r4, r3
 1577 0054 079B     		ldr	r3, [sp, #28]
 1578 0056 D969     		ldr	r1, [r3, #28]
 1579 0058 079B     		ldr	r3, [sp, #28]
ARM GAS  /tmp/cc8hijCZ.s 			page 29


 1580 005a 9A8A     		ldrh	r2, [r3, #20]
 1581 005c 079B     		ldr	r3, [sp, #28]
 1582 005e DB8A     		ldrh	r3, [r3, #22]
 1583 0060 2DB2     		sxth	r5, r5
 1584 0062 24B2     		sxth	r4, r4
 1585 0064 0091     		str	r1, [sp]
 1586 0066 0192     		str	r2, [sp, #4]
 1587 0068 0293     		str	r3, [sp, #8]
 1588 006a 2946     		mov	r1, r5
 1589 006c 2246     		mov	r2, r4
 1590 006e 059B     		ldr	r3, [sp, #20]
 1591 0070 FFF7FEFF 		bl	gdispGFillString
 1592              		.loc 1 352 0
 1593 0074 0798     		ldr	r0, [sp, #28]
 1594 0076 FFF7FEFF 		bl	_gwinDrawEnd
 1595              	.L87:
 1596              		.loc 1 353 0
 1597 007a 09B0     		add	sp, sp, #36
 1598              		.cfi_def_cfa_offset 12
 1599              		@ sp needed
 1600 007c 30BD     		pop	{r4, r5, pc}
 1601              		.cfi_endproc
 1602              	.LFE137:
 1603              		.size	gwinFillString, .-gwinFillString
 1604 007e 00BF     		.section	.text.gwinDrawStringBox,"ax",%progbits
 1605              		.align	2
 1606              		.p2align 4,,15
 1607              		.global	gwinDrawStringBox
 1608              		.thumb
 1609              		.thumb_func
 1610              		.type	gwinDrawStringBox, %function
 1611              	gwinDrawStringBox:
 1612              	.LFB138:
 1613              		.loc 1 355 0
 1614              		.cfi_startproc
 1615              		@ args = 12, pretend = 0, frame = 16
 1616              		@ frame_needed = 0, uses_anonymous_args = 0
 1617 0000 70B5     		push	{r4, r5, r6, lr}
 1618              		.cfi_def_cfa_offset 16
 1619              		.cfi_offset 4, -16
 1620              		.cfi_offset 5, -12
 1621              		.cfi_offset 6, -8
 1622              		.cfi_offset 14, -4
 1623 0002 8AB0     		sub	sp, sp, #40
 1624              		.cfi_def_cfa_offset 56
 1625 0004 0990     		str	r0, [sp, #36]
 1626 0006 0846     		mov	r0, r1
 1627 0008 1146     		mov	r1, r2
 1628 000a 1A46     		mov	r2, r3
 1629 000c 0346     		mov	r3, r0	@ movhi
 1630 000e ADF82230 		strh	r3, [sp, #34]	@ movhi
 1631 0012 0B46     		mov	r3, r1	@ movhi
 1632 0014 ADF82030 		strh	r3, [sp, #32]	@ movhi
 1633 0018 1346     		mov	r3, r2	@ movhi
 1634 001a ADF81E30 		strh	r3, [sp, #30]	@ movhi
 1635              		.loc 1 356 0
 1636 001e 099B     		ldr	r3, [sp, #36]
ARM GAS  /tmp/cc8hijCZ.s 			page 30


 1637 0020 DB69     		ldr	r3, [r3, #28]
 1638 0022 002B     		cmp	r3, #0
 1639 0024 08D0     		beq	.L92
 1640              		.loc 1 356 0 is_stmt 0 discriminator 1
 1641 0026 0998     		ldr	r0, [sp, #36]
 1642 0028 FFF7FEFF 		bl	_gwinDrawStart
 1643 002c 0346     		mov	r3, r0
 1644 002e 83F00103 		eor	r3, r3, #1
 1645 0032 DBB2     		uxtb	r3, r3
 1646 0034 002B     		cmp	r3, #0
 1647 0036 00D0     		beq	.L93
 1648              	.L92:
 1649              		.loc 1 356 0
 1650 0038 2BE0     		b	.L91
 1651              	.L93:
 1652              		.loc 1 357 0 is_stmt 1
 1653 003a 099B     		ldr	r3, [sp, #36]
 1654 003c 9868     		ldr	r0, [r3, #8]
 1655 003e 099B     		ldr	r3, [sp, #36]
 1656 0040 9B89     		ldrh	r3, [r3, #12]
 1657 0042 9AB2     		uxth	r2, r3
 1658 0044 BDF82230 		ldrh	r3, [sp, #34]
 1659 0048 1344     		add	r3, r3, r2
 1660 004a 9BB2     		uxth	r3, r3
 1661 004c 9CB2     		uxth	r4, r3
 1662 004e 099B     		ldr	r3, [sp, #36]
 1663 0050 DB89     		ldrh	r3, [r3, #14]
 1664 0052 9AB2     		uxth	r2, r3
 1665 0054 BDF82030 		ldrh	r3, [sp, #32]
 1666 0058 1344     		add	r3, r3, r2
 1667 005a 9BB2     		uxth	r3, r3
 1668 005c 99B2     		uxth	r1, r3
 1669 005e 099B     		ldr	r3, [sp, #36]
 1670 0060 DA69     		ldr	r2, [r3, #28]
 1671 0062 099B     		ldr	r3, [sp, #36]
 1672 0064 9B8A     		ldrh	r3, [r3, #20]
 1673 0066 26B2     		sxth	r6, r4
 1674 0068 0DB2     		sxth	r5, r1
 1675 006a BDF91E40 		ldrsh	r4, [sp, #30]
 1676 006e BDF93810 		ldrsh	r1, [sp, #56]
 1677 0072 0091     		str	r1, [sp]
 1678 0074 0F99     		ldr	r1, [sp, #60]
 1679 0076 0191     		str	r1, [sp, #4]
 1680 0078 0292     		str	r2, [sp, #8]
 1681 007a 0393     		str	r3, [sp, #12]
 1682 007c 9DF84030 		ldrb	r3, [sp, #64]	@ zero_extendqisi2
 1683 0080 0493     		str	r3, [sp, #16]
 1684 0082 3146     		mov	r1, r6
 1685 0084 2A46     		mov	r2, r5
 1686 0086 2346     		mov	r3, r4
 1687 0088 FFF7FEFF 		bl	gdispGDrawStringBox
 1688              		.loc 1 358 0
 1689 008c 0998     		ldr	r0, [sp, #36]
 1690 008e FFF7FEFF 		bl	_gwinDrawEnd
 1691              	.L91:
 1692              		.loc 1 359 0
 1693 0092 0AB0     		add	sp, sp, #40
ARM GAS  /tmp/cc8hijCZ.s 			page 31


 1694              		.cfi_def_cfa_offset 16
 1695              		@ sp needed
 1696 0094 70BD     		pop	{r4, r5, r6, pc}
 1697              		.cfi_endproc
 1698              	.LFE138:
 1699              		.size	gwinDrawStringBox, .-gwinDrawStringBox
 1700 0096 00BFAFF3 		.section	.text.gwinFillStringBox,"ax",%progbits
 1700      0080AFF3 
 1700      0080
 1701              		.align	2
 1702              		.p2align 4,,15
 1703              		.global	gwinFillStringBox
 1704              		.thumb
 1705              		.thumb_func
 1706              		.type	gwinFillStringBox, %function
 1707              	gwinFillStringBox:
 1708              	.LFB139:
 1709              		.loc 1 361 0
 1710              		.cfi_startproc
 1711              		@ args = 12, pretend = 0, frame = 16
 1712              		@ frame_needed = 0, uses_anonymous_args = 0
 1713 0000 F0B5     		push	{r4, r5, r6, r7, lr}
 1714              		.cfi_def_cfa_offset 20
 1715              		.cfi_offset 4, -20
 1716              		.cfi_offset 5, -16
 1717              		.cfi_offset 6, -12
 1718              		.cfi_offset 7, -8
 1719              		.cfi_offset 14, -4
 1720 0002 8BB0     		sub	sp, sp, #44
 1721              		.cfi_def_cfa_offset 64
 1722 0004 0990     		str	r0, [sp, #36]
 1723 0006 0846     		mov	r0, r1
 1724 0008 1146     		mov	r1, r2
 1725 000a 1A46     		mov	r2, r3
 1726 000c 0346     		mov	r3, r0	@ movhi
 1727 000e ADF82230 		strh	r3, [sp, #34]	@ movhi
 1728 0012 0B46     		mov	r3, r1	@ movhi
 1729 0014 ADF82030 		strh	r3, [sp, #32]	@ movhi
 1730 0018 1346     		mov	r3, r2	@ movhi
 1731 001a ADF81E30 		strh	r3, [sp, #30]	@ movhi
 1732              		.loc 1 362 0
 1733 001e 099B     		ldr	r3, [sp, #36]
 1734 0020 DB69     		ldr	r3, [r3, #28]
 1735 0022 002B     		cmp	r3, #0
 1736 0024 08D0     		beq	.L96
 1737              		.loc 1 362 0 is_stmt 0 discriminator 1
 1738 0026 0998     		ldr	r0, [sp, #36]
 1739 0028 FFF7FEFF 		bl	_gwinDrawStart
 1740 002c 0346     		mov	r3, r0
 1741 002e 83F00103 		eor	r3, r3, #1
 1742 0032 DBB2     		uxtb	r3, r3
 1743 0034 002B     		cmp	r3, #0
 1744 0036 00D0     		beq	.L97
 1745              	.L96:
 1746              		.loc 1 362 0
 1747 0038 2FE0     		b	.L95
 1748              	.L97:
ARM GAS  /tmp/cc8hijCZ.s 			page 32


 1749              		.loc 1 363 0 is_stmt 1
 1750 003a 099B     		ldr	r3, [sp, #36]
 1751 003c 9F68     		ldr	r7, [r3, #8]
 1752 003e 099B     		ldr	r3, [sp, #36]
 1753 0040 9B89     		ldrh	r3, [r3, #12]
 1754 0042 9AB2     		uxth	r2, r3
 1755 0044 BDF82230 		ldrh	r3, [sp, #34]
 1756 0048 1344     		add	r3, r3, r2
 1757 004a 9BB2     		uxth	r3, r3
 1758 004c 9CB2     		uxth	r4, r3
 1759 004e 099B     		ldr	r3, [sp, #36]
 1760 0050 DB89     		ldrh	r3, [r3, #14]
 1761 0052 9AB2     		uxth	r2, r3
 1762 0054 BDF82030 		ldrh	r3, [sp, #32]
 1763 0058 1344     		add	r3, r3, r2
 1764 005a 9BB2     		uxth	r3, r3
 1765 005c 98B2     		uxth	r0, r3
 1766 005e 099B     		ldr	r3, [sp, #36]
 1767 0060 D969     		ldr	r1, [r3, #28]
 1768 0062 099B     		ldr	r3, [sp, #36]
 1769 0064 9A8A     		ldrh	r2, [r3, #20]
 1770 0066 099B     		ldr	r3, [sp, #36]
 1771 0068 DB8A     		ldrh	r3, [r3, #22]
 1772 006a 26B2     		sxth	r6, r4
 1773 006c 05B2     		sxth	r5, r0
 1774 006e BDF91E40 		ldrsh	r4, [sp, #30]
 1775 0072 BDF94000 		ldrsh	r0, [sp, #64]
 1776 0076 0090     		str	r0, [sp]
 1777 0078 1198     		ldr	r0, [sp, #68]
 1778 007a 0190     		str	r0, [sp, #4]
 1779 007c 0291     		str	r1, [sp, #8]
 1780 007e 0392     		str	r2, [sp, #12]
 1781 0080 0493     		str	r3, [sp, #16]
 1782 0082 9DF84830 		ldrb	r3, [sp, #72]	@ zero_extendqisi2
 1783 0086 0593     		str	r3, [sp, #20]
 1784 0088 3846     		mov	r0, r7
 1785 008a 3146     		mov	r1, r6
 1786 008c 2A46     		mov	r2, r5
 1787 008e 2346     		mov	r3, r4
 1788 0090 FFF7FEFF 		bl	gdispGFillStringBox
 1789              		.loc 1 364 0
 1790 0094 0998     		ldr	r0, [sp, #36]
 1791 0096 FFF7FEFF 		bl	_gwinDrawEnd
 1792              	.L95:
 1793              		.loc 1 365 0
 1794 009a 0BB0     		add	sp, sp, #44
 1795              		.cfi_def_cfa_offset 20
 1796              		@ sp needed
 1797 009c F0BD     		pop	{r4, r5, r6, r7, pc}
 1798              		.cfi_endproc
 1799              	.LFE139:
 1800              		.size	gwinFillStringBox, .-gwinFillStringBox
 1801 009e 00BF     		.section	.text.gwinDrawImage,"ax",%progbits
 1802              		.align	2
 1803              		.p2align 4,,15
 1804              		.global	gwinDrawImage
 1805              		.thumb
ARM GAS  /tmp/cc8hijCZ.s 			page 33


 1806              		.thumb_func
 1807              		.type	gwinDrawImage, %function
 1808              	gwinDrawImage:
 1809              	.LFB140:
 1810              		.loc 1 388 0
 1811              		.cfi_startproc
 1812              		@ args = 16, pretend = 0, frame = 24
 1813              		@ frame_needed = 0, uses_anonymous_args = 0
 1814 0000 10B5     		push	{r4, lr}
 1815              		.cfi_def_cfa_offset 8
 1816              		.cfi_offset 4, -8
 1817              		.cfi_offset 14, -4
 1818 0002 8AB0     		sub	sp, sp, #40
 1819              		.cfi_def_cfa_offset 48
 1820 0004 0790     		str	r0, [sp, #28]
 1821 0006 0691     		str	r1, [sp, #24]
 1822 0008 1146     		mov	r1, r2
 1823 000a 1A46     		mov	r2, r3
 1824 000c 0B46     		mov	r3, r1	@ movhi
 1825 000e ADF81630 		strh	r3, [sp, #22]	@ movhi
 1826 0012 1346     		mov	r3, r2	@ movhi
 1827 0014 ADF81430 		strh	r3, [sp, #20]	@ movhi
 1828              		.loc 1 391 0
 1829 0018 0798     		ldr	r0, [sp, #28]
 1830 001a FFF7FEFF 		bl	_gwinDrawStart
 1831 001e 0346     		mov	r3, r0
 1832 0020 83F00103 		eor	r3, r3, #1
 1833 0024 DBB2     		uxtb	r3, r3
 1834 0026 002B     		cmp	r3, #0
 1835 0028 01D0     		beq	.L100
 1836              		.loc 1 391 0 is_stmt 0 discriminator 1
 1837 002a 0023     		movs	r3, #0
 1838 002c 2CE0     		b	.L101
 1839              	.L100:
 1840              		.loc 1 392 0 is_stmt 1
 1841 002e 079B     		ldr	r3, [sp, #28]
 1842 0030 9968     		ldr	r1, [r3, #8]
 1843 0032 079B     		ldr	r3, [sp, #28]
 1844 0034 9B89     		ldrh	r3, [r3, #12]
 1845 0036 9AB2     		uxth	r2, r3
 1846 0038 BDF81630 		ldrh	r3, [sp, #22]
 1847 003c 1344     		add	r3, r3, r2
 1848 003e 9BB2     		uxth	r3, r3
 1849 0040 98B2     		uxth	r0, r3
 1850 0042 079B     		ldr	r3, [sp, #28]
 1851 0044 DB89     		ldrh	r3, [r3, #14]
 1852 0046 9AB2     		uxth	r2, r3
 1853 0048 BDF81430 		ldrh	r3, [sp, #20]
 1854 004c 1344     		add	r3, r3, r2
 1855 004e 9BB2     		uxth	r3, r3
 1856 0050 9BB2     		uxth	r3, r3
 1857 0052 02B2     		sxth	r2, r0
 1858 0054 1CB2     		sxth	r4, r3
 1859 0056 BDF93030 		ldrsh	r3, [sp, #48]
 1860 005a 0093     		str	r3, [sp]
 1861 005c BDF93430 		ldrsh	r3, [sp, #52]
 1862 0060 0193     		str	r3, [sp, #4]
ARM GAS  /tmp/cc8hijCZ.s 			page 34


 1863 0062 BDF93830 		ldrsh	r3, [sp, #56]
 1864 0066 0293     		str	r3, [sp, #8]
 1865 0068 BDF93C30 		ldrsh	r3, [sp, #60]
 1866 006c 0393     		str	r3, [sp, #12]
 1867 006e 0846     		mov	r0, r1
 1868 0070 0699     		ldr	r1, [sp, #24]
 1869 0072 2346     		mov	r3, r4
 1870 0074 FFF7FEFF 		bl	gdispGImageDraw
 1871 0078 0346     		mov	r3, r0
 1872 007a ADF82630 		strh	r3, [sp, #38]	@ movhi
 1873              		.loc 1 393 0
 1874 007e 0798     		ldr	r0, [sp, #28]
 1875 0080 FFF7FEFF 		bl	_gwinDrawEnd
 1876              		.loc 1 394 0
 1877 0084 BDF82630 		ldrh	r3, [sp, #38]
 1878              	.L101:
 1879              		.loc 1 395 0
 1880 0088 1846     		mov	r0, r3
 1881 008a 0AB0     		add	sp, sp, #40
 1882              		.cfi_def_cfa_offset 8
 1883              		@ sp needed
 1884 008c 10BD     		pop	{r4, pc}
 1885              		.cfi_endproc
 1886              	.LFE140:
 1887              		.size	gwinDrawImage, .-gwinDrawImage
 1888 008e 00BF     		.text
 1889              	.Letext0:
 1890              		.file 2 "/opt/gcc-arm-none-eabi/lib/gcc/arm-none-eabi/4.9.3/include/stddef.h"
 1891              		.file 3 "/opt/gcc-arm-none-eabi/arm-none-eabi/include/machine/_default_types.h"
 1892              		.file 4 "/opt/gcc-arm-none-eabi/arm-none-eabi/include/stdint.h"
 1893              		.file 5 "/home/makkmarci/workspace/ChibiOS_2.6.8/os/ports/GCC/ARMCMx/chtypes.h"
 1894              		.file 6 "/home/makkmarci/workspace/ugfx/src/gfile/gfile.h"
 1895              		.file 7 "/home/makkmarci/workspace/ugfx/src/gqueue/gqueue.h"
 1896              		.file 8 "/home/makkmarci/workspace/ugfx/src/gdisp/gdisp.h"
 1897              		.file 9 "/home/makkmarci/workspace/ugfx/src/gdisp/gdisp_colors.h"
 1898              		.file 10 "/home/makkmarci/workspace/ugfx/src/gdisp/gdisp_image.h"
 1899              		.file 11 "/home/makkmarci/workspace/ugfx/src/gwin/gwin.h"
 1900              		.file 12 "/home/makkmarci/workspace/ugfx/src/gwin/gwin_class.h"
 1901              		.file 13 "/home/makkmarci/workspace/ChibiOS_2.6.8/os/ports/common/ARMCMx/CMSIS/include/core_cm4.h"