ARM GAS  /tmp/cc8dDMC3.s 			page 1


   1              		.syntax unified
   2              		.cpu cortex-m4
   3              		.eabi_attribute 27, 1
   4              		.eabi_attribute 28, 1
   5              		.fpu fpv4-sp-d16
   6              		.eabi_attribute 20, 1
   7              		.eabi_attribute 21, 1
   8              		.eabi_attribute 23, 3
   9              		.eabi_attribute 24, 1
  10              		.eabi_attribute 25, 1
  11              		.eabi_attribute 26, 1
  12              		.eabi_attribute 30, 6
  13              		.eabi_attribute 34, 1
  14              		.eabi_attribute 18, 4
  15              		.thumb
  16              		.file	"gwin_widget.c"
  17              		.text
  18              	.Ltext0:
  19              		.cfi_sections	.debug_frame
  20              		.section	.bss.gl,"aw",%nobits
  21              		.align	2
  22              		.type	gl, %object
  23              		.size	gl, 60
  24              	gl:
  25 0000 00000000 		.space	60
  25      00000000 
  25      00000000 
  25      00000000 
  25      00000000 
  26              		.global	WhiteWidgetStyle
  27              		.section	.rodata.WhiteWidgetStyle,"a",%progbits
  28              		.align	2
  29              		.type	WhiteWidgetStyle, %object
  30              		.size	WhiteWidgetStyle, 26
  31              	WhiteWidgetStyle:
  32 0000 FFFF     		.short	-1
  33 0002 0000     		.short	0
  34 0004 0842     		.short	16904
  35 0006 1CE7     		.short	-6372
  36 0008 1CE7     		.short	-6372
  37 000a 18C6     		.short	-14824
  38 000c 1084     		.short	-31728
  39 000e 1CE7     		.short	-6372
  40 0010 18C7     		.short	-14568
  41 0012 0842     		.short	16904
  42 0014 0842     		.short	16904
  43 0016 1084     		.short	-31728
  44 0018 0007     		.short	1792
  45              		.global	BlackWidgetStyle
  46 001a 0000     		.section	.rodata.BlackWidgetStyle,"a",%progbits
  47              		.align	2
  48              		.type	BlackWidgetStyle, %object
  49              		.size	BlackWidgetStyle, 26
  50              	BlackWidgetStyle:
  51 0000 0000     		.short	0
  52 0002 18C6     		.short	-14824
  53 0004 18C6     		.short	-14824
ARM GAS  /tmp/cc8dDMC3.s 			page 2


  54 0006 0C63     		.short	25356
  55 0008 0842     		.short	16904
  56 000a 1084     		.short	-31728
  57 000c 0842     		.short	16904
  58 000e 0842     		.short	16904
  59 0010 0002     		.short	512
  60 0012 FFFF     		.short	-1
  61 0014 18C6     		.short	-14824
  62 0016 1CE7     		.short	-6372
  63 0018 0004     		.short	1024
  64 001a 0000     		.section	.data.defaultStyle,"aw",%progbits
  65              		.align	2
  66              		.type	defaultStyle, %object
  67              		.size	defaultStyle, 4
  68              	defaultStyle:
  69 0000 00000000 		.word	BlackWidgetStyle
  70              		.section	.text.gwidgetEvent,"ax",%progbits
  71              		.align	2
  72              		.p2align 4,,15
  73              		.thumb
  74              		.thumb_func
  75              		.type	gwidgetEvent, %function
  76              	gwidgetEvent:
  77              	.LFB111:
  78              		.file 1 "/home/makkmarci/workspace/ugfx/src/gwin/gwin_widget.c"
  79              		.loc 1 89 0
  80              		.cfi_startproc
  81              		@ args = 0, pretend = 0, frame = 16
  82              		@ frame_needed = 0, uses_anonymous_args = 0
  83 0000 00B5     		push	{lr}
  84              		.cfi_def_cfa_offset 4
  85              		.cfi_offset 14, -4
  86 0002 85B0     		sub	sp, sp, #20
  87              		.cfi_def_cfa_offset 24
  88 0004 0190     		str	r0, [sp, #4]
  89 0006 0091     		str	r1, [sp]
  90              		.loc 1 102 0
  91 0008 009B     		ldr	r3, [sp]
  92 000a 1B88     		ldrh	r3, [r3]
  93 000c A3F58073 		sub	r3, r3, #256
  94 0010 012B     		cmp	r3, #1
  95 0012 00F2D180 		bhi	.L16
  96              		.loc 1 108 0
  97 0016 0023     		movs	r3, #0
  98 0018 0293     		str	r3, [sp, #8]
  99 001a 0020     		movs	r0, #0
 100 001c FFF7FEFF 		bl	gwinGetNextWindow
 101 0020 0390     		str	r0, [sp, #12]
 102 0022 8FE0     		b	.L4
 103              	.L13:
 104              		.loc 1 111 0
 105 0024 039B     		ldr	r3, [sp, #12]
 106 0026 9A68     		ldr	r2, [r3, #8]
 107 0028 009B     		ldr	r3, [sp]
 108 002a DB68     		ldr	r3, [r3, #12]
 109 002c 9A42     		cmp	r2, r3
 110 002e 05D1     		bne	.L5
ARM GAS  /tmp/cc8dDMC3.s 			page 3


 111              		.loc 1 111 0 is_stmt 0 discriminator 1
 112 0030 039B     		ldr	r3, [sp, #12]
 113 0032 9B69     		ldr	r3, [r3, #24]
 114 0034 03F40073 		and	r3, r3, #512
 115 0038 002B     		cmp	r3, #0
 116 003a 00D1     		bne	.L6
 117              	.L5:
 118              		.loc 1 112 0 is_stmt 1
 119 003c 7EE0     		b	.L7
 120              	.L6:
 121              		.loc 1 115 0
 122 003e 039B     		ldr	r3, [sp, #12]
 123 0040 9B69     		ldr	r3, [r3, #24]
 124 0042 03F48203 		and	r3, r3, #4259840
 125 0046 B3F5820F 		cmp	r3, #4259840
 126 004a 4DD1     		bne	.L8
 127              		.loc 1 116 0
 128 004c 039B     		ldr	r3, [sp, #12]
 129 004e 0293     		str	r3, [sp, #8]
 130              		.loc 1 117 0
 131 0050 009B     		ldr	r3, [sp]
 132 0052 1B89     		ldrh	r3, [r3, #8]
 133 0054 03F02003 		and	r3, r3, #32
 134 0058 002B     		cmp	r3, #0
 135 005a 24D0     		beq	.L9
 136              		.loc 1 118 0
 137 005c 029B     		ldr	r3, [sp, #8]
 138 005e 9B69     		ldr	r3, [r3, #24]
 139 0060 23F48002 		bic	r2, r3, #4194304
 140 0064 029B     		ldr	r3, [sp, #8]
 141 0066 9A61     		str	r2, [r3, #24]
 142              		.loc 1 119 0
 143 0068 029B     		ldr	r3, [sp, #8]
 144 006a 5B68     		ldr	r3, [r3, #4]
 145 006c DB69     		ldr	r3, [r3, #28]
 146 006e 002B     		cmp	r3, #0
 147 0070 37D0     		beq	.L11
 148              		.loc 1 120 0
 149 0072 029B     		ldr	r3, [sp, #8]
 150 0074 5B68     		ldr	r3, [r3, #4]
 151 0076 DB69     		ldr	r3, [r3, #28]
 152 0078 009A     		ldr	r2, [sp]
 153 007a 5288     		ldrh	r2, [r2, #2]
 154 007c 91B2     		uxth	r1, r2
 155 007e 029A     		ldr	r2, [sp, #8]
 156 0080 9289     		ldrh	r2, [r2, #12]
 157 0082 92B2     		uxth	r2, r2
 158 0084 8A1A     		subs	r2, r1, r2
 159 0086 92B2     		uxth	r2, r2
 160 0088 90B2     		uxth	r0, r2
 161 008a 009A     		ldr	r2, [sp]
 162 008c 9288     		ldrh	r2, [r2, #4]
 163 008e 91B2     		uxth	r1, r2
 164 0090 029A     		ldr	r2, [sp, #8]
 165 0092 D289     		ldrh	r2, [r2, #14]
 166 0094 92B2     		uxth	r2, r2
 167 0096 8A1A     		subs	r2, r1, r2
ARM GAS  /tmp/cc8dDMC3.s 			page 4


 168 0098 92B2     		uxth	r2, r2
 169 009a 92B2     		uxth	r2, r2
 170 009c 01B2     		sxth	r1, r0
 171 009e 12B2     		sxth	r2, r2
 172 00a0 0298     		ldr	r0, [sp, #8]
 173 00a2 9847     		blx	r3
 174 00a4 1DE0     		b	.L11
 175              	.L9:
 176              		.loc 1 121 0
 177 00a6 029B     		ldr	r3, [sp, #8]
 178 00a8 5B68     		ldr	r3, [r3, #4]
 179 00aa 1B6A     		ldr	r3, [r3, #32]
 180 00ac 002B     		cmp	r3, #0
 181 00ae 18D0     		beq	.L11
 182              		.loc 1 122 0
 183 00b0 029B     		ldr	r3, [sp, #8]
 184 00b2 5B68     		ldr	r3, [r3, #4]
 185 00b4 1B6A     		ldr	r3, [r3, #32]
 186 00b6 009A     		ldr	r2, [sp]
 187 00b8 5288     		ldrh	r2, [r2, #2]
 188 00ba 91B2     		uxth	r1, r2
 189 00bc 029A     		ldr	r2, [sp, #8]
 190 00be 9289     		ldrh	r2, [r2, #12]
 191 00c0 92B2     		uxth	r2, r2
 192 00c2 8A1A     		subs	r2, r1, r2
 193 00c4 92B2     		uxth	r2, r2
 194 00c6 90B2     		uxth	r0, r2
 195 00c8 009A     		ldr	r2, [sp]
 196 00ca 9288     		ldrh	r2, [r2, #4]
 197 00cc 91B2     		uxth	r1, r2
 198 00ce 029A     		ldr	r2, [sp, #8]
 199 00d0 D289     		ldrh	r2, [r2, #14]
 200 00d2 92B2     		uxth	r2, r2
 201 00d4 8A1A     		subs	r2, r1, r2
 202 00d6 92B2     		uxth	r2, r2
 203 00d8 92B2     		uxth	r2, r2
 204 00da 01B2     		sxth	r1, r0
 205 00dc 12B2     		sxth	r2, r2
 206 00de 0298     		ldr	r0, [sp, #8]
 207 00e0 9847     		blx	r3
 208              	.L11:
 209              		.loc 1 125 0
 210 00e2 0023     		movs	r3, #0
 211 00e4 0293     		str	r3, [sp, #8]
 212              		.loc 1 126 0
 213 00e6 31E0     		b	.L12
 214              	.L8:
 215              		.loc 1 130 0
 216 00e8 009B     		ldr	r3, [sp]
 217 00ea 5A88     		ldrh	r2, [r3, #2]
 218 00ec 039B     		ldr	r3, [sp, #12]
 219 00ee 9B89     		ldrh	r3, [r3, #12]
 220 00f0 12B2     		sxth	r2, r2
 221 00f2 1BB2     		sxth	r3, r3
 222 00f4 9A42     		cmp	r2, r3
 223 00f6 21DB     		blt	.L7
 224              		.loc 1 130 0 is_stmt 0 discriminator 1
ARM GAS  /tmp/cc8dDMC3.s 			page 5


 225 00f8 009B     		ldr	r3, [sp]
 226 00fa 5B88     		ldrh	r3, [r3, #2]
 227 00fc 1AB2     		sxth	r2, r3
 228 00fe 039B     		ldr	r3, [sp, #12]
 229 0100 9B89     		ldrh	r3, [r3, #12]
 230 0102 19B2     		sxth	r1, r3
 231 0104 039B     		ldr	r3, [sp, #12]
 232 0106 1B8A     		ldrh	r3, [r3, #16]
 233 0108 1BB2     		sxth	r3, r3
 234 010a 0B44     		add	r3, r3, r1
 235 010c 9A42     		cmp	r2, r3
 236 010e 15DA     		bge	.L7
 237              		.loc 1 130 0 discriminator 2
 238 0110 009B     		ldr	r3, [sp]
 239 0112 9A88     		ldrh	r2, [r3, #4]
 240 0114 039B     		ldr	r3, [sp, #12]
 241 0116 DB89     		ldrh	r3, [r3, #14]
 242 0118 12B2     		sxth	r2, r2
 243 011a 1BB2     		sxth	r3, r3
 244 011c 9A42     		cmp	r2, r3
 245 011e 0DDB     		blt	.L7
 246              		.loc 1 130 0 discriminator 3
 247 0120 009B     		ldr	r3, [sp]
 248 0122 9B88     		ldrh	r3, [r3, #4]
 249 0124 1AB2     		sxth	r2, r3
 250 0126 039B     		ldr	r3, [sp, #12]
 251 0128 DB89     		ldrh	r3, [r3, #14]
 252 012a 19B2     		sxth	r1, r3
 253 012c 039B     		ldr	r3, [sp, #12]
 254 012e 5B8A     		ldrh	r3, [r3, #18]
 255 0130 1BB2     		sxth	r3, r3
 256 0132 0B44     		add	r3, r3, r1
 257 0134 9A42     		cmp	r2, r3
 258 0136 01DA     		bge	.L7
 259              		.loc 1 131 0 is_stmt 1
 260 0138 039B     		ldr	r3, [sp, #12]
 261 013a 0293     		str	r3, [sp, #8]
 262              	.L7:
 263              		.loc 1 108 0 discriminator 2
 264 013c 0398     		ldr	r0, [sp, #12]
 265 013e FFF7FEFF 		bl	gwinGetNextWindow
 266 0142 0390     		str	r0, [sp, #12]
 267              	.L4:
 268              		.loc 1 108 0 is_stmt 0 discriminator 1
 269 0144 039B     		ldr	r3, [sp, #12]
 270 0146 002B     		cmp	r3, #0
 271 0148 7FF46CAF 		bne	.L13
 272              	.L12:
 273              		.loc 1 135 0 is_stmt 1
 274 014c 029B     		ldr	r3, [sp, #8]
 275 014e 002B     		cmp	r3, #0
 276 0150 31D0     		beq	.L14
 277              		.loc 1 135 0 is_stmt 0 discriminator 1
 278 0152 029B     		ldr	r3, [sp, #8]
 279 0154 9B69     		ldr	r3, [r3, #24]
 280 0156 03F48433 		and	r3, r3, #67584
 281 015a B3F5843F 		cmp	r3, #67584
ARM GAS  /tmp/cc8dDMC3.s 			page 6


 282 015e 2AD1     		bne	.L14
 283              		.loc 1 136 0 is_stmt 1
 284 0160 009B     		ldr	r3, [sp]
 285 0162 1B89     		ldrh	r3, [r3, #8]
 286 0164 03F01003 		and	r3, r3, #16
 287 0168 002B     		cmp	r3, #0
 288 016a 24D0     		beq	.L14
 289              		.loc 1 137 0
 290 016c 029B     		ldr	r3, [sp, #8]
 291 016e 9B69     		ldr	r3, [r3, #24]
 292 0170 43F48002 		orr	r2, r3, #4194304
 293 0174 029B     		ldr	r3, [sp, #8]
 294 0176 9A61     		str	r2, [r3, #24]
 295              		.loc 1 138 0
 296 0178 029B     		ldr	r3, [sp, #8]
 297 017a 5B68     		ldr	r3, [r3, #4]
 298 017c 9B69     		ldr	r3, [r3, #24]
 299 017e 002B     		cmp	r3, #0
 300 0180 19D0     		beq	.L14
 301              		.loc 1 139 0
 302 0182 029B     		ldr	r3, [sp, #8]
 303 0184 5B68     		ldr	r3, [r3, #4]
 304 0186 9B69     		ldr	r3, [r3, #24]
 305 0188 009A     		ldr	r2, [sp]
 306 018a 5288     		ldrh	r2, [r2, #2]
 307 018c 91B2     		uxth	r1, r2
 308 018e 029A     		ldr	r2, [sp, #8]
 309 0190 9289     		ldrh	r2, [r2, #12]
 310 0192 92B2     		uxth	r2, r2
 311 0194 8A1A     		subs	r2, r1, r2
 312 0196 92B2     		uxth	r2, r2
 313 0198 90B2     		uxth	r0, r2
 314 019a 009A     		ldr	r2, [sp]
 315 019c 9288     		ldrh	r2, [r2, #4]
 316 019e 91B2     		uxth	r1, r2
 317 01a0 029A     		ldr	r2, [sp, #8]
 318 01a2 D289     		ldrh	r2, [r2, #14]
 319 01a4 92B2     		uxth	r2, r2
 320 01a6 8A1A     		subs	r2, r1, r2
 321 01a8 92B2     		uxth	r2, r2
 322 01aa 92B2     		uxth	r2, r2
 323 01ac 01B2     		sxth	r1, r0
 324 01ae 12B2     		sxth	r2, r2
 325 01b0 0298     		ldr	r0, [sp, #8]
 326 01b2 9847     		blx	r3
 327              		.loc 1 142 0
 328 01b4 01E0     		b	.L1
 329              	.L14:
 330 01b6 00E0     		b	.L1
 331              	.L16:
 332              		.loc 1 189 0
 333 01b8 00BF     		nop
 334              	.L1:
 335              		.loc 1 195 0
 336 01ba 05B0     		add	sp, sp, #20
 337              		.cfi_def_cfa_offset 4
 338              		@ sp needed
ARM GAS  /tmp/cc8dDMC3.s 			page 7


 339 01bc 5DF804FB 		ldr	pc, [sp], #4
 340              		.cfi_endproc
 341              	.LFE111:
 342              		.size	gwidgetEvent, .-gwidgetEvent
 343              		.section	.text._gwidgetInit,"ax",%progbits
 344              		.align	2
 345              		.p2align 4,,15
 346              		.global	_gwidgetInit
 347              		.thumb
 348              		.thumb_func
 349              		.type	_gwidgetInit, %function
 350              	_gwidgetInit:
 351              	.LFB112:
 352              		.loc 1 234 0
 353              		.cfi_startproc
 354              		@ args = 0, pretend = 0, frame = 0
 355              		@ frame_needed = 0, uses_anonymous_args = 0
 356 0000 08B5     		push	{r3, lr}
 357              		.cfi_def_cfa_offset 8
 358              		.cfi_offset 3, -8
 359              		.cfi_offset 14, -4
 360              		.loc 1 235 0
 361 0002 0948     		ldr	r0, .L18
 362 0004 FFF7FEFF 		bl	geventListenerInit
 363              		.loc 1 236 0
 364 0008 0748     		ldr	r0, .L18
 365 000a 0849     		ldr	r1, .L18+4
 366 000c 0022     		movs	r2, #0
 367 000e FFF7FEFF 		bl	geventRegisterCallback
 368              		.loc 1 237 0
 369 0012 4FF0FF30 		mov	r0, #-1
 370 0016 FFF7FEFF 		bl	ginputGetMouse
 371 001a 0346     		mov	r3, r0
 372 001c 0248     		ldr	r0, .L18
 373 001e 1946     		mov	r1, r3
 374 0020 0322     		movs	r2, #3
 375 0022 FFF7FEFF 		bl	geventAttachSource
 376              		.loc 1 238 0
 377 0026 08BD     		pop	{r3, pc}
 378              	.L19:
 379              		.align	2
 380              	.L18:
 381 0028 00000000 		.word	gl
 382 002c 00000000 		.word	gwidgetEvent
 383              		.cfi_endproc
 384              	.LFE112:
 385              		.size	_gwidgetInit, .-_gwidgetInit
 386              		.section	.text._gwidgetDeinit,"ax",%progbits
 387              		.align	2
 388              		.p2align 4,,15
 389              		.global	_gwidgetDeinit
 390              		.thumb
 391              		.thumb_func
 392              		.type	_gwidgetDeinit, %function
 393              	_gwidgetDeinit:
 394              	.LFB113:
 395              		.loc 1 241 0
ARM GAS  /tmp/cc8dDMC3.s 			page 8


 396              		.cfi_startproc
 397              		@ args = 0, pretend = 0, frame = 0
 398              		@ frame_needed = 0, uses_anonymous_args = 0
 399              		@ link register save eliminated.
 400              		.loc 1 243 0
 401 0000 7047     		bx	lr
 402              		.cfi_endproc
 403              	.LFE113:
 404              		.size	_gwidgetDeinit, .-_gwidgetDeinit
 405 0002 00BFAFF3 		.section	.rodata
 405      0080AFF3 
 405      0080AFF3 
 405      0080
 406              		.align	2
 407              	.LC0:
 408 0000 00       		.ascii	"\000"
 409 0001 000000   		.section	.text._gwidgetCreate,"ax",%progbits
 410              		.align	2
 411              		.p2align 4,,15
 412              		.global	_gwidgetCreate
 413              		.thumb
 414              		.thumb_func
 415              		.type	_gwidgetCreate, %function
 416              	_gwidgetCreate:
 417              	.LFB114:
 418              		.loc 1 245 0
 419              		.cfi_startproc
 420              		@ args = 0, pretend = 0, frame = 16
 421              		@ frame_needed = 0, uses_anonymous_args = 0
 422 0000 10B5     		push	{r4, lr}
 423              		.cfi_def_cfa_offset 8
 424              		.cfi_offset 4, -8
 425              		.cfi_offset 14, -4
 426 0002 86B0     		sub	sp, sp, #24
 427              		.cfi_def_cfa_offset 32
 428 0004 0590     		str	r0, [sp, #20]
 429 0006 0491     		str	r1, [sp, #16]
 430 0008 0392     		str	r2, [sp, #12]
 431 000a 0293     		str	r3, [sp, #8]
 432              		.loc 1 246 0
 433 000c 0499     		ldr	r1, [sp, #16]
 434 000e 039A     		ldr	r2, [sp, #12]
 435 0010 029C     		ldr	r4, [sp, #8]
 436 0012 4FF48633 		mov	r3, #68608
 437 0016 0093     		str	r3, [sp]
 438 0018 0598     		ldr	r0, [sp, #20]
 439 001a 2346     		mov	r3, r4
 440 001c FFF7FEFF 		bl	_gwindowCreate
 441 0020 0490     		str	r0, [sp, #16]
 442 0022 049B     		ldr	r3, [sp, #16]
 443 0024 002B     		cmp	r3, #0
 444 0026 01D1     		bne	.L22
 445              		.loc 1 247 0
 446 0028 0023     		movs	r3, #0
 447 002a 24E0     		b	.L23
 448              	.L22:
 449              		.loc 1 254 0
ARM GAS  /tmp/cc8dDMC3.s 			page 9


 450 002c 039B     		ldr	r3, [sp, #12]
 451 002e DB68     		ldr	r3, [r3, #12]
 452 0030 002B     		cmp	r3, #0
 453 0032 02D0     		beq	.L24
 454              		.loc 1 254 0 is_stmt 0 discriminator 1
 455 0034 039B     		ldr	r3, [sp, #12]
 456 0036 DB68     		ldr	r3, [r3, #12]
 457 0038 00E0     		b	.L25
 458              	.L24:
 459              		.loc 1 254 0 discriminator 2
 460 003a 104B     		ldr	r3, .L30
 461              	.L25:
 462              		.loc 1 254 0 discriminator 4
 463 003c 049A     		ldr	r2, [sp, #16]
 464 003e 1362     		str	r3, [r2, #32]
 465              		.loc 1 255 0 is_stmt 1 discriminator 4
 466 0040 039B     		ldr	r3, [sp, #12]
 467 0042 1B69     		ldr	r3, [r3, #16]
 468 0044 002B     		cmp	r3, #0
 469 0046 02D0     		beq	.L26
 470              		.loc 1 255 0 is_stmt 0 discriminator 1
 471 0048 039B     		ldr	r3, [sp, #12]
 472 004a 1B69     		ldr	r3, [r3, #16]
 473 004c 01E0     		b	.L27
 474              	.L26:
 475              		.loc 1 255 0 discriminator 2
 476 004e 029B     		ldr	r3, [sp, #8]
 477 0050 5B69     		ldr	r3, [r3, #20]
 478              	.L27:
 479              		.loc 1 255 0 discriminator 4
 480 0052 049A     		ldr	r2, [sp, #16]
 481 0054 5362     		str	r3, [r2, #36]
 482              		.loc 1 256 0 is_stmt 1 discriminator 4
 483 0056 039B     		ldr	r3, [sp, #12]
 484 0058 5A69     		ldr	r2, [r3, #20]
 485 005a 049B     		ldr	r3, [sp, #16]
 486 005c 9A62     		str	r2, [r3, #40]
 487              		.loc 1 257 0 discriminator 4
 488 005e 039B     		ldr	r3, [sp, #12]
 489 0060 9B69     		ldr	r3, [r3, #24]
 490 0062 002B     		cmp	r3, #0
 491 0064 02D0     		beq	.L28
 492              		.loc 1 257 0 is_stmt 0 discriminator 1
 493 0066 039B     		ldr	r3, [sp, #12]
 494 0068 9B69     		ldr	r3, [r3, #24]
 495 006a 01E0     		b	.L29
 496              	.L28:
 497              		.loc 1 257 0 discriminator 2
 498 006c 044B     		ldr	r3, .L30+4
 499 006e 1B68     		ldr	r3, [r3]
 500              	.L29:
 501              		.loc 1 257 0 discriminator 4
 502 0070 049A     		ldr	r2, [sp, #16]
 503 0072 D362     		str	r3, [r2, #44]
 504              		.loc 1 262 0 is_stmt 1 discriminator 4
 505 0074 049B     		ldr	r3, [sp, #16]
 506              	.L23:
ARM GAS  /tmp/cc8dDMC3.s 			page 10


 507              		.loc 1 263 0
 508 0076 1846     		mov	r0, r3
 509 0078 06B0     		add	sp, sp, #24
 510              		.cfi_def_cfa_offset 8
 511              		@ sp needed
 512 007a 10BD     		pop	{r4, pc}
 513              	.L31:
 514              		.align	2
 515              	.L30:
 516 007c 00000000 		.word	.LC0
 517 0080 00000000 		.word	defaultStyle
 518              		.cfi_endproc
 519              	.LFE114:
 520              		.size	_gwidgetCreate, .-_gwidgetCreate
 521 0084 AFF30080 		.section	.text._gwidgetDestroy,"ax",%progbits
 521      AFF30080 
 521      AFF30080 
 522              		.align	2
 523              		.p2align 4,,15
 524              		.global	_gwidgetDestroy
 525              		.thumb
 526              		.thumb_func
 527              		.type	_gwidgetDestroy, %function
 528              	_gwidgetDestroy:
 529              	.LFB115:
 530              		.loc 1 265 0
 531              		.cfi_startproc
 532              		@ args = 0, pretend = 0, frame = 8
 533              		@ frame_needed = 0, uses_anonymous_args = 0
 534 0000 00B5     		push	{lr}
 535              		.cfi_def_cfa_offset 4
 536              		.cfi_offset 14, -4
 537 0002 83B0     		sub	sp, sp, #12
 538              		.cfi_def_cfa_offset 16
 539 0004 0190     		str	r0, [sp, #4]
 540              		.loc 1 271 0
 541 0006 019B     		ldr	r3, [sp, #4]
 542 0008 9B69     		ldr	r3, [r3, #24]
 543 000a 03F40053 		and	r3, r3, #8192
 544 000e 002B     		cmp	r3, #0
 545 0010 0AD0     		beq	.L33
 546              		.loc 1 272 0
 547 0012 019B     		ldr	r3, [sp, #4]
 548 0014 9B69     		ldr	r3, [r3, #24]
 549 0016 23F40052 		bic	r2, r3, #8192
 550 001a 019B     		ldr	r3, [sp, #4]
 551 001c 9A61     		str	r2, [r3, #24]
 552              		.loc 1 273 0
 553 001e 019B     		ldr	r3, [sp, #4]
 554 0020 1B6A     		ldr	r3, [r3, #32]
 555 0022 1846     		mov	r0, r3
 556 0024 FFF7FEFF 		bl	chHeapFree
 557              	.L33:
 558              		.loc 1 301 0
 559 0028 0198     		ldr	r0, [sp, #4]
 560 002a FFF7FEFF 		bl	geventDetachSourceListeners
 561              		.loc 1 302 0
ARM GAS  /tmp/cc8dDMC3.s 			page 11


 562 002e 03B0     		add	sp, sp, #12
 563              		.cfi_def_cfa_offset 4
 564              		@ sp needed
 565 0030 5DF804FB 		ldr	pc, [sp], #4
 566              		.cfi_endproc
 567              	.LFE115:
 568              		.size	_gwidgetDestroy, .-_gwidgetDestroy
 569 0034 AFF30080 		.section	.text._gwidgetRedraw,"ax",%progbits
 569      AFF30080 
 569      AFF30080 
 570              		.align	2
 571              		.p2align 4,,15
 572              		.global	_gwidgetRedraw
 573              		.thumb
 574              		.thumb_func
 575              		.type	_gwidgetRedraw, %function
 576              	_gwidgetRedraw:
 577              	.LFB116:
 578              		.loc 1 304 0
 579              		.cfi_startproc
 580              		@ args = 0, pretend = 0, frame = 8
 581              		@ frame_needed = 0, uses_anonymous_args = 0
 582 0000 00B5     		push	{lr}
 583              		.cfi_def_cfa_offset 4
 584              		.cfi_offset 14, -4
 585 0002 83B0     		sub	sp, sp, #12
 586              		.cfi_def_cfa_offset 16
 587 0004 0190     		str	r0, [sp, #4]
 588              		.loc 1 305 0
 589 0006 019B     		ldr	r3, [sp, #4]
 590 0008 9B69     		ldr	r3, [r3, #24]
 591 000a 03F40073 		and	r3, r3, #512
 592 000e 002B     		cmp	r3, #0
 593 0010 00D1     		bne	.L35
 594              		.loc 1 306 0
 595 0012 06E0     		b	.L34
 596              	.L35:
 597              		.loc 1 308 0
 598 0014 019B     		ldr	r3, [sp, #4]
 599 0016 5B6A     		ldr	r3, [r3, #36]
 600 0018 019A     		ldr	r2, [sp, #4]
 601 001a 926A     		ldr	r2, [r2, #40]
 602 001c 0198     		ldr	r0, [sp, #4]
 603 001e 1146     		mov	r1, r2
 604 0020 9847     		blx	r3
 605              	.L34:
 606              		.loc 1 309 0
 607 0022 03B0     		add	sp, sp, #12
 608              		.cfi_def_cfa_offset 4
 609              		@ sp needed
 610 0024 5DF804FB 		ldr	pc, [sp], #4
 611              		.cfi_endproc
 612              	.LFE116:
 613              		.size	_gwidgetRedraw, .-_gwidgetRedraw
 614              		.section	.text._gwinSendEvent,"ax",%progbits
 615              		.align	2
 616              		.p2align 4,,15
ARM GAS  /tmp/cc8dDMC3.s 			page 12


 617              		.global	_gwinSendEvent
 618              		.thumb
 619              		.thumb_func
 620              		.type	_gwinSendEvent, %function
 621              	_gwinSendEvent:
 622              	.LFB117:
 623              		.loc 1 311 0
 624              		.cfi_startproc
 625              		@ args = 0, pretend = 0, frame = 16
 626              		@ frame_needed = 0, uses_anonymous_args = 0
 627 0000 00B5     		push	{lr}
 628              		.cfi_def_cfa_offset 4
 629              		.cfi_offset 14, -4
 630 0002 85B0     		sub	sp, sp, #20
 631              		.cfi_def_cfa_offset 24
 632 0004 0190     		str	r0, [sp, #4]
 633 0006 0B46     		mov	r3, r1
 634 0008 ADF80230 		strh	r3, [sp, #2]	@ movhi
 635              		.loc 1 316 0
 636 000c 0023     		movs	r3, #0
 637 000e 0393     		str	r3, [sp, #12]
 638              		.loc 1 317 0
 639 0010 11E0     		b	.L38
 640              	.L40:
 641              		.loc 1 318 0
 642 0012 0398     		ldr	r0, [sp, #12]
 643 0014 FFF7FEFF 		bl	geventGetEventBuffer
 644 0018 0290     		str	r0, [sp, #8]
 645 001a 029B     		ldr	r3, [sp, #8]
 646 001c 002B     		cmp	r3, #0
 647 001e 00D1     		bne	.L39
 648              		.loc 1 319 0
 649 0020 09E0     		b	.L38
 650              	.L39:
 651              		.loc 1 320 0
 652 0022 029B     		ldr	r3, [sp, #8]
 653 0024 BDF80220 		ldrh	r2, [sp, #2]	@ movhi
 654 0028 1A80     		strh	r2, [r3]	@ movhi
 655              		.loc 1 321 0
 656 002a 029B     		ldr	r3, [sp, #8]
 657 002c 019A     		ldr	r2, [sp, #4]
 658 002e 5A60     		str	r2, [r3, #4]
 659              		.loc 1 325 0
 660 0030 0398     		ldr	r0, [sp, #12]
 661 0032 FFF7FEFF 		bl	geventSendEvent
 662              	.L38:
 663              		.loc 1 317 0
 664 0036 0548     		ldr	r0, .L41
 665 0038 0399     		ldr	r1, [sp, #12]
 666 003a FFF7FEFF 		bl	geventGetSourceListener
 667 003e 0390     		str	r0, [sp, #12]
 668 0040 039B     		ldr	r3, [sp, #12]
 669 0042 002B     		cmp	r3, #0
 670 0044 E5D1     		bne	.L40
 671              		.loc 1 327 0
 672 0046 05B0     		add	sp, sp, #20
 673              		.cfi_def_cfa_offset 4
ARM GAS  /tmp/cc8dDMC3.s 			page 13


 674              		@ sp needed
 675 0048 5DF804FB 		ldr	pc, [sp], #4
 676              	.L42:
 677              		.align	2
 678              	.L41:
 679 004c 00000000 		.word	_gwidgetCreate
 680              		.cfi_endproc
 681              	.LFE117:
 682              		.size	_gwinSendEvent, .-_gwinSendEvent
 683              		.section	.text.gwinWidgetClearInit,"ax",%progbits
 684              		.align	2
 685              		.p2align 4,,15
 686              		.global	gwinWidgetClearInit
 687              		.thumb
 688              		.thumb_func
 689              		.type	gwinWidgetClearInit, %function
 690              	gwinWidgetClearInit:
 691              	.LFB118:
 692              		.loc 1 329 0
 693              		.cfi_startproc
 694              		@ args = 0, pretend = 0, frame = 16
 695              		@ frame_needed = 0, uses_anonymous_args = 0
 696              		@ link register save eliminated.
 697 0000 84B0     		sub	sp, sp, #16
 698              		.cfi_def_cfa_offset 16
 699 0002 0190     		str	r0, [sp, #4]
 700              		.loc 1 333 0
 701 0004 019B     		ldr	r3, [sp, #4]
 702 0006 0393     		str	r3, [sp, #12]
 703 0008 1C23     		movs	r3, #28
 704 000a 0293     		str	r3, [sp, #8]
 705 000c 07E0     		b	.L44
 706              	.L45:
 707              		.loc 1 334 0 discriminator 3
 708 000e 039B     		ldr	r3, [sp, #12]
 709 0010 5A1C     		adds	r2, r3, #1
 710 0012 0392     		str	r2, [sp, #12]
 711 0014 0022     		movs	r2, #0
 712 0016 1A70     		strb	r2, [r3]
 713              		.loc 1 333 0 discriminator 3
 714 0018 029B     		ldr	r3, [sp, #8]
 715 001a 013B     		subs	r3, r3, #1
 716 001c 0293     		str	r3, [sp, #8]
 717              	.L44:
 718              		.loc 1 333 0 is_stmt 0 discriminator 1
 719 001e 029B     		ldr	r3, [sp, #8]
 720 0020 002B     		cmp	r3, #0
 721 0022 F4D1     		bne	.L45
 722              		.loc 1 335 0 is_stmt 1
 723 0024 04B0     		add	sp, sp, #16
 724              		.cfi_def_cfa_offset 0
 725              		@ sp needed
 726 0026 7047     		bx	lr
 727              		.cfi_endproc
 728              	.LFE118:
 729              		.size	gwinWidgetClearInit, .-gwinWidgetClearInit
 730 0028 AFF30080 		.section	.text.gwinSetDefaultStyle,"ax",%progbits
ARM GAS  /tmp/cc8dDMC3.s 			page 14


 730      AFF30080 
 731              		.align	2
 732              		.p2align 4,,15
 733              		.global	gwinSetDefaultStyle
 734              		.thumb
 735              		.thumb_func
 736              		.type	gwinSetDefaultStyle, %function
 737              	gwinSetDefaultStyle:
 738              	.LFB119:
 739              		.loc 1 337 0
 740              		.cfi_startproc
 741              		@ args = 0, pretend = 0, frame = 16
 742              		@ frame_needed = 0, uses_anonymous_args = 0
 743 0000 00B5     		push	{lr}
 744              		.cfi_def_cfa_offset 4
 745              		.cfi_offset 14, -4
 746 0002 85B0     		sub	sp, sp, #20
 747              		.cfi_def_cfa_offset 24
 748 0004 0190     		str	r0, [sp, #4]
 749 0006 0B46     		mov	r3, r1
 750 0008 8DF80330 		strb	r3, [sp, #3]
 751              		.loc 1 338 0
 752 000c 019B     		ldr	r3, [sp, #4]
 753 000e 002B     		cmp	r3, #0
 754 0010 01D1     		bne	.L47
 755              		.loc 1 339 0
 756 0012 184B     		ldr	r3, .L53
 757 0014 0193     		str	r3, [sp, #4]
 758              	.L47:
 759              		.loc 1 341 0
 760 0016 9DF80330 		ldrb	r3, [sp, #3]	@ zero_extendqisi2
 761 001a 002B     		cmp	r3, #0
 762 001c 1FD0     		beq	.L48
 763              	.LBB2:
 764              		.loc 1 344 0
 765 001e 0020     		movs	r0, #0
 766 0020 FFF7FEFF 		bl	gwinGetNextWindow
 767 0024 0390     		str	r0, [sp, #12]
 768 0026 17E0     		b	.L49
 769              	.L52:
 770              		.loc 1 345 0
 771 0028 039B     		ldr	r3, [sp, #12]
 772 002a 9B69     		ldr	r3, [r3, #24]
 773 002c 03F48033 		and	r3, r3, #65536
 774 0030 002B     		cmp	r3, #0
 775 0032 0AD0     		beq	.L50
 776              		.loc 1 345 0 is_stmt 0 discriminator 1
 777 0034 039B     		ldr	r3, [sp, #12]
 778 0036 DA6A     		ldr	r2, [r3, #44]
 779 0038 0F4B     		ldr	r3, .L53+4
 780 003a 1B68     		ldr	r3, [r3]
 781 003c 9A42     		cmp	r2, r3
 782 003e 04D1     		bne	.L50
 783              		.loc 1 346 0 is_stmt 1
 784 0040 0398     		ldr	r0, [sp, #12]
 785 0042 0199     		ldr	r1, [sp, #4]
 786 0044 FFF7FEFF 		bl	gwinSetStyle
ARM GAS  /tmp/cc8dDMC3.s 			page 15


 787 0048 02E0     		b	.L51
 788              	.L50:
 789              		.loc 1 348 0
 790 004a 0398     		ldr	r0, [sp, #12]
 791 004c FFF7FEFF 		bl	gwinRedraw
 792              	.L51:
 793              		.loc 1 344 0 discriminator 2
 794 0050 0398     		ldr	r0, [sp, #12]
 795 0052 FFF7FEFF 		bl	gwinGetNextWindow
 796 0056 0390     		str	r0, [sp, #12]
 797              	.L49:
 798              		.loc 1 344 0 is_stmt 0 discriminator 1
 799 0058 039B     		ldr	r3, [sp, #12]
 800 005a 002B     		cmp	r3, #0
 801 005c E4D1     		bne	.L52
 802              	.L48:
 803              	.LBE2:
 804              		.loc 1 351 0 is_stmt 1
 805 005e 019B     		ldr	r3, [sp, #4]
 806 0060 1B88     		ldrh	r3, [r3]
 807 0062 1846     		mov	r0, r3
 808 0064 FFF7FEFF 		bl	gwinSetDefaultBgColor
 809              		.loc 1 352 0
 810 0068 034A     		ldr	r2, .L53+4
 811 006a 019B     		ldr	r3, [sp, #4]
 812 006c 1360     		str	r3, [r2]
 813              		.loc 1 353 0
 814 006e 05B0     		add	sp, sp, #20
 815              		.cfi_def_cfa_offset 4
 816              		@ sp needed
 817 0070 5DF804FB 		ldr	pc, [sp], #4
 818              	.L54:
 819              		.align	2
 820              	.L53:
 821 0074 00000000 		.word	BlackWidgetStyle
 822 0078 00000000 		.word	defaultStyle
 823              		.cfi_endproc
 824              	.LFE119:
 825              		.size	gwinSetDefaultStyle, .-gwinSetDefaultStyle
 826 007c AFF30080 		.section	.text.gwinGetDefaultStyle,"ax",%progbits
 827              		.align	2
 828              		.p2align 4,,15
 829              		.global	gwinGetDefaultStyle
 830              		.thumb
 831              		.thumb_func
 832              		.type	gwinGetDefaultStyle, %function
 833              	gwinGetDefaultStyle:
 834              	.LFB120:
 835              		.loc 1 360 0
 836              		.cfi_startproc
 837              		@ args = 0, pretend = 0, frame = 0
 838              		@ frame_needed = 0, uses_anonymous_args = 0
 839              		@ link register save eliminated.
 840              		.loc 1 361 0
 841 0000 014B     		ldr	r3, .L57
 842 0002 1B68     		ldr	r3, [r3]
 843              		.loc 1 362 0
ARM GAS  /tmp/cc8dDMC3.s 			page 16


 844 0004 1846     		mov	r0, r3
 845 0006 7047     		bx	lr
 846              	.L58:
 847              		.align	2
 848              	.L57:
 849 0008 00000000 		.word	defaultStyle
 850              		.cfi_endproc
 851              	.LFE120:
 852              		.size	gwinGetDefaultStyle, .-gwinGetDefaultStyle
 853 000c AFF30080 		.section	.text.gwinSetText,"ax",%progbits
 854              		.align	2
 855              		.p2align 4,,15
 856              		.global	gwinSetText
 857              		.thumb
 858              		.thumb_func
 859              		.type	gwinSetText, %function
 860              	gwinSetText:
 861              	.LFB121:
 862              		.loc 1 365 0
 863              		.cfi_startproc
 864              		@ args = 0, pretend = 0, frame = 24
 865              		@ frame_needed = 0, uses_anonymous_args = 0
 866 0000 00B5     		push	{lr}
 867              		.cfi_def_cfa_offset 4
 868              		.cfi_offset 14, -4
 869 0002 87B0     		sub	sp, sp, #28
 870              		.cfi_def_cfa_offset 32
 871 0004 0390     		str	r0, [sp, #12]
 872 0006 0291     		str	r1, [sp, #8]
 873 0008 1346     		mov	r3, r2
 874 000a 8DF80730 		strb	r3, [sp, #7]
 875              		.loc 1 366 0
 876 000e 039B     		ldr	r3, [sp, #12]
 877 0010 9B69     		ldr	r3, [r3, #24]
 878 0012 03F48033 		and	r3, r3, #65536
 879 0016 002B     		cmp	r3, #0
 880 0018 00D1     		bne	.L60
 881              		.loc 1 367 0
 882 001a 47E0     		b	.L59
 883              	.L60:
 884              		.loc 1 370 0
 885 001c 039B     		ldr	r3, [sp, #12]
 886 001e 9B69     		ldr	r3, [r3, #24]
 887 0020 03F40053 		and	r3, r3, #8192
 888 0024 002B     		cmp	r3, #0
 889 0026 11D0     		beq	.L62
 890              		.loc 1 371 0
 891 0028 039B     		ldr	r3, [sp, #12]
 892 002a 9B69     		ldr	r3, [r3, #24]
 893 002c 23F40052 		bic	r2, r3, #8192
 894 0030 039B     		ldr	r3, [sp, #12]
 895 0032 9A61     		str	r2, [r3, #24]
 896              		.loc 1 372 0
 897 0034 039B     		ldr	r3, [sp, #12]
 898 0036 1B6A     		ldr	r3, [r3, #32]
 899 0038 002B     		cmp	r3, #0
 900 003a 07D0     		beq	.L62
ARM GAS  /tmp/cc8dDMC3.s 			page 17


 901              		.loc 1 373 0
 902 003c 039B     		ldr	r3, [sp, #12]
 903 003e 1B6A     		ldr	r3, [r3, #32]
 904 0040 1846     		mov	r0, r3
 905 0042 FFF7FEFF 		bl	chHeapFree
 906              		.loc 1 374 0
 907 0046 039B     		ldr	r3, [sp, #12]
 908 0048 1A4A     		ldr	r2, .L68
 909 004a 1A62     		str	r2, [r3, #32]
 910              	.L62:
 911              		.loc 1 379 0
 912 004c 029B     		ldr	r3, [sp, #8]
 913 004e 002B     		cmp	r3, #0
 914 0050 03D0     		beq	.L63
 915              		.loc 1 379 0 is_stmt 0 discriminator 1
 916 0052 029B     		ldr	r3, [sp, #8]
 917 0054 1B78     		ldrb	r3, [r3]	@ zero_extendqisi2
 918 0056 002B     		cmp	r3, #0
 919 0058 03D1     		bne	.L64
 920              	.L63:
 921              		.loc 1 380 0 is_stmt 1
 922 005a 039B     		ldr	r3, [sp, #12]
 923 005c 154A     		ldr	r2, .L68
 924 005e 1A62     		str	r2, [r3, #32]
 925 0060 21E0     		b	.L65
 926              	.L64:
 927              		.loc 1 381 0
 928 0062 9DF80730 		ldrb	r3, [sp, #7]	@ zero_extendqisi2
 929 0066 002B     		cmp	r3, #0
 930 0068 1AD0     		beq	.L66
 931              	.LBB3:
 932              		.loc 1 384 0
 933 006a 0298     		ldr	r0, [sp, #8]
 934 006c FFF7FEFF 		bl	strlen
 935 0070 0346     		mov	r3, r0
 936 0072 0133     		adds	r3, r3, #1
 937 0074 0020     		movs	r0, #0
 938 0076 1946     		mov	r1, r3
 939 0078 FFF7FEFF 		bl	chHeapAlloc
 940 007c 0590     		str	r0, [sp, #20]
 941 007e 059B     		ldr	r3, [sp, #20]
 942 0080 002B     		cmp	r3, #0
 943 0082 09D0     		beq	.L67
 944              		.loc 1 385 0
 945 0084 039B     		ldr	r3, [sp, #12]
 946 0086 9B69     		ldr	r3, [r3, #24]
 947 0088 43F40052 		orr	r2, r3, #8192
 948 008c 039B     		ldr	r3, [sp, #12]
 949 008e 9A61     		str	r2, [r3, #24]
 950              		.loc 1 386 0
 951 0090 0598     		ldr	r0, [sp, #20]
 952 0092 0299     		ldr	r1, [sp, #8]
 953 0094 FFF7FEFF 		bl	strcpy
 954              	.L67:
 955              		.loc 1 388 0
 956 0098 039B     		ldr	r3, [sp, #12]
 957 009a 059A     		ldr	r2, [sp, #20]
ARM GAS  /tmp/cc8dDMC3.s 			page 18


 958 009c 1A62     		str	r2, [r3, #32]
 959              	.LBE3:
 960 009e 02E0     		b	.L65
 961              	.L66:
 962              		.loc 1 390 0
 963 00a0 039B     		ldr	r3, [sp, #12]
 964 00a2 029A     		ldr	r2, [sp, #8]
 965 00a4 1A62     		str	r2, [r3, #32]
 966              	.L65:
 967              		.loc 1 391 0
 968 00a6 0398     		ldr	r0, [sp, #12]
 969 00a8 FFF7FEFF 		bl	_gwinUpdate
 970              	.L59:
 971              		.loc 1 392 0
 972 00ac 07B0     		add	sp, sp, #28
 973              		.cfi_def_cfa_offset 4
 974              		@ sp needed
 975 00ae 5DF804FB 		ldr	pc, [sp], #4
 976              	.L69:
 977 00b2 00BF     		.align	2
 978              	.L68:
 979 00b4 00000000 		.word	.LC0
 980              		.cfi_endproc
 981              	.LFE121:
 982              		.size	gwinSetText, .-gwinSetText
 983 00b8 AFF30080 		.section	.text.gwinGetText,"ax",%progbits
 983      AFF30080 
 984              		.align	2
 985              		.p2align 4,,15
 986              		.global	gwinGetText
 987              		.thumb
 988              		.thumb_func
 989              		.type	gwinGetText, %function
 990              	gwinGetText:
 991              	.LFB122:
 992              		.loc 1 394 0
 993              		.cfi_startproc
 994              		@ args = 0, pretend = 0, frame = 8
 995              		@ frame_needed = 0, uses_anonymous_args = 0
 996              		@ link register save eliminated.
 997 0000 82B0     		sub	sp, sp, #8
 998              		.cfi_def_cfa_offset 8
 999 0002 0190     		str	r0, [sp, #4]
 1000              		.loc 1 395 0
 1001 0004 019B     		ldr	r3, [sp, #4]
 1002 0006 9B69     		ldr	r3, [r3, #24]
 1003 0008 03F48033 		and	r3, r3, #65536
 1004 000c 002B     		cmp	r3, #0
 1005 000e 01D1     		bne	.L71
 1006              		.loc 1 396 0
 1007 0010 0023     		movs	r3, #0
 1008 0012 01E0     		b	.L72
 1009              	.L71:
 1010              		.loc 1 398 0
 1011 0014 019B     		ldr	r3, [sp, #4]
 1012 0016 1B6A     		ldr	r3, [r3, #32]
 1013              	.L72:
ARM GAS  /tmp/cc8dDMC3.s 			page 19


 1014              		.loc 1 399 0
 1015 0018 1846     		mov	r0, r3
 1016 001a 02B0     		add	sp, sp, #8
 1017              		.cfi_def_cfa_offset 0
 1018              		@ sp needed
 1019 001c 7047     		bx	lr
 1020              		.cfi_endproc
 1021              	.LFE122:
 1022              		.size	gwinGetText, .-gwinGetText
 1023 001e 00BF     		.section	.text.gwinSetStyle,"ax",%progbits
 1024              		.align	2
 1025              		.p2align 4,,15
 1026              		.global	gwinSetStyle
 1027              		.thumb
 1028              		.thumb_func
 1029              		.type	gwinSetStyle, %function
 1030              	gwinSetStyle:
 1031              	.LFB123:
 1032              		.loc 1 401 0
 1033              		.cfi_startproc
 1034              		@ args = 0, pretend = 0, frame = 8
 1035              		@ frame_needed = 0, uses_anonymous_args = 0
 1036 0000 00B5     		push	{lr}
 1037              		.cfi_def_cfa_offset 4
 1038              		.cfi_offset 14, -4
 1039 0002 83B0     		sub	sp, sp, #12
 1040              		.cfi_def_cfa_offset 16
 1041 0004 0190     		str	r0, [sp, #4]
 1042 0006 0091     		str	r1, [sp]
 1043              		.loc 1 402 0
 1044 0008 019B     		ldr	r3, [sp, #4]
 1045 000a 9B69     		ldr	r3, [r3, #24]
 1046 000c 03F48033 		and	r3, r3, #65536
 1047 0010 002B     		cmp	r3, #0
 1048 0012 00D1     		bne	.L74
 1049              		.loc 1 403 0
 1050 0014 13E0     		b	.L73
 1051              	.L74:
 1052              		.loc 1 404 0
 1053 0016 009B     		ldr	r3, [sp]
 1054 0018 002B     		cmp	r3, #0
 1055 001a 01D0     		beq	.L76
 1056              		.loc 1 404 0 is_stmt 0 discriminator 1
 1057 001c 009B     		ldr	r3, [sp]
 1058 001e 01E0     		b	.L77
 1059              	.L76:
 1060              		.loc 1 404 0 discriminator 2
 1061 0020 084B     		ldr	r3, .L78
 1062 0022 1B68     		ldr	r3, [r3]
 1063              	.L77:
 1064              		.loc 1 404 0 discriminator 4
 1065 0024 019A     		ldr	r2, [sp, #4]
 1066 0026 D362     		str	r3, [r2, #44]
 1067              		.loc 1 405 0 is_stmt 1 discriminator 4
 1068 0028 009B     		ldr	r3, [sp]
 1069 002a 1A88     		ldrh	r2, [r3]
 1070 002c 019B     		ldr	r3, [sp, #4]
ARM GAS  /tmp/cc8dDMC3.s 			page 20


 1071 002e DA82     		strh	r2, [r3, #22]	@ movhi
 1072              		.loc 1 406 0 discriminator 4
 1073 0030 009B     		ldr	r3, [sp]
 1074 0032 5A88     		ldrh	r2, [r3, #2]
 1075 0034 019B     		ldr	r3, [sp, #4]
 1076 0036 9A82     		strh	r2, [r3, #20]	@ movhi
 1077              		.loc 1 407 0 discriminator 4
 1078 0038 0198     		ldr	r0, [sp, #4]
 1079 003a FFF7FEFF 		bl	_gwinUpdate
 1080              	.L73:
 1081              		.loc 1 408 0
 1082 003e 03B0     		add	sp, sp, #12
 1083              		.cfi_def_cfa_offset 4
 1084              		@ sp needed
 1085 0040 5DF804FB 		ldr	pc, [sp], #4
 1086              	.L79:
 1087              		.align	2
 1088              	.L78:
 1089 0044 00000000 		.word	defaultStyle
 1090              		.cfi_endproc
 1091              	.LFE123:
 1092              		.size	gwinSetStyle, .-gwinSetStyle
 1093 0048 AFF30080 		.section	.text.gwinGetStyle,"ax",%progbits
 1093      AFF30080 
 1094              		.align	2
 1095              		.p2align 4,,15
 1096              		.global	gwinGetStyle
 1097              		.thumb
 1098              		.thumb_func
 1099              		.type	gwinGetStyle, %function
 1100              	gwinGetStyle:
 1101              	.LFB124:
 1102              		.loc 1 410 0
 1103              		.cfi_startproc
 1104              		@ args = 0, pretend = 0, frame = 8
 1105              		@ frame_needed = 0, uses_anonymous_args = 0
 1106              		@ link register save eliminated.
 1107 0000 82B0     		sub	sp, sp, #8
 1108              		.cfi_def_cfa_offset 8
 1109 0002 0190     		str	r0, [sp, #4]
 1110              		.loc 1 411 0
 1111 0004 019B     		ldr	r3, [sp, #4]
 1112 0006 9B69     		ldr	r3, [r3, #24]
 1113 0008 03F48033 		and	r3, r3, #65536
 1114 000c 002B     		cmp	r3, #0
 1115 000e 01D1     		bne	.L81
 1116              		.loc 1 412 0
 1117 0010 0023     		movs	r3, #0
 1118 0012 01E0     		b	.L82
 1119              	.L81:
 1120              		.loc 1 414 0
 1121 0014 019B     		ldr	r3, [sp, #4]
 1122 0016 DB6A     		ldr	r3, [r3, #44]
 1123              	.L82:
 1124              		.loc 1 415 0
 1125 0018 1846     		mov	r0, r3
 1126 001a 02B0     		add	sp, sp, #8
ARM GAS  /tmp/cc8dDMC3.s 			page 21


 1127              		.cfi_def_cfa_offset 0
 1128              		@ sp needed
 1129 001c 7047     		bx	lr
 1130              		.cfi_endproc
 1131              	.LFE124:
 1132              		.size	gwinGetStyle, .-gwinGetStyle
 1133 001e 00BF     		.section	.text.gwinSetCustomDraw,"ax",%progbits
 1134              		.align	2
 1135              		.p2align 4,,15
 1136              		.global	gwinSetCustomDraw
 1137              		.thumb
 1138              		.thumb_func
 1139              		.type	gwinSetCustomDraw, %function
 1140              	gwinSetCustomDraw:
 1141              	.LFB125:
 1142              		.loc 1 417 0
 1143              		.cfi_startproc
 1144              		@ args = 0, pretend = 0, frame = 16
 1145              		@ frame_needed = 0, uses_anonymous_args = 0
 1146 0000 00B5     		push	{lr}
 1147              		.cfi_def_cfa_offset 4
 1148              		.cfi_offset 14, -4
 1149 0002 85B0     		sub	sp, sp, #20
 1150              		.cfi_def_cfa_offset 24
 1151 0004 0390     		str	r0, [sp, #12]
 1152 0006 0291     		str	r1, [sp, #8]
 1153 0008 0192     		str	r2, [sp, #4]
 1154              		.loc 1 418 0
 1155 000a 039B     		ldr	r3, [sp, #12]
 1156 000c 9B69     		ldr	r3, [r3, #24]
 1157 000e 03F48033 		and	r3, r3, #65536
 1158 0012 002B     		cmp	r3, #0
 1159 0014 00D1     		bne	.L84
 1160              		.loc 1 419 0
 1161 0016 0FE0     		b	.L83
 1162              	.L84:
 1163              		.loc 1 421 0
 1164 0018 029B     		ldr	r3, [sp, #8]
 1165 001a 002B     		cmp	r3, #0
 1166 001c 03D1     		bne	.L86
 1167              		.loc 1 421 0 is_stmt 0 discriminator 1
 1168 001e 039B     		ldr	r3, [sp, #12]
 1169 0020 5B68     		ldr	r3, [r3, #4]
 1170 0022 5B69     		ldr	r3, [r3, #20]
 1171 0024 00E0     		b	.L87
 1172              	.L86:
 1173              		.loc 1 421 0 discriminator 2
 1174 0026 029B     		ldr	r3, [sp, #8]
 1175              	.L87:
 1176              		.loc 1 421 0 discriminator 4
 1177 0028 039A     		ldr	r2, [sp, #12]
 1178 002a 5362     		str	r3, [r2, #36]
 1179              		.loc 1 422 0 is_stmt 1 discriminator 4
 1180 002c 039B     		ldr	r3, [sp, #12]
 1181 002e 019A     		ldr	r2, [sp, #4]
 1182 0030 9A62     		str	r2, [r3, #40]
 1183              		.loc 1 423 0 discriminator 4
ARM GAS  /tmp/cc8dDMC3.s 			page 22


 1184 0032 0398     		ldr	r0, [sp, #12]
 1185 0034 FFF7FEFF 		bl	_gwinUpdate
 1186              	.L83:
 1187              		.loc 1 424 0
 1188 0038 05B0     		add	sp, sp, #20
 1189              		.cfi_def_cfa_offset 4
 1190              		@ sp needed
 1191 003a 5DF804FB 		ldr	pc, [sp], #4
 1192              		.cfi_endproc
 1193              	.LFE125:
 1194              		.size	gwinSetCustomDraw, .-gwinSetCustomDraw
 1195 003e 00BF     		.section	.text.gwinAttachListener,"ax",%progbits
 1196              		.align	2
 1197              		.p2align 4,,15
 1198              		.global	gwinAttachListener
 1199              		.thumb
 1200              		.thumb_func
 1201              		.type	gwinAttachListener, %function
 1202              	gwinAttachListener:
 1203              	.LFB126:
 1204              		.loc 1 426 0
 1205              		.cfi_startproc
 1206              		@ args = 0, pretend = 0, frame = 8
 1207              		@ frame_needed = 0, uses_anonymous_args = 0
 1208 0000 00B5     		push	{lr}
 1209              		.cfi_def_cfa_offset 4
 1210              		.cfi_offset 14, -4
 1211 0002 83B0     		sub	sp, sp, #12
 1212              		.cfi_def_cfa_offset 16
 1213 0004 0190     		str	r0, [sp, #4]
 1214              		.loc 1 427 0
 1215 0006 0198     		ldr	r0, [sp, #4]
 1216 0008 0449     		ldr	r1, .L90
 1217 000a 0022     		movs	r2, #0
 1218 000c FFF7FEFF 		bl	geventAttachSource
 1219 0010 0346     		mov	r3, r0
 1220              		.loc 1 428 0
 1221 0012 1846     		mov	r0, r3
 1222 0014 03B0     		add	sp, sp, #12
 1223              		.cfi_def_cfa_offset 4
 1224              		@ sp needed
 1225 0016 5DF804FB 		ldr	pc, [sp], #4
 1226              	.L91:
 1227 001a 00BF     		.align	2
 1228              	.L90:
 1229 001c 00000000 		.word	_gwidgetCreate
 1230              		.cfi_endproc
 1231              	.LFE126:
 1232              		.size	gwinAttachListener, .-gwinAttachListener
 1233              		.section	.text.gwinAttachMouse,"ax",%progbits
 1234              		.align	2
 1235              		.p2align 4,,15
 1236              		.global	gwinAttachMouse
 1237              		.thumb
 1238              		.thumb_func
 1239              		.type	gwinAttachMouse, %function
 1240              	gwinAttachMouse:
ARM GAS  /tmp/cc8dDMC3.s 			page 23


 1241              	.LFB127:
 1242              		.loc 1 431 0
 1243              		.cfi_startproc
 1244              		@ args = 0, pretend = 0, frame = 8
 1245              		@ frame_needed = 0, uses_anonymous_args = 0
 1246              		@ link register save eliminated.
 1247 0000 82B0     		sub	sp, sp, #8
 1248              		.cfi_def_cfa_offset 8
 1249 0002 0346     		mov	r3, r0
 1250 0004 ADF80630 		strh	r3, [sp, #6]	@ movhi
 1251              		.loc 1 434 0
 1252 0008 0123     		movs	r3, #1
 1253              		.loc 1 435 0
 1254 000a 1846     		mov	r0, r3
 1255 000c 02B0     		add	sp, sp, #8
 1256              		.cfi_def_cfa_offset 0
 1257              		@ sp needed
 1258 000e 7047     		bx	lr
 1259              		.cfi_endproc
 1260              	.LFE127:
 1261              		.size	gwinAttachMouse, .-gwinAttachMouse
 1262              		.text
 1263              	.Letext0:
 1264              		.file 2 "/opt/gcc-arm-none-eabi/lib/gcc/arm-none-eabi/4.9.3/include/stddef.h"
 1265              		.file 3 "/opt/gcc-arm-none-eabi/arm-none-eabi/include/machine/_default_types.h"
 1266              		.file 4 "/opt/gcc-arm-none-eabi/arm-none-eabi/include/stdint.h"
 1267              		.file 5 "/home/makkmarci/workspace/ChibiOS_2.6.8/os/ports/GCC/ARMCMx/chtypes.h"
 1268              		.file 6 "/home/makkmarci/workspace/ChibiOS_2.6.8/os/kernel/include/chlists.h"
 1269              		.file 7 "/home/makkmarci/workspace/ChibiOS_2.6.8/os/kernel/include/chthreads.h"
 1270              		.file 8 "/home/makkmarci/workspace/ChibiOS_2.6.8/os/ports/GCC/ARMCMx/chcore_v7m.h"
 1271              		.file 9 "/home/makkmarci/workspace/ChibiOS_2.6.8/os/kernel/include/chsem.h"
 1272              		.file 10 "/home/makkmarci/workspace/ChibiOS_2.6.8/os/kernel/include/chmtx.h"
 1273              		.file 11 "/home/makkmarci/workspace/ugfx/src/gos/gos_chibios.h"
 1274              		.file 12 "/home/makkmarci/workspace/ugfx/src/gqueue/gqueue.h"
 1275              		.file 13 "/home/makkmarci/workspace/ugfx/src/gevent/gevent.h"
 1276              		.file 14 "/home/makkmarci/workspace/ugfx/src/gdisp/gdisp.h"
 1277              		.file 15 "/home/makkmarci/workspace/ugfx/src/gdisp/gdisp_colors.h"
 1278              		.file 16 "/home/makkmarci/workspace/ugfx/src/gwin/gwin.h"
 1279              		.file 17 "/home/makkmarci/workspace/ugfx/src/gwin/gwin_class.h"
 1280              		.file 18 "/home/makkmarci/workspace/ugfx/src/gwin/gwin_widget.h"
 1281              		.file 19 "/home/makkmarci/workspace/ugfx/src/ginput/ginput_mouse.h"
 1282              		.file 20 "/home/makkmarci/workspace/ChibiOS_2.6.8/os/ports/common/ARMCMx/CMSIS/include/core_cm4.h"