ARM GAS  /tmp/cchEzFXo.s 			page 1


   1              		.syntax unified
   2              		.cpu cortex-m4
   3              		.eabi_attribute 27, 1
   4              		.eabi_attribute 28, 1
   5              		.fpu fpv4-sp-d16
   6              		.eabi_attribute 20, 1
   7              		.eabi_attribute 21, 1
   8              		.eabi_attribute 23, 3
   9              		.eabi_attribute 24, 1
  10              		.eabi_attribute 25, 1
  11              		.eabi_attribute 26, 1
  12              		.eabi_attribute 30, 6
  13              		.eabi_attribute 34, 1
  14              		.eabi_attribute 18, 4
  15              		.thumb
  16              		.file	"gwin_image.c"
  17              		.text
  18              	.Ltext0:
  19              		.cfi_sections	.debug_frame
  20              		.section	.text._destroy,"ax",%progbits
  21              		.align	2
  22              		.p2align 4,,15
  23              		.thumb
  24              		.thumb_func
  25              		.type	_destroy, %function
  26              	_destroy:
  27              	.LFB111:
  28              		.file 1 "/home/makkmarci/workspace/ugfx/src/gwin/gwin_image.c"
  29              		.loc 1 21 0
  30              		.cfi_startproc
  31              		@ args = 0, pretend = 0, frame = 8
  32              		@ frame_needed = 0, uses_anonymous_args = 0
  33 0000 00B5     		push	{lr}
  34              		.cfi_def_cfa_offset 4
  35              		.cfi_offset 14, -4
  36 0002 83B0     		sub	sp, sp, #12
  37              		.cfi_def_cfa_offset 16
  38 0004 0190     		str	r0, [sp, #4]
  39              		.loc 1 22 0
  40 0006 019B     		ldr	r3, [sp, #4]
  41 0008 2033     		adds	r3, r3, #32
  42 000a 1846     		mov	r0, r3
  43 000c FFF7FEFF 		bl	gdispImageIsOpen
  44 0010 0346     		mov	r3, r0
  45 0012 002B     		cmp	r3, #0
  46 0014 04D0     		beq	.L1
  47              		.loc 1 23 0
  48 0016 019B     		ldr	r3, [sp, #4]
  49 0018 2033     		adds	r3, r3, #32
  50 001a 1846     		mov	r0, r3
  51 001c FFF7FEFF 		bl	gdispImageClose
  52              	.L1:
  53              		.loc 1 24 0
  54 0020 03B0     		add	sp, sp, #12
  55              		.cfi_def_cfa_offset 4
  56              		@ sp needed
  57 0022 5DF804FB 		ldr	pc, [sp], #4
ARM GAS  /tmp/cchEzFXo.s 			page 2


  58              		.cfi_endproc
  59              	.LFE111:
  60              		.size	_destroy, .-_destroy
  61 0026 00BFAFF3 		.section	.text._redraw,"ax",%progbits
  61      0080AFF3 
  61      0080
  62              		.align	2
  63              		.p2align 4,,15
  64              		.thumb
  65              		.thumb_func
  66              		.type	_redraw, %function
  67              	_redraw:
  68              	.LFB112:
  69              		.loc 1 32 0
  70              		.cfi_startproc
  71              		@ args = 0, pretend = 0, frame = 24
  72              		@ frame_needed = 0, uses_anonymous_args = 0
  73 0000 10B5     		push	{r4, lr}
  74              		.cfi_def_cfa_offset 8
  75              		.cfi_offset 4, -8
  76              		.cfi_offset 14, -4
  77 0002 8AB0     		sub	sp, sp, #40
  78              		.cfi_def_cfa_offset 48
  79 0004 0590     		str	r0, [sp, #20]
  80              		.loc 1 40 0
  81 0006 0023     		movs	r3, #0
  82 0008 ADF81E30 		strh	r3, [sp, #30]	@ movhi
  83              		.loc 1 41 0
  84 000c 0023     		movs	r3, #0
  85 000e ADF81C30 		strh	r3, [sp, #28]	@ movhi
  86              		.loc 1 42 0
  87 0012 059B     		ldr	r3, [sp, #20]
  88 0014 9B89     		ldrh	r3, [r3, #12]	@ movhi
  89 0016 ADF82630 		strh	r3, [sp, #38]	@ movhi
  90              		.loc 1 43 0
  91 001a 059B     		ldr	r3, [sp, #20]
  92 001c DB89     		ldrh	r3, [r3, #14]	@ movhi
  93 001e ADF82430 		strh	r3, [sp, #36]	@ movhi
  94              		.loc 1 44 0
  95 0022 059B     		ldr	r3, [sp, #20]
  96 0024 1B8A     		ldrh	r3, [r3, #16]	@ movhi
  97 0026 ADF82230 		strh	r3, [sp, #34]	@ movhi
  98              		.loc 1 45 0
  99 002a 059B     		ldr	r3, [sp, #20]
 100 002c 5B8A     		ldrh	r3, [r3, #18]	@ movhi
 101 002e ADF82030 		strh	r3, [sp, #32]	@ movhi
 102              		.loc 1 46 0
 103 0032 FFF7FEFF 		bl	gwinGetDefaultBgColor
 104 0036 0346     		mov	r3, r0
 105 0038 ADF81A30 		strh	r3, [sp, #26]	@ movhi
 106              		.loc 1 49 0
 107 003c 059B     		ldr	r3, [sp, #20]
 108 003e 2033     		adds	r3, r3, #32
 109 0040 1846     		mov	r0, r3
 110 0042 FFF7FEFF 		bl	gdispImageIsOpen
 111 0046 0346     		mov	r3, r0
 112 0048 83F00103 		eor	r3, r3, #1
ARM GAS  /tmp/cchEzFXo.s 			page 3


 113 004c DBB2     		uxtb	r3, r3
 114 004e 002B     		cmp	r3, #0
 115 0050 11D0     		beq	.L4
 116              		.loc 1 50 0
 117 0052 059B     		ldr	r3, [sp, #20]
 118 0054 9868     		ldr	r0, [r3, #8]
 119 0056 BDF92610 		ldrsh	r1, [sp, #38]
 120 005a BDF92420 		ldrsh	r2, [sp, #36]
 121 005e BDF92240 		ldrsh	r4, [sp, #34]
 122 0062 BDF92030 		ldrsh	r3, [sp, #32]
 123 0066 0093     		str	r3, [sp]
 124 0068 BDF81A30 		ldrh	r3, [sp, #26]
 125 006c 0193     		str	r3, [sp, #4]
 126 006e 2346     		mov	r3, r4
 127 0070 FFF7FEFF 		bl	gdispGFillArea
 128              		.loc 1 51 0
 129 0074 F8E0     		b	.L3
 130              	.L4:
 131              		.loc 1 55 0
 132 0076 059B     		ldr	r3, [sp, #20]
 133 0078 DB8C     		ldrh	r3, [r3, #38]
 134 007a BDF92220 		ldrsh	r2, [sp, #34]
 135 007e 1BB2     		sxth	r3, r3
 136 0080 9A42     		cmp	r2, r3
 137 0082 52DD     		ble	.L6
 138              		.loc 1 56 0
 139 0084 059B     		ldr	r3, [sp, #20]
 140 0086 DB8C     		ldrh	r3, [r3, #38]	@ movhi
 141 0088 ADF82230 		strh	r3, [sp, #34]	@ movhi
 142              		.loc 1 57 0
 143 008c 059B     		ldr	r3, [sp, #20]
 144 008e 1B8A     		ldrh	r3, [r3, #16]
 145 0090 1AB2     		sxth	r2, r3
 146 0092 BDF92230 		ldrsh	r3, [sp, #34]
 147 0096 D31A     		subs	r3, r2, r3
 148 0098 DA0F     		lsrs	r2, r3, #31
 149 009a 1344     		add	r3, r3, r2
 150 009c 5B10     		asrs	r3, r3, #1
 151 009e ADF81E30 		strh	r3, [sp, #30]	@ movhi
 152              		.loc 1 58 0
 153 00a2 BDF82620 		ldrh	r2, [sp, #38]
 154 00a6 BDF81E30 		ldrh	r3, [sp, #30]
 155 00aa 1344     		add	r3, r3, r2
 156 00ac 9BB2     		uxth	r3, r3
 157 00ae ADF82630 		strh	r3, [sp, #38]	@ movhi
 158              		.loc 1 59 0
 159 00b2 BDF91E30 		ldrsh	r3, [sp, #30]
 160 00b6 002B     		cmp	r3, #0
 161 00b8 11D0     		beq	.L7
 162              		.loc 1 60 0
 163 00ba 059B     		ldr	r3, [sp, #20]
 164 00bc 9868     		ldr	r0, [r3, #8]
 165 00be 059B     		ldr	r3, [sp, #20]
 166 00c0 9B89     		ldrh	r3, [r3, #12]
 167 00c2 19B2     		sxth	r1, r3
 168 00c4 BDF92420 		ldrsh	r2, [sp, #36]
 169 00c8 BDF91E40 		ldrsh	r4, [sp, #30]
ARM GAS  /tmp/cchEzFXo.s 			page 4


 170 00cc BDF92030 		ldrsh	r3, [sp, #32]
 171 00d0 0093     		str	r3, [sp]
 172 00d2 BDF81A30 		ldrh	r3, [sp, #26]
 173 00d6 0193     		str	r3, [sp, #4]
 174 00d8 2346     		mov	r3, r4
 175 00da FFF7FEFF 		bl	gdispGFillArea
 176              	.L7:
 177              		.loc 1 61 0
 178 00de 059B     		ldr	r3, [sp, #20]
 179 00e0 9868     		ldr	r0, [r3, #8]
 180 00e2 BDF82620 		ldrh	r2, [sp, #38]
 181 00e6 BDF82230 		ldrh	r3, [sp, #34]
 182 00ea 1344     		add	r3, r3, r2
 183 00ec 9BB2     		uxth	r3, r3
 184 00ee 99B2     		uxth	r1, r3
 185 00f0 059B     		ldr	r3, [sp, #20]
 186 00f2 1B8A     		ldrh	r3, [r3, #16]
 187 00f4 9AB2     		uxth	r2, r3
 188 00f6 BDF81E30 		ldrh	r3, [sp, #30]
 189 00fa D31A     		subs	r3, r2, r3
 190 00fc 9AB2     		uxth	r2, r3
 191 00fe BDF82230 		ldrh	r3, [sp, #34]
 192 0102 D31A     		subs	r3, r2, r3
 193 0104 9BB2     		uxth	r3, r3
 194 0106 9BB2     		uxth	r3, r3
 195 0108 09B2     		sxth	r1, r1
 196 010a BDF92420 		ldrsh	r2, [sp, #36]
 197 010e 1CB2     		sxth	r4, r3
 198 0110 BDF92030 		ldrsh	r3, [sp, #32]
 199 0114 0093     		str	r3, [sp]
 200 0116 BDF81A30 		ldrh	r3, [sp, #26]
 201 011a 0193     		str	r3, [sp, #4]
 202 011c 2346     		mov	r3, r4
 203 011e FFF7FEFF 		bl	gdispGFillArea
 204              		.loc 1 62 0
 205 0122 0023     		movs	r3, #0
 206 0124 ADF81E30 		strh	r3, [sp, #30]	@ movhi
 207 0128 11E0     		b	.L8
 208              	.L6:
 209              		.loc 1 66 0
 210 012a 059B     		ldr	r3, [sp, #20]
 211 012c DB8C     		ldrh	r3, [r3, #38]
 212 012e BDF92220 		ldrsh	r2, [sp, #34]
 213 0132 1BB2     		sxth	r3, r3
 214 0134 9A42     		cmp	r2, r3
 215 0136 0ADA     		bge	.L8
 216              		.loc 1 67 0
 217 0138 059B     		ldr	r3, [sp, #20]
 218 013a DB8C     		ldrh	r3, [r3, #38]
 219 013c 1AB2     		sxth	r2, r3
 220 013e BDF92230 		ldrsh	r3, [sp, #34]
 221 0142 D31A     		subs	r3, r2, r3
 222 0144 DA0F     		lsrs	r2, r3, #31
 223 0146 1344     		add	r3, r3, r2
 224 0148 5B10     		asrs	r3, r3, #1
 225 014a ADF81E30 		strh	r3, [sp, #30]	@ movhi
 226              	.L8:
ARM GAS  /tmp/cchEzFXo.s 			page 5


 227              		.loc 1 71 0
 228 014e 059B     		ldr	r3, [sp, #20]
 229 0150 1B8D     		ldrh	r3, [r3, #40]
 230 0152 BDF92020 		ldrsh	r2, [sp, #32]
 231 0156 1BB2     		sxth	r3, r3
 232 0158 9A42     		cmp	r2, r3
 233 015a 52DD     		ble	.L9
 234              		.loc 1 72 0
 235 015c 059B     		ldr	r3, [sp, #20]
 236 015e 1B8D     		ldrh	r3, [r3, #40]	@ movhi
 237 0160 ADF82030 		strh	r3, [sp, #32]	@ movhi
 238              		.loc 1 73 0
 239 0164 059B     		ldr	r3, [sp, #20]
 240 0166 5B8A     		ldrh	r3, [r3, #18]
 241 0168 1AB2     		sxth	r2, r3
 242 016a BDF92030 		ldrsh	r3, [sp, #32]
 243 016e D31A     		subs	r3, r2, r3
 244 0170 DA0F     		lsrs	r2, r3, #31
 245 0172 1344     		add	r3, r3, r2
 246 0174 5B10     		asrs	r3, r3, #1
 247 0176 ADF81C30 		strh	r3, [sp, #28]	@ movhi
 248              		.loc 1 74 0
 249 017a BDF82420 		ldrh	r2, [sp, #36]
 250 017e BDF81C30 		ldrh	r3, [sp, #28]
 251 0182 1344     		add	r3, r3, r2
 252 0184 9BB2     		uxth	r3, r3
 253 0186 ADF82430 		strh	r3, [sp, #36]	@ movhi
 254              		.loc 1 75 0
 255 018a BDF91C30 		ldrsh	r3, [sp, #28]
 256 018e 002B     		cmp	r3, #0
 257 0190 11D0     		beq	.L10
 258              		.loc 1 76 0
 259 0192 059B     		ldr	r3, [sp, #20]
 260 0194 9868     		ldr	r0, [r3, #8]
 261 0196 059B     		ldr	r3, [sp, #20]
 262 0198 DB89     		ldrh	r3, [r3, #14]
 263 019a BDF92610 		ldrsh	r1, [sp, #38]
 264 019e 1AB2     		sxth	r2, r3
 265 01a0 BDF92240 		ldrsh	r4, [sp, #34]
 266 01a4 BDF91C30 		ldrsh	r3, [sp, #28]
 267 01a8 0093     		str	r3, [sp]
 268 01aa BDF81A30 		ldrh	r3, [sp, #26]
 269 01ae 0193     		str	r3, [sp, #4]
 270 01b0 2346     		mov	r3, r4
 271 01b2 FFF7FEFF 		bl	gdispGFillArea
 272              	.L10:
 273              		.loc 1 77 0
 274 01b6 059B     		ldr	r3, [sp, #20]
 275 01b8 9868     		ldr	r0, [r3, #8]
 276 01ba BDF82420 		ldrh	r2, [sp, #36]
 277 01be BDF82030 		ldrh	r3, [sp, #32]
 278 01c2 1344     		add	r3, r3, r2
 279 01c4 9BB2     		uxth	r3, r3
 280 01c6 9CB2     		uxth	r4, r3
 281 01c8 059B     		ldr	r3, [sp, #20]
 282 01ca 5B8A     		ldrh	r3, [r3, #18]
 283 01cc 9AB2     		uxth	r2, r3
ARM GAS  /tmp/cchEzFXo.s 			page 6


 284 01ce BDF81C30 		ldrh	r3, [sp, #28]
 285 01d2 D31A     		subs	r3, r2, r3
 286 01d4 9AB2     		uxth	r2, r3
 287 01d6 BDF82030 		ldrh	r3, [sp, #32]
 288 01da D31A     		subs	r3, r2, r3
 289 01dc 9BB2     		uxth	r3, r3
 290 01de 9BB2     		uxth	r3, r3
 291 01e0 BDF92610 		ldrsh	r1, [sp, #38]
 292 01e4 22B2     		sxth	r2, r4
 293 01e6 BDF92240 		ldrsh	r4, [sp, #34]
 294 01ea 1BB2     		sxth	r3, r3
 295 01ec 0093     		str	r3, [sp]
 296 01ee BDF81A30 		ldrh	r3, [sp, #26]
 297 01f2 0193     		str	r3, [sp, #4]
 298 01f4 2346     		mov	r3, r4
 299 01f6 FFF7FEFF 		bl	gdispGFillArea
 300              		.loc 1 78 0
 301 01fa 0023     		movs	r3, #0
 302 01fc ADF81C30 		strh	r3, [sp, #28]	@ movhi
 303 0200 11E0     		b	.L11
 304              	.L9:
 305              		.loc 1 82 0
 306 0202 059B     		ldr	r3, [sp, #20]
 307 0204 1B8D     		ldrh	r3, [r3, #40]
 308 0206 BDF92020 		ldrsh	r2, [sp, #32]
 309 020a 1BB2     		sxth	r3, r3
 310 020c 9A42     		cmp	r2, r3
 311 020e 0ADA     		bge	.L11
 312              		.loc 1 83 0
 313 0210 059B     		ldr	r3, [sp, #20]
 314 0212 1B8D     		ldrh	r3, [r3, #40]
 315 0214 1AB2     		sxth	r2, r3
 316 0216 BDF92030 		ldrsh	r3, [sp, #32]
 317 021a D31A     		subs	r3, r2, r3
 318 021c DA0F     		lsrs	r2, r3, #31
 319 021e 1344     		add	r3, r3, r2
 320 0220 5B10     		asrs	r3, r3, #1
 321 0222 ADF81C30 		strh	r3, [sp, #28]	@ movhi
 322              	.L11:
 323              		.loc 1 87 0
 324 0226 059B     		ldr	r3, [sp, #20]
 325 0228 03F12002 		add	r2, r3, #32
 326 022c BDF81A30 		ldrh	r3, [sp, #26]
 327 0230 1046     		mov	r0, r2
 328 0232 1946     		mov	r1, r3
 329 0234 FFF7FEFF 		bl	gdispImageSetBgColor
 330              		.loc 1 90 0
 331 0238 059B     		ldr	r3, [sp, #20]
 332 023a 9868     		ldr	r0, [r3, #8]
 333 023c 059B     		ldr	r3, [sp, #20]
 334 023e 03F12001 		add	r1, r3, #32
 335 0242 BDF92620 		ldrsh	r2, [sp, #38]
 336 0246 BDF92440 		ldrsh	r4, [sp, #36]
 337 024a BDF92230 		ldrsh	r3, [sp, #34]
 338 024e 0093     		str	r3, [sp]
 339 0250 BDF92030 		ldrsh	r3, [sp, #32]
 340 0254 0193     		str	r3, [sp, #4]
ARM GAS  /tmp/cchEzFXo.s 			page 7


 341 0256 BDF91E30 		ldrsh	r3, [sp, #30]
 342 025a 0293     		str	r3, [sp, #8]
 343 025c BDF91C30 		ldrsh	r3, [sp, #28]
 344 0260 0393     		str	r3, [sp, #12]
 345 0262 2346     		mov	r3, r4
 346 0264 FFF7FEFF 		bl	gdispGImageDraw
 347              	.L3:
 348              		.loc 1 111 0
 349 0268 0AB0     		add	sp, sp, #40
 350              		.cfi_def_cfa_offset 8
 351              		@ sp needed
 352 026a 10BD     		pop	{r4, pc}
 353              		.cfi_endproc
 354              	.LFE112:
 355              		.size	_redraw, .-_redraw
 356 026c AFF30080 		.section	.rodata
 357              		.align	2
 358              	.LC0:
 359 0000 496D6167 		.ascii	"Image\000"
 359      6500
 360 0006 0000     		.section	.rodata.imageVMT,"a",%progbits
 361              		.align	2
 362              		.type	imageVMT, %object
 363              		.size	imageVMT, 20
 364              	imageVMT:
 365 0000 00000000 		.word	.LC0
 366 0004 38000000 		.word	56
 367 0008 00000000 		.word	_destroy
 368 000c 00000000 		.word	_redraw
 369 0010 00000000 		.word	0
 370              		.section	.text.gwinGImageCreate,"ax",%progbits
 371              		.align	2
 372              		.p2align 4,,15
 373              		.global	gwinGImageCreate
 374              		.thumb
 375              		.thumb_func
 376              		.type	gwinGImageCreate, %function
 377              	gwinGImageCreate:
 378              	.LFB113:
 379              		.loc 1 121 0
 380              		.cfi_startproc
 381              		@ args = 0, pretend = 0, frame = 16
 382              		@ frame_needed = 0, uses_anonymous_args = 0
 383 0000 00B5     		push	{lr}
 384              		.cfi_def_cfa_offset 4
 385              		.cfi_offset 14, -4
 386 0002 87B0     		sub	sp, sp, #28
 387              		.cfi_def_cfa_offset 32
 388 0004 0590     		str	r0, [sp, #20]
 389 0006 0491     		str	r1, [sp, #16]
 390 0008 0392     		str	r2, [sp, #12]
 391              		.loc 1 122 0
 392 000a 049A     		ldr	r2, [sp, #16]
 393 000c 0023     		movs	r3, #0
 394 000e 0093     		str	r3, [sp]
 395 0010 0598     		ldr	r0, [sp, #20]
 396 0012 1146     		mov	r1, r2
ARM GAS  /tmp/cchEzFXo.s 			page 8


 397 0014 039A     		ldr	r2, [sp, #12]
 398 0016 0C4B     		ldr	r3, .L15
 399 0018 FFF7FEFF 		bl	_gwindowCreate
 400 001c 0490     		str	r0, [sp, #16]
 401 001e 049B     		ldr	r3, [sp, #16]
 402 0020 002B     		cmp	r3, #0
 403 0022 01D1     		bne	.L13
 404              		.loc 1 123 0
 405 0024 0023     		movs	r3, #0
 406 0026 0BE0     		b	.L14
 407              	.L13:
 408              		.loc 1 126 0
 409 0028 049B     		ldr	r3, [sp, #16]
 410 002a 2033     		adds	r3, r3, #32
 411 002c 1846     		mov	r0, r3
 412 002e FFF7FEFF 		bl	gdispImageInit
 413              		.loc 1 133 0
 414 0032 039B     		ldr	r3, [sp, #12]
 415 0034 1B7A     		ldrb	r3, [r3, #8]	@ zero_extendqisi2
 416 0036 0498     		ldr	r0, [sp, #16]
 417 0038 1946     		mov	r1, r3
 418 003a FFF7FEFF 		bl	gwinSetVisible
 419              		.loc 1 135 0
 420 003e 049B     		ldr	r3, [sp, #16]
 421              	.L14:
 422              		.loc 1 136 0
 423 0040 1846     		mov	r0, r3
 424 0042 07B0     		add	sp, sp, #28
 425              		.cfi_def_cfa_offset 4
 426              		@ sp needed
 427 0044 5DF804FB 		ldr	pc, [sp], #4
 428              	.L16:
 429              		.align	2
 430              	.L15:
 431 0048 00000000 		.word	imageVMT
 432              		.cfi_endproc
 433              	.LFE113:
 434              		.size	gwinGImageCreate, .-gwinGImageCreate
 435 004c AFF30080 		.section	.text.gwinImageOpenGFile,"ax",%progbits
 436              		.align	2
 437              		.p2align 4,,15
 438              		.global	gwinImageOpenGFile
 439              		.thumb
 440              		.thumb_func
 441              		.type	gwinImageOpenGFile, %function
 442              	gwinImageOpenGFile:
 443              	.LFB114:
 444              		.loc 1 138 0
 445              		.cfi_startproc
 446              		@ args = 0, pretend = 0, frame = 8
 447              		@ frame_needed = 0, uses_anonymous_args = 0
 448 0000 00B5     		push	{lr}
 449              		.cfi_def_cfa_offset 4
 450              		.cfi_offset 14, -4
 451 0002 83B0     		sub	sp, sp, #12
 452              		.cfi_def_cfa_offset 16
 453 0004 0190     		str	r0, [sp, #4]
ARM GAS  /tmp/cchEzFXo.s 			page 9


 454 0006 0091     		str	r1, [sp]
 455              		.loc 1 140 0
 456 0008 019B     		ldr	r3, [sp, #4]
 457 000a 5B68     		ldr	r3, [r3, #4]
 458 000c 134A     		ldr	r2, .L22
 459 000e 9342     		cmp	r3, r2
 460 0010 01D0     		beq	.L18
 461              		.loc 1 141 0
 462 0012 0023     		movs	r3, #0
 463 0014 1DE0     		b	.L19
 464              	.L18:
 465              		.loc 1 143 0
 466 0016 019B     		ldr	r3, [sp, #4]
 467 0018 2033     		adds	r3, r3, #32
 468 001a 1846     		mov	r0, r3
 469 001c FFF7FEFF 		bl	gdispImageIsOpen
 470 0020 0346     		mov	r3, r0
 471 0022 002B     		cmp	r3, #0
 472 0024 04D0     		beq	.L20
 473              		.loc 1 144 0
 474 0026 019B     		ldr	r3, [sp, #4]
 475 0028 2033     		adds	r3, r3, #32
 476 002a 1846     		mov	r0, r3
 477 002c FFF7FEFF 		bl	gdispImageClose
 478              	.L20:
 479              		.loc 1 146 0
 480 0030 019B     		ldr	r3, [sp, #4]
 481 0032 2033     		adds	r3, r3, #32
 482 0034 1846     		mov	r0, r3
 483 0036 0099     		ldr	r1, [sp]
 484 0038 FFF7FEFF 		bl	gdispImageOpenGFile
 485 003c 0346     		mov	r3, r0
 486 003e 9BB2     		uxth	r3, r3
 487 0040 1BB2     		sxth	r3, r3
 488 0042 002B     		cmp	r3, #0
 489 0044 01DA     		bge	.L21
 490              		.loc 1 147 0
 491 0046 0023     		movs	r3, #0
 492 0048 03E0     		b	.L19
 493              	.L21:
 494              		.loc 1 149 0
 495 004a 0198     		ldr	r0, [sp, #4]
 496 004c FFF7FEFF 		bl	_gwinUpdate
 497              		.loc 1 151 0
 498 0050 0123     		movs	r3, #1
 499              	.L19:
 500              		.loc 1 152 0
 501 0052 1846     		mov	r0, r3
 502 0054 03B0     		add	sp, sp, #12
 503              		.cfi_def_cfa_offset 4
 504              		@ sp needed
 505 0056 5DF804FB 		ldr	pc, [sp], #4
 506              	.L23:
 507 005a 00BF     		.align	2
 508              	.L22:
 509 005c 00000000 		.word	imageVMT
 510              		.cfi_endproc
ARM GAS  /tmp/cchEzFXo.s 			page 10


 511              	.LFE114:
 512              		.size	gwinImageOpenGFile, .-gwinImageOpenGFile
 513              		.section	.text.gwinImageCache,"ax",%progbits
 514              		.align	2
 515              		.p2align 4,,15
 516              		.global	gwinImageCache
 517              		.thumb
 518              		.thumb_func
 519              		.type	gwinImageCache, %function
 520              	gwinImageCache:
 521              	.LFB115:
 522              		.loc 1 154 0
 523              		.cfi_startproc
 524              		@ args = 0, pretend = 0, frame = 8
 525              		@ frame_needed = 0, uses_anonymous_args = 0
 526 0000 00B5     		push	{lr}
 527              		.cfi_def_cfa_offset 4
 528              		.cfi_offset 14, -4
 529 0002 83B0     		sub	sp, sp, #12
 530              		.cfi_def_cfa_offset 16
 531 0004 0190     		str	r0, [sp, #4]
 532              		.loc 1 156 0
 533 0006 019B     		ldr	r3, [sp, #4]
 534 0008 5B68     		ldr	r3, [r3, #4]
 535 000a 084A     		ldr	r2, .L27
 536 000c 9342     		cmp	r3, r2
 537 000e 02D0     		beq	.L25
 538              		.loc 1 157 0
 539 0010 48F20103 		movw	r3, #32769
 540 0014 05E0     		b	.L26
 541              	.L25:
 542              		.loc 1 159 0
 543 0016 019B     		ldr	r3, [sp, #4]
 544 0018 2033     		adds	r3, r3, #32
 545 001a 1846     		mov	r0, r3
 546 001c FFF7FEFF 		bl	gdispImageCache
 547 0020 0346     		mov	r3, r0
 548              	.L26:
 549              		.loc 1 160 0
 550 0022 1846     		mov	r0, r3
 551 0024 03B0     		add	sp, sp, #12
 552              		.cfi_def_cfa_offset 4
 553              		@ sp needed
 554 0026 5DF804FB 		ldr	pc, [sp], #4
 555              	.L28:
 556 002a 00BF     		.align	2
 557              	.L27:
 558 002c 00000000 		.word	imageVMT
 559              		.cfi_endproc
 560              	.LFE115:
 561              		.size	gwinImageCache, .-gwinImageCache
 562              		.text
 563              	.Letext0:
 564              		.file 2 "/opt/gcc-arm-none-eabi/lib/gcc/arm-none-eabi/4.9.3/include/stddef.h"
 565              		.file 3 "/opt/gcc-arm-none-eabi/arm-none-eabi/include/machine/_default_types.h"
 566              		.file 4 "/opt/gcc-arm-none-eabi/arm-none-eabi/include/stdint.h"
 567              		.file 5 "/home/makkmarci/workspace/ChibiOS_2.6.8/os/ports/GCC/ARMCMx/chtypes.h"
ARM GAS  /tmp/cchEzFXo.s 			page 11


 568              		.file 6 "/home/makkmarci/workspace/ugfx/src/gfile/gfile.h"
 569              		.file 7 "/home/makkmarci/workspace/ugfx/src/gqueue/gqueue.h"
 570              		.file 8 "/home/makkmarci/workspace/ugfx/src/gdisp/gdisp.h"
 571              		.file 9 "/home/makkmarci/workspace/ugfx/src/gdisp/gdisp_colors.h"
 572              		.file 10 "/home/makkmarci/workspace/ugfx/src/gdisp/gdisp_image.h"
 573              		.file 11 "/home/makkmarci/workspace/ugfx/src/gwin/gwin.h"
 574              		.file 12 "/home/makkmarci/workspace/ugfx/src/gwin/gwin_class.h"
 575              		.file 13 "/home/makkmarci/workspace/ugfx/src/gwin/gwin_image.h"
 576              		.file 14 "/home/makkmarci/workspace/ChibiOS_2.6.8/os/ports/common/ARMCMx/CMSIS/include/core_cm4.h"
 577              		.section	.debug_info,"",%progbits
 578              	.Ldebug_info0:
 579 0000 2A050000 		.4byte	0x52a
 580 0004 0400     		.2byte	0x4
 581 0006 00000000 		.4byte	.Ldebug_abbrev0
 582 000a 04       		.byte	0x4
 583 000b 01       		.uleb128 0x1
 584 000c E2000000 		.4byte	.LASF64
 585 0010 01       		.byte	0x1
 586 0011 55020000 		.4byte	.LASF65
 587 0015 00000000 		.4byte	.Ldebug_ranges0+0
 588 0019 00000000 		.4byte	0
 589 001d 00000000 		.4byte	.Ldebug_line0
 590 0021 02       		.uleb128 0x2
 591 0022 04       		.byte	0x4
 592 0023 05       		.byte	0x5
 593 0024 696E7400 		.ascii	"int\000"
 594 0028 03       		.uleb128 0x3
 595 0029 55000000 		.4byte	.LASF3
 596 002d 02       		.byte	0x2
 597 002e D4       		.byte	0xd4
 598 002f 33000000 		.4byte	0x33
 599 0033 04       		.uleb128 0x4
 600 0034 04       		.byte	0x4
 601 0035 07       		.byte	0x7
 602 0036 CA020000 		.4byte	.LASF0
 603 003a 04       		.uleb128 0x4
 604 003b 01       		.byte	0x1
 605 003c 06       		.byte	0x6
 606 003d 8A020000 		.4byte	.LASF1
 607 0041 04       		.uleb128 0x4
 608 0042 01       		.byte	0x1
 609 0043 08       		.byte	0x8
 610 0044 47020000 		.4byte	.LASF2
 611 0048 03       		.uleb128 0x3
 612 0049 1D000000 		.4byte	.LASF4
 613 004d 03       		.byte	0x3
 614 004e 29       		.byte	0x29
 615 004f 53000000 		.4byte	0x53
 616 0053 04       		.uleb128 0x4
 617 0054 02       		.byte	0x2
 618 0055 05       		.byte	0x5
 619 0056 4B000000 		.4byte	.LASF5
 620 005a 03       		.uleb128 0x3
 621 005b 78000000 		.4byte	.LASF6
 622 005f 03       		.byte	0x3
 623 0060 2B       		.byte	0x2b
 624 0061 65000000 		.4byte	0x65
ARM GAS  /tmp/cchEzFXo.s 			page 12


 625 0065 04       		.uleb128 0x4
 626 0066 02       		.byte	0x2
 627 0067 07       		.byte	0x7
 628 0068 E0020000 		.4byte	.LASF7
 629 006c 03       		.uleb128 0x3
 630 006d 85030000 		.4byte	.LASF8
 631 0071 03       		.byte	0x3
 632 0072 3F       		.byte	0x3f
 633 0073 77000000 		.4byte	0x77
 634 0077 04       		.uleb128 0x4
 635 0078 04       		.byte	0x4
 636 0079 05       		.byte	0x5
 637 007a F7010000 		.4byte	.LASF9
 638 007e 03       		.uleb128 0x3
 639 007f 6D000000 		.4byte	.LASF10
 640 0083 03       		.byte	0x3
 641 0084 41       		.byte	0x41
 642 0085 89000000 		.4byte	0x89
 643 0089 04       		.uleb128 0x4
 644 008a 04       		.byte	0x4
 645 008b 07       		.byte	0x7
 646 008c 59030000 		.4byte	.LASF11
 647 0090 04       		.uleb128 0x4
 648 0091 08       		.byte	0x8
 649 0092 05       		.byte	0x5
 650 0093 D4000000 		.4byte	.LASF12
 651 0097 04       		.uleb128 0x4
 652 0098 08       		.byte	0x8
 653 0099 07       		.byte	0x7
 654 009a 9C020000 		.4byte	.LASF13
 655 009e 03       		.uleb128 0x3
 656 009f 24030000 		.4byte	.LASF14
 657 00a3 04       		.byte	0x4
 658 00a4 20       		.byte	0x20
 659 00a5 48000000 		.4byte	0x48
 660 00a9 03       		.uleb128 0x3
 661 00aa D7020000 		.4byte	.LASF15
 662 00ae 04       		.byte	0x4
 663 00af 21       		.byte	0x21
 664 00b0 5A000000 		.4byte	0x5a
 665 00b4 03       		.uleb128 0x3
 666 00b5 15030000 		.4byte	.LASF16
 667 00b9 04       		.byte	0x4
 668 00ba 2C       		.byte	0x2c
 669 00bb 6C000000 		.4byte	0x6c
 670 00bf 03       		.uleb128 0x3
 671 00c0 B4000000 		.4byte	.LASF17
 672 00c4 04       		.byte	0x4
 673 00c5 2D       		.byte	0x2d
 674 00c6 7E000000 		.4byte	0x7e
 675 00ca 03       		.uleb128 0x3
 676 00cb 1D030000 		.4byte	.LASF18
 677 00cf 05       		.byte	0x5
 678 00d0 2B       		.byte	0x2b
 679 00d1 D5000000 		.4byte	0xd5
 680 00d5 04       		.uleb128 0x4
 681 00d6 01       		.byte	0x1
ARM GAS  /tmp/cchEzFXo.s 			page 13


 682 00d7 02       		.byte	0x2
 683 00d8 34030000 		.4byte	.LASF19
 684 00dc 04       		.uleb128 0x4
 685 00dd 04       		.byte	0x4
 686 00de 07       		.byte	0x7
 687 00df 5C000000 		.4byte	.LASF20
 688 00e3 05       		.uleb128 0x5
 689 00e4 04       		.byte	0x4
 690 00e5 E9000000 		.4byte	0xe9
 691 00e9 06       		.uleb128 0x6
 692 00ea EE000000 		.4byte	0xee
 693 00ee 04       		.uleb128 0x4
 694 00ef 01       		.byte	0x1
 695 00f0 08       		.byte	0x8
 696 00f1 10030000 		.4byte	.LASF21
 697 00f5 07       		.uleb128 0x7
 698 00f6 B4000000 		.4byte	0xb4
 699 00fa 03       		.uleb128 0x3
 700 00fb 83000000 		.4byte	.LASF22
 701 00ff 06       		.byte	0x6
 702 0100 22       		.byte	0x22
 703 0101 05010000 		.4byte	0x105
 704 0105 08       		.uleb128 0x8
 705 0106 83000000 		.4byte	.LASF22
 706 010a 09       		.uleb128 0x9
 707 010b 0B000000 		.4byte	.LASF23
 708 010f 04       		.byte	0x4
 709 0110 07       		.byte	0x7
 710 0111 28       		.byte	0x28
 711 0112 23010000 		.4byte	0x123
 712 0116 0A       		.uleb128 0xa
 713 0117 DD030000 		.4byte	.LASF33
 714 011b 07       		.byte	0x7
 715 011c 29       		.byte	0x29
 716 011d 23010000 		.4byte	0x123
 717 0121 00       		.byte	0
 718 0122 00       		.byte	0
 719 0123 05       		.uleb128 0x5
 720 0124 04       		.byte	0x4
 721 0125 0A010000 		.4byte	0x10a
 722 0129 03       		.uleb128 0x3
 723 012a 0B000000 		.4byte	.LASF23
 724 012e 07       		.byte	0x7
 725 012f 2A       		.byte	0x2a
 726 0130 0A010000 		.4byte	0x10a
 727 0134 03       		.uleb128 0x3
 728 0135 2C030000 		.4byte	.LASF24
 729 0139 08       		.byte	0x8
 730 013a 27       		.byte	0x27
 731 013b 9E000000 		.4byte	0x9e
 732 013f 03       		.uleb128 0x3
 733 0140 D6030000 		.4byte	.LASF25
 734 0144 08       		.byte	0x8
 735 0145 3E       		.byte	0x3e
 736 0146 4A010000 		.4byte	0x14a
 737 014a 05       		.uleb128 0x5
 738 014b 04       		.byte	0x4
ARM GAS  /tmp/cchEzFXo.s 			page 14


 739 014c 50010000 		.4byte	0x150
 740 0150 06       		.uleb128 0x6
 741 0151 55010000 		.4byte	0x155
 742 0155 08       		.uleb128 0x8
 743 0156 AA000000 		.4byte	.LASF26
 744 015a 03       		.uleb128 0x3
 745 015b 3E020000 		.4byte	.LASF27
 746 015f 08       		.byte	0x8
 747 0160 4D       		.byte	0x4d
 748 0161 65010000 		.4byte	0x165
 749 0165 08       		.uleb128 0x8
 750 0166 3E020000 		.4byte	.LASF27
 751 016a 0B       		.uleb128 0xb
 752 016b 89000000 		.4byte	.LASF28
 753 016f 09       		.byte	0x9
 754 0170 9001     		.2byte	0x190
 755 0172 A9000000 		.4byte	0xa9
 756 0176 03       		.uleb128 0x3
 757 0177 9B000000 		.4byte	.LASF29
 758 017b 0A       		.byte	0xa
 759 017c 18       		.byte	0x18
 760 017d A9000000 		.4byte	0xa9
 761 0181 03       		.uleb128 0x3
 762 0182 0F020000 		.4byte	.LASF30
 763 0186 0A       		.byte	0xa
 764 0187 23       		.byte	0x23
 765 0188 A9000000 		.4byte	0xa9
 766 018c 03       		.uleb128 0x3
 767 018d 00030000 		.4byte	.LASF31
 768 0191 0A       		.byte	0xa
 769 0192 30       		.byte	0x30
 770 0193 A9000000 		.4byte	0xa9
 771 0197 09       		.uleb128 0x9
 772 0198 AB030000 		.4byte	.LASF32
 773 019c 18       		.byte	0x18
 774 019d 0A       		.byte	0xa
 775 019e 66       		.byte	0x66
 776 019f 02020000 		.4byte	0x202
 777 01a3 0A       		.uleb128 0xa
 778 01a4 BE020000 		.4byte	.LASF34
 779 01a8 0A       		.byte	0xa
 780 01a9 67       		.byte	0x67
 781 01aa 76010000 		.4byte	0x176
 782 01ae 00       		.byte	0
 783 01af 0A       		.uleb128 0xa
 784 01b0 96020000 		.4byte	.LASF35
 785 01b4 0A       		.byte	0xa
 786 01b5 68       		.byte	0x68
 787 01b6 8C010000 		.4byte	0x18c
 788 01ba 02       		.byte	0x2
 789 01bb 0A       		.uleb128 0xa
 790 01bc 27000000 		.4byte	.LASF36
 791 01c0 0A       		.byte	0xa
 792 01c1 69       		.byte	0x69
 793 01c2 6A010000 		.4byte	0x16a
 794 01c6 04       		.byte	0x4
 795 01c7 0A       		.uleb128 0xa
ARM GAS  /tmp/cchEzFXo.s 			page 15


 796 01c8 CE000000 		.4byte	.LASF37
 797 01cc 0A       		.byte	0xa
 798 01cd 6A       		.byte	0x6a
 799 01ce 34010000 		.4byte	0x134
 800 01d2 06       		.byte	0x6
 801 01d3 0A       		.uleb128 0xa
 802 01d4 C3020000 		.4byte	.LASF38
 803 01d8 0A       		.byte	0xa
 804 01d9 6A       		.byte	0x6a
 805 01da 34010000 		.4byte	0x134
 806 01de 08       		.byte	0x8
 807 01df 0C       		.uleb128 0xc
 808 01e0 6600     		.ascii	"f\000"
 809 01e2 0A       		.byte	0xa
 810 01e3 6B       		.byte	0x6b
 811 01e4 02020000 		.4byte	0x202
 812 01e8 0C       		.byte	0xc
 813 01e9 0C       		.uleb128 0xc
 814 01ea 666E7300 		.ascii	"fns\000"
 815 01ee 0A       		.byte	0xa
 816 01ef 70       		.byte	0x70
 817 01f0 0D020000 		.4byte	0x20d
 818 01f4 10       		.byte	0x10
 819 01f5 0A       		.uleb128 0xa
 820 01f6 00000000 		.4byte	.LASF39
 821 01fa 0A       		.byte	0xa
 822 01fb 71       		.byte	0x71
 823 01fc 1D020000 		.4byte	0x21d
 824 0200 14       		.byte	0x14
 825 0201 00       		.byte	0
 826 0202 05       		.uleb128 0x5
 827 0203 04       		.byte	0x4
 828 0204 FA000000 		.4byte	0xfa
 829 0208 08       		.uleb128 0x8
 830 0209 3A030000 		.4byte	.LASF40
 831 020d 05       		.uleb128 0x5
 832 020e 04       		.byte	0x4
 833 020f 13020000 		.4byte	0x213
 834 0213 06       		.uleb128 0x6
 835 0214 08020000 		.4byte	0x208
 836 0218 08       		.uleb128 0x8
 837 0219 39000000 		.4byte	.LASF41
 838 021d 05       		.uleb128 0x5
 839 021e 04       		.byte	0x4
 840 021f 18020000 		.4byte	0x218
 841 0223 03       		.uleb128 0x3
 842 0224 AB030000 		.4byte	.LASF32
 843 0228 0A       		.byte	0xa
 844 0229 72       		.byte	0x72
 845 022a 97010000 		.4byte	0x197
 846 022e 05       		.uleb128 0x5
 847 022f 04       		.byte	0x4
 848 0230 34020000 		.4byte	0x234
 849 0234 09       		.uleb128 0x9
 850 0235 9D030000 		.4byte	.LASF42
 851 0239 20       		.byte	0x20
 852 023a 0B       		.byte	0xb
ARM GAS  /tmp/cchEzFXo.s 			page 16


 853 023b 26       		.byte	0x26
 854 023c C1020000 		.4byte	0x2c1
 855 0240 0C       		.uleb128 0xc
 856 0241 776D7100 		.ascii	"wmq\000"
 857 0245 0B       		.byte	0xb
 858 0246 29       		.byte	0x29
 859 0247 29010000 		.4byte	0x129
 860 024b 00       		.byte	0
 861 024c 0C       		.uleb128 0xc
 862 024d 766D7400 		.ascii	"vmt\000"
 863 0251 0B       		.byte	0xb
 864 0252 2B       		.byte	0x2b
 865 0253 0A030000 		.4byte	0x30a
 866 0257 04       		.byte	0x4
 867 0258 0A       		.uleb128 0xa
 868 0259 72030000 		.4byte	.LASF43
 869 025d 0B       		.byte	0xb
 870 025e 2C       		.byte	0x2c
 871 025f 15030000 		.4byte	0x315
 872 0263 08       		.byte	0x8
 873 0264 0C       		.uleb128 0xc
 874 0265 7800     		.ascii	"x\000"
 875 0267 0B       		.byte	0xb
 876 0268 2D       		.byte	0x2d
 877 0269 34010000 		.4byte	0x134
 878 026d 0C       		.byte	0xc
 879 026e 0C       		.uleb128 0xc
 880 026f 7900     		.ascii	"y\000"
 881 0271 0B       		.byte	0xb
 882 0272 2D       		.byte	0x2d
 883 0273 34010000 		.4byte	0x134
 884 0277 0E       		.byte	0xe
 885 0278 0A       		.uleb128 0xa
 886 0279 CE000000 		.4byte	.LASF37
 887 027d 0B       		.byte	0xb
 888 027e 2E       		.byte	0x2e
 889 027f 34010000 		.4byte	0x134
 890 0283 10       		.byte	0x10
 891 0284 0A       		.uleb128 0xa
 892 0285 C3020000 		.4byte	.LASF38
 893 0289 0B       		.byte	0xb
 894 028a 2E       		.byte	0x2e
 895 028b 34010000 		.4byte	0x134
 896 028f 12       		.byte	0x12
 897 0290 0A       		.uleb128 0xa
 898 0291 97030000 		.4byte	.LASF44
 899 0295 0B       		.byte	0xb
 900 0296 2F       		.byte	0x2f
 901 0297 6A010000 		.4byte	0x16a
 902 029b 14       		.byte	0x14
 903 029c 0A       		.uleb128 0xa
 904 029d 27000000 		.4byte	.LASF36
 905 02a1 0B       		.byte	0xb
 906 02a2 2F       		.byte	0x2f
 907 02a3 6A010000 		.4byte	0x16a
 908 02a7 16       		.byte	0x16
 909 02a8 0A       		.uleb128 0xa
ARM GAS  /tmp/cchEzFXo.s 			page 17


 910 02a9 96020000 		.4byte	.LASF35
 911 02ad 0B       		.byte	0xb
 912 02ae 30       		.byte	0x30
 913 02af BF000000 		.4byte	0xbf
 914 02b3 18       		.byte	0x18
 915 02b4 0A       		.uleb128 0xa
 916 02b5 34000000 		.4byte	.LASF45
 917 02b9 0B       		.byte	0xb
 918 02ba 32       		.byte	0x32
 919 02bb 3F010000 		.4byte	0x13f
 920 02bf 1C       		.byte	0x1c
 921 02c0 00       		.byte	0
 922 02c1 09       		.uleb128 0x9
 923 02c2 8F030000 		.4byte	.LASF46
 924 02c6 14       		.byte	0x14
 925 02c7 0C       		.byte	0xc
 926 02c8 3B       		.byte	0x3b
 927 02c9 0A030000 		.4byte	0x30a
 928 02cd 0A       		.uleb128 0xa
 929 02ce 91000000 		.4byte	.LASF47
 930 02d2 0C       		.byte	0xc
 931 02d3 3C       		.byte	0x3c
 932 02d4 E3000000 		.4byte	0xe3
 933 02d8 00       		.byte	0
 934 02d9 0A       		.uleb128 0xa
 935 02da 80030000 		.4byte	.LASF48
 936 02de 0C       		.byte	0xc
 937 02df 3D       		.byte	0x3d
 938 02e0 28000000 		.4byte	0x28
 939 02e4 04       		.byte	0x4
 940 02e5 0A       		.uleb128 0xa
 941 02e6 65000000 		.4byte	.LASF49
 942 02ea 0C       		.byte	0xc
 943 02eb 3E       		.byte	0x3e
 944 02ec B5030000 		.4byte	0x3b5
 945 02f0 08       		.byte	0x8
 946 02f1 0A       		.uleb128 0xa
 947 02f2 6B030000 		.4byte	.LASF50
 948 02f6 0C       		.byte	0xc
 949 02f7 3F       		.byte	0x3f
 950 02f8 B5030000 		.4byte	0x3b5
 951 02fc 0C       		.byte	0xc
 952 02fd 0A       		.uleb128 0xa
 953 02fe B3020000 		.4byte	.LASF51
 954 0302 0C       		.byte	0xc
 955 0303 40       		.byte	0x40
 956 0304 B5030000 		.4byte	0x3b5
 957 0308 10       		.byte	0x10
 958 0309 00       		.byte	0
 959 030a 05       		.uleb128 0x5
 960 030b 04       		.byte	0x4
 961 030c 10030000 		.4byte	0x310
 962 0310 06       		.uleb128 0x6
 963 0311 C1020000 		.4byte	0x2c1
 964 0315 05       		.uleb128 0x5
 965 0316 04       		.byte	0x4
 966 0317 5A010000 		.4byte	0x15a
ARM GAS  /tmp/cchEzFXo.s 			page 18


 967 031b 03       		.uleb128 0x3
 968 031c 9D030000 		.4byte	.LASF42
 969 0320 0B       		.byte	0xb
 970 0321 37       		.byte	0x37
 971 0322 34020000 		.4byte	0x234
 972 0326 09       		.uleb128 0x9
 973 0327 4D030000 		.4byte	.LASF52
 974 032b 0A       		.byte	0xa
 975 032c 0B       		.byte	0xb
 976 032d 46       		.byte	0x46
 977 032e 6B030000 		.4byte	0x36b
 978 0332 0C       		.uleb128 0xc
 979 0333 7800     		.ascii	"x\000"
 980 0335 0B       		.byte	0xb
 981 0336 47       		.byte	0x47
 982 0337 34010000 		.4byte	0x134
 983 033b 00       		.byte	0
 984 033c 0C       		.uleb128 0xc
 985 033d 7900     		.ascii	"y\000"
 986 033f 0B       		.byte	0xb
 987 0340 47       		.byte	0x47
 988 0341 34010000 		.4byte	0x134
 989 0345 02       		.byte	0x2
 990 0346 0A       		.uleb128 0xa
 991 0347 CE000000 		.4byte	.LASF37
 992 034b 0B       		.byte	0xb
 993 034c 48       		.byte	0x48
 994 034d 34010000 		.4byte	0x134
 995 0351 04       		.byte	0x4
 996 0352 0A       		.uleb128 0xa
 997 0353 C3020000 		.4byte	.LASF38
 998 0357 0B       		.byte	0xb
 999 0358 48       		.byte	0x48
 1000 0359 34010000 		.4byte	0x134
 1001 035d 06       		.byte	0x6
 1002 035e 0A       		.uleb128 0xa
 1003 035f 2F000000 		.4byte	.LASF53
 1004 0363 0B       		.byte	0xb
 1005 0364 49       		.byte	0x49
 1006 0365 CA000000 		.4byte	0xca
 1007 0369 08       		.byte	0x8
 1008 036a 00       		.byte	0
 1009 036b 03       		.uleb128 0x3
 1010 036c 4D030000 		.4byte	.LASF52
 1011 0370 0B       		.byte	0xb
 1012 0371 4D       		.byte	0x4d
 1013 0372 26030000 		.4byte	0x326
 1014 0376 09       		.uleb128 0x9
 1015 0377 F3020000 		.4byte	.LASF54
 1016 037b 38       		.byte	0x38
 1017 037c 0D       		.byte	0xd
 1018 037d 21       		.byte	0x21
 1019 037e 99030000 		.4byte	0x399
 1020 0382 0C       		.uleb128 0xc
 1021 0383 6700     		.ascii	"g\000"
 1022 0385 0D       		.byte	0xd
 1023 0386 22       		.byte	0x22
ARM GAS  /tmp/cchEzFXo.s 			page 19


 1024 0387 1B030000 		.4byte	0x31b
 1025 038b 00       		.byte	0
 1026 038c 0A       		.uleb128 0xa
 1027 038d 7A030000 		.4byte	.LASF55
 1028 0391 0D       		.byte	0xd
 1029 0392 23       		.byte	0x23
 1030 0393 23020000 		.4byte	0x223
 1031 0397 20       		.byte	0x20
 1032 0398 00       		.byte	0
 1033 0399 03       		.uleb128 0x3
 1034 039a F3020000 		.4byte	.LASF54
 1035 039e 0D       		.byte	0xd
 1036 039f 27       		.byte	0x27
 1037 03a0 76030000 		.4byte	0x376
 1038 03a4 0D       		.uleb128 0xd
 1039 03a5 AF030000 		.4byte	0x3af
 1040 03a9 0E       		.uleb128 0xe
 1041 03aa AF030000 		.4byte	0x3af
 1042 03ae 00       		.byte	0
 1043 03af 05       		.uleb128 0x5
 1044 03b0 04       		.byte	0x4
 1045 03b1 1B030000 		.4byte	0x31b
 1046 03b5 05       		.uleb128 0x5
 1047 03b6 04       		.byte	0x4
 1048 03b7 A4030000 		.4byte	0x3a4
 1049 03bb 03       		.uleb128 0x3
 1050 03bc 8F030000 		.4byte	.LASF46
 1051 03c0 0C       		.byte	0xc
 1052 03c1 41       		.byte	0x41
 1053 03c2 C1020000 		.4byte	0x2c1
 1054 03c6 0F       		.uleb128 0xf
 1055 03c7 BD000000 		.4byte	.LASF56
 1056 03cb 01       		.byte	0x1
 1057 03cc 15       		.byte	0x15
 1058 03cd 00000000 		.4byte	.LFB111
 1059 03d1 26000000 		.4byte	.LFE111-.LFB111
 1060 03d5 01       		.uleb128 0x1
 1061 03d6 9C       		.byte	0x9c
 1062 03d7 E9030000 		.4byte	0x3e9
 1063 03db 10       		.uleb128 0x10
 1064 03dc 676800   		.ascii	"gh\000"
 1065 03df 01       		.byte	0x1
 1066 03e0 15       		.byte	0x15
 1067 03e1 AF030000 		.4byte	0x3af
 1068 03e5 02       		.uleb128 0x2
 1069 03e6 91       		.byte	0x91
 1070 03e7 74       		.sleb128 -12
 1071 03e8 00       		.byte	0
 1072 03e9 0F       		.uleb128 0xf
 1073 03ea C6000000 		.4byte	.LASF57
 1074 03ee 01       		.byte	0x1
 1075 03ef 20       		.byte	0x20
 1076 03f0 00000000 		.4byte	.LFB112
 1077 03f4 6C020000 		.4byte	.LFE112-.LFB112
 1078 03f8 01       		.uleb128 0x1
 1079 03f9 9C       		.byte	0x9c
 1080 03fa 63040000 		.4byte	0x463
ARM GAS  /tmp/cchEzFXo.s 			page 20


 1081 03fe 10       		.uleb128 0x10
 1082 03ff 676800   		.ascii	"gh\000"
 1083 0402 01       		.byte	0x1
 1084 0403 20       		.byte	0x20
 1085 0404 2E020000 		.4byte	0x22e
 1086 0408 02       		.uleb128 0x2
 1087 0409 91       		.byte	0x91
 1088 040a 64       		.sleb128 -28
 1089 040b 11       		.uleb128 0x11
 1090 040c 7800     		.ascii	"x\000"
 1091 040e 01       		.byte	0x1
 1092 040f 21       		.byte	0x21
 1093 0410 34010000 		.4byte	0x134
 1094 0414 02       		.uleb128 0x2
 1095 0415 91       		.byte	0x91
 1096 0416 76       		.sleb128 -10
 1097 0417 11       		.uleb128 0x11
 1098 0418 7900     		.ascii	"y\000"
 1099 041a 01       		.byte	0x1
 1100 041b 21       		.byte	0x21
 1101 041c 34010000 		.4byte	0x134
 1102 0420 02       		.uleb128 0x2
 1103 0421 91       		.byte	0x91
 1104 0422 74       		.sleb128 -12
 1105 0423 11       		.uleb128 0x11
 1106 0424 7700     		.ascii	"w\000"
 1107 0426 01       		.byte	0x1
 1108 0427 21       		.byte	0x21
 1109 0428 34010000 		.4byte	0x134
 1110 042c 02       		.uleb128 0x2
 1111 042d 91       		.byte	0x91
 1112 042e 72       		.sleb128 -14
 1113 042f 11       		.uleb128 0x11
 1114 0430 6800     		.ascii	"h\000"
 1115 0432 01       		.byte	0x1
 1116 0433 21       		.byte	0x21
 1117 0434 34010000 		.4byte	0x134
 1118 0438 02       		.uleb128 0x2
 1119 0439 91       		.byte	0x91
 1120 043a 70       		.sleb128 -16
 1121 043b 11       		.uleb128 0x11
 1122 043c 647800   		.ascii	"dx\000"
 1123 043f 01       		.byte	0x1
 1124 0440 21       		.byte	0x21
 1125 0441 34010000 		.4byte	0x134
 1126 0445 02       		.uleb128 0x2
 1127 0446 91       		.byte	0x91
 1128 0447 6E       		.sleb128 -18
 1129 0448 11       		.uleb128 0x11
 1130 0449 647900   		.ascii	"dy\000"
 1131 044c 01       		.byte	0x1
 1132 044d 21       		.byte	0x21
 1133 044e 34010000 		.4byte	0x134
 1134 0452 02       		.uleb128 0x2
 1135 0453 91       		.byte	0x91
 1136 0454 6C       		.sleb128 -20
 1137 0455 11       		.uleb128 0x11
ARM GAS  /tmp/cchEzFXo.s 			page 21


 1138 0456 626700   		.ascii	"bg\000"
 1139 0459 01       		.byte	0x1
 1140 045a 22       		.byte	0x22
 1141 045b 6A010000 		.4byte	0x16a
 1142 045f 02       		.uleb128 0x2
 1143 0460 91       		.byte	0x91
 1144 0461 6A       		.sleb128 -22
 1145 0462 00       		.byte	0
 1146 0463 12       		.uleb128 0x12
 1147 0464 1F020000 		.4byte	.LASF60
 1148 0468 01       		.byte	0x1
 1149 0469 79       		.byte	0x79
 1150 046a 2E020000 		.4byte	0x22e
 1151 046e 00000000 		.4byte	.LFB113
 1152 0472 4C000000 		.4byte	.LFE113-.LFB113
 1153 0476 01       		.uleb128 0x1
 1154 0477 9C       		.byte	0x9c
 1155 0478 A5040000 		.4byte	0x4a5
 1156 047c 10       		.uleb128 0x10
 1157 047d 6700     		.ascii	"g\000"
 1158 047f 01       		.byte	0x1
 1159 0480 79       		.byte	0x79
 1160 0481 15030000 		.4byte	0x315
 1161 0485 02       		.uleb128 0x2
 1162 0486 91       		.byte	0x91
 1163 0487 74       		.sleb128 -12
 1164 0488 13       		.uleb128 0x13
 1165 0489 39020000 		.4byte	.LASF58
 1166 048d 01       		.byte	0x1
 1167 048e 79       		.byte	0x79
 1168 048f A5040000 		.4byte	0x4a5
 1169 0493 02       		.uleb128 0x2
 1170 0494 91       		.byte	0x91
 1171 0495 70       		.sleb128 -16
 1172 0496 13       		.uleb128 0x13
 1173 0497 05000000 		.4byte	.LASF59
 1174 049b 01       		.byte	0x1
 1175 049c 79       		.byte	0x79
 1176 049d AB040000 		.4byte	0x4ab
 1177 04a1 02       		.uleb128 0x2
 1178 04a2 91       		.byte	0x91
 1179 04a3 6C       		.sleb128 -20
 1180 04a4 00       		.byte	0
 1181 04a5 05       		.uleb128 0x5
 1182 04a6 04       		.byte	0x4
 1183 04a7 99030000 		.4byte	0x399
 1184 04ab 05       		.uleb128 0x5
 1185 04ac 04       		.byte	0x4
 1186 04ad 6B030000 		.4byte	0x36b
 1187 04b1 12       		.uleb128 0x12
 1188 04b2 C3030000 		.4byte	.LASF61
 1189 04b6 01       		.byte	0x1
 1190 04b7 8A       		.byte	0x8a
 1191 04b8 CA000000 		.4byte	0xca
 1192 04bc 00000000 		.4byte	.LFB114
 1193 04c0 60000000 		.4byte	.LFE114-.LFB114
 1194 04c4 01       		.uleb128 0x1
ARM GAS  /tmp/cchEzFXo.s 			page 22


 1195 04c5 9C       		.byte	0x9c
 1196 04c6 E4040000 		.4byte	0x4e4
 1197 04ca 10       		.uleb128 0x10
 1198 04cb 676800   		.ascii	"gh\000"
 1199 04ce 01       		.byte	0x1
 1200 04cf 8A       		.byte	0x8a
 1201 04d0 2E020000 		.4byte	0x22e
 1202 04d4 02       		.uleb128 0x2
 1203 04d5 91       		.byte	0x91
 1204 04d6 74       		.sleb128 -12
 1205 04d7 10       		.uleb128 0x10
 1206 04d8 6600     		.ascii	"f\000"
 1207 04da 01       		.byte	0x1
 1208 04db 8A       		.byte	0x8a
 1209 04dc 02020000 		.4byte	0x202
 1210 04e0 02       		.uleb128 0x2
 1211 04e1 91       		.byte	0x91
 1212 04e2 70       		.sleb128 -16
 1213 04e3 00       		.byte	0
 1214 04e4 12       		.uleb128 0x12
 1215 04e5 00020000 		.4byte	.LASF62
 1216 04e9 01       		.byte	0x1
 1217 04ea 9A       		.byte	0x9a
 1218 04eb 81010000 		.4byte	0x181
 1219 04ef 00000000 		.4byte	.LFB115
 1220 04f3 30000000 		.4byte	.LFE115-.LFB115
 1221 04f7 01       		.uleb128 0x1
 1222 04f8 9C       		.byte	0x9c
 1223 04f9 0B050000 		.4byte	0x50b
 1224 04fd 10       		.uleb128 0x10
 1225 04fe 676800   		.ascii	"gh\000"
 1226 0501 01       		.byte	0x1
 1227 0502 9A       		.byte	0x9a
 1228 0503 2E020000 		.4byte	0x22e
 1229 0507 02       		.uleb128 0x2
 1230 0508 91       		.byte	0x91
 1231 0509 74       		.sleb128 -12
 1232 050a 00       		.byte	0
 1233 050b 14       		.uleb128 0x14
 1234 050c 30020000 		.4byte	.LASF63
 1235 0510 01       		.byte	0x1
 1236 0511 71       		.byte	0x71
 1237 0512 1C050000 		.4byte	0x51c
 1238 0516 05       		.uleb128 0x5
 1239 0517 03       		.byte	0x3
 1240 0518 00000000 		.4byte	imageVMT
 1241 051c 06       		.uleb128 0x6
 1242 051d BB030000 		.4byte	0x3bb
 1243 0521 15       		.uleb128 0x15
 1244 0522 B6030000 		.4byte	.LASF66
 1245 0526 0E       		.byte	0xe
 1246 0527 9806     		.2byte	0x698
 1247 0529 F5000000 		.4byte	0xf5
 1248 052d 00       		.byte	0
 1249              		.section	.debug_abbrev,"",%progbits
 1250              	.Ldebug_abbrev0:
 1251 0000 01       		.uleb128 0x1
ARM GAS  /tmp/cchEzFXo.s 			page 23


 1252 0001 11       		.uleb128 0x11
 1253 0002 01       		.byte	0x1
 1254 0003 25       		.uleb128 0x25
 1255 0004 0E       		.uleb128 0xe
 1256 0005 13       		.uleb128 0x13
 1257 0006 0B       		.uleb128 0xb
 1258 0007 03       		.uleb128 0x3
 1259 0008 0E       		.uleb128 0xe
 1260 0009 55       		.uleb128 0x55
 1261 000a 17       		.uleb128 0x17
 1262 000b 11       		.uleb128 0x11
 1263 000c 01       		.uleb128 0x1
 1264 000d 10       		.uleb128 0x10
 1265 000e 17       		.uleb128 0x17
 1266 000f 00       		.byte	0
 1267 0010 00       		.byte	0
 1268 0011 02       		.uleb128 0x2
 1269 0012 24       		.uleb128 0x24
 1270 0013 00       		.byte	0
 1271 0014 0B       		.uleb128 0xb
 1272 0015 0B       		.uleb128 0xb
 1273 0016 3E       		.uleb128 0x3e
 1274 0017 0B       		.uleb128 0xb
 1275 0018 03       		.uleb128 0x3
 1276 0019 08       		.uleb128 0x8
 1277 001a 00       		.byte	0
 1278 001b 00       		.byte	0
 1279 001c 03       		.uleb128 0x3
 1280 001d 16       		.uleb128 0x16
 1281 001e 00       		.byte	0
 1282 001f 03       		.uleb128 0x3
 1283 0020 0E       		.uleb128 0xe
 1284 0021 3A       		.uleb128 0x3a
 1285 0022 0B       		.uleb128 0xb
 1286 0023 3B       		.uleb128 0x3b
 1287 0024 0B       		.uleb128 0xb
 1288 0025 49       		.uleb128 0x49
 1289 0026 13       		.uleb128 0x13
 1290 0027 00       		.byte	0
 1291 0028 00       		.byte	0
 1292 0029 04       		.uleb128 0x4
 1293 002a 24       		.uleb128 0x24
 1294 002b 00       		.byte	0
 1295 002c 0B       		.uleb128 0xb
 1296 002d 0B       		.uleb128 0xb
 1297 002e 3E       		.uleb128 0x3e
 1298 002f 0B       		.uleb128 0xb
 1299 0030 03       		.uleb128 0x3
 1300 0031 0E       		.uleb128 0xe
 1301 0032 00       		.byte	0
 1302 0033 00       		.byte	0
 1303 0034 05       		.uleb128 0x5
 1304 0035 0F       		.uleb128 0xf
 1305 0036 00       		.byte	0
 1306 0037 0B       		.uleb128 0xb
 1307 0038 0B       		.uleb128 0xb
 1308 0039 49       		.uleb128 0x49
ARM GAS  /tmp/cchEzFXo.s 			page 24


 1309 003a 13       		.uleb128 0x13
 1310 003b 00       		.byte	0
 1311 003c 00       		.byte	0
 1312 003d 06       		.uleb128 0x6
 1313 003e 26       		.uleb128 0x26
 1314 003f 00       		.byte	0
 1315 0040 49       		.uleb128 0x49
 1316 0041 13       		.uleb128 0x13
 1317 0042 00       		.byte	0
 1318 0043 00       		.byte	0
 1319 0044 07       		.uleb128 0x7
 1320 0045 35       		.uleb128 0x35
 1321 0046 00       		.byte	0
 1322 0047 49       		.uleb128 0x49
 1323 0048 13       		.uleb128 0x13
 1324 0049 00       		.byte	0
 1325 004a 00       		.byte	0
 1326 004b 08       		.uleb128 0x8
 1327 004c 13       		.uleb128 0x13
 1328 004d 00       		.byte	0
 1329 004e 03       		.uleb128 0x3
 1330 004f 0E       		.uleb128 0xe
 1331 0050 3C       		.uleb128 0x3c
 1332 0051 19       		.uleb128 0x19
 1333 0052 00       		.byte	0
 1334 0053 00       		.byte	0
 1335 0054 09       		.uleb128 0x9
 1336 0055 13       		.uleb128 0x13
 1337 0056 01       		.byte	0x1
 1338 0057 03       		.uleb128 0x3
 1339 0058 0E       		.uleb128 0xe
 1340 0059 0B       		.uleb128 0xb
 1341 005a 0B       		.uleb128 0xb
 1342 005b 3A       		.uleb128 0x3a
 1343 005c 0B       		.uleb128 0xb
 1344 005d 3B       		.uleb128 0x3b
 1345 005e 0B       		.uleb128 0xb
 1346 005f 01       		.uleb128 0x1
 1347 0060 13       		.uleb128 0x13
 1348 0061 00       		.byte	0
 1349 0062 00       		.byte	0
 1350 0063 0A       		.uleb128 0xa
 1351 0064 0D       		.uleb128 0xd
 1352 0065 00       		.byte	0
 1353 0066 03       		.uleb128 0x3
 1354 0067 0E       		.uleb128 0xe
 1355 0068 3A       		.uleb128 0x3a
 1356 0069 0B       		.uleb128 0xb
 1357 006a 3B       		.uleb128 0x3b
 1358 006b 0B       		.uleb128 0xb
 1359 006c 49       		.uleb128 0x49
 1360 006d 13       		.uleb128 0x13
 1361 006e 38       		.uleb128 0x38
 1362 006f 0B       		.uleb128 0xb
 1363 0070 00       		.byte	0
 1364 0071 00       		.byte	0
 1365 0072 0B       		.uleb128 0xb
ARM GAS  /tmp/cchEzFXo.s 			page 25


 1366 0073 16       		.uleb128 0x16
 1367 0074 00       		.byte	0
 1368 0075 03       		.uleb128 0x3
 1369 0076 0E       		.uleb128 0xe
 1370 0077 3A       		.uleb128 0x3a
 1371 0078 0B       		.uleb128 0xb
 1372 0079 3B       		.uleb128 0x3b
 1373 007a 05       		.uleb128 0x5
 1374 007b 49       		.uleb128 0x49
 1375 007c 13       		.uleb128 0x13
 1376 007d 00       		.byte	0
 1377 007e 00       		.byte	0
 1378 007f 0C       		.uleb128 0xc
 1379 0080 0D       		.uleb128 0xd
 1380 0081 00       		.byte	0
 1381 0082 03       		.uleb128 0x3
 1382 0083 08       		.uleb128 0x8
 1383 0084 3A       		.uleb128 0x3a
 1384 0085 0B       		.uleb128 0xb
 1385 0086 3B       		.uleb128 0x3b
 1386 0087 0B       		.uleb128 0xb
 1387 0088 49       		.uleb128 0x49
 1388 0089 13       		.uleb128 0x13
 1389 008a 38       		.uleb128 0x38
 1390 008b 0B       		.uleb128 0xb
 1391 008c 00       		.byte	0
 1392 008d 00       		.byte	0
 1393 008e 0D       		.uleb128 0xd
 1394 008f 15       		.uleb128 0x15
 1395 0090 01       		.byte	0x1
 1396 0091 27       		.uleb128 0x27
 1397 0092 19       		.uleb128 0x19
 1398 0093 01       		.uleb128 0x1
 1399 0094 13       		.uleb128 0x13
 1400 0095 00       		.byte	0
 1401 0096 00       		.byte	0
 1402 0097 0E       		.uleb128 0xe
 1403 0098 05       		.uleb128 0x5
 1404 0099 00       		.byte	0
 1405 009a 49       		.uleb128 0x49
 1406 009b 13       		.uleb128 0x13
 1407 009c 00       		.byte	0
 1408 009d 00       		.byte	0
 1409 009e 0F       		.uleb128 0xf
 1410 009f 2E       		.uleb128 0x2e
 1411 00a0 01       		.byte	0x1
 1412 00a1 03       		.uleb128 0x3
 1413 00a2 0E       		.uleb128 0xe
 1414 00a3 3A       		.uleb128 0x3a
 1415 00a4 0B       		.uleb128 0xb
 1416 00a5 3B       		.uleb128 0x3b
 1417 00a6 0B       		.uleb128 0xb
 1418 00a7 27       		.uleb128 0x27
 1419 00a8 19       		.uleb128 0x19
 1420 00a9 11       		.uleb128 0x11
 1421 00aa 01       		.uleb128 0x1
 1422 00ab 12       		.uleb128 0x12
ARM GAS  /tmp/cchEzFXo.s 			page 26


 1423 00ac 06       		.uleb128 0x6
 1424 00ad 40       		.uleb128 0x40
 1425 00ae 18       		.uleb128 0x18
 1426 00af 9642     		.uleb128 0x2116
 1427 00b1 19       		.uleb128 0x19
 1428 00b2 01       		.uleb128 0x1
 1429 00b3 13       		.uleb128 0x13
 1430 00b4 00       		.byte	0
 1431 00b5 00       		.byte	0
 1432 00b6 10       		.uleb128 0x10
 1433 00b7 05       		.uleb128 0x5
 1434 00b8 00       		.byte	0
 1435 00b9 03       		.uleb128 0x3
 1436 00ba 08       		.uleb128 0x8
 1437 00bb 3A       		.uleb128 0x3a
 1438 00bc 0B       		.uleb128 0xb
 1439 00bd 3B       		.uleb128 0x3b
 1440 00be 0B       		.uleb128 0xb
 1441 00bf 49       		.uleb128 0x49
 1442 00c0 13       		.uleb128 0x13
 1443 00c1 02       		.uleb128 0x2
 1444 00c2 18       		.uleb128 0x18
 1445 00c3 00       		.byte	0
 1446 00c4 00       		.byte	0
 1447 00c5 11       		.uleb128 0x11
 1448 00c6 34       		.uleb128 0x34
 1449 00c7 00       		.byte	0
 1450 00c8 03       		.uleb128 0x3
 1451 00c9 08       		.uleb128 0x8
 1452 00ca 3A       		.uleb128 0x3a
 1453 00cb 0B       		.uleb128 0xb
 1454 00cc 3B       		.uleb128 0x3b
 1455 00cd 0B       		.uleb128 0xb
 1456 00ce 49       		.uleb128 0x49
 1457 00cf 13       		.uleb128 0x13
 1458 00d0 02       		.uleb128 0x2
 1459 00d1 18       		.uleb128 0x18
 1460 00d2 00       		.byte	0
 1461 00d3 00       		.byte	0
 1462 00d4 12       		.uleb128 0x12
 1463 00d5 2E       		.uleb128 0x2e
 1464 00d6 01       		.byte	0x1
 1465 00d7 3F       		.uleb128 0x3f
 1466 00d8 19       		.uleb128 0x19
 1467 00d9 03       		.uleb128 0x3
 1468 00da 0E       		.uleb128 0xe
 1469 00db 3A       		.uleb128 0x3a
 1470 00dc 0B       		.uleb128 0xb
 1471 00dd 3B       		.uleb128 0x3b
 1472 00de 0B       		.uleb128 0xb
 1473 00df 27       		.uleb128 0x27
 1474 00e0 19       		.uleb128 0x19
 1475 00e1 49       		.uleb128 0x49
 1476 00e2 13       		.uleb128 0x13
 1477 00e3 11       		.uleb128 0x11
 1478 00e4 01       		.uleb128 0x1
 1479 00e5 12       		.uleb128 0x12
ARM GAS  /tmp/cchEzFXo.s 			page 27


 1480 00e6 06       		.uleb128 0x6
 1481 00e7 40       		.uleb128 0x40
 1482 00e8 18       		.uleb128 0x18
 1483 00e9 9642     		.uleb128 0x2116
 1484 00eb 19       		.uleb128 0x19
 1485 00ec 01       		.uleb128 0x1
 1486 00ed 13       		.uleb128 0x13
 1487 00ee 00       		.byte	0
 1488 00ef 00       		.byte	0
 1489 00f0 13       		.uleb128 0x13
 1490 00f1 05       		.uleb128 0x5
 1491 00f2 00       		.byte	0
 1492 00f3 03       		.uleb128 0x3
 1493 00f4 0E       		.uleb128 0xe
 1494 00f5 3A       		.uleb128 0x3a
 1495 00f6 0B       		.uleb128 0xb
 1496 00f7 3B       		.uleb128 0x3b
 1497 00f8 0B       		.uleb128 0xb
 1498 00f9 49       		.uleb128 0x49
 1499 00fa 13       		.uleb128 0x13
 1500 00fb 02       		.uleb128 0x2
 1501 00fc 18       		.uleb128 0x18
 1502 00fd 00       		.byte	0
 1503 00fe 00       		.byte	0
 1504 00ff 14       		.uleb128 0x14
 1505 0100 34       		.uleb128 0x34
 1506 0101 00       		.byte	0
 1507 0102 03       		.uleb128 0x3
 1508 0103 0E       		.uleb128 0xe
 1509 0104 3A       		.uleb128 0x3a
 1510 0105 0B       		.uleb128 0xb
 1511 0106 3B       		.uleb128 0x3b
 1512 0107 0B       		.uleb128 0xb
 1513 0108 49       		.uleb128 0x49
 1514 0109 13       		.uleb128 0x13
 1515 010a 02       		.uleb128 0x2
 1516 010b 18       		.uleb128 0x18
 1517 010c 00       		.byte	0
 1518 010d 00       		.byte	0
 1519 010e 15       		.uleb128 0x15
 1520 010f 34       		.uleb128 0x34
 1521 0110 00       		.byte	0
 1522 0111 03       		.uleb128 0x3
 1523 0112 0E       		.uleb128 0xe
 1524 0113 3A       		.uleb128 0x3a
 1525 0114 0B       		.uleb128 0xb
 1526 0115 3B       		.uleb128 0x3b
 1527 0116 05       		.uleb128 0x5
 1528 0117 49       		.uleb128 0x49
 1529 0118 13       		.uleb128 0x13
 1530 0119 3F       		.uleb128 0x3f
 1531 011a 19       		.uleb128 0x19
 1532 011b 3C       		.uleb128 0x3c
 1533 011c 19       		.uleb128 0x19
 1534 011d 00       		.byte	0
 1535 011e 00       		.byte	0
 1536 011f 00       		.byte	0
ARM GAS  /tmp/cchEzFXo.s 			page 28


 1537              		.section	.debug_aranges,"",%progbits
 1538 0000 3C000000 		.4byte	0x3c
 1539 0004 0200     		.2byte	0x2
 1540 0006 00000000 		.4byte	.Ldebug_info0
 1541 000a 04       		.byte	0x4
 1542 000b 00       		.byte	0
 1543 000c 0000     		.2byte	0
 1544 000e 0000     		.2byte	0
 1545 0010 00000000 		.4byte	.LFB111
 1546 0014 26000000 		.4byte	.LFE111-.LFB111
 1547 0018 00000000 		.4byte	.LFB112
 1548 001c 6C020000 		.4byte	.LFE112-.LFB112
 1549 0020 00000000 		.4byte	.LFB113
 1550 0024 4C000000 		.4byte	.LFE113-.LFB113
 1551 0028 00000000 		.4byte	.LFB114
 1552 002c 60000000 		.4byte	.LFE114-.LFB114
 1553 0030 00000000 		.4byte	.LFB115
 1554 0034 30000000 		.4byte	.LFE115-.LFB115
 1555 0038 00000000 		.4byte	0
 1556 003c 00000000 		.4byte	0
 1557              		.section	.debug_ranges,"",%progbits
 1558              	.Ldebug_ranges0:
 1559 0000 00000000 		.4byte	.LFB111
 1560 0004 26000000 		.4byte	.LFE111
 1561 0008 00000000 		.4byte	.LFB112
 1562 000c 6C020000 		.4byte	.LFE112
 1563 0010 00000000 		.4byte	.LFB113
 1564 0014 4C000000 		.4byte	.LFE113
 1565 0018 00000000 		.4byte	.LFB114
 1566 001c 60000000 		.4byte	.LFE114
 1567 0020 00000000 		.4byte	.LFB115
 1568 0024 30000000 		.4byte	.LFE115
 1569 0028 00000000 		.4byte	0
 1570 002c 00000000 		.4byte	0
 1571              		.section	.debug_line,"",%progbits
 1572              	.Ldebug_line0:
 1573 0000 38030000 		.section	.debug_str,"MS",%progbits,1
 1573      0200A302 
 1573      00000201 
 1573      FB0E0D00 
 1573      01010101 
 1574              	.LASF39:
 1575 0000 70726976 		.ascii	"priv\000"
 1575      00
 1576              	.LASF59:
 1577 0005 70496E69 		.ascii	"pInit\000"
 1577      7400
 1578              	.LASF23:
 1579 000b 67667851 		.ascii	"gfxQueueASyncItem\000"
 1579      75657565 
 1579      4153796E 
 1579      63497465 
 1579      6D00
 1580              	.LASF4:
 1581 001d 5F5F696E 		.ascii	"__int16_t\000"
 1581      7431365F 
 1581      7400
ARM GAS  /tmp/cchEzFXo.s 			page 29


 1582              	.LASF36:
 1583 0027 6267636F 		.ascii	"bgcolor\000"
 1583      6C6F7200 
 1584              	.LASF53:
 1585 002f 73686F77 		.ascii	"show\000"
 1585      00
 1586              	.LASF45:
 1587 0034 666F6E74 		.ascii	"font\000"
 1587      00
 1588              	.LASF41:
 1589 0039 67646973 		.ascii	"gdispImagePrivate\000"
 1589      70496D61 
 1589      67655072 
 1589      69766174 
 1589      6500
 1590              	.LASF5:
 1591 004b 73686F72 		.ascii	"short int\000"
 1591      7420696E 
 1591      7400
 1592              	.LASF3:
 1593 0055 73697A65 		.ascii	"size_t\000"
 1593      5F7400
 1594              	.LASF20:
 1595 005c 73697A65 		.ascii	"sizetype\000"
 1595      74797065 
 1595      00
 1596              	.LASF49:
 1597 0065 44657374 		.ascii	"Destroy\000"
 1597      726F7900 
 1598              	.LASF10:
 1599 006d 5F5F7569 		.ascii	"__uint32_t\000"
 1599      6E743332 
 1599      5F7400
 1600              	.LASF6:
 1601 0078 5F5F7569 		.ascii	"__uint16_t\000"
 1601      6E743136 
 1601      5F7400
 1602              	.LASF22:
 1603 0083 4746494C 		.ascii	"GFILE\000"
 1603      4500
 1604              	.LASF28:
 1605 0089 636F6C6F 		.ascii	"color_t\000"
 1605      725F7400 
 1606              	.LASF47:
 1607 0091 636C6173 		.ascii	"classname\000"
 1607      736E616D 
 1607      6500
 1608              	.LASF29:
 1609 009b 67646973 		.ascii	"gdispImageType\000"
 1609      70496D61 
 1609      67655479 
 1609      706500
 1610              	.LASF26:
 1611 00aa 6D665F66 		.ascii	"mf_font_s\000"
 1611      6F6E745F 
 1611      7300
 1612              	.LASF17:
ARM GAS  /tmp/cchEzFXo.s 			page 30


 1613 00b4 75696E74 		.ascii	"uint32_t\000"
 1613      33325F74 
 1613      00
 1614              	.LASF56:
 1615 00bd 5F646573 		.ascii	"_destroy\000"
 1615      74726F79 
 1615      00
 1616              	.LASF57:
 1617 00c6 5F726564 		.ascii	"_redraw\000"
 1617      72617700 
 1618              	.LASF37:
 1619 00ce 77696474 		.ascii	"width\000"
 1619      6800
 1620              	.LASF12:
 1621 00d4 6C6F6E67 		.ascii	"long long int\000"
 1621      206C6F6E 
 1621      6720696E 
 1621      7400
 1622              	.LASF64:
 1623 00e2 474E5520 		.ascii	"GNU C 4.9.3 20150303 (release) [ARM/embedded-4_9-br"
 1623      4320342E 
 1623      392E3320 
 1623      32303135 
 1623      30333033 
 1624 0115 616E6368 		.ascii	"anch revision 221220] -mcpu=cortex-m4 -mfloat-abi=h"
 1624      20726576 
 1624      6973696F 
 1624      6E203232 
 1624      31323230 
 1625 0148 61726420 		.ascii	"ard -mfpu=fpv4-sp-d16 -mno-thumb-interwork -mthumb "
 1625      2D6D6670 
 1625      753D6670 
 1625      76342D73 
 1625      702D6431 
 1626 017b 2D676764 		.ascii	"-ggdb -fomit-frame-pointer -falign-functions=16 -ff"
 1626      62202D66 
 1626      6F6D6974 
 1626      2D667261 
 1626      6D652D70 
 1627 01ae 756E6374 		.ascii	"unction-sections -fdata-sections -fno-common -fsing"
 1627      696F6E2D 
 1627      73656374 
 1627      696F6E73 
 1627      202D6664 
 1628 01e1 6C652D70 		.ascii	"le-precision-constant\000"
 1628      72656369 
 1628      73696F6E 
 1628      2D636F6E 
 1628      7374616E 
 1629              	.LASF9:
 1630 01f7 6C6F6E67 		.ascii	"long int\000"
 1630      20696E74 
 1630      00
 1631              	.LASF62:
 1632 0200 6777696E 		.ascii	"gwinImageCache\000"
 1632      496D6167 
 1632      65436163 
ARM GAS  /tmp/cchEzFXo.s 			page 31


 1632      686500
 1633              	.LASF30:
 1634 020f 67646973 		.ascii	"gdispImageError\000"
 1634      70496D61 
 1634      67654572 
 1634      726F7200 
 1635              	.LASF60:
 1636 021f 6777696E 		.ascii	"gwinGImageCreate\000"
 1636      47496D61 
 1636      67654372 
 1636      65617465 
 1636      00
 1637              	.LASF63:
 1638 0230 696D6167 		.ascii	"imageVMT\000"
 1638      65564D54 
 1638      00
 1639              	.LASF58:
 1640 0239 676F626A 		.ascii	"gobj\000"
 1640      00
 1641              	.LASF27:
 1642 023e 47446973 		.ascii	"GDisplay\000"
 1642      706C6179 
 1642      00
 1643              	.LASF2:
 1644 0247 756E7369 		.ascii	"unsigned char\000"
 1644      676E6564 
 1644      20636861 
 1644      7200
 1645              	.LASF65:
 1646 0255 2F686F6D 		.ascii	"/home/makkmarci/workspace/ugfx/src/gwin/gwin_image."
 1646      652F6D61 
 1646      6B6B6D61 
 1646      7263692F 
 1646      776F726B 
 1647 0288 6300     		.ascii	"c\000"
 1648              	.LASF1:
 1649 028a 7369676E 		.ascii	"signed char\000"
 1649      65642063 
 1649      68617200 
 1650              	.LASF35:
 1651 0296 666C6167 		.ascii	"flags\000"
 1651      7300
 1652              	.LASF13:
 1653 029c 6C6F6E67 		.ascii	"long long unsigned int\000"
 1653      206C6F6E 
 1653      6720756E 
 1653      7369676E 
 1653      65642069 
 1654              	.LASF51:
 1655 02b3 41667465 		.ascii	"AfterClear\000"
 1655      72436C65 
 1655      617200
 1656              	.LASF34:
 1657 02be 74797065 		.ascii	"type\000"
 1657      00
 1658              	.LASF38:
 1659 02c3 68656967 		.ascii	"height\000"
ARM GAS  /tmp/cchEzFXo.s 			page 32


 1659      687400
 1660              	.LASF0:
 1661 02ca 756E7369 		.ascii	"unsigned int\000"
 1661      676E6564 
 1661      20696E74 
 1661      00
 1662              	.LASF15:
 1663 02d7 75696E74 		.ascii	"uint16_t\000"
 1663      31365F74 
 1663      00
 1664              	.LASF7:
 1665 02e0 73686F72 		.ascii	"short unsigned int\000"
 1665      7420756E 
 1665      7369676E 
 1665      65642069 
 1665      6E7400
 1666              	.LASF54:
 1667 02f3 47496D61 		.ascii	"GImageObject\000"
 1667      67654F62 
 1667      6A656374 
 1667      00
 1668              	.LASF31:
 1669 0300 67646973 		.ascii	"gdispImageFlags\000"
 1669      70496D61 
 1669      6765466C 
 1669      61677300 
 1670              	.LASF21:
 1671 0310 63686172 		.ascii	"char\000"
 1671      00
 1672              	.LASF16:
 1673 0315 696E7433 		.ascii	"int32_t\000"
 1673      325F7400 
 1674              	.LASF18:
 1675 031d 626F6F6C 		.ascii	"bool_t\000"
 1675      5F7400
 1676              	.LASF14:
 1677 0324 696E7431 		.ascii	"int16_t\000"
 1677      365F7400 
 1678              	.LASF24:
 1679 032c 636F6F72 		.ascii	"coord_t\000"
 1679      645F7400 
 1680              	.LASF19:
 1681 0334 5F426F6F 		.ascii	"_Bool\000"
 1681      6C00
 1682              	.LASF40:
 1683 033a 67646973 		.ascii	"gdispImageHandlers\000"
 1683      70496D61 
 1683      67654861 
 1683      6E646C65 
 1683      727300
 1684              	.LASF52:
 1685 034d 4757696E 		.ascii	"GWindowInit\000"
 1685      646F7749 
 1685      6E697400 
 1686              	.LASF11:
 1687 0359 6C6F6E67 		.ascii	"long unsigned int\000"
 1687      20756E73 
ARM GAS  /tmp/cchEzFXo.s 			page 33


 1687      69676E65 
 1687      6420696E 
 1687      7400
 1688              	.LASF50:
 1689 036b 52656472 		.ascii	"Redraw\000"
 1689      617700
 1690              	.LASF43:
 1691 0372 64697370 		.ascii	"display\000"
 1691      6C617900 
 1692              	.LASF55:
 1693 037a 696D6167 		.ascii	"image\000"
 1693      6500
 1694              	.LASF48:
 1695 0380 73697A65 		.ascii	"size\000"
 1695      00
 1696              	.LASF8:
 1697 0385 5F5F696E 		.ascii	"__int32_t\000"
 1697      7433325F 
 1697      7400
 1698              	.LASF46:
 1699 038f 6777696E 		.ascii	"gwinVMT\000"
 1699      564D5400 
 1700              	.LASF44:
 1701 0397 636F6C6F 		.ascii	"color\000"
 1701      7200
 1702              	.LASF42:
 1703 039d 4757696E 		.ascii	"GWindowObject\000"
 1703      646F774F 
 1703      626A6563 
 1703      7400
 1704              	.LASF32:
 1705 03ab 67646973 		.ascii	"gdispImage\000"
 1705      70496D61 
 1705      676500
 1706              	.LASF66:
 1707 03b6 49544D5F 		.ascii	"ITM_RxBuffer\000"
 1707      52784275 
 1707      66666572 
 1707      00
 1708              	.LASF61:
 1709 03c3 6777696E 		.ascii	"gwinImageOpenGFile\000"
 1709      496D6167 
 1709      654F7065 
 1709      6E474669 
 1709      6C6500
 1710              	.LASF25:
 1711 03d6 666F6E74 		.ascii	"font_t\000"
 1711      5F7400
 1712              	.LASF33:
 1713 03dd 6E657874 		.ascii	"next\000"
 1713      00
 1714              		.ident	"GCC: (GNU Tools for ARM Embedded Processors) 4.9.3 20150303 (release) [ARM/embedded-4_9-br
ARM GAS  /tmp/cchEzFXo.s 			page 34


DEFINED SYMBOLS
                            *ABS*:00000000 gwin_image.c
     /tmp/cchEzFXo.s:21     .text._destroy:00000000 $t
     /tmp/cchEzFXo.s:26     .text._destroy:00000000 _destroy
     /tmp/cchEzFXo.s:62     .text._redraw:00000000 $t
     /tmp/cchEzFXo.s:67     .text._redraw:00000000 _redraw
     /tmp/cchEzFXo.s:357    .rodata:00000000 $d
     /tmp/cchEzFXo.s:361    .rodata.imageVMT:00000000 $d
     /tmp/cchEzFXo.s:364    .rodata.imageVMT:00000000 imageVMT
     /tmp/cchEzFXo.s:371    .text.gwinGImageCreate:00000000 $t
     /tmp/cchEzFXo.s:377    .text.gwinGImageCreate:00000000 gwinGImageCreate
     /tmp/cchEzFXo.s:431    .text.gwinGImageCreate:00000048 $d
     /tmp/cchEzFXo.s:436    .text.gwinImageOpenGFile:00000000 $t
     /tmp/cchEzFXo.s:442    .text.gwinImageOpenGFile:00000000 gwinImageOpenGFile
     /tmp/cchEzFXo.s:509    .text.gwinImageOpenGFile:0000005c $d
     /tmp/cchEzFXo.s:514    .text.gwinImageCache:00000000 $t
     /tmp/cchEzFXo.s:520    .text.gwinImageCache:00000000 gwinImageCache
     /tmp/cchEzFXo.s:558    .text.gwinImageCache:0000002c $d
                     .debug_frame:00000010 $d
     /tmp/cchEzFXo.s:435    .text.gwinGImageCreate:0000004c $t

UNDEFINED SYMBOLS
gdispImageIsOpen
gdispImageClose
gwinGetDefaultBgColor
gdispGFillArea
gdispImageSetBgColor
gdispGImageDraw
_gwindowCreate
gdispImageInit
gwinSetVisible
gdispImageOpenGFile
_gwinUpdate
gdispImageCache
