ARM GAS  /tmp/cc57xKLi.s 			page 1


   1              		.syntax unified
   2              		.cpu cortex-m4
   3              		.eabi_attribute 27, 1
   4              		.eabi_attribute 28, 1
   5              		.fpu fpv4-sp-d16
   6              		.eabi_attribute 20, 1
   7              		.eabi_attribute 21, 1
   8              		.eabi_attribute 23, 3
   9              		.eabi_attribute 24, 1
  10              		.eabi_attribute 25, 1
  11              		.eabi_attribute 26, 1
  12              		.eabi_attribute 30, 6
  13              		.eabi_attribute 34, 1
  14              		.eabi_attribute 18, 4
  15              		.thumb
  16              		.file	"gwin_slider.c"
  17              		.text
  18              	.Ltext0:
  19              		.cfi_sections	.debug_frame
  20              		.section	.text.CalculatePosFromDPos,"ax",%progbits
  21              		.align	2
  22              		.p2align 4,,15
  23              		.thumb
  24              		.thumb_func
  25              		.type	CalculatePosFromDPos, %function
  26              	CalculatePosFromDPos:
  27              	.LFB111:
  28              		.file 1 "/home/makkmarci/workspace/ugfx/src/gwin/gwin_slider.c"
  29              		.loc 1 22 0
  30              		.cfi_startproc
  31              		@ args = 0, pretend = 0, frame = 16
  32              		@ frame_needed = 0, uses_anonymous_args = 0
  33              		@ link register save eliminated.
  34 0000 84B0     		sub	sp, sp, #16
  35              		.cfi_def_cfa_offset 16
  36 0002 0190     		str	r0, [sp, #4]
  37              		.loc 1 26 0
  38 0004 019B     		ldr	r3, [sp, #4]
  39 0006 1A8A     		ldrh	r2, [r3, #16]
  40 0008 019B     		ldr	r3, [sp, #4]
  41 000a 5B8A     		ldrh	r3, [r3, #18]
  42 000c 12B2     		sxth	r2, r2
  43 000e 1BB2     		sxth	r3, r3
  44 0010 9A42     		cmp	r2, r3
  45 0012 41DA     		bge	.L2
  46              		.loc 1 27 0
  47 0014 019B     		ldr	r3, [sp, #4]
  48 0016 1B8E     		ldrh	r3, [r3, #48]
  49 0018 1AB2     		sxth	r2, r3
  50 001a 019B     		ldr	r3, [sp, #4]
  51 001c 5B8A     		ldrh	r3, [r3, #18]
  52 001e 1BB2     		sxth	r3, r3
  53 0020 053B     		subs	r3, r3, #5
  54 0022 9A42     		cmp	r2, r3
  55 0024 02DB     		blt	.L3
  56              		.loc 1 28 0
  57 0026 019B     		ldr	r3, [sp, #4]
ARM GAS  /tmp/cc57xKLi.s 			page 2


  58 0028 5B6B     		ldr	r3, [r3, #52]
  59 002a 72E0     		b	.L4
  60              	.L3:
  61              		.loc 1 29 0
  62 002c 019B     		ldr	r3, [sp, #4]
  63 002e 1B8E     		ldrh	r3, [r3, #48]
  64 0030 1BB2     		sxth	r3, r3
  65 0032 042B     		cmp	r3, #4
  66 0034 02DC     		bgt	.L5
  67              		.loc 1 30 0
  68 0036 019B     		ldr	r3, [sp, #4]
  69 0038 9B6B     		ldr	r3, [r3, #56]
  70 003a 6AE0     		b	.L4
  71              	.L5:
  72              		.loc 1 31 0
  73 003c 019B     		ldr	r3, [sp, #4]
  74 003e 5B8A     		ldrh	r3, [r3, #18]
  75 0040 1BB2     		sxth	r3, r3
  76 0042 DA0F     		lsrs	r2, r3, #31
  77 0044 1344     		add	r3, r3, r2
  78 0046 5B10     		asrs	r3, r3, #1
  79 0048 9BB2     		uxth	r3, r3
  80 004a 1BB2     		sxth	r3, r3
  81 004c 053B     		subs	r3, r3, #5
  82 004e 0393     		str	r3, [sp, #12]
  83              		.loc 1 32 0
  84 0050 019B     		ldr	r3, [sp, #4]
  85 0052 5A6B     		ldr	r2, [r3, #52]
  86 0054 019B     		ldr	r3, [sp, #4]
  87 0056 9B6B     		ldr	r3, [r3, #56]
  88 0058 9A42     		cmp	r2, r3
  89 005a 02DD     		ble	.L6
  90              		.loc 1 33 0
  91 005c 039B     		ldr	r3, [sp, #12]
  92 005e 5B42     		negs	r3, r3
  93 0060 0393     		str	r3, [sp, #12]
  94              	.L6:
  95              		.loc 1 34 0
  96 0062 019B     		ldr	r3, [sp, #4]
  97 0064 5B8A     		ldrh	r3, [r3, #18]
  98 0066 1BB2     		sxth	r3, r3
  99 0068 9A1F     		subs	r2, r3, #6
 100 006a 019B     		ldr	r3, [sp, #4]
 101 006c 1B8E     		ldrh	r3, [r3, #48]
 102 006e 1BB2     		sxth	r3, r3
 103 0070 D31A     		subs	r3, r2, r3
 104 0072 019A     		ldr	r2, [sp, #4]
 105 0074 916B     		ldr	r1, [r2, #56]
 106 0076 019A     		ldr	r2, [sp, #4]
 107 0078 526B     		ldr	r2, [r2, #52]
 108 007a 8A1A     		subs	r2, r1, r2
 109 007c 02FB03F2 		mul	r2, r2, r3
 110 0080 039B     		ldr	r3, [sp, #12]
 111 0082 1A44     		add	r2, r2, r3
 112 0084 019B     		ldr	r3, [sp, #4]
 113 0086 5B8A     		ldrh	r3, [r3, #18]
 114 0088 1BB2     		sxth	r3, r3
ARM GAS  /tmp/cc57xKLi.s 			page 3


 115 008a 0B3B     		subs	r3, r3, #11
 116 008c 92FBF3F2 		sdiv	r2, r2, r3
 117 0090 019B     		ldr	r3, [sp, #4]
 118 0092 5B6B     		ldr	r3, [r3, #52]
 119 0094 1344     		add	r3, r3, r2
 120 0096 3CE0     		b	.L4
 121              	.L2:
 122              		.loc 1 36 0
 123 0098 019B     		ldr	r3, [sp, #4]
 124 009a 1B8E     		ldrh	r3, [r3, #48]
 125 009c 1AB2     		sxth	r2, r3
 126 009e 019B     		ldr	r3, [sp, #4]
 127 00a0 1B8A     		ldrh	r3, [r3, #16]
 128 00a2 1BB2     		sxth	r3, r3
 129 00a4 053B     		subs	r3, r3, #5
 130 00a6 9A42     		cmp	r2, r3
 131 00a8 02DB     		blt	.L7
 132              		.loc 1 37 0
 133 00aa 019B     		ldr	r3, [sp, #4]
 134 00ac 9B6B     		ldr	r3, [r3, #56]
 135 00ae 30E0     		b	.L4
 136              	.L7:
 137              		.loc 1 38 0
 138 00b0 019B     		ldr	r3, [sp, #4]
 139 00b2 1B8E     		ldrh	r3, [r3, #48]
 140 00b4 1BB2     		sxth	r3, r3
 141 00b6 042B     		cmp	r3, #4
 142 00b8 02DC     		bgt	.L8
 143              		.loc 1 39 0
 144 00ba 019B     		ldr	r3, [sp, #4]
 145 00bc 5B6B     		ldr	r3, [r3, #52]
 146 00be 28E0     		b	.L4
 147              	.L8:
 148              		.loc 1 40 0
 149 00c0 019B     		ldr	r3, [sp, #4]
 150 00c2 1B8A     		ldrh	r3, [r3, #16]
 151 00c4 1BB2     		sxth	r3, r3
 152 00c6 DA0F     		lsrs	r2, r3, #31
 153 00c8 1344     		add	r3, r3, r2
 154 00ca 5B10     		asrs	r3, r3, #1
 155 00cc 9BB2     		uxth	r3, r3
 156 00ce 1BB2     		sxth	r3, r3
 157 00d0 053B     		subs	r3, r3, #5
 158 00d2 0393     		str	r3, [sp, #12]
 159              		.loc 1 41 0
 160 00d4 019B     		ldr	r3, [sp, #4]
 161 00d6 5A6B     		ldr	r2, [r3, #52]
 162 00d8 019B     		ldr	r3, [sp, #4]
 163 00da 9B6B     		ldr	r3, [r3, #56]
 164 00dc 9A42     		cmp	r2, r3
 165 00de 02DD     		ble	.L9
 166              		.loc 1 42 0
 167 00e0 039B     		ldr	r3, [sp, #12]
 168 00e2 5B42     		negs	r3, r3
 169 00e4 0393     		str	r3, [sp, #12]
 170              	.L9:
 171              		.loc 1 43 0
ARM GAS  /tmp/cc57xKLi.s 			page 4


 172 00e6 019B     		ldr	r3, [sp, #4]
 173 00e8 1B8E     		ldrh	r3, [r3, #48]
 174 00ea 1BB2     		sxth	r3, r3
 175 00ec 053B     		subs	r3, r3, #5
 176 00ee 019A     		ldr	r2, [sp, #4]
 177 00f0 916B     		ldr	r1, [r2, #56]
 178 00f2 019A     		ldr	r2, [sp, #4]
 179 00f4 526B     		ldr	r2, [r2, #52]
 180 00f6 8A1A     		subs	r2, r1, r2
 181 00f8 02FB03F2 		mul	r2, r2, r3
 182 00fc 039B     		ldr	r3, [sp, #12]
 183 00fe 1A44     		add	r2, r2, r3
 184 0100 019B     		ldr	r3, [sp, #4]
 185 0102 1B8A     		ldrh	r3, [r3, #16]
 186 0104 1BB2     		sxth	r3, r3
 187 0106 0B3B     		subs	r3, r3, #11
 188 0108 92FBF3F2 		sdiv	r2, r2, r3
 189 010c 019B     		ldr	r3, [sp, #4]
 190 010e 5B6B     		ldr	r3, [r3, #52]
 191 0110 1344     		add	r3, r3, r2
 192              	.L4:
 193              		.loc 1 44 0
 194 0112 1846     		mov	r0, r3
 195 0114 04B0     		add	sp, sp, #16
 196              		.cfi_def_cfa_offset 0
 197              		@ sp needed
 198 0116 7047     		bx	lr
 199              		.cfi_endproc
 200              	.LFE111:
 201              		.size	CalculatePosFromDPos, .-CalculatePosFromDPos
 202 0118 AFF30080 		.section	.text.SendSliderEvent,"ax",%progbits
 202      AFF30080 
 203              		.align	2
 204              		.p2align 4,,15
 205              		.thumb
 206              		.thumb_func
 207              		.type	SendSliderEvent, %function
 208              	SendSliderEvent:
 209              	.LFB112:
 210              		.loc 1 47 0
 211              		.cfi_startproc
 212              		@ args = 0, pretend = 0, frame = 16
 213              		@ frame_needed = 0, uses_anonymous_args = 0
 214 0000 00B5     		push	{lr}
 215              		.cfi_def_cfa_offset 4
 216              		.cfi_offset 14, -4
 217 0002 85B0     		sub	sp, sp, #20
 218              		.cfi_def_cfa_offset 24
 219 0004 0190     		str	r0, [sp, #4]
 220 0006 0B46     		mov	r3, r1
 221 0008 8DF80330 		strb	r3, [sp, #3]
 222              		.loc 1 53 0
 223 000c 9DF80330 		ldrb	r3, [sp, #3]	@ zero_extendqisi2
 224 0010 042B     		cmp	r3, #4
 225 0012 06D0     		beq	.L11
 226              		.loc 1 53 0 is_stmt 0 discriminator 1
 227 0014 019B     		ldr	r3, [sp, #4]
ARM GAS  /tmp/cc57xKLi.s 			page 5


 228 0016 9B69     		ldr	r3, [r3, #24]
 229 0018 03F00103 		and	r3, r3, #1
 230 001c 002B     		cmp	r3, #0
 231 001e 00D1     		bne	.L11
 232              		.loc 1 54 0 is_stmt 1
 233 0020 3BE0     		b	.L10
 234              	.L11:
 235              		.loc 1 56 0
 236 0022 0023     		movs	r3, #0
 237 0024 0393     		str	r3, [sp, #12]
 238              		.loc 1 57 0
 239 0026 30E0     		b	.L13
 240              	.L18:
 241              		.loc 1 61 0
 242 0028 039B     		ldr	r3, [sp, #12]
 243 002a DA68     		ldr	r2, [r3, #12]
 244 002c 9DF80330 		ldrb	r3, [sp, #3]	@ zero_extendqisi2
 245 0030 9A42     		cmp	r2, r3
 246 0032 03D2     		bcs	.L14
 247              		.loc 1 62 0
 248 0034 9DF80320 		ldrb	r2, [sp, #3]	@ zero_extendqisi2
 249 0038 039B     		ldr	r3, [sp, #12]
 250 003a DA60     		str	r2, [r3, #12]
 251              	.L14:
 252              		.loc 1 65 0
 253 003c 0398     		ldr	r0, [sp, #12]
 254 003e FFF7FEFF 		bl	geventGetEventBuffer
 255 0042 0290     		str	r0, [sp, #8]
 256 0044 029B     		ldr	r3, [sp, #8]
 257 0046 002B     		cmp	r3, #0
 258 0048 00D1     		bne	.L15
 259              		.loc 1 66 0
 260 004a 1EE0     		b	.L13
 261              	.L15:
 262              		.loc 1 69 0
 263 004c 029B     		ldr	r3, [sp, #8]
 264 004e 40F24122 		movw	r2, #577
 265 0052 1A80     		strh	r2, [r3]	@ movhi
 266              		.loc 1 70 0
 267 0054 029B     		ldr	r3, [sp, #8]
 268 0056 019A     		ldr	r2, [sp, #4]
 269 0058 5A60     		str	r2, [r3, #4]
 270              		.loc 1 71 0
 271 005a 039B     		ldr	r3, [sp, #12]
 272 005c DB68     		ldr	r3, [r3, #12]
 273 005e DAB2     		uxtb	r2, r3
 274 0060 029B     		ldr	r3, [sp, #8]
 275 0062 1A73     		strb	r2, [r3, #12]
 276              		.loc 1 77 0
 277 0064 029B     		ldr	r3, [sp, #8]
 278 0066 1B7B     		ldrb	r3, [r3, #12]	@ zero_extendqisi2
 279 0068 022B     		cmp	r3, #2
 280 006a 02D9     		bls	.L16
 281              		.loc 1 77 0 is_stmt 0 discriminator 1
 282 006c 019B     		ldr	r3, [sp, #4]
 283 006e DB6B     		ldr	r3, [r3, #60]
 284 0070 03E0     		b	.L17
ARM GAS  /tmp/cc57xKLi.s 			page 6


 285              	.L16:
 286              		.loc 1 77 0 discriminator 2
 287 0072 0198     		ldr	r0, [sp, #4]
 288 0074 FFF7FEFF 		bl	CalculatePosFromDPos
 289 0078 0346     		mov	r3, r0
 290              	.L17:
 291              		.loc 1 77 0 discriminator 4
 292 007a 029A     		ldr	r2, [sp, #8]
 293 007c 9360     		str	r3, [r2, #8]
 294              		.loc 1 80 0 is_stmt 1 discriminator 4
 295 007e 039B     		ldr	r3, [sp, #12]
 296 0080 0022     		movs	r2, #0
 297 0082 DA60     		str	r2, [r3, #12]
 298              		.loc 1 81 0 discriminator 4
 299 0084 0398     		ldr	r0, [sp, #12]
 300 0086 FFF7FEFF 		bl	geventSendEvent
 301              	.L13:
 302              		.loc 1 57 0
 303 008a 0548     		ldr	r0, .L19
 304 008c 0399     		ldr	r1, [sp, #12]
 305 008e FFF7FEFF 		bl	geventGetSourceListener
 306 0092 0390     		str	r0, [sp, #12]
 307 0094 039B     		ldr	r3, [sp, #12]
 308 0096 002B     		cmp	r3, #0
 309 0098 C6D1     		bne	.L18
 310              	.L10:
 311              		.loc 1 85 0
 312 009a 05B0     		add	sp, sp, #20
 313              		.cfi_def_cfa_offset 4
 314              		@ sp needed
 315 009c 5DF804FB 		ldr	pc, [sp], #4
 316              	.L20:
 317              		.align	2
 318              	.L19:
 319 00a0 00000000 		.word	_gwidgetCreate
 320              		.cfi_endproc
 321              	.LFE112:
 322              		.size	SendSliderEvent, .-SendSliderEvent
 323 00a4 AFF30080 		.section	.text.ResetDisplayPos,"ax",%progbits
 323      AFF30080 
 323      AFF30080 
 324              		.align	2
 325              		.p2align 4,,15
 326              		.thumb
 327              		.thumb_func
 328              		.type	ResetDisplayPos, %function
 329              	ResetDisplayPos:
 330              	.LFB113:
 331              		.loc 1 88 0
 332              		.cfi_startproc
 333              		@ args = 0, pretend = 0, frame = 8
 334              		@ frame_needed = 0, uses_anonymous_args = 0
 335              		@ link register save eliminated.
 336 0000 82B0     		sub	sp, sp, #8
 337              		.cfi_def_cfa_offset 8
 338 0002 0190     		str	r0, [sp, #4]
 339              		.loc 1 89 0
ARM GAS  /tmp/cc57xKLi.s 			page 7


 340 0004 019B     		ldr	r3, [sp, #4]
 341 0006 1A8A     		ldrh	r2, [r3, #16]
 342 0008 019B     		ldr	r3, [sp, #4]
 343 000a 5B8A     		ldrh	r3, [r3, #18]
 344 000c 12B2     		sxth	r2, r2
 345 000e 1BB2     		sxth	r3, r3
 346 0010 9A42     		cmp	r2, r3
 347 0012 1DDA     		bge	.L22
 348              		.loc 1 90 0
 349 0014 019B     		ldr	r3, [sp, #4]
 350 0016 5B8A     		ldrh	r3, [r3, #18]
 351 0018 9AB2     		uxth	r2, r3
 352 001a 019B     		ldr	r3, [sp, #4]
 353 001c 5B8A     		ldrh	r3, [r3, #18]
 354 001e 1BB2     		sxth	r3, r3
 355 0020 013B     		subs	r3, r3, #1
 356 0022 0199     		ldr	r1, [sp, #4]
 357 0024 C86B     		ldr	r0, [r1, #60]
 358 0026 0199     		ldr	r1, [sp, #4]
 359 0028 496B     		ldr	r1, [r1, #52]
 360 002a 411A     		subs	r1, r0, r1
 361 002c 01FB03F1 		mul	r1, r1, r3
 362 0030 019B     		ldr	r3, [sp, #4]
 363 0032 986B     		ldr	r0, [r3, #56]
 364 0034 019B     		ldr	r3, [sp, #4]
 365 0036 5B6B     		ldr	r3, [r3, #52]
 366 0038 C31A     		subs	r3, r0, r3
 367 003a 91FBF3F3 		sdiv	r3, r1, r3
 368 003e 9BB2     		uxth	r3, r3
 369 0040 D31A     		subs	r3, r2, r3
 370 0042 9BB2     		uxth	r3, r3
 371 0044 013B     		subs	r3, r3, #1
 372 0046 9BB2     		uxth	r3, r3
 373 0048 9AB2     		uxth	r2, r3
 374 004a 019B     		ldr	r3, [sp, #4]
 375 004c 1A86     		strh	r2, [r3, #48]	@ movhi
 376 004e 14E0     		b	.L21
 377              	.L22:
 378              		.loc 1 92 0
 379 0050 019B     		ldr	r3, [sp, #4]
 380 0052 1B8A     		ldrh	r3, [r3, #16]
 381 0054 1BB2     		sxth	r3, r3
 382 0056 013B     		subs	r3, r3, #1
 383 0058 019A     		ldr	r2, [sp, #4]
 384 005a D16B     		ldr	r1, [r2, #60]
 385 005c 019A     		ldr	r2, [sp, #4]
 386 005e 526B     		ldr	r2, [r2, #52]
 387 0060 8A1A     		subs	r2, r1, r2
 388 0062 02FB03F2 		mul	r2, r2, r3
 389 0066 019B     		ldr	r3, [sp, #4]
 390 0068 996B     		ldr	r1, [r3, #56]
 391 006a 019B     		ldr	r3, [sp, #4]
 392 006c 5B6B     		ldr	r3, [r3, #52]
 393 006e CB1A     		subs	r3, r1, r3
 394 0070 92FBF3F3 		sdiv	r3, r2, r3
 395 0074 9AB2     		uxth	r2, r3
 396 0076 019B     		ldr	r3, [sp, #4]
ARM GAS  /tmp/cc57xKLi.s 			page 8


 397 0078 1A86     		strh	r2, [r3, #48]	@ movhi
 398              	.L21:
 399              		.loc 1 93 0
 400 007a 02B0     		add	sp, sp, #8
 401              		.cfi_def_cfa_offset 0
 402              		@ sp needed
 403 007c 7047     		bx	lr
 404              		.cfi_endproc
 405              	.LFE113:
 406              		.size	ResetDisplayPos, .-ResetDisplayPos
 407 007e 00BF     		.section	.text.SetDisplayPosFromMouse,"ax",%progbits
 408              		.align	2
 409              		.p2align 4,,15
 410              		.thumb
 411              		.thumb_func
 412              		.type	SetDisplayPosFromMouse, %function
 413              	SetDisplayPosFromMouse:
 414              	.LFB114:
 415              		.loc 1 97 0
 416              		.cfi_startproc
 417              		@ args = 0, pretend = 0, frame = 8
 418              		@ frame_needed = 0, uses_anonymous_args = 0
 419              		@ link register save eliminated.
 420 0000 82B0     		sub	sp, sp, #8
 421              		.cfi_def_cfa_offset 8
 422 0002 0190     		str	r0, [sp, #4]
 423 0004 0B46     		mov	r3, r1
 424 0006 ADF80230 		strh	r3, [sp, #2]	@ movhi
 425 000a 1346     		mov	r3, r2	@ movhi
 426 000c ADF80030 		strh	r3, [sp]	@ movhi
 427              		.loc 1 98 0
 428 0010 019B     		ldr	r3, [sp, #4]
 429 0012 1A8A     		ldrh	r2, [r3, #16]
 430 0014 019B     		ldr	r3, [sp, #4]
 431 0016 5B8A     		ldrh	r3, [r3, #18]
 432 0018 12B2     		sxth	r2, r2
 433 001a 1BB2     		sxth	r3, r3
 434 001c 9A42     		cmp	r2, r3
 435 001e 19DA     		bge	.L25
 436              		.loc 1 99 0
 437 0020 BDF90030 		ldrsh	r3, [sp]
 438 0024 002B     		cmp	r3, #0
 439 0026 11DB     		blt	.L26
 440              		.loc 1 99 0 is_stmt 0 discriminator 1
 441 0028 019B     		ldr	r3, [sp, #4]
 442 002a 5B8A     		ldrh	r3, [r3, #18]
 443 002c BDF90020 		ldrsh	r2, [sp]
 444 0030 1BB2     		sxth	r3, r3
 445 0032 9A42     		cmp	r2, r3
 446 0034 06DB     		blt	.L27
 447              		.loc 1 99 0 discriminator 3
 448 0036 019B     		ldr	r3, [sp, #4]
 449 0038 5B8A     		ldrh	r3, [r3, #18]
 450 003a 9BB2     		uxth	r3, r3
 451 003c 013B     		subs	r3, r3, #1
 452 003e 9BB2     		uxth	r3, r3
 453 0040 9BB2     		uxth	r3, r3
ARM GAS  /tmp/cc57xKLi.s 			page 9


 454 0042 01E0     		b	.L28
 455              	.L27:
 456              		.loc 1 99 0 discriminator 4
 457 0044 BDF80030 		ldrh	r3, [sp]
 458              	.L28:
 459              		.loc 1 99 0 discriminator 6
 460 0048 9BB2     		uxth	r3, r3
 461 004a 00E0     		b	.L29
 462              	.L26:
 463              		.loc 1 99 0 discriminator 2
 464 004c 0023     		movs	r3, #0
 465              	.L29:
 466              		.loc 1 99 0 discriminator 8
 467 004e 019A     		ldr	r2, [sp, #4]
 468 0050 1386     		strh	r3, [r2, #48]	@ movhi
 469 0052 18E0     		b	.L24
 470              	.L25:
 471              		.loc 1 101 0 is_stmt 1
 472 0054 BDF90230 		ldrsh	r3, [sp, #2]
 473 0058 002B     		cmp	r3, #0
 474 005a 11DB     		blt	.L31
 475              		.loc 1 101 0 is_stmt 0 discriminator 1
 476 005c 019B     		ldr	r3, [sp, #4]
 477 005e 1B8A     		ldrh	r3, [r3, #16]
 478 0060 BDF90220 		ldrsh	r2, [sp, #2]
 479 0064 1BB2     		sxth	r3, r3
 480 0066 9A42     		cmp	r2, r3
 481 0068 06DB     		blt	.L32
 482              		.loc 1 101 0 discriminator 3
 483 006a 019B     		ldr	r3, [sp, #4]
 484 006c 1B8A     		ldrh	r3, [r3, #16]
 485 006e 9BB2     		uxth	r3, r3
 486 0070 013B     		subs	r3, r3, #1
 487 0072 9BB2     		uxth	r3, r3
 488 0074 9BB2     		uxth	r3, r3
 489 0076 01E0     		b	.L33
 490              	.L32:
 491              		.loc 1 101 0 discriminator 4
 492 0078 BDF80230 		ldrh	r3, [sp, #2]
 493              	.L33:
 494              		.loc 1 101 0 discriminator 6
 495 007c 9BB2     		uxth	r3, r3
 496 007e 00E0     		b	.L34
 497              	.L31:
 498              		.loc 1 101 0 discriminator 2
 499 0080 0023     		movs	r3, #0
 500              	.L34:
 501              		.loc 1 101 0 discriminator 8
 502 0082 019A     		ldr	r2, [sp, #4]
 503 0084 1386     		strh	r3, [r2, #48]	@ movhi
 504              	.L24:
 505              		.loc 1 102 0 is_stmt 1
 506 0086 02B0     		add	sp, sp, #8
 507              		.cfi_def_cfa_offset 0
 508              		@ sp needed
 509 0088 7047     		bx	lr
 510              		.cfi_endproc
ARM GAS  /tmp/cc57xKLi.s 			page 10


 511              	.LFE114:
 512              		.size	SetDisplayPosFromMouse, .-SetDisplayPosFromMouse
 513 008a 00BFAFF3 		.section	.text.MouseUp,"ax",%progbits
 513      0080
 514              		.align	2
 515              		.p2align 4,,15
 516              		.thumb
 517              		.thumb_func
 518              		.type	MouseUp, %function
 519              	MouseUp:
 520              	.LFB115:
 521              		.loc 1 105 0
 522              		.cfi_startproc
 523              		@ args = 0, pretend = 0, frame = 8
 524              		@ frame_needed = 0, uses_anonymous_args = 0
 525 0000 00B5     		push	{lr}
 526              		.cfi_def_cfa_offset 4
 527              		.cfi_offset 14, -4
 528 0002 83B0     		sub	sp, sp, #12
 529              		.cfi_def_cfa_offset 16
 530 0004 0190     		str	r0, [sp, #4]
 531 0006 0B46     		mov	r3, r1
 532 0008 ADF80230 		strh	r3, [sp, #2]	@ movhi
 533 000c 1346     		mov	r3, r2	@ movhi
 534 000e ADF80030 		strh	r3, [sp]	@ movhi
 535              		.loc 1 120 0
 536 0012 BDF90220 		ldrsh	r2, [sp, #2]
 537 0016 BDF90030 		ldrsh	r3, [sp]
 538 001a 0198     		ldr	r0, [sp, #4]
 539 001c 1146     		mov	r1, r2
 540 001e 1A46     		mov	r2, r3
 541 0020 FFF7FEFF 		bl	SetDisplayPosFromMouse
 542              		.loc 1 121 0
 543 0024 0198     		ldr	r0, [sp, #4]
 544 0026 FFF7FEFF 		bl	CalculatePosFromDPos
 545 002a 0246     		mov	r2, r0
 546 002c 019B     		ldr	r3, [sp, #4]
 547 002e DA63     		str	r2, [r3, #60]
 548              		.loc 1 138 0
 549 0030 0198     		ldr	r0, [sp, #4]
 550 0032 FFF7FEFF 		bl	ResetDisplayPos
 551              		.loc 1 140 0
 552 0036 019B     		ldr	r3, [sp, #4]
 553 0038 1846     		mov	r0, r3
 554 003a FFF7FEFF 		bl	_gwinUpdate
 555              		.loc 1 143 0
 556 003e 0198     		ldr	r0, [sp, #4]
 557 0040 0421     		movs	r1, #4
 558 0042 FFF7FEFF 		bl	SendSliderEvent
 559              		.loc 1 146 0
 560 0046 03B0     		add	sp, sp, #12
 561              		.cfi_def_cfa_offset 4
 562              		@ sp needed
 563 0048 5DF804FB 		ldr	pc, [sp], #4
 564              		.cfi_endproc
 565              	.LFE115:
 566              		.size	MouseUp, .-MouseUp
ARM GAS  /tmp/cc57xKLi.s 			page 11


 567 004c AFF30080 		.section	.text.MouseDown,"ax",%progbits
 568              		.align	2
 569              		.p2align 4,,15
 570              		.thumb
 571              		.thumb_func
 572              		.type	MouseDown, %function
 573              	MouseDown:
 574              	.LFB116:
 575              		.loc 1 149 0
 576              		.cfi_startproc
 577              		@ args = 0, pretend = 0, frame = 8
 578              		@ frame_needed = 0, uses_anonymous_args = 0
 579 0000 00B5     		push	{lr}
 580              		.cfi_def_cfa_offset 4
 581              		.cfi_offset 14, -4
 582 0002 83B0     		sub	sp, sp, #12
 583              		.cfi_def_cfa_offset 16
 584 0004 0190     		str	r0, [sp, #4]
 585 0006 0B46     		mov	r3, r1
 586 0008 ADF80230 		strh	r3, [sp, #2]	@ movhi
 587 000c 1346     		mov	r3, r2	@ movhi
 588 000e ADF80030 		strh	r3, [sp]	@ movhi
 589              		.loc 1 153 0
 590 0012 BDF90220 		ldrsh	r2, [sp, #2]
 591 0016 BDF90030 		ldrsh	r3, [sp]
 592 001a 0198     		ldr	r0, [sp, #4]
 593 001c 1146     		mov	r1, r2
 594 001e 1A46     		mov	r2, r3
 595 0020 FFF7FEFF 		bl	SetDisplayPosFromMouse
 596              		.loc 1 156 0
 597 0024 019B     		ldr	r3, [sp, #4]
 598 0026 1846     		mov	r0, r3
 599 0028 FFF7FEFF 		bl	_gwinUpdate
 600              		.loc 1 159 0
 601 002c 0198     		ldr	r0, [sp, #4]
 602 002e 0221     		movs	r1, #2
 603 0030 FFF7FEFF 		bl	SendSliderEvent
 604              		.loc 1 162 0
 605 0034 03B0     		add	sp, sp, #12
 606              		.cfi_def_cfa_offset 4
 607              		@ sp needed
 608 0036 5DF804FB 		ldr	pc, [sp], #4
 609              		.cfi_endproc
 610              	.LFE116:
 611              		.size	MouseDown, .-MouseDown
 612 003a 00BFAFF3 		.section	.text.MouseMove,"ax",%progbits
 612      0080
 613              		.align	2
 614              		.p2align 4,,15
 615              		.thumb
 616              		.thumb_func
 617              		.type	MouseMove, %function
 618              	MouseMove:
 619              	.LFB117:
 620              		.loc 1 165 0
 621              		.cfi_startproc
 622              		@ args = 0, pretend = 0, frame = 8
ARM GAS  /tmp/cc57xKLi.s 			page 12


 623              		@ frame_needed = 0, uses_anonymous_args = 0
 624 0000 00B5     		push	{lr}
 625              		.cfi_def_cfa_offset 4
 626              		.cfi_offset 14, -4
 627 0002 83B0     		sub	sp, sp, #12
 628              		.cfi_def_cfa_offset 16
 629 0004 0190     		str	r0, [sp, #4]
 630 0006 0B46     		mov	r3, r1
 631 0008 ADF80230 		strh	r3, [sp, #2]	@ movhi
 632 000c 1346     		mov	r3, r2	@ movhi
 633 000e ADF80030 		strh	r3, [sp]	@ movhi
 634              		.loc 1 169 0
 635 0012 BDF90220 		ldrsh	r2, [sp, #2]
 636 0016 BDF90030 		ldrsh	r3, [sp]
 637 001a 0198     		ldr	r0, [sp, #4]
 638 001c 1146     		mov	r1, r2
 639 001e 1A46     		mov	r2, r3
 640 0020 FFF7FEFF 		bl	SetDisplayPosFromMouse
 641              		.loc 1 172 0
 642 0024 019B     		ldr	r3, [sp, #4]
 643 0026 1846     		mov	r0, r3
 644 0028 FFF7FEFF 		bl	_gwinUpdate
 645              		.loc 1 175 0
 646 002c 0198     		ldr	r0, [sp, #4]
 647 002e 0121     		movs	r1, #1
 648 0030 FFF7FEFF 		bl	SendSliderEvent
 649              		.loc 1 178 0
 650 0034 03B0     		add	sp, sp, #12
 651              		.cfi_def_cfa_offset 4
 652              		@ sp needed
 653 0036 5DF804FB 		ldr	pc, [sp], #4
 654              		.cfi_endproc
 655              	.LFE117:
 656              		.size	MouseMove, .-MouseMove
 657 003a 00BFAFF3 		.section	.rodata
 657      0080
 658              		.align	2
 659              	.LC0:
 660 0000 536C6964 		.ascii	"Slider\000"
 660      657200
 661 0007 00       		.section	.rodata.sliderVMT,"a",%progbits
 662              		.align	2
 663              		.type	sliderVMT, %object
 664              		.size	sliderVMT, 36
 665              	sliderVMT:
 666 0000 00000000 		.word	.LC0
 667 0004 40000000 		.word	64
 668 0008 00000000 		.word	_gwidgetDestroy
 669 000c 00000000 		.word	_gwidgetRedraw
 670 0010 00000000 		.word	0
 671 0014 00000000 		.word	gwinSliderDraw_Std
 672 0018 00000000 		.word	MouseDown
 673 001c 00000000 		.word	MouseUp
 674 0020 00000000 		.word	MouseMove
 675              		.section	.text.gwinGSliderCreate,"ax",%progbits
 676              		.align	2
 677              		.p2align 4,,15
ARM GAS  /tmp/cc57xKLi.s 			page 13


 678              		.global	gwinGSliderCreate
 679              		.thumb
 680              		.thumb_func
 681              		.type	gwinGSliderCreate, %function
 682              	gwinGSliderCreate:
 683              	.LFB118:
 684              		.loc 1 272 0
 685              		.cfi_startproc
 686              		@ args = 0, pretend = 0, frame = 16
 687              		@ frame_needed = 0, uses_anonymous_args = 0
 688 0000 00B5     		push	{lr}
 689              		.cfi_def_cfa_offset 4
 690              		.cfi_offset 14, -4
 691 0002 85B0     		sub	sp, sp, #20
 692              		.cfi_def_cfa_offset 24
 693 0004 0390     		str	r0, [sp, #12]
 694 0006 0291     		str	r1, [sp, #8]
 695 0008 0192     		str	r2, [sp, #4]
 696              		.loc 1 273 0
 697 000a 029B     		ldr	r3, [sp, #8]
 698 000c 0398     		ldr	r0, [sp, #12]
 699 000e 1946     		mov	r1, r3
 700 0010 019A     		ldr	r2, [sp, #4]
 701 0012 104B     		ldr	r3, .L41
 702 0014 FFF7FEFF 		bl	_gwidgetCreate
 703 0018 0290     		str	r0, [sp, #8]
 704 001a 029B     		ldr	r3, [sp, #8]
 705 001c 002B     		cmp	r3, #0
 706 001e 01D1     		bne	.L39
 707              		.loc 1 274 0
 708 0020 0023     		movs	r3, #0
 709 0022 12E0     		b	.L40
 710              	.L39:
 711              		.loc 1 282 0
 712 0024 029B     		ldr	r3, [sp, #8]
 713 0026 0022     		movs	r2, #0
 714 0028 5A63     		str	r2, [r3, #52]
 715              		.loc 1 283 0
 716 002a 029B     		ldr	r3, [sp, #8]
 717 002c 6422     		movs	r2, #100
 718 002e 9A63     		str	r2, [r3, #56]
 719              		.loc 1 284 0
 720 0030 029B     		ldr	r3, [sp, #8]
 721 0032 0022     		movs	r2, #0
 722 0034 DA63     		str	r2, [r3, #60]
 723              		.loc 1 285 0
 724 0036 0298     		ldr	r0, [sp, #8]
 725 0038 FFF7FEFF 		bl	ResetDisplayPos
 726              		.loc 1 286 0
 727 003c 019B     		ldr	r3, [sp, #4]
 728 003e 1B7A     		ldrb	r3, [r3, #8]	@ zero_extendqisi2
 729 0040 0298     		ldr	r0, [sp, #8]
 730 0042 1946     		mov	r1, r3
 731 0044 FFF7FEFF 		bl	gwinSetVisible
 732              		.loc 1 287 0
 733 0048 029B     		ldr	r3, [sp, #8]
 734              	.L40:
ARM GAS  /tmp/cc57xKLi.s 			page 14


 735              		.loc 1 288 0
 736 004a 1846     		mov	r0, r3
 737 004c 05B0     		add	sp, sp, #20
 738              		.cfi_def_cfa_offset 4
 739              		@ sp needed
 740 004e 5DF804FB 		ldr	pc, [sp], #4
 741              	.L42:
 742 0052 00BF     		.align	2
 743              	.L41:
 744 0054 00000000 		.word	sliderVMT
 745              		.cfi_endproc
 746              	.LFE118:
 747              		.size	gwinGSliderCreate, .-gwinGSliderCreate
 748 0058 AFF30080 		.section	.text.gwinSliderSetRange,"ax",%progbits
 748      AFF30080 
 749              		.align	2
 750              		.p2align 4,,15
 751              		.global	gwinSliderSetRange
 752              		.thumb
 753              		.thumb_func
 754              		.type	gwinSliderSetRange, %function
 755              	gwinSliderSetRange:
 756              	.LFB119:
 757              		.loc 1 290 0
 758              		.cfi_startproc
 759              		@ args = 0, pretend = 0, frame = 16
 760              		@ frame_needed = 0, uses_anonymous_args = 0
 761 0000 00B5     		push	{lr}
 762              		.cfi_def_cfa_offset 4
 763              		.cfi_offset 14, -4
 764 0002 85B0     		sub	sp, sp, #20
 765              		.cfi_def_cfa_offset 24
 766 0004 0390     		str	r0, [sp, #12]
 767 0006 0291     		str	r1, [sp, #8]
 768 0008 0192     		str	r2, [sp, #4]
 769              		.loc 1 293 0
 770 000a 039B     		ldr	r3, [sp, #12]
 771 000c 5B68     		ldr	r3, [r3, #4]
 772 000e 0D4A     		ldr	r2, .L47
 773 0010 9342     		cmp	r3, r2
 774 0012 00D0     		beq	.L44
 775              		.loc 1 294 0
 776 0014 12E0     		b	.L43
 777              	.L44:
 778              		.loc 1 296 0
 779 0016 029A     		ldr	r2, [sp, #8]
 780 0018 019B     		ldr	r3, [sp, #4]
 781 001a 9A42     		cmp	r2, r3
 782 001c 02D1     		bne	.L46
 783              		.loc 1 297 0
 784 001e 019B     		ldr	r3, [sp, #4]
 785 0020 0133     		adds	r3, r3, #1
 786 0022 0193     		str	r3, [sp, #4]
 787              	.L46:
 788              		.loc 1 298 0
 789 0024 039B     		ldr	r3, [sp, #12]
 790 0026 029A     		ldr	r2, [sp, #8]
ARM GAS  /tmp/cc57xKLi.s 			page 15


 791 0028 5A63     		str	r2, [r3, #52]
 792              		.loc 1 299 0
 793 002a 039B     		ldr	r3, [sp, #12]
 794 002c 019A     		ldr	r2, [sp, #4]
 795 002e 9A63     		str	r2, [r3, #56]
 796              		.loc 1 300 0
 797 0030 039B     		ldr	r3, [sp, #12]
 798 0032 029A     		ldr	r2, [sp, #8]
 799 0034 DA63     		str	r2, [r3, #60]
 800              		.loc 1 301 0
 801 0036 0398     		ldr	r0, [sp, #12]
 802 0038 FFF7FEFF 		bl	ResetDisplayPos
 803              	.L43:
 804              		.loc 1 303 0
 805 003c 05B0     		add	sp, sp, #20
 806              		.cfi_def_cfa_offset 4
 807              		@ sp needed
 808 003e 5DF804FB 		ldr	pc, [sp], #4
 809              	.L48:
 810 0042 00BF     		.align	2
 811              	.L47:
 812 0044 00000000 		.word	sliderVMT
 813              		.cfi_endproc
 814              	.LFE119:
 815              		.size	gwinSliderSetRange, .-gwinSliderSetRange
 816 0048 AFF30080 		.section	.text.gwinSliderSetPosition,"ax",%progbits
 816      AFF30080 
 817              		.align	2
 818              		.p2align 4,,15
 819              		.global	gwinSliderSetPosition
 820              		.thumb
 821              		.thumb_func
 822              		.type	gwinSliderSetPosition, %function
 823              	gwinSliderSetPosition:
 824              	.LFB120:
 825              		.loc 1 305 0
 826              		.cfi_startproc
 827              		@ args = 0, pretend = 0, frame = 8
 828              		@ frame_needed = 0, uses_anonymous_args = 0
 829 0000 00B5     		push	{lr}
 830              		.cfi_def_cfa_offset 4
 831              		.cfi_offset 14, -4
 832 0002 83B0     		sub	sp, sp, #12
 833              		.cfi_def_cfa_offset 16
 834 0004 0190     		str	r0, [sp, #4]
 835 0006 0091     		str	r1, [sp]
 836              		.loc 1 308 0
 837 0008 019B     		ldr	r3, [sp, #4]
 838 000a 5B68     		ldr	r3, [r3, #4]
 839 000c 204A     		ldr	r2, .L59
 840 000e 9342     		cmp	r3, r2
 841 0010 00D0     		beq	.L50
 842              		.loc 1 309 0
 843 0012 3AE0     		b	.L49
 844              	.L50:
 845              		.loc 1 311 0
 846 0014 019B     		ldr	r3, [sp, #4]
ARM GAS  /tmp/cc57xKLi.s 			page 16


 847 0016 5A6B     		ldr	r2, [r3, #52]
 848 0018 019B     		ldr	r3, [sp, #4]
 849 001a 9B6B     		ldr	r3, [r3, #56]
 850 001c 9A42     		cmp	r2, r3
 851 001e 17DC     		bgt	.L52
 852              		.loc 1 312 0
 853 0020 019B     		ldr	r3, [sp, #4]
 854 0022 5A6B     		ldr	r2, [r3, #52]
 855 0024 009B     		ldr	r3, [sp]
 856 0026 9A42     		cmp	r2, r3
 857 0028 04DD     		ble	.L53
 858              		.loc 1 312 0 is_stmt 0 discriminator 1
 859 002a 019B     		ldr	r3, [sp, #4]
 860 002c 5A6B     		ldr	r2, [r3, #52]
 861 002e 019B     		ldr	r3, [sp, #4]
 862 0030 DA63     		str	r2, [r3, #60]
 863 0032 24E0     		b	.L56
 864              	.L53:
 865              		.loc 1 313 0 is_stmt 1
 866 0034 019B     		ldr	r3, [sp, #4]
 867 0036 9A6B     		ldr	r2, [r3, #56]
 868 0038 009B     		ldr	r3, [sp]
 869 003a 9A42     		cmp	r2, r3
 870 003c 04DA     		bge	.L55
 871              		.loc 1 313 0 is_stmt 0 discriminator 1
 872 003e 019B     		ldr	r3, [sp, #4]
 873 0040 9A6B     		ldr	r2, [r3, #56]
 874 0042 019B     		ldr	r3, [sp, #4]
 875 0044 DA63     		str	r2, [r3, #60]
 876 0046 1AE0     		b	.L56
 877              	.L55:
 878              		.loc 1 314 0 is_stmt 1
 879 0048 019B     		ldr	r3, [sp, #4]
 880 004a 009A     		ldr	r2, [sp]
 881 004c DA63     		str	r2, [r3, #60]
 882 004e 16E0     		b	.L56
 883              	.L52:
 884              		.loc 1 316 0
 885 0050 019B     		ldr	r3, [sp, #4]
 886 0052 5A6B     		ldr	r2, [r3, #52]
 887 0054 009B     		ldr	r3, [sp]
 888 0056 9A42     		cmp	r2, r3
 889 0058 04DA     		bge	.L57
 890              		.loc 1 316 0 is_stmt 0 discriminator 1
 891 005a 019B     		ldr	r3, [sp, #4]
 892 005c 5A6B     		ldr	r2, [r3, #52]
 893 005e 019B     		ldr	r3, [sp, #4]
 894 0060 DA63     		str	r2, [r3, #60]
 895 0062 0CE0     		b	.L56
 896              	.L57:
 897              		.loc 1 317 0 is_stmt 1
 898 0064 019B     		ldr	r3, [sp, #4]
 899 0066 9A6B     		ldr	r2, [r3, #56]
 900 0068 009B     		ldr	r3, [sp]
 901 006a 9A42     		cmp	r2, r3
 902 006c 04DD     		ble	.L58
 903              		.loc 1 317 0 is_stmt 0 discriminator 1
ARM GAS  /tmp/cc57xKLi.s 			page 17


 904 006e 019B     		ldr	r3, [sp, #4]
 905 0070 9A6B     		ldr	r2, [r3, #56]
 906 0072 019B     		ldr	r3, [sp, #4]
 907 0074 DA63     		str	r2, [r3, #60]
 908 0076 02E0     		b	.L56
 909              	.L58:
 910              		.loc 1 318 0 is_stmt 1
 911 0078 019B     		ldr	r3, [sp, #4]
 912 007a 009A     		ldr	r2, [sp]
 913 007c DA63     		str	r2, [r3, #60]
 914              	.L56:
 915              		.loc 1 320 0
 916 007e 0198     		ldr	r0, [sp, #4]
 917 0080 FFF7FEFF 		bl	ResetDisplayPos
 918              		.loc 1 321 0
 919 0084 0198     		ldr	r0, [sp, #4]
 920 0086 FFF7FEFF 		bl	_gwinUpdate
 921              	.L49:
 922              		.loc 1 324 0
 923 008a 03B0     		add	sp, sp, #12
 924              		.cfi_def_cfa_offset 4
 925              		@ sp needed
 926 008c 5DF804FB 		ldr	pc, [sp], #4
 927              	.L60:
 928              		.align	2
 929              	.L59:
 930 0090 00000000 		.word	sliderVMT
 931              		.cfi_endproc
 932              	.LFE120:
 933              		.size	gwinSliderSetPosition, .-gwinSliderSetPosition
 934 0094 AFF30080 		.section	.text.gwinSliderSendExtendedEvents,"ax",%progbits
 934      AFF30080 
 934      AFF30080 
 935              		.align	2
 936              		.p2align 4,,15
 937              		.global	gwinSliderSendExtendedEvents
 938              		.thumb
 939              		.thumb_func
 940              		.type	gwinSliderSendExtendedEvents, %function
 941              	gwinSliderSendExtendedEvents:
 942              	.LFB121:
 943              		.loc 1 326 0
 944              		.cfi_startproc
 945              		@ args = 0, pretend = 0, frame = 8
 946              		@ frame_needed = 0, uses_anonymous_args = 0
 947              		@ link register save eliminated.
 948 0000 82B0     		sub	sp, sp, #8
 949              		.cfi_def_cfa_offset 8
 950 0002 0190     		str	r0, [sp, #4]
 951 0004 0B46     		mov	r3, r1
 952 0006 8DF80330 		strb	r3, [sp, #3]
 953              		.loc 1 327 0
 954 000a 019B     		ldr	r3, [sp, #4]
 955 000c 5B68     		ldr	r3, [r3, #4]
 956 000e 0B4A     		ldr	r2, .L65
 957 0010 9342     		cmp	r3, r2
 958 0012 00D0     		beq	.L62
ARM GAS  /tmp/cc57xKLi.s 			page 18


 959              		.loc 1 328 0
 960 0014 10E0     		b	.L61
 961              	.L62:
 962              		.loc 1 330 0
 963 0016 9DF80330 		ldrb	r3, [sp, #3]	@ zero_extendqisi2
 964 001a 002B     		cmp	r3, #0
 965 001c 06D0     		beq	.L64
 966              		.loc 1 331 0
 967 001e 019B     		ldr	r3, [sp, #4]
 968 0020 9B69     		ldr	r3, [r3, #24]
 969 0022 43F00102 		orr	r2, r3, #1
 970 0026 019B     		ldr	r3, [sp, #4]
 971 0028 9A61     		str	r2, [r3, #24]
 972 002a 05E0     		b	.L61
 973              	.L64:
 974              		.loc 1 333 0
 975 002c 019B     		ldr	r3, [sp, #4]
 976 002e 9B69     		ldr	r3, [r3, #24]
 977 0030 23F00102 		bic	r2, r3, #1
 978 0034 019B     		ldr	r3, [sp, #4]
 979 0036 9A61     		str	r2, [r3, #24]
 980              	.L61:
 981              		.loc 1 334 0
 982 0038 02B0     		add	sp, sp, #8
 983              		.cfi_def_cfa_offset 0
 984              		@ sp needed
 985 003a 7047     		bx	lr
 986              	.L66:
 987              		.align	2
 988              	.L65:
 989 003c 00000000 		.word	sliderVMT
 990              		.cfi_endproc
 991              	.LFE121:
 992              		.size	gwinSliderSendExtendedEvents, .-gwinSliderSendExtendedEvents
 993              		.section	.text.gwinSliderDraw_Std,"ax",%progbits
 994              		.align	2
 995              		.p2align 4,,15
 996              		.global	gwinSliderDraw_Std
 997              		.thumb
 998              		.thumb_func
 999              		.type	gwinSliderDraw_Std, %function
 1000              	gwinSliderDraw_Std:
 1001              	.LFB122:
 1002              		.loc 1 340 0
 1003              		.cfi_startproc
 1004              		@ args = 0, pretend = 0, frame = 16
 1005              		@ frame_needed = 0, uses_anonymous_args = 0
 1006 0000 F0B5     		push	{r4, r5, r6, r7, lr}
 1007              		.cfi_def_cfa_offset 20
 1008              		.cfi_offset 4, -20
 1009              		.cfi_offset 5, -16
 1010              		.cfi_offset 6, -12
 1011              		.cfi_offset 7, -8
 1012              		.cfi_offset 14, -4
 1013 0002 8BB0     		sub	sp, sp, #44
 1014              		.cfi_def_cfa_offset 64
 1015 0004 0790     		str	r0, [sp, #28]
ARM GAS  /tmp/cc57xKLi.s 			page 19


 1016 0006 0691     		str	r1, [sp, #24]
 1017              		.loc 1 345 0
 1018 0008 079B     		ldr	r3, [sp, #28]
 1019 000a 5B68     		ldr	r3, [r3, #4]
 1020 000c 8C4A     		ldr	r2, .L81
 1021 000e 9342     		cmp	r3, r2
 1022 0010 00D0     		beq	.L68
 1023              		.loc 1 346 0
 1024 0012 42E2     		b	.L67
 1025              	.L68:
 1026              		.loc 1 348 0
 1027 0014 079B     		ldr	r3, [sp, #28]
 1028 0016 9B69     		ldr	r3, [r3, #24]
 1029 0018 03F40063 		and	r3, r3, #2048
 1030 001c 002B     		cmp	r3, #0
 1031 001e 04D0     		beq	.L70
 1032              		.loc 1 349 0
 1033 0020 079B     		ldr	r3, [sp, #28]
 1034 0022 DB6A     		ldr	r3, [r3, #44]
 1035 0024 1233     		adds	r3, r3, #18
 1036 0026 0993     		str	r3, [sp, #36]
 1037 0028 03E0     		b	.L71
 1038              	.L70:
 1039              		.loc 1 351 0
 1040 002a 079B     		ldr	r3, [sp, #28]
 1041 002c DB6A     		ldr	r3, [r3, #44]
 1042 002e 0A33     		adds	r3, r3, #10
 1043 0030 0993     		str	r3, [sp, #36]
 1044              	.L71:
 1045              		.loc 1 353 0
 1046 0032 079B     		ldr	r3, [sp, #28]
 1047 0034 1A8A     		ldrh	r2, [r3, #16]
 1048 0036 079B     		ldr	r3, [sp, #28]
 1049 0038 5B8A     		ldrh	r3, [r3, #18]
 1050 003a 12B2     		sxth	r2, r2
 1051 003c 1BB2     		sxth	r3, r3
 1052 003e 9A42     		cmp	r2, r3
 1053 0040 80F20081 		bge	.L72
 1054              		.loc 1 354 0
 1055 0044 079B     		ldr	r3, [sp, #28]
 1056 0046 1B8E     		ldrh	r3, [r3, #48]
 1057 0048 1AB2     		sxth	r2, r3
 1058 004a 079B     		ldr	r3, [sp, #28]
 1059 004c 5B8A     		ldrh	r3, [r3, #18]
 1060 004e 1BB2     		sxth	r3, r3
 1061 0050 013B     		subs	r3, r3, #1
 1062 0052 9A42     		cmp	r2, r3
 1063 0054 23D0     		beq	.L73
 1064              		.loc 1 355 0
 1065 0056 079B     		ldr	r3, [sp, #28]
 1066 0058 9868     		ldr	r0, [r3, #8]
 1067 005a 079B     		ldr	r3, [sp, #28]
 1068 005c 9989     		ldrh	r1, [r3, #12]
 1069 005e 079B     		ldr	r3, [sp, #28]
 1070 0060 DB89     		ldrh	r3, [r3, #14]
 1071 0062 9AB2     		uxth	r2, r3
 1072 0064 079B     		ldr	r3, [sp, #28]
ARM GAS  /tmp/cc57xKLi.s 			page 20


 1073 0066 1B8E     		ldrh	r3, [r3, #48]
 1074 0068 9BB2     		uxth	r3, r3
 1075 006a 1344     		add	r3, r3, r2
 1076 006c 9BB2     		uxth	r3, r3
 1077 006e 9DB2     		uxth	r5, r3
 1078 0070 079B     		ldr	r3, [sp, #28]
 1079 0072 1C8A     		ldrh	r4, [r3, #16]
 1080 0074 079B     		ldr	r3, [sp, #28]
 1081 0076 5B8A     		ldrh	r3, [r3, #18]
 1082 0078 9AB2     		uxth	r2, r3
 1083 007a 079B     		ldr	r3, [sp, #28]
 1084 007c 1B8E     		ldrh	r3, [r3, #48]
 1085 007e 9BB2     		uxth	r3, r3
 1086 0080 D31A     		subs	r3, r2, r3
 1087 0082 9BB2     		uxth	r3, r3
 1088 0084 9AB2     		uxth	r2, r3
 1089 0086 099B     		ldr	r3, [sp, #36]
 1090 0088 DB88     		ldrh	r3, [r3, #6]
 1091 008a 09B2     		sxth	r1, r1
 1092 008c 2DB2     		sxth	r5, r5
 1093 008e 24B2     		sxth	r4, r4
 1094 0090 12B2     		sxth	r2, r2
 1095 0092 0092     		str	r2, [sp]
 1096 0094 0193     		str	r3, [sp, #4]
 1097 0096 2A46     		mov	r2, r5
 1098 0098 2346     		mov	r3, r4
 1099 009a FFF7FEFF 		bl	gdispGFillArea
 1100              	.L73:
 1101              		.loc 1 356 0
 1102 009e 079B     		ldr	r3, [sp, #28]
 1103 00a0 1B8E     		ldrh	r3, [r3, #48]
 1104 00a2 002B     		cmp	r3, #0
 1105 00a4 16D0     		beq	.L74
 1106              		.loc 1 357 0
 1107 00a6 079B     		ldr	r3, [sp, #28]
 1108 00a8 9868     		ldr	r0, [r3, #8]
 1109 00aa 079B     		ldr	r3, [sp, #28]
 1110 00ac 9989     		ldrh	r1, [r3, #12]
 1111 00ae 079B     		ldr	r3, [sp, #28]
 1112 00b0 DD89     		ldrh	r5, [r3, #14]
 1113 00b2 079B     		ldr	r3, [sp, #28]
 1114 00b4 1C8A     		ldrh	r4, [r3, #16]
 1115 00b6 079B     		ldr	r3, [sp, #28]
 1116 00b8 1A8E     		ldrh	r2, [r3, #48]
 1117 00ba 079B     		ldr	r3, [sp, #28]
 1118 00bc DB6A     		ldr	r3, [r3, #44]
 1119 00be 1B89     		ldrh	r3, [r3, #8]
 1120 00c0 09B2     		sxth	r1, r1
 1121 00c2 2DB2     		sxth	r5, r5
 1122 00c4 24B2     		sxth	r4, r4
 1123 00c6 12B2     		sxth	r2, r2
 1124 00c8 0092     		str	r2, [sp]
 1125 00ca 0193     		str	r3, [sp, #4]
 1126 00cc 2A46     		mov	r2, r5
 1127 00ce 2346     		mov	r3, r4
 1128 00d0 FFF7FEFF 		bl	gdispGFillArea
 1129              	.L74:
ARM GAS  /tmp/cc57xKLi.s 			page 21


 1130              		.loc 1 358 0
 1131 00d4 079B     		ldr	r3, [sp, #28]
 1132 00d6 9868     		ldr	r0, [r3, #8]
 1133 00d8 079B     		ldr	r3, [sp, #28]
 1134 00da 9989     		ldrh	r1, [r3, #12]
 1135 00dc 079B     		ldr	r3, [sp, #28]
 1136 00de DD89     		ldrh	r5, [r3, #14]
 1137 00e0 079B     		ldr	r3, [sp, #28]
 1138 00e2 1C8A     		ldrh	r4, [r3, #16]
 1139 00e4 079B     		ldr	r3, [sp, #28]
 1140 00e6 5A8A     		ldrh	r2, [r3, #18]
 1141 00e8 099B     		ldr	r3, [sp, #36]
 1142 00ea 5B88     		ldrh	r3, [r3, #2]
 1143 00ec 09B2     		sxth	r1, r1
 1144 00ee 2DB2     		sxth	r5, r5
 1145 00f0 24B2     		sxth	r4, r4
 1146 00f2 12B2     		sxth	r2, r2
 1147 00f4 0092     		str	r2, [sp]
 1148 00f6 0193     		str	r3, [sp, #4]
 1149 00f8 2A46     		mov	r2, r5
 1150 00fa 2346     		mov	r3, r4
 1151 00fc FFF7FEFF 		bl	gdispGDrawBox
 1152              		.loc 1 359 0
 1153 0100 079B     		ldr	r3, [sp, #28]
 1154 0102 9868     		ldr	r0, [r3, #8]
 1155 0104 079B     		ldr	r3, [sp, #28]
 1156 0106 9989     		ldrh	r1, [r3, #12]
 1157 0108 079B     		ldr	r3, [sp, #28]
 1158 010a DB89     		ldrh	r3, [r3, #14]
 1159 010c 9AB2     		uxth	r2, r3
 1160 010e 079B     		ldr	r3, [sp, #28]
 1161 0110 1B8E     		ldrh	r3, [r3, #48]
 1162 0112 9BB2     		uxth	r3, r3
 1163 0114 1344     		add	r3, r3, r2
 1164 0116 9BB2     		uxth	r3, r3
 1165 0118 9DB2     		uxth	r5, r3
 1166 011a 079B     		ldr	r3, [sp, #28]
 1167 011c 9B89     		ldrh	r3, [r3, #12]
 1168 011e 9AB2     		uxth	r2, r3
 1169 0120 079B     		ldr	r3, [sp, #28]
 1170 0122 1B8A     		ldrh	r3, [r3, #16]
 1171 0124 9BB2     		uxth	r3, r3
 1172 0126 1344     		add	r3, r3, r2
 1173 0128 9BB2     		uxth	r3, r3
 1174 012a 013B     		subs	r3, r3, #1
 1175 012c 9BB2     		uxth	r3, r3
 1176 012e 9CB2     		uxth	r4, r3
 1177 0130 079B     		ldr	r3, [sp, #28]
 1178 0132 DB89     		ldrh	r3, [r3, #14]
 1179 0134 9AB2     		uxth	r2, r3
 1180 0136 079B     		ldr	r3, [sp, #28]
 1181 0138 1B8E     		ldrh	r3, [r3, #48]
 1182 013a 9BB2     		uxth	r3, r3
 1183 013c 1344     		add	r3, r3, r2
 1184 013e 9BB2     		uxth	r3, r3
 1185 0140 9AB2     		uxth	r2, r3
 1186 0142 099B     		ldr	r3, [sp, #36]
ARM GAS  /tmp/cc57xKLi.s 			page 22


 1187 0144 5B88     		ldrh	r3, [r3, #2]
 1188 0146 09B2     		sxth	r1, r1
 1189 0148 2DB2     		sxth	r5, r5
 1190 014a 24B2     		sxth	r4, r4
 1191 014c 12B2     		sxth	r2, r2
 1192 014e 0092     		str	r2, [sp]
 1193 0150 0193     		str	r3, [sp, #4]
 1194 0152 2A46     		mov	r2, r5
 1195 0154 2346     		mov	r3, r4
 1196 0156 FFF7FEFF 		bl	gdispGDrawLine
 1197              		.loc 1 360 0
 1198 015a 079B     		ldr	r3, [sp, #28]
 1199 015c 1B8E     		ldrh	r3, [r3, #48]
 1200 015e 1BB2     		sxth	r3, r3
 1201 0160 012B     		cmp	r3, #1
 1202 0162 30DD     		ble	.L75
 1203              		.loc 1 361 0
 1204 0164 079B     		ldr	r3, [sp, #28]
 1205 0166 9868     		ldr	r0, [r3, #8]
 1206 0168 079B     		ldr	r3, [sp, #28]
 1207 016a 9989     		ldrh	r1, [r3, #12]
 1208 016c 079B     		ldr	r3, [sp, #28]
 1209 016e DB89     		ldrh	r3, [r3, #14]
 1210 0170 9AB2     		uxth	r2, r3
 1211 0172 079B     		ldr	r3, [sp, #28]
 1212 0174 1B8E     		ldrh	r3, [r3, #48]
 1213 0176 9BB2     		uxth	r3, r3
 1214 0178 1344     		add	r3, r3, r2
 1215 017a 9BB2     		uxth	r3, r3
 1216 017c 023B     		subs	r3, r3, #2
 1217 017e 9BB2     		uxth	r3, r3
 1218 0180 9DB2     		uxth	r5, r3
 1219 0182 079B     		ldr	r3, [sp, #28]
 1220 0184 9B89     		ldrh	r3, [r3, #12]
 1221 0186 9AB2     		uxth	r2, r3
 1222 0188 079B     		ldr	r3, [sp, #28]
 1223 018a 1B8A     		ldrh	r3, [r3, #16]
 1224 018c 9BB2     		uxth	r3, r3
 1225 018e 1344     		add	r3, r3, r2
 1226 0190 9BB2     		uxth	r3, r3
 1227 0192 013B     		subs	r3, r3, #1
 1228 0194 9BB2     		uxth	r3, r3
 1229 0196 9CB2     		uxth	r4, r3
 1230 0198 079B     		ldr	r3, [sp, #28]
 1231 019a DB89     		ldrh	r3, [r3, #14]
 1232 019c 9AB2     		uxth	r2, r3
 1233 019e 079B     		ldr	r3, [sp, #28]
 1234 01a0 1B8E     		ldrh	r3, [r3, #48]
 1235 01a2 9BB2     		uxth	r3, r3
 1236 01a4 1344     		add	r3, r3, r2
 1237 01a6 9BB2     		uxth	r3, r3
 1238 01a8 023B     		subs	r3, r3, #2
 1239 01aa 9BB2     		uxth	r3, r3
 1240 01ac 9AB2     		uxth	r2, r3
 1241 01ae 099B     		ldr	r3, [sp, #36]
 1242 01b0 5B88     		ldrh	r3, [r3, #2]
 1243 01b2 09B2     		sxth	r1, r1
ARM GAS  /tmp/cc57xKLi.s 			page 23


 1244 01b4 2DB2     		sxth	r5, r5
 1245 01b6 24B2     		sxth	r4, r4
 1246 01b8 12B2     		sxth	r2, r2
 1247 01ba 0092     		str	r2, [sp]
 1248 01bc 0193     		str	r3, [sp, #4]
 1249 01be 2A46     		mov	r2, r5
 1250 01c0 2346     		mov	r3, r4
 1251 01c2 FFF7FEFF 		bl	gdispGDrawLine
 1252              	.L75:
 1253              		.loc 1 362 0
 1254 01c6 079B     		ldr	r3, [sp, #28]
 1255 01c8 1B8E     		ldrh	r3, [r3, #48]
 1256 01ca 1AB2     		sxth	r2, r3
 1257 01cc 079B     		ldr	r3, [sp, #28]
 1258 01ce 5B8A     		ldrh	r3, [r3, #18]
 1259 01d0 1BB2     		sxth	r3, r3
 1260 01d2 023B     		subs	r3, r3, #2
 1261 01d4 9A42     		cmp	r2, r3
 1262 01d6 00F33081 		bgt	.L77
 1263              		.loc 1 363 0
 1264 01da 079B     		ldr	r3, [sp, #28]
 1265 01dc 9868     		ldr	r0, [r3, #8]
 1266 01de 079B     		ldr	r3, [sp, #28]
 1267 01e0 9989     		ldrh	r1, [r3, #12]
 1268 01e2 079B     		ldr	r3, [sp, #28]
 1269 01e4 DB89     		ldrh	r3, [r3, #14]
 1270 01e6 9AB2     		uxth	r2, r3
 1271 01e8 079B     		ldr	r3, [sp, #28]
 1272 01ea 1B8E     		ldrh	r3, [r3, #48]
 1273 01ec 9BB2     		uxth	r3, r3
 1274 01ee 1344     		add	r3, r3, r2
 1275 01f0 9BB2     		uxth	r3, r3
 1276 01f2 0233     		adds	r3, r3, #2
 1277 01f4 9BB2     		uxth	r3, r3
 1278 01f6 9DB2     		uxth	r5, r3
 1279 01f8 079B     		ldr	r3, [sp, #28]
 1280 01fa 9B89     		ldrh	r3, [r3, #12]
 1281 01fc 9AB2     		uxth	r2, r3
 1282 01fe 079B     		ldr	r3, [sp, #28]
 1283 0200 1B8A     		ldrh	r3, [r3, #16]
 1284 0202 9BB2     		uxth	r3, r3
 1285 0204 1344     		add	r3, r3, r2
 1286 0206 9BB2     		uxth	r3, r3
 1287 0208 013B     		subs	r3, r3, #1
 1288 020a 9BB2     		uxth	r3, r3
 1289 020c 9CB2     		uxth	r4, r3
 1290 020e 079B     		ldr	r3, [sp, #28]
 1291 0210 DB89     		ldrh	r3, [r3, #14]
 1292 0212 9AB2     		uxth	r2, r3
 1293 0214 079B     		ldr	r3, [sp, #28]
 1294 0216 1B8E     		ldrh	r3, [r3, #48]
 1295 0218 9BB2     		uxth	r3, r3
 1296 021a 1344     		add	r3, r3, r2
 1297 021c 9BB2     		uxth	r3, r3
 1298 021e 0233     		adds	r3, r3, #2
 1299 0220 9BB2     		uxth	r3, r3
 1300 0222 9AB2     		uxth	r2, r3
ARM GAS  /tmp/cc57xKLi.s 			page 24


 1301 0224 099B     		ldr	r3, [sp, #36]
 1302 0226 5B88     		ldrh	r3, [r3, #2]
 1303 0228 09B2     		sxth	r1, r1
 1304 022a 2DB2     		sxth	r5, r5
 1305 022c 24B2     		sxth	r4, r4
 1306 022e 12B2     		sxth	r2, r2
 1307 0230 0092     		str	r2, [sp]
 1308 0232 0193     		str	r3, [sp, #4]
 1309 0234 2A46     		mov	r2, r5
 1310 0236 2346     		mov	r3, r4
 1311 0238 FFF7FEFF 		bl	gdispGDrawLine
 1312 023c FDE0     		b	.L77
 1313              	.L82:
 1314 023e 00BF     		.align	2
 1315              	.L81:
 1316 0240 00000000 		.word	sliderVMT
 1317              	.L72:
 1318              		.loc 1 367 0
 1319 0244 079B     		ldr	r3, [sp, #28]
 1320 0246 1B8E     		ldrh	r3, [r3, #48]
 1321 0248 1AB2     		sxth	r2, r3
 1322 024a 079B     		ldr	r3, [sp, #28]
 1323 024c 1B8A     		ldrh	r3, [r3, #16]
 1324 024e 1BB2     		sxth	r3, r3
 1325 0250 013B     		subs	r3, r3, #1
 1326 0252 9A42     		cmp	r2, r3
 1327 0254 24D0     		beq	.L78
 1328              		.loc 1 368 0
 1329 0256 079B     		ldr	r3, [sp, #28]
 1330 0258 9868     		ldr	r0, [r3, #8]
 1331 025a 079B     		ldr	r3, [sp, #28]
 1332 025c 9B89     		ldrh	r3, [r3, #12]
 1333 025e 9AB2     		uxth	r2, r3
 1334 0260 079B     		ldr	r3, [sp, #28]
 1335 0262 1B8E     		ldrh	r3, [r3, #48]
 1336 0264 9BB2     		uxth	r3, r3
 1337 0266 1344     		add	r3, r3, r2
 1338 0268 9BB2     		uxth	r3, r3
 1339 026a 99B2     		uxth	r1, r3
 1340 026c 079B     		ldr	r3, [sp, #28]
 1341 026e DD89     		ldrh	r5, [r3, #14]
 1342 0270 079B     		ldr	r3, [sp, #28]
 1343 0272 1B8A     		ldrh	r3, [r3, #16]
 1344 0274 9AB2     		uxth	r2, r3
 1345 0276 079B     		ldr	r3, [sp, #28]
 1346 0278 1B8E     		ldrh	r3, [r3, #48]
 1347 027a 9BB2     		uxth	r3, r3
 1348 027c D31A     		subs	r3, r2, r3
 1349 027e 9BB2     		uxth	r3, r3
 1350 0280 9CB2     		uxth	r4, r3
 1351 0282 079B     		ldr	r3, [sp, #28]
 1352 0284 5A8A     		ldrh	r2, [r3, #18]
 1353 0286 079B     		ldr	r3, [sp, #28]
 1354 0288 DB6A     		ldr	r3, [r3, #44]
 1355 028a 1B89     		ldrh	r3, [r3, #8]
 1356 028c 09B2     		sxth	r1, r1
 1357 028e 2DB2     		sxth	r5, r5
ARM GAS  /tmp/cc57xKLi.s 			page 25


 1358 0290 24B2     		sxth	r4, r4
 1359 0292 12B2     		sxth	r2, r2
 1360 0294 0092     		str	r2, [sp]
 1361 0296 0193     		str	r3, [sp, #4]
 1362 0298 2A46     		mov	r2, r5
 1363 029a 2346     		mov	r3, r4
 1364 029c FFF7FEFF 		bl	gdispGFillArea
 1365              	.L78:
 1366              		.loc 1 369 0
 1367 02a0 079B     		ldr	r3, [sp, #28]
 1368 02a2 1B8E     		ldrh	r3, [r3, #48]
 1369 02a4 002B     		cmp	r3, #0
 1370 02a6 15D0     		beq	.L79
 1371              		.loc 1 370 0
 1372 02a8 079B     		ldr	r3, [sp, #28]
 1373 02aa 9868     		ldr	r0, [r3, #8]
 1374 02ac 079B     		ldr	r3, [sp, #28]
 1375 02ae 9989     		ldrh	r1, [r3, #12]
 1376 02b0 079B     		ldr	r3, [sp, #28]
 1377 02b2 DD89     		ldrh	r5, [r3, #14]
 1378 02b4 079B     		ldr	r3, [sp, #28]
 1379 02b6 1C8E     		ldrh	r4, [r3, #48]
 1380 02b8 079B     		ldr	r3, [sp, #28]
 1381 02ba 5A8A     		ldrh	r2, [r3, #18]
 1382 02bc 099B     		ldr	r3, [sp, #36]
 1383 02be DB88     		ldrh	r3, [r3, #6]
 1384 02c0 09B2     		sxth	r1, r1
 1385 02c2 2DB2     		sxth	r5, r5
 1386 02c4 24B2     		sxth	r4, r4
 1387 02c6 12B2     		sxth	r2, r2
 1388 02c8 0092     		str	r2, [sp]
 1389 02ca 0193     		str	r3, [sp, #4]
 1390 02cc 2A46     		mov	r2, r5
 1391 02ce 2346     		mov	r3, r4
 1392 02d0 FFF7FEFF 		bl	gdispGFillArea
 1393              	.L79:
 1394              		.loc 1 371 0
 1395 02d4 079B     		ldr	r3, [sp, #28]
 1396 02d6 9868     		ldr	r0, [r3, #8]
 1397 02d8 079B     		ldr	r3, [sp, #28]
 1398 02da 9989     		ldrh	r1, [r3, #12]
 1399 02dc 079B     		ldr	r3, [sp, #28]
 1400 02de DD89     		ldrh	r5, [r3, #14]
 1401 02e0 079B     		ldr	r3, [sp, #28]
 1402 02e2 1C8A     		ldrh	r4, [r3, #16]
 1403 02e4 079B     		ldr	r3, [sp, #28]
 1404 02e6 5A8A     		ldrh	r2, [r3, #18]
 1405 02e8 099B     		ldr	r3, [sp, #36]
 1406 02ea 5B88     		ldrh	r3, [r3, #2]
 1407 02ec 09B2     		sxth	r1, r1
 1408 02ee 2DB2     		sxth	r5, r5
 1409 02f0 24B2     		sxth	r4, r4
 1410 02f2 12B2     		sxth	r2, r2
 1411 02f4 0092     		str	r2, [sp]
 1412 02f6 0193     		str	r3, [sp, #4]
 1413 02f8 2A46     		mov	r2, r5
 1414 02fa 2346     		mov	r3, r4
ARM GAS  /tmp/cc57xKLi.s 			page 26


 1415 02fc FFF7FEFF 		bl	gdispGDrawBox
 1416              		.loc 1 372 0
 1417 0300 079B     		ldr	r3, [sp, #28]
 1418 0302 9868     		ldr	r0, [r3, #8]
 1419 0304 079B     		ldr	r3, [sp, #28]
 1420 0306 9B89     		ldrh	r3, [r3, #12]
 1421 0308 9AB2     		uxth	r2, r3
 1422 030a 079B     		ldr	r3, [sp, #28]
 1423 030c 1B8E     		ldrh	r3, [r3, #48]
 1424 030e 9BB2     		uxth	r3, r3
 1425 0310 1344     		add	r3, r3, r2
 1426 0312 9BB2     		uxth	r3, r3
 1427 0314 99B2     		uxth	r1, r3
 1428 0316 079B     		ldr	r3, [sp, #28]
 1429 0318 DD89     		ldrh	r5, [r3, #14]
 1430 031a 079B     		ldr	r3, [sp, #28]
 1431 031c 9B89     		ldrh	r3, [r3, #12]
 1432 031e 9AB2     		uxth	r2, r3
 1433 0320 079B     		ldr	r3, [sp, #28]
 1434 0322 1B8E     		ldrh	r3, [r3, #48]
 1435 0324 9BB2     		uxth	r3, r3
 1436 0326 1344     		add	r3, r3, r2
 1437 0328 9BB2     		uxth	r3, r3
 1438 032a 9CB2     		uxth	r4, r3
 1439 032c 079B     		ldr	r3, [sp, #28]
 1440 032e DB89     		ldrh	r3, [r3, #14]
 1441 0330 9AB2     		uxth	r2, r3
 1442 0332 079B     		ldr	r3, [sp, #28]
 1443 0334 5B8A     		ldrh	r3, [r3, #18]
 1444 0336 9BB2     		uxth	r3, r3
 1445 0338 1344     		add	r3, r3, r2
 1446 033a 9BB2     		uxth	r3, r3
 1447 033c 013B     		subs	r3, r3, #1
 1448 033e 9BB2     		uxth	r3, r3
 1449 0340 9AB2     		uxth	r2, r3
 1450 0342 099B     		ldr	r3, [sp, #36]
 1451 0344 5B88     		ldrh	r3, [r3, #2]
 1452 0346 09B2     		sxth	r1, r1
 1453 0348 2DB2     		sxth	r5, r5
 1454 034a 24B2     		sxth	r4, r4
 1455 034c 12B2     		sxth	r2, r2
 1456 034e 0092     		str	r2, [sp]
 1457 0350 0193     		str	r3, [sp, #4]
 1458 0352 2A46     		mov	r2, r5
 1459 0354 2346     		mov	r3, r4
 1460 0356 FFF7FEFF 		bl	gdispGDrawLine
 1461              		.loc 1 373 0
 1462 035a 079B     		ldr	r3, [sp, #28]
 1463 035c 1B8E     		ldrh	r3, [r3, #48]
 1464 035e 1BB2     		sxth	r3, r3
 1465 0360 012B     		cmp	r3, #1
 1466 0362 30DD     		ble	.L80
 1467              		.loc 1 374 0
 1468 0364 079B     		ldr	r3, [sp, #28]
 1469 0366 9868     		ldr	r0, [r3, #8]
 1470 0368 079B     		ldr	r3, [sp, #28]
 1471 036a 9B89     		ldrh	r3, [r3, #12]
ARM GAS  /tmp/cc57xKLi.s 			page 27


 1472 036c 9AB2     		uxth	r2, r3
 1473 036e 079B     		ldr	r3, [sp, #28]
 1474 0370 1B8E     		ldrh	r3, [r3, #48]
 1475 0372 9BB2     		uxth	r3, r3
 1476 0374 1344     		add	r3, r3, r2
 1477 0376 9BB2     		uxth	r3, r3
 1478 0378 023B     		subs	r3, r3, #2
 1479 037a 9BB2     		uxth	r3, r3
 1480 037c 99B2     		uxth	r1, r3
 1481 037e 079B     		ldr	r3, [sp, #28]
 1482 0380 DD89     		ldrh	r5, [r3, #14]
 1483 0382 079B     		ldr	r3, [sp, #28]
 1484 0384 9B89     		ldrh	r3, [r3, #12]
 1485 0386 9AB2     		uxth	r2, r3
 1486 0388 079B     		ldr	r3, [sp, #28]
 1487 038a 1B8E     		ldrh	r3, [r3, #48]
 1488 038c 9BB2     		uxth	r3, r3
 1489 038e 1344     		add	r3, r3, r2
 1490 0390 9BB2     		uxth	r3, r3
 1491 0392 023B     		subs	r3, r3, #2
 1492 0394 9BB2     		uxth	r3, r3
 1493 0396 9CB2     		uxth	r4, r3
 1494 0398 079B     		ldr	r3, [sp, #28]
 1495 039a DB89     		ldrh	r3, [r3, #14]
 1496 039c 9AB2     		uxth	r2, r3
 1497 039e 079B     		ldr	r3, [sp, #28]
 1498 03a0 5B8A     		ldrh	r3, [r3, #18]
 1499 03a2 9BB2     		uxth	r3, r3
 1500 03a4 1344     		add	r3, r3, r2
 1501 03a6 9BB2     		uxth	r3, r3
 1502 03a8 013B     		subs	r3, r3, #1
 1503 03aa 9BB2     		uxth	r3, r3
 1504 03ac 9AB2     		uxth	r2, r3
 1505 03ae 099B     		ldr	r3, [sp, #36]
 1506 03b0 5B88     		ldrh	r3, [r3, #2]
 1507 03b2 09B2     		sxth	r1, r1
 1508 03b4 2DB2     		sxth	r5, r5
 1509 03b6 24B2     		sxth	r4, r4
 1510 03b8 12B2     		sxth	r2, r2
 1511 03ba 0092     		str	r2, [sp]
 1512 03bc 0193     		str	r3, [sp, #4]
 1513 03be 2A46     		mov	r2, r5
 1514 03c0 2346     		mov	r3, r4
 1515 03c2 FFF7FEFF 		bl	gdispGDrawLine
 1516              	.L80:
 1517              		.loc 1 375 0
 1518 03c6 079B     		ldr	r3, [sp, #28]
 1519 03c8 1B8E     		ldrh	r3, [r3, #48]
 1520 03ca 1AB2     		sxth	r2, r3
 1521 03cc 079B     		ldr	r3, [sp, #28]
 1522 03ce 1B8A     		ldrh	r3, [r3, #16]
 1523 03d0 1BB2     		sxth	r3, r3
 1524 03d2 023B     		subs	r3, r3, #2
 1525 03d4 9A42     		cmp	r2, r3
 1526 03d6 30DC     		bgt	.L77
 1527              		.loc 1 376 0
 1528 03d8 079B     		ldr	r3, [sp, #28]
ARM GAS  /tmp/cc57xKLi.s 			page 28


 1529 03da 9868     		ldr	r0, [r3, #8]
 1530 03dc 079B     		ldr	r3, [sp, #28]
 1531 03de 9B89     		ldrh	r3, [r3, #12]
 1532 03e0 9AB2     		uxth	r2, r3
 1533 03e2 079B     		ldr	r3, [sp, #28]
 1534 03e4 1B8E     		ldrh	r3, [r3, #48]
 1535 03e6 9BB2     		uxth	r3, r3
 1536 03e8 1344     		add	r3, r3, r2
 1537 03ea 9BB2     		uxth	r3, r3
 1538 03ec 0233     		adds	r3, r3, #2
 1539 03ee 9BB2     		uxth	r3, r3
 1540 03f0 99B2     		uxth	r1, r3
 1541 03f2 079B     		ldr	r3, [sp, #28]
 1542 03f4 DD89     		ldrh	r5, [r3, #14]
 1543 03f6 079B     		ldr	r3, [sp, #28]
 1544 03f8 9B89     		ldrh	r3, [r3, #12]
 1545 03fa 9AB2     		uxth	r2, r3
 1546 03fc 079B     		ldr	r3, [sp, #28]
 1547 03fe 1B8E     		ldrh	r3, [r3, #48]
 1548 0400 9BB2     		uxth	r3, r3
 1549 0402 1344     		add	r3, r3, r2
 1550 0404 9BB2     		uxth	r3, r3
 1551 0406 0233     		adds	r3, r3, #2
 1552 0408 9BB2     		uxth	r3, r3
 1553 040a 9CB2     		uxth	r4, r3
 1554 040c 079B     		ldr	r3, [sp, #28]
 1555 040e DB89     		ldrh	r3, [r3, #14]
 1556 0410 9AB2     		uxth	r2, r3
 1557 0412 079B     		ldr	r3, [sp, #28]
 1558 0414 5B8A     		ldrh	r3, [r3, #18]
 1559 0416 9BB2     		uxth	r3, r3
 1560 0418 1344     		add	r3, r3, r2
 1561 041a 9BB2     		uxth	r3, r3
 1562 041c 013B     		subs	r3, r3, #1
 1563 041e 9BB2     		uxth	r3, r3
 1564 0420 9AB2     		uxth	r2, r3
 1565 0422 099B     		ldr	r3, [sp, #36]
 1566 0424 5B88     		ldrh	r3, [r3, #2]
 1567 0426 09B2     		sxth	r1, r1
 1568 0428 2DB2     		sxth	r5, r5
 1569 042a 24B2     		sxth	r4, r4
 1570 042c 12B2     		sxth	r2, r2
 1571 042e 0092     		str	r2, [sp]
 1572 0430 0193     		str	r3, [sp, #4]
 1573 0432 2A46     		mov	r2, r5
 1574 0434 2346     		mov	r3, r4
 1575 0436 FFF7FEFF 		bl	gdispGDrawLine
 1576              	.L77:
 1577              		.loc 1 378 0
 1578 043a 079B     		ldr	r3, [sp, #28]
 1579 043c 9F68     		ldr	r7, [r3, #8]
 1580 043e 079B     		ldr	r3, [sp, #28]
 1581 0440 9B89     		ldrh	r3, [r3, #12]
 1582 0442 9BB2     		uxth	r3, r3
 1583 0444 0133     		adds	r3, r3, #1
 1584 0446 9BB2     		uxth	r3, r3
 1585 0448 9EB2     		uxth	r6, r3
ARM GAS  /tmp/cc57xKLi.s 			page 29


 1586 044a 079B     		ldr	r3, [sp, #28]
 1587 044c DB89     		ldrh	r3, [r3, #14]
 1588 044e 9BB2     		uxth	r3, r3
 1589 0450 0133     		adds	r3, r3, #1
 1590 0452 9BB2     		uxth	r3, r3
 1591 0454 9DB2     		uxth	r5, r3
 1592 0456 079B     		ldr	r3, [sp, #28]
 1593 0458 1B8A     		ldrh	r3, [r3, #16]
 1594 045a 9BB2     		uxth	r3, r3
 1595 045c 023B     		subs	r3, r3, #2
 1596 045e 9BB2     		uxth	r3, r3
 1597 0460 9CB2     		uxth	r4, r3
 1598 0462 079B     		ldr	r3, [sp, #28]
 1599 0464 5B8A     		ldrh	r3, [r3, #18]
 1600 0466 9BB2     		uxth	r3, r3
 1601 0468 023B     		subs	r3, r3, #2
 1602 046a 9BB2     		uxth	r3, r3
 1603 046c 98B2     		uxth	r0, r3
 1604 046e 079B     		ldr	r3, [sp, #28]
 1605 0470 196A     		ldr	r1, [r3, #32]
 1606 0472 079B     		ldr	r3, [sp, #28]
 1607 0474 DA69     		ldr	r2, [r3, #28]
 1608 0476 099B     		ldr	r3, [sp, #36]
 1609 0478 1B88     		ldrh	r3, [r3]
 1610 047a 36B2     		sxth	r6, r6
 1611 047c 2DB2     		sxth	r5, r5
 1612 047e 24B2     		sxth	r4, r4
 1613 0480 00B2     		sxth	r0, r0
 1614 0482 0090     		str	r0, [sp]
 1615 0484 0191     		str	r1, [sp, #4]
 1616 0486 0292     		str	r2, [sp, #8]
 1617 0488 0393     		str	r3, [sp, #12]
 1618 048a 0123     		movs	r3, #1
 1619 048c 0493     		str	r3, [sp, #16]
 1620 048e 3846     		mov	r0, r7
 1621 0490 3146     		mov	r1, r6
 1622 0492 2A46     		mov	r2, r5
 1623 0494 2346     		mov	r3, r4
 1624 0496 FFF7FEFF 		bl	gdispGDrawStringBox
 1625              	.L67:
 1626              		.loc 1 381 0
 1627 049a 0BB0     		add	sp, sp, #44
 1628              		.cfi_def_cfa_offset 20
 1629              		@ sp needed
 1630 049c F0BD     		pop	{r4, r5, r6, r7, pc}
 1631              		.cfi_endproc
 1632              	.LFE122:
 1633              		.size	gwinSliderDraw_Std, .-gwinSliderDraw_Std
 1634 049e 00BF     		.section	.text.gwinSliderDraw_Image,"ax",%progbits
 1635              		.align	2
 1636              		.p2align 4,,15
 1637              		.global	gwinSliderDraw_Image
 1638              		.thumb
 1639              		.thumb_func
 1640              		.type	gwinSliderDraw_Image, %function
 1641              	gwinSliderDraw_Image:
 1642              	.LFB123:
ARM GAS  /tmp/cc57xKLi.s 			page 30


 1643              		.loc 1 384 0
 1644              		.cfi_startproc
 1645              		@ args = 0, pretend = 0, frame = 16
 1646              		@ frame_needed = 0, uses_anonymous_args = 0
 1647 0000 F0B5     		push	{r4, r5, r6, r7, lr}
 1648              		.cfi_def_cfa_offset 20
 1649              		.cfi_offset 4, -20
 1650              		.cfi_offset 5, -16
 1651              		.cfi_offset 6, -12
 1652              		.cfi_offset 7, -8
 1653              		.cfi_offset 14, -4
 1654 0002 8BB0     		sub	sp, sp, #44
 1655              		.cfi_def_cfa_offset 64
 1656 0004 0790     		str	r0, [sp, #28]
 1657 0006 0691     		str	r1, [sp, #24]
 1658              		.loc 1 390 0
 1659 0008 079B     		ldr	r3, [sp, #28]
 1660 000a 5B68     		ldr	r3, [r3, #4]
 1661 000c 894A     		ldr	r2, .L100
 1662 000e 9342     		cmp	r3, r2
 1663 0010 00D0     		beq	.L84
 1664              		.loc 1 391 0
 1665 0012 CCE1     		b	.L83
 1666              	.L84:
 1667              		.loc 1 393 0
 1668 0014 079B     		ldr	r3, [sp, #28]
 1669 0016 9B69     		ldr	r3, [r3, #24]
 1670 0018 03F40063 		and	r3, r3, #2048
 1671 001c 002B     		cmp	r3, #0
 1672 001e 04D0     		beq	.L86
 1673              		.loc 1 394 0
 1674 0020 079B     		ldr	r3, [sp, #28]
 1675 0022 DB6A     		ldr	r3, [r3, #44]
 1676 0024 1233     		adds	r3, r3, #18
 1677 0026 0993     		str	r3, [sp, #36]
 1678 0028 03E0     		b	.L87
 1679              	.L86:
 1680              		.loc 1 396 0
 1681 002a 079B     		ldr	r3, [sp, #28]
 1682 002c DB6A     		ldr	r3, [r3, #44]
 1683 002e 0A33     		adds	r3, r3, #10
 1684 0030 0993     		str	r3, [sp, #36]
 1685              	.L87:
 1686              		.loc 1 398 0
 1687 0032 079B     		ldr	r3, [sp, #28]
 1688 0034 1A8A     		ldrh	r2, [r3, #16]
 1689 0036 079B     		ldr	r3, [sp, #28]
 1690 0038 5B8A     		ldrh	r3, [r3, #18]
 1691 003a 12B2     		sxth	r2, r2
 1692 003c 1BB2     		sxth	r3, r3
 1693 003e 9A42     		cmp	r2, r3
 1694 0040 80F2BE80 		bge	.L88
 1695              		.loc 1 399 0
 1696 0044 079B     		ldr	r3, [sp, #28]
 1697 0046 1B8E     		ldrh	r3, [r3, #48]
 1698 0048 002B     		cmp	r3, #0
 1699 004a 16D0     		beq	.L89
ARM GAS  /tmp/cc57xKLi.s 			page 31


 1700              		.loc 1 400 0
 1701 004c 079B     		ldr	r3, [sp, #28]
 1702 004e 9868     		ldr	r0, [r3, #8]
 1703 0050 079B     		ldr	r3, [sp, #28]
 1704 0052 9989     		ldrh	r1, [r3, #12]
 1705 0054 079B     		ldr	r3, [sp, #28]
 1706 0056 DD89     		ldrh	r5, [r3, #14]
 1707 0058 079B     		ldr	r3, [sp, #28]
 1708 005a 1C8A     		ldrh	r4, [r3, #16]
 1709 005c 079B     		ldr	r3, [sp, #28]
 1710 005e 1A8E     		ldrh	r2, [r3, #48]
 1711 0060 079B     		ldr	r3, [sp, #28]
 1712 0062 DB6A     		ldr	r3, [r3, #44]
 1713 0064 1B89     		ldrh	r3, [r3, #8]
 1714 0066 09B2     		sxth	r1, r1
 1715 0068 2DB2     		sxth	r5, r5
 1716 006a 24B2     		sxth	r4, r4
 1717 006c 12B2     		sxth	r2, r2
 1718 006e 0092     		str	r2, [sp]
 1719 0070 0193     		str	r3, [sp, #4]
 1720 0072 2A46     		mov	r2, r5
 1721 0074 2346     		mov	r3, r4
 1722 0076 FFF7FEFF 		bl	gdispGFillArea
 1723              	.L89:
 1724              		.loc 1 401 0
 1725 007a 079B     		ldr	r3, [sp, #28]
 1726 007c 1B8E     		ldrh	r3, [r3, #48]
 1727 007e 1AB2     		sxth	r2, r3
 1728 0080 079B     		ldr	r3, [sp, #28]
 1729 0082 5B8A     		ldrh	r3, [r3, #18]
 1730 0084 1BB2     		sxth	r3, r3
 1731 0086 013B     		subs	r3, r3, #1
 1732 0088 9A42     		cmp	r2, r3
 1733 008a 55D0     		beq	.L90
 1734              		.loc 1 402 0
 1735 008c 079B     		ldr	r3, [sp, #28]
 1736 008e 5B8A     		ldrh	r3, [r3, #18]	@ movhi
 1737 0090 ADF82230 		strh	r3, [sp, #34]	@ movhi
 1738 0094 069B     		ldr	r3, [sp, #24]
 1739 0096 1B89     		ldrh	r3, [r3, #8]	@ movhi
 1740 0098 ADF82030 		strh	r3, [sp, #32]	@ movhi
 1741 009c 45E0     		b	.L91
 1742              	.L93:
 1743              		.loc 1 403 0
 1744 009e BDF82220 		ldrh	r2, [sp, #34]
 1745 00a2 BDF82030 		ldrh	r3, [sp, #32]
 1746 00a6 D31A     		subs	r3, r2, r3
 1747 00a8 9BB2     		uxth	r3, r3
 1748 00aa ADF82230 		strh	r3, [sp, #34]	@ movhi
 1749              		.loc 1 404 0
 1750 00ae 079B     		ldr	r3, [sp, #28]
 1751 00b0 1B8E     		ldrh	r3, [r3, #48]
 1752 00b2 BDF92220 		ldrsh	r2, [sp, #34]
 1753 00b6 1BB2     		sxth	r3, r3
 1754 00b8 9A42     		cmp	r2, r3
 1755 00ba 10DA     		bge	.L92
 1756              		.loc 1 405 0
ARM GAS  /tmp/cc57xKLi.s 			page 32


 1757 00bc BDF82220 		ldrh	r2, [sp, #34]
 1758 00c0 079B     		ldr	r3, [sp, #28]
 1759 00c2 1B8E     		ldrh	r3, [r3, #48]
 1760 00c4 9BB2     		uxth	r3, r3
 1761 00c6 D31A     		subs	r3, r2, r3
 1762 00c8 9AB2     		uxth	r2, r3
 1763 00ca BDF82030 		ldrh	r3, [sp, #32]
 1764 00ce 1344     		add	r3, r3, r2
 1765 00d0 9BB2     		uxth	r3, r3
 1766 00d2 ADF82030 		strh	r3, [sp, #32]	@ movhi
 1767              		.loc 1 406 0
 1768 00d6 079B     		ldr	r3, [sp, #28]
 1769 00d8 1B8E     		ldrh	r3, [r3, #48]	@ movhi
 1770 00da ADF82230 		strh	r3, [sp, #34]	@ movhi
 1771              	.L92:
 1772              		.loc 1 408 0
 1773 00de 079B     		ldr	r3, [sp, #28]
 1774 00e0 9968     		ldr	r1, [r3, #8]
 1775 00e2 079B     		ldr	r3, [sp, #28]
 1776 00e4 9E89     		ldrh	r6, [r3, #12]
 1777 00e6 079B     		ldr	r3, [sp, #28]
 1778 00e8 DB89     		ldrh	r3, [r3, #14]
 1779 00ea 9AB2     		uxth	r2, r3
 1780 00ec BDF82230 		ldrh	r3, [sp, #34]
 1781 00f0 1344     		add	r3, r3, r2
 1782 00f2 9BB2     		uxth	r3, r3
 1783 00f4 9CB2     		uxth	r4, r3
 1784 00f6 079B     		ldr	r3, [sp, #28]
 1785 00f8 1D8A     		ldrh	r5, [r3, #16]
 1786 00fa 069B     		ldr	r3, [sp, #24]
 1787 00fc 1B89     		ldrh	r3, [r3, #8]
 1788 00fe 9AB2     		uxth	r2, r3
 1789 0100 BDF82030 		ldrh	r3, [sp, #32]
 1790 0104 D31A     		subs	r3, r2, r3
 1791 0106 9BB2     		uxth	r3, r3
 1792 0108 98B2     		uxth	r0, r3
 1793 010a 32B2     		sxth	r2, r6
 1794 010c 24B2     		sxth	r4, r4
 1795 010e 2BB2     		sxth	r3, r5
 1796 0110 0093     		str	r3, [sp]
 1797 0112 BDF92030 		ldrsh	r3, [sp, #32]
 1798 0116 0193     		str	r3, [sp, #4]
 1799 0118 0023     		movs	r3, #0
 1800 011a 0293     		str	r3, [sp, #8]
 1801 011c 03B2     		sxth	r3, r0
 1802 011e 0393     		str	r3, [sp, #12]
 1803 0120 0846     		mov	r0, r1
 1804 0122 0699     		ldr	r1, [sp, #24]
 1805 0124 2346     		mov	r3, r4
 1806 0126 FFF7FEFF 		bl	gdispGImageDraw
 1807              	.L91:
 1808              		.loc 1 402 0 discriminator 1
 1809 012a 079B     		ldr	r3, [sp, #28]
 1810 012c 1B8E     		ldrh	r3, [r3, #48]
 1811 012e BDF92220 		ldrsh	r2, [sp, #34]
 1812 0132 1BB2     		sxth	r3, r3
 1813 0134 9A42     		cmp	r2, r3
ARM GAS  /tmp/cc57xKLi.s 			page 33


 1814 0136 B2DC     		bgt	.L93
 1815              	.L90:
 1816              		.loc 1 411 0
 1817 0138 079B     		ldr	r3, [sp, #28]
 1818 013a 9868     		ldr	r0, [r3, #8]
 1819 013c 079B     		ldr	r3, [sp, #28]
 1820 013e 9989     		ldrh	r1, [r3, #12]
 1821 0140 079B     		ldr	r3, [sp, #28]
 1822 0142 DD89     		ldrh	r5, [r3, #14]
 1823 0144 079B     		ldr	r3, [sp, #28]
 1824 0146 1C8A     		ldrh	r4, [r3, #16]
 1825 0148 079B     		ldr	r3, [sp, #28]
 1826 014a 5A8A     		ldrh	r2, [r3, #18]
 1827 014c 099B     		ldr	r3, [sp, #36]
 1828 014e 5B88     		ldrh	r3, [r3, #2]
 1829 0150 09B2     		sxth	r1, r1
 1830 0152 2DB2     		sxth	r5, r5
 1831 0154 24B2     		sxth	r4, r4
 1832 0156 12B2     		sxth	r2, r2
 1833 0158 0092     		str	r2, [sp]
 1834 015a 0193     		str	r3, [sp, #4]
 1835 015c 2A46     		mov	r2, r5
 1836 015e 2346     		mov	r3, r4
 1837 0160 FFF7FEFF 		bl	gdispGDrawBox
 1838              		.loc 1 412 0
 1839 0164 079B     		ldr	r3, [sp, #28]
 1840 0166 9868     		ldr	r0, [r3, #8]
 1841 0168 079B     		ldr	r3, [sp, #28]
 1842 016a 9989     		ldrh	r1, [r3, #12]
 1843 016c 079B     		ldr	r3, [sp, #28]
 1844 016e DB89     		ldrh	r3, [r3, #14]
 1845 0170 9AB2     		uxth	r2, r3
 1846 0172 079B     		ldr	r3, [sp, #28]
 1847 0174 1B8E     		ldrh	r3, [r3, #48]
 1848 0176 9BB2     		uxth	r3, r3
 1849 0178 1344     		add	r3, r3, r2
 1850 017a 9BB2     		uxth	r3, r3
 1851 017c 9DB2     		uxth	r5, r3
 1852 017e 079B     		ldr	r3, [sp, #28]
 1853 0180 9B89     		ldrh	r3, [r3, #12]
 1854 0182 9AB2     		uxth	r2, r3
 1855 0184 079B     		ldr	r3, [sp, #28]
 1856 0186 1B8A     		ldrh	r3, [r3, #16]
 1857 0188 9BB2     		uxth	r3, r3
 1858 018a 1344     		add	r3, r3, r2
 1859 018c 9BB2     		uxth	r3, r3
 1860 018e 013B     		subs	r3, r3, #1
 1861 0190 9BB2     		uxth	r3, r3
 1862 0192 9CB2     		uxth	r4, r3
 1863 0194 079B     		ldr	r3, [sp, #28]
 1864 0196 DB89     		ldrh	r3, [r3, #14]
 1865 0198 9AB2     		uxth	r2, r3
 1866 019a 079B     		ldr	r3, [sp, #28]
 1867 019c 1B8E     		ldrh	r3, [r3, #48]
 1868 019e 9BB2     		uxth	r3, r3
 1869 01a0 1344     		add	r3, r3, r2
 1870 01a2 9BB2     		uxth	r3, r3
ARM GAS  /tmp/cc57xKLi.s 			page 34


 1871 01a4 9AB2     		uxth	r2, r3
 1872 01a6 099B     		ldr	r3, [sp, #36]
 1873 01a8 5B88     		ldrh	r3, [r3, #2]
 1874 01aa 09B2     		sxth	r1, r1
 1875 01ac 2DB2     		sxth	r5, r5
 1876 01ae 24B2     		sxth	r4, r4
 1877 01b0 12B2     		sxth	r2, r2
 1878 01b2 0092     		str	r2, [sp]
 1879 01b4 0193     		str	r3, [sp, #4]
 1880 01b6 2A46     		mov	r2, r5
 1881 01b8 2346     		mov	r3, r4
 1882 01ba FFF7FEFF 		bl	gdispGDrawLine
 1883 01be C6E0     		b	.L94
 1884              	.L88:
 1885              		.loc 1 416 0
 1886 01c0 079B     		ldr	r3, [sp, #28]
 1887 01c2 1B8E     		ldrh	r3, [r3, #48]
 1888 01c4 1AB2     		sxth	r2, r3
 1889 01c6 079B     		ldr	r3, [sp, #28]
 1890 01c8 1B8A     		ldrh	r3, [r3, #16]
 1891 01ca 1BB2     		sxth	r3, r3
 1892 01cc 013B     		subs	r3, r3, #1
 1893 01ce 9A42     		cmp	r2, r3
 1894 01d0 24D0     		beq	.L95
 1895              		.loc 1 417 0
 1896 01d2 079B     		ldr	r3, [sp, #28]
 1897 01d4 9868     		ldr	r0, [r3, #8]
 1898 01d6 079B     		ldr	r3, [sp, #28]
 1899 01d8 9B89     		ldrh	r3, [r3, #12]
 1900 01da 9AB2     		uxth	r2, r3
 1901 01dc 079B     		ldr	r3, [sp, #28]
 1902 01de 1B8E     		ldrh	r3, [r3, #48]
 1903 01e0 9BB2     		uxth	r3, r3
 1904 01e2 1344     		add	r3, r3, r2
 1905 01e4 9BB2     		uxth	r3, r3
 1906 01e6 99B2     		uxth	r1, r3
 1907 01e8 079B     		ldr	r3, [sp, #28]
 1908 01ea DD89     		ldrh	r5, [r3, #14]
 1909 01ec 079B     		ldr	r3, [sp, #28]
 1910 01ee 1B8A     		ldrh	r3, [r3, #16]
 1911 01f0 9AB2     		uxth	r2, r3
 1912 01f2 079B     		ldr	r3, [sp, #28]
 1913 01f4 1B8E     		ldrh	r3, [r3, #48]
 1914 01f6 9BB2     		uxth	r3, r3
 1915 01f8 D31A     		subs	r3, r2, r3
 1916 01fa 9BB2     		uxth	r3, r3
 1917 01fc 9CB2     		uxth	r4, r3
 1918 01fe 079B     		ldr	r3, [sp, #28]
 1919 0200 5A8A     		ldrh	r2, [r3, #18]
 1920 0202 079B     		ldr	r3, [sp, #28]
 1921 0204 DB6A     		ldr	r3, [r3, #44]
 1922 0206 1B89     		ldrh	r3, [r3, #8]
 1923 0208 09B2     		sxth	r1, r1
 1924 020a 2DB2     		sxth	r5, r5
 1925 020c 24B2     		sxth	r4, r4
 1926 020e 12B2     		sxth	r2, r2
 1927 0210 0092     		str	r2, [sp]
ARM GAS  /tmp/cc57xKLi.s 			page 35


 1928 0212 0193     		str	r3, [sp, #4]
 1929 0214 2A46     		mov	r2, r5
 1930 0216 2346     		mov	r3, r4
 1931 0218 FFF7FEFF 		bl	gdispGFillArea
 1932              	.L95:
 1933              		.loc 1 418 0
 1934 021c 079B     		ldr	r3, [sp, #28]
 1935 021e 1B8E     		ldrh	r3, [r3, #48]
 1936 0220 002B     		cmp	r3, #0
 1937 0222 51D0     		beq	.L96
 1938              		.loc 1 419 0
 1939 0224 0023     		movs	r3, #0
 1940 0226 ADF82230 		strh	r3, [sp, #34]	@ movhi
 1941 022a 069B     		ldr	r3, [sp, #24]
 1942 022c DB88     		ldrh	r3, [r3, #6]	@ movhi
 1943 022e ADF82030 		strh	r3, [sp, #32]	@ movhi
 1944 0232 42E0     		b	.L97
 1945              	.L101:
 1946              		.align	2
 1947              	.L100:
 1948 0234 00000000 		.word	sliderVMT
 1949              	.L99:
 1950              		.loc 1 420 0
 1951 0238 BDF92220 		ldrsh	r2, [sp, #34]
 1952 023c BDF92030 		ldrsh	r3, [sp, #32]
 1953 0240 1A44     		add	r2, r2, r3
 1954 0242 079B     		ldr	r3, [sp, #28]
 1955 0244 1B8E     		ldrh	r3, [r3, #48]
 1956 0246 1BB2     		sxth	r3, r3
 1957 0248 9A42     		cmp	r2, r3
 1958 024a 10DD     		ble	.L98
 1959              		.loc 1 421 0
 1960 024c 079B     		ldr	r3, [sp, #28]
 1961 024e 1B8E     		ldrh	r3, [r3, #48]
 1962 0250 9AB2     		uxth	r2, r3
 1963 0252 BDF82210 		ldrh	r1, [sp, #34]
 1964 0256 BDF82030 		ldrh	r3, [sp, #32]
 1965 025a 0B44     		add	r3, r3, r1
 1966 025c 9BB2     		uxth	r3, r3
 1967 025e D31A     		subs	r3, r2, r3
 1968 0260 9AB2     		uxth	r2, r3
 1969 0262 BDF82030 		ldrh	r3, [sp, #32]
 1970 0266 1344     		add	r3, r3, r2
 1971 0268 9BB2     		uxth	r3, r3
 1972 026a ADF82030 		strh	r3, [sp, #32]	@ movhi
 1973              	.L98:
 1974              		.loc 1 422 0 discriminator 2
 1975 026e 079B     		ldr	r3, [sp, #28]
 1976 0270 9968     		ldr	r1, [r3, #8]
 1977 0272 079B     		ldr	r3, [sp, #28]
 1978 0274 9B89     		ldrh	r3, [r3, #12]
 1979 0276 9AB2     		uxth	r2, r3
 1980 0278 BDF82230 		ldrh	r3, [sp, #34]
 1981 027c 1344     		add	r3, r3, r2
 1982 027e 9BB2     		uxth	r3, r3
 1983 0280 9AB2     		uxth	r2, r3
 1984 0282 079B     		ldr	r3, [sp, #28]
ARM GAS  /tmp/cc57xKLi.s 			page 36


 1985 0284 DC89     		ldrh	r4, [r3, #14]
 1986 0286 079B     		ldr	r3, [sp, #28]
 1987 0288 588A     		ldrh	r0, [r3, #18]
 1988 028a 12B2     		sxth	r2, r2
 1989 028c 24B2     		sxth	r4, r4
 1990 028e BDF92030 		ldrsh	r3, [sp, #32]
 1991 0292 0093     		str	r3, [sp]
 1992 0294 03B2     		sxth	r3, r0
 1993 0296 0193     		str	r3, [sp, #4]
 1994 0298 0023     		movs	r3, #0
 1995 029a 0293     		str	r3, [sp, #8]
 1996 029c 0023     		movs	r3, #0
 1997 029e 0393     		str	r3, [sp, #12]
 1998 02a0 0846     		mov	r0, r1
 1999 02a2 0699     		ldr	r1, [sp, #24]
 2000 02a4 2346     		mov	r3, r4
 2001 02a6 FFF7FEFF 		bl	gdispGImageDraw
 2002              		.loc 1 419 0 discriminator 2
 2003 02aa BDF82220 		ldrh	r2, [sp, #34]
 2004 02ae BDF82030 		ldrh	r3, [sp, #32]
 2005 02b2 1344     		add	r3, r3, r2
 2006 02b4 9BB2     		uxth	r3, r3
 2007 02b6 ADF82230 		strh	r3, [sp, #34]	@ movhi
 2008              	.L97:
 2009              		.loc 1 419 0 is_stmt 0 discriminator 1
 2010 02ba 079B     		ldr	r3, [sp, #28]
 2011 02bc 1B8E     		ldrh	r3, [r3, #48]
 2012 02be BDF92220 		ldrsh	r2, [sp, #34]
 2013 02c2 1BB2     		sxth	r3, r3
 2014 02c4 9A42     		cmp	r2, r3
 2015 02c6 B7DB     		blt	.L99
 2016              	.L96:
 2017              		.loc 1 425 0 is_stmt 1
 2018 02c8 079B     		ldr	r3, [sp, #28]
 2019 02ca 9868     		ldr	r0, [r3, #8]
 2020 02cc 079B     		ldr	r3, [sp, #28]
 2021 02ce 9989     		ldrh	r1, [r3, #12]
 2022 02d0 079B     		ldr	r3, [sp, #28]
 2023 02d2 DD89     		ldrh	r5, [r3, #14]
 2024 02d4 079B     		ldr	r3, [sp, #28]
 2025 02d6 1C8A     		ldrh	r4, [r3, #16]
 2026 02d8 079B     		ldr	r3, [sp, #28]
 2027 02da 5A8A     		ldrh	r2, [r3, #18]
 2028 02dc 099B     		ldr	r3, [sp, #36]
 2029 02de 5B88     		ldrh	r3, [r3, #2]
 2030 02e0 09B2     		sxth	r1, r1
 2031 02e2 2DB2     		sxth	r5, r5
 2032 02e4 24B2     		sxth	r4, r4
 2033 02e6 12B2     		sxth	r2, r2
 2034 02e8 0092     		str	r2, [sp]
 2035 02ea 0193     		str	r3, [sp, #4]
 2036 02ec 2A46     		mov	r2, r5
 2037 02ee 2346     		mov	r3, r4
 2038 02f0 FFF7FEFF 		bl	gdispGDrawBox
 2039              		.loc 1 426 0
 2040 02f4 079B     		ldr	r3, [sp, #28]
 2041 02f6 9868     		ldr	r0, [r3, #8]
ARM GAS  /tmp/cc57xKLi.s 			page 37


 2042 02f8 079B     		ldr	r3, [sp, #28]
 2043 02fa 9B89     		ldrh	r3, [r3, #12]
 2044 02fc 9AB2     		uxth	r2, r3
 2045 02fe 079B     		ldr	r3, [sp, #28]
 2046 0300 1B8E     		ldrh	r3, [r3, #48]
 2047 0302 9BB2     		uxth	r3, r3
 2048 0304 1344     		add	r3, r3, r2
 2049 0306 9BB2     		uxth	r3, r3
 2050 0308 99B2     		uxth	r1, r3
 2051 030a 079B     		ldr	r3, [sp, #28]
 2052 030c DD89     		ldrh	r5, [r3, #14]
 2053 030e 079B     		ldr	r3, [sp, #28]
 2054 0310 9B89     		ldrh	r3, [r3, #12]
 2055 0312 9AB2     		uxth	r2, r3
 2056 0314 079B     		ldr	r3, [sp, #28]
 2057 0316 1B8E     		ldrh	r3, [r3, #48]
 2058 0318 9BB2     		uxth	r3, r3
 2059 031a 1344     		add	r3, r3, r2
 2060 031c 9BB2     		uxth	r3, r3
 2061 031e 9CB2     		uxth	r4, r3
 2062 0320 079B     		ldr	r3, [sp, #28]
 2063 0322 DB89     		ldrh	r3, [r3, #14]
 2064 0324 9AB2     		uxth	r2, r3
 2065 0326 079B     		ldr	r3, [sp, #28]
 2066 0328 5B8A     		ldrh	r3, [r3, #18]
 2067 032a 9BB2     		uxth	r3, r3
 2068 032c 1344     		add	r3, r3, r2
 2069 032e 9BB2     		uxth	r3, r3
 2070 0330 013B     		subs	r3, r3, #1
 2071 0332 9BB2     		uxth	r3, r3
 2072 0334 9AB2     		uxth	r2, r3
 2073 0336 099B     		ldr	r3, [sp, #36]
 2074 0338 5B88     		ldrh	r3, [r3, #2]
 2075 033a 09B2     		sxth	r1, r1
 2076 033c 2DB2     		sxth	r5, r5
 2077 033e 24B2     		sxth	r4, r4
 2078 0340 12B2     		sxth	r2, r2
 2079 0342 0092     		str	r2, [sp]
 2080 0344 0193     		str	r3, [sp, #4]
 2081 0346 2A46     		mov	r2, r5
 2082 0348 2346     		mov	r3, r4
 2083 034a FFF7FEFF 		bl	gdispGDrawLine
 2084              	.L94:
 2085              		.loc 1 428 0
 2086 034e 079B     		ldr	r3, [sp, #28]
 2087 0350 9F68     		ldr	r7, [r3, #8]
 2088 0352 079B     		ldr	r3, [sp, #28]
 2089 0354 9B89     		ldrh	r3, [r3, #12]
 2090 0356 9BB2     		uxth	r3, r3
 2091 0358 0133     		adds	r3, r3, #1
 2092 035a 9BB2     		uxth	r3, r3
 2093 035c 9EB2     		uxth	r6, r3
 2094 035e 079B     		ldr	r3, [sp, #28]
 2095 0360 DB89     		ldrh	r3, [r3, #14]
 2096 0362 9BB2     		uxth	r3, r3
 2097 0364 0133     		adds	r3, r3, #1
 2098 0366 9BB2     		uxth	r3, r3
ARM GAS  /tmp/cc57xKLi.s 			page 38


 2099 0368 9DB2     		uxth	r5, r3
 2100 036a 079B     		ldr	r3, [sp, #28]
 2101 036c 1B8A     		ldrh	r3, [r3, #16]
 2102 036e 9BB2     		uxth	r3, r3
 2103 0370 023B     		subs	r3, r3, #2
 2104 0372 9BB2     		uxth	r3, r3
 2105 0374 9CB2     		uxth	r4, r3
 2106 0376 079B     		ldr	r3, [sp, #28]
 2107 0378 5B8A     		ldrh	r3, [r3, #18]
 2108 037a 9BB2     		uxth	r3, r3
 2109 037c 023B     		subs	r3, r3, #2
 2110 037e 9BB2     		uxth	r3, r3
 2111 0380 98B2     		uxth	r0, r3
 2112 0382 079B     		ldr	r3, [sp, #28]
 2113 0384 196A     		ldr	r1, [r3, #32]
 2114 0386 079B     		ldr	r3, [sp, #28]
 2115 0388 DA69     		ldr	r2, [r3, #28]
 2116 038a 099B     		ldr	r3, [sp, #36]
 2117 038c 1B88     		ldrh	r3, [r3]
 2118 038e 36B2     		sxth	r6, r6
 2119 0390 2DB2     		sxth	r5, r5
 2120 0392 24B2     		sxth	r4, r4
 2121 0394 00B2     		sxth	r0, r0
 2122 0396 0090     		str	r0, [sp]
 2123 0398 0191     		str	r1, [sp, #4]
 2124 039a 0292     		str	r2, [sp, #8]
 2125 039c 0393     		str	r3, [sp, #12]
 2126 039e 0123     		movs	r3, #1
 2127 03a0 0493     		str	r3, [sp, #16]
 2128 03a2 3846     		mov	r0, r7
 2129 03a4 3146     		mov	r1, r6
 2130 03a6 2A46     		mov	r2, r5
 2131 03a8 2346     		mov	r3, r4
 2132 03aa FFF7FEFF 		bl	gdispGDrawStringBox
 2133              	.L83:
 2134              		.loc 1 432 0
 2135 03ae 0BB0     		add	sp, sp, #44
 2136              		.cfi_def_cfa_offset 20
 2137              		@ sp needed
 2138 03b0 F0BD     		pop	{r4, r5, r6, r7, pc}
 2139              		.cfi_endproc
 2140              	.LFE123:
 2141              		.size	gwinSliderDraw_Image, .-gwinSliderDraw_Image
 2142 03b2 00BFAFF3 		.text
 2142      0080AFF3 
 2142      0080AFF3 
 2142      0080
 2143              	.Letext0:
 2144              		.file 2 "/opt/gcc-arm-none-eabi/lib/gcc/arm-none-eabi/4.9.3/include/stddef.h"
 2145              		.file 3 "/opt/gcc-arm-none-eabi/arm-none-eabi/include/machine/_default_types.h"
 2146              		.file 4 "/opt/gcc-arm-none-eabi/arm-none-eabi/include/stdint.h"
 2147              		.file 5 "/home/makkmarci/workspace/ChibiOS_2.6.8/os/ports/GCC/ARMCMx/chtypes.h"
 2148              		.file 6 "/home/makkmarci/workspace/ChibiOS_2.6.8/os/kernel/include/chlists.h"
 2149              		.file 7 "/home/makkmarci/workspace/ChibiOS_2.6.8/os/kernel/include/chthreads.h"
 2150              		.file 8 "/home/makkmarci/workspace/ChibiOS_2.6.8/os/ports/GCC/ARMCMx/chcore_v7m.h"
 2151              		.file 9 "/home/makkmarci/workspace/ChibiOS_2.6.8/os/kernel/include/chsem.h"
 2152              		.file 10 "/home/makkmarci/workspace/ChibiOS_2.6.8/os/kernel/include/chmtx.h"
ARM GAS  /tmp/cc57xKLi.s 			page 39


 2153              		.file 11 "/home/makkmarci/workspace/ugfx/src/gos/gos_chibios.h"
 2154              		.file 12 "/home/makkmarci/workspace/ugfx/src/gfile/gfile.h"
 2155              		.file 13 "/home/makkmarci/workspace/ugfx/src/gqueue/gqueue.h"
 2156              		.file 14 "/home/makkmarci/workspace/ugfx/src/gevent/gevent.h"
 2157              		.file 15 "/home/makkmarci/workspace/ugfx/src/gdisp/gdisp.h"
 2158              		.file 16 "/home/makkmarci/workspace/ugfx/src/gdisp/gdisp_colors.h"
 2159              		.file 17 "/home/makkmarci/workspace/ugfx/src/gdisp/gdisp_image.h"
 2160              		.file 18 "/home/makkmarci/workspace/ugfx/src/gwin/gwin.h"
 2161              		.file 19 "/home/makkmarci/workspace/ugfx/src/gwin/gwin_class.h"
 2162              		.file 20 "/home/makkmarci/workspace/ugfx/src/gwin/gwin_widget.h"
 2163              		.file 21 "/home/makkmarci/workspace/ugfx/src/gwin/gwin_slider.h"
 2164              		.file 22 "/home/makkmarci/workspace/ChibiOS_2.6.8/os/ports/common/ARMCMx/CMSIS/include/core_cm4.h"
 2165              		.section	.debug_info,"",%progbits
 2166              	.Ldebug_info0:
 2167 0000 4B0F0000 		.4byte	0xf4b
 2168 0004 0400     		.2byte	0x4
 2169 0006 00000000 		.4byte	.Ldebug_abbrev0
 2170 000a 04       		.byte	0x4
 2171 000b 01       		.uleb128 0x1
 2172 000c 3E030000 		.4byte	.LASF169
 2173 0010 01       		.byte	0x1
 2174 0011 16050000 		.4byte	.LASF170
 2175 0015 00000000 		.4byte	.Ldebug_ranges0+0
 2176 0019 00000000 		.4byte	0
 2177 001d 00000000 		.4byte	.Ldebug_line0
 2178 0021 02       		.uleb128 0x2
 2179 0022 04       		.byte	0x4
 2180 0023 05       		.byte	0x5
 2181 0024 696E7400 		.ascii	"int\000"
 2182 0028 03       		.uleb128 0x3
 2183 0029 F3010000 		.4byte	.LASF2
 2184 002d 02       		.byte	0x2
 2185 002e D4       		.byte	0xd4
 2186 002f 33000000 		.4byte	0x33
 2187 0033 04       		.uleb128 0x4
 2188 0034 04       		.byte	0x4
 2189 0035 07       		.byte	0x7
 2190 0036 1C020000 		.4byte	.LASF0
 2191 003a 04       		.uleb128 0x4
 2192 003b 01       		.byte	0x1
 2193 003c 06       		.byte	0x6
 2194 003d EA000000 		.4byte	.LASF1
 2195 0041 03       		.uleb128 0x3
 2196 0042 3E000000 		.4byte	.LASF3
 2197 0046 03       		.byte	0x3
 2198 0047 1D       		.byte	0x1d
 2199 0048 4C000000 		.4byte	0x4c
 2200 004c 04       		.uleb128 0x4
 2201 004d 01       		.byte	0x1
 2202 004e 08       		.byte	0x8
 2203 004f 5A050000 		.4byte	.LASF4
 2204 0053 03       		.uleb128 0x3
 2205 0054 E9010000 		.4byte	.LASF5
 2206 0058 03       		.byte	0x3
 2207 0059 29       		.byte	0x29
 2208 005a 5E000000 		.4byte	0x5e
 2209 005e 04       		.uleb128 0x4
ARM GAS  /tmp/cc57xKLi.s 			page 40


 2210 005f 02       		.byte	0x2
 2211 0060 05       		.byte	0x5
 2212 0061 7D050000 		.4byte	.LASF6
 2213 0065 03       		.uleb128 0x3
 2214 0066 65060000 		.4byte	.LASF7
 2215 006a 03       		.byte	0x3
 2216 006b 2B       		.byte	0x2b
 2217 006c 70000000 		.4byte	0x70
 2218 0070 04       		.uleb128 0x4
 2219 0071 02       		.byte	0x2
 2220 0072 07       		.byte	0x7
 2221 0073 85010000 		.4byte	.LASF8
 2222 0077 03       		.uleb128 0x3
 2223 0078 98060000 		.4byte	.LASF9
 2224 007c 03       		.byte	0x3
 2225 007d 3F       		.byte	0x3f
 2226 007e 82000000 		.4byte	0x82
 2227 0082 04       		.uleb128 0x4
 2228 0083 04       		.byte	0x4
 2229 0084 05       		.byte	0x5
 2230 0085 3C010000 		.4byte	.LASF10
 2231 0089 03       		.uleb128 0x3
 2232 008a B5010000 		.4byte	.LASF11
 2233 008e 03       		.byte	0x3
 2234 008f 41       		.byte	0x41
 2235 0090 94000000 		.4byte	0x94
 2236 0094 04       		.uleb128 0x4
 2237 0095 04       		.byte	0x4
 2238 0096 07       		.byte	0x7
 2239 0097 3B060000 		.4byte	.LASF12
 2240 009b 04       		.uleb128 0x4
 2241 009c 08       		.byte	0x8
 2242 009d 05       		.byte	0x5
 2243 009e DC000000 		.4byte	.LASF13
 2244 00a2 03       		.uleb128 0x3
 2245 00a3 A8040000 		.4byte	.LASF14
 2246 00a7 03       		.byte	0x3
 2247 00a8 5B       		.byte	0x5b
 2248 00a9 AD000000 		.4byte	0xad
 2249 00ad 04       		.uleb128 0x4
 2250 00ae 08       		.byte	0x8
 2251 00af 07       		.byte	0x7
 2252 00b0 7B000000 		.4byte	.LASF15
 2253 00b4 03       		.uleb128 0x3
 2254 00b5 51070000 		.4byte	.LASF16
 2255 00b9 04       		.byte	0x4
 2256 00ba 15       		.byte	0x15
 2257 00bb 41000000 		.4byte	0x41
 2258 00bf 03       		.uleb128 0x3
 2259 00c0 D4000000 		.4byte	.LASF17
 2260 00c4 04       		.byte	0x4
 2261 00c5 20       		.byte	0x20
 2262 00c6 53000000 		.4byte	0x53
 2263 00ca 03       		.uleb128 0x3
 2264 00cb 33020000 		.4byte	.LASF18
 2265 00cf 04       		.byte	0x4
 2266 00d0 21       		.byte	0x21
ARM GAS  /tmp/cc57xKLi.s 			page 41


 2267 00d1 65000000 		.4byte	0x65
 2268 00d5 03       		.uleb128 0x3
 2269 00d6 52050000 		.4byte	.LASF19
 2270 00da 04       		.byte	0x4
 2271 00db 2C       		.byte	0x2c
 2272 00dc 77000000 		.4byte	0x77
 2273 00e0 03       		.uleb128 0x3
 2274 00e1 15060000 		.4byte	.LASF20
 2275 00e5 04       		.byte	0x4
 2276 00e6 2D       		.byte	0x2d
 2277 00e7 89000000 		.4byte	0x89
 2278 00eb 03       		.uleb128 0x3
 2279 00ec 1F000000 		.4byte	.LASF21
 2280 00f0 04       		.byte	0x4
 2281 00f1 39       		.byte	0x39
 2282 00f2 A2000000 		.4byte	0xa2
 2283 00f6 03       		.uleb128 0x3
 2284 00f7 03010000 		.4byte	.LASF22
 2285 00fb 05       		.byte	0x5
 2286 00fc 2B       		.byte	0x2b
 2287 00fd 01010000 		.4byte	0x101
 2288 0101 04       		.uleb128 0x4
 2289 0102 01       		.byte	0x1
 2290 0103 02       		.byte	0x2
 2291 0104 4C050000 		.4byte	.LASF23
 2292 0108 03       		.uleb128 0x3
 2293 0109 C2020000 		.4byte	.LASF24
 2294 010d 05       		.byte	0x5
 2295 010e 2C       		.byte	0x2c
 2296 010f B4000000 		.4byte	0xb4
 2297 0113 03       		.uleb128 0x3
 2298 0114 53010000 		.4byte	.LASF25
 2299 0118 05       		.byte	0x5
 2300 0119 2D       		.byte	0x2d
 2301 011a B4000000 		.4byte	0xb4
 2302 011e 03       		.uleb128 0x3
 2303 011f DD040000 		.4byte	.LASF26
 2304 0123 05       		.byte	0x5
 2305 0124 2E       		.byte	0x2e
 2306 0125 B4000000 		.4byte	0xb4
 2307 0129 03       		.uleb128 0x3
 2308 012a 32010000 		.4byte	.LASF27
 2309 012e 05       		.byte	0x5
 2310 012f 2F       		.byte	0x2f
 2311 0130 B4000000 		.4byte	0xb4
 2312 0134 03       		.uleb128 0x3
 2313 0135 05050000 		.4byte	.LASF28
 2314 0139 05       		.byte	0x5
 2315 013a 30       		.byte	0x30
 2316 013b E0000000 		.4byte	0xe0
 2317 013f 03       		.uleb128 0x3
 2318 0140 AE020000 		.4byte	.LASF29
 2319 0144 05       		.byte	0x5
 2320 0145 31       		.byte	0x31
 2321 0146 D5000000 		.4byte	0xd5
 2322 014a 03       		.uleb128 0x3
 2323 014b DF020000 		.4byte	.LASF30
ARM GAS  /tmp/cc57xKLi.s 			page 42


 2324 014f 05       		.byte	0x5
 2325 0150 33       		.byte	0x33
 2326 0151 E0000000 		.4byte	0xe0
 2327 0155 03       		.uleb128 0x3
 2328 0156 83060000 		.4byte	.LASF31
 2329 015a 05       		.byte	0x5
 2330 015b 35       		.byte	0x35
 2331 015c E0000000 		.4byte	0xe0
 2332 0160 03       		.uleb128 0x3
 2333 0161 0B020000 		.4byte	.LASF32
 2334 0165 05       		.byte	0x5
 2335 0166 36       		.byte	0x36
 2336 0167 D5000000 		.4byte	0xd5
 2337 016b 03       		.uleb128 0x3
 2338 016c F2050000 		.4byte	.LASF33
 2339 0170 06       		.byte	0x6
 2340 0171 2A       		.byte	0x2a
 2341 0172 76010000 		.4byte	0x176
 2342 0176 05       		.uleb128 0x5
 2343 0177 F2050000 		.4byte	.LASF33
 2344 017b 4C       		.byte	0x4c
 2345 017c 07       		.byte	0x7
 2346 017d 5E       		.byte	0x5e
 2347 017e 7F020000 		.4byte	0x27f
 2348 0182 06       		.uleb128 0x6
 2349 0183 AB050000 		.4byte	.LASF34
 2350 0187 07       		.byte	0x7
 2351 0188 5F       		.byte	0x5f
 2352 0189 A0020000 		.4byte	0x2a0
 2353 018d 00       		.byte	0
 2354 018e 06       		.uleb128 0x6
 2355 018f FE040000 		.4byte	.LASF35
 2356 0193 07       		.byte	0x7
 2357 0194 61       		.byte	0x61
 2358 0195 A0020000 		.4byte	0x2a0
 2359 0199 04       		.byte	0x4
 2360 019a 06       		.uleb128 0x6
 2361 019b BB000000 		.4byte	.LASF36
 2362 019f 07       		.byte	0x7
 2363 01a0 63       		.byte	0x63
 2364 01a1 34010000 		.4byte	0x134
 2365 01a5 08       		.byte	0x8
 2366 01a6 06       		.uleb128 0x6
 2367 01a7 11080000 		.4byte	.LASF37
 2368 01ab 07       		.byte	0x7
 2369 01ac 64       		.byte	0x64
 2370 01ad 35040000 		.4byte	0x435
 2371 01b1 0C       		.byte	0xc
 2372 01b2 06       		.uleb128 0x6
 2373 01b3 6A010000 		.4byte	.LASF38
 2374 01b7 07       		.byte	0x7
 2375 01b8 66       		.byte	0x66
 2376 01b9 A0020000 		.4byte	0x2a0
 2377 01bd 10       		.byte	0x10
 2378 01be 06       		.uleb128 0x6
 2379 01bf B0070000 		.4byte	.LASF39
 2380 01c3 07       		.byte	0x7
ARM GAS  /tmp/cc57xKLi.s 			page 43


 2381 01c4 67       		.byte	0x67
 2382 01c5 A0020000 		.4byte	0x2a0
 2383 01c9 14       		.byte	0x14
 2384 01ca 06       		.uleb128 0x6
 2385 01cb 99070000 		.4byte	.LASF40
 2386 01cf 07       		.byte	0x7
 2387 01d0 6E       		.byte	0x6e
 2388 01d1 09050000 		.4byte	0x509
 2389 01d5 18       		.byte	0x18
 2390 01d6 06       		.uleb128 0x6
 2391 01d7 11020000 		.4byte	.LASF41
 2392 01db 07       		.byte	0x7
 2393 01dc 74       		.byte	0x74
 2394 01dd 1B050000 		.4byte	0x51b
 2395 01e1 1C       		.byte	0x1c
 2396 01e2 06       		.uleb128 0x6
 2397 01e3 87050000 		.4byte	.LASF42
 2398 01e7 07       		.byte	0x7
 2399 01e8 79       		.byte	0x79
 2400 01e9 13010000 		.4byte	0x113
 2401 01ed 20       		.byte	0x20
 2402 01ee 06       		.uleb128 0x6
 2403 01ef B2050000 		.4byte	.LASF43
 2404 01f3 07       		.byte	0x7
 2405 01f4 7D       		.byte	0x7d
 2406 01f5 08010000 		.4byte	0x108
 2407 01f9 21       		.byte	0x21
 2408 01fa 06       		.uleb128 0x6
 2409 01fb 26070000 		.4byte	.LASF44
 2410 01ff 07       		.byte	0x7
 2411 0200 82       		.byte	0x82
 2412 0201 1E010000 		.4byte	0x11e
 2413 0205 22       		.byte	0x22
 2414 0206 06       		.uleb128 0x6
 2415 0207 9A050000 		.4byte	.LASF45
 2416 020b 07       		.byte	0x7
 2417 020c 88       		.byte	0x88
 2418 020d 29010000 		.4byte	0x129
 2419 0211 23       		.byte	0x23
 2420 0212 06       		.uleb128 0x6
 2421 0213 45020000 		.4byte	.LASF46
 2422 0217 07       		.byte	0x7
 2423 0218 8F       		.byte	0x8f
 2424 0219 5D040000 		.4byte	0x45d
 2425 021d 24       		.byte	0x24
 2426 021e 07       		.uleb128 0x7
 2427 021f 705F7500 		.ascii	"p_u\000"
 2428 0223 07       		.byte	0x7
 2429 0224 B4       		.byte	0xb4
 2430 0225 D4040000 		.4byte	0x4d4
 2431 0229 28       		.byte	0x28
 2432 022a 06       		.uleb128 0x6
 2433 022b 17080000 		.4byte	.LASF47
 2434 022f 07       		.byte	0x7
 2435 0230 B9       		.byte	0xb9
 2436 0231 C6020000 		.4byte	0x2c6
 2437 0235 2C       		.byte	0x2c
ARM GAS  /tmp/cc57xKLi.s 			page 44


 2438 0236 06       		.uleb128 0x6
 2439 0237 65020000 		.4byte	.LASF48
 2440 023b 07       		.byte	0x7
 2441 023c BF       		.byte	0xbf
 2442 023d A6020000 		.4byte	0x2a6
 2443 0241 30       		.byte	0x30
 2444 0242 06       		.uleb128 0x6
 2445 0243 C7070000 		.4byte	.LASF49
 2446 0247 07       		.byte	0x7
 2447 0248 C3       		.byte	0xc3
 2448 0249 3F010000 		.4byte	0x13f
 2449 024d 38       		.byte	0x38
 2450 024e 06       		.uleb128 0x6
 2451 024f 00060000 		.4byte	.LASF50
 2452 0253 07       		.byte	0x7
 2453 0254 C9       		.byte	0xc9
 2454 0255 4A010000 		.4byte	0x14a
 2455 0259 3C       		.byte	0x3c
 2456 025a 06       		.uleb128 0x6
 2457 025b 73050000 		.4byte	.LASF51
 2458 025f 07       		.byte	0x7
 2459 0260 D0       		.byte	0xd0
 2460 0261 21050000 		.4byte	0x521
 2461 0265 40       		.byte	0x40
 2462 0266 06       		.uleb128 0x6
 2463 0267 8D060000 		.4byte	.LASF52
 2464 026b 07       		.byte	0x7
 2465 026c D4       		.byte	0xd4
 2466 026d 34010000 		.4byte	0x134
 2467 0271 44       		.byte	0x44
 2468 0272 06       		.uleb128 0x6
 2469 0273 FB000000 		.4byte	.LASF53
 2470 0277 07       		.byte	0x7
 2471 0278 DA       		.byte	0xda
 2472 0279 DC020000 		.4byte	0x2dc
 2473 027d 48       		.byte	0x48
 2474 027e 00       		.byte	0
 2475 027f 08       		.uleb128 0x8
 2476 0280 08       		.byte	0x8
 2477 0281 06       		.byte	0x6
 2478 0282 61       		.byte	0x61
 2479 0283 A0020000 		.4byte	0x2a0
 2480 0287 06       		.uleb128 0x6
 2481 0288 AB050000 		.4byte	.LASF34
 2482 028c 06       		.byte	0x6
 2483 028d 62       		.byte	0x62
 2484 028e A0020000 		.4byte	0x2a0
 2485 0292 00       		.byte	0
 2486 0293 06       		.uleb128 0x6
 2487 0294 FE040000 		.4byte	.LASF35
 2488 0298 06       		.byte	0x6
 2489 0299 64       		.byte	0x64
 2490 029a A0020000 		.4byte	0x2a0
 2491 029e 04       		.byte	0x4
 2492 029f 00       		.byte	0
 2493 02a0 09       		.uleb128 0x9
 2494 02a1 04       		.byte	0x4
ARM GAS  /tmp/cc57xKLi.s 			page 45


 2495 02a2 6B010000 		.4byte	0x16b
 2496 02a6 03       		.uleb128 0x3
 2497 02a7 7D040000 		.4byte	.LASF54
 2498 02ab 06       		.byte	0x6
 2499 02ac 66       		.byte	0x66
 2500 02ad 7F020000 		.4byte	0x27f
 2501 02b1 08       		.uleb128 0x8
 2502 02b2 04       		.byte	0x4
 2503 02b3 06       		.byte	0x6
 2504 02b4 6B       		.byte	0x6b
 2505 02b5 C6020000 		.4byte	0x2c6
 2506 02b9 06       		.uleb128 0x6
 2507 02ba AB050000 		.4byte	.LASF34
 2508 02be 06       		.byte	0x6
 2509 02bf 6D       		.byte	0x6d
 2510 02c0 A0020000 		.4byte	0x2a0
 2511 02c4 00       		.byte	0
 2512 02c5 00       		.byte	0
 2513 02c6 03       		.uleb128 0x3
 2514 02c7 D3020000 		.4byte	.LASF55
 2515 02cb 06       		.byte	0x6
 2516 02cc 70       		.byte	0x70
 2517 02cd B1020000 		.4byte	0x2b1
 2518 02d1 03       		.uleb128 0x3
 2519 02d2 C7010000 		.4byte	.LASF56
 2520 02d6 08       		.byte	0x8
 2521 02d7 E5       		.byte	0xe5
 2522 02d8 DC020000 		.4byte	0x2dc
 2523 02dc 0A       		.uleb128 0xa
 2524 02dd 04       		.byte	0x4
 2525 02de 03       		.uleb128 0x3
 2526 02df F9020000 		.4byte	.LASF57
 2527 02e3 08       		.byte	0x8
 2528 02e4 EB       		.byte	0xeb
 2529 02e5 EB000000 		.4byte	0xeb
 2530 02e9 0B       		.uleb128 0xb
 2531 02ea DC060000 		.4byte	.LASF58
 2532 02ee 64       		.byte	0x64
 2533 02ef 08       		.byte	0x8
 2534 02f0 0C01     		.2byte	0x10c
 2535 02f2 35040000 		.4byte	0x435
 2536 02f6 0C       		.uleb128 0xc
 2537 02f7 73313600 		.ascii	"s16\000"
 2538 02fb 08       		.byte	0x8
 2539 02fc 0E01     		.2byte	0x10e
 2540 02fe D1020000 		.4byte	0x2d1
 2541 0302 00       		.byte	0
 2542 0303 0C       		.uleb128 0xc
 2543 0304 73313700 		.ascii	"s17\000"
 2544 0308 08       		.byte	0x8
 2545 0309 0F01     		.2byte	0x10f
 2546 030b D1020000 		.4byte	0x2d1
 2547 030f 04       		.byte	0x4
 2548 0310 0C       		.uleb128 0xc
 2549 0311 73313800 		.ascii	"s18\000"
 2550 0315 08       		.byte	0x8
 2551 0316 1001     		.2byte	0x110
ARM GAS  /tmp/cc57xKLi.s 			page 46


 2552 0318 D1020000 		.4byte	0x2d1
 2553 031c 08       		.byte	0x8
 2554 031d 0C       		.uleb128 0xc
 2555 031e 73313900 		.ascii	"s19\000"
 2556 0322 08       		.byte	0x8
 2557 0323 1101     		.2byte	0x111
 2558 0325 D1020000 		.4byte	0x2d1
 2559 0329 0C       		.byte	0xc
 2560 032a 0C       		.uleb128 0xc
 2561 032b 73323000 		.ascii	"s20\000"
 2562 032f 08       		.byte	0x8
 2563 0330 1201     		.2byte	0x112
 2564 0332 D1020000 		.4byte	0x2d1
 2565 0336 10       		.byte	0x10
 2566 0337 0C       		.uleb128 0xc
 2567 0338 73323100 		.ascii	"s21\000"
 2568 033c 08       		.byte	0x8
 2569 033d 1301     		.2byte	0x113
 2570 033f D1020000 		.4byte	0x2d1
 2571 0343 14       		.byte	0x14
 2572 0344 0C       		.uleb128 0xc
 2573 0345 73323200 		.ascii	"s22\000"
 2574 0349 08       		.byte	0x8
 2575 034a 1401     		.2byte	0x114
 2576 034c D1020000 		.4byte	0x2d1
 2577 0350 18       		.byte	0x18
 2578 0351 0C       		.uleb128 0xc
 2579 0352 73323300 		.ascii	"s23\000"
 2580 0356 08       		.byte	0x8
 2581 0357 1501     		.2byte	0x115
 2582 0359 D1020000 		.4byte	0x2d1
 2583 035d 1C       		.byte	0x1c
 2584 035e 0C       		.uleb128 0xc
 2585 035f 73323400 		.ascii	"s24\000"
 2586 0363 08       		.byte	0x8
 2587 0364 1601     		.2byte	0x116
 2588 0366 D1020000 		.4byte	0x2d1
 2589 036a 20       		.byte	0x20
 2590 036b 0C       		.uleb128 0xc
 2591 036c 73323500 		.ascii	"s25\000"
 2592 0370 08       		.byte	0x8
 2593 0371 1701     		.2byte	0x117
 2594 0373 D1020000 		.4byte	0x2d1
 2595 0377 24       		.byte	0x24
 2596 0378 0C       		.uleb128 0xc
 2597 0379 73323600 		.ascii	"s26\000"
 2598 037d 08       		.byte	0x8
 2599 037e 1801     		.2byte	0x118
 2600 0380 D1020000 		.4byte	0x2d1
 2601 0384 28       		.byte	0x28
 2602 0385 0C       		.uleb128 0xc
 2603 0386 73323700 		.ascii	"s27\000"
 2604 038a 08       		.byte	0x8
 2605 038b 1901     		.2byte	0x119
 2606 038d D1020000 		.4byte	0x2d1
 2607 0391 2C       		.byte	0x2c
 2608 0392 0C       		.uleb128 0xc
ARM GAS  /tmp/cc57xKLi.s 			page 47


 2609 0393 73323800 		.ascii	"s28\000"
 2610 0397 08       		.byte	0x8
 2611 0398 1A01     		.2byte	0x11a
 2612 039a D1020000 		.4byte	0x2d1
 2613 039e 30       		.byte	0x30
 2614 039f 0C       		.uleb128 0xc
 2615 03a0 73323900 		.ascii	"s29\000"
 2616 03a4 08       		.byte	0x8
 2617 03a5 1B01     		.2byte	0x11b
 2618 03a7 D1020000 		.4byte	0x2d1
 2619 03ab 34       		.byte	0x34
 2620 03ac 0C       		.uleb128 0xc
 2621 03ad 73333000 		.ascii	"s30\000"
 2622 03b1 08       		.byte	0x8
 2623 03b2 1C01     		.2byte	0x11c
 2624 03b4 D1020000 		.4byte	0x2d1
 2625 03b8 38       		.byte	0x38
 2626 03b9 0C       		.uleb128 0xc
 2627 03ba 73333100 		.ascii	"s31\000"
 2628 03be 08       		.byte	0x8
 2629 03bf 1D01     		.2byte	0x11d
 2630 03c1 D1020000 		.4byte	0x2d1
 2631 03c5 3C       		.byte	0x3c
 2632 03c6 0C       		.uleb128 0xc
 2633 03c7 723400   		.ascii	"r4\000"
 2634 03ca 08       		.byte	0x8
 2635 03cb 1F01     		.2byte	0x11f
 2636 03cd D1020000 		.4byte	0x2d1
 2637 03d1 40       		.byte	0x40
 2638 03d2 0C       		.uleb128 0xc
 2639 03d3 723500   		.ascii	"r5\000"
 2640 03d6 08       		.byte	0x8
 2641 03d7 2001     		.2byte	0x120
 2642 03d9 D1020000 		.4byte	0x2d1
 2643 03dd 44       		.byte	0x44
 2644 03de 0C       		.uleb128 0xc
 2645 03df 723600   		.ascii	"r6\000"
 2646 03e2 08       		.byte	0x8
 2647 03e3 2101     		.2byte	0x121
 2648 03e5 D1020000 		.4byte	0x2d1
 2649 03e9 48       		.byte	0x48
 2650 03ea 0C       		.uleb128 0xc
 2651 03eb 723700   		.ascii	"r7\000"
 2652 03ee 08       		.byte	0x8
 2653 03ef 2201     		.2byte	0x122
 2654 03f1 D1020000 		.4byte	0x2d1
 2655 03f5 4C       		.byte	0x4c
 2656 03f6 0C       		.uleb128 0xc
 2657 03f7 723800   		.ascii	"r8\000"
 2658 03fa 08       		.byte	0x8
 2659 03fb 2301     		.2byte	0x123
 2660 03fd D1020000 		.4byte	0x2d1
 2661 0401 50       		.byte	0x50
 2662 0402 0C       		.uleb128 0xc
 2663 0403 723900   		.ascii	"r9\000"
 2664 0406 08       		.byte	0x8
 2665 0407 2401     		.2byte	0x124
ARM GAS  /tmp/cc57xKLi.s 			page 48


 2666 0409 D1020000 		.4byte	0x2d1
 2667 040d 54       		.byte	0x54
 2668 040e 0C       		.uleb128 0xc
 2669 040f 72313000 		.ascii	"r10\000"
 2670 0413 08       		.byte	0x8
 2671 0414 2501     		.2byte	0x125
 2672 0416 D1020000 		.4byte	0x2d1
 2673 041a 58       		.byte	0x58
 2674 041b 0C       		.uleb128 0xc
 2675 041c 72313100 		.ascii	"r11\000"
 2676 0420 08       		.byte	0x8
 2677 0421 2601     		.2byte	0x126
 2678 0423 D1020000 		.4byte	0x2d1
 2679 0427 5C       		.byte	0x5c
 2680 0428 0C       		.uleb128 0xc
 2681 0429 6C7200   		.ascii	"lr\000"
 2682 042c 08       		.byte	0x8
 2683 042d 2701     		.2byte	0x127
 2684 042f D1020000 		.4byte	0x2d1
 2685 0433 60       		.byte	0x60
 2686 0434 00       		.byte	0
 2687 0435 0B       		.uleb128 0xb
 2688 0436 BC060000 		.4byte	.LASF59
 2689 043a 04       		.byte	0x4
 2690 043b 08       		.byte	0x8
 2691 043c 3101     		.2byte	0x131
 2692 043e 50040000 		.4byte	0x450
 2693 0442 0C       		.uleb128 0xc
 2694 0443 72313300 		.ascii	"r13\000"
 2695 0447 08       		.byte	0x8
 2696 0448 3201     		.2byte	0x132
 2697 044a 50040000 		.4byte	0x450
 2698 044e 00       		.byte	0
 2699 044f 00       		.byte	0
 2700 0450 09       		.uleb128 0x9
 2701 0451 04       		.byte	0x4
 2702 0452 E9020000 		.4byte	0x2e9
 2703 0456 04       		.uleb128 0x4
 2704 0457 04       		.byte	0x4
 2705 0458 07       		.byte	0x7
 2706 0459 35030000 		.4byte	.LASF60
 2707 045d 0D       		.uleb128 0xd
 2708 045e 55010000 		.4byte	0x155
 2709 0462 05       		.uleb128 0x5
 2710 0463 B3040000 		.4byte	.LASF61
 2711 0467 0C       		.byte	0xc
 2712 0468 09       		.byte	0x9
 2713 0469 2C       		.byte	0x2c
 2714 046a 87040000 		.4byte	0x487
 2715 046e 06       		.uleb128 0x6
 2716 046f 72010000 		.4byte	.LASF62
 2717 0473 09       		.byte	0x9
 2718 0474 2D       		.byte	0x2d
 2719 0475 A6020000 		.4byte	0x2a6
 2720 0479 00       		.byte	0
 2721 047a 06       		.uleb128 0x6
 2722 047b 6D050000 		.4byte	.LASF63
ARM GAS  /tmp/cc57xKLi.s 			page 49


 2723 047f 09       		.byte	0x9
 2724 0480 2F       		.byte	0x2f
 2725 0481 60010000 		.4byte	0x160
 2726 0485 08       		.byte	0x8
 2727 0486 00       		.byte	0
 2728 0487 03       		.uleb128 0x3
 2729 0488 B3040000 		.4byte	.LASF61
 2730 048c 09       		.byte	0x9
 2731 048d 30       		.byte	0x30
 2732 048e 62040000 		.4byte	0x462
 2733 0492 05       		.uleb128 0x5
 2734 0493 65040000 		.4byte	.LASF64
 2735 0497 10       		.byte	0x10
 2736 0498 0A       		.byte	0xa
 2737 0499 2C       		.byte	0x2c
 2738 049a C3040000 		.4byte	0x4c3
 2739 049e 06       		.uleb128 0x6
 2740 049f 0A010000 		.4byte	.LASF65
 2741 04a3 0A       		.byte	0xa
 2742 04a4 2D       		.byte	0x2d
 2743 04a5 A6020000 		.4byte	0x2a6
 2744 04a9 00       		.byte	0
 2745 04aa 06       		.uleb128 0x6
 2746 04ab 09080000 		.4byte	.LASF66
 2747 04af 0A       		.byte	0xa
 2748 04b0 2F       		.byte	0x2f
 2749 04b1 A0020000 		.4byte	0x2a0
 2750 04b5 08       		.byte	0x8
 2751 04b6 06       		.uleb128 0x6
 2752 04b7 7C060000 		.4byte	.LASF67
 2753 04bb 0A       		.byte	0xa
 2754 04bc 31       		.byte	0x31
 2755 04bd C3040000 		.4byte	0x4c3
 2756 04c1 0C       		.byte	0xc
 2757 04c2 00       		.byte	0
 2758 04c3 09       		.uleb128 0x9
 2759 04c4 04       		.byte	0x4
 2760 04c5 92040000 		.4byte	0x492
 2761 04c9 03       		.uleb128 0x3
 2762 04ca 65040000 		.4byte	.LASF64
 2763 04ce 0A       		.byte	0xa
 2764 04cf 33       		.byte	0x33
 2765 04d0 92040000 		.4byte	0x492
 2766 04d4 0E       		.uleb128 0xe
 2767 04d5 04       		.byte	0x4
 2768 04d6 07       		.byte	0x7
 2769 04d7 96       		.byte	0x96
 2770 04d8 09050000 		.4byte	0x509
 2771 04dc 0F       		.uleb128 0xf
 2772 04dd 18000000 		.4byte	.LASF68
 2773 04e1 07       		.byte	0x7
 2774 04e2 9D       		.byte	0x9d
 2775 04e3 3F010000 		.4byte	0x13f
 2776 04e7 0F       		.uleb128 0xf
 2777 04e8 9A000000 		.4byte	.LASF69
 2778 04ec 07       		.byte	0x7
 2779 04ed A4       		.byte	0xa4
ARM GAS  /tmp/cc57xKLi.s 			page 50


 2780 04ee 3F010000 		.4byte	0x13f
 2781 04f2 0F       		.uleb128 0xf
 2782 04f3 85070000 		.4byte	.LASF70
 2783 04f7 07       		.byte	0x7
 2784 04f8 AB       		.byte	0xab
 2785 04f9 DC020000 		.4byte	0x2dc
 2786 04fd 0F       		.uleb128 0xf
 2787 04fe A4050000 		.4byte	.LASF71
 2788 0502 07       		.byte	0x7
 2789 0503 B2       		.byte	0xb2
 2790 0504 4A010000 		.4byte	0x14a
 2791 0508 00       		.byte	0
 2792 0509 09       		.uleb128 0x9
 2793 050a 04       		.byte	0x4
 2794 050b 0F050000 		.4byte	0x50f
 2795 050f 10       		.uleb128 0x10
 2796 0510 14050000 		.4byte	0x514
 2797 0514 04       		.uleb128 0x4
 2798 0515 01       		.byte	0x1
 2799 0516 08       		.byte	0x8
 2800 0517 5B060000 		.4byte	.LASF72
 2801 051b 09       		.uleb128 0x9
 2802 051c 04       		.byte	0x4
 2803 051d DE020000 		.4byte	0x2de
 2804 0521 09       		.uleb128 0x9
 2805 0522 04       		.byte	0x4
 2806 0523 C9040000 		.4byte	0x4c9
 2807 0527 0D       		.uleb128 0xd
 2808 0528 D5000000 		.4byte	0xd5
 2809 052c 03       		.uleb128 0x3
 2810 052d 08000000 		.4byte	.LASF73
 2811 0531 0B       		.byte	0xb
 2812 0532 30       		.byte	0x30
 2813 0533 60010000 		.4byte	0x160
 2814 0537 08       		.uleb128 0x8
 2815 0538 10       		.byte	0x10
 2816 0539 0B       		.byte	0xb
 2817 053a 3D       		.byte	0x3d
 2818 053b 58050000 		.4byte	0x558
 2819 053f 07       		.uleb128 0x7
 2820 0540 73656D00 		.ascii	"sem\000"
 2821 0544 0B       		.byte	0xb
 2822 0545 3E       		.byte	0x3e
 2823 0546 87040000 		.4byte	0x487
 2824 054a 00       		.byte	0
 2825 054b 06       		.uleb128 0x6
 2826 054c A3000000 		.4byte	.LASF74
 2827 0550 0B       		.byte	0xb
 2828 0551 3F       		.byte	0x3f
 2829 0552 2C050000 		.4byte	0x52c
 2830 0556 0C       		.byte	0xc
 2831 0557 00       		.byte	0
 2832 0558 03       		.uleb128 0x3
 2833 0559 F9050000 		.4byte	.LASF75
 2834 055d 0B       		.byte	0xb
 2835 055e 40       		.byte	0x40
 2836 055f 37050000 		.4byte	0x537
ARM GAS  /tmp/cc57xKLi.s 			page 51


 2837 0563 03       		.uleb128 0x3
 2838 0564 7F070000 		.4byte	.LASF76
 2839 0568 0C       		.byte	0xc
 2840 0569 22       		.byte	0x22
 2841 056a 6E050000 		.4byte	0x56e
 2842 056e 11       		.uleb128 0x11
 2843 056f 7F070000 		.4byte	.LASF76
 2844 0573 05       		.uleb128 0x5
 2845 0574 EC070000 		.4byte	.LASF77
 2846 0578 04       		.byte	0x4
 2847 0579 0D       		.byte	0xd
 2848 057a 28       		.byte	0x28
 2849 057b 8C050000 		.4byte	0x58c
 2850 057f 06       		.uleb128 0x6
 2851 0580 B6000000 		.4byte	.LASF78
 2852 0584 0D       		.byte	0xd
 2853 0585 29       		.byte	0x29
 2854 0586 8C050000 		.4byte	0x58c
 2855 058a 00       		.byte	0
 2856 058b 00       		.byte	0
 2857 058c 09       		.uleb128 0x9
 2858 058d 04       		.byte	0x4
 2859 058e 73050000 		.4byte	0x573
 2860 0592 03       		.uleb128 0x3
 2861 0593 EC070000 		.4byte	.LASF77
 2862 0597 0D       		.byte	0xd
 2863 0598 2A       		.byte	0x2a
 2864 0599 73050000 		.4byte	0x573
 2865 059d 03       		.uleb128 0x3
 2866 059e DE010000 		.4byte	.LASF79
 2867 05a2 0E       		.byte	0xe
 2868 05a3 21       		.byte	0x21
 2869 05a4 CA000000 		.4byte	0xca
 2870 05a8 12       		.uleb128 0x12
 2871 05a9 CA020000 		.4byte	.LASF171
 2872 05ad 20       		.byte	0x20
 2873 05ae 0E       		.byte	0xe
 2874 05af 30       		.byte	0x30
 2875 05b0 CB050000 		.4byte	0x5cb
 2876 05b4 0F       		.uleb128 0xf
 2877 05b5 B4020000 		.4byte	.LASF80
 2878 05b9 0E       		.byte	0xe
 2879 05ba 31       		.byte	0x31
 2880 05bb 9D050000 		.4byte	0x59d
 2881 05bf 13       		.uleb128 0x13
 2882 05c0 70616400 		.ascii	"pad\000"
 2883 05c4 0E       		.byte	0xe
 2884 05c5 32       		.byte	0x32
 2885 05c6 CB050000 		.4byte	0x5cb
 2886 05ca 00       		.byte	0
 2887 05cb 14       		.uleb128 0x14
 2888 05cc 14050000 		.4byte	0x514
 2889 05d0 DB050000 		.4byte	0x5db
 2890 05d4 15       		.uleb128 0x15
 2891 05d5 56040000 		.4byte	0x456
 2892 05d9 1F       		.byte	0x1f
 2893 05da 00       		.byte	0
ARM GAS  /tmp/cc57xKLi.s 			page 52


 2894 05db 03       		.uleb128 0x3
 2895 05dc 5C010000 		.4byte	.LASF81
 2896 05e0 0E       		.byte	0xe
 2897 05e1 33       		.byte	0x33
 2898 05e2 A8050000 		.4byte	0x5a8
 2899 05e6 03       		.uleb128 0x3
 2900 05e7 97040000 		.4byte	.LASF82
 2901 05eb 0E       		.byte	0xe
 2902 05ec 36       		.byte	0x36
 2903 05ed F1050000 		.4byte	0x5f1
 2904 05f1 09       		.uleb128 0x9
 2905 05f2 04       		.byte	0x4
 2906 05f3 F7050000 		.4byte	0x5f7
 2907 05f7 16       		.uleb128 0x16
 2908 05f8 07060000 		.4byte	0x607
 2909 05fc 17       		.uleb128 0x17
 2910 05fd DC020000 		.4byte	0x2dc
 2911 0601 17       		.uleb128 0x17
 2912 0602 07060000 		.4byte	0x607
 2913 0606 00       		.byte	0
 2914 0607 09       		.uleb128 0x9
 2915 0608 04       		.byte	0x4
 2916 0609 DB050000 		.4byte	0x5db
 2917 060d 05       		.uleb128 0x5
 2918 060e E8050000 		.4byte	.LASF83
 2919 0612 3C       		.byte	0x3c
 2920 0613 0E       		.byte	0xe
 2921 0614 39       		.byte	0x39
 2922 0615 56060000 		.4byte	0x656
 2923 0619 06       		.uleb128 0x6
 2924 061a ED040000 		.4byte	.LASF84
 2925 061e 0E       		.byte	0xe
 2926 061f 3A       		.byte	0x3a
 2927 0620 58050000 		.4byte	0x558
 2928 0624 00       		.byte	0
 2929 0625 06       		.uleb128 0x6
 2930 0626 79070000 		.4byte	.LASF85
 2931 062a 0E       		.byte	0xe
 2932 062b 3B       		.byte	0x3b
 2933 062c CA000000 		.4byte	0xca
 2934 0630 10       		.byte	0x10
 2935 0631 06       		.uleb128 0x6
 2936 0632 B9020000 		.4byte	.LASF86
 2937 0636 0E       		.byte	0xe
 2938 0637 3C       		.byte	0x3c
 2939 0638 E6050000 		.4byte	0x5e6
 2940 063c 14       		.byte	0x14
 2941 063d 06       		.uleb128 0x6
 2942 063e 77040000 		.4byte	.LASF87
 2943 0642 0E       		.byte	0xe
 2944 0643 3D       		.byte	0x3d
 2945 0644 DC020000 		.4byte	0x2dc
 2946 0648 18       		.byte	0x18
 2947 0649 06       		.uleb128 0x6
 2948 064a 98020000 		.4byte	.LASF88
 2949 064e 0E       		.byte	0xe
 2950 064f 3E       		.byte	0x3e
ARM GAS  /tmp/cc57xKLi.s 			page 53


 2951 0650 DB050000 		.4byte	0x5db
 2952 0654 1C       		.byte	0x1c
 2953 0655 00       		.byte	0
 2954 0656 03       		.uleb128 0x3
 2955 0657 E8050000 		.4byte	.LASF83
 2956 065b 0E       		.byte	0xe
 2957 065c 3F       		.byte	0x3f
 2958 065d 0D060000 		.4byte	0x60d
 2959 0661 03       		.uleb128 0x3
 2960 0662 36000000 		.4byte	.LASF89
 2961 0666 0E       		.byte	0xe
 2962 0667 42       		.byte	0x42
 2963 0668 6C060000 		.4byte	0x66c
 2964 066c 11       		.uleb128 0x11
 2965 066d 29020000 		.4byte	.LASF90
 2966 0671 03       		.uleb128 0x3
 2967 0672 28000000 		.4byte	.LASF91
 2968 0676 0E       		.byte	0xe
 2969 0677 42       		.byte	0x42
 2970 0678 7C060000 		.4byte	0x67c
 2971 067c 09       		.uleb128 0x9
 2972 067d 04       		.byte	0x4
 2973 067e 6C060000 		.4byte	0x66c
 2974 0682 05       		.uleb128 0x5
 2975 0683 DA070000 		.4byte	.LASF92
 2976 0687 10       		.byte	0x10
 2977 0688 0E       		.byte	0xe
 2978 0689 45       		.byte	0x45
 2979 068a BF060000 		.4byte	0x6bf
 2980 068e 06       		.uleb128 0x6
 2981 068f C4060000 		.4byte	.LASF93
 2982 0693 0E       		.byte	0xe
 2983 0694 46       		.byte	0x46
 2984 0695 BF060000 		.4byte	0x6bf
 2985 0699 00       		.byte	0
 2986 069a 06       		.uleb128 0x6
 2987 069b 52000000 		.4byte	.LASF94
 2988 069f 0E       		.byte	0xe
 2989 06a0 47       		.byte	0x47
 2990 06a1 C5060000 		.4byte	0x6c5
 2991 06a5 04       		.byte	0x4
 2992 06a6 06       		.uleb128 0x6
 2993 06a7 3A070000 		.4byte	.LASF95
 2994 06ab 0E       		.byte	0xe
 2995 06ac 48       		.byte	0x48
 2996 06ad 33000000 		.4byte	0x33
 2997 06b1 08       		.byte	0x8
 2998 06b2 06       		.uleb128 0x6
 2999 06b3 70070000 		.4byte	.LASF96
 3000 06b7 0E       		.byte	0xe
 3001 06b8 49       		.byte	0x49
 3002 06b9 33000000 		.4byte	0x33
 3003 06bd 0C       		.byte	0xc
 3004 06be 00       		.byte	0
 3005 06bf 09       		.uleb128 0x9
 3006 06c0 04       		.byte	0x4
 3007 06c1 56060000 		.4byte	0x656
ARM GAS  /tmp/cc57xKLi.s 			page 54


 3008 06c5 09       		.uleb128 0x9
 3009 06c6 04       		.byte	0x4
 3010 06c7 61060000 		.4byte	0x661
 3011 06cb 03       		.uleb128 0x3
 3012 06cc A0070000 		.4byte	.LASF97
 3013 06d0 0E       		.byte	0xe
 3014 06d1 4A       		.byte	0x4a
 3015 06d2 82060000 		.4byte	0x682
 3016 06d6 03       		.uleb128 0x3
 3017 06d7 8A040000 		.4byte	.LASF98
 3018 06db 0F       		.byte	0xf
 3019 06dc 27       		.byte	0x27
 3020 06dd BF000000 		.4byte	0xbf
 3021 06e1 18       		.uleb128 0x18
 3022 06e2 00000000 		.4byte	.LASF172
 3023 06e6 01       		.byte	0x1
 3024 06e7 0F       		.byte	0xf
 3025 06e8 36       		.byte	0x36
 3026 06e9 00070000 		.4byte	0x700
 3027 06ed 19       		.uleb128 0x19
 3028 06ee 70060000 		.4byte	.LASF99
 3029 06f2 00       		.sleb128 0
 3030 06f3 19       		.uleb128 0x19
 3031 06f4 45010000 		.4byte	.LASF100
 3032 06f8 01       		.sleb128 1
 3033 06f9 19       		.uleb128 0x19
 3034 06fa 1E060000 		.4byte	.LASF101
 3035 06fe 02       		.sleb128 2
 3036 06ff 00       		.byte	0
 3037 0700 03       		.uleb128 0x3
 3038 0701 F7040000 		.4byte	.LASF102
 3039 0705 0F       		.byte	0xf
 3040 0706 3E       		.byte	0x3e
 3041 0707 0B070000 		.4byte	0x70b
 3042 070b 09       		.uleb128 0x9
 3043 070c 04       		.byte	0x4
 3044 070d 11070000 		.4byte	0x711
 3045 0711 10       		.uleb128 0x10
 3046 0712 16070000 		.4byte	0x716
 3047 0716 11       		.uleb128 0x11
 3048 0717 04030000 		.4byte	.LASF103
 3049 071b 03       		.uleb128 0x3
 3050 071c 0D050000 		.4byte	.LASF104
 3051 0720 0F       		.byte	0xf
 3052 0721 4D       		.byte	0x4d
 3053 0722 26070000 		.4byte	0x726
 3054 0726 11       		.uleb128 0x11
 3055 0727 0D050000 		.4byte	.LASF104
 3056 072b 1A       		.uleb128 0x1a
 3057 072c 0E030000 		.4byte	.LASF105
 3058 0730 10       		.byte	0x10
 3059 0731 9001     		.2byte	0x190
 3060 0733 CA000000 		.4byte	0xca
 3061 0737 03       		.uleb128 0x3
 3062 0738 CE040000 		.4byte	.LASF106
 3063 073c 11       		.byte	0x11
 3064 073d 18       		.byte	0x18
ARM GAS  /tmp/cc57xKLi.s 			page 55


 3065 073e CA000000 		.4byte	0xca
 3066 0742 03       		.uleb128 0x3
 3067 0743 12010000 		.4byte	.LASF107
 3068 0747 11       		.byte	0x11
 3069 0748 30       		.byte	0x30
 3070 0749 CA000000 		.4byte	0xca
 3071 074d 05       		.uleb128 0x5
 3072 074e 46070000 		.4byte	.LASF108
 3073 0752 18       		.byte	0x18
 3074 0753 11       		.byte	0x11
 3075 0754 66       		.byte	0x66
 3076 0755 B8070000 		.4byte	0x7b8
 3077 0759 06       		.uleb128 0x6
 3078 075a B4020000 		.4byte	.LASF80
 3079 075e 11       		.byte	0x11
 3080 075f 67       		.byte	0x67
 3081 0760 37070000 		.4byte	0x737
 3082 0764 00       		.byte	0
 3083 0765 06       		.uleb128 0x6
 3084 0766 79070000 		.4byte	.LASF85
 3085 076a 11       		.byte	0x11
 3086 076b 68       		.byte	0x68
 3087 076c 42070000 		.4byte	0x742
 3088 0770 02       		.byte	0x2
 3089 0771 06       		.uleb128 0x6
 3090 0772 E5040000 		.4byte	.LASF109
 3091 0776 11       		.byte	0x11
 3092 0777 69       		.byte	0x69
 3093 0778 2B070000 		.4byte	0x72b
 3094 077c 04       		.byte	0x4
 3095 077d 06       		.uleb128 0x6
 3096 077e 8A020000 		.4byte	.LASF110
 3097 0782 11       		.byte	0x11
 3098 0783 6A       		.byte	0x6a
 3099 0784 D6060000 		.4byte	0x6d6
 3100 0788 06       		.byte	0x6
 3101 0789 06       		.uleb128 0x6
 3102 078a CD070000 		.4byte	.LASF111
 3103 078e 11       		.byte	0x11
 3104 078f 6A       		.byte	0x6a
 3105 0790 D6060000 		.4byte	0x6d6
 3106 0794 08       		.byte	0x8
 3107 0795 07       		.uleb128 0x7
 3108 0796 6600     		.ascii	"f\000"
 3109 0798 11       		.byte	0x11
 3110 0799 6B       		.byte	0x6b
 3111 079a B8070000 		.4byte	0x7b8
 3112 079e 0C       		.byte	0xc
 3113 079f 07       		.uleb128 0x7
 3114 07a0 666E7300 		.ascii	"fns\000"
 3115 07a4 11       		.byte	0x11
 3116 07a5 70       		.byte	0x70
 3117 07a6 C3070000 		.4byte	0x7c3
 3118 07aa 10       		.byte	0x10
 3119 07ab 06       		.uleb128 0x6
 3120 07ac 92040000 		.4byte	.LASF112
 3121 07b0 11       		.byte	0x11
ARM GAS  /tmp/cc57xKLi.s 			page 56


 3122 07b1 71       		.byte	0x71
 3123 07b2 D3070000 		.4byte	0x7d3
 3124 07b6 14       		.byte	0x14
 3125 07b7 00       		.byte	0
 3126 07b8 09       		.uleb128 0x9
 3127 07b9 04       		.byte	0x4
 3128 07ba 63050000 		.4byte	0x563
 3129 07be 11       		.uleb128 0x11
 3130 07bf A9060000 		.4byte	.LASF113
 3131 07c3 09       		.uleb128 0x9
 3132 07c4 04       		.byte	0x4
 3133 07c5 C9070000 		.4byte	0x7c9
 3134 07c9 10       		.uleb128 0x10
 3135 07ca BE070000 		.4byte	0x7be
 3136 07ce 11       		.uleb128 0x11
 3137 07cf 53040000 		.4byte	.LASF114
 3138 07d3 09       		.uleb128 0x9
 3139 07d4 04       		.byte	0x4
 3140 07d5 CE070000 		.4byte	0x7ce
 3141 07d9 03       		.uleb128 0x3
 3142 07da 46070000 		.4byte	.LASF108
 3143 07de 11       		.byte	0x11
 3144 07df 72       		.byte	0x72
 3145 07e0 4D070000 		.4byte	0x74d
 3146 07e4 09       		.uleb128 0x9
 3147 07e5 04       		.byte	0x4
 3148 07e6 EA070000 		.4byte	0x7ea
 3149 07ea 05       		.uleb128 0x5
 3150 07eb CE060000 		.4byte	.LASF115
 3151 07ef 20       		.byte	0x20
 3152 07f0 12       		.byte	0x12
 3153 07f1 26       		.byte	0x26
 3154 07f2 77080000 		.4byte	0x877
 3155 07f6 07       		.uleb128 0x7
 3156 07f7 776D7100 		.ascii	"wmq\000"
 3157 07fb 12       		.byte	0x12
 3158 07fc 29       		.byte	0x29
 3159 07fd 92050000 		.4byte	0x592
 3160 0801 00       		.byte	0
 3161 0802 07       		.uleb128 0x7
 3162 0803 766D7400 		.ascii	"vmt\000"
 3163 0807 12       		.byte	0x12
 3164 0808 2B       		.byte	0x2b
 3165 0809 C0080000 		.4byte	0x8c0
 3166 080d 04       		.byte	0x4
 3167 080e 06       		.uleb128 0x6
 3168 080f FA010000 		.4byte	.LASF116
 3169 0813 12       		.byte	0x12
 3170 0814 2C       		.byte	0x2c
 3171 0815 CB080000 		.4byte	0x8cb
 3172 0819 08       		.byte	0x8
 3173 081a 07       		.uleb128 0x7
 3174 081b 7800     		.ascii	"x\000"
 3175 081d 12       		.byte	0x12
 3176 081e 2D       		.byte	0x2d
 3177 081f D6060000 		.4byte	0x6d6
 3178 0823 0C       		.byte	0xc
ARM GAS  /tmp/cc57xKLi.s 			page 57


 3179 0824 07       		.uleb128 0x7
 3180 0825 7900     		.ascii	"y\000"
 3181 0827 12       		.byte	0x12
 3182 0828 2D       		.byte	0x2d
 3183 0829 D6060000 		.4byte	0x6d6
 3184 082d 0E       		.byte	0xe
 3185 082e 06       		.uleb128 0x6
 3186 082f 8A020000 		.4byte	.LASF110
 3187 0833 12       		.byte	0x12
 3188 0834 2E       		.byte	0x2e
 3189 0835 D6060000 		.4byte	0x6d6
 3190 0839 10       		.byte	0x10
 3191 083a 06       		.uleb128 0x6
 3192 083b CD070000 		.4byte	.LASF111
 3193 083f 12       		.byte	0x12
 3194 0840 2E       		.byte	0x2e
 3195 0841 D6060000 		.4byte	0x6d6
 3196 0845 12       		.byte	0x12
 3197 0846 06       		.uleb128 0x6
 3198 0847 55060000 		.4byte	.LASF117
 3199 084b 12       		.byte	0x12
 3200 084c 2F       		.byte	0x2f
 3201 084d 2B070000 		.4byte	0x72b
 3202 0851 14       		.byte	0x14
 3203 0852 06       		.uleb128 0x6
 3204 0853 E5040000 		.4byte	.LASF109
 3205 0857 12       		.byte	0x12
 3206 0858 2F       		.byte	0x2f
 3207 0859 2B070000 		.4byte	0x72b
 3208 085d 16       		.byte	0x16
 3209 085e 06       		.uleb128 0x6
 3210 085f 79070000 		.4byte	.LASF85
 3211 0863 12       		.byte	0x12
 3212 0864 30       		.byte	0x30
 3213 0865 E0000000 		.4byte	0xe0
 3214 0869 18       		.byte	0x18
 3215 086a 06       		.uleb128 0x6
 3216 086b 35070000 		.4byte	.LASF118
 3217 086f 12       		.byte	0x12
 3218 0870 32       		.byte	0x32
 3219 0871 00070000 		.4byte	0x700
 3220 0875 1C       		.byte	0x1c
 3221 0876 00       		.byte	0
 3222 0877 05       		.uleb128 0x5
 3223 0878 33060000 		.4byte	.LASF119
 3224 087c 14       		.byte	0x14
 3225 087d 13       		.byte	0x13
 3226 087e 3B       		.byte	0x3b
 3227 087f C0080000 		.4byte	0x8c0
 3228 0883 06       		.uleb128 0x6
 3229 0884 48000000 		.4byte	.LASF120
 3230 0888 13       		.byte	0x13
 3231 0889 3C       		.byte	0x3c
 3232 088a 09050000 		.4byte	0x509
 3233 088e 00       		.byte	0
 3234 088f 06       		.uleb128 0x6
 3235 0890 9E020000 		.4byte	.LASF121
ARM GAS  /tmp/cc57xKLi.s 			page 58


 3236 0894 13       		.byte	0x13
 3237 0895 3D       		.byte	0x3d
 3238 0896 28000000 		.4byte	0x28
 3239 089a 04       		.byte	0x4
 3240 089b 06       		.uleb128 0x6
 3241 089c 4D060000 		.4byte	.LASF122
 3242 08a0 13       		.byte	0x13
 3243 08a1 3E       		.byte	0x3e
 3244 08a2 3D0B0000 		.4byte	0xb3d
 3245 08a6 08       		.byte	0x8
 3246 08a7 06       		.uleb128 0x6
 3247 08a8 A2060000 		.4byte	.LASF123
 3248 08ac 13       		.byte	0x13
 3249 08ad 3F       		.byte	0x3f
 3250 08ae 3D0B0000 		.4byte	0xb3d
 3251 08b2 0C       		.byte	0xc
 3252 08b3 06       		.uleb128 0x6
 3253 08b4 8F050000 		.4byte	.LASF124
 3254 08b8 13       		.byte	0x13
 3255 08b9 40       		.byte	0x40
 3256 08ba 3D0B0000 		.4byte	0xb3d
 3257 08be 10       		.byte	0x10
 3258 08bf 00       		.byte	0
 3259 08c0 09       		.uleb128 0x9
 3260 08c1 04       		.byte	0x4
 3261 08c2 C6080000 		.4byte	0x8c6
 3262 08c6 10       		.uleb128 0x10
 3263 08c7 77080000 		.4byte	0x877
 3264 08cb 09       		.uleb128 0x9
 3265 08cc 04       		.byte	0x4
 3266 08cd 1B070000 		.4byte	0x71b
 3267 08d1 03       		.uleb128 0x3
 3268 08d2 CE060000 		.4byte	.LASF115
 3269 08d6 12       		.byte	0x12
 3270 08d7 37       		.byte	0x37
 3271 08d8 EA070000 		.4byte	0x7ea
 3272 08dc 05       		.uleb128 0x5
 3273 08dd C2040000 		.4byte	.LASF125
 3274 08e1 0A       		.byte	0xa
 3275 08e2 12       		.byte	0x12
 3276 08e3 46       		.byte	0x46
 3277 08e4 21090000 		.4byte	0x921
 3278 08e8 07       		.uleb128 0x7
 3279 08e9 7800     		.ascii	"x\000"
 3280 08eb 12       		.byte	0x12
 3281 08ec 47       		.byte	0x47
 3282 08ed D6060000 		.4byte	0x6d6
 3283 08f1 00       		.byte	0
 3284 08f2 07       		.uleb128 0x7
 3285 08f3 7900     		.ascii	"y\000"
 3286 08f5 12       		.byte	0x12
 3287 08f6 47       		.byte	0x47
 3288 08f7 D6060000 		.4byte	0x6d6
 3289 08fb 02       		.byte	0x2
 3290 08fc 06       		.uleb128 0x6
 3291 08fd 8A020000 		.4byte	.LASF110
 3292 0901 12       		.byte	0x12
ARM GAS  /tmp/cc57xKLi.s 			page 59


 3293 0902 48       		.byte	0x48
 3294 0903 D6060000 		.4byte	0x6d6
 3295 0907 04       		.byte	0x4
 3296 0908 06       		.uleb128 0x6
 3297 0909 CD070000 		.4byte	.LASF111
 3298 090d 12       		.byte	0x12
 3299 090e 48       		.byte	0x48
 3300 090f D6060000 		.4byte	0x6d6
 3301 0913 06       		.byte	0x6
 3302 0914 06       		.uleb128 0x6
 3303 0915 F6000000 		.4byte	.LASF126
 3304 0919 12       		.byte	0x12
 3305 091a 49       		.byte	0x49
 3306 091b F6000000 		.4byte	0xf6
 3307 091f 08       		.byte	0x8
 3308 0920 00       		.byte	0
 3309 0921 03       		.uleb128 0x3
 3310 0922 C2040000 		.4byte	.LASF125
 3311 0926 12       		.byte	0x12
 3312 0927 4D       		.byte	0x4d
 3313 0928 DC080000 		.4byte	0x8dc
 3314 092c 05       		.uleb128 0x5
 3315 092d 5F000000 		.4byte	.LASF127
 3316 0931 08       		.byte	0x8
 3317 0932 14       		.byte	0x14
 3318 0933 23       		.byte	0x23
 3319 0934 69090000 		.4byte	0x969
 3320 0938 06       		.uleb128 0x6
 3321 0939 60060000 		.4byte	.LASF128
 3322 093d 14       		.byte	0x14
 3323 093e 24       		.byte	0x24
 3324 093f 2B070000 		.4byte	0x72b
 3325 0943 00       		.byte	0
 3326 0944 06       		.uleb128 0x6
 3327 0945 13000000 		.4byte	.LASF129
 3328 0949 14       		.byte	0x14
 3329 094a 25       		.byte	0x25
 3330 094b 2B070000 		.4byte	0x72b
 3331 094f 02       		.byte	0x2
 3332 0950 06       		.uleb128 0x6
 3333 0951 BD040000 		.4byte	.LASF130
 3334 0955 14       		.byte	0x14
 3335 0956 26       		.byte	0x26
 3336 0957 2B070000 		.4byte	0x72b
 3337 095b 04       		.byte	0x4
 3338 095c 06       		.uleb128 0x6
 3339 095d 02020000 		.4byte	.LASF131
 3340 0961 14       		.byte	0x14
 3341 0962 27       		.byte	0x27
 3342 0963 2B070000 		.4byte	0x72b
 3343 0967 06       		.byte	0x6
 3344 0968 00       		.byte	0
 3345 0969 03       		.uleb128 0x3
 3346 096a 5F000000 		.4byte	.LASF127
 3347 096e 14       		.byte	0x14
 3348 096f 28       		.byte	0x28
 3349 0970 2C090000 		.4byte	0x92c
ARM GAS  /tmp/cc57xKLi.s 			page 60


 3350 0974 05       		.uleb128 0x5
 3351 0975 8C070000 		.4byte	.LASF132
 3352 0979 1A       		.byte	0x1a
 3353 097a 14       		.byte	0x14
 3354 097b 32       		.byte	0x32
 3355 097c B1090000 		.4byte	0x9b1
 3356 0980 06       		.uleb128 0x6
 3357 0981 FE070000 		.4byte	.LASF133
 3358 0985 14       		.byte	0x14
 3359 0986 33       		.byte	0x33
 3360 0987 2B070000 		.4byte	0x72b
 3361 098b 00       		.byte	0
 3362 098c 06       		.uleb128 0x6
 3363 098d 2B060000 		.4byte	.LASF134
 3364 0991 14       		.byte	0x14
 3365 0992 34       		.byte	0x34
 3366 0993 69090000 		.4byte	0x969
 3367 0997 02       		.byte	0x2
 3368 0998 06       		.uleb128 0x6
 3369 0999 5C020000 		.4byte	.LASF135
 3370 099d 14       		.byte	0x14
 3371 099e 35       		.byte	0x35
 3372 099f 69090000 		.4byte	0x969
 3373 09a3 0A       		.byte	0xa
 3374 09a4 06       		.uleb128 0x6
 3375 09a5 2D070000 		.4byte	.LASF136
 3376 09a9 14       		.byte	0x14
 3377 09aa 36       		.byte	0x36
 3378 09ab 69090000 		.4byte	0x969
 3379 09af 12       		.byte	0x12
 3380 09b0 00       		.byte	0
 3381 09b1 03       		.uleb128 0x3
 3382 09b2 8C070000 		.4byte	.LASF132
 3383 09b6 14       		.byte	0x14
 3384 09b7 37       		.byte	0x37
 3385 09b8 74090000 		.4byte	0x974
 3386 09bc 03       		.uleb128 0x3
 3387 09bd CF050000 		.4byte	.LASF137
 3388 09c1 14       		.byte	0x14
 3389 09c2 49       		.byte	0x49
 3390 09c3 C7090000 		.4byte	0x9c7
 3391 09c7 09       		.uleb128 0x9
 3392 09c8 04       		.byte	0x4
 3393 09c9 CD090000 		.4byte	0x9cd
 3394 09cd 16       		.uleb128 0x16
 3395 09ce DD090000 		.4byte	0x9dd
 3396 09d2 17       		.uleb128 0x17
 3397 09d3 DD090000 		.4byte	0x9dd
 3398 09d7 17       		.uleb128 0x17
 3399 09d8 DC020000 		.4byte	0x2dc
 3400 09dc 00       		.byte	0
 3401 09dd 09       		.uleb128 0x9
 3402 09de 04       		.byte	0x4
 3403 09df E3090000 		.4byte	0x9e3
 3404 09e3 05       		.uleb128 0x5
 3405 09e4 D0010000 		.4byte	.LASF138
 3406 09e8 30       		.byte	0x30
ARM GAS  /tmp/cc57xKLi.s 			page 61


 3407 09e9 14       		.byte	0x14
 3408 09ea 73       		.byte	0x73
 3409 09eb 2A0A0000 		.4byte	0xa2a
 3410 09ef 07       		.uleb128 0x7
 3411 09f0 6700     		.ascii	"g\000"
 3412 09f2 14       		.byte	0x14
 3413 09f3 74       		.byte	0x74
 3414 09f4 D1080000 		.4byte	0x8d1
 3415 09f8 00       		.byte	0
 3416 09f9 06       		.uleb128 0x6
 3417 09fa 60060000 		.4byte	.LASF128
 3418 09fe 14       		.byte	0x14
 3419 09ff 75       		.byte	0x75
 3420 0a00 09050000 		.4byte	0x509
 3421 0a04 20       		.byte	0x20
 3422 0a05 06       		.uleb128 0x6
 3423 0a06 63010000 		.4byte	.LASF139
 3424 0a0a 14       		.byte	0x14
 3425 0a0b 76       		.byte	0x76
 3426 0a0c BC090000 		.4byte	0x9bc
 3427 0a10 24       		.byte	0x24
 3428 0a11 06       		.uleb128 0x6
 3429 0a12 73000000 		.4byte	.LASF140
 3430 0a16 14       		.byte	0x14
 3431 0a17 77       		.byte	0x77
 3432 0a18 DC020000 		.4byte	0x2dc
 3433 0a1c 28       		.byte	0x28
 3434 0a1d 06       		.uleb128 0x6
 3435 0a1e 83020000 		.4byte	.LASF141
 3436 0a22 14       		.byte	0x14
 3437 0a23 78       		.byte	0x78
 3438 0a24 710A0000 		.4byte	0xa71
 3439 0a28 2C       		.byte	0x2c
 3440 0a29 00       		.byte	0
 3441 0a2a 05       		.uleb128 0x5
 3442 0a2b E3060000 		.4byte	.LASF142
 3443 0a2f 1C       		.byte	0x1c
 3444 0a30 14       		.byte	0x14
 3445 0a31 5E       		.byte	0x5e
 3446 0a32 710A0000 		.4byte	0xa71
 3447 0a36 07       		.uleb128 0x7
 3448 0a37 6700     		.ascii	"g\000"
 3449 0a39 14       		.byte	0x14
 3450 0a3a 5F       		.byte	0x5f
 3451 0a3b 21090000 		.4byte	0x921
 3452 0a3f 00       		.byte	0
 3453 0a40 06       		.uleb128 0x6
 3454 0a41 60060000 		.4byte	.LASF128
 3455 0a45 14       		.byte	0x14
 3456 0a46 60       		.byte	0x60
 3457 0a47 09050000 		.4byte	0x509
 3458 0a4b 0C       		.byte	0xc
 3459 0a4c 06       		.uleb128 0x6
 3460 0a4d A3020000 		.4byte	.LASF143
 3461 0a51 14       		.byte	0x14
 3462 0a52 61       		.byte	0x61
 3463 0a53 BC090000 		.4byte	0x9bc
ARM GAS  /tmp/cc57xKLi.s 			page 62


 3464 0a57 10       		.byte	0x10
 3465 0a58 06       		.uleb128 0x6
 3466 0a59 6B040000 		.4byte	.LASF144
 3467 0a5d 14       		.byte	0x14
 3468 0a5e 62       		.byte	0x62
 3469 0a5f DC020000 		.4byte	0x2dc
 3470 0a63 14       		.byte	0x14
 3471 0a64 06       		.uleb128 0x6
 3472 0a65 16030000 		.4byte	.LASF145
 3473 0a69 14       		.byte	0x14
 3474 0a6a 63       		.byte	0x63
 3475 0a6b 710A0000 		.4byte	0xa71
 3476 0a6f 18       		.byte	0x18
 3477 0a70 00       		.byte	0
 3478 0a71 09       		.uleb128 0x9
 3479 0a72 04       		.byte	0x4
 3480 0a73 770A0000 		.4byte	0xa77
 3481 0a77 10       		.uleb128 0x10
 3482 0a78 B1090000 		.4byte	0x9b1
 3483 0a7c 03       		.uleb128 0x3
 3484 0a7d E3060000 		.4byte	.LASF142
 3485 0a81 14       		.byte	0x14
 3486 0a82 67       		.byte	0x67
 3487 0a83 2A0A0000 		.4byte	0xa2a
 3488 0a87 03       		.uleb128 0x3
 3489 0a88 D0010000 		.4byte	.LASF138
 3490 0a8c 14       		.byte	0x14
 3491 0a8d 7C       		.byte	0x7c
 3492 0a8e E3090000 		.4byte	0x9e3
 3493 0a92 05       		.uleb128 0x5
 3494 0a93 21080000 		.4byte	.LASF146
 3495 0a97 10       		.byte	0x10
 3496 0a98 15       		.byte	0x15
 3497 0a99 1D       		.byte	0x1d
 3498 0a9a CF0A0000 		.4byte	0xacf
 3499 0a9e 06       		.uleb128 0x6
 3500 0a9f B4020000 		.4byte	.LASF80
 3501 0aa3 15       		.byte	0x15
 3502 0aa4 1E       		.byte	0x1e
 3503 0aa5 9D050000 		.4byte	0x59d
 3504 0aa9 00       		.byte	0
 3505 0aaa 06       		.uleb128 0x6
 3506 0aab 68050000 		.4byte	.LASF147
 3507 0aaf 15       		.byte	0x15
 3508 0ab0 1F       		.byte	0x1f
 3509 0ab1 E4070000 		.4byte	0x7e4
 3510 0ab5 04       		.byte	0x4
 3511 0ab6 06       		.uleb128 0x6
 3512 0ab7 3C020000 		.4byte	.LASF148
 3513 0abb 15       		.byte	0x15
 3514 0abc 23       		.byte	0x23
 3515 0abd 21000000 		.4byte	0x21
 3516 0ac1 08       		.byte	0x8
 3517 0ac2 06       		.uleb128 0x6
 3518 0ac3 C0010000 		.4byte	.LASF149
 3519 0ac7 15       		.byte	0x15
 3520 0ac8 25       		.byte	0x25
ARM GAS  /tmp/cc57xKLi.s 			page 63


 3521 0ac9 B4000000 		.4byte	0xb4
 3522 0acd 0C       		.byte	0xc
 3523 0ace 00       		.byte	0
 3524 0acf 03       		.uleb128 0x3
 3525 0ad0 21080000 		.4byte	.LASF146
 3526 0ad4 15       		.byte	0x15
 3527 0ad5 2A       		.byte	0x2a
 3528 0ad6 920A0000 		.4byte	0xa92
 3529 0ada 05       		.uleb128 0x5
 3530 0adb EB020000 		.4byte	.LASF150
 3531 0adf 40       		.byte	0x40
 3532 0ae0 15       		.byte	0x15
 3533 0ae1 2F       		.byte	0x2f
 3534 0ae2 210B0000 		.4byte	0xb21
 3535 0ae6 07       		.uleb128 0x7
 3536 0ae7 7700     		.ascii	"w\000"
 3537 0ae9 15       		.byte	0x15
 3538 0aea 30       		.byte	0x30
 3539 0aeb 870A0000 		.4byte	0xa87
 3540 0aef 00       		.byte	0
 3541 0af0 06       		.uleb128 0x6
 3542 0af1 C2070000 		.4byte	.LASF151
 3543 0af5 15       		.byte	0x15
 3544 0af6 38       		.byte	0x38
 3545 0af7 D6060000 		.4byte	0x6d6
 3546 0afb 30       		.byte	0x30
 3547 0afc 07       		.uleb128 0x7
 3548 0afd 6D696E00 		.ascii	"min\000"
 3549 0b01 15       		.byte	0x15
 3550 0b02 39       		.byte	0x39
 3551 0b03 21000000 		.4byte	0x21
 3552 0b07 34       		.byte	0x34
 3553 0b08 07       		.uleb128 0x7
 3554 0b09 6D617800 		.ascii	"max\000"
 3555 0b0d 15       		.byte	0x15
 3556 0b0e 3A       		.byte	0x3a
 3557 0b0f 21000000 		.4byte	0x21
 3558 0b13 38       		.byte	0x38
 3559 0b14 07       		.uleb128 0x7
 3560 0b15 706F7300 		.ascii	"pos\000"
 3561 0b19 15       		.byte	0x15
 3562 0b1a 3B       		.byte	0x3b
 3563 0b1b 21000000 		.4byte	0x21
 3564 0b1f 3C       		.byte	0x3c
 3565 0b20 00       		.byte	0
 3566 0b21 03       		.uleb128 0x3
 3567 0b22 EB020000 		.4byte	.LASF150
 3568 0b26 15       		.byte	0x15
 3569 0b27 3C       		.byte	0x3c
 3570 0b28 DA0A0000 		.4byte	0xada
 3571 0b2c 16       		.uleb128 0x16
 3572 0b2d 370B0000 		.4byte	0xb37
 3573 0b31 17       		.uleb128 0x17
 3574 0b32 370B0000 		.4byte	0xb37
 3575 0b36 00       		.byte	0
 3576 0b37 09       		.uleb128 0x9
 3577 0b38 04       		.byte	0x4
ARM GAS  /tmp/cc57xKLi.s 			page 64


 3578 0b39 D1080000 		.4byte	0x8d1
 3579 0b3d 09       		.uleb128 0x9
 3580 0b3e 04       		.byte	0x4
 3581 0b3f 2C0B0000 		.4byte	0xb2c
 3582 0b43 03       		.uleb128 0x3
 3583 0b44 33060000 		.4byte	.LASF119
 3584 0b48 13       		.byte	0x13
 3585 0b49 41       		.byte	0x41
 3586 0b4a 77080000 		.4byte	0x877
 3587 0b4e 08       		.uleb128 0x8
 3588 0b4f 0C       		.byte	0xc
 3589 0b50 13       		.byte	0x13
 3590 0b51 5D       		.byte	0x5d
 3591 0b52 7B0B0000 		.4byte	0xb7b
 3592 0b56 06       		.uleb128 0x6
 3593 0b57 69000000 		.4byte	.LASF152
 3594 0b5b 13       		.byte	0x13
 3595 0b5c 5E       		.byte	0x5e
 3596 0b5d 960B0000 		.4byte	0xb96
 3597 0b61 00       		.byte	0
 3598 0b62 06       		.uleb128 0x6
 3599 0b63 92000000 		.4byte	.LASF153
 3600 0b67 13       		.byte	0x13
 3601 0b68 5F       		.byte	0x5f
 3602 0b69 960B0000 		.4byte	0xb96
 3603 0b6d 04       		.byte	0x4
 3604 0b6e 06       		.uleb128 0x6
 3605 0b6f B8070000 		.4byte	.LASF154
 3606 0b73 13       		.byte	0x13
 3607 0b74 60       		.byte	0x60
 3608 0b75 960B0000 		.4byte	0xb96
 3609 0b79 08       		.byte	0x8
 3610 0b7a 00       		.byte	0
 3611 0b7b 16       		.uleb128 0x16
 3612 0b7c 900B0000 		.4byte	0xb90
 3613 0b80 17       		.uleb128 0x17
 3614 0b81 900B0000 		.4byte	0xb90
 3615 0b85 17       		.uleb128 0x17
 3616 0b86 D6060000 		.4byte	0x6d6
 3617 0b8a 17       		.uleb128 0x17
 3618 0b8b D6060000 		.4byte	0x6d6
 3619 0b8f 00       		.byte	0
 3620 0b90 09       		.uleb128 0x9
 3621 0b91 04       		.byte	0x4
 3622 0b92 870A0000 		.4byte	0xa87
 3623 0b96 09       		.uleb128 0x9
 3624 0b97 04       		.byte	0x4
 3625 0b98 7B0B0000 		.4byte	0xb7b
 3626 0b9c 05       		.uleb128 0x5
 3627 0b9d 7A010000 		.4byte	.LASF155
 3628 0ba1 24       		.byte	0x24
 3629 0ba2 13       		.byte	0x13
 3630 0ba3 59       		.byte	0x59
 3631 0ba4 C50B0000 		.4byte	0xbc5
 3632 0ba8 07       		.uleb128 0x7
 3633 0ba9 6700     		.ascii	"g\000"
 3634 0bab 13       		.byte	0x13
ARM GAS  /tmp/cc57xKLi.s 			page 65


 3635 0bac 5A       		.byte	0x5a
 3636 0bad 77080000 		.4byte	0x877
 3637 0bb1 00       		.byte	0
 3638 0bb2 06       		.uleb128 0x6
 3639 0bb3 1A070000 		.4byte	.LASF156
 3640 0bb7 13       		.byte	0x13
 3641 0bb8 5B       		.byte	0x5b
 3642 0bb9 D50B0000 		.4byte	0xbd5
 3643 0bbd 14       		.byte	0x14
 3644 0bbe 1B       		.uleb128 0x1b
 3645 0bbf 4E0B0000 		.4byte	0xb4e
 3646 0bc3 18       		.byte	0x18
 3647 0bc4 00       		.byte	0
 3648 0bc5 16       		.uleb128 0x16
 3649 0bc6 D50B0000 		.4byte	0xbd5
 3650 0bca 17       		.uleb128 0x17
 3651 0bcb 900B0000 		.4byte	0xb90
 3652 0bcf 17       		.uleb128 0x17
 3653 0bd0 DC020000 		.4byte	0x2dc
 3654 0bd4 00       		.byte	0
 3655 0bd5 09       		.uleb128 0x9
 3656 0bd6 04       		.byte	0x4
 3657 0bd7 C50B0000 		.4byte	0xbc5
 3658 0bdb 03       		.uleb128 0x3
 3659 0bdc 7A010000 		.4byte	.LASF155
 3660 0be0 13       		.byte	0x13
 3661 0be1 74       		.byte	0x74
 3662 0be2 9C0B0000 		.4byte	0xb9c
 3663 0be6 1C       		.uleb128 0x1c
 3664 0be7 05070000 		.4byte	.LASF173
 3665 0beb 01       		.byte	0x1
 3666 0bec 16       		.byte	0x16
 3667 0bed 21000000 		.4byte	0x21
 3668 0bf1 00000000 		.4byte	.LFB111
 3669 0bf5 18010000 		.4byte	.LFE111-.LFB111
 3670 0bf9 01       		.uleb128 0x1
 3671 0bfa 9C       		.byte	0x9c
 3672 0bfb 1C0C0000 		.4byte	0xc1c
 3673 0bff 1D       		.uleb128 0x1d
 3674 0c00 67737700 		.ascii	"gsw\000"
 3675 0c04 01       		.byte	0x1
 3676 0c05 16       		.byte	0x16
 3677 0c06 1C0C0000 		.4byte	0xc1c
 3678 0c0a 02       		.uleb128 0x2
 3679 0c0b 91       		.byte	0x91
 3680 0c0c 74       		.sleb128 -12
 3681 0c0d 1E       		.uleb128 0x1e
 3682 0c0e 90020000 		.4byte	.LASF157
 3683 0c12 01       		.byte	0x1
 3684 0c13 17       		.byte	0x17
 3685 0c14 21000000 		.4byte	0x21
 3686 0c18 02       		.uleb128 0x2
 3687 0c19 91       		.byte	0x91
 3688 0c1a 7C       		.sleb128 -4
 3689 0c1b 00       		.byte	0
 3690 0c1c 09       		.uleb128 0x9
 3691 0c1d 04       		.byte	0x4
ARM GAS  /tmp/cc57xKLi.s 			page 66


 3692 0c1e 210B0000 		.4byte	0xb21
 3693 0c22 1F       		.uleb128 0x1f
 3694 0c23 22010000 		.4byte	.LASF158
 3695 0c27 01       		.byte	0x1
 3696 0c28 2F       		.byte	0x2f
 3697 0c29 00000000 		.4byte	.LFB112
 3698 0c2d A4000000 		.4byte	.LFE112-.LFB112
 3699 0c31 01       		.uleb128 0x1
 3700 0c32 9C       		.byte	0x9c
 3701 0c33 6F0C0000 		.4byte	0xc6f
 3702 0c37 1D       		.uleb128 0x1d
 3703 0c38 67737700 		.ascii	"gsw\000"
 3704 0c3c 01       		.byte	0x1
 3705 0c3d 2F       		.byte	0x2f
 3706 0c3e 1C0C0000 		.4byte	0xc1c
 3707 0c42 02       		.uleb128 0x2
 3708 0c43 91       		.byte	0x91
 3709 0c44 6C       		.sleb128 -20
 3710 0c45 20       		.uleb128 0x20
 3711 0c46 C0010000 		.4byte	.LASF149
 3712 0c4a 01       		.byte	0x1
 3713 0c4b 2F       		.byte	0x2f
 3714 0c4c B4000000 		.4byte	0xb4
 3715 0c50 02       		.uleb128 0x2
 3716 0c51 91       		.byte	0x91
 3717 0c52 6B       		.sleb128 -21
 3718 0c53 21       		.uleb128 0x21
 3719 0c54 70736C00 		.ascii	"psl\000"
 3720 0c58 01       		.byte	0x1
 3721 0c59 30       		.byte	0x30
 3722 0c5a 6F0C0000 		.4byte	0xc6f
 3723 0c5e 02       		.uleb128 0x2
 3724 0c5f 91       		.byte	0x91
 3725 0c60 74       		.sleb128 -12
 3726 0c61 21       		.uleb128 0x21
 3727 0c62 706500   		.ascii	"pe\000"
 3728 0c65 01       		.byte	0x1
 3729 0c66 31       		.byte	0x31
 3730 0c67 07060000 		.4byte	0x607
 3731 0c6b 02       		.uleb128 0x2
 3732 0c6c 91       		.byte	0x91
 3733 0c6d 70       		.sleb128 -16
 3734 0c6e 00       		.byte	0
 3735 0c6f 09       		.uleb128 0x9
 3736 0c70 04       		.byte	0x4
 3737 0c71 CB060000 		.4byte	0x6cb
 3738 0c75 22       		.uleb128 0x22
 3739 0c76 4C020000 		.4byte	.LASF159
 3740 0c7a 01       		.byte	0x1
 3741 0c7b 58       		.byte	0x58
 3742 0c7c 00000000 		.4byte	.LFB113
 3743 0c80 7E000000 		.4byte	.LFE113-.LFB113
 3744 0c84 01       		.uleb128 0x1
 3745 0c85 9C       		.byte	0x9c
 3746 0c86 990C0000 		.4byte	0xc99
 3747 0c8a 1D       		.uleb128 0x1d
 3748 0c8b 67737700 		.ascii	"gsw\000"
ARM GAS  /tmp/cc57xKLi.s 			page 67


 3749 0c8f 01       		.byte	0x1
 3750 0c90 58       		.byte	0x58
 3751 0c91 1C0C0000 		.4byte	0xc1c
 3752 0c95 02       		.uleb128 0x2
 3753 0c96 91       		.byte	0x91
 3754 0c97 7C       		.sleb128 -4
 3755 0c98 00       		.byte	0
 3756 0c99 22       		.uleb128 0x22
 3757 0c9a 59070000 		.4byte	.LASF160
 3758 0c9e 01       		.byte	0x1
 3759 0c9f 61       		.byte	0x61
 3760 0ca0 00000000 		.4byte	.LFB114
 3761 0ca4 8A000000 		.4byte	.LFE114-.LFB114
 3762 0ca8 01       		.uleb128 0x1
 3763 0ca9 9C       		.byte	0x9c
 3764 0caa D50C0000 		.4byte	0xcd5
 3765 0cae 1D       		.uleb128 0x1d
 3766 0caf 67737700 		.ascii	"gsw\000"
 3767 0cb3 01       		.byte	0x1
 3768 0cb4 61       		.byte	0x61
 3769 0cb5 1C0C0000 		.4byte	0xc1c
 3770 0cb9 02       		.uleb128 0x2
 3771 0cba 91       		.byte	0x91
 3772 0cbb 7C       		.sleb128 -4
 3773 0cbc 1D       		.uleb128 0x1d
 3774 0cbd 7800     		.ascii	"x\000"
 3775 0cbf 01       		.byte	0x1
 3776 0cc0 61       		.byte	0x61
 3777 0cc1 D6060000 		.4byte	0x6d6
 3778 0cc5 02       		.uleb128 0x2
 3779 0cc6 91       		.byte	0x91
 3780 0cc7 7A       		.sleb128 -6
 3781 0cc8 1D       		.uleb128 0x1d
 3782 0cc9 7900     		.ascii	"y\000"
 3783 0ccb 01       		.byte	0x1
 3784 0ccc 61       		.byte	0x61
 3785 0ccd D6060000 		.4byte	0x6d6
 3786 0cd1 02       		.uleb128 0x2
 3787 0cd2 91       		.byte	0x91
 3788 0cd3 78       		.sleb128 -8
 3789 0cd4 00       		.byte	0
 3790 0cd5 1F       		.uleb128 0x1f
 3791 0cd6 92000000 		.4byte	.LASF153
 3792 0cda 01       		.byte	0x1
 3793 0cdb 69       		.byte	0x69
 3794 0cdc 00000000 		.4byte	.LFB115
 3795 0ce0 4C000000 		.4byte	.LFE115-.LFB115
 3796 0ce4 01       		.uleb128 0x1
 3797 0ce5 9C       		.byte	0x9c
 3798 0ce6 100D0000 		.4byte	0xd10
 3799 0cea 1D       		.uleb128 0x1d
 3800 0ceb 677700   		.ascii	"gw\000"
 3801 0cee 01       		.byte	0x1
 3802 0cef 69       		.byte	0x69
 3803 0cf0 900B0000 		.4byte	0xb90
 3804 0cf4 02       		.uleb128 0x2
 3805 0cf5 91       		.byte	0x91
ARM GAS  /tmp/cc57xKLi.s 			page 68


 3806 0cf6 74       		.sleb128 -12
 3807 0cf7 1D       		.uleb128 0x1d
 3808 0cf8 7800     		.ascii	"x\000"
 3809 0cfa 01       		.byte	0x1
 3810 0cfb 69       		.byte	0x69
 3811 0cfc D6060000 		.4byte	0x6d6
 3812 0d00 02       		.uleb128 0x2
 3813 0d01 91       		.byte	0x91
 3814 0d02 72       		.sleb128 -14
 3815 0d03 1D       		.uleb128 0x1d
 3816 0d04 7900     		.ascii	"y\000"
 3817 0d06 01       		.byte	0x1
 3818 0d07 69       		.byte	0x69
 3819 0d08 D6060000 		.4byte	0x6d6
 3820 0d0c 02       		.uleb128 0x2
 3821 0d0d 91       		.byte	0x91
 3822 0d0e 70       		.sleb128 -16
 3823 0d0f 00       		.byte	0
 3824 0d10 1F       		.uleb128 0x1f
 3825 0d11 69000000 		.4byte	.LASF152
 3826 0d15 01       		.byte	0x1
 3827 0d16 95       		.byte	0x95
 3828 0d17 00000000 		.4byte	.LFB116
 3829 0d1b 3A000000 		.4byte	.LFE116-.LFB116
 3830 0d1f 01       		.uleb128 0x1
 3831 0d20 9C       		.byte	0x9c
 3832 0d21 4B0D0000 		.4byte	0xd4b
 3833 0d25 1D       		.uleb128 0x1d
 3834 0d26 677700   		.ascii	"gw\000"
 3835 0d29 01       		.byte	0x1
 3836 0d2a 95       		.byte	0x95
 3837 0d2b 900B0000 		.4byte	0xb90
 3838 0d2f 02       		.uleb128 0x2
 3839 0d30 91       		.byte	0x91
 3840 0d31 74       		.sleb128 -12
 3841 0d32 1D       		.uleb128 0x1d
 3842 0d33 7800     		.ascii	"x\000"
 3843 0d35 01       		.byte	0x1
 3844 0d36 95       		.byte	0x95
 3845 0d37 D6060000 		.4byte	0x6d6
 3846 0d3b 02       		.uleb128 0x2
 3847 0d3c 91       		.byte	0x91
 3848 0d3d 72       		.sleb128 -14
 3849 0d3e 1D       		.uleb128 0x1d
 3850 0d3f 7900     		.ascii	"y\000"
 3851 0d41 01       		.byte	0x1
 3852 0d42 95       		.byte	0x95
 3853 0d43 D6060000 		.4byte	0x6d6
 3854 0d47 02       		.uleb128 0x2
 3855 0d48 91       		.byte	0x91
 3856 0d49 70       		.sleb128 -16
 3857 0d4a 00       		.byte	0
 3858 0d4b 1F       		.uleb128 0x1f
 3859 0d4c B8070000 		.4byte	.LASF154
 3860 0d50 01       		.byte	0x1
 3861 0d51 A5       		.byte	0xa5
 3862 0d52 00000000 		.4byte	.LFB117
ARM GAS  /tmp/cc57xKLi.s 			page 69


 3863 0d56 3A000000 		.4byte	.LFE117-.LFB117
 3864 0d5a 01       		.uleb128 0x1
 3865 0d5b 9C       		.byte	0x9c
 3866 0d5c 860D0000 		.4byte	0xd86
 3867 0d60 1D       		.uleb128 0x1d
 3868 0d61 677700   		.ascii	"gw\000"
 3869 0d64 01       		.byte	0x1
 3870 0d65 A5       		.byte	0xa5
 3871 0d66 900B0000 		.4byte	0xb90
 3872 0d6a 02       		.uleb128 0x2
 3873 0d6b 91       		.byte	0x91
 3874 0d6c 74       		.sleb128 -12
 3875 0d6d 1D       		.uleb128 0x1d
 3876 0d6e 7800     		.ascii	"x\000"
 3877 0d70 01       		.byte	0x1
 3878 0d71 A5       		.byte	0xa5
 3879 0d72 D6060000 		.4byte	0x6d6
 3880 0d76 02       		.uleb128 0x2
 3881 0d77 91       		.byte	0x91
 3882 0d78 72       		.sleb128 -14
 3883 0d79 1D       		.uleb128 0x1d
 3884 0d7a 7900     		.ascii	"y\000"
 3885 0d7c 01       		.byte	0x1
 3886 0d7d A5       		.byte	0xa5
 3887 0d7e D6060000 		.4byte	0x6d6
 3888 0d82 02       		.uleb128 0x2
 3889 0d83 91       		.byte	0x91
 3890 0d84 70       		.sleb128 -16
 3891 0d85 00       		.byte	0
 3892 0d86 23       		.uleb128 0x23
 3893 0d87 C2000000 		.4byte	.LASF174
 3894 0d8b 01       		.byte	0x1
 3895 0d8c 1001     		.2byte	0x110
 3896 0d8e E4070000 		.4byte	0x7e4
 3897 0d92 00000000 		.4byte	.LFB118
 3898 0d96 58000000 		.4byte	.LFE118-.LFB118
 3899 0d9a 01       		.uleb128 0x1
 3900 0d9b 9C       		.byte	0x9c
 3901 0d9c CB0D0000 		.4byte	0xdcb
 3902 0da0 24       		.uleb128 0x24
 3903 0da1 6700     		.ascii	"g\000"
 3904 0da3 01       		.byte	0x1
 3905 0da4 1001     		.2byte	0x110
 3906 0da6 CB080000 		.4byte	0x8cb
 3907 0daa 02       		.uleb128 0x2
 3908 0dab 91       		.byte	0x91
 3909 0dac 74       		.sleb128 -12
 3910 0dad 24       		.uleb128 0x24
 3911 0dae 677300   		.ascii	"gs\000"
 3912 0db1 01       		.byte	0x1
 3913 0db2 1001     		.2byte	0x110
 3914 0db4 1C0C0000 		.4byte	0xc1c
 3915 0db8 02       		.uleb128 0x2
 3916 0db9 91       		.byte	0x91
 3917 0dba 70       		.sleb128 -16
 3918 0dbb 25       		.uleb128 0x25
 3919 0dbc D4070000 		.4byte	.LASF161
ARM GAS  /tmp/cc57xKLi.s 			page 70


 3920 0dc0 01       		.byte	0x1
 3921 0dc1 1001     		.2byte	0x110
 3922 0dc3 CB0D0000 		.4byte	0xdcb
 3923 0dc7 02       		.uleb128 0x2
 3924 0dc8 91       		.byte	0x91
 3925 0dc9 6C       		.sleb128 -20
 3926 0dca 00       		.byte	0
 3927 0dcb 09       		.uleb128 0x9
 3928 0dcc 04       		.byte	0x4
 3929 0dcd D10D0000 		.4byte	0xdd1
 3930 0dd1 10       		.uleb128 0x10
 3931 0dd2 7C0A0000 		.4byte	0xa7c
 3932 0dd6 26       		.uleb128 0x26
 3933 0dd7 22030000 		.4byte	.LASF162
 3934 0ddb 01       		.byte	0x1
 3935 0ddc 2201     		.2byte	0x122
 3936 0dde 00000000 		.4byte	.LFB119
 3937 0de2 48000000 		.4byte	.LFE119-.LFB119
 3938 0de6 01       		.uleb128 0x1
 3939 0de7 9C       		.byte	0x9c
 3940 0de8 190E0000 		.4byte	0xe19
 3941 0dec 24       		.uleb128 0x24
 3942 0ded 676800   		.ascii	"gh\000"
 3943 0df0 01       		.byte	0x1
 3944 0df1 2201     		.2byte	0x122
 3945 0df3 E4070000 		.4byte	0x7e4
 3946 0df7 02       		.uleb128 0x2
 3947 0df8 91       		.byte	0x91
 3948 0df9 74       		.sleb128 -12
 3949 0dfa 24       		.uleb128 0x24
 3950 0dfb 6D696E00 		.ascii	"min\000"
 3951 0dff 01       		.byte	0x1
 3952 0e00 2201     		.2byte	0x122
 3953 0e02 21000000 		.4byte	0x21
 3954 0e06 02       		.uleb128 0x2
 3955 0e07 91       		.byte	0x91
 3956 0e08 70       		.sleb128 -16
 3957 0e09 24       		.uleb128 0x24
 3958 0e0a 6D617800 		.ascii	"max\000"
 3959 0e0e 01       		.byte	0x1
 3960 0e0f 2201     		.2byte	0x122
 3961 0e11 21000000 		.4byte	0x21
 3962 0e15 02       		.uleb128 0x2
 3963 0e16 91       		.byte	0x91
 3964 0e17 6C       		.sleb128 -20
 3965 0e18 00       		.byte	0
 3966 0e19 26       		.uleb128 0x26
 3967 0e1a EF060000 		.4byte	.LASF163
 3968 0e1e 01       		.byte	0x1
 3969 0e1f 3101     		.2byte	0x131
 3970 0e21 00000000 		.4byte	.LFB120
 3971 0e25 94000000 		.4byte	.LFE120-.LFB120
 3972 0e29 01       		.uleb128 0x1
 3973 0e2a 9C       		.byte	0x9c
 3974 0e2b 4D0E0000 		.4byte	0xe4d
 3975 0e2f 24       		.uleb128 0x24
 3976 0e30 676800   		.ascii	"gh\000"
ARM GAS  /tmp/cc57xKLi.s 			page 71


 3977 0e33 01       		.byte	0x1
 3978 0e34 3101     		.2byte	0x131
 3979 0e36 E4070000 		.4byte	0x7e4
 3980 0e3a 02       		.uleb128 0x2
 3981 0e3b 91       		.byte	0x91
 3982 0e3c 74       		.sleb128 -12
 3983 0e3d 24       		.uleb128 0x24
 3984 0e3e 706F7300 		.ascii	"pos\000"
 3985 0e42 01       		.byte	0x1
 3986 0e43 3101     		.2byte	0x131
 3987 0e45 21000000 		.4byte	0x21
 3988 0e49 02       		.uleb128 0x2
 3989 0e4a 91       		.byte	0x91
 3990 0e4b 70       		.sleb128 -16
 3991 0e4c 00       		.byte	0
 3992 0e4d 27       		.uleb128 0x27
 3993 0e4e 98010000 		.4byte	.LASF164
 3994 0e52 01       		.byte	0x1
 3995 0e53 4601     		.2byte	0x146
 3996 0e55 00000000 		.4byte	.LFB121
 3997 0e59 40000000 		.4byte	.LFE121-.LFB121
 3998 0e5d 01       		.uleb128 0x1
 3999 0e5e 9C       		.byte	0x9c
 4000 0e5f 810E0000 		.4byte	0xe81
 4001 0e63 24       		.uleb128 0x24
 4002 0e64 676800   		.ascii	"gh\000"
 4003 0e67 01       		.byte	0x1
 4004 0e68 4601     		.2byte	0x146
 4005 0e6a E4070000 		.4byte	0x7e4
 4006 0e6e 02       		.uleb128 0x2
 4007 0e6f 91       		.byte	0x91
 4008 0e70 7C       		.sleb128 -4
 4009 0e71 25       		.uleb128 0x25
 4010 0e72 2B060000 		.4byte	.LASF134
 4011 0e76 01       		.byte	0x1
 4012 0e77 4601     		.2byte	0x146
 4013 0e79 F6000000 		.4byte	0xf6
 4014 0e7d 02       		.uleb128 0x2
 4015 0e7e 91       		.byte	0x91
 4016 0e7f 7B       		.sleb128 -5
 4017 0e80 00       		.byte	0
 4018 0e81 26       		.uleb128 0x26
 4019 0e82 70020000 		.4byte	.LASF165
 4020 0e86 01       		.byte	0x1
 4021 0e87 5401     		.2byte	0x154
 4022 0e89 00000000 		.4byte	.LFB122
 4023 0e8d 9E040000 		.4byte	.LFE122-.LFB122
 4024 0e91 01       		.uleb128 0x1
 4025 0e92 9C       		.byte	0x9c
 4026 0e93 C40E0000 		.4byte	0xec4
 4027 0e97 24       		.uleb128 0x24
 4028 0e98 677700   		.ascii	"gw\000"
 4029 0e9b 01       		.byte	0x1
 4030 0e9c 5401     		.2byte	0x154
 4031 0e9e 900B0000 		.4byte	0xb90
 4032 0ea2 02       		.uleb128 0x2
 4033 0ea3 91       		.byte	0x91
ARM GAS  /tmp/cc57xKLi.s 			page 72


 4034 0ea4 5C       		.sleb128 -36
 4035 0ea5 25       		.uleb128 0x25
 4036 0ea6 77040000 		.4byte	.LASF87
 4037 0eaa 01       		.byte	0x1
 4038 0eab 5401     		.2byte	0x154
 4039 0ead DC020000 		.4byte	0x2dc
 4040 0eb1 02       		.uleb128 0x2
 4041 0eb2 91       		.byte	0x91
 4042 0eb3 58       		.sleb128 -40
 4043 0eb4 28       		.uleb128 0x28
 4044 0eb5 5A000000 		.4byte	.LASF166
 4045 0eb9 01       		.byte	0x1
 4046 0eba 5601     		.2byte	0x156
 4047 0ebc C40E0000 		.4byte	0xec4
 4048 0ec0 02       		.uleb128 0x2
 4049 0ec1 91       		.byte	0x91
 4050 0ec2 64       		.sleb128 -28
 4051 0ec3 00       		.byte	0
 4052 0ec4 09       		.uleb128 0x9
 4053 0ec5 04       		.byte	0x4
 4054 0ec6 CA0E0000 		.4byte	0xeca
 4055 0eca 10       		.uleb128 0x10
 4056 0ecb 69090000 		.4byte	0x969
 4057 0ecf 26       		.uleb128 0x26
 4058 0ed0 BA050000 		.4byte	.LASF167
 4059 0ed4 01       		.byte	0x1
 4060 0ed5 8001     		.2byte	0x180
 4061 0ed7 00000000 		.4byte	.LFB123
 4062 0edb B2030000 		.4byte	.LFE123-.LFB123
 4063 0edf 01       		.uleb128 0x1
 4064 0ee0 9C       		.byte	0x9c
 4065 0ee1 2C0F0000 		.4byte	0xf2c
 4066 0ee5 24       		.uleb128 0x24
 4067 0ee6 677700   		.ascii	"gw\000"
 4068 0ee9 01       		.byte	0x1
 4069 0eea 8001     		.2byte	0x180
 4070 0eec 900B0000 		.4byte	0xb90
 4071 0ef0 02       		.uleb128 0x2
 4072 0ef1 91       		.byte	0x91
 4073 0ef2 5C       		.sleb128 -36
 4074 0ef3 25       		.uleb128 0x25
 4075 0ef4 77040000 		.4byte	.LASF87
 4076 0ef8 01       		.byte	0x1
 4077 0ef9 8001     		.2byte	0x180
 4078 0efb DC020000 		.4byte	0x2dc
 4079 0eff 02       		.uleb128 0x2
 4080 0f00 91       		.byte	0x91
 4081 0f01 58       		.sleb128 -40
 4082 0f02 28       		.uleb128 0x28
 4083 0f03 5A000000 		.4byte	.LASF166
 4084 0f07 01       		.byte	0x1
 4085 0f08 8301     		.2byte	0x183
 4086 0f0a C40E0000 		.4byte	0xec4
 4087 0f0e 02       		.uleb128 0x2
 4088 0f0f 91       		.byte	0x91
 4089 0f10 64       		.sleb128 -28
 4090 0f11 29       		.uleb128 0x29
ARM GAS  /tmp/cc57xKLi.s 			page 73


 4091 0f12 7A00     		.ascii	"z\000"
 4092 0f14 01       		.byte	0x1
 4093 0f15 8401     		.2byte	0x184
 4094 0f17 D6060000 		.4byte	0x6d6
 4095 0f1b 02       		.uleb128 0x2
 4096 0f1c 91       		.byte	0x91
 4097 0f1d 62       		.sleb128 -30
 4098 0f1e 29       		.uleb128 0x29
 4099 0f1f 7600     		.ascii	"v\000"
 4100 0f21 01       		.byte	0x1
 4101 0f22 8401     		.2byte	0x184
 4102 0f24 D6060000 		.4byte	0x6d6
 4103 0f28 02       		.uleb128 0x2
 4104 0f29 91       		.byte	0x91
 4105 0f2a 60       		.sleb128 -32
 4106 0f2b 00       		.byte	0
 4107 0f2c 1E       		.uleb128 0x1e
 4108 0f2d 0B060000 		.4byte	.LASF168
 4109 0f31 01       		.byte	0x1
 4110 0f32 ED       		.byte	0xed
 4111 0f33 3D0F0000 		.4byte	0xf3d
 4112 0f37 05       		.uleb128 0x5
 4113 0f38 03       		.byte	0x3
 4114 0f39 00000000 		.4byte	sliderVMT
 4115 0f3d 10       		.uleb128 0x10
 4116 0f3e DB0B0000 		.4byte	0xbdb
 4117 0f42 2A       		.uleb128 0x2a
 4118 0f43 A9000000 		.4byte	.LASF175
 4119 0f47 16       		.byte	0x16
 4120 0f48 9806     		.2byte	0x698
 4121 0f4a 27050000 		.4byte	0x527
 4122 0f4e 00       		.byte	0
 4123              		.section	.debug_abbrev,"",%progbits
 4124              	.Ldebug_abbrev0:
 4125 0000 01       		.uleb128 0x1
 4126 0001 11       		.uleb128 0x11
 4127 0002 01       		.byte	0x1
 4128 0003 25       		.uleb128 0x25
 4129 0004 0E       		.uleb128 0xe
 4130 0005 13       		.uleb128 0x13
 4131 0006 0B       		.uleb128 0xb
 4132 0007 03       		.uleb128 0x3
 4133 0008 0E       		.uleb128 0xe
 4134 0009 55       		.uleb128 0x55
 4135 000a 17       		.uleb128 0x17
 4136 000b 11       		.uleb128 0x11
 4137 000c 01       		.uleb128 0x1
 4138 000d 10       		.uleb128 0x10
 4139 000e 17       		.uleb128 0x17
 4140 000f 00       		.byte	0
 4141 0010 00       		.byte	0
 4142 0011 02       		.uleb128 0x2
 4143 0012 24       		.uleb128 0x24
 4144 0013 00       		.byte	0
 4145 0014 0B       		.uleb128 0xb
 4146 0015 0B       		.uleb128 0xb
 4147 0016 3E       		.uleb128 0x3e
ARM GAS  /tmp/cc57xKLi.s 			page 74


 4148 0017 0B       		.uleb128 0xb
 4149 0018 03       		.uleb128 0x3
 4150 0019 08       		.uleb128 0x8
 4151 001a 00       		.byte	0
 4152 001b 00       		.byte	0
 4153 001c 03       		.uleb128 0x3
 4154 001d 16       		.uleb128 0x16
 4155 001e 00       		.byte	0
 4156 001f 03       		.uleb128 0x3
 4157 0020 0E       		.uleb128 0xe
 4158 0021 3A       		.uleb128 0x3a
 4159 0022 0B       		.uleb128 0xb
 4160 0023 3B       		.uleb128 0x3b
 4161 0024 0B       		.uleb128 0xb
 4162 0025 49       		.uleb128 0x49
 4163 0026 13       		.uleb128 0x13
 4164 0027 00       		.byte	0
 4165 0028 00       		.byte	0
 4166 0029 04       		.uleb128 0x4
 4167 002a 24       		.uleb128 0x24
 4168 002b 00       		.byte	0
 4169 002c 0B       		.uleb128 0xb
 4170 002d 0B       		.uleb128 0xb
 4171 002e 3E       		.uleb128 0x3e
 4172 002f 0B       		.uleb128 0xb
 4173 0030 03       		.uleb128 0x3
 4174 0031 0E       		.uleb128 0xe
 4175 0032 00       		.byte	0
 4176 0033 00       		.byte	0
 4177 0034 05       		.uleb128 0x5
 4178 0035 13       		.uleb128 0x13
 4179 0036 01       		.byte	0x1
 4180 0037 03       		.uleb128 0x3
 4181 0038 0E       		.uleb128 0xe
 4182 0039 0B       		.uleb128 0xb
 4183 003a 0B       		.uleb128 0xb
 4184 003b 3A       		.uleb128 0x3a
 4185 003c 0B       		.uleb128 0xb
 4186 003d 3B       		.uleb128 0x3b
 4187 003e 0B       		.uleb128 0xb
 4188 003f 01       		.uleb128 0x1
 4189 0040 13       		.uleb128 0x13
 4190 0041 00       		.byte	0
 4191 0042 00       		.byte	0
 4192 0043 06       		.uleb128 0x6
 4193 0044 0D       		.uleb128 0xd
 4194 0045 00       		.byte	0
 4195 0046 03       		.uleb128 0x3
 4196 0047 0E       		.uleb128 0xe
 4197 0048 3A       		.uleb128 0x3a
 4198 0049 0B       		.uleb128 0xb
 4199 004a 3B       		.uleb128 0x3b
 4200 004b 0B       		.uleb128 0xb
 4201 004c 49       		.uleb128 0x49
 4202 004d 13       		.uleb128 0x13
 4203 004e 38       		.uleb128 0x38
 4204 004f 0B       		.uleb128 0xb
ARM GAS  /tmp/cc57xKLi.s 			page 75


 4205 0050 00       		.byte	0
 4206 0051 00       		.byte	0
 4207 0052 07       		.uleb128 0x7
 4208 0053 0D       		.uleb128 0xd
 4209 0054 00       		.byte	0
 4210 0055 03       		.uleb128 0x3
 4211 0056 08       		.uleb128 0x8
 4212 0057 3A       		.uleb128 0x3a
 4213 0058 0B       		.uleb128 0xb
 4214 0059 3B       		.uleb128 0x3b
 4215 005a 0B       		.uleb128 0xb
 4216 005b 49       		.uleb128 0x49
 4217 005c 13       		.uleb128 0x13
 4218 005d 38       		.uleb128 0x38
 4219 005e 0B       		.uleb128 0xb
 4220 005f 00       		.byte	0
 4221 0060 00       		.byte	0
 4222 0061 08       		.uleb128 0x8
 4223 0062 13       		.uleb128 0x13
 4224 0063 01       		.byte	0x1
 4225 0064 0B       		.uleb128 0xb
 4226 0065 0B       		.uleb128 0xb
 4227 0066 3A       		.uleb128 0x3a
 4228 0067 0B       		.uleb128 0xb
 4229 0068 3B       		.uleb128 0x3b
 4230 0069 0B       		.uleb128 0xb
 4231 006a 01       		.uleb128 0x1
 4232 006b 13       		.uleb128 0x13
 4233 006c 00       		.byte	0
 4234 006d 00       		.byte	0
 4235 006e 09       		.uleb128 0x9
 4236 006f 0F       		.uleb128 0xf
 4237 0070 00       		.byte	0
 4238 0071 0B       		.uleb128 0xb
 4239 0072 0B       		.uleb128 0xb
 4240 0073 49       		.uleb128 0x49
 4241 0074 13       		.uleb128 0x13
 4242 0075 00       		.byte	0
 4243 0076 00       		.byte	0
 4244 0077 0A       		.uleb128 0xa
 4245 0078 0F       		.uleb128 0xf
 4246 0079 00       		.byte	0
 4247 007a 0B       		.uleb128 0xb
 4248 007b 0B       		.uleb128 0xb
 4249 007c 00       		.byte	0
 4250 007d 00       		.byte	0
 4251 007e 0B       		.uleb128 0xb
 4252 007f 13       		.uleb128 0x13
 4253 0080 01       		.byte	0x1
 4254 0081 03       		.uleb128 0x3
 4255 0082 0E       		.uleb128 0xe
 4256 0083 0B       		.uleb128 0xb
 4257 0084 0B       		.uleb128 0xb
 4258 0085 3A       		.uleb128 0x3a
 4259 0086 0B       		.uleb128 0xb
 4260 0087 3B       		.uleb128 0x3b
 4261 0088 05       		.uleb128 0x5
ARM GAS  /tmp/cc57xKLi.s 			page 76


 4262 0089 01       		.uleb128 0x1
 4263 008a 13       		.uleb128 0x13
 4264 008b 00       		.byte	0
 4265 008c 00       		.byte	0
 4266 008d 0C       		.uleb128 0xc
 4267 008e 0D       		.uleb128 0xd
 4268 008f 00       		.byte	0
 4269 0090 03       		.uleb128 0x3
 4270 0091 08       		.uleb128 0x8
 4271 0092 3A       		.uleb128 0x3a
 4272 0093 0B       		.uleb128 0xb
 4273 0094 3B       		.uleb128 0x3b
 4274 0095 05       		.uleb128 0x5
 4275 0096 49       		.uleb128 0x49
 4276 0097 13       		.uleb128 0x13
 4277 0098 38       		.uleb128 0x38
 4278 0099 0B       		.uleb128 0xb
 4279 009a 00       		.byte	0
 4280 009b 00       		.byte	0
 4281 009c 0D       		.uleb128 0xd
 4282 009d 35       		.uleb128 0x35
 4283 009e 00       		.byte	0
 4284 009f 49       		.uleb128 0x49
 4285 00a0 13       		.uleb128 0x13
 4286 00a1 00       		.byte	0
 4287 00a2 00       		.byte	0
 4288 00a3 0E       		.uleb128 0xe
 4289 00a4 17       		.uleb128 0x17
 4290 00a5 01       		.byte	0x1
 4291 00a6 0B       		.uleb128 0xb
 4292 00a7 0B       		.uleb128 0xb
 4293 00a8 3A       		.uleb128 0x3a
 4294 00a9 0B       		.uleb128 0xb
 4295 00aa 3B       		.uleb128 0x3b
 4296 00ab 0B       		.uleb128 0xb
 4297 00ac 01       		.uleb128 0x1
 4298 00ad 13       		.uleb128 0x13
 4299 00ae 00       		.byte	0
 4300 00af 00       		.byte	0
 4301 00b0 0F       		.uleb128 0xf
 4302 00b1 0D       		.uleb128 0xd
 4303 00b2 00       		.byte	0
 4304 00b3 03       		.uleb128 0x3
 4305 00b4 0E       		.uleb128 0xe
 4306 00b5 3A       		.uleb128 0x3a
 4307 00b6 0B       		.uleb128 0xb
 4308 00b7 3B       		.uleb128 0x3b
 4309 00b8 0B       		.uleb128 0xb
 4310 00b9 49       		.uleb128 0x49
 4311 00ba 13       		.uleb128 0x13
 4312 00bb 00       		.byte	0
 4313 00bc 00       		.byte	0
 4314 00bd 10       		.uleb128 0x10
 4315 00be 26       		.uleb128 0x26
 4316 00bf 00       		.byte	0
 4317 00c0 49       		.uleb128 0x49
 4318 00c1 13       		.uleb128 0x13
ARM GAS  /tmp/cc57xKLi.s 			page 77


 4319 00c2 00       		.byte	0
 4320 00c3 00       		.byte	0
 4321 00c4 11       		.uleb128 0x11
 4322 00c5 13       		.uleb128 0x13
 4323 00c6 00       		.byte	0
 4324 00c7 03       		.uleb128 0x3
 4325 00c8 0E       		.uleb128 0xe
 4326 00c9 3C       		.uleb128 0x3c
 4327 00ca 19       		.uleb128 0x19
 4328 00cb 00       		.byte	0
 4329 00cc 00       		.byte	0
 4330 00cd 12       		.uleb128 0x12
 4331 00ce 17       		.uleb128 0x17
 4332 00cf 01       		.byte	0x1
 4333 00d0 03       		.uleb128 0x3
 4334 00d1 0E       		.uleb128 0xe
 4335 00d2 0B       		.uleb128 0xb
 4336 00d3 0B       		.uleb128 0xb
 4337 00d4 3A       		.uleb128 0x3a
 4338 00d5 0B       		.uleb128 0xb
 4339 00d6 3B       		.uleb128 0x3b
 4340 00d7 0B       		.uleb128 0xb
 4341 00d8 01       		.uleb128 0x1
 4342 00d9 13       		.uleb128 0x13
 4343 00da 00       		.byte	0
 4344 00db 00       		.byte	0
 4345 00dc 13       		.uleb128 0x13
 4346 00dd 0D       		.uleb128 0xd
 4347 00de 00       		.byte	0
 4348 00df 03       		.uleb128 0x3
 4349 00e0 08       		.uleb128 0x8
 4350 00e1 3A       		.uleb128 0x3a
 4351 00e2 0B       		.uleb128 0xb
 4352 00e3 3B       		.uleb128 0x3b
 4353 00e4 0B       		.uleb128 0xb
 4354 00e5 49       		.uleb128 0x49
 4355 00e6 13       		.uleb128 0x13
 4356 00e7 00       		.byte	0
 4357 00e8 00       		.byte	0
 4358 00e9 14       		.uleb128 0x14
 4359 00ea 01       		.uleb128 0x1
 4360 00eb 01       		.byte	0x1
 4361 00ec 49       		.uleb128 0x49
 4362 00ed 13       		.uleb128 0x13
 4363 00ee 01       		.uleb128 0x1
 4364 00ef 13       		.uleb128 0x13
 4365 00f0 00       		.byte	0
 4366 00f1 00       		.byte	0
 4367 00f2 15       		.uleb128 0x15
 4368 00f3 21       		.uleb128 0x21
 4369 00f4 00       		.byte	0
 4370 00f5 49       		.uleb128 0x49
 4371 00f6 13       		.uleb128 0x13
 4372 00f7 2F       		.uleb128 0x2f
 4373 00f8 0B       		.uleb128 0xb
 4374 00f9 00       		.byte	0
 4375 00fa 00       		.byte	0
ARM GAS  /tmp/cc57xKLi.s 			page 78


 4376 00fb 16       		.uleb128 0x16
 4377 00fc 15       		.uleb128 0x15
 4378 00fd 01       		.byte	0x1
 4379 00fe 27       		.uleb128 0x27
 4380 00ff 19       		.uleb128 0x19
 4381 0100 01       		.uleb128 0x1
 4382 0101 13       		.uleb128 0x13
 4383 0102 00       		.byte	0
 4384 0103 00       		.byte	0
 4385 0104 17       		.uleb128 0x17
 4386 0105 05       		.uleb128 0x5
 4387 0106 00       		.byte	0
 4388 0107 49       		.uleb128 0x49
 4389 0108 13       		.uleb128 0x13
 4390 0109 00       		.byte	0
 4391 010a 00       		.byte	0
 4392 010b 18       		.uleb128 0x18
 4393 010c 04       		.uleb128 0x4
 4394 010d 01       		.byte	0x1
 4395 010e 03       		.uleb128 0x3
 4396 010f 0E       		.uleb128 0xe
 4397 0110 0B       		.uleb128 0xb
 4398 0111 0B       		.uleb128 0xb
 4399 0112 3A       		.uleb128 0x3a
 4400 0113 0B       		.uleb128 0xb
 4401 0114 3B       		.uleb128 0x3b
 4402 0115 0B       		.uleb128 0xb
 4403 0116 01       		.uleb128 0x1
 4404 0117 13       		.uleb128 0x13
 4405 0118 00       		.byte	0
 4406 0119 00       		.byte	0
 4407 011a 19       		.uleb128 0x19
 4408 011b 28       		.uleb128 0x28
 4409 011c 00       		.byte	0
 4410 011d 03       		.uleb128 0x3
 4411 011e 0E       		.uleb128 0xe
 4412 011f 1C       		.uleb128 0x1c
 4413 0120 0D       		.uleb128 0xd
 4414 0121 00       		.byte	0
 4415 0122 00       		.byte	0
 4416 0123 1A       		.uleb128 0x1a
 4417 0124 16       		.uleb128 0x16
 4418 0125 00       		.byte	0
 4419 0126 03       		.uleb128 0x3
 4420 0127 0E       		.uleb128 0xe
 4421 0128 3A       		.uleb128 0x3a
 4422 0129 0B       		.uleb128 0xb
 4423 012a 3B       		.uleb128 0x3b
 4424 012b 05       		.uleb128 0x5
 4425 012c 49       		.uleb128 0x49
 4426 012d 13       		.uleb128 0x13
 4427 012e 00       		.byte	0
 4428 012f 00       		.byte	0
 4429 0130 1B       		.uleb128 0x1b
 4430 0131 0D       		.uleb128 0xd
 4431 0132 00       		.byte	0
 4432 0133 49       		.uleb128 0x49
ARM GAS  /tmp/cc57xKLi.s 			page 79


 4433 0134 13       		.uleb128 0x13
 4434 0135 38       		.uleb128 0x38
 4435 0136 0B       		.uleb128 0xb
 4436 0137 00       		.byte	0
 4437 0138 00       		.byte	0
 4438 0139 1C       		.uleb128 0x1c
 4439 013a 2E       		.uleb128 0x2e
 4440 013b 01       		.byte	0x1
 4441 013c 03       		.uleb128 0x3
 4442 013d 0E       		.uleb128 0xe
 4443 013e 3A       		.uleb128 0x3a
 4444 013f 0B       		.uleb128 0xb
 4445 0140 3B       		.uleb128 0x3b
 4446 0141 0B       		.uleb128 0xb
 4447 0142 27       		.uleb128 0x27
 4448 0143 19       		.uleb128 0x19
 4449 0144 49       		.uleb128 0x49
 4450 0145 13       		.uleb128 0x13
 4451 0146 11       		.uleb128 0x11
 4452 0147 01       		.uleb128 0x1
 4453 0148 12       		.uleb128 0x12
 4454 0149 06       		.uleb128 0x6
 4455 014a 40       		.uleb128 0x40
 4456 014b 18       		.uleb128 0x18
 4457 014c 9742     		.uleb128 0x2117
 4458 014e 19       		.uleb128 0x19
 4459 014f 01       		.uleb128 0x1
 4460 0150 13       		.uleb128 0x13
 4461 0151 00       		.byte	0
 4462 0152 00       		.byte	0
 4463 0153 1D       		.uleb128 0x1d
 4464 0154 05       		.uleb128 0x5
 4465 0155 00       		.byte	0
 4466 0156 03       		.uleb128 0x3
 4467 0157 08       		.uleb128 0x8
 4468 0158 3A       		.uleb128 0x3a
 4469 0159 0B       		.uleb128 0xb
 4470 015a 3B       		.uleb128 0x3b
 4471 015b 0B       		.uleb128 0xb
 4472 015c 49       		.uleb128 0x49
 4473 015d 13       		.uleb128 0x13
 4474 015e 02       		.uleb128 0x2
 4475 015f 18       		.uleb128 0x18
 4476 0160 00       		.byte	0
 4477 0161 00       		.byte	0
 4478 0162 1E       		.uleb128 0x1e
 4479 0163 34       		.uleb128 0x34
 4480 0164 00       		.byte	0
 4481 0165 03       		.uleb128 0x3
 4482 0166 0E       		.uleb128 0xe
 4483 0167 3A       		.uleb128 0x3a
 4484 0168 0B       		.uleb128 0xb
 4485 0169 3B       		.uleb128 0x3b
 4486 016a 0B       		.uleb128 0xb
 4487 016b 49       		.uleb128 0x49
 4488 016c 13       		.uleb128 0x13
 4489 016d 02       		.uleb128 0x2
ARM GAS  /tmp/cc57xKLi.s 			page 80


 4490 016e 18       		.uleb128 0x18
 4491 016f 00       		.byte	0
 4492 0170 00       		.byte	0
 4493 0171 1F       		.uleb128 0x1f
 4494 0172 2E       		.uleb128 0x2e
 4495 0173 01       		.byte	0x1
 4496 0174 03       		.uleb128 0x3
 4497 0175 0E       		.uleb128 0xe
 4498 0176 3A       		.uleb128 0x3a
 4499 0177 0B       		.uleb128 0xb
 4500 0178 3B       		.uleb128 0x3b
 4501 0179 0B       		.uleb128 0xb
 4502 017a 27       		.uleb128 0x27
 4503 017b 19       		.uleb128 0x19
 4504 017c 11       		.uleb128 0x11
 4505 017d 01       		.uleb128 0x1
 4506 017e 12       		.uleb128 0x12
 4507 017f 06       		.uleb128 0x6
 4508 0180 40       		.uleb128 0x40
 4509 0181 18       		.uleb128 0x18
 4510 0182 9642     		.uleb128 0x2116
 4511 0184 19       		.uleb128 0x19
 4512 0185 01       		.uleb128 0x1
 4513 0186 13       		.uleb128 0x13
 4514 0187 00       		.byte	0
 4515 0188 00       		.byte	0
 4516 0189 20       		.uleb128 0x20
 4517 018a 05       		.uleb128 0x5
 4518 018b 00       		.byte	0
 4519 018c 03       		.uleb128 0x3
 4520 018d 0E       		.uleb128 0xe
 4521 018e 3A       		.uleb128 0x3a
 4522 018f 0B       		.uleb128 0xb
 4523 0190 3B       		.uleb128 0x3b
 4524 0191 0B       		.uleb128 0xb
 4525 0192 49       		.uleb128 0x49
 4526 0193 13       		.uleb128 0x13
 4527 0194 02       		.uleb128 0x2
 4528 0195 18       		.uleb128 0x18
 4529 0196 00       		.byte	0
 4530 0197 00       		.byte	0
 4531 0198 21       		.uleb128 0x21
 4532 0199 34       		.uleb128 0x34
 4533 019a 00       		.byte	0
 4534 019b 03       		.uleb128 0x3
 4535 019c 08       		.uleb128 0x8
 4536 019d 3A       		.uleb128 0x3a
 4537 019e 0B       		.uleb128 0xb
 4538 019f 3B       		.uleb128 0x3b
 4539 01a0 0B       		.uleb128 0xb
 4540 01a1 49       		.uleb128 0x49
 4541 01a2 13       		.uleb128 0x13
 4542 01a3 02       		.uleb128 0x2
 4543 01a4 18       		.uleb128 0x18
 4544 01a5 00       		.byte	0
 4545 01a6 00       		.byte	0
 4546 01a7 22       		.uleb128 0x22
ARM GAS  /tmp/cc57xKLi.s 			page 81


 4547 01a8 2E       		.uleb128 0x2e
 4548 01a9 01       		.byte	0x1
 4549 01aa 03       		.uleb128 0x3
 4550 01ab 0E       		.uleb128 0xe
 4551 01ac 3A       		.uleb128 0x3a
 4552 01ad 0B       		.uleb128 0xb
 4553 01ae 3B       		.uleb128 0x3b
 4554 01af 0B       		.uleb128 0xb
 4555 01b0 27       		.uleb128 0x27
 4556 01b1 19       		.uleb128 0x19
 4557 01b2 11       		.uleb128 0x11
 4558 01b3 01       		.uleb128 0x1
 4559 01b4 12       		.uleb128 0x12
 4560 01b5 06       		.uleb128 0x6
 4561 01b6 40       		.uleb128 0x40
 4562 01b7 18       		.uleb128 0x18
 4563 01b8 9742     		.uleb128 0x2117
 4564 01ba 19       		.uleb128 0x19
 4565 01bb 01       		.uleb128 0x1
 4566 01bc 13       		.uleb128 0x13
 4567 01bd 00       		.byte	0
 4568 01be 00       		.byte	0
 4569 01bf 23       		.uleb128 0x23
 4570 01c0 2E       		.uleb128 0x2e
 4571 01c1 01       		.byte	0x1
 4572 01c2 3F       		.uleb128 0x3f
 4573 01c3 19       		.uleb128 0x19
 4574 01c4 03       		.uleb128 0x3
 4575 01c5 0E       		.uleb128 0xe
 4576 01c6 3A       		.uleb128 0x3a
 4577 01c7 0B       		.uleb128 0xb
 4578 01c8 3B       		.uleb128 0x3b
 4579 01c9 05       		.uleb128 0x5
 4580 01ca 27       		.uleb128 0x27
 4581 01cb 19       		.uleb128 0x19
 4582 01cc 49       		.uleb128 0x49
 4583 01cd 13       		.uleb128 0x13
 4584 01ce 11       		.uleb128 0x11
 4585 01cf 01       		.uleb128 0x1
 4586 01d0 12       		.uleb128 0x12
 4587 01d1 06       		.uleb128 0x6
 4588 01d2 40       		.uleb128 0x40
 4589 01d3 18       		.uleb128 0x18
 4590 01d4 9642     		.uleb128 0x2116
 4591 01d6 19       		.uleb128 0x19
 4592 01d7 01       		.uleb128 0x1
 4593 01d8 13       		.uleb128 0x13
 4594 01d9 00       		.byte	0
 4595 01da 00       		.byte	0
 4596 01db 24       		.uleb128 0x24
 4597 01dc 05       		.uleb128 0x5
 4598 01dd 00       		.byte	0
 4599 01de 03       		.uleb128 0x3
 4600 01df 08       		.uleb128 0x8
 4601 01e0 3A       		.uleb128 0x3a
 4602 01e1 0B       		.uleb128 0xb
 4603 01e2 3B       		.uleb128 0x3b
ARM GAS  /tmp/cc57xKLi.s 			page 82


 4604 01e3 05       		.uleb128 0x5
 4605 01e4 49       		.uleb128 0x49
 4606 01e5 13       		.uleb128 0x13
 4607 01e6 02       		.uleb128 0x2
 4608 01e7 18       		.uleb128 0x18
 4609 01e8 00       		.byte	0
 4610 01e9 00       		.byte	0
 4611 01ea 25       		.uleb128 0x25
 4612 01eb 05       		.uleb128 0x5
 4613 01ec 00       		.byte	0
 4614 01ed 03       		.uleb128 0x3
 4615 01ee 0E       		.uleb128 0xe
 4616 01ef 3A       		.uleb128 0x3a
 4617 01f0 0B       		.uleb128 0xb
 4618 01f1 3B       		.uleb128 0x3b
 4619 01f2 05       		.uleb128 0x5
 4620 01f3 49       		.uleb128 0x49
 4621 01f4 13       		.uleb128 0x13
 4622 01f5 02       		.uleb128 0x2
 4623 01f6 18       		.uleb128 0x18
 4624 01f7 00       		.byte	0
 4625 01f8 00       		.byte	0
 4626 01f9 26       		.uleb128 0x26
 4627 01fa 2E       		.uleb128 0x2e
 4628 01fb 01       		.byte	0x1
 4629 01fc 3F       		.uleb128 0x3f
 4630 01fd 19       		.uleb128 0x19
 4631 01fe 03       		.uleb128 0x3
 4632 01ff 0E       		.uleb128 0xe
 4633 0200 3A       		.uleb128 0x3a
 4634 0201 0B       		.uleb128 0xb
 4635 0202 3B       		.uleb128 0x3b
 4636 0203 05       		.uleb128 0x5
 4637 0204 27       		.uleb128 0x27
 4638 0205 19       		.uleb128 0x19
 4639 0206 11       		.uleb128 0x11
 4640 0207 01       		.uleb128 0x1
 4641 0208 12       		.uleb128 0x12
 4642 0209 06       		.uleb128 0x6
 4643 020a 40       		.uleb128 0x40
 4644 020b 18       		.uleb128 0x18
 4645 020c 9642     		.uleb128 0x2116
 4646 020e 19       		.uleb128 0x19
 4647 020f 01       		.uleb128 0x1
 4648 0210 13       		.uleb128 0x13
 4649 0211 00       		.byte	0
 4650 0212 00       		.byte	0
 4651 0213 27       		.uleb128 0x27
 4652 0214 2E       		.uleb128 0x2e
 4653 0215 01       		.byte	0x1
 4654 0216 3F       		.uleb128 0x3f
 4655 0217 19       		.uleb128 0x19
 4656 0218 03       		.uleb128 0x3
 4657 0219 0E       		.uleb128 0xe
 4658 021a 3A       		.uleb128 0x3a
 4659 021b 0B       		.uleb128 0xb
 4660 021c 3B       		.uleb128 0x3b
ARM GAS  /tmp/cc57xKLi.s 			page 83


 4661 021d 05       		.uleb128 0x5
 4662 021e 27       		.uleb128 0x27
 4663 021f 19       		.uleb128 0x19
 4664 0220 11       		.uleb128 0x11
 4665 0221 01       		.uleb128 0x1
 4666 0222 12       		.uleb128 0x12
 4667 0223 06       		.uleb128 0x6
 4668 0224 40       		.uleb128 0x40
 4669 0225 18       		.uleb128 0x18
 4670 0226 9742     		.uleb128 0x2117
 4671 0228 19       		.uleb128 0x19
 4672 0229 01       		.uleb128 0x1
 4673 022a 13       		.uleb128 0x13
 4674 022b 00       		.byte	0
 4675 022c 00       		.byte	0
 4676 022d 28       		.uleb128 0x28
 4677 022e 34       		.uleb128 0x34
 4678 022f 00       		.byte	0
 4679 0230 03       		.uleb128 0x3
 4680 0231 0E       		.uleb128 0xe
 4681 0232 3A       		.uleb128 0x3a
 4682 0233 0B       		.uleb128 0xb
 4683 0234 3B       		.uleb128 0x3b
 4684 0235 05       		.uleb128 0x5
 4685 0236 49       		.uleb128 0x49
 4686 0237 13       		.uleb128 0x13
 4687 0238 02       		.uleb128 0x2
 4688 0239 18       		.uleb128 0x18
 4689 023a 00       		.byte	0
 4690 023b 00       		.byte	0
 4691 023c 29       		.uleb128 0x29
 4692 023d 34       		.uleb128 0x34
 4693 023e 00       		.byte	0
 4694 023f 03       		.uleb128 0x3
 4695 0240 08       		.uleb128 0x8
 4696 0241 3A       		.uleb128 0x3a
 4697 0242 0B       		.uleb128 0xb
 4698 0243 3B       		.uleb128 0x3b
 4699 0244 05       		.uleb128 0x5
 4700 0245 49       		.uleb128 0x49
 4701 0246 13       		.uleb128 0x13
 4702 0247 02       		.uleb128 0x2
 4703 0248 18       		.uleb128 0x18
 4704 0249 00       		.byte	0
 4705 024a 00       		.byte	0
 4706 024b 2A       		.uleb128 0x2a
 4707 024c 34       		.uleb128 0x34
 4708 024d 00       		.byte	0
 4709 024e 03       		.uleb128 0x3
 4710 024f 0E       		.uleb128 0xe
 4711 0250 3A       		.uleb128 0x3a
 4712 0251 0B       		.uleb128 0xb
 4713 0252 3B       		.uleb128 0x3b
 4714 0253 05       		.uleb128 0x5
 4715 0254 49       		.uleb128 0x49
 4716 0255 13       		.uleb128 0x13
 4717 0256 3F       		.uleb128 0x3f
ARM GAS  /tmp/cc57xKLi.s 			page 84


 4718 0257 19       		.uleb128 0x19
 4719 0258 3C       		.uleb128 0x3c
 4720 0259 19       		.uleb128 0x19
 4721 025a 00       		.byte	0
 4722 025b 00       		.byte	0
 4723 025c 00       		.byte	0
 4724              		.section	.debug_aranges,"",%progbits
 4725 0000 7C000000 		.4byte	0x7c
 4726 0004 0200     		.2byte	0x2
 4727 0006 00000000 		.4byte	.Ldebug_info0
 4728 000a 04       		.byte	0x4
 4729 000b 00       		.byte	0
 4730 000c 0000     		.2byte	0
 4731 000e 0000     		.2byte	0
 4732 0010 00000000 		.4byte	.LFB111
 4733 0014 18010000 		.4byte	.LFE111-.LFB111
 4734 0018 00000000 		.4byte	.LFB112
 4735 001c A4000000 		.4byte	.LFE112-.LFB112
 4736 0020 00000000 		.4byte	.LFB113
 4737 0024 7E000000 		.4byte	.LFE113-.LFB113
 4738 0028 00000000 		.4byte	.LFB114
 4739 002c 8A000000 		.4byte	.LFE114-.LFB114
 4740 0030 00000000 		.4byte	.LFB115
 4741 0034 4C000000 		.4byte	.LFE115-.LFB115
 4742 0038 00000000 		.4byte	.LFB116
 4743 003c 3A000000 		.4byte	.LFE116-.LFB116
 4744 0040 00000000 		.4byte	.LFB117
 4745 0044 3A000000 		.4byte	.LFE117-.LFB117
 4746 0048 00000000 		.4byte	.LFB118
 4747 004c 58000000 		.4byte	.LFE118-.LFB118
 4748 0050 00000000 		.4byte	.LFB119
 4749 0054 48000000 		.4byte	.LFE119-.LFB119
 4750 0058 00000000 		.4byte	.LFB120
 4751 005c 94000000 		.4byte	.LFE120-.LFB120
 4752 0060 00000000 		.4byte	.LFB121
 4753 0064 40000000 		.4byte	.LFE121-.LFB121
 4754 0068 00000000 		.4byte	.LFB122
 4755 006c 9E040000 		.4byte	.LFE122-.LFB122
 4756 0070 00000000 		.4byte	.LFB123
 4757 0074 B2030000 		.4byte	.LFE123-.LFB123
 4758 0078 00000000 		.4byte	0
 4759 007c 00000000 		.4byte	0
 4760              		.section	.debug_ranges,"",%progbits
 4761              	.Ldebug_ranges0:
 4762 0000 00000000 		.4byte	.LFB111
 4763 0004 18010000 		.4byte	.LFE111
 4764 0008 00000000 		.4byte	.LFB112
 4765 000c A4000000 		.4byte	.LFE112
 4766 0010 00000000 		.4byte	.LFB113
 4767 0014 7E000000 		.4byte	.LFE113
 4768 0018 00000000 		.4byte	.LFB114
 4769 001c 8A000000 		.4byte	.LFE114
 4770 0020 00000000 		.4byte	.LFB115
 4771 0024 4C000000 		.4byte	.LFE115
 4772 0028 00000000 		.4byte	.LFB116
 4773 002c 3A000000 		.4byte	.LFE116
 4774 0030 00000000 		.4byte	.LFB117
ARM GAS  /tmp/cc57xKLi.s 			page 85


 4775 0034 3A000000 		.4byte	.LFE117
 4776 0038 00000000 		.4byte	.LFB118
 4777 003c 58000000 		.4byte	.LFE118
 4778 0040 00000000 		.4byte	.LFB119
 4779 0044 48000000 		.4byte	.LFE119
 4780 0048 00000000 		.4byte	.LFB120
 4781 004c 94000000 		.4byte	.LFE120
 4782 0050 00000000 		.4byte	.LFB121
 4783 0054 40000000 		.4byte	.LFE121
 4784 0058 00000000 		.4byte	.LFB122
 4785 005c 9E040000 		.4byte	.LFE122
 4786 0060 00000000 		.4byte	.LFB123
 4787 0064 B2030000 		.4byte	.LFE123
 4788 0068 00000000 		.4byte	0
 4789 006c 00000000 		.4byte	0
 4790              		.section	.debug_line,"",%progbits
 4791              	.Ldebug_line0:
 4792 0000 CE050000 		.section	.debug_str,"MS",%progbits,1
 4792      0200A003 
 4792      00000201 
 4792      FB0E0D00 
 4792      01010101 
 4793              	.LASF172:
 4794 0000 6A757374 		.ascii	"justify\000"
 4794      69667900 
 4795              	.LASF73:
 4796 0008 73656D63 		.ascii	"semcount_t\000"
 4796      6F756E74 
 4796      5F7400
 4797              	.LASF129:
 4798 0013 65646765 		.ascii	"edge\000"
 4798      00
 4799              	.LASF68:
 4800 0018 7264796D 		.ascii	"rdymsg\000"
 4800      736700
 4801              	.LASF21:
 4802 001f 75696E74 		.ascii	"uint64_t\000"
 4802      36345F74 
 4802      00
 4803              	.LASF91:
 4804 0028 47536F75 		.ascii	"GSourceHandle\000"
 4804      72636548 
 4804      616E646C 
 4804      6500
 4805              	.LASF89:
 4806 0036 47536F75 		.ascii	"GSource\000"
 4806      72636500 
 4807              	.LASF3:
 4808 003e 5F5F7569 		.ascii	"__uint8_t\000"
 4808      6E74385F 
 4808      7400
 4809              	.LASF120:
 4810 0048 636C6173 		.ascii	"classname\000"
 4810      736E616D 
 4810      6500
 4811              	.LASF94:
 4812 0052 70536F75 		.ascii	"pSource\000"
ARM GAS  /tmp/cc57xKLi.s 			page 86


 4812      72636500 
 4813              	.LASF166:
 4814 005a 70636F6C 		.ascii	"pcol\000"
 4814      00
 4815              	.LASF127:
 4816 005f 47436F6C 		.ascii	"GColorSet\000"
 4816      6F725365 
 4816      7400
 4817              	.LASF152:
 4818 0069 4D6F7573 		.ascii	"MouseDown\000"
 4818      65446F77 
 4818      6E00
 4819              	.LASF140:
 4820 0073 666E5061 		.ascii	"fnParam\000"
 4820      72616D00 
 4821              	.LASF15:
 4822 007b 6C6F6E67 		.ascii	"long long unsigned int\000"
 4822      206C6F6E 
 4822      6720756E 
 4822      7369676E 
 4822      65642069 
 4823              	.LASF153:
 4824 0092 4D6F7573 		.ascii	"MouseUp\000"
 4824      65557000 
 4825              	.LASF69:
 4826 009a 65786974 		.ascii	"exitcode\000"
 4826      636F6465 
 4826      00
 4827              	.LASF74:
 4828 00a3 6C696D69 		.ascii	"limit\000"
 4828      7400
 4829              	.LASF175:
 4830 00a9 49544D5F 		.ascii	"ITM_RxBuffer\000"
 4830      52784275 
 4830      66666572 
 4830      00
 4831              	.LASF78:
 4832 00b6 6E657874 		.ascii	"next\000"
 4832      00
 4833              	.LASF36:
 4834 00bb 705F7072 		.ascii	"p_prio\000"
 4834      696F00
 4835              	.LASF174:
 4836 00c2 6777696E 		.ascii	"gwinGSliderCreate\000"
 4836      47536C69 
 4836      64657243 
 4836      72656174 
 4836      6500
 4837              	.LASF17:
 4838 00d4 696E7431 		.ascii	"int16_t\000"
 4838      365F7400 
 4839              	.LASF13:
 4840 00dc 6C6F6E67 		.ascii	"long long int\000"
 4840      206C6F6E 
 4840      6720696E 
 4840      7400
 4841              	.LASF1:
ARM GAS  /tmp/cc57xKLi.s 			page 87


 4842 00ea 7369676E 		.ascii	"signed char\000"
 4842      65642063 
 4842      68617200 
 4843              	.LASF126:
 4844 00f6 73686F77 		.ascii	"show\000"
 4844      00
 4845              	.LASF53:
 4846 00fb 705F6D70 		.ascii	"p_mpool\000"
 4846      6F6F6C00 
 4847              	.LASF22:
 4848 0103 626F6F6C 		.ascii	"bool_t\000"
 4848      5F7400
 4849              	.LASF65:
 4850 010a 6D5F7175 		.ascii	"m_queue\000"
 4850      65756500 
 4851              	.LASF107:
 4852 0112 67646973 		.ascii	"gdispImageFlags\000"
 4852      70496D61 
 4852      6765466C 
 4852      61677300 
 4853              	.LASF158:
 4854 0122 53656E64 		.ascii	"SendSliderEvent\000"
 4854      536C6964 
 4854      65724576 
 4854      656E7400 
 4855              	.LASF27:
 4856 0132 74736C69 		.ascii	"tslices_t\000"
 4856      6365735F 
 4856      7400
 4857              	.LASF10:
 4858 013c 6C6F6E67 		.ascii	"long int\000"
 4858      20696E74 
 4858      00
 4859              	.LASF100:
 4860 0145 6A757374 		.ascii	"justifyCenter\000"
 4860      69667943 
 4860      656E7465 
 4860      7200
 4861              	.LASF25:
 4862 0153 74737461 		.ascii	"tstate_t\000"
 4862      74655F74 
 4862      00
 4863              	.LASF81:
 4864 015c 47457665 		.ascii	"GEvent\000"
 4864      6E7400
 4865              	.LASF139:
 4866 0163 666E4472 		.ascii	"fnDraw\000"
 4866      617700
 4867              	.LASF38:
 4868 016a 705F6E65 		.ascii	"p_newer\000"
 4868      77657200 
 4869              	.LASF62:
 4870 0172 735F7175 		.ascii	"s_queue\000"
 4870      65756500 
 4871              	.LASF155:
 4872 017a 67776964 		.ascii	"gwidgetVMT\000"
 4872      67657456 
ARM GAS  /tmp/cc57xKLi.s 			page 88


 4872      4D5400
 4873              	.LASF8:
 4874 0185 73686F72 		.ascii	"short unsigned int\000"
 4874      7420756E 
 4874      7369676E 
 4874      65642069 
 4874      6E7400
 4875              	.LASF164:
 4876 0198 6777696E 		.ascii	"gwinSliderSendExtendedEvents\000"
 4876      536C6964 
 4876      65725365 
 4876      6E644578 
 4876      74656E64 
 4877              	.LASF11:
 4878 01b5 5F5F7569 		.ascii	"__uint32_t\000"
 4878      6E743332 
 4878      5F7400
 4879              	.LASF149:
 4880 01c0 61637469 		.ascii	"action\000"
 4880      6F6E00
 4881              	.LASF56:
 4882 01c7 72656761 		.ascii	"regarm_t\000"
 4882      726D5F74 
 4882      00
 4883              	.LASF138:
 4884 01d0 47576964 		.ascii	"GWidgetObject\000"
 4884      6765744F 
 4884      626A6563 
 4884      7400
 4885              	.LASF79:
 4886 01de 47457665 		.ascii	"GEventType\000"
 4886      6E745479 
 4886      706500
 4887              	.LASF5:
 4888 01e9 5F5F696E 		.ascii	"__int16_t\000"
 4888      7431365F 
 4888      7400
 4889              	.LASF2:
 4890 01f3 73697A65 		.ascii	"size_t\000"
 4890      5F7400
 4891              	.LASF116:
 4892 01fa 64697370 		.ascii	"display\000"
 4892      6C617900 
 4893              	.LASF131:
 4894 0202 70726F67 		.ascii	"progress\000"
 4894      72657373 
 4894      00
 4895              	.LASF32:
 4896 020b 636E745F 		.ascii	"cnt_t\000"
 4896      7400
 4897              	.LASF41:
 4898 0211 705F7374 		.ascii	"p_stklimit\000"
 4898      6B6C696D 
 4898      697400
 4899              	.LASF0:
 4900 021c 756E7369 		.ascii	"unsigned int\000"
 4900      676E6564 
ARM GAS  /tmp/cc57xKLi.s 			page 89


 4900      20696E74 
 4900      00
 4901              	.LASF90:
 4902 0229 47536F75 		.ascii	"GSource_t\000"
 4902      7263655F 
 4902      7400
 4903              	.LASF18:
 4904 0233 75696E74 		.ascii	"uint16_t\000"
 4904      31365F74 
 4904      00
 4905              	.LASF148:
 4906 023c 706F7369 		.ascii	"position\000"
 4906      74696F6E 
 4906      00
 4907              	.LASF46:
 4908 0245 705F7469 		.ascii	"p_time\000"
 4908      6D6500
 4909              	.LASF159:
 4910 024c 52657365 		.ascii	"ResetDisplayPos\000"
 4910      74446973 
 4910      706C6179 
 4910      506F7300 
 4911              	.LASF135:
 4912 025c 64697361 		.ascii	"disabled\000"
 4912      626C6564 
 4912      00
 4913              	.LASF48:
 4914 0265 705F6D73 		.ascii	"p_msgqueue\000"
 4914      67717565 
 4914      756500
 4915              	.LASF165:
 4916 0270 6777696E 		.ascii	"gwinSliderDraw_Std\000"
 4916      536C6964 
 4916      65724472 
 4916      61775F53 
 4916      746400
 4917              	.LASF141:
 4918 0283 70737479 		.ascii	"pstyle\000"
 4918      6C6500
 4919              	.LASF110:
 4920 028a 77696474 		.ascii	"width\000"
 4920      6800
 4921              	.LASF157:
 4922 0290 68616C66 		.ascii	"halfbit\000"
 4922      62697400 
 4923              	.LASF88:
 4924 0298 6576656E 		.ascii	"event\000"
 4924      7400
 4925              	.LASF121:
 4926 029e 73697A65 		.ascii	"size\000"
 4926      00
 4927              	.LASF143:
 4928 02a3 63757374 		.ascii	"customDraw\000"
 4928      6F6D4472 
 4928      617700
 4929              	.LASF29:
 4930 02ae 6D73675F 		.ascii	"msg_t\000"
ARM GAS  /tmp/cc57xKLi.s 			page 90


 4930      7400
 4931              	.LASF80:
 4932 02b4 74797065 		.ascii	"type\000"
 4932      00
 4933              	.LASF86:
 4934 02b9 63616C6C 		.ascii	"callback\000"
 4934      6261636B 
 4934      00
 4935              	.LASF24:
 4936 02c2 746D6F64 		.ascii	"tmode_t\000"
 4936      655F7400 
 4937              	.LASF171:
 4938 02ca 47457665 		.ascii	"GEvent_u\000"
 4938      6E745F75 
 4938      00
 4939              	.LASF55:
 4940 02d3 54687265 		.ascii	"ThreadsList\000"
 4940      6164734C 
 4940      69737400 
 4941              	.LASF30:
 4942 02df 6576656E 		.ascii	"eventmask_t\000"
 4942      746D6173 
 4942      6B5F7400 
 4943              	.LASF150:
 4944 02eb 47536C69 		.ascii	"GSliderObject\000"
 4944      6465724F 
 4944      626A6563 
 4944      7400
 4945              	.LASF57:
 4946 02f9 73746B61 		.ascii	"stkalign_t\000"
 4946      6C69676E 
 4946      5F7400
 4947              	.LASF103:
 4948 0304 6D665F66 		.ascii	"mf_font_s\000"
 4948      6F6E745F 
 4948      7300
 4949              	.LASF105:
 4950 030e 636F6C6F 		.ascii	"color_t\000"
 4950      725F7400 
 4951              	.LASF145:
 4952 0316 63757374 		.ascii	"customStyle\000"
 4952      6F6D5374 
 4952      796C6500 
 4953              	.LASF162:
 4954 0322 6777696E 		.ascii	"gwinSliderSetRange\000"
 4954      536C6964 
 4954      65725365 
 4954      7452616E 
 4954      676500
 4955              	.LASF60:
 4956 0335 73697A65 		.ascii	"sizetype\000"
 4956      74797065 
 4956      00
 4957              	.LASF169:
 4958 033e 474E5520 		.ascii	"GNU C 4.9.3 20150303 (release) [ARM/embedded-4_9-br"
 4958      4320342E 
 4958      392E3320 
ARM GAS  /tmp/cc57xKLi.s 			page 91


 4958      32303135 
 4958      30333033 
 4959 0371 616E6368 		.ascii	"anch revision 221220] -mcpu=cortex-m4 -mfloat-abi=h"
 4959      20726576 
 4959      6973696F 
 4959      6E203232 
 4959      31323230 
 4960 03a4 61726420 		.ascii	"ard -mfpu=fpv4-sp-d16 -mno-thumb-interwork -mthumb "
 4960      2D6D6670 
 4960      753D6670 
 4960      76342D73 
 4960      702D6431 
 4961 03d7 2D676764 		.ascii	"-ggdb -fomit-frame-pointer -falign-functions=16 -ff"
 4961      62202D66 
 4961      6F6D6974 
 4961      2D667261 
 4961      6D652D70 
 4962 040a 756E6374 		.ascii	"unction-sections -fdata-sections -fno-common -fsing"
 4962      696F6E2D 
 4962      73656374 
 4962      696F6E73 
 4962      202D6664 
 4963 043d 6C652D70 		.ascii	"le-precision-constant\000"
 4963      72656369 
 4963      73696F6E 
 4963      2D636F6E 
 4963      7374616E 
 4964              	.LASF114:
 4965 0453 67646973 		.ascii	"gdispImagePrivate\000"
 4965      70496D61 
 4965      67655072 
 4965      69766174 
 4965      6500
 4966              	.LASF64:
 4967 0465 4D757465 		.ascii	"Mutex\000"
 4967      7800
 4968              	.LASF144:
 4969 046b 63757374 		.ascii	"customParam\000"
 4969      6F6D5061 
 4969      72616D00 
 4970              	.LASF87:
 4971 0477 70617261 		.ascii	"param\000"
 4971      6D00
 4972              	.LASF54:
 4973 047d 54687265 		.ascii	"ThreadsQueue\000"
 4973      61647351 
 4973      75657565 
 4973      00
 4974              	.LASF98:
 4975 048a 636F6F72 		.ascii	"coord_t\000"
 4975      645F7400 
 4976              	.LASF112:
 4977 0492 70726976 		.ascii	"priv\000"
 4977      00
 4978              	.LASF82:
 4979 0497 47457665 		.ascii	"GEventCallbackFn\000"
 4979      6E744361 
ARM GAS  /tmp/cc57xKLi.s 			page 92


 4979      6C6C6261 
 4979      636B466E 
 4979      00
 4980              	.LASF14:
 4981 04a8 5F5F7569 		.ascii	"__uint64_t\000"
 4981      6E743634 
 4981      5F7400
 4982              	.LASF61:
 4983 04b3 53656D61 		.ascii	"Semaphore\000"
 4983      70686F72 
 4983      6500
 4984              	.LASF130:
 4985 04bd 66696C6C 		.ascii	"fill\000"
 4985      00
 4986              	.LASF125:
 4987 04c2 4757696E 		.ascii	"GWindowInit\000"
 4987      646F7749 
 4987      6E697400 
 4988              	.LASF106:
 4989 04ce 67646973 		.ascii	"gdispImageType\000"
 4989      70496D61 
 4989      67655479 
 4989      706500
 4990              	.LASF26:
 4991 04dd 74726566 		.ascii	"trefs_t\000"
 4991      735F7400 
 4992              	.LASF109:
 4993 04e5 6267636F 		.ascii	"bgcolor\000"
 4993      6C6F7200 
 4994              	.LASF84:
 4995 04ed 77616974 		.ascii	"waitqueue\000"
 4995      71756575 
 4995      6500
 4996              	.LASF102:
 4997 04f7 666F6E74 		.ascii	"font_t\000"
 4997      5F7400
 4998              	.LASF35:
 4999 04fe 705F7072 		.ascii	"p_prev\000"
 4999      657600
 5000              	.LASF28:
 5001 0505 74707269 		.ascii	"tprio_t\000"
 5001      6F5F7400 
 5002              	.LASF104:
 5003 050d 47446973 		.ascii	"GDisplay\000"
 5003      706C6179 
 5003      00
 5004              	.LASF170:
 5005 0516 2F686F6D 		.ascii	"/home/makkmarci/workspace/ugfx/src/gwin/gwin_slider"
 5005      652F6D61 
 5005      6B6B6D61 
 5005      7263692F 
 5005      776F726B 
 5006 0549 2E6300   		.ascii	".c\000"
 5007              	.LASF23:
 5008 054c 5F426F6F 		.ascii	"_Bool\000"
 5008      6C00
 5009              	.LASF19:
ARM GAS  /tmp/cc57xKLi.s 			page 93


 5010 0552 696E7433 		.ascii	"int32_t\000"
 5010      325F7400 
 5011              	.LASF4:
 5012 055a 756E7369 		.ascii	"unsigned char\000"
 5012      676E6564 
 5012      20636861 
 5012      7200
 5013              	.LASF147:
 5014 0568 6777696E 		.ascii	"gwin\000"
 5014      00
 5015              	.LASF63:
 5016 056d 735F636E 		.ascii	"s_cnt\000"
 5016      7400
 5017              	.LASF51:
 5018 0573 705F6D74 		.ascii	"p_mtxlist\000"
 5018      786C6973 
 5018      7400
 5019              	.LASF6:
 5020 057d 73686F72 		.ascii	"short int\000"
 5020      7420696E 
 5020      7400
 5021              	.LASF42:
 5022 0587 705F7374 		.ascii	"p_state\000"
 5022      61746500 
 5023              	.LASF124:
 5024 058f 41667465 		.ascii	"AfterClear\000"
 5024      72436C65 
 5024      617200
 5025              	.LASF45:
 5026 059a 705F7072 		.ascii	"p_preempt\000"
 5026      65656D70 
 5026      7400
 5027              	.LASF71:
 5028 05a4 65776D61 		.ascii	"ewmask\000"
 5028      736B00
 5029              	.LASF34:
 5030 05ab 705F6E65 		.ascii	"p_next\000"
 5030      787400
 5031              	.LASF43:
 5032 05b2 705F666C 		.ascii	"p_flags\000"
 5032      61677300 
 5033              	.LASF167:
 5034 05ba 6777696E 		.ascii	"gwinSliderDraw_Image\000"
 5034      536C6964 
 5034      65724472 
 5034      61775F49 
 5034      6D616765 
 5035              	.LASF137:
 5036 05cf 43757374 		.ascii	"CustomWidgetDrawFunction\000"
 5036      6F6D5769 
 5036      64676574 
 5036      44726177 
 5036      46756E63 
 5037              	.LASF83:
 5038 05e8 474C6973 		.ascii	"GListener\000"
 5038      74656E65 
 5038      7200
ARM GAS  /tmp/cc57xKLi.s 			page 94


 5039              	.LASF33:
 5040 05f2 54687265 		.ascii	"Thread\000"
 5040      616400
 5041              	.LASF75:
 5042 05f9 67667853 		.ascii	"gfxSem\000"
 5042      656D00
 5043              	.LASF50:
 5044 0600 705F6570 		.ascii	"p_epending\000"
 5044      656E6469 
 5044      6E6700
 5045              	.LASF168:
 5046 060b 736C6964 		.ascii	"sliderVMT\000"
 5046      6572564D 
 5046      5400
 5047              	.LASF20:
 5048 0615 75696E74 		.ascii	"uint32_t\000"
 5048      33325F74 
 5048      00
 5049              	.LASF101:
 5050 061e 6A757374 		.ascii	"justifyRight\000"
 5050      69667952 
 5050      69676874 
 5050      00
 5051              	.LASF134:
 5052 062b 656E6162 		.ascii	"enabled\000"
 5052      6C656400 
 5053              	.LASF119:
 5054 0633 6777696E 		.ascii	"gwinVMT\000"
 5054      564D5400 
 5055              	.LASF12:
 5056 063b 6C6F6E67 		.ascii	"long unsigned int\000"
 5056      20756E73 
 5056      69676E65 
 5056      6420696E 
 5056      7400
 5057              	.LASF122:
 5058 064d 44657374 		.ascii	"Destroy\000"
 5058      726F7900 
 5059              	.LASF117:
 5060 0655 636F6C6F 		.ascii	"color\000"
 5060      7200
 5061              	.LASF72:
 5062 065b 63686172 		.ascii	"char\000"
 5062      00
 5063              	.LASF128:
 5064 0660 74657874 		.ascii	"text\000"
 5064      00
 5065              	.LASF7:
 5066 0665 5F5F7569 		.ascii	"__uint16_t\000"
 5066      6E743136 
 5066      5F7400
 5067              	.LASF99:
 5068 0670 6A757374 		.ascii	"justifyLeft\000"
 5068      6966794C 
 5068      65667400 
 5069              	.LASF67:
 5070 067c 6D5F6E65 		.ascii	"m_next\000"
ARM GAS  /tmp/cc57xKLi.s 			page 95


 5070      787400
 5071              	.LASF31:
 5072 0683 73797374 		.ascii	"systime_t\000"
 5072      696D655F 
 5072      7400
 5073              	.LASF52:
 5074 068d 705F7265 		.ascii	"p_realprio\000"
 5074      616C7072 
 5074      696F00
 5075              	.LASF9:
 5076 0698 5F5F696E 		.ascii	"__int32_t\000"
 5076      7433325F 
 5076      7400
 5077              	.LASF123:
 5078 06a2 52656472 		.ascii	"Redraw\000"
 5078      617700
 5079              	.LASF113:
 5080 06a9 67646973 		.ascii	"gdispImageHandlers\000"
 5080      70496D61 
 5080      67654861 
 5080      6E646C65 
 5080      727300
 5081              	.LASF59:
 5082 06bc 636F6E74 		.ascii	"context\000"
 5082      65787400 
 5083              	.LASF93:
 5084 06c4 704C6973 		.ascii	"pListener\000"
 5084      74656E65 
 5084      7200
 5085              	.LASF115:
 5086 06ce 4757696E 		.ascii	"GWindowObject\000"
 5086      646F774F 
 5086      626A6563 
 5086      7400
 5087              	.LASF58:
 5088 06dc 696E7463 		.ascii	"intctx\000"
 5088      747800
 5089              	.LASF142:
 5090 06e3 47576964 		.ascii	"GWidgetInit\000"
 5090      67657449 
 5090      6E697400 
 5091              	.LASF163:
 5092 06ef 6777696E 		.ascii	"gwinSliderSetPosition\000"
 5092      536C6964 
 5092      65725365 
 5092      74506F73 
 5092      6974696F 
 5093              	.LASF173:
 5094 0705 43616C63 		.ascii	"CalculatePosFromDPos\000"
 5094      756C6174 
 5094      65506F73 
 5094      46726F6D 
 5094      44506F73 
 5095              	.LASF156:
 5096 071a 44656661 		.ascii	"DefaultDraw\000"
 5096      756C7444 
 5096      72617700 
ARM GAS  /tmp/cc57xKLi.s 			page 96


 5097              	.LASF44:
 5098 0726 705F7265 		.ascii	"p_refs\000"
 5098      667300
 5099              	.LASF136:
 5100 072d 70726573 		.ascii	"pressed\000"
 5100      73656400 
 5101              	.LASF118:
 5102 0735 666F6E74 		.ascii	"font\000"
 5102      00
 5103              	.LASF95:
 5104 073a 6C697374 		.ascii	"listenflags\000"
 5104      656E666C 
 5104      61677300 
 5105              	.LASF108:
 5106 0746 67646973 		.ascii	"gdispImage\000"
 5106      70496D61 
 5106      676500
 5107              	.LASF16:
 5108 0751 75696E74 		.ascii	"uint8_t\000"
 5108      385F7400 
 5109              	.LASF160:
 5110 0759 53657444 		.ascii	"SetDisplayPosFromMouse\000"
 5110      6973706C 
 5110      6179506F 
 5110      7346726F 
 5110      6D4D6F75 
 5111              	.LASF96:
 5112 0770 73726366 		.ascii	"srcflags\000"
 5112      6C616773 
 5112      00
 5113              	.LASF85:
 5114 0779 666C6167 		.ascii	"flags\000"
 5114      7300
 5115              	.LASF76:
 5116 077f 4746494C 		.ascii	"GFILE\000"
 5116      4500
 5117              	.LASF70:
 5118 0785 77746F62 		.ascii	"wtobjp\000"
 5118      6A7000
 5119              	.LASF132:
 5120 078c 47576964 		.ascii	"GWidgetStyle\000"
 5120      67657453 
 5120      74796C65 
 5120      00
 5121              	.LASF40:
 5122 0799 705F6E61 		.ascii	"p_name\000"
 5122      6D6500
 5123              	.LASF97:
 5124 07a0 47536F75 		.ascii	"GSourceListener\000"
 5124      7263654C 
 5124      69737465 
 5124      6E657200 
 5125              	.LASF39:
 5126 07b0 705F6F6C 		.ascii	"p_older\000"
 5126      64657200 
 5127              	.LASF154:
 5128 07b8 4D6F7573 		.ascii	"MouseMove\000"
ARM GAS  /tmp/cc57xKLi.s 			page 97


 5128      654D6F76 
 5128      6500
 5129              	.LASF151:
 5130 07c2 64706F73 		.ascii	"dpos\000"
 5130      00
 5131              	.LASF49:
 5132 07c7 705F6D73 		.ascii	"p_msg\000"
 5132      6700
 5133              	.LASF111:
 5134 07cd 68656967 		.ascii	"height\000"
 5134      687400
 5135              	.LASF161:
 5136 07d4 70496E69 		.ascii	"pInit\000"
 5136      7400
 5137              	.LASF92:
 5138 07da 47536F75 		.ascii	"GSourceListener_t\000"
 5138      7263654C 
 5138      69737465 
 5138      6E65725F 
 5138      7400
 5139              	.LASF77:
 5140 07ec 67667851 		.ascii	"gfxQueueASyncItem\000"
 5140      75657565 
 5140      4153796E 
 5140      63497465 
 5140      6D00
 5141              	.LASF133:
 5142 07fe 6261636B 		.ascii	"background\000"
 5142      67726F75 
 5142      6E6400
 5143              	.LASF66:
 5144 0809 6D5F6F77 		.ascii	"m_owner\000"
 5144      6E657200 
 5145              	.LASF37:
 5146 0811 705F6374 		.ascii	"p_ctx\000"
 5146      7800
 5147              	.LASF47:
 5148 0817 705F7761 		.ascii	"p_waiting\000"
 5148      6974696E 
 5148      6700
 5149              	.LASF146:
 5150 0821 47457665 		.ascii	"GEventGWinSlider\000"
 5150      6E744757 
 5150      696E536C 
 5150      69646572 
 5150      00
 5151              		.ident	"GCC: (GNU Tools for ARM Embedded Processors) 4.9.3 20150303 (release) [ARM/embedded-4_9-br
ARM GAS  /tmp/cc57xKLi.s 			page 98


DEFINED SYMBOLS
                            *ABS*:00000000 gwin_slider.c
     /tmp/cc57xKLi.s:21     .text.CalculatePosFromDPos:00000000 $t
     /tmp/cc57xKLi.s:26     .text.CalculatePosFromDPos:00000000 CalculatePosFromDPos
     /tmp/cc57xKLi.s:203    .text.SendSliderEvent:00000000 $t
     /tmp/cc57xKLi.s:208    .text.SendSliderEvent:00000000 SendSliderEvent
     /tmp/cc57xKLi.s:319    .text.SendSliderEvent:000000a0 $d
     /tmp/cc57xKLi.s:324    .text.ResetDisplayPos:00000000 $t
     /tmp/cc57xKLi.s:329    .text.ResetDisplayPos:00000000 ResetDisplayPos
     /tmp/cc57xKLi.s:408    .text.SetDisplayPosFromMouse:00000000 $t
     /tmp/cc57xKLi.s:413    .text.SetDisplayPosFromMouse:00000000 SetDisplayPosFromMouse
     /tmp/cc57xKLi.s:514    .text.MouseUp:00000000 $t
     /tmp/cc57xKLi.s:519    .text.MouseUp:00000000 MouseUp
     /tmp/cc57xKLi.s:568    .text.MouseDown:00000000 $t
     /tmp/cc57xKLi.s:573    .text.MouseDown:00000000 MouseDown
     /tmp/cc57xKLi.s:613    .text.MouseMove:00000000 $t
     /tmp/cc57xKLi.s:618    .text.MouseMove:00000000 MouseMove
     /tmp/cc57xKLi.s:658    .rodata:00000000 $d
     /tmp/cc57xKLi.s:662    .rodata.sliderVMT:00000000 $d
     /tmp/cc57xKLi.s:665    .rodata.sliderVMT:00000000 sliderVMT
     /tmp/cc57xKLi.s:1000   .text.gwinSliderDraw_Std:00000000 gwinSliderDraw_Std
     /tmp/cc57xKLi.s:676    .text.gwinGSliderCreate:00000000 $t
     /tmp/cc57xKLi.s:682    .text.gwinGSliderCreate:00000000 gwinGSliderCreate
     /tmp/cc57xKLi.s:744    .text.gwinGSliderCreate:00000054 $d
     /tmp/cc57xKLi.s:749    .text.gwinSliderSetRange:00000000 $t
     /tmp/cc57xKLi.s:755    .text.gwinSliderSetRange:00000000 gwinSliderSetRange
     /tmp/cc57xKLi.s:812    .text.gwinSliderSetRange:00000044 $d
     /tmp/cc57xKLi.s:817    .text.gwinSliderSetPosition:00000000 $t
     /tmp/cc57xKLi.s:823    .text.gwinSliderSetPosition:00000000 gwinSliderSetPosition
     /tmp/cc57xKLi.s:930    .text.gwinSliderSetPosition:00000090 $d
     /tmp/cc57xKLi.s:935    .text.gwinSliderSendExtendedEvents:00000000 $t
     /tmp/cc57xKLi.s:941    .text.gwinSliderSendExtendedEvents:00000000 gwinSliderSendExtendedEvents
     /tmp/cc57xKLi.s:989    .text.gwinSliderSendExtendedEvents:0000003c $d
     /tmp/cc57xKLi.s:994    .text.gwinSliderDraw_Std:00000000 $t
     /tmp/cc57xKLi.s:1316   .text.gwinSliderDraw_Std:00000240 $d
     /tmp/cc57xKLi.s:1319   .text.gwinSliderDraw_Std:00000244 $t
     /tmp/cc57xKLi.s:1635   .text.gwinSliderDraw_Image:00000000 $t
     /tmp/cc57xKLi.s:1641   .text.gwinSliderDraw_Image:00000000 gwinSliderDraw_Image
     /tmp/cc57xKLi.s:1948   .text.gwinSliderDraw_Image:00000234 $d
     /tmp/cc57xKLi.s:1951   .text.gwinSliderDraw_Image:00000238 $t
                     .debug_frame:00000010 $d
     /tmp/cc57xKLi.s:323    .text.SendSliderEvent:000000a4 $t
     /tmp/cc57xKLi.s:748    .text.gwinGSliderCreate:00000058 $t
     /tmp/cc57xKLi.s:816    .text.gwinSliderSetRange:00000048 $t
     /tmp/cc57xKLi.s:934    .text.gwinSliderSetPosition:00000094 $t

UNDEFINED SYMBOLS
geventGetEventBuffer
geventSendEvent
geventGetSourceListener
_gwidgetCreate
_gwinUpdate
_gwidgetDestroy
_gwidgetRedraw
gwinSetVisible
gdispGFillArea
gdispGDrawBox
ARM GAS  /tmp/cc57xKLi.s 			page 99


gdispGDrawLine
gdispGDrawStringBox
gdispGImageDraw
