ARM GAS  /tmp/ccihpvPa.s 			page 1


   1              		.syntax unified
   2              		.cpu cortex-m4
   3              		.eabi_attribute 27, 1
   4              		.eabi_attribute 28, 1
   5              		.fpu fpv4-sp-d16
   6              		.eabi_attribute 20, 1
   7              		.eabi_attribute 21, 1
   8              		.eabi_attribute 23, 3
   9              		.eabi_attribute 24, 1
  10              		.eabi_attribute 25, 1
  11              		.eabi_attribute 26, 1
  12              		.eabi_attribute 30, 6
  13              		.eabi_attribute 34, 1
  14              		.eabi_attribute 18, 4
  15              		.thumb
  16              		.file	"gwin_wm.c"
  17              		.text
  18              	.Ltext0:
  19              		.cfi_sections	.debug_frame
  20              		.global	_GWINwm
  21              		.section	.bss._GWINwm,"aw",%nobits
  22              		.align	2
  23              		.type	_GWINwm, %object
  24              		.size	_GWINwm, 4
  25              	_GWINwm:
  26 0000 00000000 		.space	4
  27              		.global	_gwinFlashState
  28              		.section	.bss._gwinFlashState,"aw",%nobits
  29              		.type	_gwinFlashState, %object
  30              		.size	_gwinFlashState, 1
  31              	_gwinFlashState:
  32 0000 00       		.space	1
  33              		.section	.bss.gwinsem,"aw",%nobits
  34              		.align	2
  35              		.type	gwinsem, %object
  36              		.size	gwinsem, 16
  37              	gwinsem:
  38 0000 00000000 		.space	16
  38      00000000 
  38      00000000 
  38      00000000 
  39              		.section	.bss._GWINList,"aw",%nobits
  40              		.align	2
  41              		.type	_GWINList, %object
  42              		.size	_GWINList, 8
  43              	_GWINList:
  44 0000 00000000 		.space	8
  44      00000000 
  45              		.section	.bss.RedrawTimer,"aw",%nobits
  46              		.align	2
  47              		.type	RedrawTimer, %object
  48              		.size	RedrawTimer, 28
  49              	RedrawTimer:
  50 0000 00000000 		.space	28
  50      00000000 
  50      00000000 
  50      00000000 
ARM GAS  /tmp/ccihpvPa.s 			page 2


  50      00000000 
  51              		.section	.bss.RedrawPending,"aw",%nobits
  52              		.type	RedrawPending, %object
  53              		.size	RedrawPending, 1
  54              	RedrawPending:
  55 0000 00       		.space	1
  56              		.section	.text._gwmInit,"ax",%progbits
  57              		.align	2
  58              		.p2align 4,,15
  59              		.global	_gwmInit
  60              		.thumb
  61              		.thumb_func
  62              		.type	_gwmInit, %function
  63              	_gwmInit:
  64              	.LFB111:
  65              		.file 1 "/home/makkmarci/workspace/ugfx/src/gwin/gwin_wm.c"
  66              		.loc 1 186 0
  67              		.cfi_startproc
  68              		@ args = 0, pretend = 0, frame = 0
  69              		@ frame_needed = 0, uses_anonymous_args = 0
  70 0000 00B5     		push	{lr}
  71              		.cfi_def_cfa_offset 4
  72              		.cfi_offset 14, -4
  73 0002 83B0     		sub	sp, sp, #12
  74              		.cfi_def_cfa_offset 16
  75              		.loc 1 187 0
  76 0004 0F48     		ldr	r0, .L2
  77 0006 0121     		movs	r1, #1
  78 0008 0122     		movs	r2, #1
  79 000a FFF7FEFF 		bl	gfxSemInit
  80              		.loc 1 188 0
  81 000e 0E48     		ldr	r0, .L2+4
  82 0010 FFF7FEFF 		bl	gfxQueueASyncInit
  83              		.loc 1 193 0
  84 0014 0D48     		ldr	r0, .L2+8
  85 0016 FFF7FEFF 		bl	gtimerInit
  86              		.loc 1 194 0
  87 001a 4FF0FF33 		mov	r3, #-1
  88 001e 0093     		str	r3, [sp]
  89 0020 0A48     		ldr	r0, .L2+8
  90 0022 0B49     		ldr	r1, .L2+12
  91 0024 0022     		movs	r2, #0
  92 0026 0123     		movs	r3, #1
  93 0028 FFF7FEFF 		bl	gtimerStart
  94              		.loc 1 196 0
  95 002c 094B     		ldr	r3, .L2+16
  96 002e 0A4A     		ldr	r2, .L2+20
  97 0030 1A60     		str	r2, [r3]
  98              		.loc 1 197 0
  99 0032 084B     		ldr	r3, .L2+16
 100 0034 1B68     		ldr	r3, [r3]
 101 0036 1B68     		ldr	r3, [r3]
 102 0038 1B68     		ldr	r3, [r3]
 103 003a 9847     		blx	r3
 104              		.loc 1 198 0
 105 003c 03B0     		add	sp, sp, #12
 106              		.cfi_def_cfa_offset 4
ARM GAS  /tmp/ccihpvPa.s 			page 3


 107              		@ sp needed
 108 003e 5DF804FB 		ldr	pc, [sp], #4
 109              	.L3:
 110 0042 00BF     		.align	2
 111              	.L2:
 112 0044 00000000 		.word	gwinsem
 113 0048 00000000 		.word	_GWINList
 114 004c 00000000 		.word	RedrawTimer
 115 0050 00000000 		.word	RedrawTimerFn
 116 0054 00000000 		.word	_GWINwm
 117 0058 00000000 		.word	GNullWindowManager
 118              		.cfi_endproc
 119              	.LFE111:
 120              		.size	_gwmInit, .-_gwmInit
 121 005c AFF30080 		.section	.text._gwmDeinit,"ax",%progbits
 122              		.align	2
 123              		.p2align 4,,15
 124              		.global	_gwmDeinit
 125              		.thumb
 126              		.thumb_func
 127              		.type	_gwmDeinit, %function
 128              	_gwmDeinit:
 129              	.LFB112:
 130              		.loc 1 201 0
 131              		.cfi_startproc
 132              		@ args = 0, pretend = 0, frame = 8
 133              		@ frame_needed = 0, uses_anonymous_args = 0
 134 0000 00B5     		push	{lr}
 135              		.cfi_def_cfa_offset 4
 136              		.cfi_offset 14, -4
 137 0002 83B0     		sub	sp, sp, #12
 138              		.cfi_def_cfa_offset 16
 139              		.loc 1 204 0
 140 0004 02E0     		b	.L5
 141              	.L6:
 142              		.loc 1 205 0
 143 0006 0198     		ldr	r0, [sp, #4]
 144 0008 FFF7FEFF 		bl	gwinDestroy
 145              	.L5:
 146              		.loc 1 204 0
 147 000c 0020     		movs	r0, #0
 148 000e FFF7FEFF 		bl	gwinGetNextWindow
 149 0012 0190     		str	r0, [sp, #4]
 150 0014 019B     		ldr	r3, [sp, #4]
 151 0016 002B     		cmp	r3, #0
 152 0018 F5D1     		bne	.L6
 153              		.loc 1 207 0
 154 001a 074B     		ldr	r3, .L7
 155 001c 1B68     		ldr	r3, [r3]
 156 001e 1B68     		ldr	r3, [r3]
 157 0020 5B68     		ldr	r3, [r3, #4]
 158 0022 9847     		blx	r3
 159              		.loc 1 209 0
 160 0024 0548     		ldr	r0, .L7+4
 161 0026 FFF7FEFF 		bl	gtimerDeinit
 162              		.loc 1 212 0
 163 002a 0548     		ldr	r0, .L7+8
ARM GAS  /tmp/ccihpvPa.s 			page 4


 164 002c FFF7FEFF 		bl	gfxSemDestroy
 165              		.loc 1 213 0
 166 0030 03B0     		add	sp, sp, #12
 167              		.cfi_def_cfa_offset 4
 168              		@ sp needed
 169 0032 5DF804FB 		ldr	pc, [sp], #4
 170              	.L8:
 171 0036 00BF     		.align	2
 172              	.L7:
 173 0038 00000000 		.word	_GWINwm
 174 003c 00000000 		.word	RedrawTimer
 175 0040 00000000 		.word	gwinsem
 176              		.cfi_endproc
 177              	.LFE112:
 178              		.size	_gwmDeinit, .-_gwmDeinit
 179 0044 AFF30080 		.section	.text.RedrawTimerFn,"ax",%progbits
 179      AFF30080 
 179      AFF30080 
 180              		.align	2
 181              		.p2align 4,,15
 182              		.thumb
 183              		.thumb_func
 184              		.type	RedrawTimerFn, %function
 185              	RedrawTimerFn:
 186              	.LFB113:
 187              		.loc 1 220 0
 188              		.cfi_startproc
 189              		@ args = 0, pretend = 0, frame = 8
 190              		@ frame_needed = 0, uses_anonymous_args = 0
 191 0000 00B5     		push	{lr}
 192              		.cfi_def_cfa_offset 4
 193              		.cfi_offset 14, -4
 194 0002 83B0     		sub	sp, sp, #12
 195              		.cfi_def_cfa_offset 16
 196 0004 0190     		str	r0, [sp, #4]
 197              		.loc 1 222 0
 198 0006 0120     		movs	r0, #1
 199 0008 FFF7FEFF 		bl	_gwinFlushRedraws
 200              		.loc 1 223 0
 201 000c 03B0     		add	sp, sp, #12
 202              		.cfi_def_cfa_offset 4
 203              		@ sp needed
 204 000e 5DF804FB 		ldr	pc, [sp], #4
 205              		.cfi_endproc
 206              	.LFE113:
 207              		.size	RedrawTimerFn, .-RedrawTimerFn
 208 0012 00BFAFF3 		.section	.text._gwinFlushRedraws,"ax",%progbits
 208      0080AFF3 
 208      0080AFF3 
 208      0080
 209              		.align	2
 210              		.p2align 4,,15
 211              		.global	_gwinFlushRedraws
 212              		.thumb
 213              		.thumb_func
 214              		.type	_gwinFlushRedraws, %function
 215              	_gwinFlushRedraws:
ARM GAS  /tmp/ccihpvPa.s 			page 5


 216              	.LFB114:
 217              		.loc 1 226 0
 218              		.cfi_startproc
 219              		@ args = 0, pretend = 0, frame = 16
 220              		@ frame_needed = 0, uses_anonymous_args = 0
 221 0000 30B5     		push	{r4, r5, lr}
 222              		.cfi_def_cfa_offset 12
 223              		.cfi_offset 4, -12
 224              		.cfi_offset 5, -8
 225              		.cfi_offset 14, -4
 226 0002 87B0     		sub	sp, sp, #28
 227              		.cfi_def_cfa_offset 40
 228 0004 0346     		mov	r3, r0
 229 0006 8DF80F30 		strb	r3, [sp, #15]
 230              		.loc 1 230 0
 231 000a 804B     		ldr	r3, .L32
 232 000c 1B78     		ldrb	r3, [r3]
 233 000e DBB2     		uxtb	r3, r3
 234 0010 002B     		cmp	r3, #0
 235 0012 00D1     		bne	.L11
 236              		.loc 1 231 0
 237 0014 F7E0     		b	.L10
 238              	.L11:
 239              		.loc 1 234 0
 240 0016 9DF80F30 		ldrb	r3, [sp, #15]	@ zero_extendqisi2
 241 001a 002B     		cmp	r3, #0
 242 001c 05D1     		bne	.L13
 243              		.loc 1 235 0
 244 001e 7C48     		ldr	r0, .L32+4
 245 0020 4FF0FF31 		mov	r1, #-1
 246 0024 FFF7FEFF 		bl	gfxSemWait
 247 0028 0EE0     		b	.L14
 248              	.L13:
 249              		.loc 1 236 0
 250 002a 9DF80F30 		ldrb	r3, [sp, #15]	@ zero_extendqisi2
 251 002e 012B     		cmp	r3, #1
 252 0030 0AD1     		bne	.L14
 253              		.loc 1 236 0 is_stmt 0 discriminator 1
 254 0032 7748     		ldr	r0, .L32+4
 255 0034 0021     		movs	r1, #0
 256 0036 FFF7FEFF 		bl	gfxSemWait
 257 003a 0346     		mov	r3, r0
 258 003c 83F00103 		eor	r3, r3, #1
 259 0040 DBB2     		uxtb	r3, r3
 260 0042 002B     		cmp	r3, #0
 261 0044 00D0     		beq	.L14
 262              		.loc 1 238 0 is_stmt 1 discriminator 2
 263 0046 DEE0     		b	.L10
 264              	.L14:
 265              		.loc 1 241 0
 266 0048 59E0     		b	.L15
 267              	.L21:
 268              		.loc 1 242 0
 269 004a 704B     		ldr	r3, .L32
 270 004c 1B78     		ldrb	r3, [r3]
 271 004e DBB2     		uxtb	r3, r3
 272 0050 23F00103 		bic	r3, r3, #1
ARM GAS  /tmp/ccihpvPa.s 			page 6


 273 0054 DAB2     		uxtb	r2, r3
 274 0056 6D4B     		ldr	r3, .L32
 275 0058 1A70     		strb	r2, [r3]
 276              		.loc 1 244 0
 277 005a 0020     		movs	r0, #0
 278 005c FFF7FEFF 		bl	gwinGetNextWindow
 279 0060 0590     		str	r0, [sp, #20]
 280 0062 49E0     		b	.L16
 281              	.L20:
 282              		.loc 1 245 0
 283 0064 059B     		ldr	r3, [sp, #20]
 284 0066 9B69     		ldr	r3, [r3, #24]
 285 0068 03F48443 		and	r3, r3, #16896
 286 006c B3F5804F 		cmp	r3, #16384
 287 0070 00D0     		beq	.L17
 288              		.loc 1 246 0
 289 0072 3DE0     		b	.L18
 290              	.L17:
 291              		.loc 1 250 0
 292 0074 059B     		ldr	r3, [sp, #20]
 293 0076 9868     		ldr	r0, [r3, #8]
 294 0078 059B     		ldr	r3, [sp, #20]
 295 007a 9989     		ldrh	r1, [r3, #12]
 296 007c 059B     		ldr	r3, [sp, #20]
 297 007e DA89     		ldrh	r2, [r3, #14]
 298 0080 059B     		ldr	r3, [sp, #20]
 299 0082 1C8A     		ldrh	r4, [r3, #16]
 300 0084 059B     		ldr	r3, [sp, #20]
 301 0086 5B8A     		ldrh	r3, [r3, #18]
 302 0088 09B2     		sxth	r1, r1
 303 008a 12B2     		sxth	r2, r2
 304 008c 24B2     		sxth	r4, r4
 305 008e 1BB2     		sxth	r3, r3
 306 0090 0093     		str	r3, [sp]
 307 0092 2346     		mov	r3, r4
 308 0094 FFF7FEFF 		bl	gdispGSetClip
 309              		.loc 1 251 0
 310 0098 5E4B     		ldr	r3, .L32+8
 311 009a 1B68     		ldr	r3, [r3]
 312 009c 1B68     		ldr	r3, [r3]
 313 009e 1B69     		ldr	r3, [r3, #16]
 314 00a0 0598     		ldr	r0, [sp, #20]
 315 00a2 9847     		blx	r3
 316              		.loc 1 252 0
 317 00a4 059B     		ldr	r3, [sp, #20]
 318 00a6 9C68     		ldr	r4, [r3, #8]
 319 00a8 059B     		ldr	r3, [sp, #20]
 320 00aa 9B68     		ldr	r3, [r3, #8]
 321 00ac 1846     		mov	r0, r3
 322 00ae FFF7FEFF 		bl	gdispGGetWidth
 323 00b2 0346     		mov	r3, r0
 324 00b4 1D46     		mov	r5, r3
 325 00b6 059B     		ldr	r3, [sp, #20]
 326 00b8 9B68     		ldr	r3, [r3, #8]
 327 00ba 1846     		mov	r0, r3
 328 00bc FFF7FEFF 		bl	gdispGGetHeight
 329 00c0 0346     		mov	r3, r0
ARM GAS  /tmp/ccihpvPa.s 			page 7


 330 00c2 0093     		str	r3, [sp]
 331 00c4 2046     		mov	r0, r4
 332 00c6 0021     		movs	r1, #0
 333 00c8 0022     		movs	r2, #0
 334 00ca 2B46     		mov	r3, r5
 335 00cc FFF7FEFF 		bl	gdispGSetClip
 336              		.loc 1 259 0
 337 00d0 9DF80F30 		ldrb	r3, [sp, #15]	@ zero_extendqisi2
 338 00d4 012B     		cmp	r3, #1
 339 00d6 0BD1     		bne	.L18
 340              		.loc 1 260 0
 341 00d8 4C4B     		ldr	r3, .L32
 342 00da 1B78     		ldrb	r3, [r3]
 343 00dc DBB2     		uxtb	r3, r3
 344 00de 43F00103 		orr	r3, r3, #1
 345 00e2 DAB2     		uxtb	r2, r3
 346 00e4 494B     		ldr	r3, .L32
 347 00e6 1A70     		strb	r2, [r3]
 348              		.loc 1 261 0
 349 00e8 4B48     		ldr	r0, .L32+12
 350 00ea FFF7FEFF 		bl	gtimerJab
 351              		.loc 1 262 0
 352 00ee 7FE0     		b	.L19
 353              	.L18:
 354              		.loc 1 244 0 discriminator 2
 355 00f0 0598     		ldr	r0, [sp, #20]
 356 00f2 FFF7FEFF 		bl	gwinGetNextWindow
 357 00f6 0590     		str	r0, [sp, #20]
 358              	.L16:
 359              		.loc 1 244 0 is_stmt 0 discriminator 1
 360 00f8 059B     		ldr	r3, [sp, #20]
 361 00fa 002B     		cmp	r3, #0
 362 00fc B2D1     		bne	.L20
 363              	.L15:
 364              		.loc 1 241 0 is_stmt 1
 365 00fe 434B     		ldr	r3, .L32
 366 0100 1B78     		ldrb	r3, [r3]
 367 0102 DBB2     		uxtb	r3, r3
 368 0104 03F00103 		and	r3, r3, #1
 369 0108 002B     		cmp	r3, #0
 370 010a 9ED1     		bne	.L21
 371              		.loc 1 269 0
 372 010c 69E0     		b	.L22
 373              	.L30:
 374              		.loc 1 270 0
 375 010e 3F4B     		ldr	r3, .L32
 376 0110 1B78     		ldrb	r3, [r3]
 377 0112 DBB2     		uxtb	r3, r3
 378 0114 23F00203 		bic	r3, r3, #2
 379 0118 DAB2     		uxtb	r2, r3
 380 011a 3C4B     		ldr	r3, .L32
 381 011c 1A70     		strb	r2, [r3]
 382              		.loc 1 272 0
 383 011e 0020     		movs	r0, #0
 384 0120 FFF7FEFF 		bl	gwinGetNextWindow
 385 0124 0590     		str	r0, [sp, #20]
 386 0126 59E0     		b	.L23
ARM GAS  /tmp/ccihpvPa.s 			page 8


 387              	.L29:
 388              		.loc 1 273 0
 389 0128 059B     		ldr	r3, [sp, #20]
 390 012a 9B69     		ldr	r3, [r3, #24]
 391 012c 03F48443 		and	r3, r3, #16896
 392 0130 B3F5844F 		cmp	r3, #16896
 393 0134 00D0     		beq	.L24
 394              		.loc 1 274 0
 395 0136 4DE0     		b	.L25
 396              	.L24:
 397              		.loc 1 278 0
 398 0138 059B     		ldr	r3, [sp, #20]
 399 013a 9868     		ldr	r0, [r3, #8]
 400 013c 059B     		ldr	r3, [sp, #20]
 401 013e 9989     		ldrh	r1, [r3, #12]
 402 0140 059B     		ldr	r3, [sp, #20]
 403 0142 DA89     		ldrh	r2, [r3, #14]
 404 0144 059B     		ldr	r3, [sp, #20]
 405 0146 1C8A     		ldrh	r4, [r3, #16]
 406 0148 059B     		ldr	r3, [sp, #20]
 407 014a 5B8A     		ldrh	r3, [r3, #18]
 408 014c 09B2     		sxth	r1, r1
 409 014e 12B2     		sxth	r2, r2
 410 0150 24B2     		sxth	r4, r4
 411 0152 1BB2     		sxth	r3, r3
 412 0154 0093     		str	r3, [sp]
 413 0156 2346     		mov	r3, r4
 414 0158 FFF7FEFF 		bl	gdispGSetClip
 415              		.loc 1 279 0
 416 015c 2D4B     		ldr	r3, .L32+8
 417 015e 1B68     		ldr	r3, [r3]
 418 0160 1B68     		ldr	r3, [r3]
 419 0162 1B69     		ldr	r3, [r3, #16]
 420 0164 0598     		ldr	r0, [sp, #20]
 421 0166 9847     		blx	r3
 422              		.loc 1 280 0
 423 0168 059B     		ldr	r3, [sp, #20]
 424 016a 9C68     		ldr	r4, [r3, #8]
 425 016c 059B     		ldr	r3, [sp, #20]
 426 016e 9B68     		ldr	r3, [r3, #8]
 427 0170 1846     		mov	r0, r3
 428 0172 FFF7FEFF 		bl	gdispGGetWidth
 429 0176 0346     		mov	r3, r0
 430 0178 1D46     		mov	r5, r3
 431 017a 059B     		ldr	r3, [sp, #20]
 432 017c 9B68     		ldr	r3, [r3, #8]
 433 017e 1846     		mov	r0, r3
 434 0180 FFF7FEFF 		bl	gdispGGetHeight
 435 0184 0346     		mov	r3, r0
 436 0186 0093     		str	r3, [sp]
 437 0188 2046     		mov	r0, r4
 438 018a 0021     		movs	r1, #0
 439 018c 0022     		movs	r2, #0
 440 018e 2B46     		mov	r3, r5
 441 0190 FFF7FEFF 		bl	gdispGSetClip
 442              		.loc 1 287 0
 443 0194 9DF80F30 		ldrb	r3, [sp, #15]	@ zero_extendqisi2
ARM GAS  /tmp/ccihpvPa.s 			page 9


 444 0198 012B     		cmp	r3, #1
 445 019a 1BD1     		bne	.L25
 446              		.loc 1 288 0
 447 019c 12E0     		b	.L26
 448              	.L28:
 449              		.loc 1 289 0
 450 019e 059B     		ldr	r3, [sp, #20]
 451 01a0 9B69     		ldr	r3, [r3, #24]
 452 01a2 03F48443 		and	r3, r3, #16896
 453 01a6 B3F5844F 		cmp	r3, #16896
 454 01aa 0BD1     		bne	.L26
 455              		.loc 1 290 0
 456 01ac 174B     		ldr	r3, .L32
 457 01ae 1B78     		ldrb	r3, [r3]
 458 01b0 DBB2     		uxtb	r3, r3
 459 01b2 43F00203 		orr	r3, r3, #2
 460 01b6 DAB2     		uxtb	r2, r3
 461 01b8 144B     		ldr	r3, .L32
 462 01ba 1A70     		strb	r2, [r3]
 463              		.loc 1 291 0
 464 01bc 1648     		ldr	r0, .L32+12
 465 01be FFF7FEFF 		bl	gtimerJab
 466              		.loc 1 292 0
 467 01c2 06E0     		b	.L27
 468              	.L26:
 469              		.loc 1 288 0
 470 01c4 0598     		ldr	r0, [sp, #20]
 471 01c6 FFF7FEFF 		bl	gwinGetNextWindow
 472 01ca 0590     		str	r0, [sp, #20]
 473 01cc 059B     		ldr	r3, [sp, #20]
 474 01ce 002B     		cmp	r3, #0
 475 01d0 E5D1     		bne	.L28
 476              	.L27:
 477              		.loc 1 295 0
 478 01d2 0DE0     		b	.L19
 479              	.L25:
 480              		.loc 1 272 0 discriminator 2
 481 01d4 0598     		ldr	r0, [sp, #20]
 482 01d6 FFF7FEFF 		bl	gwinGetNextWindow
 483 01da 0590     		str	r0, [sp, #20]
 484              	.L23:
 485              		.loc 1 272 0 is_stmt 0 discriminator 1
 486 01dc 059B     		ldr	r3, [sp, #20]
 487 01de 002B     		cmp	r3, #0
 488 01e0 A2D1     		bne	.L29
 489              	.L22:
 490              		.loc 1 269 0 is_stmt 1
 491 01e2 0A4B     		ldr	r3, .L32
 492 01e4 1B78     		ldrb	r3, [r3]
 493 01e6 DBB2     		uxtb	r3, r3
 494 01e8 03F00203 		and	r3, r3, #2
 495 01ec 002B     		cmp	r3, #0
 496 01ee 8ED1     		bne	.L30
 497              	.L19:
 498              		.loc 1 306 0
 499 01f0 9DF80F30 		ldrb	r3, [sp, #15]	@ zero_extendqisi2
 500 01f4 002B     		cmp	r3, #0
ARM GAS  /tmp/ccihpvPa.s 			page 10


 501 01f6 03D0     		beq	.L31
 502              		.loc 1 306 0 is_stmt 0 discriminator 1
 503 01f8 9DF80F30 		ldrb	r3, [sp, #15]	@ zero_extendqisi2
 504 01fc 012B     		cmp	r3, #1
 505 01fe 02D1     		bne	.L10
 506              	.L31:
 507              		.loc 1 307 0 is_stmt 1
 508 0200 0348     		ldr	r0, .L32+4
 509 0202 FFF7FEFF 		bl	gfxSemSignal
 510              	.L10:
 511              		.loc 1 308 0
 512 0206 07B0     		add	sp, sp, #28
 513              		.cfi_def_cfa_offset 12
 514              		@ sp needed
 515 0208 30BD     		pop	{r4, r5, pc}
 516              	.L33:
 517 020a 00BF     		.align	2
 518              	.L32:
 519 020c 00000000 		.word	RedrawPending
 520 0210 00000000 		.word	gwinsem
 521 0214 00000000 		.word	_GWINwm
 522 0218 00000000 		.word	RedrawTimer
 523              		.cfi_endproc
 524              	.LFE114:
 525              		.size	_gwinFlushRedraws, .-_gwinFlushRedraws
 526 021c AFF30080 		.section	.text._gwinUpdate,"ax",%progbits
 527              		.align	2
 528              		.p2align 4,,15
 529              		.global	_gwinUpdate
 530              		.thumb
 531              		.thumb_func
 532              		.type	_gwinUpdate, %function
 533              	_gwinUpdate:
 534              	.LFB115:
 535              		.loc 1 310 0
 536              		.cfi_startproc
 537              		@ args = 0, pretend = 0, frame = 8
 538              		@ frame_needed = 0, uses_anonymous_args = 0
 539 0000 00B5     		push	{lr}
 540              		.cfi_def_cfa_offset 4
 541              		.cfi_offset 14, -4
 542 0002 83B0     		sub	sp, sp, #12
 543              		.cfi_def_cfa_offset 16
 544 0004 0190     		str	r0, [sp, #4]
 545              		.loc 1 312 0
 546 0006 019B     		ldr	r3, [sp, #4]
 547 0008 9B69     		ldr	r3, [r3, #24]
 548 000a 03F40073 		and	r3, r3, #512
 549 000e 002B     		cmp	r3, #0
 550 0010 00D1     		bne	.L35
 551              		.loc 1 313 0
 552 0012 10E0     		b	.L34
 553              	.L35:
 554              		.loc 1 316 0
 555 0014 019B     		ldr	r3, [sp, #4]
 556 0016 9B69     		ldr	r3, [r3, #24]
 557 0018 43F48042 		orr	r2, r3, #16384
ARM GAS  /tmp/ccihpvPa.s 			page 11


 558 001c 019B     		ldr	r3, [sp, #4]
 559 001e 9A61     		str	r2, [r3, #24]
 560              		.loc 1 317 0
 561 0020 064B     		ldr	r3, .L37
 562 0022 1B78     		ldrb	r3, [r3]
 563 0024 DBB2     		uxtb	r3, r3
 564 0026 43F00203 		orr	r3, r3, #2
 565 002a DAB2     		uxtb	r2, r3
 566 002c 034B     		ldr	r3, .L37
 567 002e 1A70     		strb	r2, [r3]
 568              		.loc 1 320 0
 569 0030 0348     		ldr	r0, .L37+4
 570 0032 FFF7FEFF 		bl	gtimerJab
 571              	.L34:
 572              		.loc 1 321 0
 573 0036 03B0     		add	sp, sp, #12
 574              		.cfi_def_cfa_offset 4
 575              		@ sp needed
 576 0038 5DF804FB 		ldr	pc, [sp], #4
 577              	.L38:
 578              		.align	2
 579              	.L37:
 580 003c 00000000 		.word	RedrawPending
 581 0040 00000000 		.word	RedrawTimer
 582              		.cfi_endproc
 583              	.LFE115:
 584              		.size	_gwinUpdate, .-_gwinUpdate
 585 0044 AFF30080 		.section	.text._gwinDrawStart,"ax",%progbits
 585      AFF30080 
 585      AFF30080 
 586              		.align	2
 587              		.p2align 4,,15
 588              		.global	_gwinDrawStart
 589              		.thumb
 590              		.thumb_func
 591              		.type	_gwinDrawStart, %function
 592              	_gwinDrawStart:
 593              	.LFB116:
 594              		.loc 1 357 0
 595              		.cfi_startproc
 596              		@ args = 0, pretend = 0, frame = 8
 597              		@ frame_needed = 0, uses_anonymous_args = 0
 598 0000 10B5     		push	{r4, lr}
 599              		.cfi_def_cfa_offset 8
 600              		.cfi_offset 4, -8
 601              		.cfi_offset 14, -4
 602 0002 84B0     		sub	sp, sp, #16
 603              		.cfi_def_cfa_offset 24
 604 0004 0390     		str	r0, [sp, #12]
 605              		.loc 1 360 0
 606 0006 039B     		ldr	r3, [sp, #12]
 607 0008 9B69     		ldr	r3, [r3, #24]
 608 000a 03F40073 		and	r3, r3, #512
 609 000e 002B     		cmp	r3, #0
 610 0010 01D1     		bne	.L40
 611              		.loc 1 361 0
 612 0012 0023     		movs	r3, #0
ARM GAS  /tmp/ccihpvPa.s 			page 12


 613 0014 22E0     		b	.L41
 614              	.L40:
 615              		.loc 1 364 0
 616 0016 1348     		ldr	r0, .L43
 617 0018 4FF0FF31 		mov	r1, #-1
 618 001c FFF7FEFF 		bl	gfxSemWait
 619              		.loc 1 367 0
 620 0020 039B     		ldr	r3, [sp, #12]
 621 0022 9B69     		ldr	r3, [r3, #24]
 622 0024 03F40073 		and	r3, r3, #512
 623 0028 002B     		cmp	r3, #0
 624 002a 04D1     		bne	.L42
 625              		.loc 1 368 0
 626 002c 0398     		ldr	r0, [sp, #12]
 627 002e FFF7FEFF 		bl	_gwinDrawEnd
 628              		.loc 1 369 0
 629 0032 0023     		movs	r3, #0
 630 0034 12E0     		b	.L41
 631              	.L42:
 632              		.loc 1 374 0
 633 0036 039B     		ldr	r3, [sp, #12]
 634 0038 9868     		ldr	r0, [r3, #8]
 635 003a 039B     		ldr	r3, [sp, #12]
 636 003c 9989     		ldrh	r1, [r3, #12]
 637 003e 039B     		ldr	r3, [sp, #12]
 638 0040 DA89     		ldrh	r2, [r3, #14]
 639 0042 039B     		ldr	r3, [sp, #12]
 640 0044 1C8A     		ldrh	r4, [r3, #16]
 641 0046 039B     		ldr	r3, [sp, #12]
 642 0048 5B8A     		ldrh	r3, [r3, #18]
 643 004a 09B2     		sxth	r1, r1
 644 004c 12B2     		sxth	r2, r2
 645 004e 24B2     		sxth	r4, r4
 646 0050 1BB2     		sxth	r3, r3
 647 0052 0093     		str	r3, [sp]
 648 0054 2346     		mov	r3, r4
 649 0056 FFF7FEFF 		bl	gdispGSetClip
 650              		.loc 1 376 0
 651 005a 0123     		movs	r3, #1
 652              	.L41:
 653              		.loc 1 377 0
 654 005c 1846     		mov	r0, r3
 655 005e 04B0     		add	sp, sp, #16
 656              		.cfi_def_cfa_offset 8
 657              		@ sp needed
 658 0060 10BD     		pop	{r4, pc}
 659              	.L44:
 660 0062 00BF     		.align	2
 661              	.L43:
 662 0064 00000000 		.word	gwinsem
 663              		.cfi_endproc
 664              	.LFE116:
 665              		.size	_gwinDrawStart, .-_gwinDrawStart
 666 0068 AFF30080 		.section	.text._gwinDrawEnd,"ax",%progbits
 666      AFF30080 
 667              		.align	2
 668              		.p2align 4,,15
ARM GAS  /tmp/ccihpvPa.s 			page 13


 669              		.global	_gwinDrawEnd
 670              		.thumb
 671              		.thumb_func
 672              		.type	_gwinDrawEnd, %function
 673              	_gwinDrawEnd:
 674              	.LFB117:
 675              		.loc 1 379 0
 676              		.cfi_startproc
 677              		@ args = 0, pretend = 0, frame = 8
 678              		@ frame_needed = 0, uses_anonymous_args = 0
 679 0000 30B5     		push	{r4, r5, lr}
 680              		.cfi_def_cfa_offset 12
 681              		.cfi_offset 4, -12
 682              		.cfi_offset 5, -8
 683              		.cfi_offset 14, -4
 684 0002 85B0     		sub	sp, sp, #20
 685              		.cfi_def_cfa_offset 32
 686 0004 0390     		str	r0, [sp, #12]
 687              		.loc 1 382 0
 688 0006 039B     		ldr	r3, [sp, #12]
 689 0008 9C68     		ldr	r4, [r3, #8]
 690 000a 039B     		ldr	r3, [sp, #12]
 691 000c 9B68     		ldr	r3, [r3, #8]
 692 000e 1846     		mov	r0, r3
 693 0010 FFF7FEFF 		bl	gdispGGetWidth
 694 0014 0346     		mov	r3, r0
 695 0016 1D46     		mov	r5, r3
 696 0018 039B     		ldr	r3, [sp, #12]
 697 001a 9B68     		ldr	r3, [r3, #8]
 698 001c 1846     		mov	r0, r3
 699 001e FFF7FEFF 		bl	gdispGGetHeight
 700 0022 0346     		mov	r3, r0
 701 0024 0093     		str	r3, [sp]
 702 0026 2046     		mov	r0, r4
 703 0028 0021     		movs	r1, #0
 704 002a 0022     		movs	r2, #0
 705 002c 2B46     		mov	r3, r5
 706 002e FFF7FEFF 		bl	gdispGSetClip
 707              		.loc 1 386 0
 708 0032 0220     		movs	r0, #2
 709 0034 FFF7FEFF 		bl	_gwinFlushRedraws
 710              		.loc 1 389 0
 711 0038 0248     		ldr	r0, .L46
 712 003a FFF7FEFF 		bl	gfxSemSignal
 713              		.loc 1 390 0
 714 003e 05B0     		add	sp, sp, #20
 715              		.cfi_def_cfa_offset 12
 716              		@ sp needed
 717 0040 30BD     		pop	{r4, r5, pc}
 718              	.L47:
 719 0042 00BF     		.align	2
 720              	.L46:
 721 0044 00000000 		.word	gwinsem
 722              		.cfi_endproc
 723              	.LFE117:
 724              		.size	_gwinDrawEnd, .-_gwinDrawEnd
 725 0048 AFF30080 		.section	.text._gwinWMAdd,"ax",%progbits
ARM GAS  /tmp/ccihpvPa.s 			page 14


 725      AFF30080 
 726              		.align	2
 727              		.p2align 4,,15
 728              		.global	_gwinWMAdd
 729              		.thumb
 730              		.thumb_func
 731              		.type	_gwinWMAdd, %function
 732              	_gwinWMAdd:
 733              	.LFB118:
 734              		.loc 1 392 0
 735              		.cfi_startproc
 736              		@ args = 0, pretend = 0, frame = 8
 737              		@ frame_needed = 0, uses_anonymous_args = 0
 738 0000 00B5     		push	{lr}
 739              		.cfi_def_cfa_offset 4
 740              		.cfi_offset 14, -4
 741 0002 83B0     		sub	sp, sp, #12
 742              		.cfi_def_cfa_offset 16
 743 0004 0190     		str	r0, [sp, #4]
 744 0006 0091     		str	r1, [sp]
 745              		.loc 1 403 0
 746 0008 094B     		ldr	r3, .L51
 747 000a 1B68     		ldr	r3, [r3]
 748 000c 1B68     		ldr	r3, [r3]
 749 000e 9B68     		ldr	r3, [r3, #8]
 750 0010 0198     		ldr	r0, [sp, #4]
 751 0012 0099     		ldr	r1, [sp]
 752 0014 9847     		blx	r3
 753 0016 0346     		mov	r3, r0
 754 0018 83F00103 		eor	r3, r3, #1
 755 001c DBB2     		uxtb	r3, r3
 756 001e 002B     		cmp	r3, #0
 757 0020 01D0     		beq	.L49
 758              		.loc 1 404 0
 759 0022 0023     		movs	r3, #0
 760 0024 00E0     		b	.L50
 761              	.L49:
 762              		.loc 1 412 0
 763 0026 0123     		movs	r3, #1
 764              	.L50:
 765              		.loc 1 413 0
 766 0028 1846     		mov	r0, r3
 767 002a 03B0     		add	sp, sp, #12
 768              		.cfi_def_cfa_offset 4
 769              		@ sp needed
 770 002c 5DF804FB 		ldr	pc, [sp], #4
 771              	.L52:
 772              		.align	2
 773              	.L51:
 774 0030 00000000 		.word	_GWINwm
 775              		.cfi_endproc
 776              	.LFE118:
 777              		.size	_gwinWMAdd, .-_gwinWMAdd
 778 0034 AFF30080 		.section	.text.gwinSetWindowManager,"ax",%progbits
 778      AFF30080 
 778      AFF30080 
 779              		.align	2
ARM GAS  /tmp/ccihpvPa.s 			page 15


 780              		.p2align 4,,15
 781              		.global	gwinSetWindowManager
 782              		.thumb
 783              		.thumb_func
 784              		.type	gwinSetWindowManager, %function
 785              	gwinSetWindowManager:
 786              	.LFB119:
 787              		.loc 1 415 0
 788              		.cfi_startproc
 789              		@ args = 0, pretend = 0, frame = 8
 790              		@ frame_needed = 0, uses_anonymous_args = 0
 791 0000 00B5     		push	{lr}
 792              		.cfi_def_cfa_offset 4
 793              		.cfi_offset 14, -4
 794 0002 83B0     		sub	sp, sp, #12
 795              		.cfi_def_cfa_offset 16
 796 0004 0190     		str	r0, [sp, #4]
 797              		.loc 1 416 0
 798 0006 019B     		ldr	r3, [sp, #4]
 799 0008 002B     		cmp	r3, #0
 800 000a 01D1     		bne	.L54
 801              		.loc 1 417 0
 802 000c 0B4B     		ldr	r3, .L56
 803 000e 0193     		str	r3, [sp, #4]
 804              	.L54:
 805              		.loc 1 418 0
 806 0010 0B4B     		ldr	r3, .L56+4
 807 0012 1A68     		ldr	r2, [r3]
 808 0014 019B     		ldr	r3, [sp, #4]
 809 0016 9A42     		cmp	r2, r3
 810 0018 0CD0     		beq	.L53
 811              		.loc 1 419 0
 812 001a 094B     		ldr	r3, .L56+4
 813 001c 1B68     		ldr	r3, [r3]
 814 001e 1B68     		ldr	r3, [r3]
 815 0020 5B68     		ldr	r3, [r3, #4]
 816 0022 9847     		blx	r3
 817              		.loc 1 420 0
 818 0024 064A     		ldr	r2, .L56+4
 819 0026 019B     		ldr	r3, [sp, #4]
 820 0028 1360     		str	r3, [r2]
 821              		.loc 1 421 0
 822 002a 054B     		ldr	r3, .L56+4
 823 002c 1B68     		ldr	r3, [r3]
 824 002e 1B68     		ldr	r3, [r3]
 825 0030 1B68     		ldr	r3, [r3]
 826 0032 9847     		blx	r3
 827              	.L53:
 828              		.loc 1 423 0
 829 0034 03B0     		add	sp, sp, #12
 830              		.cfi_def_cfa_offset 4
 831              		@ sp needed
 832 0036 5DF804FB 		ldr	pc, [sp], #4
 833              	.L57:
 834 003a 00BF     		.align	2
 835              	.L56:
 836 003c 00000000 		.word	GNullWindowManager
ARM GAS  /tmp/ccihpvPa.s 			page 16


 837 0040 00000000 		.word	_GWINwm
 838              		.cfi_endproc
 839              	.LFE119:
 840              		.size	gwinSetWindowManager, .-gwinSetWindowManager
 841 0044 AFF30080 		.section	.text.gwinRedraw,"ax",%progbits
 841      AFF30080 
 841      AFF30080 
 842              		.align	2
 843              		.p2align 4,,15
 844              		.global	gwinRedraw
 845              		.thumb
 846              		.thumb_func
 847              		.type	gwinRedraw, %function
 848              	gwinRedraw:
 849              	.LFB120:
 850              		.loc 1 425 0
 851              		.cfi_startproc
 852              		@ args = 0, pretend = 0, frame = 8
 853              		@ frame_needed = 0, uses_anonymous_args = 0
 854 0000 00B5     		push	{lr}
 855              		.cfi_def_cfa_offset 4
 856              		.cfi_offset 14, -4
 857 0002 83B0     		sub	sp, sp, #12
 858              		.cfi_def_cfa_offset 16
 859 0004 0190     		str	r0, [sp, #4]
 860              		.loc 1 427 0
 861 0006 019B     		ldr	r3, [sp, #4]
 862 0008 9B69     		ldr	r3, [r3, #24]
 863 000a 03F40073 		and	r3, r3, #512
 864 000e 002B     		cmp	r3, #0
 865 0010 00D1     		bne	.L59
 866              		.loc 1 428 0
 867 0012 10E0     		b	.L58
 868              	.L59:
 869              		.loc 1 431 0
 870 0014 019B     		ldr	r3, [sp, #4]
 871 0016 9B69     		ldr	r3, [r3, #24]
 872 0018 43F48042 		orr	r2, r3, #16384
 873 001c 019B     		ldr	r3, [sp, #4]
 874 001e 9A61     		str	r2, [r3, #24]
 875              		.loc 1 432 0
 876 0020 064B     		ldr	r3, .L61
 877 0022 1B78     		ldrb	r3, [r3]
 878 0024 DBB2     		uxtb	r3, r3
 879 0026 43F00203 		orr	r3, r3, #2
 880 002a DAB2     		uxtb	r2, r3
 881 002c 034B     		ldr	r3, .L61
 882 002e 1A70     		strb	r2, [r3]
 883              		.loc 1 435 0
 884 0030 0020     		movs	r0, #0
 885 0032 FFF7FEFF 		bl	_gwinFlushRedraws
 886              	.L58:
 887              		.loc 1 436 0
 888 0036 03B0     		add	sp, sp, #12
 889              		.cfi_def_cfa_offset 4
 890              		@ sp needed
 891 0038 5DF804FB 		ldr	pc, [sp], #4
ARM GAS  /tmp/ccihpvPa.s 			page 17


 892              	.L62:
 893              		.align	2
 894              	.L61:
 895 003c 00000000 		.word	RedrawPending
 896              		.cfi_endproc
 897              	.LFE120:
 898              		.size	gwinRedraw, .-gwinRedraw
 899              		.section	.text.gwinSetVisible,"ax",%progbits
 900              		.align	2
 901              		.p2align 4,,15
 902              		.global	gwinSetVisible
 903              		.thumb
 904              		.thumb_func
 905              		.type	gwinSetVisible, %function
 906              	gwinSetVisible:
 907              	.LFB121:
 908              		.loc 1 454 0
 909              		.cfi_startproc
 910              		@ args = 0, pretend = 0, frame = 8
 911              		@ frame_needed = 0, uses_anonymous_args = 0
 912 0000 00B5     		push	{lr}
 913              		.cfi_def_cfa_offset 4
 914              		.cfi_offset 14, -4
 915 0002 83B0     		sub	sp, sp, #12
 916              		.cfi_def_cfa_offset 16
 917 0004 0190     		str	r0, [sp, #4]
 918 0006 0B46     		mov	r3, r1
 919 0008 8DF80330 		strb	r3, [sp, #3]
 920              		.loc 1 455 0
 921 000c 9DF80330 		ldrb	r3, [sp, #3]	@ zero_extendqisi2
 922 0010 002B     		cmp	r3, #0
 923 0012 17D0     		beq	.L64
 924              		.loc 1 456 0
 925 0014 019B     		ldr	r3, [sp, #4]
 926 0016 9B69     		ldr	r3, [r3, #24]
 927 0018 03F48073 		and	r3, r3, #256
 928 001c 002B     		cmp	r3, #0
 929 001e 2ED1     		bne	.L63
 930              		.loc 1 457 0
 931 0020 019B     		ldr	r3, [sp, #4]
 932 0022 9B69     		ldr	r3, [r3, #24]
 933 0024 43F44342 		orr	r2, r3, #49920
 934 0028 019B     		ldr	r3, [sp, #4]
 935 002a 9A61     		str	r2, [r3, #24]
 936              		.loc 1 458 0
 937 002c 154B     		ldr	r3, .L67
 938 002e 1B78     		ldrb	r3, [r3]
 939 0030 DBB2     		uxtb	r3, r3
 940 0032 43F00203 		orr	r3, r3, #2
 941 0036 DAB2     		uxtb	r2, r3
 942 0038 124B     		ldr	r3, .L67
 943 003a 1A70     		strb	r2, [r3]
 944              		.loc 1 459 0
 945 003c 1248     		ldr	r0, .L67+4
 946 003e FFF7FEFF 		bl	gtimerJab
 947 0042 1CE0     		b	.L63
 948              	.L64:
ARM GAS  /tmp/ccihpvPa.s 			page 18


 949              		.loc 1 462 0
 950 0044 019B     		ldr	r3, [sp, #4]
 951 0046 9B69     		ldr	r3, [r3, #24]
 952 0048 03F48073 		and	r3, r3, #256
 953 004c 002B     		cmp	r3, #0
 954 004e 16D0     		beq	.L63
 955              		.loc 1 463 0
 956 0050 019B     		ldr	r3, [sp, #4]
 957 0052 9B69     		ldr	r3, [r3, #24]
 958 0054 23F44072 		bic	r2, r3, #768
 959 0058 019B     		ldr	r3, [sp, #4]
 960 005a 9A61     		str	r2, [r3, #24]
 961              		.loc 1 464 0
 962 005c 019B     		ldr	r3, [sp, #4]
 963 005e 9B69     		ldr	r3, [r3, #24]
 964 0060 43F44042 		orr	r2, r3, #49152
 965 0064 019B     		ldr	r3, [sp, #4]
 966 0066 9A61     		str	r2, [r3, #24]
 967              		.loc 1 465 0
 968 0068 064B     		ldr	r3, .L67
 969 006a 1B78     		ldrb	r3, [r3]
 970 006c DBB2     		uxtb	r3, r3
 971 006e 43F00103 		orr	r3, r3, #1
 972 0072 DAB2     		uxtb	r2, r3
 973 0074 034B     		ldr	r3, .L67
 974 0076 1A70     		strb	r2, [r3]
 975              		.loc 1 466 0
 976 0078 0348     		ldr	r0, .L67+4
 977 007a FFF7FEFF 		bl	gtimerJab
 978              	.L63:
 979              		.loc 1 469 0
 980 007e 03B0     		add	sp, sp, #12
 981              		.cfi_def_cfa_offset 4
 982              		@ sp needed
 983 0080 5DF804FB 		ldr	pc, [sp], #4
 984              	.L68:
 985              		.align	2
 986              	.L67:
 987 0084 00000000 		.word	RedrawPending
 988 0088 00000000 		.word	RedrawTimer
 989              		.cfi_endproc
 990              	.LFE121:
 991              		.size	gwinSetVisible, .-gwinSetVisible
 992 008c AFF30080 		.section	.text.gwinSetEnabled,"ax",%progbits
 993              		.align	2
 994              		.p2align 4,,15
 995              		.global	gwinSetEnabled
 996              		.thumb
 997              		.thumb_func
 998              		.type	gwinSetEnabled, %function
 999              	gwinSetEnabled:
 1000              	.LFB122:
 1001              		.loc 1 505 0
 1002              		.cfi_startproc
 1003              		@ args = 0, pretend = 0, frame = 8
 1004              		@ frame_needed = 0, uses_anonymous_args = 0
 1005 0000 00B5     		push	{lr}
ARM GAS  /tmp/ccihpvPa.s 			page 19


 1006              		.cfi_def_cfa_offset 4
 1007              		.cfi_offset 14, -4
 1008 0002 83B0     		sub	sp, sp, #12
 1009              		.cfi_def_cfa_offset 16
 1010 0004 0190     		str	r0, [sp, #4]
 1011 0006 0B46     		mov	r3, r1
 1012 0008 8DF80330 		strb	r3, [sp, #3]
 1013              		.loc 1 506 0
 1014 000c 9DF80330 		ldrb	r3, [sp, #3]	@ zero_extendqisi2
 1015 0010 002B     		cmp	r3, #0
 1016 0012 0FD0     		beq	.L70
 1017              		.loc 1 507 0
 1018 0014 019B     		ldr	r3, [sp, #4]
 1019 0016 9B69     		ldr	r3, [r3, #24]
 1020 0018 03F48063 		and	r3, r3, #1024
 1021 001c 002B     		cmp	r3, #0
 1022 001e 18D1     		bne	.L69
 1023              		.loc 1 508 0
 1024 0020 019B     		ldr	r3, [sp, #4]
 1025 0022 9B69     		ldr	r3, [r3, #24]
 1026 0024 43F44062 		orr	r2, r3, #3072
 1027 0028 019B     		ldr	r3, [sp, #4]
 1028 002a 9A61     		str	r2, [r3, #24]
 1029              		.loc 1 509 0
 1030 002c 0198     		ldr	r0, [sp, #4]
 1031 002e FFF7FEFF 		bl	_gwinUpdate
 1032 0032 0EE0     		b	.L69
 1033              	.L70:
 1034              		.loc 1 512 0
 1035 0034 019B     		ldr	r3, [sp, #4]
 1036 0036 9B69     		ldr	r3, [r3, #24]
 1037 0038 03F48063 		and	r3, r3, #1024
 1038 003c 002B     		cmp	r3, #0
 1039 003e 08D0     		beq	.L69
 1040              		.loc 1 513 0
 1041 0040 019B     		ldr	r3, [sp, #4]
 1042 0042 9B69     		ldr	r3, [r3, #24]
 1043 0044 23F44062 		bic	r2, r3, #3072
 1044 0048 019B     		ldr	r3, [sp, #4]
 1045 004a 9A61     		str	r2, [r3, #24]
 1046              		.loc 1 514 0
 1047 004c 0198     		ldr	r0, [sp, #4]
 1048 004e FFF7FEFF 		bl	_gwinUpdate
 1049              	.L69:
 1050              		.loc 1 517 0
 1051 0052 03B0     		add	sp, sp, #12
 1052              		.cfi_def_cfa_offset 4
 1053              		@ sp needed
 1054 0054 5DF804FB 		ldr	pc, [sp], #4
 1055              		.cfi_endproc
 1056              	.LFE122:
 1057              		.size	gwinSetEnabled, .-gwinSetEnabled
 1058 0058 AFF30080 		.section	.text.gwinMove,"ax",%progbits
 1058      AFF30080 
 1059              		.align	2
 1060              		.p2align 4,,15
 1061              		.global	gwinMove
ARM GAS  /tmp/ccihpvPa.s 			page 20


 1062              		.thumb
 1063              		.thumb_func
 1064              		.type	gwinMove, %function
 1065              	gwinMove:
 1066              	.LFB123:
 1067              		.loc 1 520 0
 1068              		.cfi_startproc
 1069              		@ args = 0, pretend = 0, frame = 8
 1070              		@ frame_needed = 0, uses_anonymous_args = 0
 1071 0000 00B5     		push	{lr}
 1072              		.cfi_def_cfa_offset 4
 1073              		.cfi_offset 14, -4
 1074 0002 83B0     		sub	sp, sp, #12
 1075              		.cfi_def_cfa_offset 16
 1076 0004 0190     		str	r0, [sp, #4]
 1077 0006 0B46     		mov	r3, r1
 1078 0008 ADF80230 		strh	r3, [sp, #2]	@ movhi
 1079 000c 1346     		mov	r3, r2	@ movhi
 1080 000e ADF80030 		strh	r3, [sp]	@ movhi
 1081              		.loc 1 521 0
 1082 0012 064B     		ldr	r3, .L74
 1083 0014 1B68     		ldr	r3, [r3]
 1084 0016 1B68     		ldr	r3, [r3]
 1085 0018 9B69     		ldr	r3, [r3, #24]
 1086 001a BDF90210 		ldrsh	r1, [sp, #2]
 1087 001e BDF90020 		ldrsh	r2, [sp]
 1088 0022 0198     		ldr	r0, [sp, #4]
 1089 0024 9847     		blx	r3
 1090              		.loc 1 522 0
 1091 0026 03B0     		add	sp, sp, #12
 1092              		.cfi_def_cfa_offset 4
 1093              		@ sp needed
 1094 0028 5DF804FB 		ldr	pc, [sp], #4
 1095              	.L75:
 1096              		.align	2
 1097              	.L74:
 1098 002c 00000000 		.word	_GWINwm
 1099              		.cfi_endproc
 1100              	.LFE123:
 1101              		.size	gwinMove, .-gwinMove
 1102              		.section	.text.gwinResize,"ax",%progbits
 1103              		.align	2
 1104              		.p2align 4,,15
 1105              		.global	gwinResize
 1106              		.thumb
 1107              		.thumb_func
 1108              		.type	gwinResize, %function
 1109              	gwinResize:
 1110              	.LFB124:
 1111              		.loc 1 524 0
 1112              		.cfi_startproc
 1113              		@ args = 0, pretend = 0, frame = 8
 1114              		@ frame_needed = 0, uses_anonymous_args = 0
 1115 0000 00B5     		push	{lr}
 1116              		.cfi_def_cfa_offset 4
 1117              		.cfi_offset 14, -4
 1118 0002 83B0     		sub	sp, sp, #12
ARM GAS  /tmp/ccihpvPa.s 			page 21


 1119              		.cfi_def_cfa_offset 16
 1120 0004 0190     		str	r0, [sp, #4]
 1121 0006 0B46     		mov	r3, r1
 1122 0008 ADF80230 		strh	r3, [sp, #2]	@ movhi
 1123 000c 1346     		mov	r3, r2	@ movhi
 1124 000e ADF80030 		strh	r3, [sp]	@ movhi
 1125              		.loc 1 525 0
 1126 0012 064B     		ldr	r3, .L77
 1127 0014 1B68     		ldr	r3, [r3]
 1128 0016 1B68     		ldr	r3, [r3]
 1129 0018 5B69     		ldr	r3, [r3, #20]
 1130 001a BDF90210 		ldrsh	r1, [sp, #2]
 1131 001e BDF90020 		ldrsh	r2, [sp]
 1132 0022 0198     		ldr	r0, [sp, #4]
 1133 0024 9847     		blx	r3
 1134              		.loc 1 526 0
 1135 0026 03B0     		add	sp, sp, #12
 1136              		.cfi_def_cfa_offset 4
 1137              		@ sp needed
 1138 0028 5DF804FB 		ldr	pc, [sp], #4
 1139              	.L78:
 1140              		.align	2
 1141              	.L77:
 1142 002c 00000000 		.word	_GWINwm
 1143              		.cfi_endproc
 1144              	.LFE124:
 1145              		.size	gwinResize, .-gwinResize
 1146              		.section	.text.gwinSetMinMax,"ax",%progbits
 1147              		.align	2
 1148              		.p2align 4,,15
 1149              		.global	gwinSetMinMax
 1150              		.thumb
 1151              		.thumb_func
 1152              		.type	gwinSetMinMax, %function
 1153              	gwinSetMinMax:
 1154              	.LFB125:
 1155              		.loc 1 528 0
 1156              		.cfi_startproc
 1157              		@ args = 0, pretend = 0, frame = 8
 1158              		@ frame_needed = 0, uses_anonymous_args = 0
 1159 0000 00B5     		push	{lr}
 1160              		.cfi_def_cfa_offset 4
 1161              		.cfi_offset 14, -4
 1162 0002 83B0     		sub	sp, sp, #12
 1163              		.cfi_def_cfa_offset 16
 1164 0004 0190     		str	r0, [sp, #4]
 1165 0006 0B46     		mov	r3, r1
 1166 0008 8DF80330 		strb	r3, [sp, #3]
 1167              		.loc 1 529 0
 1168 000c 054B     		ldr	r3, .L80
 1169 000e 1B68     		ldr	r3, [r3]
 1170 0010 1B68     		ldr	r3, [r3]
 1171 0012 1B6A     		ldr	r3, [r3, #32]
 1172 0014 9DF80320 		ldrb	r2, [sp, #3]	@ zero_extendqisi2
 1173 0018 0198     		ldr	r0, [sp, #4]
 1174 001a 1146     		mov	r1, r2
 1175 001c 9847     		blx	r3
ARM GAS  /tmp/ccihpvPa.s 			page 22


 1176              		.loc 1 530 0
 1177 001e 03B0     		add	sp, sp, #12
 1178              		.cfi_def_cfa_offset 4
 1179              		@ sp needed
 1180 0020 5DF804FB 		ldr	pc, [sp], #4
 1181              	.L81:
 1182              		.align	2
 1183              	.L80:
 1184 0024 00000000 		.word	_GWINwm
 1185              		.cfi_endproc
 1186              	.LFE125:
 1187              		.size	gwinSetMinMax, .-gwinSetMinMax
 1188 0028 AFF30080 		.section	.text.gwinRaise,"ax",%progbits
 1188      AFF30080 
 1189              		.align	2
 1190              		.p2align 4,,15
 1191              		.global	gwinRaise
 1192              		.thumb
 1193              		.thumb_func
 1194              		.type	gwinRaise, %function
 1195              	gwinRaise:
 1196              	.LFB126:
 1197              		.loc 1 532 0
 1198              		.cfi_startproc
 1199              		@ args = 0, pretend = 0, frame = 8
 1200              		@ frame_needed = 0, uses_anonymous_args = 0
 1201 0000 00B5     		push	{lr}
 1202              		.cfi_def_cfa_offset 4
 1203              		.cfi_offset 14, -4
 1204 0002 83B0     		sub	sp, sp, #12
 1205              		.cfi_def_cfa_offset 16
 1206 0004 0190     		str	r0, [sp, #4]
 1207              		.loc 1 533 0
 1208 0006 044B     		ldr	r3, .L83
 1209 0008 1B68     		ldr	r3, [r3]
 1210 000a 1B68     		ldr	r3, [r3]
 1211 000c DB69     		ldr	r3, [r3, #28]
 1212 000e 0198     		ldr	r0, [sp, #4]
 1213 0010 9847     		blx	r3
 1214              		.loc 1 534 0
 1215 0012 03B0     		add	sp, sp, #12
 1216              		.cfi_def_cfa_offset 4
 1217              		@ sp needed
 1218 0014 5DF804FB 		ldr	pc, [sp], #4
 1219              	.L84:
 1220              		.align	2
 1221              	.L83:
 1222 0018 00000000 		.word	_GWINwm
 1223              		.cfi_endproc
 1224              	.LFE126:
 1225              		.size	gwinRaise, .-gwinRaise
 1226 001c AFF30080 		.section	.text.gwinGetMinMax,"ax",%progbits
 1227              		.align	2
 1228              		.p2align 4,,15
 1229              		.global	gwinGetMinMax
 1230              		.thumb
 1231              		.thumb_func
ARM GAS  /tmp/ccihpvPa.s 			page 23


 1232              		.type	gwinGetMinMax, %function
 1233              	gwinGetMinMax:
 1234              	.LFB127:
 1235              		.loc 1 536 0
 1236              		.cfi_startproc
 1237              		@ args = 0, pretend = 0, frame = 8
 1238              		@ frame_needed = 0, uses_anonymous_args = 0
 1239              		@ link register save eliminated.
 1240 0000 82B0     		sub	sp, sp, #8
 1241              		.cfi_def_cfa_offset 8
 1242 0002 0190     		str	r0, [sp, #4]
 1243              		.loc 1 537 0
 1244 0004 019B     		ldr	r3, [sp, #4]
 1245 0006 9B69     		ldr	r3, [r3, #24]
 1246 0008 03F48013 		and	r3, r3, #1048576
 1247 000c 002B     		cmp	r3, #0
 1248 000e 01D0     		beq	.L86
 1249              		.loc 1 538 0
 1250 0010 0223     		movs	r3, #2
 1251 0012 08E0     		b	.L87
 1252              	.L86:
 1253              		.loc 1 539 0
 1254 0014 019B     		ldr	r3, [sp, #4]
 1255 0016 9B69     		ldr	r3, [r3, #24]
 1256 0018 03F40013 		and	r3, r3, #2097152
 1257 001c 002B     		cmp	r3, #0
 1258 001e 01D0     		beq	.L88
 1259              		.loc 1 540 0
 1260 0020 0123     		movs	r3, #1
 1261 0022 00E0     		b	.L87
 1262              	.L88:
 1263              		.loc 1 541 0
 1264 0024 0023     		movs	r3, #0
 1265              	.L87:
 1266              		.loc 1 542 0
 1267 0026 1846     		mov	r0, r3
 1268 0028 02B0     		add	sp, sp, #8
 1269              		.cfi_def_cfa_offset 0
 1270              		@ sp needed
 1271 002a 7047     		bx	lr
 1272              		.cfi_endproc
 1273              	.LFE127:
 1274              		.size	gwinGetMinMax, .-gwinGetMinMax
 1275 002c AFF30080 		.section	.text.gwinRedrawDisplay,"ax",%progbits
 1276              		.align	2
 1277              		.p2align 4,,15
 1278              		.global	gwinRedrawDisplay
 1279              		.thumb
 1280              		.thumb_func
 1281              		.type	gwinRedrawDisplay, %function
 1282              	gwinRedrawDisplay:
 1283              	.LFB128:
 1284              		.loc 1 544 0
 1285              		.cfi_startproc
 1286              		@ args = 0, pretend = 0, frame = 16
 1287              		@ frame_needed = 0, uses_anonymous_args = 0
 1288 0000 00B5     		push	{lr}
ARM GAS  /tmp/ccihpvPa.s 			page 24


 1289              		.cfi_def_cfa_offset 4
 1290              		.cfi_offset 14, -4
 1291 0002 85B0     		sub	sp, sp, #20
 1292              		.cfi_def_cfa_offset 24
 1293 0004 0190     		str	r0, [sp, #4]
 1294 0006 0B46     		mov	r3, r1
 1295 0008 8DF80330 		strb	r3, [sp, #3]
 1296              		.loc 1 547 0
 1297 000c 0020     		movs	r0, #0
 1298 000e FFF7FEFF 		bl	gwinGetNextWindow
 1299 0012 0390     		str	r0, [sp, #12]
 1300 0014 23E0     		b	.L90
 1301              	.L95:
 1302              		.loc 1 550 0
 1303 0016 019B     		ldr	r3, [sp, #4]
 1304 0018 002B     		cmp	r3, #0
 1305 001a 05D0     		beq	.L91
 1306              		.loc 1 550 0 is_stmt 0 discriminator 1
 1307 001c 039B     		ldr	r3, [sp, #12]
 1308 001e 9A68     		ldr	r2, [r3, #8]
 1309 0020 019B     		ldr	r3, [sp, #4]
 1310 0022 9A42     		cmp	r2, r3
 1311 0024 00D0     		beq	.L91
 1312              		.loc 1 551 0 is_stmt 1
 1313 0026 16E0     		b	.L92
 1314              	.L91:
 1315              		.loc 1 560 0
 1316 0028 039B     		ldr	r3, [sp, #12]
 1317 002a 9B69     		ldr	r3, [r3, #24]
 1318 002c 03F40073 		and	r3, r3, #512
 1319 0030 002B     		cmp	r3, #0
 1320 0032 00D1     		bne	.L93
 1321              		.loc 1 561 0
 1322 0034 0FE0     		b	.L92
 1323              	.L93:
 1324              		.loc 1 563 0
 1325 0036 9DF80330 		ldrb	r3, [sp, #3]
 1326 003a 83F00103 		eor	r3, r3, #1
 1327 003e DBB2     		uxtb	r3, r3
 1328 0040 002B     		cmp	r3, #0
 1329 0042 05D0     		beq	.L94
 1330              		.loc 1 564 0
 1331 0044 039B     		ldr	r3, [sp, #12]
 1332 0046 9B69     		ldr	r3, [r3, #24]
 1333 0048 43F40042 		orr	r2, r3, #32768
 1334 004c 039B     		ldr	r3, [sp, #12]
 1335 004e 9A61     		str	r2, [r3, #24]
 1336              	.L94:
 1337              		.loc 1 566 0
 1338 0050 0398     		ldr	r0, [sp, #12]
 1339 0052 FFF7FEFF 		bl	_gwinUpdate
 1340              	.L92:
 1341              		.loc 1 547 0 discriminator 2
 1342 0056 0398     		ldr	r0, [sp, #12]
 1343 0058 FFF7FEFF 		bl	gwinGetNextWindow
 1344 005c 0390     		str	r0, [sp, #12]
 1345              	.L90:
ARM GAS  /tmp/ccihpvPa.s 			page 25


 1346              		.loc 1 547 0 is_stmt 0 discriminator 1
 1347 005e 039B     		ldr	r3, [sp, #12]
 1348 0060 002B     		cmp	r3, #0
 1349 0062 D8D1     		bne	.L95
 1350              		.loc 1 568 0 is_stmt 1
 1351 0064 05B0     		add	sp, sp, #20
 1352              		.cfi_def_cfa_offset 4
 1353              		@ sp needed
 1354 0066 5DF804FB 		ldr	pc, [sp], #4
 1355              		.cfi_endproc
 1356              	.LFE128:
 1357              		.size	gwinRedrawDisplay, .-gwinRedrawDisplay
 1358 006a 00BFAFF3 		.section	.text.gwinGetNextWindow,"ax",%progbits
 1358      0080
 1359              		.align	2
 1360              		.p2align 4,,15
 1361              		.global	gwinGetNextWindow
 1362              		.thumb
 1363              		.thumb_func
 1364              		.type	gwinGetNextWindow, %function
 1365              	gwinGetNextWindow:
 1366              	.LFB129:
 1367              		.loc 1 570 0
 1368              		.cfi_startproc
 1369              		@ args = 0, pretend = 0, frame = 8
 1370              		@ frame_needed = 0, uses_anonymous_args = 0
 1371              		@ link register save eliminated.
 1372 0000 82B0     		sub	sp, sp, #8
 1373              		.cfi_def_cfa_offset 8
 1374 0002 0190     		str	r0, [sp, #4]
 1375              		.loc 1 571 0
 1376 0004 019B     		ldr	r3, [sp, #4]
 1377 0006 002B     		cmp	r3, #0
 1378 0008 02D0     		beq	.L97
 1379              		.loc 1 571 0 is_stmt 0 discriminator 1
 1380 000a 019B     		ldr	r3, [sp, #4]
 1381 000c 1B68     		ldr	r3, [r3]
 1382 000e 01E0     		b	.L98
 1383              	.L97:
 1384              		.loc 1 571 0 discriminator 2
 1385 0010 024B     		ldr	r3, .L100
 1386 0012 1B68     		ldr	r3, [r3]
 1387              	.L98:
 1388              		.loc 1 572 0 is_stmt 1 discriminator 4
 1389 0014 1846     		mov	r0, r3
 1390 0016 02B0     		add	sp, sp, #8
 1391              		.cfi_def_cfa_offset 0
 1392              		@ sp needed
 1393 0018 7047     		bx	lr
 1394              	.L101:
 1395 001a 00BF     		.align	2
 1396              	.L100:
 1397 001c 00000000 		.word	_GWINList
 1398              		.cfi_endproc
 1399              	.LFE129:
 1400              		.size	gwinGetNextWindow, .-gwinGetNextWindow
 1401              		.section	.rodata.GNullWindowManagerVMT,"a",%progbits
ARM GAS  /tmp/ccihpvPa.s 			page 26


 1402              		.align	2
 1403              		.type	GNullWindowManagerVMT, %object
 1404              		.size	GNullWindowManagerVMT, 36
 1405              	GNullWindowManagerVMT:
 1406 0000 00000000 		.word	WM_Init
 1407 0004 00000000 		.word	WM_DeInit
 1408 0008 00000000 		.word	WM_Add
 1409 000c 00000000 		.word	WM_Delete
 1410 0010 00000000 		.word	WM_Redraw
 1411 0014 00000000 		.word	WM_Size
 1412 0018 00000000 		.word	WM_Move
 1413 001c 00000000 		.word	WM_Raise
 1414 0020 00000000 		.word	WM_MinMax
 1415              		.global	GNullWindowManager
 1416              		.section	.rodata.GNullWindowManager,"a",%progbits
 1417              		.align	2
 1418              		.type	GNullWindowManager, %object
 1419              		.size	GNullWindowManager, 4
 1420              	GNullWindowManager:
 1421 0000 00000000 		.word	GNullWindowManagerVMT
 1422              		.section	.text.WM_Init,"ax",%progbits
 1423              		.align	2
 1424              		.p2align 4,,15
 1425              		.thumb
 1426              		.thumb_func
 1427              		.type	WM_Init, %function
 1428              	WM_Init:
 1429              	.LFB130:
 1430              		.loc 1 679 0
 1431              		.cfi_startproc
 1432              		@ args = 0, pretend = 0, frame = 0
 1433              		@ frame_needed = 0, uses_anonymous_args = 0
 1434              		@ link register save eliminated.
 1435              		.loc 1 686 0
 1436 0000 7047     		bx	lr
 1437              		.cfi_endproc
 1438              	.LFE130:
 1439              		.size	WM_Init, .-WM_Init
 1440 0002 00BFAFF3 		.section	.text.WM_DeInit,"ax",%progbits
 1440      0080AFF3 
 1440      0080AFF3 
 1440      0080
 1441              		.align	2
 1442              		.p2align 4,,15
 1443              		.thumb
 1444              		.thumb_func
 1445              		.type	WM_DeInit, %function
 1446              	WM_DeInit:
 1447              	.LFB131:
 1448              		.loc 1 688 0
 1449              		.cfi_startproc
 1450              		@ args = 0, pretend = 0, frame = 0
 1451              		@ frame_needed = 0, uses_anonymous_args = 0
 1452              		@ link register save eliminated.
 1453              		.loc 1 691 0
 1454 0000 7047     		bx	lr
 1455              		.cfi_endproc
ARM GAS  /tmp/ccihpvPa.s 			page 27


 1456              	.LFE131:
 1457              		.size	WM_DeInit, .-WM_DeInit
 1458 0002 00BFAFF3 		.section	.text.WM_Add,"ax",%progbits
 1458      0080AFF3 
 1458      0080AFF3 
 1458      0080
 1459              		.align	2
 1460              		.p2align 4,,15
 1461              		.thumb
 1462              		.thumb_func
 1463              		.type	WM_Add, %function
 1464              	WM_Add:
 1465              	.LFB132:
 1466              		.loc 1 693 0
 1467              		.cfi_startproc
 1468              		@ args = 0, pretend = 0, frame = 8
 1469              		@ frame_needed = 0, uses_anonymous_args = 0
 1470 0000 00B5     		push	{lr}
 1471              		.cfi_def_cfa_offset 4
 1472              		.cfi_offset 14, -4
 1473 0002 83B0     		sub	sp, sp, #12
 1474              		.cfi_def_cfa_offset 16
 1475 0004 0190     		str	r0, [sp, #4]
 1476 0006 0091     		str	r1, [sp]
 1477              		.loc 1 697 0
 1478 0008 019B     		ldr	r3, [sp, #4]
 1479 000a 1648     		ldr	r0, .L106
 1480 000c 1946     		mov	r1, r3
 1481 000e FFF7FEFF 		bl	gfxQueueASyncPut
 1482              		.loc 1 700 0
 1483 0012 019B     		ldr	r3, [sp, #4]
 1484 0014 0322     		movs	r2, #3
 1485 0016 1A82     		strh	r2, [r3, #16]	@ movhi
 1486 0018 019B     		ldr	r3, [sp, #4]
 1487 001a 0322     		movs	r2, #3
 1488 001c 5A82     		strh	r2, [r3, #18]	@ movhi
 1489              		.loc 1 701 0
 1490 001e 019B     		ldr	r3, [sp, #4]
 1491 0020 0022     		movs	r2, #0
 1492 0022 DA81     		strh	r2, [r3, #14]	@ movhi
 1493 0024 019B     		ldr	r3, [sp, #4]
 1494 0026 DA89     		ldrh	r2, [r3, #14]
 1495 0028 019B     		ldr	r3, [sp, #4]
 1496 002a 9A81     		strh	r2, [r3, #12]	@ movhi
 1497              		.loc 1 702 0
 1498 002c 009B     		ldr	r3, [sp]
 1499 002e 1A88     		ldrh	r2, [r3]
 1500 0030 009B     		ldr	r3, [sp]
 1501 0032 5B88     		ldrh	r3, [r3, #2]
 1502 0034 12B2     		sxth	r2, r2
 1503 0036 1BB2     		sxth	r3, r3
 1504 0038 0198     		ldr	r0, [sp, #4]
 1505 003a 1146     		mov	r1, r2
 1506 003c 1A46     		mov	r2, r3
 1507 003e FFF7FEFF 		bl	WM_Move
 1508              		.loc 1 703 0
 1509 0042 009B     		ldr	r3, [sp]
ARM GAS  /tmp/ccihpvPa.s 			page 28


 1510 0044 9A88     		ldrh	r2, [r3, #4]
 1511 0046 009B     		ldr	r3, [sp]
 1512 0048 DB88     		ldrh	r3, [r3, #6]
 1513 004a 12B2     		sxth	r2, r2
 1514 004c 1BB2     		sxth	r3, r3
 1515 004e 0198     		ldr	r0, [sp, #4]
 1516 0050 1146     		mov	r1, r2
 1517 0052 1A46     		mov	r2, r3
 1518 0054 FFF7FEFF 		bl	WM_Size
 1519              		.loc 1 704 0
 1520 0058 0123     		movs	r3, #1
 1521              		.loc 1 705 0
 1522 005a 1846     		mov	r0, r3
 1523 005c 03B0     		add	sp, sp, #12
 1524              		.cfi_def_cfa_offset 4
 1525              		@ sp needed
 1526 005e 5DF804FB 		ldr	pc, [sp], #4
 1527              	.L107:
 1528 0062 00BF     		.align	2
 1529              	.L106:
 1530 0064 00000000 		.word	_GWINList
 1531              		.cfi_endproc
 1532              	.LFE132:
 1533              		.size	WM_Add, .-WM_Add
 1534 0068 AFF30080 		.section	.text.WM_Delete,"ax",%progbits
 1534      AFF30080 
 1535              		.align	2
 1536              		.p2align 4,,15
 1537              		.thumb
 1538              		.thumb_func
 1539              		.type	WM_Delete, %function
 1540              	WM_Delete:
 1541              	.LFB133:
 1542              		.loc 1 707 0
 1543              		.cfi_startproc
 1544              		@ args = 0, pretend = 0, frame = 8
 1545              		@ frame_needed = 0, uses_anonymous_args = 0
 1546 0000 00B5     		push	{lr}
 1547              		.cfi_def_cfa_offset 4
 1548              		.cfi_offset 14, -4
 1549 0002 83B0     		sub	sp, sp, #12
 1550              		.cfi_def_cfa_offset 16
 1551 0004 0190     		str	r0, [sp, #4]
 1552              		.loc 1 709 0
 1553 0006 019B     		ldr	r3, [sp, #4]
 1554 0008 0348     		ldr	r0, .L109
 1555 000a 1946     		mov	r1, r3
 1556 000c FFF7FEFF 		bl	gfxQueueASyncRemove
 1557              		.loc 1 710 0
 1558 0010 03B0     		add	sp, sp, #12
 1559              		.cfi_def_cfa_offset 4
 1560              		@ sp needed
 1561 0012 5DF804FB 		ldr	pc, [sp], #4
 1562              	.L110:
 1563 0016 00BF     		.align	2
 1564              	.L109:
 1565 0018 00000000 		.word	_GWINList
ARM GAS  /tmp/ccihpvPa.s 			page 29


 1566              		.cfi_endproc
 1567              	.LFE133:
 1568              		.size	WM_Delete, .-WM_Delete
 1569 001c AFF30080 		.section	.text.WM_Redraw,"ax",%progbits
 1570              		.align	2
 1571              		.p2align 4,,15
 1572              		.thumb
 1573              		.thumb_func
 1574              		.type	WM_Redraw, %function
 1575              	WM_Redraw:
 1576              	.LFB134:
 1577              		.loc 1 712 0
 1578              		.cfi_startproc
 1579              		@ args = 0, pretend = 0, frame = 16
 1580              		@ frame_needed = 0, uses_anonymous_args = 0
 1581 0000 2DE9F041 		push	{r4, r5, r6, r7, r8, lr}
 1582              		.cfi_def_cfa_offset 24
 1583              		.cfi_offset 4, -24
 1584              		.cfi_offset 5, -20
 1585              		.cfi_offset 6, -16
 1586              		.cfi_offset 7, -12
 1587              		.cfi_offset 8, -8
 1588              		.cfi_offset 14, -4
 1589 0004 86B0     		sub	sp, sp, #24
 1590              		.cfi_def_cfa_offset 48
 1591 0006 0390     		str	r0, [sp, #12]
 1592              		.loc 1 716 0
 1593 0008 039B     		ldr	r3, [sp, #12]
 1594 000a 9B69     		ldr	r3, [r3, #24]
 1595 000c 03F40073 		and	r3, r3, #512
 1596 0010 002B     		cmp	r3, #0
 1597 0012 3AD0     		beq	.L112
 1598              		.loc 1 717 0
 1599 0014 039B     		ldr	r3, [sp, #12]
 1600 0016 5B68     		ldr	r3, [r3, #4]
 1601 0018 DB68     		ldr	r3, [r3, #12]
 1602 001a 002B     		cmp	r3, #0
 1603 001c 05D0     		beq	.L113
 1604              		.loc 1 718 0
 1605 001e 039B     		ldr	r3, [sp, #12]
 1606 0020 5B68     		ldr	r3, [r3, #4]
 1607 0022 DB68     		ldr	r3, [r3, #12]
 1608 0024 0398     		ldr	r0, [sp, #12]
 1609 0026 9847     		blx	r3
 1610 0028 B9E0     		b	.L115
 1611              	.L113:
 1612              		.loc 1 719 0
 1613 002a 039B     		ldr	r3, [sp, #12]
 1614 002c 9B69     		ldr	r3, [r3, #24]
 1615 002e 03F40043 		and	r3, r3, #32768
 1616 0032 002B     		cmp	r3, #0
 1617 0034 00F0B380 		beq	.L115
 1618              		.loc 1 721 0
 1619 0038 039B     		ldr	r3, [sp, #12]
 1620 003a 9868     		ldr	r0, [r3, #8]
 1621 003c 039B     		ldr	r3, [sp, #12]
 1622 003e 9989     		ldrh	r1, [r3, #12]
ARM GAS  /tmp/ccihpvPa.s 			page 30


 1623 0040 039B     		ldr	r3, [sp, #12]
 1624 0042 DD89     		ldrh	r5, [r3, #14]
 1625 0044 039B     		ldr	r3, [sp, #12]
 1626 0046 1C8A     		ldrh	r4, [r3, #16]
 1627 0048 039B     		ldr	r3, [sp, #12]
 1628 004a 5A8A     		ldrh	r2, [r3, #18]
 1629 004c 039B     		ldr	r3, [sp, #12]
 1630 004e DB8A     		ldrh	r3, [r3, #22]
 1631 0050 09B2     		sxth	r1, r1
 1632 0052 2DB2     		sxth	r5, r5
 1633 0054 24B2     		sxth	r4, r4
 1634 0056 12B2     		sxth	r2, r2
 1635 0058 0092     		str	r2, [sp]
 1636 005a 0193     		str	r3, [sp, #4]
 1637 005c 2A46     		mov	r2, r5
 1638 005e 2346     		mov	r3, r4
 1639 0060 FFF7FEFF 		bl	gdispGFillArea
 1640              		.loc 1 724 0
 1641 0064 039B     		ldr	r3, [sp, #12]
 1642 0066 9B69     		ldr	r3, [r3, #24]
 1643 0068 03F08073 		and	r3, r3, #16777216
 1644 006c 002B     		cmp	r3, #0
 1645 006e 40F09680 		bne	.L115
 1646              		.loc 1 724 0 is_stmt 0 discriminator 1
 1647 0072 039B     		ldr	r3, [sp, #12]
 1648 0074 5B68     		ldr	r3, [r3, #4]
 1649 0076 1B69     		ldr	r3, [r3, #16]
 1650 0078 002B     		cmp	r3, #0
 1651 007a 00F09080 		beq	.L115
 1652              		.loc 1 725 0 is_stmt 1
 1653 007e 039B     		ldr	r3, [sp, #12]
 1654 0080 5B68     		ldr	r3, [r3, #4]
 1655 0082 1B69     		ldr	r3, [r3, #16]
 1656 0084 0398     		ldr	r0, [sp, #12]
 1657 0086 9847     		blx	r3
 1658 0088 89E0     		b	.L115
 1659              	.L112:
 1660              		.loc 1 744 0
 1661 008a 039B     		ldr	r3, [sp, #12]
 1662 008c 9B69     		ldr	r3, [r3, #24]
 1663 008e 03F40043 		and	r3, r3, #32768
 1664 0092 002B     		cmp	r3, #0
 1665 0094 00F08380 		beq	.L115
 1666              	.LBB2:
 1667              		.loc 1 767 0
 1668 0098 039B     		ldr	r3, [sp, #12]
 1669 009a 9D68     		ldr	r5, [r3, #8]
 1670 009c 039B     		ldr	r3, [sp, #12]
 1671 009e B3F80C80 		ldrh	r8, [r3, #12]
 1672 00a2 039B     		ldr	r3, [sp, #12]
 1673 00a4 DF89     		ldrh	r7, [r3, #14]
 1674 00a6 039B     		ldr	r3, [sp, #12]
 1675 00a8 1C8A     		ldrh	r4, [r3, #16]
 1676 00aa 039B     		ldr	r3, [sp, #12]
 1677 00ac 5E8A     		ldrh	r6, [r3, #18]
 1678 00ae FFF7FEFF 		bl	gwinGetDefaultBgColor
 1679 00b2 0346     		mov	r3, r0
ARM GAS  /tmp/ccihpvPa.s 			page 31


 1680 00b4 1846     		mov	r0, r3
 1681 00b6 0FFA88F1 		sxth	r1, r8
 1682 00ba 3AB2     		sxth	r2, r7
 1683 00bc 24B2     		sxth	r4, r4
 1684 00be 33B2     		sxth	r3, r6
 1685 00c0 0093     		str	r3, [sp]
 1686 00c2 0190     		str	r0, [sp, #4]
 1687 00c4 2846     		mov	r0, r5
 1688 00c6 2346     		mov	r3, r4
 1689 00c8 FFF7FEFF 		bl	gdispGFillArea
 1690              		.loc 1 770 0
 1691 00cc 0020     		movs	r0, #0
 1692 00ce FFF7FEFF 		bl	gwinGetNextWindow
 1693 00d2 0590     		str	r0, [sp, #20]
 1694 00d4 60E0     		b	.L116
 1695              	.L119:
 1696              		.loc 1 771 0
 1697 00d6 059B     		ldr	r3, [sp, #20]
 1698 00d8 9B69     		ldr	r3, [r3, #24]
 1699 00da 03F40073 		and	r3, r3, #512
 1700 00de 002B     		cmp	r3, #0
 1701 00e0 56D0     		beq	.L117
 1702              		.loc 1 772 0
 1703 00e2 059B     		ldr	r3, [sp, #20]
 1704 00e4 9A68     		ldr	r2, [r3, #8]
 1705 00e6 039B     		ldr	r3, [sp, #12]
 1706 00e8 9B68     		ldr	r3, [r3, #8]
 1707 00ea 9A42     		cmp	r2, r3
 1708 00ec 50D1     		bne	.L117
 1709              		.loc 1 773 0
 1710 00ee 059B     		ldr	r3, [sp, #20]
 1711 00f0 9B89     		ldrh	r3, [r3, #12]
 1712 00f2 1AB2     		sxth	r2, r3
 1713 00f4 039B     		ldr	r3, [sp, #12]
 1714 00f6 9B89     		ldrh	r3, [r3, #12]
 1715 00f8 19B2     		sxth	r1, r3
 1716 00fa 039B     		ldr	r3, [sp, #12]
 1717 00fc 1B8A     		ldrh	r3, [r3, #16]
 1718 00fe 1BB2     		sxth	r3, r3
 1719 0100 0B44     		add	r3, r3, r1
 1720 0102 9A42     		cmp	r2, r3
 1721 0104 44DA     		bge	.L117
 1722              		.loc 1 773 0 is_stmt 0 discriminator 1
 1723 0106 059B     		ldr	r3, [sp, #20]
 1724 0108 DB89     		ldrh	r3, [r3, #14]
 1725 010a 1AB2     		sxth	r2, r3
 1726 010c 039B     		ldr	r3, [sp, #12]
 1727 010e DB89     		ldrh	r3, [r3, #14]
 1728 0110 19B2     		sxth	r1, r3
 1729 0112 039B     		ldr	r3, [sp, #12]
 1730 0114 5B8A     		ldrh	r3, [r3, #18]
 1731 0116 1BB2     		sxth	r3, r3
 1732 0118 0B44     		add	r3, r3, r1
 1733 011a 9A42     		cmp	r2, r3
 1734 011c 38DA     		bge	.L117
 1735              		.loc 1 773 0 discriminator 2
 1736 011e 059B     		ldr	r3, [sp, #20]
ARM GAS  /tmp/ccihpvPa.s 			page 32


 1737 0120 9B89     		ldrh	r3, [r3, #12]
 1738 0122 1AB2     		sxth	r2, r3
 1739 0124 059B     		ldr	r3, [sp, #20]
 1740 0126 1B8A     		ldrh	r3, [r3, #16]
 1741 0128 1BB2     		sxth	r3, r3
 1742 012a 1A44     		add	r2, r2, r3
 1743 012c 039B     		ldr	r3, [sp, #12]
 1744 012e 9B89     		ldrh	r3, [r3, #12]
 1745 0130 1BB2     		sxth	r3, r3
 1746 0132 9A42     		cmp	r2, r3
 1747 0134 2CDB     		blt	.L117
 1748              		.loc 1 773 0 discriminator 3
 1749 0136 059B     		ldr	r3, [sp, #20]
 1750 0138 DB89     		ldrh	r3, [r3, #14]
 1751 013a 1AB2     		sxth	r2, r3
 1752 013c 059B     		ldr	r3, [sp, #20]
 1753 013e 5B8A     		ldrh	r3, [r3, #18]
 1754 0140 1BB2     		sxth	r3, r3
 1755 0142 1A44     		add	r2, r2, r3
 1756 0144 039B     		ldr	r3, [sp, #12]
 1757 0146 DB89     		ldrh	r3, [r3, #14]
 1758 0148 1BB2     		sxth	r3, r3
 1759 014a 9A42     		cmp	r2, r3
 1760 014c 20DB     		blt	.L117
 1761              		.loc 1 774 0 is_stmt 1
 1762 014e 059B     		ldr	r3, [sp, #20]
 1763 0150 5B68     		ldr	r3, [r3, #4]
 1764 0152 DB68     		ldr	r3, [r3, #12]
 1765 0154 002B     		cmp	r3, #0
 1766 0156 05D0     		beq	.L118
 1767              		.loc 1 775 0
 1768 0158 059B     		ldr	r3, [sp, #20]
 1769 015a 5B68     		ldr	r3, [r3, #4]
 1770 015c DB68     		ldr	r3, [r3, #12]
 1771 015e 0598     		ldr	r0, [sp, #20]
 1772 0160 9847     		blx	r3
 1773 0162 15E0     		b	.L117
 1774              	.L118:
 1775              		.loc 1 778 0
 1776 0164 059B     		ldr	r3, [sp, #20]
 1777 0166 9868     		ldr	r0, [r3, #8]
 1778 0168 059B     		ldr	r3, [sp, #20]
 1779 016a 9989     		ldrh	r1, [r3, #12]
 1780 016c 059B     		ldr	r3, [sp, #20]
 1781 016e DD89     		ldrh	r5, [r3, #14]
 1782 0170 059B     		ldr	r3, [sp, #20]
 1783 0172 1C8A     		ldrh	r4, [r3, #16]
 1784 0174 059B     		ldr	r3, [sp, #20]
 1785 0176 5A8A     		ldrh	r2, [r3, #18]
 1786 0178 059B     		ldr	r3, [sp, #20]
 1787 017a DB8A     		ldrh	r3, [r3, #22]
 1788 017c 09B2     		sxth	r1, r1
 1789 017e 2DB2     		sxth	r5, r5
 1790 0180 24B2     		sxth	r4, r4
 1791 0182 12B2     		sxth	r2, r2
 1792 0184 0092     		str	r2, [sp]
 1793 0186 0193     		str	r3, [sp, #4]
ARM GAS  /tmp/ccihpvPa.s 			page 33


 1794 0188 2A46     		mov	r2, r5
 1795 018a 2346     		mov	r3, r4
 1796 018c FFF7FEFF 		bl	gdispGFillArea
 1797              	.L117:
 1798              		.loc 1 770 0 discriminator 2
 1799 0190 0598     		ldr	r0, [sp, #20]
 1800 0192 FFF7FEFF 		bl	gwinGetNextWindow
 1801 0196 0590     		str	r0, [sp, #20]
 1802              	.L116:
 1803              		.loc 1 770 0 is_stmt 0 discriminator 1
 1804 0198 059B     		ldr	r3, [sp, #20]
 1805 019a 002B     		cmp	r3, #0
 1806 019c 9BD1     		bne	.L119
 1807              	.L115:
 1808              	.LBE2:
 1809              		.loc 1 786 0 is_stmt 1
 1810 019e 039B     		ldr	r3, [sp, #12]
 1811 01a0 9B69     		ldr	r3, [r3, #24]
 1812 01a2 23F08073 		bic	r3, r3, #16777216
 1813 01a6 23F44043 		bic	r3, r3, #49152
 1814 01aa 039A     		ldr	r2, [sp, #12]
 1815 01ac 9361     		str	r3, [r2, #24]
 1816              		.loc 1 787 0
 1817 01ae 06B0     		add	sp, sp, #24
 1818              		.cfi_def_cfa_offset 24
 1819              		@ sp needed
 1820 01b0 BDE8F081 		pop	{r4, r5, r6, r7, r8, pc}
 1821              		.cfi_endproc
 1822              	.LFE134:
 1823              		.size	WM_Redraw, .-WM_Redraw
 1824 01b4 AFF30080 		.section	.text.WM_Size,"ax",%progbits
 1824      AFF30080 
 1824      AFF30080 
 1825              		.align	2
 1826              		.p2align 4,,15
 1827              		.thumb
 1828              		.thumb_func
 1829              		.type	WM_Size, %function
 1830              	WM_Size:
 1831              	.LFB135:
 1832              		.loc 1 789 0
 1833              		.cfi_startproc
 1834              		@ args = 0, pretend = 0, frame = 16
 1835              		@ frame_needed = 0, uses_anonymous_args = 0
 1836 0000 00B5     		push	{lr}
 1837              		.cfi_def_cfa_offset 4
 1838              		.cfi_offset 14, -4
 1839 0002 85B0     		sub	sp, sp, #20
 1840              		.cfi_def_cfa_offset 24
 1841 0004 0190     		str	r0, [sp, #4]
 1842 0006 0B46     		mov	r3, r1
 1843 0008 ADF80230 		strh	r3, [sp, #2]	@ movhi
 1844 000c 1346     		mov	r3, r2	@ movhi
 1845 000e ADF80030 		strh	r3, [sp]	@ movhi
 1846              		.loc 1 803 0
 1847 0012 019B     		ldr	r3, [sp, #4]
 1848 0014 9B68     		ldr	r3, [r3, #8]
ARM GAS  /tmp/ccihpvPa.s 			page 34


 1849 0016 1846     		mov	r0, r3
 1850 0018 FFF7FEFF 		bl	gdispGGetWidth
 1851 001c 0346     		mov	r3, r0
 1852 001e ADF80E30 		strh	r3, [sp, #14]	@ movhi
 1853              		.loc 1 804 0
 1854 0022 019B     		ldr	r3, [sp, #4]
 1855 0024 9B89     		ldrh	r3, [r3, #12]
 1856 0026 1AB2     		sxth	r2, r3
 1857 0028 BDF90230 		ldrsh	r3, [sp, #2]
 1858 002c 1A44     		add	r2, r2, r3
 1859 002e BDF90E30 		ldrsh	r3, [sp, #14]
 1860 0032 9A42     		cmp	r2, r3
 1861 0034 08DD     		ble	.L121
 1862              		.loc 1 804 0 is_stmt 0 discriminator 1
 1863 0036 BDF80E20 		ldrh	r2, [sp, #14]
 1864 003a 019B     		ldr	r3, [sp, #4]
 1865 003c 9B89     		ldrh	r3, [r3, #12]
 1866 003e 9BB2     		uxth	r3, r3
 1867 0040 D31A     		subs	r3, r2, r3
 1868 0042 9BB2     		uxth	r3, r3
 1869 0044 ADF80230 		strh	r3, [sp, #2]	@ movhi
 1870              	.L121:
 1871              		.loc 1 805 0 is_stmt 1
 1872 0048 019B     		ldr	r3, [sp, #4]
 1873 004a 9B68     		ldr	r3, [r3, #8]
 1874 004c 1846     		mov	r0, r3
 1875 004e FFF7FEFF 		bl	gdispGGetHeight
 1876 0052 0346     		mov	r3, r0
 1877 0054 ADF80E30 		strh	r3, [sp, #14]	@ movhi
 1878              		.loc 1 806 0
 1879 0058 019B     		ldr	r3, [sp, #4]
 1880 005a DB89     		ldrh	r3, [r3, #14]
 1881 005c 1AB2     		sxth	r2, r3
 1882 005e BDF90030 		ldrsh	r3, [sp]
 1883 0062 1A44     		add	r2, r2, r3
 1884 0064 BDF90E30 		ldrsh	r3, [sp, #14]
 1885 0068 9A42     		cmp	r2, r3
 1886 006a 08DD     		ble	.L122
 1887              		.loc 1 806 0 is_stmt 0 discriminator 1
 1888 006c BDF80E20 		ldrh	r2, [sp, #14]
 1889 0070 019B     		ldr	r3, [sp, #4]
 1890 0072 DB89     		ldrh	r3, [r3, #14]
 1891 0074 9BB2     		uxth	r3, r3
 1892 0076 D31A     		subs	r3, r2, r3
 1893 0078 9BB2     		uxth	r3, r3
 1894 007a ADF80030 		strh	r3, [sp]	@ movhi
 1895              	.L122:
 1896              		.loc 1 809 0 is_stmt 1
 1897 007e BDF90230 		ldrsh	r3, [sp, #2]
 1898 0082 022B     		cmp	r3, #2
 1899 0084 02DC     		bgt	.L123
 1900              		.loc 1 809 0 is_stmt 0 discriminator 1
 1901 0086 0323     		movs	r3, #3
 1902 0088 ADF80230 		strh	r3, [sp, #2]	@ movhi
 1903              	.L123:
 1904              		.loc 1 810 0 is_stmt 1
 1905 008c BDF90030 		ldrsh	r3, [sp]
ARM GAS  /tmp/ccihpvPa.s 			page 35


 1906 0090 022B     		cmp	r3, #2
 1907 0092 02DC     		bgt	.L124
 1908              		.loc 1 810 0 is_stmt 0 discriminator 1
 1909 0094 0323     		movs	r3, #3
 1910 0096 ADF80030 		strh	r3, [sp]	@ movhi
 1911              	.L124:
 1912              		.loc 1 813 0 is_stmt 1
 1913 009a 019B     		ldr	r3, [sp, #4]
 1914 009c 1B8A     		ldrh	r3, [r3, #16]
 1915 009e BDF90220 		ldrsh	r2, [sp, #2]
 1916 00a2 1BB2     		sxth	r3, r3
 1917 00a4 9A42     		cmp	r2, r3
 1918 00a6 07D1     		bne	.L125
 1919              		.loc 1 813 0 is_stmt 0 discriminator 1
 1920 00a8 019B     		ldr	r3, [sp, #4]
 1921 00aa 5B8A     		ldrh	r3, [r3, #18]
 1922 00ac BDF90020 		ldrsh	r2, [sp]
 1923 00b0 1BB2     		sxth	r3, r3
 1924 00b2 9A42     		cmp	r2, r3
 1925 00b4 00D1     		bne	.L125
 1926              		.loc 1 814 0 is_stmt 1
 1927 00b6 3BE0     		b	.L120
 1928              	.L125:
 1929              		.loc 1 817 0
 1930 00b8 019B     		ldr	r3, [sp, #4]
 1931 00ba 9B69     		ldr	r3, [r3, #24]
 1932 00bc 03F40073 		and	r3, r3, #512
 1933 00c0 002B     		cmp	r3, #0
 1934 00c2 2DD0     		beq	.L127
 1935              		.loc 1 818 0
 1936 00c4 019B     		ldr	r3, [sp, #4]
 1937 00c6 1B8A     		ldrh	r3, [r3, #16]
 1938 00c8 BDF90220 		ldrsh	r2, [sp, #2]
 1939 00cc 1BB2     		sxth	r3, r3
 1940 00ce 9A42     		cmp	r2, r3
 1941 00d0 12DB     		blt	.L128
 1942              		.loc 1 818 0 is_stmt 0 discriminator 1
 1943 00d2 019B     		ldr	r3, [sp, #4]
 1944 00d4 5B8A     		ldrh	r3, [r3, #18]
 1945 00d6 BDF90020 		ldrsh	r2, [sp]
 1946 00da 1BB2     		sxth	r3, r3
 1947 00dc 9A42     		cmp	r2, r3
 1948 00de 0BDB     		blt	.L128
 1949              		.loc 1 821 0 is_stmt 1
 1950 00e0 019B     		ldr	r3, [sp, #4]
 1951 00e2 BDF80220 		ldrh	r2, [sp, #2]	@ movhi
 1952 00e6 1A82     		strh	r2, [r3, #16]	@ movhi
 1953 00e8 019B     		ldr	r3, [sp, #4]
 1954 00ea BDF80020 		ldrh	r2, [sp]	@ movhi
 1955 00ee 5A82     		strh	r2, [r3, #18]	@ movhi
 1956              		.loc 1 822 0
 1957 00f0 0198     		ldr	r0, [sp, #4]
 1958 00f2 FFF7FEFF 		bl	_gwinUpdate
 1959 00f6 1BE0     		b	.L120
 1960              	.L128:
 1961              		.loc 1 826 0
 1962 00f8 0198     		ldr	r0, [sp, #4]
ARM GAS  /tmp/ccihpvPa.s 			page 36


 1963 00fa 0021     		movs	r1, #0
 1964 00fc FFF7FEFF 		bl	gwinSetVisible
 1965              		.loc 1 827 0
 1966 0100 0020     		movs	r0, #0
 1967 0102 FFF7FEFF 		bl	_gwinFlushRedraws
 1968              		.loc 1 830 0
 1969 0106 019B     		ldr	r3, [sp, #4]
 1970 0108 BDF80220 		ldrh	r2, [sp, #2]	@ movhi
 1971 010c 1A82     		strh	r2, [r3, #16]	@ movhi
 1972 010e 019B     		ldr	r3, [sp, #4]
 1973 0110 BDF80020 		ldrh	r2, [sp]	@ movhi
 1974 0114 5A82     		strh	r2, [r3, #18]	@ movhi
 1975              		.loc 1 844 0
 1976 0116 0198     		ldr	r0, [sp, #4]
 1977 0118 0121     		movs	r1, #1
 1978 011a FFF7FEFF 		bl	gwinSetVisible
 1979 011e 07E0     		b	.L120
 1980              	.L127:
 1981              		.loc 1 847 0
 1982 0120 019B     		ldr	r3, [sp, #4]
 1983 0122 BDF80220 		ldrh	r2, [sp, #2]	@ movhi
 1984 0126 1A82     		strh	r2, [r3, #16]	@ movhi
 1985 0128 019B     		ldr	r3, [sp, #4]
 1986 012a BDF80020 		ldrh	r2, [sp]	@ movhi
 1987 012e 5A82     		strh	r2, [r3, #18]	@ movhi
 1988              	.L120:
 1989              		.loc 1 860 0
 1990 0130 05B0     		add	sp, sp, #20
 1991              		.cfi_def_cfa_offset 4
 1992              		@ sp needed
 1993 0132 5DF804FB 		ldr	pc, [sp], #4
 1994              		.cfi_endproc
 1995              	.LFE135:
 1996              		.size	WM_Size, .-WM_Size
 1997 0136 00BFAFF3 		.section	.text.WM_Move,"ax",%progbits
 1997      0080AFF3 
 1997      0080
 1998              		.align	2
 1999              		.p2align 4,,15
 2000              		.thumb
 2001              		.thumb_func
 2002              		.type	WM_Move, %function
 2003              	WM_Move:
 2004              	.LFB136:
 2005              		.loc 1 862 0
 2006              		.cfi_startproc
 2007              		@ args = 0, pretend = 0, frame = 16
 2008              		@ frame_needed = 0, uses_anonymous_args = 0
 2009 0000 00B5     		push	{lr}
 2010              		.cfi_def_cfa_offset 4
 2011              		.cfi_offset 14, -4
 2012 0002 85B0     		sub	sp, sp, #20
 2013              		.cfi_def_cfa_offset 24
 2014 0004 0190     		str	r0, [sp, #4]
 2015 0006 0B46     		mov	r3, r1
 2016 0008 ADF80230 		strh	r3, [sp, #2]	@ movhi
 2017 000c 1346     		mov	r3, r2	@ movhi
ARM GAS  /tmp/ccihpvPa.s 			page 37


 2018 000e ADF80030 		strh	r3, [sp]	@ movhi
 2019              		.loc 1 874 0
 2020 0012 019B     		ldr	r3, [sp, #4]
 2021 0014 9B68     		ldr	r3, [r3, #8]
 2022 0016 1846     		mov	r0, r3
 2023 0018 FFF7FEFF 		bl	gdispGGetWidth
 2024 001c 0346     		mov	r3, r0
 2025 001e ADF80E30 		strh	r3, [sp, #14]	@ movhi
 2026              		.loc 1 875 0
 2027 0022 019B     		ldr	r3, [sp, #4]
 2028 0024 9B68     		ldr	r3, [r3, #8]
 2029 0026 1846     		mov	r0, r3
 2030 0028 FFF7FEFF 		bl	gdispGGetHeight
 2031 002c 0346     		mov	r3, r0
 2032 002e ADF80C30 		strh	r3, [sp, #12]	@ movhi
 2033              		.loc 1 879 0
 2034 0032 BDF90220 		ldrsh	r2, [sp, #2]
 2035 0036 019B     		ldr	r3, [sp, #4]
 2036 0038 1B8A     		ldrh	r3, [r3, #16]
 2037 003a 1BB2     		sxth	r3, r3
 2038 003c 1A44     		add	r2, r2, r3
 2039 003e BDF90E30 		ldrsh	r3, [sp, #14]
 2040 0042 9A42     		cmp	r2, r3
 2041 0044 08DD     		ble	.L131
 2042              		.loc 1 879 0 is_stmt 0 discriminator 1
 2043 0046 BDF80E20 		ldrh	r2, [sp, #14]
 2044 004a 019B     		ldr	r3, [sp, #4]
 2045 004c 1B8A     		ldrh	r3, [r3, #16]
 2046 004e 9BB2     		uxth	r3, r3
 2047 0050 D31A     		subs	r3, r2, r3
 2048 0052 9BB2     		uxth	r3, r3
 2049 0054 ADF80230 		strh	r3, [sp, #2]	@ movhi
 2050              	.L131:
 2051              		.loc 1 880 0 is_stmt 1
 2052 0058 BDF90230 		ldrsh	r3, [sp, #2]
 2053 005c 002B     		cmp	r3, #0
 2054 005e 02DA     		bge	.L132
 2055              		.loc 1 880 0 is_stmt 0 discriminator 1
 2056 0060 0023     		movs	r3, #0
 2057 0062 ADF80230 		strh	r3, [sp, #2]	@ movhi
 2058              	.L132:
 2059              		.loc 1 881 0 is_stmt 1
 2060 0066 BDF90020 		ldrsh	r2, [sp]
 2061 006a 019B     		ldr	r3, [sp, #4]
 2062 006c 5B8A     		ldrh	r3, [r3, #18]
 2063 006e 1BB2     		sxth	r3, r3
 2064 0070 1A44     		add	r2, r2, r3
 2065 0072 BDF90C30 		ldrsh	r3, [sp, #12]
 2066 0076 9A42     		cmp	r2, r3
 2067 0078 08DD     		ble	.L133
 2068              		.loc 1 881 0 is_stmt 0 discriminator 1
 2069 007a BDF80C20 		ldrh	r2, [sp, #12]
 2070 007e 019B     		ldr	r3, [sp, #4]
 2071 0080 5B8A     		ldrh	r3, [r3, #18]
 2072 0082 9BB2     		uxth	r3, r3
 2073 0084 D31A     		subs	r3, r2, r3
 2074 0086 9BB2     		uxth	r3, r3
ARM GAS  /tmp/ccihpvPa.s 			page 38


 2075 0088 ADF80030 		strh	r3, [sp]	@ movhi
 2076              	.L133:
 2077              		.loc 1 882 0 is_stmt 1
 2078 008c BDF90030 		ldrsh	r3, [sp]
 2079 0090 002B     		cmp	r3, #0
 2080 0092 02DA     		bge	.L134
 2081              		.loc 1 882 0 is_stmt 0 discriminator 1
 2082 0094 0023     		movs	r3, #0
 2083 0096 ADF80030 		strh	r3, [sp]	@ movhi
 2084              	.L134:
 2085              		.loc 1 885 0 is_stmt 1
 2086 009a BDF80E20 		ldrh	r2, [sp, #14]
 2087 009e BDF80230 		ldrh	r3, [sp, #2]
 2088 00a2 D31A     		subs	r3, r2, r3
 2089 00a4 9BB2     		uxth	r3, r3
 2090 00a6 ADF80E30 		strh	r3, [sp, #14]	@ movhi
 2091              		.loc 1 886 0
 2092 00aa BDF80C20 		ldrh	r2, [sp, #12]
 2093 00ae BDF80030 		ldrh	r3, [sp]
 2094 00b2 D31A     		subs	r3, r2, r3
 2095 00b4 9BB2     		uxth	r3, r3
 2096 00b6 ADF80C30 		strh	r3, [sp, #12]	@ movhi
 2097              		.loc 1 887 0
 2098 00ba 019B     		ldr	r3, [sp, #4]
 2099 00bc 1B8A     		ldrh	r3, [r3, #16]
 2100 00be BDF90E20 		ldrsh	r2, [sp, #14]
 2101 00c2 1BB2     		sxth	r3, r3
 2102 00c4 9A42     		cmp	r2, r3
 2103 00c6 03DD     		ble	.L135
 2104              		.loc 1 887 0 is_stmt 0 discriminator 1
 2105 00c8 019B     		ldr	r3, [sp, #4]
 2106 00ca 1B8A     		ldrh	r3, [r3, #16]	@ movhi
 2107 00cc ADF80E30 		strh	r3, [sp, #14]	@ movhi
 2108              	.L135:
 2109              		.loc 1 888 0 is_stmt 1
 2110 00d0 019B     		ldr	r3, [sp, #4]
 2111 00d2 5B8A     		ldrh	r3, [r3, #18]
 2112 00d4 BDF90C20 		ldrsh	r2, [sp, #12]
 2113 00d8 1BB2     		sxth	r3, r3
 2114 00da 9A42     		cmp	r2, r3
 2115 00dc 03DD     		ble	.L136
 2116              		.loc 1 888 0 is_stmt 0 discriminator 1
 2117 00de 019B     		ldr	r3, [sp, #4]
 2118 00e0 5B8A     		ldrh	r3, [r3, #18]	@ movhi
 2119 00e2 ADF80C30 		strh	r3, [sp, #12]	@ movhi
 2120              	.L136:
 2121              		.loc 1 889 0 is_stmt 1
 2122 00e6 019B     		ldr	r3, [sp, #4]
 2123 00e8 1B8A     		ldrh	r3, [r3, #16]
 2124 00ea BDF90E20 		ldrsh	r2, [sp, #14]
 2125 00ee 1BB2     		sxth	r3, r3
 2126 00f0 9A42     		cmp	r2, r3
 2127 00f2 06D1     		bne	.L137
 2128              		.loc 1 889 0 is_stmt 0 discriminator 1
 2129 00f4 019B     		ldr	r3, [sp, #4]
 2130 00f6 5B8A     		ldrh	r3, [r3, #18]
 2131 00f8 BDF90C20 		ldrsh	r2, [sp, #12]
ARM GAS  /tmp/ccihpvPa.s 			page 39


 2132 00fc 1BB2     		sxth	r3, r3
 2133 00fe 9A42     		cmp	r2, r3
 2134 0100 08D0     		beq	.L138
 2135              	.L137:
 2136              		.loc 1 890 0 is_stmt 1
 2137 0102 BDF90E20 		ldrsh	r2, [sp, #14]
 2138 0106 BDF90C30 		ldrsh	r3, [sp, #12]
 2139 010a 0198     		ldr	r0, [sp, #4]
 2140 010c 1146     		mov	r1, r2
 2141 010e 1A46     		mov	r2, r3
 2142 0110 FFF7FEFF 		bl	WM_Size
 2143              	.L138:
 2144              		.loc 1 901 0
 2145 0114 019B     		ldr	r3, [sp, #4]
 2146 0116 9B89     		ldrh	r3, [r3, #12]
 2147 0118 BDF90220 		ldrsh	r2, [sp, #2]
 2148 011c 1BB2     		sxth	r3, r3
 2149 011e 9A42     		cmp	r2, r3
 2150 0120 07D1     		bne	.L139
 2151              		.loc 1 901 0 is_stmt 0 discriminator 1
 2152 0122 019B     		ldr	r3, [sp, #4]
 2153 0124 DB89     		ldrh	r3, [r3, #14]
 2154 0126 BDF90020 		ldrsh	r2, [sp]
 2155 012a 1BB2     		sxth	r3, r3
 2156 012c 9A42     		cmp	r2, r3
 2157 012e 00D1     		bne	.L139
 2158              		.loc 1 902 0 is_stmt 1
 2159 0130 31E0     		b	.L130
 2160              	.L139:
 2161              		.loc 1 905 0
 2162 0132 019B     		ldr	r3, [sp, #4]
 2163 0134 9B69     		ldr	r3, [r3, #24]
 2164 0136 03F40073 		and	r3, r3, #512
 2165 013a 002B     		cmp	r3, #0
 2166 013c 1BD0     		beq	.L141
 2167              		.loc 1 907 0
 2168 013e 0198     		ldr	r0, [sp, #4]
 2169 0140 0021     		movs	r1, #0
 2170 0142 FFF7FEFF 		bl	gwinSetVisible
 2171              		.loc 1 908 0
 2172 0146 0020     		movs	r0, #0
 2173 0148 FFF7FEFF 		bl	_gwinFlushRedraws
 2174              		.loc 1 911 0
 2175 014c 019B     		ldr	r3, [sp, #4]
 2176 014e 9B89     		ldrh	r3, [r3, #12]	@ movhi
 2177 0150 ADF80E30 		strh	r3, [sp, #14]	@ movhi
 2178 0154 019B     		ldr	r3, [sp, #4]
 2179 0156 BDF80220 		ldrh	r2, [sp, #2]	@ movhi
 2180 015a 9A81     		strh	r2, [r3, #12]	@ movhi
 2181              		.loc 1 912 0
 2182 015c 019B     		ldr	r3, [sp, #4]
 2183 015e DB89     		ldrh	r3, [r3, #14]	@ movhi
 2184 0160 ADF80C30 		strh	r3, [sp, #12]	@ movhi
 2185 0164 019B     		ldr	r3, [sp, #4]
 2186 0166 BDF80020 		ldrh	r2, [sp]	@ movhi
 2187 016a DA81     		strh	r2, [r3, #14]	@ movhi
 2188              		.loc 1 925 0
ARM GAS  /tmp/ccihpvPa.s 			page 40


 2189 016c 0198     		ldr	r0, [sp, #4]
 2190 016e 0121     		movs	r1, #1
 2191 0170 FFF7FEFF 		bl	gwinSetVisible
 2192 0174 0FE0     		b	.L130
 2193              	.L141:
 2194              		.loc 1 927 0
 2195 0176 019B     		ldr	r3, [sp, #4]
 2196 0178 9B89     		ldrh	r3, [r3, #12]	@ movhi
 2197 017a ADF80E30 		strh	r3, [sp, #14]	@ movhi
 2198 017e 019B     		ldr	r3, [sp, #4]
 2199 0180 BDF80220 		ldrh	r2, [sp, #2]	@ movhi
 2200 0184 9A81     		strh	r2, [r3, #12]	@ movhi
 2201              		.loc 1 928 0
 2202 0186 019B     		ldr	r3, [sp, #4]
 2203 0188 DB89     		ldrh	r3, [r3, #14]	@ movhi
 2204 018a ADF80C30 		strh	r3, [sp, #12]	@ movhi
 2205 018e 019B     		ldr	r3, [sp, #4]
 2206 0190 BDF80020 		ldrh	r2, [sp]	@ movhi
 2207 0194 DA81     		strh	r2, [r3, #14]	@ movhi
 2208              	.L130:
 2209              		.loc 1 941 0
 2210 0196 05B0     		add	sp, sp, #20
 2211              		.cfi_def_cfa_offset 4
 2212              		@ sp needed
 2213 0198 5DF804FB 		ldr	pc, [sp], #4
 2214              		.cfi_endproc
 2215              	.LFE136:
 2216              		.size	WM_Move, .-WM_Move
 2217 019c AFF30080 		.section	.text.WM_MinMax,"ax",%progbits
 2218              		.align	2
 2219              		.p2align 4,,15
 2220              		.thumb
 2221              		.thumb_func
 2222              		.type	WM_MinMax, %function
 2223              	WM_MinMax:
 2224              	.LFB137:
 2225              		.loc 1 943 0
 2226              		.cfi_startproc
 2227              		@ args = 0, pretend = 0, frame = 8
 2228              		@ frame_needed = 0, uses_anonymous_args = 0
 2229              		@ link register save eliminated.
 2230 0000 82B0     		sub	sp, sp, #8
 2231              		.cfi_def_cfa_offset 8
 2232 0002 0190     		str	r0, [sp, #4]
 2233 0004 0B46     		mov	r3, r1
 2234 0006 8DF80330 		strb	r3, [sp, #3]
 2235              		.loc 1 946 0
 2236 000a 02B0     		add	sp, sp, #8
 2237              		.cfi_def_cfa_offset 0
 2238              		@ sp needed
 2239 000c 7047     		bx	lr
 2240              		.cfi_endproc
 2241              	.LFE137:
 2242              		.size	WM_MinMax, .-WM_MinMax
 2243 000e 00BF     		.section	.text.WM_Raise,"ax",%progbits
 2244              		.align	2
 2245              		.p2align 4,,15
ARM GAS  /tmp/ccihpvPa.s 			page 41


 2246              		.thumb
 2247              		.thumb_func
 2248              		.type	WM_Raise, %function
 2249              	WM_Raise:
 2250              	.LFB138:
 2251              		.loc 1 948 0
 2252              		.cfi_startproc
 2253              		@ args = 0, pretend = 0, frame = 8
 2254              		@ frame_needed = 0, uses_anonymous_args = 0
 2255 0000 00B5     		push	{lr}
 2256              		.cfi_def_cfa_offset 4
 2257              		.cfi_offset 14, -4
 2258 0002 83B0     		sub	sp, sp, #12
 2259              		.cfi_def_cfa_offset 16
 2260 0004 0190     		str	r0, [sp, #4]
 2261              		.loc 1 952 0
 2262 0006 019B     		ldr	r3, [sp, #4]
 2263 0008 0748     		ldr	r0, .L144
 2264 000a 1946     		mov	r1, r3
 2265 000c FFF7FEFF 		bl	gfxQueueASyncRemove
 2266              		.loc 1 953 0
 2267 0010 019B     		ldr	r3, [sp, #4]
 2268 0012 0548     		ldr	r0, .L144
 2269 0014 1946     		mov	r1, r3
 2270 0016 FFF7FEFF 		bl	gfxQueueASyncPut
 2271              		.loc 1 956 0
 2272 001a 0198     		ldr	r0, [sp, #4]
 2273 001c FFF7FEFF 		bl	_gwinUpdate
 2274              		.loc 1 957 0
 2275 0020 03B0     		add	sp, sp, #12
 2276              		.cfi_def_cfa_offset 4
 2277              		@ sp needed
 2278 0022 5DF804FB 		ldr	pc, [sp], #4
 2279              	.L145:
 2280 0026 00BF     		.align	2
 2281              	.L144:
 2282 0028 00000000 		.word	_GWINList
 2283              		.cfi_endproc
 2284              	.LFE138:
 2285              		.size	WM_Raise, .-WM_Raise
 2286 002c AFF30080 		.text
 2287              	.Letext0:
 2288              		.file 2 "/opt/gcc-arm-none-eabi/lib/gcc/arm-none-eabi/4.9.3/include/stddef.h"
 2289              		.file 3 "/opt/gcc-arm-none-eabi/arm-none-eabi/include/machine/_default_types.h"
 2290              		.file 4 "/opt/gcc-arm-none-eabi/arm-none-eabi/include/stdint.h"
 2291              		.file 5 "/home/makkmarci/workspace/ChibiOS_2.6.8/os/ports/GCC/ARMCMx/chtypes.h"
 2292              		.file 6 "/home/makkmarci/workspace/ChibiOS_2.6.8/os/kernel/include/chlists.h"
 2293              		.file 7 "/home/makkmarci/workspace/ChibiOS_2.6.8/os/kernel/include/chthreads.h"
 2294              		.file 8 "/home/makkmarci/workspace/ChibiOS_2.6.8/os/ports/GCC/ARMCMx/chcore_v7m.h"
 2295              		.file 9 "/home/makkmarci/workspace/ChibiOS_2.6.8/os/kernel/include/chsem.h"
 2296              		.file 10 "/home/makkmarci/workspace/ChibiOS_2.6.8/os/kernel/include/chmtx.h"
 2297              		.file 11 "/home/makkmarci/workspace/ugfx/src/gos/gos_chibios.h"
 2298              		.file 12 "/home/makkmarci/workspace/ugfx/src/gqueue/gqueue.h"
 2299              		.file 13 "/home/makkmarci/workspace/ugfx/src/gtimer/gtimer.h"
 2300              		.file 14 "/home/makkmarci/workspace/ugfx/src/gdisp/gdisp.h"
 2301              		.file 15 "/home/makkmarci/workspace/ugfx/src/gdisp/gdisp_colors.h"
 2302              		.file 16 "/home/makkmarci/workspace/ugfx/src/gwin/gwin.h"
ARM GAS  /tmp/ccihpvPa.s 			page 42


 2303              		.file 17 "/home/makkmarci/workspace/ugfx/src/gwin/gwin_class.h"
 2304              		.file 18 "/home/makkmarci/workspace/ChibiOS_2.6.8/os/ports/common/ARMCMx/CMSIS/include/core_cm4.h"
 2305              		.section	.debug_info,"",%progbits
 2306              	.Ldebug_info0:
 2307 0000 380F0000 		.4byte	0xf38
 2308 0004 0400     		.2byte	0x4
 2309 0006 00000000 		.4byte	.Ldebug_abbrev0
 2310 000a 04       		.byte	0x4
 2311 000b 01       		.uleb128 0x1
 2312 000c 3A030000 		.4byte	.LASF167
 2313 0010 01       		.byte	0x1
 2314 0011 B5060000 		.4byte	.LASF168
 2315 0015 00000000 		.4byte	.Ldebug_ranges0+0
 2316 0019 00000000 		.4byte	0
 2317 001d 00000000 		.4byte	.Ldebug_line0
 2318 0021 02       		.uleb128 0x2
 2319 0022 04       		.byte	0x4
 2320 0023 05       		.byte	0x5
 2321 0024 696E7400 		.ascii	"int\000"
 2322 0028 03       		.uleb128 0x3
 2323 0029 FC010000 		.4byte	.LASF2
 2324 002d 02       		.byte	0x2
 2325 002e D4       		.byte	0xd4
 2326 002f 33000000 		.4byte	0x33
 2327 0033 04       		.uleb128 0x4
 2328 0034 04       		.byte	0x4
 2329 0035 07       		.byte	0x7
 2330 0036 1C020000 		.4byte	.LASF0
 2331 003a 04       		.uleb128 0x4
 2332 003b 01       		.byte	0x1
 2333 003c 06       		.byte	0x6
 2334 003d E4000000 		.4byte	.LASF1
 2335 0041 03       		.uleb128 0x3
 2336 0042 1E000000 		.4byte	.LASF3
 2337 0046 03       		.byte	0x3
 2338 0047 1D       		.byte	0x1d
 2339 0048 4C000000 		.4byte	0x4c
 2340 004c 04       		.uleb128 0x4
 2341 004d 01       		.byte	0x1
 2342 004e 08       		.byte	0x8
 2343 004f 42050000 		.4byte	.LASF4
 2344 0053 03       		.uleb128 0x3
 2345 0054 F2010000 		.4byte	.LASF5
 2346 0058 03       		.byte	0x3
 2347 0059 29       		.byte	0x29
 2348 005a 5E000000 		.4byte	0x5e
 2349 005e 04       		.uleb128 0x4
 2350 005f 02       		.byte	0x2
 2351 0060 05       		.byte	0x5
 2352 0061 73050000 		.4byte	.LASF6
 2353 0065 03       		.uleb128 0x3
 2354 0066 33060000 		.4byte	.LASF7
 2355 006a 03       		.byte	0x3
 2356 006b 2B       		.byte	0x2b
 2357 006c 70000000 		.4byte	0x70
 2358 0070 04       		.uleb128 0x4
 2359 0071 02       		.byte	0x2
ARM GAS  /tmp/ccihpvPa.s 			page 43


 2360 0072 07       		.byte	0x7
 2361 0073 93010000 		.4byte	.LASF8
 2362 0077 03       		.uleb128 0x3
 2363 0078 75060000 		.4byte	.LASF9
 2364 007c 03       		.byte	0x3
 2365 007d 3F       		.byte	0x3f
 2366 007e 82000000 		.4byte	0x82
 2367 0082 04       		.uleb128 0x4
 2368 0083 04       		.byte	0x4
 2369 0084 05       		.byte	0x5
 2370 0085 1F010000 		.4byte	.LASF10
 2371 0089 03       		.uleb128 0x3
 2372 008a 7F060000 		.4byte	.LASF11
 2373 008e 03       		.byte	0x3
 2374 008f 41       		.byte	0x41
 2375 0090 94000000 		.4byte	0x94
 2376 0094 04       		.uleb128 0x4
 2377 0095 04       		.byte	0x4
 2378 0096 07       		.byte	0x7
 2379 0097 FC050000 		.4byte	.LASF12
 2380 009b 04       		.uleb128 0x4
 2381 009c 08       		.byte	0x8
 2382 009d 05       		.byte	0x5
 2383 009e D6000000 		.4byte	.LASF13
 2384 00a2 03       		.uleb128 0x3
 2385 00a3 80010000 		.4byte	.LASF14
 2386 00a7 03       		.byte	0x3
 2387 00a8 5B       		.byte	0x5b
 2388 00a9 AD000000 		.4byte	0xad
 2389 00ad 04       		.uleb128 0x4
 2390 00ae 08       		.byte	0x8
 2391 00af 07       		.byte	0x7
 2392 00b0 4B000000 		.4byte	.LASF15
 2393 00b4 03       		.uleb128 0x3
 2394 00b5 31070000 		.4byte	.LASF16
 2395 00b9 04       		.byte	0x4
 2396 00ba 15       		.byte	0x15
 2397 00bb 41000000 		.4byte	0x41
 2398 00bf 03       		.uleb128 0x3
 2399 00c0 CE000000 		.4byte	.LASF17
 2400 00c4 04       		.byte	0x4
 2401 00c5 20       		.byte	0x20
 2402 00c6 53000000 		.4byte	0x53
 2403 00ca 03       		.uleb128 0x3
 2404 00cb AB020000 		.4byte	.LASF18
 2405 00cf 04       		.byte	0x4
 2406 00d0 21       		.byte	0x21
 2407 00d1 65000000 		.4byte	0x65
 2408 00d5 03       		.uleb128 0x3
 2409 00d6 3A050000 		.4byte	.LASF19
 2410 00da 04       		.byte	0x4
 2411 00db 2C       		.byte	0x2c
 2412 00dc 77000000 		.4byte	0x77
 2413 00e0 03       		.uleb128 0x3
 2414 00e1 D9050000 		.4byte	.LASF20
 2415 00e5 04       		.byte	0x4
 2416 00e6 2D       		.byte	0x2d
ARM GAS  /tmp/ccihpvPa.s 			page 44


 2417 00e7 89000000 		.4byte	0x89
 2418 00eb 03       		.uleb128 0x3
 2419 00ec 15000000 		.4byte	.LASF21
 2420 00f0 04       		.byte	0x4
 2421 00f1 39       		.byte	0x39
 2422 00f2 A2000000 		.4byte	0xa2
 2423 00f6 03       		.uleb128 0x3
 2424 00f7 FD000000 		.4byte	.LASF22
 2425 00fb 05       		.byte	0x5
 2426 00fc 2B       		.byte	0x2b
 2427 00fd 01010000 		.4byte	0x101
 2428 0101 04       		.uleb128 0x4
 2429 0102 01       		.byte	0x1
 2430 0103 02       		.byte	0x2
 2431 0104 34050000 		.4byte	.LASF23
 2432 0108 03       		.uleb128 0x3
 2433 0109 A3020000 		.4byte	.LASF24
 2434 010d 05       		.byte	0x5
 2435 010e 2C       		.byte	0x2c
 2436 010f B4000000 		.4byte	0xb4
 2437 0113 03       		.uleb128 0x3
 2438 0114 36010000 		.4byte	.LASF25
 2439 0118 05       		.byte	0x5
 2440 0119 2D       		.byte	0x2d
 2441 011a B4000000 		.4byte	0xb4
 2442 011e 03       		.uleb128 0x3
 2443 011f F3040000 		.4byte	.LASF26
 2444 0123 05       		.byte	0x5
 2445 0124 2E       		.byte	0x2e
 2446 0125 B4000000 		.4byte	0xb4
 2447 0129 03       		.uleb128 0x3
 2448 012a 15010000 		.4byte	.LASF27
 2449 012e 05       		.byte	0x5
 2450 012f 2F       		.byte	0x2f
 2451 0130 B4000000 		.4byte	0xb4
 2452 0134 03       		.uleb128 0x3
 2453 0135 24050000 		.4byte	.LASF28
 2454 0139 05       		.byte	0x5
 2455 013a 30       		.byte	0x30
 2456 013b E0000000 		.4byte	0xe0
 2457 013f 03       		.uleb128 0x3
 2458 0140 81020000 		.4byte	.LASF29
 2459 0144 05       		.byte	0x5
 2460 0145 31       		.byte	0x31
 2461 0146 D5000000 		.4byte	0xd5
 2462 014a 03       		.uleb128 0x3
 2463 014b CE020000 		.4byte	.LASF30
 2464 014f 05       		.byte	0x5
 2465 0150 33       		.byte	0x33
 2466 0151 E0000000 		.4byte	0xe0
 2467 0155 03       		.uleb128 0x3
 2468 0156 56060000 		.4byte	.LASF31
 2469 015a 05       		.byte	0x5
 2470 015b 35       		.byte	0x35
 2471 015c E0000000 		.4byte	0xe0
 2472 0160 03       		.uleb128 0x3
 2473 0161 0B020000 		.4byte	.LASF32
ARM GAS  /tmp/ccihpvPa.s 			page 45


 2474 0165 05       		.byte	0x5
 2475 0166 36       		.byte	0x36
 2476 0167 D5000000 		.4byte	0xd5
 2477 016b 03       		.uleb128 0x3
 2478 016c BB050000 		.4byte	.LASF33
 2479 0170 06       		.byte	0x6
 2480 0171 2A       		.byte	0x2a
 2481 0172 76010000 		.4byte	0x176
 2482 0176 05       		.uleb128 0x5
 2483 0177 BB050000 		.4byte	.LASF33
 2484 017b 4C       		.byte	0x4c
 2485 017c 07       		.byte	0x7
 2486 017d 5E       		.byte	0x5e
 2487 017e 7F020000 		.4byte	0x27f
 2488 0182 06       		.uleb128 0x6
 2489 0183 A1050000 		.4byte	.LASF34
 2490 0187 07       		.byte	0x7
 2491 0188 5F       		.byte	0x5f
 2492 0189 A0020000 		.4byte	0x2a0
 2493 018d 00       		.byte	0
 2494 018e 06       		.uleb128 0x6
 2495 018f 1D050000 		.4byte	.LASF35
 2496 0193 07       		.byte	0x7
 2497 0194 61       		.byte	0x61
 2498 0195 A0020000 		.4byte	0x2a0
 2499 0199 04       		.byte	0x4
 2500 019a 06       		.uleb128 0x6
 2501 019b AA000000 		.4byte	.LASF36
 2502 019f 07       		.byte	0x7
 2503 01a0 63       		.byte	0x63
 2504 01a1 34010000 		.4byte	0x134
 2505 01a5 08       		.byte	0x8
 2506 01a6 06       		.uleb128 0x6
 2507 01a7 A9070000 		.4byte	.LASF37
 2508 01ab 07       		.byte	0x7
 2509 01ac 64       		.byte	0x64
 2510 01ad 35040000 		.4byte	0x435
 2511 01b1 0C       		.byte	0xc
 2512 01b2 06       		.uleb128 0x6
 2513 01b3 78010000 		.4byte	.LASF38
 2514 01b7 07       		.byte	0x7
 2515 01b8 66       		.byte	0x66
 2516 01b9 A0020000 		.4byte	0x2a0
 2517 01bd 10       		.byte	0x10
 2518 01be 06       		.uleb128 0x6
 2519 01bf 72040000 		.4byte	.LASF39
 2520 01c3 07       		.byte	0x7
 2521 01c4 67       		.byte	0x67
 2522 01c5 A0020000 		.4byte	0x2a0
 2523 01c9 14       		.byte	0x14
 2524 01ca 06       		.uleb128 0x6
 2525 01cb 1E070000 		.4byte	.LASF40
 2526 01cf 07       		.byte	0x7
 2527 01d0 6E       		.byte	0x6e
 2528 01d1 1F050000 		.4byte	0x51f
 2529 01d5 18       		.byte	0x18
 2530 01d6 06       		.uleb128 0x6
ARM GAS  /tmp/ccihpvPa.s 			page 46


 2531 01d7 11020000 		.4byte	.LASF41
 2532 01db 07       		.byte	0x7
 2533 01dc 74       		.byte	0x74
 2534 01dd 31050000 		.4byte	0x531
 2535 01e1 1C       		.byte	0x1c
 2536 01e2 06       		.uleb128 0x6
 2537 01e3 7D050000 		.4byte	.LASF42
 2538 01e7 07       		.byte	0x7
 2539 01e8 79       		.byte	0x79
 2540 01e9 13010000 		.4byte	0x113
 2541 01ed 20       		.byte	0x20
 2542 01ee 06       		.uleb128 0x6
 2543 01ef 69070000 		.4byte	.LASF43
 2544 01f3 07       		.byte	0x7
 2545 01f4 7D       		.byte	0x7d
 2546 01f5 08010000 		.4byte	0x108
 2547 01f9 21       		.byte	0x21
 2548 01fa 06       		.uleb128 0x6
 2549 01fb 25070000 		.4byte	.LASF44
 2550 01ff 07       		.byte	0x7
 2551 0200 82       		.byte	0x82
 2552 0201 1E010000 		.4byte	0x11e
 2553 0205 22       		.byte	0x22
 2554 0206 06       		.uleb128 0x6
 2555 0207 90050000 		.4byte	.LASF45
 2556 020b 07       		.byte	0x7
 2557 020c 88       		.byte	0x88
 2558 020d 29010000 		.4byte	0x129
 2559 0211 23       		.byte	0x23
 2560 0212 06       		.uleb128 0x6
 2561 0213 49020000 		.4byte	.LASF46
 2562 0217 07       		.byte	0x7
 2563 0218 8F       		.byte	0x8f
 2564 0219 73040000 		.4byte	0x473
 2565 021d 24       		.byte	0x24
 2566 021e 07       		.uleb128 0x7
 2567 021f 705F7500 		.ascii	"p_u\000"
 2568 0223 07       		.byte	0x7
 2569 0224 B4       		.byte	0xb4
 2570 0225 EA040000 		.4byte	0x4ea
 2571 0229 28       		.byte	0x28
 2572 022a 06       		.uleb128 0x6
 2573 022b AF070000 		.4byte	.LASF47
 2574 022f 07       		.byte	0x7
 2575 0230 B9       		.byte	0xb9
 2576 0231 C6020000 		.4byte	0x2c6
 2577 0235 2C       		.byte	0x2c
 2578 0236 06       		.uleb128 0x6
 2579 0237 50020000 		.4byte	.LASF48
 2580 023b 07       		.byte	0x7
 2581 023c BF       		.byte	0xbf
 2582 023d A6020000 		.4byte	0x2a6
 2583 0241 30       		.byte	0x30
 2584 0242 06       		.uleb128 0x6
 2585 0243 7A070000 		.4byte	.LASF49
 2586 0247 07       		.byte	0x7
 2587 0248 C3       		.byte	0xc3
ARM GAS  /tmp/ccihpvPa.s 			page 47


 2588 0249 3F010000 		.4byte	0x13f
 2589 024d 38       		.byte	0x38
 2590 024e 06       		.uleb128 0x6
 2591 024f C9050000 		.4byte	.LASF50
 2592 0253 07       		.byte	0x7
 2593 0254 C9       		.byte	0xc9
 2594 0255 4A010000 		.4byte	0x14a
 2595 0259 3C       		.byte	0x3c
 2596 025a 06       		.uleb128 0x6
 2597 025b 69050000 		.4byte	.LASF51
 2598 025f 07       		.byte	0x7
 2599 0260 D0       		.byte	0xd0
 2600 0261 37050000 		.4byte	0x537
 2601 0265 40       		.byte	0x40
 2602 0266 06       		.uleb128 0x6
 2603 0267 8F020000 		.4byte	.LASF52
 2604 026b 07       		.byte	0x7
 2605 026c D4       		.byte	0xd4
 2606 026d 34010000 		.4byte	0x134
 2607 0271 44       		.byte	0x44
 2608 0272 06       		.uleb128 0x6
 2609 0273 F5000000 		.4byte	.LASF53
 2610 0277 07       		.byte	0x7
 2611 0278 DA       		.byte	0xda
 2612 0279 DC020000 		.4byte	0x2dc
 2613 027d 48       		.byte	0x48
 2614 027e 00       		.byte	0
 2615 027f 08       		.uleb128 0x8
 2616 0280 08       		.byte	0x8
 2617 0281 06       		.byte	0x6
 2618 0282 61       		.byte	0x61
 2619 0283 A0020000 		.4byte	0x2a0
 2620 0287 06       		.uleb128 0x6
 2621 0288 A1050000 		.4byte	.LASF34
 2622 028c 06       		.byte	0x6
 2623 028d 62       		.byte	0x62
 2624 028e A0020000 		.4byte	0x2a0
 2625 0292 00       		.byte	0
 2626 0293 06       		.uleb128 0x6
 2627 0294 1D050000 		.4byte	.LASF35
 2628 0298 06       		.byte	0x6
 2629 0299 64       		.byte	0x64
 2630 029a A0020000 		.4byte	0x2a0
 2631 029e 04       		.byte	0x4
 2632 029f 00       		.byte	0
 2633 02a0 09       		.uleb128 0x9
 2634 02a1 04       		.byte	0x4
 2635 02a2 6B010000 		.4byte	0x16b
 2636 02a6 03       		.uleb128 0x3
 2637 02a7 87040000 		.4byte	.LASF54
 2638 02ab 06       		.byte	0x6
 2639 02ac 66       		.byte	0x66
 2640 02ad 7F020000 		.4byte	0x27f
 2641 02b1 08       		.uleb128 0x8
 2642 02b2 04       		.byte	0x4
 2643 02b3 06       		.byte	0x6
 2644 02b4 6B       		.byte	0x6b
ARM GAS  /tmp/ccihpvPa.s 			page 48


 2645 02b5 C6020000 		.4byte	0x2c6
 2646 02b9 06       		.uleb128 0x6
 2647 02ba A1050000 		.4byte	.LASF34
 2648 02be 06       		.byte	0x6
 2649 02bf 6D       		.byte	0x6d
 2650 02c0 A0020000 		.4byte	0x2a0
 2651 02c4 00       		.byte	0
 2652 02c5 00       		.byte	0
 2653 02c6 03       		.uleb128 0x3
 2654 02c7 B4020000 		.4byte	.LASF55
 2655 02cb 06       		.byte	0x6
 2656 02cc 70       		.byte	0x70
 2657 02cd B1020000 		.4byte	0x2b1
 2658 02d1 03       		.uleb128 0x3
 2659 02d2 CC010000 		.4byte	.LASF56
 2660 02d6 08       		.byte	0x8
 2661 02d7 E5       		.byte	0xe5
 2662 02d8 DC020000 		.4byte	0x2dc
 2663 02dc 0A       		.uleb128 0xa
 2664 02dd 04       		.byte	0x4
 2665 02de 03       		.uleb128 0x3
 2666 02df EA020000 		.4byte	.LASF57
 2667 02e3 08       		.byte	0x8
 2668 02e4 EB       		.byte	0xeb
 2669 02e5 EB000000 		.4byte	0xeb
 2670 02e9 0B       		.uleb128 0xb
 2671 02ea AE060000 		.4byte	.LASF58
 2672 02ee 64       		.byte	0x64
 2673 02ef 08       		.byte	0x8
 2674 02f0 0C01     		.2byte	0x10c
 2675 02f2 35040000 		.4byte	0x435
 2676 02f6 0C       		.uleb128 0xc
 2677 02f7 73313600 		.ascii	"s16\000"
 2678 02fb 08       		.byte	0x8
 2679 02fc 0E01     		.2byte	0x10e
 2680 02fe D1020000 		.4byte	0x2d1
 2681 0302 00       		.byte	0
 2682 0303 0C       		.uleb128 0xc
 2683 0304 73313700 		.ascii	"s17\000"
 2684 0308 08       		.byte	0x8
 2685 0309 0F01     		.2byte	0x10f
 2686 030b D1020000 		.4byte	0x2d1
 2687 030f 04       		.byte	0x4
 2688 0310 0C       		.uleb128 0xc
 2689 0311 73313800 		.ascii	"s18\000"
 2690 0315 08       		.byte	0x8
 2691 0316 1001     		.2byte	0x110
 2692 0318 D1020000 		.4byte	0x2d1
 2693 031c 08       		.byte	0x8
 2694 031d 0C       		.uleb128 0xc
 2695 031e 73313900 		.ascii	"s19\000"
 2696 0322 08       		.byte	0x8
 2697 0323 1101     		.2byte	0x111
 2698 0325 D1020000 		.4byte	0x2d1
 2699 0329 0C       		.byte	0xc
 2700 032a 0C       		.uleb128 0xc
 2701 032b 73323000 		.ascii	"s20\000"
ARM GAS  /tmp/ccihpvPa.s 			page 49


 2702 032f 08       		.byte	0x8
 2703 0330 1201     		.2byte	0x112
 2704 0332 D1020000 		.4byte	0x2d1
 2705 0336 10       		.byte	0x10
 2706 0337 0C       		.uleb128 0xc
 2707 0338 73323100 		.ascii	"s21\000"
 2708 033c 08       		.byte	0x8
 2709 033d 1301     		.2byte	0x113
 2710 033f D1020000 		.4byte	0x2d1
 2711 0343 14       		.byte	0x14
 2712 0344 0C       		.uleb128 0xc
 2713 0345 73323200 		.ascii	"s22\000"
 2714 0349 08       		.byte	0x8
 2715 034a 1401     		.2byte	0x114
 2716 034c D1020000 		.4byte	0x2d1
 2717 0350 18       		.byte	0x18
 2718 0351 0C       		.uleb128 0xc
 2719 0352 73323300 		.ascii	"s23\000"
 2720 0356 08       		.byte	0x8
 2721 0357 1501     		.2byte	0x115
 2722 0359 D1020000 		.4byte	0x2d1
 2723 035d 1C       		.byte	0x1c
 2724 035e 0C       		.uleb128 0xc
 2725 035f 73323400 		.ascii	"s24\000"
 2726 0363 08       		.byte	0x8
 2727 0364 1601     		.2byte	0x116
 2728 0366 D1020000 		.4byte	0x2d1
 2729 036a 20       		.byte	0x20
 2730 036b 0C       		.uleb128 0xc
 2731 036c 73323500 		.ascii	"s25\000"
 2732 0370 08       		.byte	0x8
 2733 0371 1701     		.2byte	0x117
 2734 0373 D1020000 		.4byte	0x2d1
 2735 0377 24       		.byte	0x24
 2736 0378 0C       		.uleb128 0xc
 2737 0379 73323600 		.ascii	"s26\000"
 2738 037d 08       		.byte	0x8
 2739 037e 1801     		.2byte	0x118
 2740 0380 D1020000 		.4byte	0x2d1
 2741 0384 28       		.byte	0x28
 2742 0385 0C       		.uleb128 0xc
 2743 0386 73323700 		.ascii	"s27\000"
 2744 038a 08       		.byte	0x8
 2745 038b 1901     		.2byte	0x119
 2746 038d D1020000 		.4byte	0x2d1
 2747 0391 2C       		.byte	0x2c
 2748 0392 0C       		.uleb128 0xc
 2749 0393 73323800 		.ascii	"s28\000"
 2750 0397 08       		.byte	0x8
 2751 0398 1A01     		.2byte	0x11a
 2752 039a D1020000 		.4byte	0x2d1
 2753 039e 30       		.byte	0x30
 2754 039f 0C       		.uleb128 0xc
 2755 03a0 73323900 		.ascii	"s29\000"
 2756 03a4 08       		.byte	0x8
 2757 03a5 1B01     		.2byte	0x11b
 2758 03a7 D1020000 		.4byte	0x2d1
ARM GAS  /tmp/ccihpvPa.s 			page 50


 2759 03ab 34       		.byte	0x34
 2760 03ac 0C       		.uleb128 0xc
 2761 03ad 73333000 		.ascii	"s30\000"
 2762 03b1 08       		.byte	0x8
 2763 03b2 1C01     		.2byte	0x11c
 2764 03b4 D1020000 		.4byte	0x2d1
 2765 03b8 38       		.byte	0x38
 2766 03b9 0C       		.uleb128 0xc
 2767 03ba 73333100 		.ascii	"s31\000"
 2768 03be 08       		.byte	0x8
 2769 03bf 1D01     		.2byte	0x11d
 2770 03c1 D1020000 		.4byte	0x2d1
 2771 03c5 3C       		.byte	0x3c
 2772 03c6 0C       		.uleb128 0xc
 2773 03c7 723400   		.ascii	"r4\000"
 2774 03ca 08       		.byte	0x8
 2775 03cb 1F01     		.2byte	0x11f
 2776 03cd D1020000 		.4byte	0x2d1
 2777 03d1 40       		.byte	0x40
 2778 03d2 0C       		.uleb128 0xc
 2779 03d3 723500   		.ascii	"r5\000"
 2780 03d6 08       		.byte	0x8
 2781 03d7 2001     		.2byte	0x120
 2782 03d9 D1020000 		.4byte	0x2d1
 2783 03dd 44       		.byte	0x44
 2784 03de 0C       		.uleb128 0xc
 2785 03df 723600   		.ascii	"r6\000"
 2786 03e2 08       		.byte	0x8
 2787 03e3 2101     		.2byte	0x121
 2788 03e5 D1020000 		.4byte	0x2d1
 2789 03e9 48       		.byte	0x48
 2790 03ea 0C       		.uleb128 0xc
 2791 03eb 723700   		.ascii	"r7\000"
 2792 03ee 08       		.byte	0x8
 2793 03ef 2201     		.2byte	0x122
 2794 03f1 D1020000 		.4byte	0x2d1
 2795 03f5 4C       		.byte	0x4c
 2796 03f6 0C       		.uleb128 0xc
 2797 03f7 723800   		.ascii	"r8\000"
 2798 03fa 08       		.byte	0x8
 2799 03fb 2301     		.2byte	0x123
 2800 03fd D1020000 		.4byte	0x2d1
 2801 0401 50       		.byte	0x50
 2802 0402 0C       		.uleb128 0xc
 2803 0403 723900   		.ascii	"r9\000"
 2804 0406 08       		.byte	0x8
 2805 0407 2401     		.2byte	0x124
 2806 0409 D1020000 		.4byte	0x2d1
 2807 040d 54       		.byte	0x54
 2808 040e 0C       		.uleb128 0xc
 2809 040f 72313000 		.ascii	"r10\000"
 2810 0413 08       		.byte	0x8
 2811 0414 2501     		.2byte	0x125
 2812 0416 D1020000 		.4byte	0x2d1
 2813 041a 58       		.byte	0x58
 2814 041b 0C       		.uleb128 0xc
 2815 041c 72313100 		.ascii	"r11\000"
ARM GAS  /tmp/ccihpvPa.s 			page 51


 2816 0420 08       		.byte	0x8
 2817 0421 2601     		.2byte	0x126
 2818 0423 D1020000 		.4byte	0x2d1
 2819 0427 5C       		.byte	0x5c
 2820 0428 0C       		.uleb128 0xc
 2821 0429 6C7200   		.ascii	"lr\000"
 2822 042c 08       		.byte	0x8
 2823 042d 2701     		.2byte	0x127
 2824 042f D1020000 		.4byte	0x2d1
 2825 0433 60       		.byte	0x60
 2826 0434 00       		.byte	0
 2827 0435 0B       		.uleb128 0xb
 2828 0436 91060000 		.4byte	.LASF59
 2829 043a 04       		.byte	0x4
 2830 043b 08       		.byte	0x8
 2831 043c 3101     		.2byte	0x131
 2832 043e 50040000 		.4byte	0x450
 2833 0442 0C       		.uleb128 0xc
 2834 0443 72313300 		.ascii	"r13\000"
 2835 0447 08       		.byte	0x8
 2836 0448 3201     		.2byte	0x132
 2837 044a 50040000 		.4byte	0x450
 2838 044e 00       		.byte	0
 2839 044f 00       		.byte	0
 2840 0450 09       		.uleb128 0x9
 2841 0451 04       		.byte	0x4
 2842 0452 E9020000 		.4byte	0x2e9
 2843 0456 0D       		.uleb128 0xd
 2844 0457 B4000000 		.4byte	0xb4
 2845 045b 04       		.uleb128 0x4
 2846 045c 04       		.byte	0x4
 2847 045d 07       		.byte	0x7
 2848 045e 31030000 		.4byte	.LASF60
 2849 0462 09       		.uleb128 0x9
 2850 0463 04       		.byte	0x4
 2851 0464 68040000 		.4byte	0x468
 2852 0468 0E       		.uleb128 0xe
 2853 0469 73040000 		.4byte	0x473
 2854 046d 0F       		.uleb128 0xf
 2855 046e DC020000 		.4byte	0x2dc
 2856 0472 00       		.byte	0
 2857 0473 0D       		.uleb128 0xd
 2858 0474 55010000 		.4byte	0x155
 2859 0478 05       		.uleb128 0x5
 2860 0479 F3060000 		.4byte	.LASF61
 2861 047d 0C       		.byte	0xc
 2862 047e 09       		.byte	0x9
 2863 047f 2C       		.byte	0x2c
 2864 0480 9D040000 		.4byte	0x49d
 2865 0484 06       		.uleb128 0x6
 2866 0485 8B010000 		.4byte	.LASF62
 2867 0489 09       		.byte	0x9
 2868 048a 2D       		.byte	0x2d
 2869 048b A6020000 		.4byte	0x2a6
 2870 048f 00       		.byte	0
 2871 0490 06       		.uleb128 0x6
 2872 0491 63050000 		.4byte	.LASF63
ARM GAS  /tmp/ccihpvPa.s 			page 52


 2873 0495 09       		.byte	0x9
 2874 0496 2F       		.byte	0x2f
 2875 0497 60010000 		.4byte	0x160
 2876 049b 08       		.byte	0x8
 2877 049c 00       		.byte	0
 2878 049d 03       		.uleb128 0x3
 2879 049e F3060000 		.4byte	.LASF61
 2880 04a2 09       		.byte	0x9
 2881 04a3 30       		.byte	0x30
 2882 04a4 78040000 		.4byte	0x478
 2883 04a8 05       		.uleb128 0x5
 2884 04a9 4F040000 		.4byte	.LASF64
 2885 04ad 10       		.byte	0x10
 2886 04ae 0A       		.byte	0xa
 2887 04af 2C       		.byte	0x2c
 2888 04b0 D9040000 		.4byte	0x4d9
 2889 04b4 06       		.uleb128 0x6
 2890 04b5 04010000 		.4byte	.LASF65
 2891 04b9 0A       		.byte	0xa
 2892 04ba 2D       		.byte	0x2d
 2893 04bb A6020000 		.4byte	0x2a6
 2894 04bf 00       		.byte	0
 2895 04c0 06       		.uleb128 0x6
 2896 04c1 A1070000 		.4byte	.LASF66
 2897 04c5 0A       		.byte	0xa
 2898 04c6 2F       		.byte	0x2f
 2899 04c7 A0020000 		.4byte	0x2a0
 2900 04cb 08       		.byte	0x8
 2901 04cc 06       		.uleb128 0x6
 2902 04cd 94040000 		.4byte	.LASF67
 2903 04d1 0A       		.byte	0xa
 2904 04d2 31       		.byte	0x31
 2905 04d3 D9040000 		.4byte	0x4d9
 2906 04d7 0C       		.byte	0xc
 2907 04d8 00       		.byte	0
 2908 04d9 09       		.uleb128 0x9
 2909 04da 04       		.byte	0x4
 2910 04db A8040000 		.4byte	0x4a8
 2911 04df 03       		.uleb128 0x3
 2912 04e0 4F040000 		.4byte	.LASF64
 2913 04e4 0A       		.byte	0xa
 2914 04e5 33       		.byte	0x33
 2915 04e6 A8040000 		.4byte	0x4a8
 2916 04ea 10       		.uleb128 0x10
 2917 04eb 04       		.byte	0x4
 2918 04ec 07       		.byte	0x7
 2919 04ed 96       		.byte	0x96
 2920 04ee 1F050000 		.4byte	0x51f
 2921 04f2 11       		.uleb128 0x11
 2922 04f3 0E000000 		.4byte	.LASF68
 2923 04f7 07       		.byte	0x7
 2924 04f8 9D       		.byte	0x9d
 2925 04f9 3F010000 		.4byte	0x13f
 2926 04fd 11       		.uleb128 0x11
 2927 04fe 7A000000 		.4byte	.LASF69
 2928 0502 07       		.byte	0x7
 2929 0503 A4       		.byte	0xa4
ARM GAS  /tmp/ccihpvPa.s 			page 53


 2930 0504 3F010000 		.4byte	0x13f
 2931 0508 11       		.uleb128 0x11
 2932 0509 4D070000 		.4byte	.LASF70
 2933 050d 07       		.byte	0x7
 2934 050e AB       		.byte	0xab
 2935 050f DC020000 		.4byte	0x2dc
 2936 0513 11       		.uleb128 0x11
 2937 0514 9A050000 		.4byte	.LASF71
 2938 0518 07       		.byte	0x7
 2939 0519 B2       		.byte	0xb2
 2940 051a 4A010000 		.4byte	0x14a
 2941 051e 00       		.byte	0
 2942 051f 09       		.uleb128 0x9
 2943 0520 04       		.byte	0x4
 2944 0521 25050000 		.4byte	0x525
 2945 0525 12       		.uleb128 0x12
 2946 0526 2A050000 		.4byte	0x52a
 2947 052a 04       		.uleb128 0x4
 2948 052b 01       		.byte	0x1
 2949 052c 08       		.byte	0x8
 2950 052d 20060000 		.4byte	.LASF72
 2951 0531 09       		.uleb128 0x9
 2952 0532 04       		.byte	0x4
 2953 0533 DE020000 		.4byte	0x2de
 2954 0537 09       		.uleb128 0x9
 2955 0538 04       		.byte	0x4
 2956 0539 DF040000 		.4byte	0x4df
 2957 053d 0D       		.uleb128 0xd
 2958 053e D5000000 		.4byte	0xd5
 2959 0542 03       		.uleb128 0x3
 2960 0543 3F010000 		.4byte	.LASF73
 2961 0547 0B       		.byte	0xb
 2962 0548 2F       		.byte	0x2f
 2963 0549 55010000 		.4byte	0x155
 2964 054d 03       		.uleb128 0x3
 2965 054e C1010000 		.4byte	.LASF74
 2966 0552 0B       		.byte	0xb
 2967 0553 30       		.byte	0x30
 2968 0554 60010000 		.4byte	0x160
 2969 0558 08       		.uleb128 0x8
 2970 0559 10       		.byte	0x10
 2971 055a 0B       		.byte	0xb
 2972 055b 3D       		.byte	0x3d
 2973 055c 79050000 		.4byte	0x579
 2974 0560 07       		.uleb128 0x7
 2975 0561 73656D00 		.ascii	"sem\000"
 2976 0565 0B       		.byte	0xb
 2977 0566 3E       		.byte	0x3e
 2978 0567 9D040000 		.4byte	0x49d
 2979 056b 00       		.byte	0
 2980 056c 06       		.uleb128 0x6
 2981 056d 92000000 		.4byte	.LASF75
 2982 0571 0B       		.byte	0xb
 2983 0572 3F       		.byte	0x3f
 2984 0573 4D050000 		.4byte	0x54d
 2985 0577 0C       		.byte	0xc
 2986 0578 00       		.byte	0
ARM GAS  /tmp/ccihpvPa.s 			page 54


 2987 0579 03       		.uleb128 0x3
 2988 057a C2050000 		.4byte	.LASF76
 2989 057e 0B       		.byte	0xb
 2990 057f 40       		.byte	0x40
 2991 0580 58050000 		.4byte	0x558
 2992 0584 05       		.uleb128 0x5
 2993 0585 B9070000 		.4byte	.LASF77
 2994 0589 04       		.byte	0x4
 2995 058a 0C       		.byte	0xc
 2996 058b 28       		.byte	0x28
 2997 058c 9D050000 		.4byte	0x59d
 2998 0590 06       		.uleb128 0x6
 2999 0591 A5000000 		.4byte	.LASF78
 3000 0595 0C       		.byte	0xc
 3001 0596 29       		.byte	0x29
 3002 0597 9D050000 		.4byte	0x59d
 3003 059b 00       		.byte	0
 3004 059c 00       		.byte	0
 3005 059d 09       		.uleb128 0x9
 3006 059e 04       		.byte	0x4
 3007 059f 84050000 		.4byte	0x584
 3008 05a3 03       		.uleb128 0x3
 3009 05a4 B9070000 		.4byte	.LASF77
 3010 05a8 0C       		.byte	0xc
 3011 05a9 2A       		.byte	0x2a
 3012 05aa 84050000 		.4byte	0x584
 3013 05ae 05       		.uleb128 0x5
 3014 05af 39070000 		.4byte	.LASF79
 3015 05b3 08       		.byte	0x8
 3016 05b4 0C       		.byte	0xc
 3017 05b5 36       		.byte	0x36
 3018 05b6 D3050000 		.4byte	0x5d3
 3019 05ba 06       		.uleb128 0x6
 3020 05bb D4050000 		.4byte	.LASF80
 3021 05bf 0C       		.byte	0xc
 3022 05c0 37       		.byte	0x37
 3023 05c1 D3050000 		.4byte	0x5d3
 3024 05c5 00       		.byte	0
 3025 05c6 06       		.uleb128 0x6
 3026 05c7 2C030000 		.4byte	.LASF81
 3027 05cb 0C       		.byte	0xc
 3028 05cc 38       		.byte	0x38
 3029 05cd D3050000 		.4byte	0x5d3
 3030 05d1 04       		.byte	0x4
 3031 05d2 00       		.byte	0
 3032 05d3 09       		.uleb128 0x9
 3033 05d4 04       		.byte	0x4
 3034 05d5 A3050000 		.4byte	0x5a3
 3035 05d9 03       		.uleb128 0x3
 3036 05da 39070000 		.4byte	.LASF79
 3037 05de 0C       		.byte	0xc
 3038 05df 39       		.byte	0x39
 3039 05e0 AE050000 		.4byte	0x5ae
 3040 05e4 03       		.uleb128 0x3
 3041 05e5 B2010000 		.4byte	.LASF82
 3042 05e9 0D       		.byte	0xd
 3043 05ea 2F       		.byte	0x2f
ARM GAS  /tmp/ccihpvPa.s 			page 55


 3044 05eb 62040000 		.4byte	0x462
 3045 05ef 05       		.uleb128 0x5
 3046 05f0 71070000 		.4byte	.LASF83
 3047 05f4 1C       		.byte	0x1c
 3048 05f5 0D       		.byte	0xd
 3049 05f6 34       		.byte	0x34
 3050 05f7 4F060000 		.4byte	0x64f
 3051 05fb 07       		.uleb128 0x7
 3052 05fc 666E00   		.ascii	"fn\000"
 3053 05ff 0D       		.byte	0xd
 3054 0600 35       		.byte	0x35
 3055 0601 E4050000 		.4byte	0x5e4
 3056 0605 00       		.byte	0
 3057 0606 06       		.uleb128 0x6
 3058 0607 6C040000 		.4byte	.LASF84
 3059 060b 0D       		.byte	0xd
 3060 060c 36       		.byte	0x36
 3061 060d DC020000 		.4byte	0x2dc
 3062 0611 04       		.byte	0x4
 3063 0612 06       		.uleb128 0x6
 3064 0613 70020000 		.4byte	.LASF85
 3065 0617 0D       		.byte	0xd
 3066 0618 37       		.byte	0x37
 3067 0619 42050000 		.4byte	0x542
 3068 061d 08       		.byte	0x8
 3069 061e 06       		.uleb128 0x6
 3070 061f 32000000 		.4byte	.LASF86
 3071 0623 0D       		.byte	0xd
 3072 0624 38       		.byte	0x38
 3073 0625 42050000 		.4byte	0x542
 3074 0629 0C       		.byte	0xc
 3075 062a 06       		.uleb128 0x6
 3076 062b 47070000 		.4byte	.LASF87
 3077 062f 0D       		.byte	0xd
 3078 0630 39       		.byte	0x39
 3079 0631 CA000000 		.4byte	0xca
 3080 0635 10       		.byte	0x10
 3081 0636 06       		.uleb128 0x6
 3082 0637 A5000000 		.4byte	.LASF78
 3083 063b 0D       		.byte	0xd
 3084 063c 3A       		.byte	0x3a
 3085 063d 4F060000 		.4byte	0x64f
 3086 0641 14       		.byte	0x14
 3087 0642 06       		.uleb128 0x6
 3088 0643 09000000 		.4byte	.LASF88
 3089 0647 0D       		.byte	0xd
 3090 0648 3B       		.byte	0x3b
 3091 0649 4F060000 		.4byte	0x64f
 3092 064d 18       		.byte	0x18
 3093 064e 00       		.byte	0
 3094 064f 09       		.uleb128 0x9
 3095 0650 04       		.byte	0x4
 3096 0651 EF050000 		.4byte	0x5ef
 3097 0655 03       		.uleb128 0x3
 3098 0656 1B030000 		.4byte	.LASF89
 3099 065a 0D       		.byte	0xd
 3100 065b 3C       		.byte	0x3c
ARM GAS  /tmp/ccihpvPa.s 			page 56


 3101 065c EF050000 		.4byte	0x5ef
 3102 0660 03       		.uleb128 0x3
 3103 0661 9B040000 		.4byte	.LASF90
 3104 0665 0E       		.byte	0xe
 3105 0666 27       		.byte	0x27
 3106 0667 BF000000 		.4byte	0xbf
 3107 066b 03       		.uleb128 0x3
 3108 066c 16050000 		.4byte	.LASF91
 3109 0670 0E       		.byte	0xe
 3110 0671 3E       		.byte	0x3e
 3111 0672 76060000 		.4byte	0x676
 3112 0676 09       		.uleb128 0x9
 3113 0677 04       		.byte	0x4
 3114 0678 7C060000 		.4byte	0x67c
 3115 067c 12       		.uleb128 0x12
 3116 067d 81060000 		.4byte	0x681
 3117 0681 13       		.uleb128 0x13
 3118 0682 09030000 		.4byte	.LASF93
 3119 0686 03       		.uleb128 0x3
 3120 0687 9A020000 		.4byte	.LASF92
 3121 068b 0E       		.byte	0xe
 3122 068c 4D       		.byte	0x4d
 3123 068d 91060000 		.4byte	0x691
 3124 0691 13       		.uleb128 0x13
 3125 0692 9A020000 		.4byte	.LASF92
 3126 0696 14       		.uleb128 0x14
 3127 0697 13030000 		.4byte	.LASF94
 3128 069b 0F       		.byte	0xf
 3129 069c 9001     		.2byte	0x190
 3130 069e CA000000 		.4byte	0xca
 3131 06a2 09       		.uleb128 0x9
 3132 06a3 04       		.byte	0x4
 3133 06a4 A8060000 		.4byte	0x6a8
 3134 06a8 05       		.uleb128 0x5
 3135 06a9 99060000 		.4byte	.LASF95
 3136 06ad 20       		.byte	0x20
 3137 06ae 10       		.byte	0x10
 3138 06af 26       		.byte	0x26
 3139 06b0 35070000 		.4byte	0x735
 3140 06b4 07       		.uleb128 0x7
 3141 06b5 776D7100 		.ascii	"wmq\000"
 3142 06b9 10       		.byte	0x10
 3143 06ba 29       		.byte	0x29
 3144 06bb A3050000 		.4byte	0x5a3
 3145 06bf 00       		.byte	0
 3146 06c0 07       		.uleb128 0x7
 3147 06c1 766D7400 		.ascii	"vmt\000"
 3148 06c5 10       		.byte	0x10
 3149 06c6 2B       		.byte	0x2b
 3150 06c7 7E070000 		.4byte	0x77e
 3151 06cb 04       		.byte	0x4
 3152 06cc 06       		.uleb128 0x6
 3153 06cd 87020000 		.4byte	.LASF96
 3154 06d1 10       		.byte	0x10
 3155 06d2 2C       		.byte	0x2c
 3156 06d3 89070000 		.4byte	0x789
 3157 06d7 08       		.byte	0x8
ARM GAS  /tmp/ccihpvPa.s 			page 57


 3158 06d8 07       		.uleb128 0x7
 3159 06d9 7800     		.ascii	"x\000"
 3160 06db 10       		.byte	0x10
 3161 06dc 2D       		.byte	0x2d
 3162 06dd 60060000 		.4byte	0x660
 3163 06e1 0C       		.byte	0xc
 3164 06e2 07       		.uleb128 0x7
 3165 06e3 7900     		.ascii	"y\000"
 3166 06e5 10       		.byte	0x10
 3167 06e6 2D       		.byte	0x2d
 3168 06e7 60060000 		.4byte	0x660
 3169 06eb 0E       		.byte	0xe
 3170 06ec 06       		.uleb128 0x6
 3171 06ed 6A020000 		.4byte	.LASF97
 3172 06f1 10       		.byte	0x10
 3173 06f2 2E       		.byte	0x2e
 3174 06f3 60060000 		.4byte	0x660
 3175 06f7 10       		.byte	0x10
 3176 06f8 06       		.uleb128 0x6
 3177 06f9 89070000 		.4byte	.LASF98
 3178 06fd 10       		.byte	0x10
 3179 06fe 2E       		.byte	0x2e
 3180 06ff 60060000 		.4byte	0x660
 3181 0703 12       		.byte	0x12
 3182 0704 06       		.uleb128 0x6
 3183 0705 E4020000 		.4byte	.LASF99
 3184 0709 10       		.byte	0x10
 3185 070a 2F       		.byte	0x2f
 3186 070b 96060000 		.4byte	0x696
 3187 070f 14       		.byte	0x14
 3188 0710 06       		.uleb128 0x6
 3189 0711 FB040000 		.4byte	.LASF100
 3190 0715 10       		.byte	0x10
 3191 0716 2F       		.byte	0x2f
 3192 0717 96060000 		.4byte	0x696
 3193 071b 16       		.byte	0x16
 3194 071c 06       		.uleb128 0x6
 3195 071d 47070000 		.4byte	.LASF87
 3196 0721 10       		.byte	0x10
 3197 0722 30       		.byte	0x30
 3198 0723 E0000000 		.4byte	0xe0
 3199 0727 18       		.byte	0x18
 3200 0728 06       		.uleb128 0x6
 3201 0729 2C070000 		.4byte	.LASF101
 3202 072d 10       		.byte	0x10
 3203 072e 32       		.byte	0x32
 3204 072f 6B060000 		.4byte	0x66b
 3205 0733 1C       		.byte	0x1c
 3206 0734 00       		.byte	0
 3207 0735 05       		.uleb128 0x5
 3208 0736 F4050000 		.4byte	.LASF102
 3209 073a 14       		.byte	0x14
 3210 073b 11       		.byte	0x11
 3211 073c 3B       		.byte	0x3b
 3212 073d 7E070000 		.4byte	0x77e
 3213 0741 06       		.uleb128 0x6
 3214 0742 28000000 		.4byte	.LASF103
ARM GAS  /tmp/ccihpvPa.s 			page 58


 3215 0746 11       		.byte	0x11
 3216 0747 3C       		.byte	0x3c
 3217 0748 1F050000 		.4byte	0x51f
 3218 074c 00       		.byte	0
 3219 074d 06       		.uleb128 0x6
 3220 074e 75020000 		.4byte	.LASF104
 3221 0752 11       		.byte	0x11
 3222 0753 3D       		.byte	0x3d
 3223 0754 28000000 		.4byte	0x28
 3224 0758 04       		.byte	0x4
 3225 0759 06       		.uleb128 0x6
 3226 075a 0E060000 		.4byte	.LASF105
 3227 075e 11       		.byte	0x11
 3228 075f 3E       		.byte	0x3e
 3229 0760 21080000 		.4byte	0x821
 3230 0764 08       		.byte	0x8
 3231 0765 06       		.uleb128 0x6
 3232 0766 8A060000 		.4byte	.LASF106
 3233 076a 11       		.byte	0x11
 3234 076b 3F       		.byte	0x3f
 3235 076c 21080000 		.4byte	0x821
 3236 0770 0C       		.byte	0xc
 3237 0771 06       		.uleb128 0x6
 3238 0772 85050000 		.4byte	.LASF107
 3239 0776 11       		.byte	0x11
 3240 0777 40       		.byte	0x40
 3241 0778 21080000 		.4byte	0x821
 3242 077c 10       		.byte	0x10
 3243 077d 00       		.byte	0
 3244 077e 09       		.uleb128 0x9
 3245 077f 04       		.byte	0x4
 3246 0780 84070000 		.4byte	0x784
 3247 0784 12       		.uleb128 0x12
 3248 0785 35070000 		.4byte	0x735
 3249 0789 09       		.uleb128 0x9
 3250 078a 04       		.byte	0x4
 3251 078b 86060000 		.4byte	0x686
 3252 078f 03       		.uleb128 0x3
 3253 0790 99060000 		.4byte	.LASF95
 3254 0794 10       		.byte	0x10
 3255 0795 37       		.byte	0x37
 3256 0796 A8060000 		.4byte	0x6a8
 3257 079a 05       		.uleb128 0x5
 3258 079b D4040000 		.4byte	.LASF108
 3259 079f 0A       		.byte	0xa
 3260 07a0 10       		.byte	0x10
 3261 07a1 46       		.byte	0x46
 3262 07a2 DF070000 		.4byte	0x7df
 3263 07a6 07       		.uleb128 0x7
 3264 07a7 7800     		.ascii	"x\000"
 3265 07a9 10       		.byte	0x10
 3266 07aa 47       		.byte	0x47
 3267 07ab 60060000 		.4byte	0x660
 3268 07af 00       		.byte	0
 3269 07b0 07       		.uleb128 0x7
 3270 07b1 7900     		.ascii	"y\000"
 3271 07b3 10       		.byte	0x10
ARM GAS  /tmp/ccihpvPa.s 			page 59


 3272 07b4 47       		.byte	0x47
 3273 07b5 60060000 		.4byte	0x660
 3274 07b9 02       		.byte	0x2
 3275 07ba 06       		.uleb128 0x6
 3276 07bb 6A020000 		.4byte	.LASF97
 3277 07bf 10       		.byte	0x10
 3278 07c0 48       		.byte	0x48
 3279 07c1 60060000 		.4byte	0x660
 3280 07c5 04       		.byte	0x4
 3281 07c6 06       		.uleb128 0x6
 3282 07c7 89070000 		.4byte	.LASF98
 3283 07cb 10       		.byte	0x10
 3284 07cc 48       		.byte	0x48
 3285 07cd 60060000 		.4byte	0x660
 3286 07d1 06       		.byte	0x6
 3287 07d2 06       		.uleb128 0x6
 3288 07d3 F0000000 		.4byte	.LASF109
 3289 07d7 10       		.byte	0x10
 3290 07d8 49       		.byte	0x49
 3291 07d9 F6000000 		.4byte	0xf6
 3292 07dd 08       		.byte	0x8
 3293 07de 00       		.byte	0
 3294 07df 03       		.uleb128 0x3
 3295 07e0 D4040000 		.4byte	.LASF108
 3296 07e4 10       		.byte	0x10
 3297 07e5 4D       		.byte	0x4d
 3298 07e6 9A070000 		.4byte	0x79a
 3299 07ea 15       		.uleb128 0x15
 3300 07eb 01       		.byte	0x1
 3301 07ec 10       		.byte	0x10
 3302 07ed 53       		.byte	0x53
 3303 07ee 05080000 		.4byte	0x805
 3304 07f2 16       		.uleb128 0x16
 3305 07f3 E7060000 		.4byte	.LASF110
 3306 07f7 00       		.sleb128 0
 3307 07f8 16       		.uleb128 0x16
 3308 07f9 25060000 		.4byte	.LASF111
 3309 07fd 01       		.sleb128 1
 3310 07fe 16       		.uleb128 0x16
 3311 07ff B1000000 		.4byte	.LASF112
 3312 0803 02       		.sleb128 2
 3313 0804 00       		.byte	0
 3314 0805 03       		.uleb128 0x3
 3315 0806 29020000 		.4byte	.LASF113
 3316 080a 10       		.byte	0x10
 3317 080b 53       		.byte	0x53
 3318 080c EA070000 		.4byte	0x7ea
 3319 0810 0E       		.uleb128 0xe
 3320 0811 1B080000 		.4byte	0x81b
 3321 0815 0F       		.uleb128 0xf
 3322 0816 1B080000 		.4byte	0x81b
 3323 081a 00       		.byte	0
 3324 081b 09       		.uleb128 0x9
 3325 081c 04       		.byte	0x4
 3326 081d 8F070000 		.4byte	0x78f
 3327 0821 09       		.uleb128 0x9
 3328 0822 04       		.byte	0x4
ARM GAS  /tmp/ccihpvPa.s 			page 60


 3329 0823 10080000 		.4byte	0x810
 3330 0827 05       		.uleb128 0x5
 3331 0828 5B020000 		.4byte	.LASF114
 3332 082c 04       		.byte	0x4
 3333 082d 11       		.byte	0x11
 3334 082e 91       		.byte	0x91
 3335 082f 40080000 		.4byte	0x840
 3336 0833 07       		.uleb128 0x7
 3337 0834 766D7400 		.ascii	"vmt\000"
 3338 0838 11       		.byte	0x11
 3339 0839 92       		.byte	0x92
 3340 083a B9080000 		.4byte	0x8b9
 3341 083e 00       		.byte	0
 3342 083f 00       		.byte	0
 3343 0840 05       		.uleb128 0x5
 3344 0841 17070000 		.4byte	.LASF115
 3345 0845 24       		.byte	0x24
 3346 0846 11       		.byte	0x11
 3347 0847 99       		.byte	0x99
 3348 0848 B9080000 		.4byte	0x8b9
 3349 084c 06       		.uleb128 0x6
 3350 084d CF040000 		.4byte	.LASF116
 3351 0851 11       		.byte	0x11
 3352 0852 9A       		.byte	0x9a
 3353 0853 D0080000 		.4byte	0x8d0
 3354 0857 00       		.byte	0
 3355 0858 06       		.uleb128 0x6
 3356 0859 5E010000 		.4byte	.LASF117
 3357 085d 11       		.byte	0x11
 3358 085e 9B       		.byte	0x9b
 3359 085f D0080000 		.4byte	0x8d0
 3360 0863 04       		.byte	0x4
 3361 0864 07       		.uleb128 0x7
 3362 0865 41646400 		.ascii	"Add\000"
 3363 0869 11       		.byte	0x11
 3364 086a 9C       		.byte	0x9c
 3365 086b F5080000 		.4byte	0x8f5
 3366 086f 08       		.byte	0x8
 3367 0870 06       		.uleb128 0x6
 3368 0871 65040000 		.4byte	.LASF118
 3369 0875 11       		.byte	0x11
 3370 0876 9D       		.byte	0x9d
 3371 0877 06090000 		.4byte	0x906
 3372 087b 0C       		.byte	0xc
 3373 087c 06       		.uleb128 0x6
 3374 087d 8A060000 		.4byte	.LASF106
 3375 0881 11       		.byte	0x11
 3376 0882 9E       		.byte	0x9e
 3377 0883 06090000 		.4byte	0x906
 3378 0887 10       		.byte	0x10
 3379 0888 06       		.uleb128 0x6
 3380 0889 EE040000 		.4byte	.LASF119
 3381 088d 11       		.byte	0x11
 3382 088e 9F       		.byte	0x9f
 3383 088f 21090000 		.4byte	0x921
 3384 0893 14       		.byte	0x14
 3385 0894 06       		.uleb128 0x6
ARM GAS  /tmp/ccihpvPa.s 			page 61


 3386 0895 5E050000 		.4byte	.LASF120
 3387 0899 11       		.byte	0x11
 3388 089a A0       		.byte	0xa0
 3389 089b 21090000 		.4byte	0x921
 3390 089f 18       		.byte	0x18
 3391 08a0 06       		.uleb128 0x6
 3392 08a1 C9040000 		.4byte	.LASF121
 3393 08a5 11       		.byte	0x11
 3394 08a6 A1       		.byte	0xa1
 3395 08a7 06090000 		.4byte	0x906
 3396 08ab 1C       		.byte	0x1c
 3397 08ac 06       		.uleb128 0x6
 3398 08ad B4050000 		.4byte	.LASF122
 3399 08b1 11       		.byte	0x11
 3400 08b2 A2       		.byte	0xa2
 3401 08b3 37090000 		.4byte	0x937
 3402 08b7 20       		.byte	0x20
 3403 08b8 00       		.byte	0
 3404 08b9 09       		.uleb128 0x9
 3405 08ba 04       		.byte	0x4
 3406 08bb BF080000 		.4byte	0x8bf
 3407 08bf 12       		.uleb128 0x12
 3408 08c0 40080000 		.4byte	0x840
 3409 08c4 03       		.uleb128 0x3
 3410 08c5 5B020000 		.4byte	.LASF114
 3411 08c9 11       		.byte	0x11
 3412 08ca 93       		.byte	0x93
 3413 08cb 27080000 		.4byte	0x827
 3414 08cf 17       		.uleb128 0x17
 3415 08d0 09       		.uleb128 0x9
 3416 08d1 04       		.byte	0x4
 3417 08d2 CF080000 		.4byte	0x8cf
 3418 08d6 18       		.uleb128 0x18
 3419 08d7 F6000000 		.4byte	0xf6
 3420 08db EA080000 		.4byte	0x8ea
 3421 08df 0F       		.uleb128 0xf
 3422 08e0 A2060000 		.4byte	0x6a2
 3423 08e4 0F       		.uleb128 0xf
 3424 08e5 EA080000 		.4byte	0x8ea
 3425 08e9 00       		.byte	0
 3426 08ea 09       		.uleb128 0x9
 3427 08eb 04       		.byte	0x4
 3428 08ec F0080000 		.4byte	0x8f0
 3429 08f0 12       		.uleb128 0x12
 3430 08f1 DF070000 		.4byte	0x7df
 3431 08f5 09       		.uleb128 0x9
 3432 08f6 04       		.byte	0x4
 3433 08f7 D6080000 		.4byte	0x8d6
 3434 08fb 0E       		.uleb128 0xe
 3435 08fc 06090000 		.4byte	0x906
 3436 0900 0F       		.uleb128 0xf
 3437 0901 A2060000 		.4byte	0x6a2
 3438 0905 00       		.byte	0
 3439 0906 09       		.uleb128 0x9
 3440 0907 04       		.byte	0x4
 3441 0908 FB080000 		.4byte	0x8fb
 3442 090c 0E       		.uleb128 0xe
ARM GAS  /tmp/ccihpvPa.s 			page 62


 3443 090d 21090000 		.4byte	0x921
 3444 0911 0F       		.uleb128 0xf
 3445 0912 A2060000 		.4byte	0x6a2
 3446 0916 0F       		.uleb128 0xf
 3447 0917 60060000 		.4byte	0x660
 3448 091b 0F       		.uleb128 0xf
 3449 091c 60060000 		.4byte	0x660
 3450 0920 00       		.byte	0
 3451 0921 09       		.uleb128 0x9
 3452 0922 04       		.byte	0x4
 3453 0923 0C090000 		.4byte	0x90c
 3454 0927 0E       		.uleb128 0xe
 3455 0928 37090000 		.4byte	0x937
 3456 092c 0F       		.uleb128 0xf
 3457 092d A2060000 		.4byte	0x6a2
 3458 0931 0F       		.uleb128 0xf
 3459 0932 05080000 		.4byte	0x805
 3460 0936 00       		.byte	0
 3461 0937 09       		.uleb128 0x9
 3462 0938 04       		.byte	0x4
 3463 0939 27090000 		.4byte	0x927
 3464 093d 03       		.uleb128 0x3
 3465 093e 17070000 		.4byte	.LASF115
 3466 0942 11       		.byte	0x11
 3467 0943 A3       		.byte	0xa3
 3468 0944 40080000 		.4byte	0x840
 3469 0948 19       		.uleb128 0x19
 3470 0949 C0020000 		.4byte	.LASF126
 3471 094d 01       		.byte	0x1
 3472 094e 11       		.byte	0x11
 3473 094f D4       		.byte	0xd4
 3474 0950 67090000 		.4byte	0x967
 3475 0954 16       		.uleb128 0x16
 3476 0955 A6010000 		.4byte	.LASF123
 3477 0959 00       		.sleb128 0
 3478 095a 16       		.uleb128 0x16
 3479 095b 28010000 		.4byte	.LASF124
 3480 095f 01       		.sleb128 1
 3481 0960 16       		.uleb128 0x16
 3482 0961 4D010000 		.4byte	.LASF125
 3483 0965 02       		.sleb128 2
 3484 0966 00       		.byte	0
 3485 0967 03       		.uleb128 0x3
 3486 0968 C0020000 		.4byte	.LASF126
 3487 096c 11       		.byte	0x11
 3488 096d D4       		.byte	0xd4
 3489 096e 48090000 		.4byte	0x948
 3490 0972 1A       		.uleb128 0x1a
 3491 0973 80070000 		.4byte	.LASF169
 3492 0977 01       		.byte	0x1
 3493 0978 B9       		.byte	0xb9
 3494 0979 00000000 		.4byte	.LFB111
 3495 097d 5C000000 		.4byte	.LFE111-.LFB111
 3496 0981 01       		.uleb128 0x1
 3497 0982 9C       		.byte	0x9c
 3498 0983 1B       		.uleb128 0x1b
 3499 0984 96070000 		.4byte	.LASF127
ARM GAS  /tmp/ccihpvPa.s 			page 63


 3500 0988 01       		.byte	0x1
 3501 0989 C8       		.byte	0xc8
 3502 098a 00000000 		.4byte	.LFB112
 3503 098e 44000000 		.4byte	.LFE112-.LFB112
 3504 0992 01       		.uleb128 0x1
 3505 0993 9C       		.byte	0x9c
 3506 0994 A6090000 		.4byte	0x9a6
 3507 0998 1C       		.uleb128 0x1c
 3508 0999 676800   		.ascii	"gh\000"
 3509 099c 01       		.byte	0x1
 3510 099d CA       		.byte	0xca
 3511 099e A2060000 		.4byte	0x6a2
 3512 09a2 02       		.uleb128 0x2
 3513 09a3 91       		.byte	0x91
 3514 09a4 74       		.sleb128 -12
 3515 09a5 00       		.byte	0
 3516 09a6 1D       		.uleb128 0x1d
 3517 09a7 50050000 		.4byte	.LASF151
 3518 09ab 01       		.byte	0x1
 3519 09ac DC       		.byte	0xdc
 3520 09ad 00000000 		.4byte	.LFB113
 3521 09b1 12000000 		.4byte	.LFE113-.LFB113
 3522 09b5 01       		.uleb128 0x1
 3523 09b6 9C       		.byte	0x9c
 3524 09b7 CA090000 		.4byte	0x9ca
 3525 09bb 1E       		.uleb128 0x1e
 3526 09bc 6C040000 		.4byte	.LASF84
 3527 09c0 01       		.byte	0x1
 3528 09c1 DC       		.byte	0xdc
 3529 09c2 DC020000 		.4byte	0x2dc
 3530 09c6 02       		.uleb128 0x2
 3531 09c7 91       		.byte	0x91
 3532 09c8 74       		.sleb128 -12
 3533 09c9 00       		.byte	0
 3534 09ca 1B       		.uleb128 0x1b
 3535 09cb 05070000 		.4byte	.LASF128
 3536 09cf 01       		.byte	0x1
 3537 09d0 E2       		.byte	0xe2
 3538 09d1 00000000 		.4byte	.LFB114
 3539 09d5 1C020000 		.4byte	.LFE114-.LFB114
 3540 09d9 01       		.uleb128 0x1
 3541 09da 9C       		.byte	0x9c
 3542 09db 070A0000 		.4byte	0xa07
 3543 09df 1F       		.uleb128 0x1f
 3544 09e0 686F7700 		.ascii	"how\000"
 3545 09e4 01       		.byte	0x1
 3546 09e5 E2       		.byte	0xe2
 3547 09e6 67090000 		.4byte	0x967
 3548 09ea 02       		.uleb128 0x2
 3549 09eb 91       		.byte	0x91
 3550 09ec 67       		.sleb128 -25
 3551 09ed 1C       		.uleb128 0x1c
 3552 09ee 676800   		.ascii	"gh\000"
 3553 09f1 01       		.byte	0x1
 3554 09f2 E3       		.byte	0xe3
 3555 09f3 A2060000 		.4byte	0x6a2
 3556 09f7 02       		.uleb128 0x2
ARM GAS  /tmp/ccihpvPa.s 			page 64


 3557 09f8 91       		.byte	0x91
 3558 09f9 6C       		.sleb128 -20
 3559 09fa 20       		.uleb128 0x20
 3560 09fb 3E060000 		.4byte	.LASF170
 3561 09ff 01       		.byte	0x1
 3562 0a00 2E01     		.2byte	0x12e
 3563 0a02 F0010000 		.4byte	.L19
 3564 0a06 00       		.byte	0
 3565 0a07 21       		.uleb128 0x21
 3566 0a08 4A060000 		.4byte	.LASF129
 3567 0a0c 01       		.byte	0x1
 3568 0a0d 3601     		.2byte	0x136
 3569 0a0f 00000000 		.4byte	.LFB115
 3570 0a13 44000000 		.4byte	.LFE115-.LFB115
 3571 0a17 01       		.uleb128 0x1
 3572 0a18 9C       		.byte	0x9c
 3573 0a19 2C0A0000 		.4byte	0xa2c
 3574 0a1d 22       		.uleb128 0x22
 3575 0a1e 676800   		.ascii	"gh\000"
 3576 0a21 01       		.byte	0x1
 3577 0a22 3601     		.2byte	0x136
 3578 0a24 A2060000 		.4byte	0x6a2
 3579 0a28 02       		.uleb128 0x2
 3580 0a29 91       		.byte	0x91
 3581 0a2a 74       		.sleb128 -12
 3582 0a2b 00       		.byte	0
 3583 0a2c 23       		.uleb128 0x23
 3584 0a2d D5010000 		.4byte	.LASF131
 3585 0a31 01       		.byte	0x1
 3586 0a32 6501     		.2byte	0x165
 3587 0a34 F6000000 		.4byte	0xf6
 3588 0a38 00000000 		.4byte	.LFB116
 3589 0a3c 68000000 		.4byte	.LFE116-.LFB116
 3590 0a40 01       		.uleb128 0x1
 3591 0a41 9C       		.byte	0x9c
 3592 0a42 550A0000 		.4byte	0xa55
 3593 0a46 22       		.uleb128 0x22
 3594 0a47 676800   		.ascii	"gh\000"
 3595 0a4a 01       		.byte	0x1
 3596 0a4b 6501     		.2byte	0x165
 3597 0a4d A2060000 		.4byte	0x6a2
 3598 0a51 02       		.uleb128 0x2
 3599 0a52 91       		.byte	0x91
 3600 0a53 74       		.sleb128 -12
 3601 0a54 00       		.byte	0
 3602 0a55 21       		.uleb128 0x21
 3603 0a56 7A040000 		.4byte	.LASF130
 3604 0a5a 01       		.byte	0x1
 3605 0a5b 7B01     		.2byte	0x17b
 3606 0a5d 00000000 		.4byte	.LFB117
 3607 0a61 48000000 		.4byte	.LFE117-.LFB117
 3608 0a65 01       		.uleb128 0x1
 3609 0a66 9C       		.byte	0x9c
 3610 0a67 7A0A0000 		.4byte	0xa7a
 3611 0a6b 22       		.uleb128 0x22
 3612 0a6c 676800   		.ascii	"gh\000"
 3613 0a6f 01       		.byte	0x1
ARM GAS  /tmp/ccihpvPa.s 			page 65


 3614 0a70 7B01     		.2byte	0x17b
 3615 0a72 A2060000 		.4byte	0x6a2
 3616 0a76 02       		.uleb128 0x2
 3617 0a77 91       		.byte	0x91
 3618 0a78 6C       		.sleb128 -20
 3619 0a79 00       		.byte	0
 3620 0a7a 23       		.uleb128 0x23
 3621 0a7b 5E070000 		.4byte	.LASF132
 3622 0a7f 01       		.byte	0x1
 3623 0a80 8801     		.2byte	0x188
 3624 0a82 F6000000 		.4byte	0xf6
 3625 0a86 00000000 		.4byte	.LFB118
 3626 0a8a 34000000 		.4byte	.LFE118-.LFB118
 3627 0a8e 01       		.uleb128 0x1
 3628 0a8f 9C       		.byte	0x9c
 3629 0a90 B20A0000 		.4byte	0xab2
 3630 0a94 22       		.uleb128 0x22
 3631 0a95 676800   		.ascii	"gh\000"
 3632 0a98 01       		.byte	0x1
 3633 0a99 8801     		.2byte	0x188
 3634 0a9b A2060000 		.4byte	0x6a2
 3635 0a9f 02       		.uleb128 0x2
 3636 0aa0 91       		.byte	0x91
 3637 0aa1 74       		.sleb128 -12
 3638 0aa2 24       		.uleb128 0x24
 3639 0aa3 90070000 		.4byte	.LASF133
 3640 0aa7 01       		.byte	0x1
 3641 0aa8 8801     		.2byte	0x188
 3642 0aaa EA080000 		.4byte	0x8ea
 3643 0aae 02       		.uleb128 0x2
 3644 0aaf 91       		.byte	0x91
 3645 0ab0 70       		.sleb128 -16
 3646 0ab1 00       		.byte	0
 3647 0ab2 21       		.uleb128 0x21
 3648 0ab3 60060000 		.4byte	.LASF134
 3649 0ab7 01       		.byte	0x1
 3650 0ab8 9F01     		.2byte	0x19f
 3651 0aba 00000000 		.4byte	.LFB119
 3652 0abe 44000000 		.4byte	.LFE119-.LFB119
 3653 0ac2 01       		.uleb128 0x1
 3654 0ac3 9C       		.byte	0x9c
 3655 0ac4 D80A0000 		.4byte	0xad8
 3656 0ac8 22       		.uleb128 0x22
 3657 0ac9 67776D00 		.ascii	"gwm\000"
 3658 0acd 01       		.byte	0x1
 3659 0ace 9F01     		.2byte	0x19f
 3660 0ad0 D80A0000 		.4byte	0xad8
 3661 0ad4 02       		.uleb128 0x2
 3662 0ad5 91       		.byte	0x91
 3663 0ad6 74       		.sleb128 -12
 3664 0ad7 00       		.byte	0
 3665 0ad8 09       		.uleb128 0x9
 3666 0ad9 04       		.byte	0x4
 3667 0ada 27080000 		.4byte	0x827
 3668 0ade 21       		.uleb128 0x21
 3669 0adf 6D010000 		.4byte	.LASF135
 3670 0ae3 01       		.byte	0x1
ARM GAS  /tmp/ccihpvPa.s 			page 66


 3671 0ae4 A901     		.2byte	0x1a9
 3672 0ae6 00000000 		.4byte	.LFB120
 3673 0aea 40000000 		.4byte	.LFE120-.LFB120
 3674 0aee 01       		.uleb128 0x1
 3675 0aef 9C       		.byte	0x9c
 3676 0af0 030B0000 		.4byte	0xb03
 3677 0af4 22       		.uleb128 0x22
 3678 0af5 676800   		.ascii	"gh\000"
 3679 0af8 01       		.byte	0x1
 3680 0af9 A901     		.2byte	0x1a9
 3681 0afb A2060000 		.4byte	0x6a2
 3682 0aff 02       		.uleb128 0x2
 3683 0b00 91       		.byte	0x91
 3684 0b01 74       		.sleb128 -12
 3685 0b02 00       		.byte	0
 3686 0b03 21       		.uleb128 0x21
 3687 0b04 BF000000 		.4byte	.LASF136
 3688 0b08 01       		.byte	0x1
 3689 0b09 C601     		.2byte	0x1c6
 3690 0b0b 00000000 		.4byte	.LFB121
 3691 0b0f 8C000000 		.4byte	.LFE121-.LFB121
 3692 0b13 01       		.uleb128 0x1
 3693 0b14 9C       		.byte	0x9c
 3694 0b15 370B0000 		.4byte	0xb37
 3695 0b19 22       		.uleb128 0x22
 3696 0b1a 676800   		.ascii	"gh\000"
 3697 0b1d 01       		.byte	0x1
 3698 0b1e C601     		.2byte	0x1c6
 3699 0b20 A2060000 		.4byte	0x6a2
 3700 0b24 02       		.uleb128 0x2
 3701 0b25 91       		.byte	0x91
 3702 0b26 74       		.sleb128 -12
 3703 0b27 24       		.uleb128 0x24
 3704 0b28 FD060000 		.4byte	.LASF137
 3705 0b2c 01       		.byte	0x1
 3706 0b2d C601     		.2byte	0x1c6
 3707 0b2f F6000000 		.4byte	0xf6
 3708 0b33 02       		.uleb128 0x2
 3709 0b34 91       		.byte	0x91
 3710 0b35 73       		.sleb128 -13
 3711 0b36 00       		.byte	0
 3712 0b37 21       		.uleb128 0x21
 3713 0b38 83000000 		.4byte	.LASF138
 3714 0b3c 01       		.byte	0x1
 3715 0b3d F901     		.2byte	0x1f9
 3716 0b3f 00000000 		.4byte	.LFB122
 3717 0b43 58000000 		.4byte	.LFE122-.LFB122
 3718 0b47 01       		.uleb128 0x1
 3719 0b48 9C       		.byte	0x9c
 3720 0b49 6B0B0000 		.4byte	0xb6b
 3721 0b4d 22       		.uleb128 0x22
 3722 0b4e 676800   		.ascii	"gh\000"
 3723 0b51 01       		.byte	0x1
 3724 0b52 F901     		.2byte	0x1f9
 3725 0b54 A2060000 		.4byte	0x6a2
 3726 0b58 02       		.uleb128 0x2
 3727 0b59 91       		.byte	0x91
ARM GAS  /tmp/ccihpvPa.s 			page 67


 3728 0b5a 74       		.sleb128 -12
 3729 0b5b 24       		.uleb128 0x24
 3730 0b5c EC050000 		.4byte	.LASF139
 3731 0b60 01       		.byte	0x1
 3732 0b61 F901     		.2byte	0x1f9
 3733 0b63 F6000000 		.4byte	0xf6
 3734 0b67 02       		.uleb128 0x2
 3735 0b68 91       		.byte	0x91
 3736 0b69 73       		.sleb128 -13
 3737 0b6a 00       		.byte	0
 3738 0b6b 21       		.uleb128 0x21
 3739 0b6c 00000000 		.4byte	.LASF140
 3740 0b70 01       		.byte	0x1
 3741 0b71 0802     		.2byte	0x208
 3742 0b73 00000000 		.4byte	.LFB123
 3743 0b77 30000000 		.4byte	.LFE123-.LFB123
 3744 0b7b 01       		.uleb128 0x1
 3745 0b7c 9C       		.byte	0x9c
 3746 0b7d AA0B0000 		.4byte	0xbaa
 3747 0b81 22       		.uleb128 0x22
 3748 0b82 676800   		.ascii	"gh\000"
 3749 0b85 01       		.byte	0x1
 3750 0b86 0802     		.2byte	0x208
 3751 0b88 A2060000 		.4byte	0x6a2
 3752 0b8c 02       		.uleb128 0x2
 3753 0b8d 91       		.byte	0x91
 3754 0b8e 74       		.sleb128 -12
 3755 0b8f 22       		.uleb128 0x22
 3756 0b90 7800     		.ascii	"x\000"
 3757 0b92 01       		.byte	0x1
 3758 0b93 0802     		.2byte	0x208
 3759 0b95 60060000 		.4byte	0x660
 3760 0b99 02       		.uleb128 0x2
 3761 0b9a 91       		.byte	0x91
 3762 0b9b 72       		.sleb128 -14
 3763 0b9c 22       		.uleb128 0x22
 3764 0b9d 7900     		.ascii	"y\000"
 3765 0b9f 01       		.byte	0x1
 3766 0ba0 0802     		.2byte	0x208
 3767 0ba2 60060000 		.4byte	0x660
 3768 0ba6 02       		.uleb128 0x2
 3769 0ba7 91       		.byte	0x91
 3770 0ba8 70       		.sleb128 -16
 3771 0ba9 00       		.byte	0
 3772 0baa 21       		.uleb128 0x21
 3773 0bab FE020000 		.4byte	.LASF141
 3774 0baf 01       		.byte	0x1
 3775 0bb0 0C02     		.2byte	0x20c
 3776 0bb2 00000000 		.4byte	.LFB124
 3777 0bb6 30000000 		.4byte	.LFE124-.LFB124
 3778 0bba 01       		.uleb128 0x1
 3779 0bbb 9C       		.byte	0x9c
 3780 0bbc ED0B0000 		.4byte	0xbed
 3781 0bc0 22       		.uleb128 0x22
 3782 0bc1 676800   		.ascii	"gh\000"
 3783 0bc4 01       		.byte	0x1
 3784 0bc5 0C02     		.2byte	0x20c
ARM GAS  /tmp/ccihpvPa.s 			page 68


 3785 0bc7 A2060000 		.4byte	0x6a2
 3786 0bcb 02       		.uleb128 0x2
 3787 0bcc 91       		.byte	0x91
 3788 0bcd 74       		.sleb128 -12
 3789 0bce 24       		.uleb128 0x24
 3790 0bcf 6A020000 		.4byte	.LASF97
 3791 0bd3 01       		.byte	0x1
 3792 0bd4 0C02     		.2byte	0x20c
 3793 0bd6 60060000 		.4byte	0x660
 3794 0bda 02       		.uleb128 0x2
 3795 0bdb 91       		.byte	0x91
 3796 0bdc 72       		.sleb128 -14
 3797 0bdd 24       		.uleb128 0x24
 3798 0bde 89070000 		.4byte	.LASF98
 3799 0be2 01       		.byte	0x1
 3800 0be3 0C02     		.2byte	0x20c
 3801 0be5 60060000 		.4byte	0x660
 3802 0be9 02       		.uleb128 0x2
 3803 0bea 91       		.byte	0x91
 3804 0beb 70       		.sleb128 -16
 3805 0bec 00       		.byte	0
 3806 0bed 21       		.uleb128 0x21
 3807 0bee 62000000 		.4byte	.LASF142
 3808 0bf2 01       		.byte	0x1
 3809 0bf3 1002     		.2byte	0x210
 3810 0bf5 00000000 		.4byte	.LFB125
 3811 0bf9 28000000 		.4byte	.LFE125-.LFB125
 3812 0bfd 01       		.uleb128 0x1
 3813 0bfe 9C       		.byte	0x9c
 3814 0bff 210C0000 		.4byte	0xc21
 3815 0c03 22       		.uleb128 0x22
 3816 0c04 676800   		.ascii	"gh\000"
 3817 0c07 01       		.byte	0x1
 3818 0c08 1002     		.2byte	0x210
 3819 0c0a A2060000 		.4byte	0x6a2
 3820 0c0e 02       		.uleb128 0x2
 3821 0c0f 91       		.byte	0x91
 3822 0c10 74       		.sleb128 -12
 3823 0c11 24       		.uleb128 0x24
 3824 0c12 A7060000 		.4byte	.LASF143
 3825 0c16 01       		.byte	0x1
 3826 0c17 1002     		.2byte	0x210
 3827 0c19 05080000 		.4byte	0x805
 3828 0c1d 02       		.uleb128 0x2
 3829 0c1e 91       		.byte	0x91
 3830 0c1f 73       		.sleb128 -13
 3831 0c20 00       		.byte	0
 3832 0c21 21       		.uleb128 0x21
 3833 0c22 70000000 		.4byte	.LASF144
 3834 0c26 01       		.byte	0x1
 3835 0c27 1402     		.2byte	0x214
 3836 0c29 00000000 		.4byte	.LFB126
 3837 0c2d 1C000000 		.4byte	.LFE126-.LFB126
 3838 0c31 01       		.uleb128 0x1
 3839 0c32 9C       		.byte	0x9c
 3840 0c33 460C0000 		.4byte	0xc46
 3841 0c37 22       		.uleb128 0x22
ARM GAS  /tmp/ccihpvPa.s 			page 69


 3842 0c38 676800   		.ascii	"gh\000"
 3843 0c3b 01       		.byte	0x1
 3844 0c3c 1402     		.2byte	0x214
 3845 0c3e A2060000 		.4byte	0x6a2
 3846 0c42 02       		.uleb128 0x2
 3847 0c43 91       		.byte	0x91
 3848 0c44 74       		.sleb128 -12
 3849 0c45 00       		.byte	0
 3850 0c46 25       		.uleb128 0x25
 3851 0c47 E4010000 		.4byte	.LASF145
 3852 0c4b 01       		.byte	0x1
 3853 0c4c 1802     		.2byte	0x218
 3854 0c4e 05080000 		.4byte	0x805
 3855 0c52 00000000 		.4byte	.LFB127
 3856 0c56 2C000000 		.4byte	.LFE127-.LFB127
 3857 0c5a 01       		.uleb128 0x1
 3858 0c5b 9C       		.byte	0x9c
 3859 0c5c 6F0C0000 		.4byte	0xc6f
 3860 0c60 22       		.uleb128 0x22
 3861 0c61 676800   		.ascii	"gh\000"
 3862 0c64 01       		.byte	0x1
 3863 0c65 1802     		.2byte	0x218
 3864 0c67 A2060000 		.4byte	0x6a2
 3865 0c6b 02       		.uleb128 0x2
 3866 0c6c 91       		.byte	0x91
 3867 0c6d 7C       		.sleb128 -4
 3868 0c6e 00       		.byte	0
 3869 0c6f 21       		.uleb128 0x21
 3870 0c70 37020000 		.4byte	.LASF146
 3871 0c74 01       		.byte	0x1
 3872 0c75 2002     		.2byte	0x220
 3873 0c77 00000000 		.4byte	.LFB128
 3874 0c7b 6A000000 		.4byte	.LFE128-.LFB128
 3875 0c7f 01       		.uleb128 0x1
 3876 0c80 9C       		.byte	0x9c
 3877 0c81 B00C0000 		.4byte	0xcb0
 3878 0c85 22       		.uleb128 0x22
 3879 0c86 6700     		.ascii	"g\000"
 3880 0c88 01       		.byte	0x1
 3881 0c89 2002     		.2byte	0x220
 3882 0c8b 89070000 		.4byte	0x789
 3883 0c8f 02       		.uleb128 0x2
 3884 0c90 91       		.byte	0x91
 3885 0c91 6C       		.sleb128 -20
 3886 0c92 24       		.uleb128 0x24
 3887 0c93 0C010000 		.4byte	.LASF147
 3888 0c97 01       		.byte	0x1
 3889 0c98 2002     		.2byte	0x220
 3890 0c9a F6000000 		.4byte	0xf6
 3891 0c9e 02       		.uleb128 0x2
 3892 0c9f 91       		.byte	0x91
 3893 0ca0 6B       		.sleb128 -21
 3894 0ca1 26       		.uleb128 0x26
 3895 0ca2 676800   		.ascii	"gh\000"
 3896 0ca5 01       		.byte	0x1
 3897 0ca6 2102     		.2byte	0x221
 3898 0ca8 A2060000 		.4byte	0x6a2
ARM GAS  /tmp/ccihpvPa.s 			page 70


 3899 0cac 02       		.uleb128 0x2
 3900 0cad 91       		.byte	0x91
 3901 0cae 74       		.sleb128 -12
 3902 0caf 00       		.byte	0
 3903 0cb0 25       		.uleb128 0x25
 3904 0cb1 39000000 		.4byte	.LASF148
 3905 0cb5 01       		.byte	0x1
 3906 0cb6 3A02     		.2byte	0x23a
 3907 0cb8 A2060000 		.4byte	0x6a2
 3908 0cbc 00000000 		.4byte	.LFB129
 3909 0cc0 20000000 		.4byte	.LFE129-.LFB129
 3910 0cc4 01       		.uleb128 0x1
 3911 0cc5 9C       		.byte	0x9c
 3912 0cc6 D90C0000 		.4byte	0xcd9
 3913 0cca 22       		.uleb128 0x22
 3914 0ccb 676800   		.ascii	"gh\000"
 3915 0cce 01       		.byte	0x1
 3916 0ccf 3A02     		.2byte	0x23a
 3917 0cd1 A2060000 		.4byte	0x6a2
 3918 0cd5 02       		.uleb128 0x2
 3919 0cd6 91       		.byte	0x91
 3920 0cd7 7C       		.sleb128 -4
 3921 0cd8 00       		.byte	0
 3922 0cd9 27       		.uleb128 0x27
 3923 0cda A3040000 		.4byte	.LASF149
 3924 0cde 01       		.byte	0x1
 3925 0cdf A702     		.2byte	0x2a7
 3926 0ce1 00000000 		.4byte	.LFB130
 3927 0ce5 02000000 		.4byte	.LFE130-.LFB130
 3928 0ce9 01       		.uleb128 0x1
 3929 0cea 9C       		.byte	0x9c
 3930 0ceb 27       		.uleb128 0x27
 3931 0cec DA020000 		.4byte	.LASF150
 3932 0cf0 01       		.byte	0x1
 3933 0cf1 B002     		.2byte	0x2b0
 3934 0cf3 00000000 		.4byte	.LFB131
 3935 0cf7 02000000 		.4byte	.LFE131-.LFB131
 3936 0cfb 01       		.uleb128 0x1
 3937 0cfc 9C       		.byte	0x9c
 3938 0cfd 28       		.uleb128 0x28
 3939 0cfe 7A020000 		.4byte	.LASF171
 3940 0d02 01       		.byte	0x1
 3941 0d03 B502     		.2byte	0x2b5
 3942 0d05 F6000000 		.4byte	0xf6
 3943 0d09 00000000 		.4byte	.LFB132
 3944 0d0d 68000000 		.4byte	.LFE132-.LFB132
 3945 0d11 01       		.uleb128 0x1
 3946 0d12 9C       		.byte	0x9c
 3947 0d13 350D0000 		.4byte	0xd35
 3948 0d17 22       		.uleb128 0x22
 3949 0d18 676800   		.ascii	"gh\000"
 3950 0d1b 01       		.byte	0x1
 3951 0d1c B502     		.2byte	0x2b5
 3952 0d1e A2060000 		.4byte	0x6a2
 3953 0d22 02       		.uleb128 0x2
 3954 0d23 91       		.byte	0x91
 3955 0d24 74       		.sleb128 -12
ARM GAS  /tmp/ccihpvPa.s 			page 71


 3956 0d25 24       		.uleb128 0x24
 3957 0d26 90070000 		.4byte	.LASF133
 3958 0d2a 01       		.byte	0x1
 3959 0d2b B502     		.2byte	0x2b5
 3960 0d2d EA080000 		.4byte	0x8ea
 3961 0d31 02       		.uleb128 0x2
 3962 0d32 91       		.byte	0x91
 3963 0d33 70       		.sleb128 -16
 3964 0d34 00       		.byte	0
 3965 0d35 29       		.uleb128 0x29
 3966 0d36 16060000 		.4byte	.LASF152
 3967 0d3a 01       		.byte	0x1
 3968 0d3b C302     		.2byte	0x2c3
 3969 0d3d 00000000 		.4byte	.LFB133
 3970 0d41 1C000000 		.4byte	.LFE133-.LFB133
 3971 0d45 01       		.uleb128 0x1
 3972 0d46 9C       		.byte	0x9c
 3973 0d47 5A0D0000 		.4byte	0xd5a
 3974 0d4b 22       		.uleb128 0x22
 3975 0d4c 676800   		.ascii	"gh\000"
 3976 0d4f 01       		.byte	0x1
 3977 0d50 C302     		.2byte	0x2c3
 3978 0d52 A2060000 		.4byte	0x6a2
 3979 0d56 02       		.uleb128 0x2
 3980 0d57 91       		.byte	0x91
 3981 0d58 74       		.sleb128 -12
 3982 0d59 00       		.byte	0
 3983 0d5a 29       		.uleb128 0x29
 3984 0d5b E2050000 		.4byte	.LASF153
 3985 0d5f 01       		.byte	0x1
 3986 0d60 C802     		.2byte	0x2c8
 3987 0d62 00000000 		.4byte	.LFB134
 3988 0d66 B4010000 		.4byte	.LFE134-.LFB134
 3989 0d6a 01       		.uleb128 0x1
 3990 0d6b 9C       		.byte	0x9c
 3991 0d6c 970D0000 		.4byte	0xd97
 3992 0d70 22       		.uleb128 0x22
 3993 0d71 676800   		.ascii	"gh\000"
 3994 0d74 01       		.byte	0x1
 3995 0d75 C802     		.2byte	0x2c8
 3996 0d77 A2060000 		.4byte	0x6a2
 3997 0d7b 02       		.uleb128 0x2
 3998 0d7c 91       		.byte	0x91
 3999 0d7d 5C       		.sleb128 -36
 4000 0d7e 2A       		.uleb128 0x2a
 4001 0d7f 98000000 		.4byte	.LBB2
 4002 0d83 06010000 		.4byte	.LBE2-.LBB2
 4003 0d87 26       		.uleb128 0x26
 4004 0d88 677800   		.ascii	"gx\000"
 4005 0d8b 01       		.byte	0x1
 4006 0d8c E902     		.2byte	0x2e9
 4007 0d8e A2060000 		.4byte	0x6a2
 4008 0d92 02       		.uleb128 0x2
 4009 0d93 91       		.byte	0x91
 4010 0d94 64       		.sleb128 -28
 4011 0d95 00       		.byte	0
 4012 0d96 00       		.byte	0
ARM GAS  /tmp/ccihpvPa.s 			page 72


 4013 0d97 29       		.uleb128 0x29
 4014 0d98 C1040000 		.4byte	.LASF154
 4015 0d9c 01       		.byte	0x1
 4016 0d9d 1503     		.2byte	0x315
 4017 0d9f 00000000 		.4byte	.LFB135
 4018 0da3 36010000 		.4byte	.LFE135-.LFB135
 4019 0da7 01       		.uleb128 0x1
 4020 0da8 9C       		.byte	0x9c
 4021 0da9 E30D0000 		.4byte	0xde3
 4022 0dad 22       		.uleb128 0x22
 4023 0dae 676800   		.ascii	"gh\000"
 4024 0db1 01       		.byte	0x1
 4025 0db2 1503     		.2byte	0x315
 4026 0db4 A2060000 		.4byte	0x6a2
 4027 0db8 02       		.uleb128 0x2
 4028 0db9 91       		.byte	0x91
 4029 0dba 6C       		.sleb128 -20
 4030 0dbb 22       		.uleb128 0x22
 4031 0dbc 7700     		.ascii	"w\000"
 4032 0dbe 01       		.byte	0x1
 4033 0dbf 1503     		.2byte	0x315
 4034 0dc1 60060000 		.4byte	0x660
 4035 0dc5 02       		.uleb128 0x2
 4036 0dc6 91       		.byte	0x91
 4037 0dc7 6A       		.sleb128 -22
 4038 0dc8 22       		.uleb128 0x22
 4039 0dc9 6800     		.ascii	"h\000"
 4040 0dcb 01       		.byte	0x1
 4041 0dcc 1503     		.2byte	0x315
 4042 0dce 60060000 		.4byte	0x660
 4043 0dd2 02       		.uleb128 0x2
 4044 0dd3 91       		.byte	0x91
 4045 0dd4 68       		.sleb128 -24
 4046 0dd5 26       		.uleb128 0x26
 4047 0dd6 7600     		.ascii	"v\000"
 4048 0dd8 01       		.byte	0x1
 4049 0dd9 1603     		.2byte	0x316
 4050 0ddb 60060000 		.4byte	0x660
 4051 0ddf 02       		.uleb128 0x2
 4052 0de0 91       		.byte	0x91
 4053 0de1 76       		.sleb128 -10
 4054 0de2 00       		.byte	0
 4055 0de3 29       		.uleb128 0x29
 4056 0de4 2C050000 		.4byte	.LASF155
 4057 0de8 01       		.byte	0x1
 4058 0de9 5E03     		.2byte	0x35e
 4059 0deb 00000000 		.4byte	.LFB136
 4060 0def 9C010000 		.4byte	.LFE136-.LFB136
 4061 0df3 01       		.uleb128 0x1
 4062 0df4 9C       		.byte	0x9c
 4063 0df5 3C0E0000 		.4byte	0xe3c
 4064 0df9 22       		.uleb128 0x22
 4065 0dfa 676800   		.ascii	"gh\000"
 4066 0dfd 01       		.byte	0x1
 4067 0dfe 5E03     		.2byte	0x35e
 4068 0e00 A2060000 		.4byte	0x6a2
 4069 0e04 02       		.uleb128 0x2
ARM GAS  /tmp/ccihpvPa.s 			page 73


 4070 0e05 91       		.byte	0x91
 4071 0e06 6C       		.sleb128 -20
 4072 0e07 22       		.uleb128 0x22
 4073 0e08 7800     		.ascii	"x\000"
 4074 0e0a 01       		.byte	0x1
 4075 0e0b 5E03     		.2byte	0x35e
 4076 0e0d 60060000 		.4byte	0x660
 4077 0e11 02       		.uleb128 0x2
 4078 0e12 91       		.byte	0x91
 4079 0e13 6A       		.sleb128 -22
 4080 0e14 22       		.uleb128 0x22
 4081 0e15 7900     		.ascii	"y\000"
 4082 0e17 01       		.byte	0x1
 4083 0e18 5E03     		.2byte	0x35e
 4084 0e1a 60060000 		.4byte	0x660
 4085 0e1e 02       		.uleb128 0x2
 4086 0e1f 91       		.byte	0x91
 4087 0e20 68       		.sleb128 -24
 4088 0e21 26       		.uleb128 0x26
 4089 0e22 7500     		.ascii	"u\000"
 4090 0e24 01       		.byte	0x1
 4091 0e25 5F03     		.2byte	0x35f
 4092 0e27 60060000 		.4byte	0x660
 4093 0e2b 02       		.uleb128 0x2
 4094 0e2c 91       		.byte	0x91
 4095 0e2d 76       		.sleb128 -10
 4096 0e2e 26       		.uleb128 0x26
 4097 0e2f 7600     		.ascii	"v\000"
 4098 0e31 01       		.byte	0x1
 4099 0e32 5F03     		.2byte	0x35f
 4100 0e34 60060000 		.4byte	0x660
 4101 0e38 02       		.uleb128 0x2
 4102 0e39 91       		.byte	0x91
 4103 0e3a 74       		.sleb128 -12
 4104 0e3b 00       		.byte	0
 4105 0e3c 2B       		.uleb128 0x2b
 4106 0e3d 54070000 		.4byte	.LASF156
 4107 0e41 01       		.byte	0x1
 4108 0e42 AF03     		.2byte	0x3af
 4109 0e44 00000000 		.4byte	.LFB137
 4110 0e48 0E000000 		.4byte	.LFE137-.LFB137
 4111 0e4c 01       		.uleb128 0x1
 4112 0e4d 9C       		.byte	0x9c
 4113 0e4e 700E0000 		.4byte	0xe70
 4114 0e52 22       		.uleb128 0x22
 4115 0e53 676800   		.ascii	"gh\000"
 4116 0e56 01       		.byte	0x1
 4117 0e57 AF03     		.2byte	0x3af
 4118 0e59 A2060000 		.4byte	0x6a2
 4119 0e5d 02       		.uleb128 0x2
 4120 0e5e 91       		.byte	0x91
 4121 0e5f 7C       		.sleb128 -4
 4122 0e60 24       		.uleb128 0x24
 4123 0e61 A7060000 		.4byte	.LASF143
 4124 0e65 01       		.byte	0x1
 4125 0e66 AF03     		.2byte	0x3af
 4126 0e68 05080000 		.4byte	0x805
ARM GAS  /tmp/ccihpvPa.s 			page 74


 4127 0e6c 02       		.uleb128 0x2
 4128 0e6d 91       		.byte	0x91
 4129 0e6e 7B       		.sleb128 -5
 4130 0e6f 00       		.byte	0
 4131 0e70 29       		.uleb128 0x29
 4132 0e71 F5020000 		.4byte	.LASF157
 4133 0e75 01       		.byte	0x1
 4134 0e76 B403     		.2byte	0x3b4
 4135 0e78 00000000 		.4byte	.LFB138
 4136 0e7c 2C000000 		.4byte	.LFE138-.LFB138
 4137 0e80 01       		.uleb128 0x1
 4138 0e81 9C       		.byte	0x9c
 4139 0e82 950E0000 		.4byte	0xe95
 4140 0e86 22       		.uleb128 0x22
 4141 0e87 676800   		.ascii	"gh\000"
 4142 0e8a 01       		.byte	0x1
 4143 0e8b B403     		.2byte	0x3b4
 4144 0e8d A2060000 		.4byte	0x6a2
 4145 0e91 02       		.uleb128 0x2
 4146 0e92 91       		.byte	0x91
 4147 0e93 74       		.sleb128 -12
 4148 0e94 00       		.byte	0
 4149 0e95 2C       		.uleb128 0x2c
 4150 0e96 65010000 		.4byte	.LASF158
 4151 0e9a 01       		.byte	0x1
 4152 0e9b A6       		.byte	0xa6
 4153 0e9c 79050000 		.4byte	0x579
 4154 0ea0 05       		.uleb128 0x5
 4155 0ea1 03       		.byte	0x3
 4156 0ea2 00000000 		.4byte	gwinsem
 4157 0ea6 2C       		.uleb128 0x2c
 4158 0ea7 22030000 		.4byte	.LASF159
 4159 0eab 01       		.byte	0x1
 4160 0eac A7       		.byte	0xa7
 4161 0ead D9050000 		.4byte	0x5d9
 4162 0eb1 05       		.uleb128 0x5
 4163 0eb2 03       		.byte	0x3
 4164 0eb3 00000000 		.4byte	_GWINList
 4165 0eb7 2C       		.uleb128 0x2c
 4166 0eb8 A8050000 		.4byte	.LASF160
 4167 0ebc 01       		.byte	0x1
 4168 0ebd AC       		.byte	0xac
 4169 0ebe 55060000 		.4byte	0x655
 4170 0ec2 05       		.uleb128 0x5
 4171 0ec3 03       		.byte	0x3
 4172 0ec4 00000000 		.4byte	RedrawTimer
 4173 0ec8 2C       		.uleb128 0x2c
 4174 0ec9 E0040000 		.4byte	.LASF161
 4175 0ecd 01       		.byte	0x1
 4176 0ece AF       		.byte	0xaf
 4177 0ecf 56040000 		.4byte	0x456
 4178 0ed3 05       		.uleb128 0x5
 4179 0ed4 03       		.byte	0x3
 4180 0ed5 00000000 		.4byte	RedrawPending
 4181 0ed9 2D       		.uleb128 0x2d
 4182 0eda AB040000 		.4byte	.LASF162
 4183 0ede 01       		.byte	0x1
ARM GAS  /tmp/ccihpvPa.s 			page 75


 4184 0edf 9702     		.2byte	0x297
 4185 0ee1 EB0E0000 		.4byte	0xeeb
 4186 0ee5 05       		.uleb128 0x5
 4187 0ee6 03       		.byte	0x3
 4188 0ee7 00000000 		.4byte	GNullWindowManagerVMT
 4189 0eeb 12       		.uleb128 0x12
 4190 0eec 3D090000 		.4byte	0x93d
 4191 0ef0 2E       		.uleb128 0x2e
 4192 0ef1 98000000 		.4byte	.LASF163
 4193 0ef5 12       		.byte	0x12
 4194 0ef6 9806     		.2byte	0x698
 4195 0ef8 3D050000 		.4byte	0x53d
 4196 0efc 2F       		.uleb128 0x2f
 4197 0efd 03020000 		.4byte	.LASF164
 4198 0f01 01       		.byte	0x1
 4199 0f02 A3       		.byte	0xa3
 4200 0f03 0D0F0000 		.4byte	0xf0d
 4201 0f07 05       		.uleb128 0x5
 4202 0f08 03       		.byte	0x3
 4203 0f09 00000000 		.4byte	_GWINwm
 4204 0f0d 09       		.uleb128 0x9
 4205 0f0e 04       		.byte	0x4
 4206 0f0f C4080000 		.4byte	0x8c4
 4207 0f13 2F       		.uleb128 0x2f
 4208 0f14 55040000 		.4byte	.LASF165
 4209 0f18 01       		.byte	0x1
 4210 0f19 A4       		.byte	0xa4
 4211 0f1a F6000000 		.4byte	0xf6
 4212 0f1e 05       		.uleb128 0x5
 4213 0f1f 03       		.byte	0x3
 4214 0f20 00000000 		.4byte	_gwinFlashState
 4215 0f24 30       		.uleb128 0x30
 4216 0f25 03050000 		.4byte	.LASF166
 4217 0f29 01       		.byte	0x1
 4218 0f2a A302     		.2byte	0x2a3
 4219 0f2c 360F0000 		.4byte	0xf36
 4220 0f30 05       		.uleb128 0x5
 4221 0f31 03       		.byte	0x3
 4222 0f32 00000000 		.4byte	GNullWindowManager
 4223 0f36 12       		.uleb128 0x12
 4224 0f37 C4080000 		.4byte	0x8c4
 4225 0f3b 00       		.byte	0
 4226              		.section	.debug_abbrev,"",%progbits
 4227              	.Ldebug_abbrev0:
 4228 0000 01       		.uleb128 0x1
 4229 0001 11       		.uleb128 0x11
 4230 0002 01       		.byte	0x1
 4231 0003 25       		.uleb128 0x25
 4232 0004 0E       		.uleb128 0xe
 4233 0005 13       		.uleb128 0x13
 4234 0006 0B       		.uleb128 0xb
 4235 0007 03       		.uleb128 0x3
 4236 0008 0E       		.uleb128 0xe
 4237 0009 55       		.uleb128 0x55
 4238 000a 17       		.uleb128 0x17
 4239 000b 11       		.uleb128 0x11
 4240 000c 01       		.uleb128 0x1
ARM GAS  /tmp/ccihpvPa.s 			page 76


 4241 000d 10       		.uleb128 0x10
 4242 000e 17       		.uleb128 0x17
 4243 000f 00       		.byte	0
 4244 0010 00       		.byte	0
 4245 0011 02       		.uleb128 0x2
 4246 0012 24       		.uleb128 0x24
 4247 0013 00       		.byte	0
 4248 0014 0B       		.uleb128 0xb
 4249 0015 0B       		.uleb128 0xb
 4250 0016 3E       		.uleb128 0x3e
 4251 0017 0B       		.uleb128 0xb
 4252 0018 03       		.uleb128 0x3
 4253 0019 08       		.uleb128 0x8
 4254 001a 00       		.byte	0
 4255 001b 00       		.byte	0
 4256 001c 03       		.uleb128 0x3
 4257 001d 16       		.uleb128 0x16
 4258 001e 00       		.byte	0
 4259 001f 03       		.uleb128 0x3
 4260 0020 0E       		.uleb128 0xe
 4261 0021 3A       		.uleb128 0x3a
 4262 0022 0B       		.uleb128 0xb
 4263 0023 3B       		.uleb128 0x3b
 4264 0024 0B       		.uleb128 0xb
 4265 0025 49       		.uleb128 0x49
 4266 0026 13       		.uleb128 0x13
 4267 0027 00       		.byte	0
 4268 0028 00       		.byte	0
 4269 0029 04       		.uleb128 0x4
 4270 002a 24       		.uleb128 0x24
 4271 002b 00       		.byte	0
 4272 002c 0B       		.uleb128 0xb
 4273 002d 0B       		.uleb128 0xb
 4274 002e 3E       		.uleb128 0x3e
 4275 002f 0B       		.uleb128 0xb
 4276 0030 03       		.uleb128 0x3
 4277 0031 0E       		.uleb128 0xe
 4278 0032 00       		.byte	0
 4279 0033 00       		.byte	0
 4280 0034 05       		.uleb128 0x5
 4281 0035 13       		.uleb128 0x13
 4282 0036 01       		.byte	0x1
 4283 0037 03       		.uleb128 0x3
 4284 0038 0E       		.uleb128 0xe
 4285 0039 0B       		.uleb128 0xb
 4286 003a 0B       		.uleb128 0xb
 4287 003b 3A       		.uleb128 0x3a
 4288 003c 0B       		.uleb128 0xb
 4289 003d 3B       		.uleb128 0x3b
 4290 003e 0B       		.uleb128 0xb
 4291 003f 01       		.uleb128 0x1
 4292 0040 13       		.uleb128 0x13
 4293 0041 00       		.byte	0
 4294 0042 00       		.byte	0
 4295 0043 06       		.uleb128 0x6
 4296 0044 0D       		.uleb128 0xd
 4297 0045 00       		.byte	0
ARM GAS  /tmp/ccihpvPa.s 			page 77


 4298 0046 03       		.uleb128 0x3
 4299 0047 0E       		.uleb128 0xe
 4300 0048 3A       		.uleb128 0x3a
 4301 0049 0B       		.uleb128 0xb
 4302 004a 3B       		.uleb128 0x3b
 4303 004b 0B       		.uleb128 0xb
 4304 004c 49       		.uleb128 0x49
 4305 004d 13       		.uleb128 0x13
 4306 004e 38       		.uleb128 0x38
 4307 004f 0B       		.uleb128 0xb
 4308 0050 00       		.byte	0
 4309 0051 00       		.byte	0
 4310 0052 07       		.uleb128 0x7
 4311 0053 0D       		.uleb128 0xd
 4312 0054 00       		.byte	0
 4313 0055 03       		.uleb128 0x3
 4314 0056 08       		.uleb128 0x8
 4315 0057 3A       		.uleb128 0x3a
 4316 0058 0B       		.uleb128 0xb
 4317 0059 3B       		.uleb128 0x3b
 4318 005a 0B       		.uleb128 0xb
 4319 005b 49       		.uleb128 0x49
 4320 005c 13       		.uleb128 0x13
 4321 005d 38       		.uleb128 0x38
 4322 005e 0B       		.uleb128 0xb
 4323 005f 00       		.byte	0
 4324 0060 00       		.byte	0
 4325 0061 08       		.uleb128 0x8
 4326 0062 13       		.uleb128 0x13
 4327 0063 01       		.byte	0x1
 4328 0064 0B       		.uleb128 0xb
 4329 0065 0B       		.uleb128 0xb
 4330 0066 3A       		.uleb128 0x3a
 4331 0067 0B       		.uleb128 0xb
 4332 0068 3B       		.uleb128 0x3b
 4333 0069 0B       		.uleb128 0xb
 4334 006a 01       		.uleb128 0x1
 4335 006b 13       		.uleb128 0x13
 4336 006c 00       		.byte	0
 4337 006d 00       		.byte	0
 4338 006e 09       		.uleb128 0x9
 4339 006f 0F       		.uleb128 0xf
 4340 0070 00       		.byte	0
 4341 0071 0B       		.uleb128 0xb
 4342 0072 0B       		.uleb128 0xb
 4343 0073 49       		.uleb128 0x49
 4344 0074 13       		.uleb128 0x13
 4345 0075 00       		.byte	0
 4346 0076 00       		.byte	0
 4347 0077 0A       		.uleb128 0xa
 4348 0078 0F       		.uleb128 0xf
 4349 0079 00       		.byte	0
 4350 007a 0B       		.uleb128 0xb
 4351 007b 0B       		.uleb128 0xb
 4352 007c 00       		.byte	0
 4353 007d 00       		.byte	0
 4354 007e 0B       		.uleb128 0xb
ARM GAS  /tmp/ccihpvPa.s 			page 78


 4355 007f 13       		.uleb128 0x13
 4356 0080 01       		.byte	0x1
 4357 0081 03       		.uleb128 0x3
 4358 0082 0E       		.uleb128 0xe
 4359 0083 0B       		.uleb128 0xb
 4360 0084 0B       		.uleb128 0xb
 4361 0085 3A       		.uleb128 0x3a
 4362 0086 0B       		.uleb128 0xb
 4363 0087 3B       		.uleb128 0x3b
 4364 0088 05       		.uleb128 0x5
 4365 0089 01       		.uleb128 0x1
 4366 008a 13       		.uleb128 0x13
 4367 008b 00       		.byte	0
 4368 008c 00       		.byte	0
 4369 008d 0C       		.uleb128 0xc
 4370 008e 0D       		.uleb128 0xd
 4371 008f 00       		.byte	0
 4372 0090 03       		.uleb128 0x3
 4373 0091 08       		.uleb128 0x8
 4374 0092 3A       		.uleb128 0x3a
 4375 0093 0B       		.uleb128 0xb
 4376 0094 3B       		.uleb128 0x3b
 4377 0095 05       		.uleb128 0x5
 4378 0096 49       		.uleb128 0x49
 4379 0097 13       		.uleb128 0x13
 4380 0098 38       		.uleb128 0x38
 4381 0099 0B       		.uleb128 0xb
 4382 009a 00       		.byte	0
 4383 009b 00       		.byte	0
 4384 009c 0D       		.uleb128 0xd
 4385 009d 35       		.uleb128 0x35
 4386 009e 00       		.byte	0
 4387 009f 49       		.uleb128 0x49
 4388 00a0 13       		.uleb128 0x13
 4389 00a1 00       		.byte	0
 4390 00a2 00       		.byte	0
 4391 00a3 0E       		.uleb128 0xe
 4392 00a4 15       		.uleb128 0x15
 4393 00a5 01       		.byte	0x1
 4394 00a6 27       		.uleb128 0x27
 4395 00a7 19       		.uleb128 0x19
 4396 00a8 01       		.uleb128 0x1
 4397 00a9 13       		.uleb128 0x13
 4398 00aa 00       		.byte	0
 4399 00ab 00       		.byte	0
 4400 00ac 0F       		.uleb128 0xf
 4401 00ad 05       		.uleb128 0x5
 4402 00ae 00       		.byte	0
 4403 00af 49       		.uleb128 0x49
 4404 00b0 13       		.uleb128 0x13
 4405 00b1 00       		.byte	0
 4406 00b2 00       		.byte	0
 4407 00b3 10       		.uleb128 0x10
 4408 00b4 17       		.uleb128 0x17
 4409 00b5 01       		.byte	0x1
 4410 00b6 0B       		.uleb128 0xb
 4411 00b7 0B       		.uleb128 0xb
ARM GAS  /tmp/ccihpvPa.s 			page 79


 4412 00b8 3A       		.uleb128 0x3a
 4413 00b9 0B       		.uleb128 0xb
 4414 00ba 3B       		.uleb128 0x3b
 4415 00bb 0B       		.uleb128 0xb
 4416 00bc 01       		.uleb128 0x1
 4417 00bd 13       		.uleb128 0x13
 4418 00be 00       		.byte	0
 4419 00bf 00       		.byte	0
 4420 00c0 11       		.uleb128 0x11
 4421 00c1 0D       		.uleb128 0xd
 4422 00c2 00       		.byte	0
 4423 00c3 03       		.uleb128 0x3
 4424 00c4 0E       		.uleb128 0xe
 4425 00c5 3A       		.uleb128 0x3a
 4426 00c6 0B       		.uleb128 0xb
 4427 00c7 3B       		.uleb128 0x3b
 4428 00c8 0B       		.uleb128 0xb
 4429 00c9 49       		.uleb128 0x49
 4430 00ca 13       		.uleb128 0x13
 4431 00cb 00       		.byte	0
 4432 00cc 00       		.byte	0
 4433 00cd 12       		.uleb128 0x12
 4434 00ce 26       		.uleb128 0x26
 4435 00cf 00       		.byte	0
 4436 00d0 49       		.uleb128 0x49
 4437 00d1 13       		.uleb128 0x13
 4438 00d2 00       		.byte	0
 4439 00d3 00       		.byte	0
 4440 00d4 13       		.uleb128 0x13
 4441 00d5 13       		.uleb128 0x13
 4442 00d6 00       		.byte	0
 4443 00d7 03       		.uleb128 0x3
 4444 00d8 0E       		.uleb128 0xe
 4445 00d9 3C       		.uleb128 0x3c
 4446 00da 19       		.uleb128 0x19
 4447 00db 00       		.byte	0
 4448 00dc 00       		.byte	0
 4449 00dd 14       		.uleb128 0x14
 4450 00de 16       		.uleb128 0x16
 4451 00df 00       		.byte	0
 4452 00e0 03       		.uleb128 0x3
 4453 00e1 0E       		.uleb128 0xe
 4454 00e2 3A       		.uleb128 0x3a
 4455 00e3 0B       		.uleb128 0xb
 4456 00e4 3B       		.uleb128 0x3b
 4457 00e5 05       		.uleb128 0x5
 4458 00e6 49       		.uleb128 0x49
 4459 00e7 13       		.uleb128 0x13
 4460 00e8 00       		.byte	0
 4461 00e9 00       		.byte	0
 4462 00ea 15       		.uleb128 0x15
 4463 00eb 04       		.uleb128 0x4
 4464 00ec 01       		.byte	0x1
 4465 00ed 0B       		.uleb128 0xb
 4466 00ee 0B       		.uleb128 0xb
 4467 00ef 3A       		.uleb128 0x3a
 4468 00f0 0B       		.uleb128 0xb
ARM GAS  /tmp/ccihpvPa.s 			page 80


 4469 00f1 3B       		.uleb128 0x3b
 4470 00f2 0B       		.uleb128 0xb
 4471 00f3 01       		.uleb128 0x1
 4472 00f4 13       		.uleb128 0x13
 4473 00f5 00       		.byte	0
 4474 00f6 00       		.byte	0
 4475 00f7 16       		.uleb128 0x16
 4476 00f8 28       		.uleb128 0x28
 4477 00f9 00       		.byte	0
 4478 00fa 03       		.uleb128 0x3
 4479 00fb 0E       		.uleb128 0xe
 4480 00fc 1C       		.uleb128 0x1c
 4481 00fd 0D       		.uleb128 0xd
 4482 00fe 00       		.byte	0
 4483 00ff 00       		.byte	0
 4484 0100 17       		.uleb128 0x17
 4485 0101 15       		.uleb128 0x15
 4486 0102 00       		.byte	0
 4487 0103 27       		.uleb128 0x27
 4488 0104 19       		.uleb128 0x19
 4489 0105 00       		.byte	0
 4490 0106 00       		.byte	0
 4491 0107 18       		.uleb128 0x18
 4492 0108 15       		.uleb128 0x15
 4493 0109 01       		.byte	0x1
 4494 010a 27       		.uleb128 0x27
 4495 010b 19       		.uleb128 0x19
 4496 010c 49       		.uleb128 0x49
 4497 010d 13       		.uleb128 0x13
 4498 010e 01       		.uleb128 0x1
 4499 010f 13       		.uleb128 0x13
 4500 0110 00       		.byte	0
 4501 0111 00       		.byte	0
 4502 0112 19       		.uleb128 0x19
 4503 0113 04       		.uleb128 0x4
 4504 0114 01       		.byte	0x1
 4505 0115 03       		.uleb128 0x3
 4506 0116 0E       		.uleb128 0xe
 4507 0117 0B       		.uleb128 0xb
 4508 0118 0B       		.uleb128 0xb
 4509 0119 3A       		.uleb128 0x3a
 4510 011a 0B       		.uleb128 0xb
 4511 011b 3B       		.uleb128 0x3b
 4512 011c 0B       		.uleb128 0xb
 4513 011d 01       		.uleb128 0x1
 4514 011e 13       		.uleb128 0x13
 4515 011f 00       		.byte	0
 4516 0120 00       		.byte	0
 4517 0121 1A       		.uleb128 0x1a
 4518 0122 2E       		.uleb128 0x2e
 4519 0123 00       		.byte	0
 4520 0124 3F       		.uleb128 0x3f
 4521 0125 19       		.uleb128 0x19
 4522 0126 03       		.uleb128 0x3
 4523 0127 0E       		.uleb128 0xe
 4524 0128 3A       		.uleb128 0x3a
 4525 0129 0B       		.uleb128 0xb
ARM GAS  /tmp/ccihpvPa.s 			page 81


 4526 012a 3B       		.uleb128 0x3b
 4527 012b 0B       		.uleb128 0xb
 4528 012c 27       		.uleb128 0x27
 4529 012d 19       		.uleb128 0x19
 4530 012e 11       		.uleb128 0x11
 4531 012f 01       		.uleb128 0x1
 4532 0130 12       		.uleb128 0x12
 4533 0131 06       		.uleb128 0x6
 4534 0132 40       		.uleb128 0x40
 4535 0133 18       		.uleb128 0x18
 4536 0134 9642     		.uleb128 0x2116
 4537 0136 19       		.uleb128 0x19
 4538 0137 00       		.byte	0
 4539 0138 00       		.byte	0
 4540 0139 1B       		.uleb128 0x1b
 4541 013a 2E       		.uleb128 0x2e
 4542 013b 01       		.byte	0x1
 4543 013c 3F       		.uleb128 0x3f
 4544 013d 19       		.uleb128 0x19
 4545 013e 03       		.uleb128 0x3
 4546 013f 0E       		.uleb128 0xe
 4547 0140 3A       		.uleb128 0x3a
 4548 0141 0B       		.uleb128 0xb
 4549 0142 3B       		.uleb128 0x3b
 4550 0143 0B       		.uleb128 0xb
 4551 0144 27       		.uleb128 0x27
 4552 0145 19       		.uleb128 0x19
 4553 0146 11       		.uleb128 0x11
 4554 0147 01       		.uleb128 0x1
 4555 0148 12       		.uleb128 0x12
 4556 0149 06       		.uleb128 0x6
 4557 014a 40       		.uleb128 0x40
 4558 014b 18       		.uleb128 0x18
 4559 014c 9642     		.uleb128 0x2116
 4560 014e 19       		.uleb128 0x19
 4561 014f 01       		.uleb128 0x1
 4562 0150 13       		.uleb128 0x13
 4563 0151 00       		.byte	0
 4564 0152 00       		.byte	0
 4565 0153 1C       		.uleb128 0x1c
 4566 0154 34       		.uleb128 0x34
 4567 0155 00       		.byte	0
 4568 0156 03       		.uleb128 0x3
 4569 0157 08       		.uleb128 0x8
 4570 0158 3A       		.uleb128 0x3a
 4571 0159 0B       		.uleb128 0xb
 4572 015a 3B       		.uleb128 0x3b
 4573 015b 0B       		.uleb128 0xb
 4574 015c 49       		.uleb128 0x49
 4575 015d 13       		.uleb128 0x13
 4576 015e 02       		.uleb128 0x2
 4577 015f 18       		.uleb128 0x18
 4578 0160 00       		.byte	0
 4579 0161 00       		.byte	0
 4580 0162 1D       		.uleb128 0x1d
 4581 0163 2E       		.uleb128 0x2e
 4582 0164 01       		.byte	0x1
ARM GAS  /tmp/ccihpvPa.s 			page 82


 4583 0165 03       		.uleb128 0x3
 4584 0166 0E       		.uleb128 0xe
 4585 0167 3A       		.uleb128 0x3a
 4586 0168 0B       		.uleb128 0xb
 4587 0169 3B       		.uleb128 0x3b
 4588 016a 0B       		.uleb128 0xb
 4589 016b 27       		.uleb128 0x27
 4590 016c 19       		.uleb128 0x19
 4591 016d 11       		.uleb128 0x11
 4592 016e 01       		.uleb128 0x1
 4593 016f 12       		.uleb128 0x12
 4594 0170 06       		.uleb128 0x6
 4595 0171 40       		.uleb128 0x40
 4596 0172 18       		.uleb128 0x18
 4597 0173 9642     		.uleb128 0x2116
 4598 0175 19       		.uleb128 0x19
 4599 0176 01       		.uleb128 0x1
 4600 0177 13       		.uleb128 0x13
 4601 0178 00       		.byte	0
 4602 0179 00       		.byte	0
 4603 017a 1E       		.uleb128 0x1e
 4604 017b 05       		.uleb128 0x5
 4605 017c 00       		.byte	0
 4606 017d 03       		.uleb128 0x3
 4607 017e 0E       		.uleb128 0xe
 4608 017f 3A       		.uleb128 0x3a
 4609 0180 0B       		.uleb128 0xb
 4610 0181 3B       		.uleb128 0x3b
 4611 0182 0B       		.uleb128 0xb
 4612 0183 49       		.uleb128 0x49
 4613 0184 13       		.uleb128 0x13
 4614 0185 02       		.uleb128 0x2
 4615 0186 18       		.uleb128 0x18
 4616 0187 00       		.byte	0
 4617 0188 00       		.byte	0
 4618 0189 1F       		.uleb128 0x1f
 4619 018a 05       		.uleb128 0x5
 4620 018b 00       		.byte	0
 4621 018c 03       		.uleb128 0x3
 4622 018d 08       		.uleb128 0x8
 4623 018e 3A       		.uleb128 0x3a
 4624 018f 0B       		.uleb128 0xb
 4625 0190 3B       		.uleb128 0x3b
 4626 0191 0B       		.uleb128 0xb
 4627 0192 49       		.uleb128 0x49
 4628 0193 13       		.uleb128 0x13
 4629 0194 02       		.uleb128 0x2
 4630 0195 18       		.uleb128 0x18
 4631 0196 00       		.byte	0
 4632 0197 00       		.byte	0
 4633 0198 20       		.uleb128 0x20
 4634 0199 0A       		.uleb128 0xa
 4635 019a 00       		.byte	0
 4636 019b 03       		.uleb128 0x3
 4637 019c 0E       		.uleb128 0xe
 4638 019d 3A       		.uleb128 0x3a
 4639 019e 0B       		.uleb128 0xb
ARM GAS  /tmp/ccihpvPa.s 			page 83


 4640 019f 3B       		.uleb128 0x3b
 4641 01a0 05       		.uleb128 0x5
 4642 01a1 11       		.uleb128 0x11
 4643 01a2 01       		.uleb128 0x1
 4644 01a3 00       		.byte	0
 4645 01a4 00       		.byte	0
 4646 01a5 21       		.uleb128 0x21
 4647 01a6 2E       		.uleb128 0x2e
 4648 01a7 01       		.byte	0x1
 4649 01a8 3F       		.uleb128 0x3f
 4650 01a9 19       		.uleb128 0x19
 4651 01aa 03       		.uleb128 0x3
 4652 01ab 0E       		.uleb128 0xe
 4653 01ac 3A       		.uleb128 0x3a
 4654 01ad 0B       		.uleb128 0xb
 4655 01ae 3B       		.uleb128 0x3b
 4656 01af 05       		.uleb128 0x5
 4657 01b0 27       		.uleb128 0x27
 4658 01b1 19       		.uleb128 0x19
 4659 01b2 11       		.uleb128 0x11
 4660 01b3 01       		.uleb128 0x1
 4661 01b4 12       		.uleb128 0x12
 4662 01b5 06       		.uleb128 0x6
 4663 01b6 40       		.uleb128 0x40
 4664 01b7 18       		.uleb128 0x18
 4665 01b8 9642     		.uleb128 0x2116
 4666 01ba 19       		.uleb128 0x19
 4667 01bb 01       		.uleb128 0x1
 4668 01bc 13       		.uleb128 0x13
 4669 01bd 00       		.byte	0
 4670 01be 00       		.byte	0
 4671 01bf 22       		.uleb128 0x22
 4672 01c0 05       		.uleb128 0x5
 4673 01c1 00       		.byte	0
 4674 01c2 03       		.uleb128 0x3
 4675 01c3 08       		.uleb128 0x8
 4676 01c4 3A       		.uleb128 0x3a
 4677 01c5 0B       		.uleb128 0xb
 4678 01c6 3B       		.uleb128 0x3b
 4679 01c7 05       		.uleb128 0x5
 4680 01c8 49       		.uleb128 0x49
 4681 01c9 13       		.uleb128 0x13
 4682 01ca 02       		.uleb128 0x2
 4683 01cb 18       		.uleb128 0x18
 4684 01cc 00       		.byte	0
 4685 01cd 00       		.byte	0
 4686 01ce 23       		.uleb128 0x23
 4687 01cf 2E       		.uleb128 0x2e
 4688 01d0 01       		.byte	0x1
 4689 01d1 3F       		.uleb128 0x3f
 4690 01d2 19       		.uleb128 0x19
 4691 01d3 03       		.uleb128 0x3
 4692 01d4 0E       		.uleb128 0xe
 4693 01d5 3A       		.uleb128 0x3a
 4694 01d6 0B       		.uleb128 0xb
 4695 01d7 3B       		.uleb128 0x3b
 4696 01d8 05       		.uleb128 0x5
ARM GAS  /tmp/ccihpvPa.s 			page 84


 4697 01d9 27       		.uleb128 0x27
 4698 01da 19       		.uleb128 0x19
 4699 01db 49       		.uleb128 0x49
 4700 01dc 13       		.uleb128 0x13
 4701 01dd 11       		.uleb128 0x11
 4702 01de 01       		.uleb128 0x1
 4703 01df 12       		.uleb128 0x12
 4704 01e0 06       		.uleb128 0x6
 4705 01e1 40       		.uleb128 0x40
 4706 01e2 18       		.uleb128 0x18
 4707 01e3 9642     		.uleb128 0x2116
 4708 01e5 19       		.uleb128 0x19
 4709 01e6 01       		.uleb128 0x1
 4710 01e7 13       		.uleb128 0x13
 4711 01e8 00       		.byte	0
 4712 01e9 00       		.byte	0
 4713 01ea 24       		.uleb128 0x24
 4714 01eb 05       		.uleb128 0x5
 4715 01ec 00       		.byte	0
 4716 01ed 03       		.uleb128 0x3
 4717 01ee 0E       		.uleb128 0xe
 4718 01ef 3A       		.uleb128 0x3a
 4719 01f0 0B       		.uleb128 0xb
 4720 01f1 3B       		.uleb128 0x3b
 4721 01f2 05       		.uleb128 0x5
 4722 01f3 49       		.uleb128 0x49
 4723 01f4 13       		.uleb128 0x13
 4724 01f5 02       		.uleb128 0x2
 4725 01f6 18       		.uleb128 0x18
 4726 01f7 00       		.byte	0
 4727 01f8 00       		.byte	0
 4728 01f9 25       		.uleb128 0x25
 4729 01fa 2E       		.uleb128 0x2e
 4730 01fb 01       		.byte	0x1
 4731 01fc 3F       		.uleb128 0x3f
 4732 01fd 19       		.uleb128 0x19
 4733 01fe 03       		.uleb128 0x3
 4734 01ff 0E       		.uleb128 0xe
 4735 0200 3A       		.uleb128 0x3a
 4736 0201 0B       		.uleb128 0xb
 4737 0202 3B       		.uleb128 0x3b
 4738 0203 05       		.uleb128 0x5
 4739 0204 27       		.uleb128 0x27
 4740 0205 19       		.uleb128 0x19
 4741 0206 49       		.uleb128 0x49
 4742 0207 13       		.uleb128 0x13
 4743 0208 11       		.uleb128 0x11
 4744 0209 01       		.uleb128 0x1
 4745 020a 12       		.uleb128 0x12
 4746 020b 06       		.uleb128 0x6
 4747 020c 40       		.uleb128 0x40
 4748 020d 18       		.uleb128 0x18
 4749 020e 9742     		.uleb128 0x2117
 4750 0210 19       		.uleb128 0x19
 4751 0211 01       		.uleb128 0x1
 4752 0212 13       		.uleb128 0x13
 4753 0213 00       		.byte	0
ARM GAS  /tmp/ccihpvPa.s 			page 85


 4754 0214 00       		.byte	0
 4755 0215 26       		.uleb128 0x26
 4756 0216 34       		.uleb128 0x34
 4757 0217 00       		.byte	0
 4758 0218 03       		.uleb128 0x3
 4759 0219 08       		.uleb128 0x8
 4760 021a 3A       		.uleb128 0x3a
 4761 021b 0B       		.uleb128 0xb
 4762 021c 3B       		.uleb128 0x3b
 4763 021d 05       		.uleb128 0x5
 4764 021e 49       		.uleb128 0x49
 4765 021f 13       		.uleb128 0x13
 4766 0220 02       		.uleb128 0x2
 4767 0221 18       		.uleb128 0x18
 4768 0222 00       		.byte	0
 4769 0223 00       		.byte	0
 4770 0224 27       		.uleb128 0x27
 4771 0225 2E       		.uleb128 0x2e
 4772 0226 00       		.byte	0
 4773 0227 03       		.uleb128 0x3
 4774 0228 0E       		.uleb128 0xe
 4775 0229 3A       		.uleb128 0x3a
 4776 022a 0B       		.uleb128 0xb
 4777 022b 3B       		.uleb128 0x3b
 4778 022c 05       		.uleb128 0x5
 4779 022d 27       		.uleb128 0x27
 4780 022e 19       		.uleb128 0x19
 4781 022f 11       		.uleb128 0x11
 4782 0230 01       		.uleb128 0x1
 4783 0231 12       		.uleb128 0x12
 4784 0232 06       		.uleb128 0x6
 4785 0233 40       		.uleb128 0x40
 4786 0234 18       		.uleb128 0x18
 4787 0235 9742     		.uleb128 0x2117
 4788 0237 19       		.uleb128 0x19
 4789 0238 00       		.byte	0
 4790 0239 00       		.byte	0
 4791 023a 28       		.uleb128 0x28
 4792 023b 2E       		.uleb128 0x2e
 4793 023c 01       		.byte	0x1
 4794 023d 03       		.uleb128 0x3
 4795 023e 0E       		.uleb128 0xe
 4796 023f 3A       		.uleb128 0x3a
 4797 0240 0B       		.uleb128 0xb
 4798 0241 3B       		.uleb128 0x3b
 4799 0242 05       		.uleb128 0x5
 4800 0243 27       		.uleb128 0x27
 4801 0244 19       		.uleb128 0x19
 4802 0245 49       		.uleb128 0x49
 4803 0246 13       		.uleb128 0x13
 4804 0247 11       		.uleb128 0x11
 4805 0248 01       		.uleb128 0x1
 4806 0249 12       		.uleb128 0x12
 4807 024a 06       		.uleb128 0x6
 4808 024b 40       		.uleb128 0x40
 4809 024c 18       		.uleb128 0x18
 4810 024d 9642     		.uleb128 0x2116
ARM GAS  /tmp/ccihpvPa.s 			page 86


 4811 024f 19       		.uleb128 0x19
 4812 0250 01       		.uleb128 0x1
 4813 0251 13       		.uleb128 0x13
 4814 0252 00       		.byte	0
 4815 0253 00       		.byte	0
 4816 0254 29       		.uleb128 0x29
 4817 0255 2E       		.uleb128 0x2e
 4818 0256 01       		.byte	0x1
 4819 0257 03       		.uleb128 0x3
 4820 0258 0E       		.uleb128 0xe
 4821 0259 3A       		.uleb128 0x3a
 4822 025a 0B       		.uleb128 0xb
 4823 025b 3B       		.uleb128 0x3b
 4824 025c 05       		.uleb128 0x5
 4825 025d 27       		.uleb128 0x27
 4826 025e 19       		.uleb128 0x19
 4827 025f 11       		.uleb128 0x11
 4828 0260 01       		.uleb128 0x1
 4829 0261 12       		.uleb128 0x12
 4830 0262 06       		.uleb128 0x6
 4831 0263 40       		.uleb128 0x40
 4832 0264 18       		.uleb128 0x18
 4833 0265 9642     		.uleb128 0x2116
 4834 0267 19       		.uleb128 0x19
 4835 0268 01       		.uleb128 0x1
 4836 0269 13       		.uleb128 0x13
 4837 026a 00       		.byte	0
 4838 026b 00       		.byte	0
 4839 026c 2A       		.uleb128 0x2a
 4840 026d 0B       		.uleb128 0xb
 4841 026e 01       		.byte	0x1
 4842 026f 11       		.uleb128 0x11
 4843 0270 01       		.uleb128 0x1
 4844 0271 12       		.uleb128 0x12
 4845 0272 06       		.uleb128 0x6
 4846 0273 00       		.byte	0
 4847 0274 00       		.byte	0
 4848 0275 2B       		.uleb128 0x2b
 4849 0276 2E       		.uleb128 0x2e
 4850 0277 01       		.byte	0x1
 4851 0278 03       		.uleb128 0x3
 4852 0279 0E       		.uleb128 0xe
 4853 027a 3A       		.uleb128 0x3a
 4854 027b 0B       		.uleb128 0xb
 4855 027c 3B       		.uleb128 0x3b
 4856 027d 05       		.uleb128 0x5
 4857 027e 27       		.uleb128 0x27
 4858 027f 19       		.uleb128 0x19
 4859 0280 11       		.uleb128 0x11
 4860 0281 01       		.uleb128 0x1
 4861 0282 12       		.uleb128 0x12
 4862 0283 06       		.uleb128 0x6
 4863 0284 40       		.uleb128 0x40
 4864 0285 18       		.uleb128 0x18
 4865 0286 9742     		.uleb128 0x2117
 4866 0288 19       		.uleb128 0x19
 4867 0289 01       		.uleb128 0x1
ARM GAS  /tmp/ccihpvPa.s 			page 87


 4868 028a 13       		.uleb128 0x13
 4869 028b 00       		.byte	0
 4870 028c 00       		.byte	0
 4871 028d 2C       		.uleb128 0x2c
 4872 028e 34       		.uleb128 0x34
 4873 028f 00       		.byte	0
 4874 0290 03       		.uleb128 0x3
 4875 0291 0E       		.uleb128 0xe
 4876 0292 3A       		.uleb128 0x3a
 4877 0293 0B       		.uleb128 0xb
 4878 0294 3B       		.uleb128 0x3b
 4879 0295 0B       		.uleb128 0xb
 4880 0296 49       		.uleb128 0x49
 4881 0297 13       		.uleb128 0x13
 4882 0298 02       		.uleb128 0x2
 4883 0299 18       		.uleb128 0x18
 4884 029a 00       		.byte	0
 4885 029b 00       		.byte	0
 4886 029c 2D       		.uleb128 0x2d
 4887 029d 34       		.uleb128 0x34
 4888 029e 00       		.byte	0
 4889 029f 03       		.uleb128 0x3
 4890 02a0 0E       		.uleb128 0xe
 4891 02a1 3A       		.uleb128 0x3a
 4892 02a2 0B       		.uleb128 0xb
 4893 02a3 3B       		.uleb128 0x3b
 4894 02a4 05       		.uleb128 0x5
 4895 02a5 49       		.uleb128 0x49
 4896 02a6 13       		.uleb128 0x13
 4897 02a7 02       		.uleb128 0x2
 4898 02a8 18       		.uleb128 0x18
 4899 02a9 00       		.byte	0
 4900 02aa 00       		.byte	0
 4901 02ab 2E       		.uleb128 0x2e
 4902 02ac 34       		.uleb128 0x34
 4903 02ad 00       		.byte	0
 4904 02ae 03       		.uleb128 0x3
 4905 02af 0E       		.uleb128 0xe
 4906 02b0 3A       		.uleb128 0x3a
 4907 02b1 0B       		.uleb128 0xb
 4908 02b2 3B       		.uleb128 0x3b
 4909 02b3 05       		.uleb128 0x5
 4910 02b4 49       		.uleb128 0x49
 4911 02b5 13       		.uleb128 0x13
 4912 02b6 3F       		.uleb128 0x3f
 4913 02b7 19       		.uleb128 0x19
 4914 02b8 3C       		.uleb128 0x3c
 4915 02b9 19       		.uleb128 0x19
 4916 02ba 00       		.byte	0
 4917 02bb 00       		.byte	0
 4918 02bc 2F       		.uleb128 0x2f
 4919 02bd 34       		.uleb128 0x34
 4920 02be 00       		.byte	0
 4921 02bf 03       		.uleb128 0x3
 4922 02c0 0E       		.uleb128 0xe
 4923 02c1 3A       		.uleb128 0x3a
 4924 02c2 0B       		.uleb128 0xb
ARM GAS  /tmp/ccihpvPa.s 			page 88


 4925 02c3 3B       		.uleb128 0x3b
 4926 02c4 0B       		.uleb128 0xb
 4927 02c5 49       		.uleb128 0x49
 4928 02c6 13       		.uleb128 0x13
 4929 02c7 3F       		.uleb128 0x3f
 4930 02c8 19       		.uleb128 0x19
 4931 02c9 02       		.uleb128 0x2
 4932 02ca 18       		.uleb128 0x18
 4933 02cb 00       		.byte	0
 4934 02cc 00       		.byte	0
 4935 02cd 30       		.uleb128 0x30
 4936 02ce 34       		.uleb128 0x34
 4937 02cf 00       		.byte	0
 4938 02d0 03       		.uleb128 0x3
 4939 02d1 0E       		.uleb128 0xe
 4940 02d2 3A       		.uleb128 0x3a
 4941 02d3 0B       		.uleb128 0xb
 4942 02d4 3B       		.uleb128 0x3b
 4943 02d5 05       		.uleb128 0x5
 4944 02d6 49       		.uleb128 0x49
 4945 02d7 13       		.uleb128 0x13
 4946 02d8 3F       		.uleb128 0x3f
 4947 02d9 19       		.uleb128 0x19
 4948 02da 02       		.uleb128 0x2
 4949 02db 18       		.uleb128 0x18
 4950 02dc 00       		.byte	0
 4951 02dd 00       		.byte	0
 4952 02de 00       		.byte	0
 4953              		.section	.debug_aranges,"",%progbits
 4954 0000 F4000000 		.4byte	0xf4
 4955 0004 0200     		.2byte	0x2
 4956 0006 00000000 		.4byte	.Ldebug_info0
 4957 000a 04       		.byte	0x4
 4958 000b 00       		.byte	0
 4959 000c 0000     		.2byte	0
 4960 000e 0000     		.2byte	0
 4961 0010 00000000 		.4byte	.LFB111
 4962 0014 5C000000 		.4byte	.LFE111-.LFB111
 4963 0018 00000000 		.4byte	.LFB112
 4964 001c 44000000 		.4byte	.LFE112-.LFB112
 4965 0020 00000000 		.4byte	.LFB113
 4966 0024 12000000 		.4byte	.LFE113-.LFB113
 4967 0028 00000000 		.4byte	.LFB114
 4968 002c 1C020000 		.4byte	.LFE114-.LFB114
 4969 0030 00000000 		.4byte	.LFB115
 4970 0034 44000000 		.4byte	.LFE115-.LFB115
 4971 0038 00000000 		.4byte	.LFB116
 4972 003c 68000000 		.4byte	.LFE116-.LFB116
 4973 0040 00000000 		.4byte	.LFB117
 4974 0044 48000000 		.4byte	.LFE117-.LFB117
 4975 0048 00000000 		.4byte	.LFB118
 4976 004c 34000000 		.4byte	.LFE118-.LFB118
 4977 0050 00000000 		.4byte	.LFB119
 4978 0054 44000000 		.4byte	.LFE119-.LFB119
 4979 0058 00000000 		.4byte	.LFB120
 4980 005c 40000000 		.4byte	.LFE120-.LFB120
 4981 0060 00000000 		.4byte	.LFB121
ARM GAS  /tmp/ccihpvPa.s 			page 89


 4982 0064 8C000000 		.4byte	.LFE121-.LFB121
 4983 0068 00000000 		.4byte	.LFB122
 4984 006c 58000000 		.4byte	.LFE122-.LFB122
 4985 0070 00000000 		.4byte	.LFB123
 4986 0074 30000000 		.4byte	.LFE123-.LFB123
 4987 0078 00000000 		.4byte	.LFB124
 4988 007c 30000000 		.4byte	.LFE124-.LFB124
 4989 0080 00000000 		.4byte	.LFB125
 4990 0084 28000000 		.4byte	.LFE125-.LFB125
 4991 0088 00000000 		.4byte	.LFB126
 4992 008c 1C000000 		.4byte	.LFE126-.LFB126
 4993 0090 00000000 		.4byte	.LFB127
 4994 0094 2C000000 		.4byte	.LFE127-.LFB127
 4995 0098 00000000 		.4byte	.LFB128
 4996 009c 6A000000 		.4byte	.LFE128-.LFB128
 4997 00a0 00000000 		.4byte	.LFB129
 4998 00a4 20000000 		.4byte	.LFE129-.LFB129
 4999 00a8 00000000 		.4byte	.LFB130
 5000 00ac 02000000 		.4byte	.LFE130-.LFB130
 5001 00b0 00000000 		.4byte	.LFB131
 5002 00b4 02000000 		.4byte	.LFE131-.LFB131
 5003 00b8 00000000 		.4byte	.LFB132
 5004 00bc 68000000 		.4byte	.LFE132-.LFB132
 5005 00c0 00000000 		.4byte	.LFB133
 5006 00c4 1C000000 		.4byte	.LFE133-.LFB133
 5007 00c8 00000000 		.4byte	.LFB134
 5008 00cc B4010000 		.4byte	.LFE134-.LFB134
 5009 00d0 00000000 		.4byte	.LFB135
 5010 00d4 36010000 		.4byte	.LFE135-.LFB135
 5011 00d8 00000000 		.4byte	.LFB136
 5012 00dc 9C010000 		.4byte	.LFE136-.LFB136
 5013 00e0 00000000 		.4byte	.LFB137
 5014 00e4 0E000000 		.4byte	.LFE137-.LFB137
 5015 00e8 00000000 		.4byte	.LFB138
 5016 00ec 2C000000 		.4byte	.LFE138-.LFB138
 5017 00f0 00000000 		.4byte	0
 5018 00f4 00000000 		.4byte	0
 5019              		.section	.debug_ranges,"",%progbits
 5020              	.Ldebug_ranges0:
 5021 0000 00000000 		.4byte	.LFB111
 5022 0004 5C000000 		.4byte	.LFE111
 5023 0008 00000000 		.4byte	.LFB112
 5024 000c 44000000 		.4byte	.LFE112
 5025 0010 00000000 		.4byte	.LFB113
 5026 0014 12000000 		.4byte	.LFE113
 5027 0018 00000000 		.4byte	.LFB114
 5028 001c 1C020000 		.4byte	.LFE114
 5029 0020 00000000 		.4byte	.LFB115
 5030 0024 44000000 		.4byte	.LFE115
 5031 0028 00000000 		.4byte	.LFB116
 5032 002c 68000000 		.4byte	.LFE116
 5033 0030 00000000 		.4byte	.LFB117
 5034 0034 48000000 		.4byte	.LFE117
 5035 0038 00000000 		.4byte	.LFB118
 5036 003c 34000000 		.4byte	.LFE118
 5037 0040 00000000 		.4byte	.LFB119
 5038 0044 44000000 		.4byte	.LFE119
ARM GAS  /tmp/ccihpvPa.s 			page 90


 5039 0048 00000000 		.4byte	.LFB120
 5040 004c 40000000 		.4byte	.LFE120
 5041 0050 00000000 		.4byte	.LFB121
 5042 0054 8C000000 		.4byte	.LFE121
 5043 0058 00000000 		.4byte	.LFB122
 5044 005c 58000000 		.4byte	.LFE122
 5045 0060 00000000 		.4byte	.LFB123
 5046 0064 30000000 		.4byte	.LFE123
 5047 0068 00000000 		.4byte	.LFB124
 5048 006c 30000000 		.4byte	.LFE124
 5049 0070 00000000 		.4byte	.LFB125
 5050 0074 28000000 		.4byte	.LFE125
 5051 0078 00000000 		.4byte	.LFB126
 5052 007c 1C000000 		.4byte	.LFE126
 5053 0080 00000000 		.4byte	.LFB127
 5054 0084 2C000000 		.4byte	.LFE127
 5055 0088 00000000 		.4byte	.LFB128
 5056 008c 6A000000 		.4byte	.LFE128
 5057 0090 00000000 		.4byte	.LFB129
 5058 0094 20000000 		.4byte	.LFE129
 5059 0098 00000000 		.4byte	.LFB130
 5060 009c 02000000 		.4byte	.LFE130
 5061 00a0 00000000 		.4byte	.LFB131
 5062 00a4 02000000 		.4byte	.LFE131
 5063 00a8 00000000 		.4byte	.LFB132
 5064 00ac 68000000 		.4byte	.LFE132
 5065 00b0 00000000 		.4byte	.LFB133
 5066 00b4 1C000000 		.4byte	.LFE133
 5067 00b8 00000000 		.4byte	.LFB134
 5068 00bc B4010000 		.4byte	.LFE134
 5069 00c0 00000000 		.4byte	.LFB135
 5070 00c4 36010000 		.4byte	.LFE135
 5071 00c8 00000000 		.4byte	.LFB136
 5072 00cc 9C010000 		.4byte	.LFE136
 5073 00d0 00000000 		.4byte	.LFB137
 5074 00d4 0E000000 		.4byte	.LFE137
 5075 00d8 00000000 		.4byte	.LFB138
 5076 00dc 2C000000 		.4byte	.LFE138
 5077 00e0 00000000 		.4byte	0
 5078 00e4 00000000 		.4byte	0
 5079              		.section	.debug_line,"",%progbits
 5080              	.Ldebug_line0:
 5081 0000 CF060000 		.section	.debug_str,"MS",%progbits,1
 5081      02003503 
 5081      00000201 
 5081      FB0E0D00 
 5081      01010101 
 5082              	.LASF140:
 5083 0000 6777696E 		.ascii	"gwinMove\000"
 5083      4D6F7665 
 5083      00
 5084              	.LASF88:
 5085 0009 70726576 		.ascii	"prev\000"
 5085      00
 5086              	.LASF68:
 5087 000e 7264796D 		.ascii	"rdymsg\000"
 5087      736700
ARM GAS  /tmp/ccihpvPa.s 			page 91


 5088              	.LASF21:
 5089 0015 75696E74 		.ascii	"uint64_t\000"
 5089      36345F74 
 5089      00
 5090              	.LASF3:
 5091 001e 5F5F7569 		.ascii	"__uint8_t\000"
 5091      6E74385F 
 5091      7400
 5092              	.LASF103:
 5093 0028 636C6173 		.ascii	"classname\000"
 5093      736E616D 
 5093      6500
 5094              	.LASF86:
 5095 0032 70657269 		.ascii	"period\000"
 5095      6F6400
 5096              	.LASF148:
 5097 0039 6777696E 		.ascii	"gwinGetNextWindow\000"
 5097      4765744E 
 5097      65787457 
 5097      696E646F 
 5097      7700
 5098              	.LASF15:
 5099 004b 6C6F6E67 		.ascii	"long long unsigned int\000"
 5099      206C6F6E 
 5099      6720756E 
 5099      7369676E 
 5099      65642069 
 5100              	.LASF142:
 5101 0062 6777696E 		.ascii	"gwinSetMinMax\000"
 5101      5365744D 
 5101      696E4D61 
 5101      7800
 5102              	.LASF144:
 5103 0070 6777696E 		.ascii	"gwinRaise\000"
 5103      52616973 
 5103      6500
 5104              	.LASF69:
 5105 007a 65786974 		.ascii	"exitcode\000"
 5105      636F6465 
 5105      00
 5106              	.LASF138:
 5107 0083 6777696E 		.ascii	"gwinSetEnabled\000"
 5107      53657445 
 5107      6E61626C 
 5107      656400
 5108              	.LASF75:
 5109 0092 6C696D69 		.ascii	"limit\000"
 5109      7400
 5110              	.LASF163:
 5111 0098 49544D5F 		.ascii	"ITM_RxBuffer\000"
 5111      52784275 
 5111      66666572 
 5111      00
 5112              	.LASF78:
 5113 00a5 6E657874 		.ascii	"next\000"
 5113      00
 5114              	.LASF36:
ARM GAS  /tmp/ccihpvPa.s 			page 92


 5115 00aa 705F7072 		.ascii	"p_prio\000"
 5115      696F00
 5116              	.LASF112:
 5117 00b1 4757494E 		.ascii	"GWIN_MINIMIZE\000"
 5117      5F4D494E 
 5117      494D495A 
 5117      4500
 5118              	.LASF136:
 5119 00bf 6777696E 		.ascii	"gwinSetVisible\000"
 5119      53657456 
 5119      69736962 
 5119      6C6500
 5120              	.LASF17:
 5121 00ce 696E7431 		.ascii	"int16_t\000"
 5121      365F7400 
 5122              	.LASF13:
 5123 00d6 6C6F6E67 		.ascii	"long long int\000"
 5123      206C6F6E 
 5123      6720696E 
 5123      7400
 5124              	.LASF1:
 5125 00e4 7369676E 		.ascii	"signed char\000"
 5125      65642063 
 5125      68617200 
 5126              	.LASF109:
 5127 00f0 73686F77 		.ascii	"show\000"
 5127      00
 5128              	.LASF53:
 5129 00f5 705F6D70 		.ascii	"p_mpool\000"
 5129      6F6F6C00 
 5130              	.LASF22:
 5131 00fd 626F6F6C 		.ascii	"bool_t\000"
 5131      5F7400
 5132              	.LASF65:
 5133 0104 6D5F7175 		.ascii	"m_queue\000"
 5133      65756500 
 5134              	.LASF147:
 5135 010c 70726573 		.ascii	"preserve\000"
 5135      65727665 
 5135      00
 5136              	.LASF27:
 5137 0115 74736C69 		.ascii	"tslices_t\000"
 5137      6365735F 
 5137      7400
 5138              	.LASF10:
 5139 011f 6C6F6E67 		.ascii	"long int\000"
 5139      20696E74 
 5139      00
 5140              	.LASF124:
 5141 0128 52454452 		.ascii	"REDRAW_NOWAIT\000"
 5141      41575F4E 
 5141      4F574149 
 5141      5400
 5142              	.LASF25:
 5143 0136 74737461 		.ascii	"tstate_t\000"
 5143      74655F74 
 5143      00
ARM GAS  /tmp/ccihpvPa.s 			page 93


 5144              	.LASF73:
 5145 013f 73797374 		.ascii	"systemticks_t\000"
 5145      656D7469 
 5145      636B735F 
 5145      7400
 5146              	.LASF125:
 5147 014d 52454452 		.ascii	"REDRAW_INSESSION\000"
 5147      41575F49 
 5147      4E534553 
 5147      53494F4E 
 5147      00
 5148              	.LASF117:
 5149 015e 4465496E 		.ascii	"DeInit\000"
 5149      697400
 5150              	.LASF158:
 5151 0165 6777696E 		.ascii	"gwinsem\000"
 5151      73656D00 
 5152              	.LASF135:
 5153 016d 6777696E 		.ascii	"gwinRedraw\000"
 5153      52656472 
 5153      617700
 5154              	.LASF38:
 5155 0178 705F6E65 		.ascii	"p_newer\000"
 5155      77657200 
 5156              	.LASF14:
 5157 0180 5F5F7569 		.ascii	"__uint64_t\000"
 5157      6E743634 
 5157      5F7400
 5158              	.LASF62:
 5159 018b 735F7175 		.ascii	"s_queue\000"
 5159      65756500 
 5160              	.LASF8:
 5161 0193 73686F72 		.ascii	"short unsigned int\000"
 5161      7420756E 
 5161      7369676E 
 5161      65642069 
 5161      6E7400
 5162              	.LASF123:
 5163 01a6 52454452 		.ascii	"REDRAW_WAIT\000"
 5163      41575F57 
 5163      41495400 
 5164              	.LASF82:
 5165 01b2 4754696D 		.ascii	"GTimerFunction\000"
 5165      65724675 
 5165      6E637469 
 5165      6F6E00
 5166              	.LASF74:
 5167 01c1 73656D63 		.ascii	"semcount_t\000"
 5167      6F756E74 
 5167      5F7400
 5168              	.LASF56:
 5169 01cc 72656761 		.ascii	"regarm_t\000"
 5169      726D5F74 
 5169      00
 5170              	.LASF131:
 5171 01d5 5F677769 		.ascii	"_gwinDrawStart\000"
 5171      6E447261 
ARM GAS  /tmp/ccihpvPa.s 			page 94


 5171      77537461 
 5171      727400
 5172              	.LASF145:
 5173 01e4 6777696E 		.ascii	"gwinGetMinMax\000"
 5173      4765744D 
 5173      696E4D61 
 5173      7800
 5174              	.LASF5:
 5175 01f2 5F5F696E 		.ascii	"__int16_t\000"
 5175      7431365F 
 5175      7400
 5176              	.LASF2:
 5177 01fc 73697A65 		.ascii	"size_t\000"
 5177      5F7400
 5178              	.LASF164:
 5179 0203 5F475749 		.ascii	"_GWINwm\000"
 5179      4E776D00 
 5180              	.LASF32:
 5181 020b 636E745F 		.ascii	"cnt_t\000"
 5181      7400
 5182              	.LASF41:
 5183 0211 705F7374 		.ascii	"p_stklimit\000"
 5183      6B6C696D 
 5183      697400
 5184              	.LASF0:
 5185 021c 756E7369 		.ascii	"unsigned int\000"
 5185      676E6564 
 5185      20696E74 
 5185      00
 5186              	.LASF113:
 5187 0229 4757696E 		.ascii	"GWindowMinMax\000"
 5187      646F774D 
 5187      696E4D61 
 5187      7800
 5188              	.LASF146:
 5189 0237 6777696E 		.ascii	"gwinRedrawDisplay\000"
 5189      52656472 
 5189      61774469 
 5189      73706C61 
 5189      7900
 5190              	.LASF46:
 5191 0249 705F7469 		.ascii	"p_time\000"
 5191      6D6500
 5192              	.LASF48:
 5193 0250 705F6D73 		.ascii	"p_msgqueue\000"
 5193      67717565 
 5193      756500
 5194              	.LASF114:
 5195 025b 4757696E 		.ascii	"GWindowManager\000"
 5195      646F774D 
 5195      616E6167 
 5195      657200
 5196              	.LASF97:
 5197 026a 77696474 		.ascii	"width\000"
 5197      6800
 5198              	.LASF85:
 5199 0270 7768656E 		.ascii	"when\000"
ARM GAS  /tmp/ccihpvPa.s 			page 95


 5199      00
 5200              	.LASF104:
 5201 0275 73697A65 		.ascii	"size\000"
 5201      00
 5202              	.LASF171:
 5203 027a 574D5F41 		.ascii	"WM_Add\000"
 5203      646400
 5204              	.LASF29:
 5205 0281 6D73675F 		.ascii	"msg_t\000"
 5205      7400
 5206              	.LASF96:
 5207 0287 64697370 		.ascii	"display\000"
 5207      6C617900 
 5208              	.LASF52:
 5209 028f 705F7265 		.ascii	"p_realprio\000"
 5209      616C7072 
 5209      696F00
 5210              	.LASF92:
 5211 029a 47446973 		.ascii	"GDisplay\000"
 5211      706C6179 
 5211      00
 5212              	.LASF24:
 5213 02a3 746D6F64 		.ascii	"tmode_t\000"
 5213      655F7400 
 5214              	.LASF18:
 5215 02ab 75696E74 		.ascii	"uint16_t\000"
 5215      31365F74 
 5215      00
 5216              	.LASF55:
 5217 02b4 54687265 		.ascii	"ThreadsList\000"
 5217      6164734C 
 5217      69737400 
 5218              	.LASF126:
 5219 02c0 47526564 		.ascii	"GRedrawMethod\000"
 5219      7261774D 
 5219      6574686F 
 5219      6400
 5220              	.LASF30:
 5221 02ce 6576656E 		.ascii	"eventmask_t\000"
 5221      746D6173 
 5221      6B5F7400 
 5222              	.LASF150:
 5223 02da 574D5F44 		.ascii	"WM_DeInit\000"
 5223      65496E69 
 5223      7400
 5224              	.LASF99:
 5225 02e4 636F6C6F 		.ascii	"color\000"
 5225      7200
 5226              	.LASF57:
 5227 02ea 73746B61 		.ascii	"stkalign_t\000"
 5227      6C69676E 
 5227      5F7400
 5228              	.LASF157:
 5229 02f5 574D5F52 		.ascii	"WM_Raise\000"
 5229      61697365 
 5229      00
 5230              	.LASF141:
ARM GAS  /tmp/ccihpvPa.s 			page 96


 5231 02fe 6777696E 		.ascii	"gwinResize\000"
 5231      52657369 
 5231      7A6500
 5232              	.LASF93:
 5233 0309 6D665F66 		.ascii	"mf_font_s\000"
 5233      6F6E745F 
 5233      7300
 5234              	.LASF94:
 5235 0313 636F6C6F 		.ascii	"color_t\000"
 5235      725F7400 
 5236              	.LASF89:
 5237 031b 4754696D 		.ascii	"GTimer\000"
 5237      657200
 5238              	.LASF159:
 5239 0322 5F475749 		.ascii	"_GWINList\000"
 5239      4E4C6973 
 5239      7400
 5240              	.LASF81:
 5241 032c 7461696C 		.ascii	"tail\000"
 5241      00
 5242              	.LASF60:
 5243 0331 73697A65 		.ascii	"sizetype\000"
 5243      74797065 
 5243      00
 5244              	.LASF167:
 5245 033a 474E5520 		.ascii	"GNU C 4.9.3 20150303 (release) [ARM/embedded-4_9-br"
 5245      4320342E 
 5245      392E3320 
 5245      32303135 
 5245      30333033 
 5246 036d 616E6368 		.ascii	"anch revision 221220] -mcpu=cortex-m4 -mfloat-abi=h"
 5246      20726576 
 5246      6973696F 
 5246      6E203232 
 5246      31323230 
 5247 03a0 61726420 		.ascii	"ard -mfpu=fpv4-sp-d16 -mno-thumb-interwork -mthumb "
 5247      2D6D6670 
 5247      753D6670 
 5247      76342D73 
 5247      702D6431 
 5248 03d3 2D676764 		.ascii	"-ggdb -fomit-frame-pointer -falign-functions=16 -ff"
 5248      62202D66 
 5248      6F6D6974 
 5248      2D667261 
 5248      6D652D70 
 5249 0406 756E6374 		.ascii	"unction-sections -fdata-sections -fno-common -fsing"
 5249      696F6E2D 
 5249      73656374 
 5249      696F6E73 
 5249      202D6664 
 5250 0439 6C652D70 		.ascii	"le-precision-constant\000"
 5250      72656369 
 5250      73696F6E 
 5250      2D636F6E 
 5250      7374616E 
 5251              	.LASF64:
 5252 044f 4D757465 		.ascii	"Mutex\000"
ARM GAS  /tmp/ccihpvPa.s 			page 97


 5252      7800
 5253              	.LASF165:
 5254 0455 5F677769 		.ascii	"_gwinFlashState\000"
 5254      6E466C61 
 5254      73685374 
 5254      61746500 
 5255              	.LASF118:
 5256 0465 44656C65 		.ascii	"Delete\000"
 5256      746500
 5257              	.LASF84:
 5258 046c 70617261 		.ascii	"param\000"
 5258      6D00
 5259              	.LASF39:
 5260 0472 705F6F6C 		.ascii	"p_older\000"
 5260      64657200 
 5261              	.LASF130:
 5262 047a 5F677769 		.ascii	"_gwinDrawEnd\000"
 5262      6E447261 
 5262      77456E64 
 5262      00
 5263              	.LASF54:
 5264 0487 54687265 		.ascii	"ThreadsQueue\000"
 5264      61647351 
 5264      75657565 
 5264      00
 5265              	.LASF67:
 5266 0494 6D5F6E65 		.ascii	"m_next\000"
 5266      787400
 5267              	.LASF90:
 5268 049b 636F6F72 		.ascii	"coord_t\000"
 5268      645F7400 
 5269              	.LASF149:
 5270 04a3 574D5F49 		.ascii	"WM_Init\000"
 5270      6E697400 
 5271              	.LASF162:
 5272 04ab 474E756C 		.ascii	"GNullWindowManagerVMT\000"
 5272      6C57696E 
 5272      646F774D 
 5272      616E6167 
 5272      6572564D 
 5273              	.LASF154:
 5274 04c1 574D5F53 		.ascii	"WM_Size\000"
 5274      697A6500 
 5275              	.LASF121:
 5276 04c9 52616973 		.ascii	"Raise\000"
 5276      6500
 5277              	.LASF116:
 5278 04cf 496E6974 		.ascii	"Init\000"
 5278      00
 5279              	.LASF108:
 5280 04d4 4757696E 		.ascii	"GWindowInit\000"
 5280      646F7749 
 5280      6E697400 
 5281              	.LASF161:
 5282 04e0 52656472 		.ascii	"RedrawPending\000"
 5282      61775065 
 5282      6E64696E 
ARM GAS  /tmp/ccihpvPa.s 			page 98


 5282      6700
 5283              	.LASF119:
 5284 04ee 53697A65 		.ascii	"Size\000"
 5284      00
 5285              	.LASF26:
 5286 04f3 74726566 		.ascii	"trefs_t\000"
 5286      735F7400 
 5287              	.LASF100:
 5288 04fb 6267636F 		.ascii	"bgcolor\000"
 5288      6C6F7200 
 5289              	.LASF166:
 5290 0503 474E756C 		.ascii	"GNullWindowManager\000"
 5290      6C57696E 
 5290      646F774D 
 5290      616E6167 
 5290      657200
 5291              	.LASF91:
 5292 0516 666F6E74 		.ascii	"font_t\000"
 5292      5F7400
 5293              	.LASF35:
 5294 051d 705F7072 		.ascii	"p_prev\000"
 5294      657600
 5295              	.LASF28:
 5296 0524 74707269 		.ascii	"tprio_t\000"
 5296      6F5F7400 
 5297              	.LASF155:
 5298 052c 574D5F4D 		.ascii	"WM_Move\000"
 5298      6F766500 
 5299              	.LASF23:
 5300 0534 5F426F6F 		.ascii	"_Bool\000"
 5300      6C00
 5301              	.LASF19:
 5302 053a 696E7433 		.ascii	"int32_t\000"
 5302      325F7400 
 5303              	.LASF4:
 5304 0542 756E7369 		.ascii	"unsigned char\000"
 5304      676E6564 
 5304      20636861 
 5304      7200
 5305              	.LASF151:
 5306 0550 52656472 		.ascii	"RedrawTimerFn\000"
 5306      61775469 
 5306      6D657246 
 5306      6E00
 5307              	.LASF120:
 5308 055e 4D6F7665 		.ascii	"Move\000"
 5308      00
 5309              	.LASF63:
 5310 0563 735F636E 		.ascii	"s_cnt\000"
 5310      7400
 5311              	.LASF51:
 5312 0569 705F6D74 		.ascii	"p_mtxlist\000"
 5312      786C6973 
 5312      7400
 5313              	.LASF6:
 5314 0573 73686F72 		.ascii	"short int\000"
 5314      7420696E 
ARM GAS  /tmp/ccihpvPa.s 			page 99


 5314      7400
 5315              	.LASF42:
 5316 057d 705F7374 		.ascii	"p_state\000"
 5316      61746500 
 5317              	.LASF107:
 5318 0585 41667465 		.ascii	"AfterClear\000"
 5318      72436C65 
 5318      617200
 5319              	.LASF45:
 5320 0590 705F7072 		.ascii	"p_preempt\000"
 5320      65656D70 
 5320      7400
 5321              	.LASF71:
 5322 059a 65776D61 		.ascii	"ewmask\000"
 5322      736B00
 5323              	.LASF34:
 5324 05a1 705F6E65 		.ascii	"p_next\000"
 5324      787400
 5325              	.LASF160:
 5326 05a8 52656472 		.ascii	"RedrawTimer\000"
 5326      61775469 
 5326      6D657200 
 5327              	.LASF122:
 5328 05b4 4D696E4D 		.ascii	"MinMax\000"
 5328      617800
 5329              	.LASF33:
 5330 05bb 54687265 		.ascii	"Thread\000"
 5330      616400
 5331              	.LASF76:
 5332 05c2 67667853 		.ascii	"gfxSem\000"
 5332      656D00
 5333              	.LASF50:
 5334 05c9 705F6570 		.ascii	"p_epending\000"
 5334      656E6469 
 5334      6E6700
 5335              	.LASF80:
 5336 05d4 68656164 		.ascii	"head\000"
 5336      00
 5337              	.LASF20:
 5338 05d9 75696E74 		.ascii	"uint32_t\000"
 5338      33325F74 
 5338      00
 5339              	.LASF153:
 5340 05e2 574D5F52 		.ascii	"WM_Redraw\000"
 5340      65647261 
 5340      7700
 5341              	.LASF139:
 5342 05ec 656E6162 		.ascii	"enabled\000"
 5342      6C656400 
 5343              	.LASF102:
 5344 05f4 6777696E 		.ascii	"gwinVMT\000"
 5344      564D5400 
 5345              	.LASF12:
 5346 05fc 6C6F6E67 		.ascii	"long unsigned int\000"
 5346      20756E73 
 5346      69676E65 
 5346      6420696E 
ARM GAS  /tmp/ccihpvPa.s 			page 100


 5346      7400
 5347              	.LASF105:
 5348 060e 44657374 		.ascii	"Destroy\000"
 5348      726F7900 
 5349              	.LASF152:
 5350 0616 574D5F44 		.ascii	"WM_Delete\000"
 5350      656C6574 
 5350      6500
 5351              	.LASF72:
 5352 0620 63686172 		.ascii	"char\000"
 5352      00
 5353              	.LASF111:
 5354 0625 4757494E 		.ascii	"GWIN_MAXIMIZE\000"
 5354      5F4D4158 
 5354      494D495A 
 5354      4500
 5355              	.LASF7:
 5356 0633 5F5F7569 		.ascii	"__uint16_t\000"
 5356      6E743136 
 5356      5F7400
 5357              	.LASF170:
 5358 063e 72656C65 		.ascii	"releaselock\000"
 5358      6173656C 
 5358      6F636B00 
 5359              	.LASF129:
 5360 064a 5F677769 		.ascii	"_gwinUpdate\000"
 5360      6E557064 
 5360      61746500 
 5361              	.LASF31:
 5362 0656 73797374 		.ascii	"systime_t\000"
 5362      696D655F 
 5362      7400
 5363              	.LASF134:
 5364 0660 6777696E 		.ascii	"gwinSetWindowManager\000"
 5364      53657457 
 5364      696E646F 
 5364      774D616E 
 5364      61676572 
 5365              	.LASF9:
 5366 0675 5F5F696E 		.ascii	"__int32_t\000"
 5366      7433325F 
 5366      7400
 5367              	.LASF11:
 5368 067f 5F5F7569 		.ascii	"__uint32_t\000"
 5368      6E743332 
 5368      5F7400
 5369              	.LASF106:
 5370 068a 52656472 		.ascii	"Redraw\000"
 5370      617700
 5371              	.LASF59:
 5372 0691 636F6E74 		.ascii	"context\000"
 5372      65787400 
 5373              	.LASF95:
 5374 0699 4757696E 		.ascii	"GWindowObject\000"
 5374      646F774F 
 5374      626A6563 
 5374      7400
ARM GAS  /tmp/ccihpvPa.s 			page 101


 5375              	.LASF143:
 5376 06a7 6D696E6D 		.ascii	"minmax\000"
 5376      617800
 5377              	.LASF58:
 5378 06ae 696E7463 		.ascii	"intctx\000"
 5378      747800
 5379              	.LASF168:
 5380 06b5 2F686F6D 		.ascii	"/home/makkmarci/workspace/ugfx/src/gwin/gwin_wm.c\000"
 5380      652F6D61 
 5380      6B6B6D61 
 5380      7263692F 
 5380      776F726B 
 5381              	.LASF110:
 5382 06e7 4757494E 		.ascii	"GWIN_NORMAL\000"
 5382      5F4E4F52 
 5382      4D414C00 
 5383              	.LASF61:
 5384 06f3 53656D61 		.ascii	"Semaphore\000"
 5384      70686F72 
 5384      6500
 5385              	.LASF137:
 5386 06fd 76697369 		.ascii	"visible\000"
 5386      626C6500 
 5387              	.LASF128:
 5388 0705 5F677769 		.ascii	"_gwinFlushRedraws\000"
 5388      6E466C75 
 5388      73685265 
 5388      64726177 
 5388      7300
 5389              	.LASF115:
 5390 0717 67776D56 		.ascii	"gwmVMT\000"
 5390      4D5400
 5391              	.LASF40:
 5392 071e 705F6E61 		.ascii	"p_name\000"
 5392      6D6500
 5393              	.LASF44:
 5394 0725 705F7265 		.ascii	"p_refs\000"
 5394      667300
 5395              	.LASF101:
 5396 072c 666F6E74 		.ascii	"font\000"
 5396      00
 5397              	.LASF16:
 5398 0731 75696E74 		.ascii	"uint8_t\000"
 5398      385F7400 
 5399              	.LASF79:
 5400 0739 67667851 		.ascii	"gfxQueueASync\000"
 5400      75657565 
 5400      4153796E 
 5400      6300
 5401              	.LASF87:
 5402 0747 666C6167 		.ascii	"flags\000"
 5402      7300
 5403              	.LASF70:
 5404 074d 77746F62 		.ascii	"wtobjp\000"
 5404      6A7000
 5405              	.LASF156:
 5406 0754 574D5F4D 		.ascii	"WM_MinMax\000"
ARM GAS  /tmp/ccihpvPa.s 			page 102


 5406      696E4D61 
 5406      7800
 5407              	.LASF132:
 5408 075e 5F677769 		.ascii	"_gwinWMAdd\000"
 5408      6E574D41 
 5408      646400
 5409              	.LASF43:
 5410 0769 705F666C 		.ascii	"p_flags\000"
 5410      61677300 
 5411              	.LASF83:
 5412 0771 4754696D 		.ascii	"GTimer_t\000"
 5412      65725F74 
 5412      00
 5413              	.LASF49:
 5414 077a 705F6D73 		.ascii	"p_msg\000"
 5414      6700
 5415              	.LASF169:
 5416 0780 5F67776D 		.ascii	"_gwmInit\000"
 5416      496E6974 
 5416      00
 5417              	.LASF98:
 5418 0789 68656967 		.ascii	"height\000"
 5418      687400
 5419              	.LASF133:
 5420 0790 70496E69 		.ascii	"pInit\000"
 5420      7400
 5421              	.LASF127:
 5422 0796 5F67776D 		.ascii	"_gwmDeinit\000"
 5422      4465696E 
 5422      697400
 5423              	.LASF66:
 5424 07a1 6D5F6F77 		.ascii	"m_owner\000"
 5424      6E657200 
 5425              	.LASF37:
 5426 07a9 705F6374 		.ascii	"p_ctx\000"
 5426      7800
 5427              	.LASF47:
 5428 07af 705F7761 		.ascii	"p_waiting\000"
 5428      6974696E 
 5428      6700
 5429              	.LASF77:
 5430 07b9 67667851 		.ascii	"gfxQueueASyncItem\000"
 5430      75657565 
 5430      4153796E 
 5430      63497465 
 5430      6D00
 5431              		.ident	"GCC: (GNU Tools for ARM Embedded Processors) 4.9.3 20150303 (release) [ARM/embedded-4_9-br
ARM GAS  /tmp/ccihpvPa.s 			page 103


DEFINED SYMBOLS
                            *ABS*:00000000 gwin_wm.c
     /tmp/ccihpvPa.s:25     .bss._GWINwm:00000000 _GWINwm
     /tmp/ccihpvPa.s:22     .bss._GWINwm:00000000 $d
     /tmp/ccihpvPa.s:31     .bss._gwinFlashState:00000000 _gwinFlashState
     /tmp/ccihpvPa.s:32     .bss._gwinFlashState:00000000 $d
     /tmp/ccihpvPa.s:34     .bss.gwinsem:00000000 $d
     /tmp/ccihpvPa.s:37     .bss.gwinsem:00000000 gwinsem
     /tmp/ccihpvPa.s:40     .bss._GWINList:00000000 $d
     /tmp/ccihpvPa.s:43     .bss._GWINList:00000000 _GWINList
     /tmp/ccihpvPa.s:46     .bss.RedrawTimer:00000000 $d
     /tmp/ccihpvPa.s:49     .bss.RedrawTimer:00000000 RedrawTimer
     /tmp/ccihpvPa.s:54     .bss.RedrawPending:00000000 RedrawPending
     /tmp/ccihpvPa.s:55     .bss.RedrawPending:00000000 $d
     /tmp/ccihpvPa.s:57     .text._gwmInit:00000000 $t
     /tmp/ccihpvPa.s:63     .text._gwmInit:00000000 _gwmInit
     /tmp/ccihpvPa.s:112    .text._gwmInit:00000044 $d
     /tmp/ccihpvPa.s:185    .text.RedrawTimerFn:00000000 RedrawTimerFn
     /tmp/ccihpvPa.s:1420   .rodata.GNullWindowManager:00000000 GNullWindowManager
     /tmp/ccihpvPa.s:122    .text._gwmDeinit:00000000 $t
     /tmp/ccihpvPa.s:128    .text._gwmDeinit:00000000 _gwmDeinit
     /tmp/ccihpvPa.s:1365   .text.gwinGetNextWindow:00000000 gwinGetNextWindow
     /tmp/ccihpvPa.s:173    .text._gwmDeinit:00000038 $d
     /tmp/ccihpvPa.s:180    .text.RedrawTimerFn:00000000 $t
     /tmp/ccihpvPa.s:215    .text._gwinFlushRedraws:00000000 _gwinFlushRedraws
     /tmp/ccihpvPa.s:209    .text._gwinFlushRedraws:00000000 $t
     /tmp/ccihpvPa.s:519    .text._gwinFlushRedraws:0000020c $d
     /tmp/ccihpvPa.s:527    .text._gwinUpdate:00000000 $t
     /tmp/ccihpvPa.s:533    .text._gwinUpdate:00000000 _gwinUpdate
     /tmp/ccihpvPa.s:580    .text._gwinUpdate:0000003c $d
     /tmp/ccihpvPa.s:586    .text._gwinDrawStart:00000000 $t
     /tmp/ccihpvPa.s:592    .text._gwinDrawStart:00000000 _gwinDrawStart
     /tmp/ccihpvPa.s:673    .text._gwinDrawEnd:00000000 _gwinDrawEnd
     /tmp/ccihpvPa.s:662    .text._gwinDrawStart:00000064 $d
     /tmp/ccihpvPa.s:667    .text._gwinDrawEnd:00000000 $t
     /tmp/ccihpvPa.s:721    .text._gwinDrawEnd:00000044 $d
     /tmp/ccihpvPa.s:726    .text._gwinWMAdd:00000000 $t
     /tmp/ccihpvPa.s:732    .text._gwinWMAdd:00000000 _gwinWMAdd
     /tmp/ccihpvPa.s:774    .text._gwinWMAdd:00000030 $d
     /tmp/ccihpvPa.s:779    .text.gwinSetWindowManager:00000000 $t
     /tmp/ccihpvPa.s:785    .text.gwinSetWindowManager:00000000 gwinSetWindowManager
     /tmp/ccihpvPa.s:836    .text.gwinSetWindowManager:0000003c $d
     /tmp/ccihpvPa.s:842    .text.gwinRedraw:00000000 $t
     /tmp/ccihpvPa.s:848    .text.gwinRedraw:00000000 gwinRedraw
     /tmp/ccihpvPa.s:895    .text.gwinRedraw:0000003c $d
     /tmp/ccihpvPa.s:900    .text.gwinSetVisible:00000000 $t
     /tmp/ccihpvPa.s:906    .text.gwinSetVisible:00000000 gwinSetVisible
     /tmp/ccihpvPa.s:987    .text.gwinSetVisible:00000084 $d
     /tmp/ccihpvPa.s:993    .text.gwinSetEnabled:00000000 $t
     /tmp/ccihpvPa.s:999    .text.gwinSetEnabled:00000000 gwinSetEnabled
     /tmp/ccihpvPa.s:1059   .text.gwinMove:00000000 $t
     /tmp/ccihpvPa.s:1065   .text.gwinMove:00000000 gwinMove
     /tmp/ccihpvPa.s:1098   .text.gwinMove:0000002c $d
     /tmp/ccihpvPa.s:1103   .text.gwinResize:00000000 $t
     /tmp/ccihpvPa.s:1109   .text.gwinResize:00000000 gwinResize
     /tmp/ccihpvPa.s:1142   .text.gwinResize:0000002c $d
     /tmp/ccihpvPa.s:1147   .text.gwinSetMinMax:00000000 $t
ARM GAS  /tmp/ccihpvPa.s 			page 104


     /tmp/ccihpvPa.s:1153   .text.gwinSetMinMax:00000000 gwinSetMinMax
     /tmp/ccihpvPa.s:1184   .text.gwinSetMinMax:00000024 $d
     /tmp/ccihpvPa.s:1189   .text.gwinRaise:00000000 $t
     /tmp/ccihpvPa.s:1195   .text.gwinRaise:00000000 gwinRaise
     /tmp/ccihpvPa.s:1222   .text.gwinRaise:00000018 $d
     /tmp/ccihpvPa.s:1227   .text.gwinGetMinMax:00000000 $t
     /tmp/ccihpvPa.s:1233   .text.gwinGetMinMax:00000000 gwinGetMinMax
     /tmp/ccihpvPa.s:1276   .text.gwinRedrawDisplay:00000000 $t
     /tmp/ccihpvPa.s:1282   .text.gwinRedrawDisplay:00000000 gwinRedrawDisplay
     /tmp/ccihpvPa.s:1359   .text.gwinGetNextWindow:00000000 $t
     /tmp/ccihpvPa.s:1397   .text.gwinGetNextWindow:0000001c $d
     /tmp/ccihpvPa.s:1402   .rodata.GNullWindowManagerVMT:00000000 $d
     /tmp/ccihpvPa.s:1405   .rodata.GNullWindowManagerVMT:00000000 GNullWindowManagerVMT
     /tmp/ccihpvPa.s:1428   .text.WM_Init:00000000 WM_Init
     /tmp/ccihpvPa.s:1446   .text.WM_DeInit:00000000 WM_DeInit
     /tmp/ccihpvPa.s:1464   .text.WM_Add:00000000 WM_Add
     /tmp/ccihpvPa.s:1540   .text.WM_Delete:00000000 WM_Delete
     /tmp/ccihpvPa.s:1575   .text.WM_Redraw:00000000 WM_Redraw
     /tmp/ccihpvPa.s:1830   .text.WM_Size:00000000 WM_Size
     /tmp/ccihpvPa.s:2003   .text.WM_Move:00000000 WM_Move
     /tmp/ccihpvPa.s:2249   .text.WM_Raise:00000000 WM_Raise
     /tmp/ccihpvPa.s:2223   .text.WM_MinMax:00000000 WM_MinMax
     /tmp/ccihpvPa.s:1417   .rodata.GNullWindowManager:00000000 $d
     /tmp/ccihpvPa.s:1423   .text.WM_Init:00000000 $t
     /tmp/ccihpvPa.s:1441   .text.WM_DeInit:00000000 $t
     /tmp/ccihpvPa.s:1459   .text.WM_Add:00000000 $t
     /tmp/ccihpvPa.s:1530   .text.WM_Add:00000064 $d
     /tmp/ccihpvPa.s:1535   .text.WM_Delete:00000000 $t
     /tmp/ccihpvPa.s:1565   .text.WM_Delete:00000018 $d
     /tmp/ccihpvPa.s:1570   .text.WM_Redraw:00000000 $t
     /tmp/ccihpvPa.s:1825   .text.WM_Size:00000000 $t
     /tmp/ccihpvPa.s:1998   .text.WM_Move:00000000 $t
     /tmp/ccihpvPa.s:2218   .text.WM_MinMax:00000000 $t
     /tmp/ccihpvPa.s:2244   .text.WM_Raise:00000000 $t
     /tmp/ccihpvPa.s:2282   .text.WM_Raise:00000028 $d
                     .debug_frame:00000010 $d
     /tmp/ccihpvPa.s:121    .text._gwmInit:0000005c $t
     /tmp/ccihpvPa.s:179    .text._gwmDeinit:00000044 $t
     /tmp/ccihpvPa.s:526    .text._gwinFlushRedraws:0000021c $t
     /tmp/ccihpvPa.s:585    .text._gwinUpdate:00000044 $t
     /tmp/ccihpvPa.s:666    .text._gwinDrawStart:00000068 $t
     /tmp/ccihpvPa.s:725    .text._gwinDrawEnd:00000048 $t
     /tmp/ccihpvPa.s:778    .text._gwinWMAdd:00000034 $t
     /tmp/ccihpvPa.s:841    .text.gwinSetWindowManager:00000044 $t
     /tmp/ccihpvPa.s:992    .text.gwinSetVisible:0000008c $t
     /tmp/ccihpvPa.s:1188   .text.gwinSetMinMax:00000028 $t
     /tmp/ccihpvPa.s:1226   .text.gwinRaise:0000001c $t
     /tmp/ccihpvPa.s:1534   .text.WM_Add:00000068 $t
     /tmp/ccihpvPa.s:1569   .text.WM_Delete:0000001c $t
     /tmp/ccihpvPa.s:2286   .text.WM_Raise:0000002c $t

UNDEFINED SYMBOLS
gfxSemInit
gfxQueueASyncInit
gtimerInit
gtimerStart
gwinDestroy
ARM GAS  /tmp/ccihpvPa.s 			page 105


gtimerDeinit
gfxSemDestroy
gfxSemWait
gdispGSetClip
gdispGGetWidth
gdispGGetHeight
gtimerJab
gfxSemSignal
gfxQueueASyncPut
gfxQueueASyncRemove
gdispGFillArea
gwinGetDefaultBgColor
