ARM GAS  /tmp/cczDJLJg.s 			page 1


   1              		.syntax unified
   2              		.cpu cortex-m4
   3              		.eabi_attribute 27, 3
   4              		.eabi_attribute 28, 1
   5              		.fpu fpv4-sp-d16
   6              		.eabi_attribute 20, 1
   7              		.eabi_attribute 21, 1
   8              		.eabi_attribute 23, 3
   9              		.eabi_attribute 24, 1
  10              		.eabi_attribute 25, 1
  11              		.eabi_attribute 26, 1
  12              		.eabi_attribute 30, 2
  13              		.eabi_attribute 34, 1
  14              		.eabi_attribute 18, 4
  15              		.thumb
  16              		.file	"gwm.c"
  17              		.text
  18              	.Ltext0:
  19              		.cfi_sections	.debug_frame
  20              		.section	.text._gwinRedrawDisplay,"ax",%progbits
  21              		.align	2
  22              		.p2align 4,,15
  23              		.thumb
  24              		.thumb_func
  25              		.type	_gwinRedrawDisplay, %function
  26              	_gwinRedrawDisplay:
  27              	.LFB118:
  28              		.file 1 "/home/makkmarci/devel/ugfx/src/gwin/gwm.c"
  29              		.loc 1 113 0
  30              		.cfi_startproc
  31              		@ args = 0, pretend = 0, frame = 0
  32              		@ frame_needed = 0, uses_anonymous_args = 0
  33              	.LVL0:
  34 0000 F8B5     		push	{r3, r4, r5, r6, r7, lr}
  35              		.cfi_def_cfa_offset 24
  36              		.cfi_offset 3, -24
  37              		.cfi_offset 4, -20
  38              		.cfi_offset 5, -16
  39              		.cfi_offset 6, -12
  40              		.cfi_offset 7, -8
  41              		.cfi_offset 14, -4
  42              	.LBB6:
  43              	.LBB7:
  44              		.loc 1 309 0
  45 0002 0D4B     		ldr	r3, .L16
  46              	.LBE7:
  47              	.LBE6:
  48              		.loc 1 114 0
  49 0004 0D4A     		ldr	r2, .L16+4
  50              	.LBB9:
  51              	.LBB8:
  52              		.loc 1 309 0
  53 0006 1C68     		ldr	r4, [r3]
  54              	.LBE8:
  55              	.LBE9:
  56              		.loc 1 115 0
  57 0008 0D4B     		ldr	r3, .L16+8
ARM GAS  /tmp/cczDJLJg.s 			page 2


  58              		.loc 1 114 0
  59 000a 1568     		ldr	r5, [r2]
  60              	.LVL1:
  61              		.loc 1 115 0
  62 000c 1E78     		ldrb	r6, [r3]	@ zero_extendqisi2
  63              	.LVL2:
  64              		.loc 1 121 0
  65 000e 3CB1     		cbz	r4, .L1
  66              		.loc 1 123 0
  67 0010 0C4F     		ldr	r7, .L16+12
  68              	.LVL3:
  69              	.L7:
  70              		.loc 1 122 0
  71 0012 35B1     		cbz	r5, .L3
  72              		.loc 1 122 0 is_stmt 0 discriminator 1
  73 0014 A368     		ldr	r3, [r4, #8]
  74 0016 AB42     		cmp	r3, r5
  75 0018 03D0     		beq	.L3
  76              	.L4:
  77              	.LVL4:
  78              	.LBB10:
  79              	.LBB11:
  80              		.loc 1 309 0 is_stmt 1
  81 001a 2468     		ldr	r4, [r4]
  82              	.LVL5:
  83              	.LBE11:
  84              	.LBE10:
  85              		.loc 1 121 0
  86 001c 002C     		cmp	r4, #0
  87 001e F8D1     		bne	.L7
  88              	.L1:
  89 0020 F8BD     		pop	{r3, r4, r5, r6, r7, pc}
  90              	.LVL6:
  91              	.L3:
  92              		.loc 1 123 0
  93 0022 3B68     		ldr	r3, [r7]
  94 0024 1B68     		ldr	r3, [r3]
  95 0026 002E     		cmp	r6, #0
  96 0028 1B69     		ldr	r3, [r3, #16]
  97 002a 0CBF     		ite	eq
  98 002c 0A21     		moveq	r1, #10
  99 002e 0B21     		movne	r1, #11
 100 0030 2046     		mov	r0, r4
 101 0032 9847     		blx	r3
 102              	.LVL7:
 103 0034 F1E7     		b	.L4
 104              	.L17:
 105 0036 00BF     		.align	2
 106              	.L16:
 107 0038 00000000 		.word	.LANCHOR2
 108 003c 00000000 		.word	.LANCHOR0
 109 0040 00000000 		.word	.LANCHOR1
 110 0044 00000000 		.word	.LANCHOR3
 111              		.cfi_endproc
 112              	.LFE118:
 113              		.size	_gwinRedrawDisplay, .-_gwinRedrawDisplay
 114 0048 AFF30080 		.section	.text.WM_Init,"ax",%progbits
ARM GAS  /tmp/cczDJLJg.s 			page 3


 114      AFF30080 
 115              		.align	2
 116              		.p2align 4,,15
 117              		.thumb
 118              		.thumb_func
 119              		.type	WM_Init, %function
 120              	WM_Init:
 121              	.LFB119:
 122              		.loc 1 133 0
 123              		.cfi_startproc
 124              		@ args = 0, pretend = 0, frame = 0
 125              		@ frame_needed = 0, uses_anonymous_args = 0
 126              		@ link register save eliminated.
 127 0000 7047     		bx	lr
 128              		.cfi_endproc
 129              	.LFE119:
 130              		.size	WM_Init, .-WM_Init
 131 0002 00BFAFF3 		.section	.text.WM_DeInit,"ax",%progbits
 131      0080AFF3 
 131      0080AFF3 
 131      0080
 132              		.align	2
 133              		.p2align 4,,15
 134              		.thumb
 135              		.thumb_func
 136              		.type	WM_DeInit, %function
 137              	WM_DeInit:
 138              	.LFB120:
 139              		.loc 1 142 0
 140              		.cfi_startproc
 141              		@ args = 0, pretend = 0, frame = 0
 142              		@ frame_needed = 0, uses_anonymous_args = 0
 143              		@ link register save eliminated.
 144 0000 7047     		bx	lr
 145              		.cfi_endproc
 146              	.LFE120:
 147              		.size	WM_DeInit, .-WM_DeInit
 148 0002 00BFAFF3 		.section	.text.WM_MinMax,"ax",%progbits
 148      0080AFF3 
 148      0080AFF3 
 148      0080
 149              		.align	2
 150              		.p2align 4,,15
 151              		.thumb
 152              		.thumb_func
 153              		.type	WM_MinMax, %function
 154              	WM_MinMax:
 155              	.LFB126:
 156              		.loc 1 292 0
 157              		.cfi_startproc
 158              		@ args = 0, pretend = 0, frame = 0
 159              		@ frame_needed = 0, uses_anonymous_args = 0
 160              		@ link register save eliminated.
 161              	.LVL8:
 162 0000 7047     		bx	lr
 163              		.cfi_endproc
 164              	.LFE126:
ARM GAS  /tmp/cczDJLJg.s 			page 4


 165              		.size	WM_MinMax, .-WM_MinMax
 166 0002 00BFAFF3 		.section	.text.WM_Delete,"ax",%progbits
 166      0080AFF3 
 166      0080AFF3 
 166      0080
 167              		.align	2
 168              		.p2align 4,,15
 169              		.thumb
 170              		.thumb_func
 171              		.type	WM_Delete, %function
 172              	WM_Delete:
 173              	.LFB122:
 174              		.loc 1 161 0
 175              		.cfi_startproc
 176              		@ args = 0, pretend = 0, frame = 0
 177              		@ frame_needed = 0, uses_anonymous_args = 0
 178              		@ link register save eliminated.
 179              	.LVL9:
 180              		.loc 1 161 0
 181 0000 0146     		mov	r1, r0
 182              		.loc 1 163 0
 183 0002 0148     		ldr	r0, .L22
 184              	.LVL10:
 185 0004 FFF7FEBF 		b	gfxQueueASyncRemove
 186              	.LVL11:
 187              	.L23:
 188              		.align	2
 189              	.L22:
 190 0008 00000000 		.word	.LANCHOR2
 191              		.cfi_endproc
 192              	.LFE122:
 193              		.size	WM_Delete, .-WM_Delete
 194 000c AFF30080 		.section	.text.WM_Redraw,"ax",%progbits
 195              		.align	2
 196              		.p2align 4,,15
 197              		.thumb
 198              		.thumb_func
 199              		.type	WM_Redraw, %function
 200              	WM_Redraw:
 201              	.LFB123:
 202              		.loc 1 166 0
 203              		.cfi_startproc
 204              		@ args = 0, pretend = 0, frame = 0
 205              		@ frame_needed = 0, uses_anonymous_args = 0
 206              	.LVL12:
 207 0000 2DE9F041 		push	{r4, r5, r6, r7, r8, lr}
 208              		.cfi_def_cfa_offset 24
 209              		.cfi_offset 4, -24
 210              		.cfi_offset 5, -20
 211              		.cfi_offset 6, -16
 212              		.cfi_offset 7, -12
 213              		.cfi_offset 8, -8
 214              		.cfi_offset 14, -4
 215              		.loc 1 170 0
 216 0004 8369     		ldr	r3, [r0, #24]
 217 0006 9E05     		lsls	r6, r3, #22
 218              		.loc 1 166 0
ARM GAS  /tmp/cczDJLJg.s 			page 5


 219 0008 82B0     		sub	sp, sp, #8
 220              		.cfi_def_cfa_offset 32
 221              		.loc 1 166 0
 222 000a 0446     		mov	r4, r0
 223              		.loc 1 170 0
 224 000c 18D5     		bpl	.L25
 225              		.loc 1 171 0
 226 000e 4368     		ldr	r3, [r0, #4]
 227 0010 DB68     		ldr	r3, [r3, #12]
 228 0012 002B     		cmp	r3, #0
 229 0014 2DD0     		beq	.L26
 230              		.loc 1 173 0
 231 0016 4D07     		lsls	r5, r1, #29
 232 0018 0DD4     		bmi	.L37
 233              		.loc 1 174 0
 234 001a B4F91250 		ldrsh	r5, [r4, #18]
 235 001e B4F91030 		ldrsh	r3, [r4, #16]
 236 0022 8068     		ldr	r0, [r0, #8]
 237              	.LVL13:
 238 0024 B4F90C10 		ldrsh	r1, [r4, #12]
 239              	.LVL14:
 240 0028 B4F90E20 		ldrsh	r2, [r4, #14]
 241 002c 0095     		str	r5, [sp]
 242 002e FFF7FEFF 		bl	gdispGSetClip
 243              	.LVL15:
 244 0032 6368     		ldr	r3, [r4, #4]
 245 0034 DB68     		ldr	r3, [r3, #12]
 246              	.L37:
 247              		.loc 1 184 0
 248 0036 2046     		mov	r0, r4
 249 0038 9847     		blx	r3
 250              	.LVL16:
 251              	.L24:
 252              		.loc 1 208 0
 253 003a 02B0     		add	sp, sp, #8
 254              		@ sp needed
 255 003c BDE8F081 		pop	{r4, r5, r6, r7, r8, pc}
 256              	.LVL17:
 257              	.L25:
 258              		.loc 1 193 0
 259 0040 8A07     		lsls	r2, r1, #30
 260 0042 FAD4     		bmi	.L24
 261              		.loc 1 195 0
 262 0044 4B07     		lsls	r3, r1, #29
 263 0046 2BD5     		bpl	.L38
 264              	.LVL18:
 265              	.L32:
 266              		.loc 1 206 0
 267 0048 A668     		ldr	r6, [r4, #8]
 268 004a B4F80C80 		ldrh	r8, [r4, #12]
 269 004e E789     		ldrh	r7, [r4, #14]
 270 0050 258A     		ldrh	r5, [r4, #16]
 271 0052 648A     		ldrh	r4, [r4, #18]
 272              	.LVL19:
 273 0054 FFF7FEFF 		bl	gwinGetDefaultBgColor
 274              	.LVL20:
 275 0058 24B2     		sxth	r4, r4
ARM GAS  /tmp/cczDJLJg.s 			page 6


 276 005a 0190     		str	r0, [sp, #4]
 277 005c 0094     		str	r4, [sp]
 278 005e 0FFA88F1 		sxth	r1, r8
 279 0062 3046     		mov	r0, r6
 280 0064 3AB2     		sxth	r2, r7
 281 0066 2BB2     		sxth	r3, r5
 282 0068 FFF7FEFF 		bl	gdispGFillArea
 283              	.LVL21:
 284              		.loc 1 208 0
 285 006c 02B0     		add	sp, sp, #8
 286              		@ sp needed
 287 006e BDE8F081 		pop	{r4, r5, r6, r7, r8, pc}
 288              	.LVL22:
 289              	.L26:
 290              		.loc 1 177 0
 291 0072 C807     		lsls	r0, r1, #31
 292              	.LVL23:
 293 0074 E1D4     		bmi	.L24
 294              		.loc 1 179 0
 295 0076 4907     		lsls	r1, r1, #29
 296              	.LVL24:
 297 0078 1FD5     		bpl	.L39
 298              	.L30:
 299              		.loc 1 182 0
 300 007a B4F91260 		ldrsh	r6, [r4, #18]
 301 007e E58A     		ldrh	r5, [r4, #22]
 302 0080 B4F91030 		ldrsh	r3, [r4, #16]
 303 0084 A068     		ldr	r0, [r4, #8]
 304 0086 B4F90C10 		ldrsh	r1, [r4, #12]
 305 008a B4F90E20 		ldrsh	r2, [r4, #14]
 306 008e 0096     		str	r6, [sp]
 307 0090 0195     		str	r5, [sp, #4]
 308 0092 FFF7FEFF 		bl	gdispGFillArea
 309              	.LVL25:
 310              		.loc 1 183 0
 311 0096 6368     		ldr	r3, [r4, #4]
 312 0098 1B69     		ldr	r3, [r3, #16]
 313 009a 002B     		cmp	r3, #0
 314 009c CBD1     		bne	.L37
 315 009e CCE7     		b	.L24
 316              	.LVL26:
 317              	.L38:
 318              		.loc 1 196 0
 319 00a0 B4F91250 		ldrsh	r5, [r4, #18]
 320 00a4 8068     		ldr	r0, [r0, #8]
 321              	.LVL27:
 322 00a6 B4F90C10 		ldrsh	r1, [r4, #12]
 323              	.LVL28:
 324 00aa B4F90E20 		ldrsh	r2, [r4, #14]
 325 00ae B4F91030 		ldrsh	r3, [r4, #16]
 326 00b2 0095     		str	r5, [sp]
 327 00b4 FFF7FEFF 		bl	gdispGSetClip
 328              	.LVL29:
 329 00b8 C6E7     		b	.L32
 330              	.L39:
 331              		.loc 1 180 0
 332 00ba B4F91250 		ldrsh	r5, [r4, #18]
ARM GAS  /tmp/cczDJLJg.s 			page 7


 333 00be A068     		ldr	r0, [r4, #8]
 334 00c0 B4F90C10 		ldrsh	r1, [r4, #12]
 335 00c4 B4F90E20 		ldrsh	r2, [r4, #14]
 336 00c8 B4F91030 		ldrsh	r3, [r4, #16]
 337 00cc 0095     		str	r5, [sp]
 338 00ce FFF7FEFF 		bl	gdispGSetClip
 339              	.LVL30:
 340 00d2 D2E7     		b	.L30
 341              		.cfi_endproc
 342              	.LFE123:
 343              		.size	WM_Redraw, .-WM_Redraw
 344 00d4 AFF30080 		.section	.text.WM_Raise,"ax",%progbits
 344      AFF30080 
 344      AFF30080 
 345              		.align	2
 346              		.p2align 4,,15
 347              		.thumb
 348              		.thumb_func
 349              		.type	WM_Raise, %function
 350              	WM_Raise:
 351              	.LFB127:
 352              		.loc 1 297 0
 353              		.cfi_startproc
 354              		@ args = 0, pretend = 0, frame = 0
 355              		@ frame_needed = 0, uses_anonymous_args = 0
 356              	.LVL31:
 357 0000 38B5     		push	{r3, r4, r5, lr}
 358              		.cfi_def_cfa_offset 16
 359              		.cfi_offset 3, -16
 360              		.cfi_offset 4, -12
 361              		.cfi_offset 5, -8
 362              		.cfi_offset 14, -4
 363              		.loc 1 301 0
 364 0002 084D     		ldr	r5, .L41
 365              		.loc 1 297 0
 366 0004 0446     		mov	r4, r0
 367              		.loc 1 301 0
 368 0006 0146     		mov	r1, r0
 369 0008 2846     		mov	r0, r5
 370              	.LVL32:
 371 000a FFF7FEFF 		bl	gfxQueueASyncRemove
 372              	.LVL33:
 373              		.loc 1 302 0
 374 000e 2846     		mov	r0, r5
 375 0010 2146     		mov	r1, r4
 376 0012 FFF7FEFF 		bl	gfxQueueASyncPut
 377              	.LVL34:
 378              		.loc 1 305 0
 379 0016 2046     		mov	r0, r4
 380 0018 0321     		movs	r1, #3
 381              		.loc 1 306 0
 382 001a BDE83840 		pop	{r3, r4, r5, lr}
 383              	.LVL35:
 384              		.loc 1 305 0
 385 001e FFF7FEBF 		b	WM_Redraw
 386              	.LVL36:
 387              	.L42:
ARM GAS  /tmp/cczDJLJg.s 			page 8


 388 0022 00BF     		.align	2
 389              	.L41:
 390 0024 00000000 		.word	.LANCHOR2
 391              		.cfi_endproc
 392              	.LFE127:
 393              		.size	WM_Raise, .-WM_Raise
 394 0028 AFF30080 		.section	.text.WM_Move,"ax",%progbits
 394      AFF30080 
 395              		.align	2
 396              		.p2align 4,,15
 397              		.thumb
 398              		.thumb_func
 399              		.type	WM_Move, %function
 400              	WM_Move:
 401              	.LFB125:
 402              		.loc 1 249 0
 403              		.cfi_startproc
 404              		@ args = 0, pretend = 0, frame = 0
 405              		@ frame_needed = 0, uses_anonymous_args = 0
 406              	.LVL37:
 407 0000 F8B5     		push	{r3, r4, r5, r6, r7, lr}
 408              		.cfi_def_cfa_offset 24
 409              		.cfi_offset 3, -24
 410              		.cfi_offset 4, -20
 411              		.cfi_offset 5, -16
 412              		.cfi_offset 6, -12
 413              		.cfi_offset 7, -8
 414              		.cfi_offset 14, -4
 415              		.loc 1 269 0
 416 0002 8368     		ldr	r3, [r0, #8]
 417              		.loc 1 249 0
 418 0004 0446     		mov	r4, r0
 419              		.loc 1 269 0
 420 0006 1D88     		ldrh	r5, [r3]
 421              	.LVL38:
 422              		.loc 1 270 0
 423 0008 008A     		ldrh	r0, [r0, #16]
 424              	.LVL39:
 425 000a 2EB2     		sxth	r6, r5
 426 000c 01FA80F7 		sxtah	r7, r1, r0
 427 0010 B742     		cmp	r7, r6
 428 0012 C8BF     		it	gt
 429 0014 C0EB0501 		rsbgt	r1, r0, r5
 430              	.LVL40:
 431              		.loc 1 271 0
 432 0018 5888     		ldrh	r0, [r3, #2]
 433              		.loc 1 272 0
 434 001a 638A     		ldrh	r3, [r4, #18]
 435              	.LVL41:
 436 001c 05B2     		sxth	r5, r0
 437 001e 02FA83F6 		sxtah	r6, r2, r3
 438              		.loc 1 270 0
 439 0022 C8BF     		it	gt
 440 0024 09B2     		sxthgt	r1, r1
 441              	.LVL42:
 442              		.loc 1 272 0
 443 0026 AE42     		cmp	r6, r5
ARM GAS  /tmp/cczDJLJg.s 			page 9


 444 0028 C8BF     		it	gt
 445 002a C3EB0002 		rsbgt	r2, r3, r0
 446              	.LVL43:
 447              		.loc 1 277 0
 448 002e B4F90C30 		ldrsh	r3, [r4, #12]
 449 0032 21EAE175 		bic	r5, r1, r1, asr #31
 450              		.loc 1 272 0
 451 0036 C8BF     		it	gt
 452 0038 12B2     		sxthgt	r2, r2
 453              	.LVL44:
 454              		.loc 1 277 0
 455 003a AB42     		cmp	r3, r5
 456 003c 22EAE276 		bic	r6, r2, r2, asr #31
 457              	.LVL45:
 458 0040 05D0     		beq	.L49
 459              		.loc 1 281 0
 460 0042 A369     		ldr	r3, [r4, #24]
 461 0044 9A05     		lsls	r2, r3, #22
 462 0046 09D4     		bmi	.L50
 463              	.L48:
 464              		.loc 1 288 0
 465 0048 A581     		strh	r5, [r4, #12]	@ movhi
 466 004a E681     		strh	r6, [r4, #14]	@ movhi
 467              	.L43:
 468 004c F8BD     		pop	{r3, r4, r5, r6, r7, pc}
 469              	.LVL46:
 470              	.L49:
 471              		.loc 1 277 0 discriminator 1
 472 004e B4F90E30 		ldrsh	r3, [r4, #14]
 473 0052 B342     		cmp	r3, r6
 474 0054 FAD0     		beq	.L43
 475              		.loc 1 281 0
 476 0056 A369     		ldr	r3, [r4, #24]
 477 0058 9A05     		lsls	r2, r3, #22
 478 005a F5D5     		bpl	.L48
 479              	.L50:
 480              		.loc 1 282 0
 481 005c 23F40073 		bic	r3, r3, #512
 482 0060 A361     		str	r3, [r4, #24]
 483              		.loc 1 283 0
 484 0062 2046     		mov	r0, r4
 485              	.LVL47:
 486 0064 0021     		movs	r1, #0
 487 0066 FFF7FEFF 		bl	WM_Redraw
 488              	.LVL48:
 489              		.loc 1 285 0
 490 006a A369     		ldr	r3, [r4, #24]
 491              		.loc 1 284 0
 492 006c A581     		strh	r5, [r4, #12]	@ movhi
 493              		.loc 1 285 0
 494 006e 43F40073 		orr	r3, r3, #512
 495              		.loc 1 284 0
 496 0072 E681     		strh	r6, [r4, #14]	@ movhi
 497              		.loc 1 285 0
 498 0074 A361     		str	r3, [r4, #24]
 499              		.loc 1 286 0
 500 0076 2046     		mov	r0, r4
ARM GAS  /tmp/cczDJLJg.s 			page 10


 501 0078 0021     		movs	r1, #0
 502              		.loc 1 290 0
 503 007a BDE8F840 		pop	{r3, r4, r5, r6, r7, lr}
 504              	.LVL49:
 505              		.loc 1 286 0
 506 007e FFF7FEBF 		b	WM_Redraw
 507              	.LVL50:
 508              		.cfi_endproc
 509              	.LFE125:
 510              		.size	WM_Move, .-WM_Move
 511 0082 00BFAFF3 		.section	.text.WM_Size,"ax",%progbits
 511      0080AFF3 
 511      0080AFF3 
 511      0080
 512              		.align	2
 513              		.p2align 4,,15
 514              		.thumb
 515              		.thumb_func
 516              		.type	WM_Size, %function
 517              	WM_Size:
 518              	.LFB124:
 519              		.loc 1 210 0
 520              		.cfi_startproc
 521              		@ args = 0, pretend = 0, frame = 8
 522              		@ frame_needed = 0, uses_anonymous_args = 0
 523              	.LVL51:
 524              		.loc 1 224 0
 525 0000 8368     		ldr	r3, [r0, #8]
 526              		.loc 1 210 0
 527 0002 F0B5     		push	{r4, r5, r6, r7, lr}
 528              		.cfi_def_cfa_offset 20
 529              		.cfi_offset 4, -20
 530              		.cfi_offset 5, -16
 531              		.cfi_offset 6, -12
 532              		.cfi_offset 7, -8
 533              		.cfi_offset 14, -4
 534 0004 0D46     		mov	r5, r1
 535 0006 0446     		mov	r4, r0
 536              		.loc 1 225 0
 537 0008 8189     		ldrh	r1, [r0, #12]
 538              	.LVL52:
 539              		.loc 1 224 0
 540 000a 1888     		ldrh	r0, [r3]
 541              	.LVL53:
 542              		.loc 1 225 0
 543 000c 05FA81F7 		sxtah	r7, r5, r1
 544 0010 06B2     		sxth	r6, r0
 545 0012 B742     		cmp	r7, r6
 546 0014 C8BF     		it	gt
 547 0016 C1EB0005 		rsbgt	r5, r1, r0
 548              		.loc 1 226 0
 549 001a 5988     		ldrh	r1, [r3, #2]
 550              		.loc 1 227 0
 551 001c E389     		ldrh	r3, [r4, #14]
 552              	.LVL54:
 553 001e 08B2     		sxth	r0, r1
 554 0020 02FA83F6 		sxtah	r6, r2, r3
ARM GAS  /tmp/cczDJLJg.s 			page 11


 555              		.loc 1 225 0
 556 0024 C8BF     		it	gt
 557 0026 2DB2     		sxthgt	r5, r5
 558              	.LVL55:
 559              		.loc 1 227 0
 560 0028 8642     		cmp	r6, r0
 561 002a C8BF     		it	gt
 562 002c C3EB0102 		rsbgt	r2, r3, r1
 563              	.LVL56:
 564              		.loc 1 234 0
 565 0030 B4F91030 		ldrsh	r3, [r4, #16]
 566              		.loc 1 227 0
 567 0034 C8BF     		it	gt
 568 0036 12B2     		sxthgt	r2, r2
 569              	.LVL57:
 570              		.loc 1 230 0
 571 0038 032D     		cmp	r5, #3
 572 003a B8BF     		it	lt
 573 003c 0325     		movlt	r5, #3
 574              	.LVL58:
 575              		.loc 1 231 0
 576 003e 032A     		cmp	r2, #3
 577 0040 B8BF     		it	lt
 578 0042 0322     		movlt	r2, #3
 579              	.LVL59:
 580              		.loc 1 234 0
 581 0044 AB42     		cmp	r3, r5
 582              		.loc 1 210 0
 583 0046 83B0     		sub	sp, sp, #12
 584              		.cfi_def_cfa_offset 32
 585              		.loc 1 234 0
 586 0048 06D0     		beq	.L61
 587              		.loc 1 238 0
 588 004a A369     		ldr	r3, [r4, #24]
 589 004c 9905     		lsls	r1, r3, #22
 590 004e 0AD4     		bmi	.L62
 591              	.L58:
 592              		.loc 1 245 0
 593 0050 2582     		strh	r5, [r4, #16]	@ movhi
 594 0052 6282     		strh	r2, [r4, #18]	@ movhi
 595              	.L51:
 596              		.loc 1 247 0
 597 0054 03B0     		add	sp, sp, #12
 598              		@ sp needed
 599 0056 F0BD     		pop	{r4, r5, r6, r7, pc}
 600              	.LVL60:
 601              	.L61:
 602              		.loc 1 234 0 discriminator 1
 603 0058 B4F91230 		ldrsh	r3, [r4, #18]
 604 005c 9342     		cmp	r3, r2
 605 005e F9D0     		beq	.L51
 606              		.loc 1 238 0
 607 0060 A369     		ldr	r3, [r4, #24]
 608 0062 9905     		lsls	r1, r3, #22
 609 0064 F4D5     		bpl	.L58
 610              	.L62:
 611              		.loc 1 239 0
ARM GAS  /tmp/cczDJLJg.s 			page 12


 612 0066 23F40073 		bic	r3, r3, #512
 613 006a A361     		str	r3, [r4, #24]
 614              		.loc 1 240 0
 615 006c 2046     		mov	r0, r4
 616 006e 0021     		movs	r1, #0
 617 0070 0192     		str	r2, [sp, #4]
 618 0072 FFF7FEFF 		bl	WM_Redraw
 619              	.LVL61:
 620              		.loc 1 242 0
 621 0076 A369     		ldr	r3, [r4, #24]
 622              		.loc 1 241 0
 623 0078 019A     		ldr	r2, [sp, #4]
 624 007a 2582     		strh	r5, [r4, #16]	@ movhi
 625              		.loc 1 242 0
 626 007c 43F40073 		orr	r3, r3, #512
 627              		.loc 1 243 0
 628 0080 2046     		mov	r0, r4
 629 0082 0021     		movs	r1, #0
 630              		.loc 1 241 0
 631 0084 6282     		strh	r2, [r4, #18]	@ movhi
 632              		.loc 1 242 0
 633 0086 A361     		str	r3, [r4, #24]
 634              		.loc 1 247 0
 635 0088 03B0     		add	sp, sp, #12
 636              		@ sp needed
 637 008a BDE8F040 		pop	{r4, r5, r6, r7, lr}
 638              	.LVL62:
 639              		.loc 1 243 0
 640 008e FFF7FEBF 		b	WM_Redraw
 641              	.LVL63:
 642              		.cfi_endproc
 643              	.LFE124:
 644              		.size	WM_Size, .-WM_Size
 645 0092 00BFAFF3 		.section	.text.WM_Add,"ax",%progbits
 645      0080AFF3 
 645      0080AFF3 
 645      0080
 646              		.align	2
 647              		.p2align 4,,15
 648              		.thumb
 649              		.thumb_func
 650              		.type	WM_Add, %function
 651              	WM_Add:
 652              	.LFB121:
 653              		.loc 1 147 0
 654              		.cfi_startproc
 655              		@ args = 0, pretend = 0, frame = 0
 656              		@ frame_needed = 0, uses_anonymous_args = 0
 657              	.LVL64:
 658 0000 38B5     		push	{r3, r4, r5, lr}
 659              		.cfi_def_cfa_offset 16
 660              		.cfi_offset 3, -16
 661              		.cfi_offset 4, -12
 662              		.cfi_offset 5, -8
 663              		.cfi_offset 14, -4
 664              		.loc 1 147 0
 665 0002 0446     		mov	r4, r0
ARM GAS  /tmp/cczDJLJg.s 			page 13


 666 0004 0D46     		mov	r5, r1
 667              		.loc 1 151 0
 668 0006 0D48     		ldr	r0, .L64
 669              	.LVL65:
 670 0008 2146     		mov	r1, r4
 671              	.LVL66:
 672 000a FFF7FEFF 		bl	gfxQueueASyncPut
 673              	.LVL67:
 674              		.loc 1 155 0
 675 000e 0023     		movs	r3, #0
 676              		.loc 1 154 0
 677 0010 0322     		movs	r2, #3
 678 0012 2282     		strh	r2, [r4, #16]	@ movhi
 679 0014 6282     		strh	r2, [r4, #18]	@ movhi
 680              		.loc 1 155 0
 681 0016 E381     		strh	r3, [r4, #14]	@ movhi
 682 0018 A381     		strh	r3, [r4, #12]	@ movhi
 683              		.loc 1 156 0
 684 001a 2046     		mov	r0, r4
 685 001c B5F90010 		ldrsh	r1, [r5]
 686 0020 B5F90220 		ldrsh	r2, [r5, #2]
 687 0024 FFF7FEFF 		bl	WM_Move
 688              	.LVL68:
 689              		.loc 1 157 0
 690 0028 2046     		mov	r0, r4
 691 002a B5F90410 		ldrsh	r1, [r5, #4]
 692 002e B5F90620 		ldrsh	r2, [r5, #6]
 693 0032 FFF7FEFF 		bl	WM_Size
 694              	.LVL69:
 695              		.loc 1 159 0
 696 0036 0120     		movs	r0, #1
 697 0038 38BD     		pop	{r3, r4, r5, pc}
 698              	.LVL70:
 699              	.L65:
 700 003a 00BF     		.align	2
 701              	.L64:
 702 003c 00000000 		.word	.LANCHOR2
 703              		.cfi_endproc
 704              	.LFE121:
 705              		.size	WM_Add, .-WM_Add
 706              		.section	.text._gwmInit,"ax",%progbits
 707              		.align	2
 708              		.p2align 4,,15
 709              		.global	_gwmInit
 710              		.thumb
 711              		.thumb_func
 712              		.type	_gwmInit, %function
 713              	_gwmInit:
 714              	.LFB111:
 715              		.loc 1 66 0
 716              		.cfi_startproc
 717              		@ args = 0, pretend = 0, frame = 0
 718              		@ frame_needed = 0, uses_anonymous_args = 0
 719 0000 10B5     		push	{r4, lr}
 720              		.cfi_def_cfa_offset 8
 721              		.cfi_offset 4, -8
 722              		.cfi_offset 14, -4
ARM GAS  /tmp/cczDJLJg.s 			page 14


 723              		.loc 1 67 0
 724 0002 0B48     		ldr	r0, .L67
 725              		.loc 1 71 0
 726 0004 0B4C     		ldr	r4, .L67+4
 727              		.loc 1 66 0
 728 0006 82B0     		sub	sp, sp, #8
 729              		.cfi_def_cfa_offset 16
 730              		.loc 1 67 0
 731 0008 FFF7FEFF 		bl	gfxQueueASyncInit
 732              	.LVL71:
 733              		.loc 1 68 0
 734 000c 0A4B     		ldr	r3, .L67+8
 735 000e 0B4A     		ldr	r2, .L67+12
 736 0010 1A60     		str	r2, [r3]
 737              		.loc 1 71 0
 738 0012 2046     		mov	r0, r4
 739 0014 FFF7FEFF 		bl	gtimerInit
 740              	.LVL72:
 741              		.loc 1 72 0
 742 0018 4FF0FF33 		mov	r3, #-1
 743 001c 0093     		str	r3, [sp]
 744 001e 2046     		mov	r0, r4
 745 0020 0749     		ldr	r1, .L67+16
 746 0022 0022     		movs	r2, #0
 747 0024 0123     		movs	r3, #1
 748 0026 FFF7FEFF 		bl	gtimerStart
 749              	.LVL73:
 750              		.loc 1 74 0
 751 002a 02B0     		add	sp, sp, #8
 752              		@ sp needed
 753 002c 10BD     		pop	{r4, pc}
 754              	.L68:
 755 002e 00BF     		.align	2
 756              	.L67:
 757 0030 00000000 		.word	.LANCHOR2
 758 0034 00000000 		.word	.LANCHOR5
 759 0038 00000000 		.word	.LANCHOR3
 760 003c 00000000 		.word	.LANCHOR4
 761 0040 00000000 		.word	_gwinRedrawDisplay
 762              		.cfi_endproc
 763              	.LFE111:
 764              		.size	_gwmInit, .-_gwmInit
 765 0044 AFF30080 		.section	.text._gwmDeinit,"ax",%progbits
 765      AFF30080 
 765      AFF30080 
 766              		.align	2
 767              		.p2align 4,,15
 768              		.global	_gwmDeinit
 769              		.thumb
 770              		.thumb_func
 771              		.type	_gwmDeinit, %function
 772              	_gwmDeinit:
 773              	.LFB112:
 774              		.loc 1 77 0
 775              		.cfi_startproc
 776              		@ args = 0, pretend = 0, frame = 0
 777              		@ frame_needed = 0, uses_anonymous_args = 0
ARM GAS  /tmp/cczDJLJg.s 			page 15


 778              		@ link register save eliminated.
 779 0000 7047     		bx	lr
 780              		.cfi_endproc
 781              	.LFE112:
 782              		.size	_gwmDeinit, .-_gwmDeinit
 783 0002 00BFAFF3 		.section	.text.gwinSetWindowManager,"ax",%progbits
 783      0080AFF3 
 783      0080AFF3 
 783      0080
 784              		.align	2
 785              		.p2align 4,,15
 786              		.global	gwinSetWindowManager
 787              		.thumb
 788              		.thumb_func
 789              		.type	gwinSetWindowManager, %function
 790              	gwinSetWindowManager:
 791              	.LFB113:
 792              		.loc 1 81 0
 793              		.cfi_startproc
 794              		@ args = 0, pretend = 0, frame = 0
 795              		@ frame_needed = 0, uses_anonymous_args = 0
 796              	.LVL74:
 797              		.loc 1 81 0
 798 0000 38B5     		push	{r3, r4, r5, lr}
 799              		.cfi_def_cfa_offset 16
 800              		.cfi_offset 3, -16
 801              		.cfi_offset 4, -12
 802              		.cfi_offset 5, -8
 803              		.cfi_offset 14, -4
 804              		.loc 1 84 0
 805 0002 084D     		ldr	r5, .L74
 806              		.loc 1 83 0
 807 0004 084C     		ldr	r4, .L74+4
 808              		.loc 1 84 0
 809 0006 2B68     		ldr	r3, [r5]
 810              		.loc 1 83 0
 811 0008 0028     		cmp	r0, #0
 812 000a 18BF     		it	ne
 813 000c 0446     		movne	r4, r0
 814              	.LVL75:
 815              		.loc 1 84 0
 816 000e A342     		cmp	r3, r4
 817 0010 06D0     		beq	.L70
 818              		.loc 1 85 0
 819 0012 1B68     		ldr	r3, [r3]
 820 0014 5B68     		ldr	r3, [r3, #4]
 821 0016 9847     		blx	r3
 822              	.LVL76:
 823              		.loc 1 86 0
 824 0018 2C60     		str	r4, [r5]
 825              		.loc 1 87 0
 826 001a 2368     		ldr	r3, [r4]
 827 001c 1B68     		ldr	r3, [r3]
 828 001e 9847     		blx	r3
 829              	.LVL77:
 830              	.L70:
 831 0020 38BD     		pop	{r3, r4, r5, pc}
ARM GAS  /tmp/cczDJLJg.s 			page 16


 832              	.LVL78:
 833              	.L75:
 834 0022 00BF     		.align	2
 835              	.L74:
 836 0024 00000000 		.word	.LANCHOR3
 837 0028 00000000 		.word	.LANCHOR4
 838              		.cfi_endproc
 839              	.LFE113:
 840              		.size	gwinSetWindowManager, .-gwinSetWindowManager
 841 002c AFF30080 		.section	.text.gwinSetMinMax,"ax",%progbits
 842              		.align	2
 843              		.p2align 4,,15
 844              		.global	gwinSetMinMax
 845              		.thumb
 846              		.thumb_func
 847              		.type	gwinSetMinMax, %function
 848              	gwinSetMinMax:
 849              	.LFB114:
 850              		.loc 1 91 0
 851              		.cfi_startproc
 852              		@ args = 0, pretend = 0, frame = 0
 853              		@ frame_needed = 0, uses_anonymous_args = 0
 854              	.LVL79:
 855 0000 08B5     		push	{r3, lr}
 856              		.cfi_def_cfa_offset 8
 857              		.cfi_offset 3, -8
 858              		.cfi_offset 14, -4
 859              		.loc 1 92 0
 860 0002 034B     		ldr	r3, .L77
 861 0004 1B68     		ldr	r3, [r3]
 862 0006 1B68     		ldr	r3, [r3]
 863 0008 1B6A     		ldr	r3, [r3, #32]
 864 000a 9847     		blx	r3
 865              	.LVL80:
 866 000c 08BD     		pop	{r3, pc}
 867              	.L78:
 868 000e 00BF     		.align	2
 869              	.L77:
 870 0010 00000000 		.word	.LANCHOR3
 871              		.cfi_endproc
 872              	.LFE114:
 873              		.size	gwinSetMinMax, .-gwinSetMinMax
 874 0014 AFF30080 		.section	.text.gwinRaise,"ax",%progbits
 874      AFF30080 
 874      AFF30080 
 875              		.align	2
 876              		.p2align 4,,15
 877              		.global	gwinRaise
 878              		.thumb
 879              		.thumb_func
 880              		.type	gwinRaise, %function
 881              	gwinRaise:
 882              	.LFB115:
 883              		.loc 1 95 0
 884              		.cfi_startproc
 885              		@ args = 0, pretend = 0, frame = 0
 886              		@ frame_needed = 0, uses_anonymous_args = 0
ARM GAS  /tmp/cczDJLJg.s 			page 17


 887              	.LVL81:
 888 0000 08B5     		push	{r3, lr}
 889              		.cfi_def_cfa_offset 8
 890              		.cfi_offset 3, -8
 891              		.cfi_offset 14, -4
 892              		.loc 1 96 0
 893 0002 034B     		ldr	r3, .L80
 894 0004 1B68     		ldr	r3, [r3]
 895 0006 1B68     		ldr	r3, [r3]
 896 0008 DB69     		ldr	r3, [r3, #28]
 897 000a 9847     		blx	r3
 898              	.LVL82:
 899 000c 08BD     		pop	{r3, pc}
 900              	.L81:
 901 000e 00BF     		.align	2
 902              	.L80:
 903 0010 00000000 		.word	.LANCHOR3
 904              		.cfi_endproc
 905              	.LFE115:
 906              		.size	gwinRaise, .-gwinRaise
 907 0014 AFF30080 		.section	.text.gwinGetMinMax,"ax",%progbits
 907      AFF30080 
 907      AFF30080 
 908              		.align	2
 909              		.p2align 4,,15
 910              		.global	gwinGetMinMax
 911              		.thumb
 912              		.thumb_func
 913              		.type	gwinGetMinMax, %function
 914              	gwinGetMinMax:
 915              	.LFB116:
 916              		.loc 1 99 0
 917              		.cfi_startproc
 918              		@ args = 0, pretend = 0, frame = 0
 919              		@ frame_needed = 0, uses_anonymous_args = 0
 920              		@ link register save eliminated.
 921              	.LVL83:
 922              		.loc 1 100 0
 923 0000 8069     		ldr	r0, [r0, #24]
 924              	.LVL84:
 925 0002 C302     		lsls	r3, r0, #11
 926              		.loc 1 101 0
 927 0004 54BF     		ite	pl
 928 0006 C0F34050 		ubfxpl	r0, r0, #21, #1
 929 000a 0220     		movmi	r0, #2
 930              		.loc 1 105 0
 931 000c 7047     		bx	lr
 932              		.cfi_endproc
 933              	.LFE116:
 934              		.size	gwinGetMinMax, .-gwinGetMinMax
 935 000e 00BF     		.section	.text.gwinRedrawDisplay,"ax",%progbits
 936              		.align	2
 937              		.p2align 4,,15
 938              		.global	gwinRedrawDisplay
 939              		.thumb
 940              		.thumb_func
 941              		.type	gwinRedrawDisplay, %function
ARM GAS  /tmp/cczDJLJg.s 			page 18


 942              	gwinRedrawDisplay:
 943              	.LFB117:
 944              		.loc 1 107 0
 945              		.cfi_startproc
 946              		@ args = 0, pretend = 0, frame = 0
 947              		@ frame_needed = 0, uses_anonymous_args = 0
 948              		@ link register save eliminated.
 949              	.LVL85:
 950              		.loc 1 109 0
 951 0000 034A     		ldr	r2, .L86
 952              		.loc 1 110 0
 953 0002 044B     		ldr	r3, .L86+4
 954              		.loc 1 109 0
 955 0004 1060     		str	r0, [r2]
 956              		.loc 1 111 0
 957 0006 0448     		ldr	r0, .L86+8
 958              	.LVL86:
 959              		.loc 1 110 0
 960 0008 1970     		strb	r1, [r3]
 961              		.loc 1 111 0
 962 000a FFF7FEBF 		b	gtimerJab
 963              	.LVL87:
 964              	.L87:
 965 000e 00BF     		.align	2
 966              	.L86:
 967 0010 00000000 		.word	.LANCHOR0
 968 0014 00000000 		.word	.LANCHOR1
 969 0018 00000000 		.word	.LANCHOR5
 970              		.cfi_endproc
 971              	.LFE117:
 972              		.size	gwinRedrawDisplay, .-gwinRedrawDisplay
 973 001c AFF30080 		.section	.text.gwinGetNextWindow,"ax",%progbits
 974              		.align	2
 975              		.p2align 4,,15
 976              		.global	gwinGetNextWindow
 977              		.thumb
 978              		.thumb_func
 979              		.type	gwinGetNextWindow, %function
 980              	gwinGetNextWindow:
 981              	.LFB128:
 982              		.loc 1 308 0
 983              		.cfi_startproc
 984              		@ args = 0, pretend = 0, frame = 0
 985              		@ frame_needed = 0, uses_anonymous_args = 0
 986              		@ link register save eliminated.
 987              	.LVL88:
 988              		.loc 1 309 0
 989 0000 08B1     		cbz	r0, .L89
 990              		.loc 1 309 0 is_stmt 0 discriminator 1
 991 0002 0068     		ldr	r0, [r0]
 992              	.LVL89:
 993 0004 7047     		bx	lr
 994              	.LVL90:
 995              	.L89:
 996              		.loc 1 309 0 discriminator 2
 997 0006 014B     		ldr	r3, .L91
 998 0008 1868     		ldr	r0, [r3]
ARM GAS  /tmp/cczDJLJg.s 			page 19


 999              	.LVL91:
 1000              		.loc 1 310 0 is_stmt 1 discriminator 2
 1001 000a 7047     		bx	lr
 1002              	.L92:
 1003              		.align	2
 1004              	.L91:
 1005 000c 00000000 		.word	.LANCHOR2
 1006              		.cfi_endproc
 1007              	.LFE128:
 1008              		.size	gwinGetNextWindow, .-gwinGetNextWindow
 1009              		.global	_GWINwm
 1010              		.section	.bss._GWINwm,"aw",%nobits
 1011              		.align	2
 1012              		.set	.LANCHOR3,. + 0
 1013              		.type	_GWINwm, %object
 1014              		.size	_GWINwm, 4
 1015              	_GWINwm:
 1016 0000 00000000 		.space	4
 1017              		.section	.rodata.GNullWindowManagerVMT,"a",%progbits
 1018              		.align	2
 1019              		.type	GNullWindowManagerVMT, %object
 1020              		.size	GNullWindowManagerVMT, 36
 1021              	GNullWindowManagerVMT:
 1022 0000 00000000 		.word	WM_Init
 1023 0004 00000000 		.word	WM_DeInit
 1024 0008 00000000 		.word	WM_Add
 1025 000c 00000000 		.word	WM_Delete
 1026 0010 00000000 		.word	WM_Redraw
 1027 0014 00000000 		.word	WM_Size
 1028 0018 00000000 		.word	WM_Move
 1029 001c 00000000 		.word	WM_Raise
 1030 0020 00000000 		.word	WM_MinMax
 1031              		.section	.bss.RedrawTimer,"aw",%nobits
 1032              		.align	2
 1033              		.set	.LANCHOR5,. + 0
 1034              		.type	RedrawTimer, %object
 1035              		.size	RedrawTimer, 28
 1036              	RedrawTimer:
 1037 0000 00000000 		.space	28
 1037      00000000 
 1037      00000000 
 1037      00000000 
 1037      00000000 
 1038              		.section	.rodata.GNullWindowManager,"a",%progbits
 1039              		.align	2
 1040              		.set	.LANCHOR4,. + 0
 1041              		.type	GNullWindowManager, %object
 1042              		.size	GNullWindowManager, 4
 1043              	GNullWindowManager:
 1044 0000 00000000 		.word	GNullWindowManagerVMT
 1045              		.section	.bss.RedrawDisplay,"aw",%nobits
 1046              		.align	2
 1047              		.set	.LANCHOR0,. + 0
 1048              		.type	RedrawDisplay, %object
 1049              		.size	RedrawDisplay, 4
 1050              	RedrawDisplay:
 1051 0000 00000000 		.space	4
ARM GAS  /tmp/cczDJLJg.s 			page 20


 1052              		.section	.bss._GWINList,"aw",%nobits
 1053              		.align	2
 1054              		.set	.LANCHOR2,. + 0
 1055              		.type	_GWINList, %object
 1056              		.size	_GWINList, 8
 1057              	_GWINList:
 1058 0000 00000000 		.space	8
 1058      00000000 
 1059              		.section	.bss.RedrawPreserve,"aw",%nobits
 1060              		.set	.LANCHOR1,. + 0
 1061              		.type	RedrawPreserve, %object
 1062              		.size	RedrawPreserve, 1
 1063              	RedrawPreserve:
 1064 0000 00       		.space	1
 1065              		.text
 1066              	.Letext0:
 1067              		.file 2 "/opt/ARM/lib/gcc/arm-none-eabi/4.8.4/include/stddef.h"
 1068              		.file 3 "/opt/ARM/arm-none-eabi/include/machine/_default_types.h"
 1069              		.file 4 "/opt/ARM/arm-none-eabi/include/stdint.h"
 1070              		.file 5 "../../os/ports/GCC/ARMCMx/chtypes.h"
 1071              		.file 6 "/home/makkmarci/devel/ugfx/src/gos/chibios.h"
 1072              		.file 7 "/home/makkmarci/devel/ugfx/src/gqueue/sys_defs.h"
 1073              		.file 8 "/home/makkmarci/devel/ugfx/src/gtimer/sys_defs.h"
 1074              		.file 9 "/home/makkmarci/devel/ugfx/src/gdisp/sys_defs.h"
 1075              		.file 10 "/home/makkmarci/devel/ugfx/src/gdisp/colors.h"
 1076              		.file 11 "/home/makkmarci/devel/ugfx/src/gwin/sys_defs.h"
 1077              		.file 12 "/home/makkmarci/devel/ugfx/src/gwin/class_gwin.h"
 1078              		.file 13 "../../os/ports/common/ARMCMx/CMSIS/include/core_cm4.h"