ARM GAS  /tmp/ccFyZV7d.s 			page 1


   1              		.syntax unified
   2              		.cpu cortex-m4
   3              		.eabi_attribute 27, 3
   4              		.eabi_attribute 28, 1
   5              		.fpu fpv4-sp-d16
   6              		.eabi_attribute 20, 1
   7              		.eabi_attribute 21, 1
   8              		.eabi_attribute 23, 3
   9              		.eabi_attribute 24, 1
  10              		.eabi_attribute 25, 1
  11              		.eabi_attribute 26, 1
  12              		.eabi_attribute 30, 2
  13              		.eabi_attribute 34, 1
  14              		.eabi_attribute 18, 4
  15              		.thumb
  16              		.file	"hal.c"
  17              		.text
  18              	.Ltext0:
  19              		.cfi_sections	.debug_frame
  20              		.section	.text.halInit,"ax",%progbits
  21              		.align	2
  22              		.p2align 4,,15
  23              		.global	halInit
  24              		.thumb
  25              		.thumb_func
  26              		.type	halInit, %function
  27              	halInit:
  28              	.LFB111:
  29              		.file 1 "../../os/hal/src/hal.c"
  30              		.loc 1 68 0
  31              		.cfi_startproc
  32              		@ args = 0, pretend = 0, frame = 0
  33              		@ frame_needed = 0, uses_anonymous_args = 0
  34 0000 08B5     		push	{r3, lr}
  35              		.cfi_def_cfa_offset 8
  36              		.cfi_offset 3, -8
  37              		.cfi_offset 14, -4
  38              		.loc 1 70 0
  39 0002 FFF7FEFF 		bl	hal_lld_init
  40              	.LVL0:
  41              		.loc 1 76 0
  42 0006 0748     		ldr	r0, .L2
  43 0008 FFF7FEFF 		bl	_pal_lld_init
  44              	.LVL1:
  45              		.loc 1 79 0
  46 000c FFF7FEFF 		bl	adcInit
  47              	.LVL2:
  48              		.loc 1 100 0
  49 0010 FFF7FEFF 		bl	pwmInit
  50              	.LVL3:
  51              		.loc 1 103 0
  52 0014 FFF7FEFF 		bl	sdInit
  53              	.LVL4:
  54              		.loc 1 109 0
  55 0018 FFF7FEFF 		bl	spiInit
  56              	.LVL5:
  57              		.loc 1 128 0
ARM GAS  /tmp/ccFyZV7d.s 			page 2


  58 001c BDE80840 		pop	{r3, lr}
  59              		.loc 1 127 0
  60 0020 FFF7FEBF 		b	boardInit
  61              	.LVL6:
  62              	.L3:
  63              		.align	2
  64              	.L2:
  65 0024 00000000 		.word	pal_default_config
  66              		.cfi_endproc
  67              	.LFE111:
  68              		.size	halInit, .-halInit
  69 0028 AFF30080 		.section	.text.halIsCounterWithin,"ax",%progbits
  69      AFF30080 
  70              		.align	2
  71              		.p2align 4,,15
  72              		.global	halIsCounterWithin
  73              		.thumb
  74              		.thumb_func
  75              		.type	halIsCounterWithin, %function
  76              	halIsCounterWithin:
  77              	.LFB112:
  78              		.loc 1 174 0
  79              		.cfi_startproc
  80              		@ args = 0, pretend = 0, frame = 0
  81              		@ frame_needed = 0, uses_anonymous_args = 0
  82              		@ link register save eliminated.
  83              	.LVL7:
  84              		.loc 1 175 0
  85 0000 084B     		ldr	r3, .L13
  86              		.loc 1 177 0
  87 0002 8142     		cmp	r1, r0
  88              		.loc 1 175 0
  89 0004 5B68     		ldr	r3, [r3, #4]
  90              	.LVL8:
  91              		.loc 1 177 0
  92 0006 06D9     		bls	.L5
  93              		.loc 1 177 0 is_stmt 0 discriminator 1
  94 0008 8342     		cmp	r3, r0
  95 000a 08D3     		bcc	.L9
  96              	.L11:
  97 000c 8B42     		cmp	r3, r1
  98 000e 2CBF     		ite	cs
  99 0010 0020     		movcs	r0, #0
 100              	.LVL9:
 101 0012 0120     		movcc	r0, #1
 102 0014 7047     		bx	lr
 103              	.LVL10:
 104              	.L5:
 105              		.loc 1 178 0 is_stmt 1
 106 0016 8342     		cmp	r3, r0
 107 0018 F8D3     		bcc	.L11
 108 001a 0120     		movs	r0, #1
 109              	.LVL11:
 110              		.loc 1 179 0
 111 001c 7047     		bx	lr
 112              	.LVL12:
 113              	.L9:
ARM GAS  /tmp/ccFyZV7d.s 			page 3


 114 001e 0020     		movs	r0, #0
 115              	.LVL13:
 116 0020 7047     		bx	lr
 117              	.L14:
 118 0022 00BF     		.align	2
 119              	.L13:
 120 0024 001000E0 		.word	-536866816
 121              		.cfi_endproc
 122              	.LFE112:
 123              		.size	halIsCounterWithin, .-halIsCounterWithin
 124 0028 AFF30080 		.section	.text.halPolledDelay,"ax",%progbits
 124      AFF30080 
 125              		.align	2
 126              		.p2align 4,,15
 127              		.global	halPolledDelay
 128              		.thumb
 129              		.thumb_func
 130              		.type	halPolledDelay, %function
 131              	halPolledDelay:
 132              	.LFB113:
 133              		.loc 1 193 0
 134              		.cfi_startproc
 135              		@ args = 0, pretend = 0, frame = 0
 136              		@ frame_needed = 0, uses_anonymous_args = 0
 137              		@ link register save eliminated.
 138              	.LVL14:
 139              		.loc 1 194 0
 140 0000 0C49     		ldr	r1, .L26
 141 0002 4A68     		ldr	r2, [r1, #4]
 142              	.LVL15:
 143              		.loc 1 195 0
 144 0004 1044     		add	r0, r0, r2
 145              	.LVL16:
 146              	.L21:
 147              	.LBB4:
 148              	.LBB5:
 149              		.loc 1 177 0 discriminator 1
 150 0006 8242     		cmp	r2, r0
 151              		.loc 1 175 0 discriminator 1
 152 0008 4B68     		ldr	r3, [r1, #4]
 153              	.LVL17:
 154              		.loc 1 177 0 discriminator 1
 155 000a 0CD2     		bcs	.L16
 156              		.loc 1 177 0 is_stmt 0
 157 000c 9A42     		cmp	r2, r3
 158 000e 03D9     		bls	.L24
 159 0010 0023     		movs	r3, #0
 160              	.LVL18:
 161              	.LBE5:
 162              	.LBE4:
 163              		.loc 1 196 0 is_stmt 1
 164 0012 002B     		cmp	r3, #0
 165 0014 F7D1     		bne	.L21
 166              	.L25:
 167              		.loc 1 198 0
 168 0016 7047     		bx	lr
 169              	.LVL19:
ARM GAS  /tmp/ccFyZV7d.s 			page 4


 170              	.L24:
 171 0018 9842     		cmp	r0, r3
 172 001a 94BF     		ite	ls
 173 001c 0023     		movls	r3, #0
 174              	.LVL20:
 175 001e 0123     		movhi	r3, #1
 176              		.loc 1 196 0
 177 0020 002B     		cmp	r3, #0
 178 0022 F0D1     		bne	.L21
 179 0024 F7E7     		b	.L25
 180              	.LVL21:
 181              	.L16:
 182              	.LBB7:
 183              	.LBB6:
 184              		.loc 1 178 0
 185 0026 9A42     		cmp	r2, r3
 186 0028 F6D8     		bhi	.L24
 187 002a 0123     		movs	r3, #1
 188              	.LVL22:
 189              	.LBE6:
 190              	.LBE7:
 191              		.loc 1 196 0
 192 002c 002B     		cmp	r3, #0
 193 002e EAD1     		bne	.L21
 194 0030 F1E7     		b	.L25
 195              	.L27:
 196 0032 00BF     		.align	2
 197              	.L26:
 198 0034 001000E0 		.word	-536866816
 199              		.cfi_endproc
 200              	.LFE113:
 201              		.size	halPolledDelay, .-halPolledDelay
 202 0038 AFF30080 		.text
 202      AFF30080 
 203              	.Letext0:
 204              		.file 2 "/opt/ARM/arm-none-eabi/include/machine/_default_types.h"
 205              		.file 3 "/opt/ARM/arm-none-eabi/include/stdint.h"
 206              		.file 4 "../../os/ports/GCC/ARMCMx/chtypes.h"
 207              		.file 5 "../../os/ports/common/ARMCMx/nvic.h"
 208              		.file 6 "../../os/hal/platforms/STM32F4xx/hal_lld.h"
 209              		.file 7 "../../os/hal/platforms/STM32/GPIOv2/pal_lld.h"
 210              		.file 8 "../../os/ports/common/ARMCMx/CMSIS/include/core_cm4.h"
 211              		.file 9 "../../os/hal/include/adc.h"
 212              		.file 10 "../../os/hal/include/pwm.h"
 213              		.file 11 "../../os/hal/include/serial.h"
 214              		.file 12 "../../os/hal/include/spi.h"
 215              		.file 13 "../../boards/ST_STM32F4_DISCOVERY/board.h"