ARM GAS  /tmp/cc8lqZHy.s 			page 1


   1              		.syntax unified
   2              		.cpu cortex-m4
   3              		.eabi_attribute 27, 3
   4              		.eabi_attribute 28, 1
   5              		.fpu fpv4-sp-d16
   6              		.eabi_attribute 20, 1
   7              		.eabi_attribute 21, 1
   8              		.eabi_attribute 23, 3
   9              		.eabi_attribute 24, 1
  10              		.eabi_attribute 25, 1
  11              		.eabi_attribute 26, 1
  12              		.eabi_attribute 30, 2
  13              		.eabi_attribute 34, 1
  14              		.eabi_attribute 18, 4
  15              		.thumb
  16              		.file	"hal_lld.c"
  17              		.text
  18              	.Ltext0:
  19              		.cfi_sections	.debug_frame
  20              		.section	.text.hal_lld_init,"ax",%progbits
  21              		.align	2
  22              		.p2align 4,,15
  23              		.global	hal_lld_init
  24              		.thumb
  25              		.thumb_func
  26              		.type	hal_lld_init, %function
  27              	hal_lld_init:
  28              	.LFB112:
  29              		.file 1 "../../os/hal/platforms/STM32F4xx/hal_lld.c"
  30              		.loc 1 112 0
  31              		.cfi_startproc
  32              		@ args = 0, pretend = 0, frame = 0
  33              		@ frame_needed = 0, uses_anonymous_args = 0
  34              		@ link register save eliminated.
  35              		.loc 1 116 0
  36 0000 274B     		ldr	r3, .L9
  37              		.loc 1 122 0
  38 0002 2849     		ldr	r1, .L9+4
  39              		.loc 1 116 0
  40 0004 1A69     		ldr	r2, [r3, #16]
  41              		.loc 1 122 0
  42 0006 DFF8ACC0 		ldr	ip, .L9+20
  43              		.loc 1 116 0
  44 000a 0022     		movs	r2, #0
  45 000c 4FF0FF30 		mov	r0, #-1
  46              		.loc 1 112 0
  47 0010 2DE9F001 		push	{r4, r5, r6, r7, r8}
  48              		.cfi_def_cfa_offset 20
  49              		.cfi_offset 4, -20
  50              		.cfi_offset 5, -16
  51              		.cfi_offset 6, -12
  52              		.cfi_offset 7, -8
  53              		.cfi_offset 8, -4
  54              		.loc 1 116 0
  55 0014 1861     		str	r0, [r3, #16]
  56 0016 1A61     		str	r2, [r3, #16]
  57              		.loc 1 117 0
ARM GAS  /tmp/cc8lqZHy.s 			page 2


  58 0018 5F69     		ldr	r7, [r3, #20]
  59 001a 5861     		str	r0, [r3, #20]
  60 001c 5A61     		str	r2, [r3, #20]
  61              		.loc 1 118 0
  62 001e 1F6A     		ldr	r7, [r3, #32]
  63              		.loc 1 129 0
  64 0020 214E     		ldr	r6, .L9+8
  65              		.loc 1 130 0
  66 0022 224D     		ldr	r5, .L9+12
  67              	.LBB4:
  68              	.LBB5:
  69              		.loc 1 54 0
  70 0024 224C     		ldr	r4, .L9+16
  71              	.LBE5:
  72              	.LBE4:
  73              		.loc 1 118 0
  74 0026 67F08057 		orn	r7, r7, #268435456
  75 002a 1F62     		str	r7, [r3, #32]
  76 002c 1A62     		str	r2, [r3, #32]
  77              		.loc 1 124 0
  78 002e 0727     		movs	r7, #7
  79              		.loc 1 119 0
  80 0030 D3F82480 		ldr	r8, [r3, #36]
  81 0034 5862     		str	r0, [r3, #36]
  82 0036 5A62     		str	r2, [r3, #36]
  83              		.loc 1 122 0
  84 0038 C1F804C0 		str	ip, [r1, #4]
  85              		.loc 1 123 0
  86 003c 8A60     		str	r2, [r1, #8]
  87              		.loc 1 124 0
  88 003e 0F60     		str	r7, [r1]
  89              		.loc 1 129 0
  90 0040 F168     		ldr	r1, [r6, #12]
  91 0042 41F08071 		orr	r1, r1, #16777216
  92 0046 F160     		str	r1, [r6, #12]
  93              		.loc 1 130 0
  94 0048 2968     		ldr	r1, [r5]
  95 004a 41F00101 		orr	r1, r1, #1
  96 004e 2960     		str	r1, [r5]
  97              		.loc 1 133 0
  98 0050 196C     		ldr	r1, [r3, #64]
  99 0052 41F08051 		orr	r1, r1, #268435456
 100 0056 1964     		str	r1, [r3, #64]
 101              	.LBB7:
 102              	.LBB6:
 103              		.loc 1 54 0
 104 0058 2168     		ldr	r1, [r4]
 105 005a 41F48071 		orr	r1, r1, #256
 106 005e 2160     		str	r1, [r4]
 107              		.loc 1 57 0
 108 0060 196F     		ldr	r1, [r3, #112]
 109 0062 01F44071 		and	r1, r1, #768
 110 0066 B1F5007F 		cmp	r1, #512
 111 006a 03D0     		beq	.L2
 112              		.loc 1 59 0
 113 006c 4FF48031 		mov	r1, #65536
 114 0070 1967     		str	r1, [r3, #112]
ARM GAS  /tmp/cc8lqZHy.s 			page 3


 115              		.loc 1 60 0
 116 0072 1A67     		str	r2, [r3, #112]
 117              	.L2:
 118              		.loc 1 88 0
 119 0074 0A4B     		ldr	r3, .L9
 120              		.loc 1 91 0
 121 0076 0E4A     		ldr	r2, .L9+16
 122              		.loc 1 88 0
 123 0078 196B     		ldr	r1, [r3, #48]
 124 007a 41F48021 		orr	r1, r1, #262144
 125 007e 1963     		str	r1, [r3, #48]
 126              		.loc 1 90 0
 127 0080 196B     		ldr	r1, [r3, #48]
 128 0082 41F48021 		orr	r1, r1, #262144
 129 0086 1963     		str	r1, [r3, #48]
 130              		.loc 1 91 0
 131 0088 5368     		ldr	r3, [r2, #4]
 132 008a 43F40073 		orr	r3, r3, #512
 133 008e 5360     		str	r3, [r2, #4]
 134              	.L4:
 135              		.loc 1 92 0
 136 0090 5368     		ldr	r3, [r2, #4]
 137 0092 1B07     		lsls	r3, r3, #28
 138 0094 FCD5     		bpl	.L4
 139              	.LBE6:
 140              	.LBE7:
 141              		.loc 1 146 0
 142 0096 BDE8F001 		pop	{r4, r5, r6, r7, r8}
 143              		.loc 1 139 0
 144 009a FFF7FEBF 		b	dmaInit
 145              	.LVL0:
 146              	.L10:
 147 009e 00BF     		.align	2
 148              	.L9:
 149 00a0 00380240 		.word	1073887232
 150 00a4 10E000E0 		.word	-536813552
 151 00a8 F0ED00E0 		.word	-536810000
 152 00ac 001000E0 		.word	-536866816
 153 00b0 00700040 		.word	1073770496
 154 00b4 3F900200 		.word	167999
 155              		.cfi_endproc
 156              	.LFE112:
 157              		.size	hal_lld_init, .-hal_lld_init
 158 00b8 AFF30080 		.section	.text.stm32_clock_init,"ax",%progbits
 158      AFF30080 
 159              		.align	2
 160              		.p2align 4,,15
 161              		.global	stm32_clock_init
 162              		.thumb
 163              		.thumb_func
 164              		.type	stm32_clock_init, %function
 165              	stm32_clock_init:
 166              	.LFB113:
 167              		.loc 1 155 0
 168              		.cfi_startproc
 169              		@ args = 0, pretend = 0, frame = 0
 170              		@ frame_needed = 0, uses_anonymous_args = 0
ARM GAS  /tmp/cc8lqZHy.s 			page 4


 171              		@ link register save eliminated.
 172              		.loc 1 159 0
 173 0000 2B49     		ldr	r1, .L26
 174              		.loc 1 163 0
 175 0002 2C4B     		ldr	r3, .L26+4
 176              		.loc 1 159 0
 177 0004 4FF08050 		mov	r0, #268435456
 178              		.loc 1 163 0
 179 0008 4FF44042 		mov	r2, #49152
 180              		.loc 1 159 0
 181 000c 0864     		str	r0, [r1, #64]
 182              		.loc 1 163 0
 183 000e 1A60     		str	r2, [r3]
 184              		.loc 1 170 0
 185 0010 0B68     		ldr	r3, [r1]
 186 0012 43F00103 		orr	r3, r3, #1
 187 0016 0B60     		str	r3, [r1]
 188              	.L13:
 189              		.loc 1 171 0 discriminator 1
 190 0018 0B68     		ldr	r3, [r1]
 191 001a 254A     		ldr	r2, .L26
 192 001c 9807     		lsls	r0, r3, #30
 193 001e FBD5     		bpl	.L13
 194              		.loc 1 173 0
 195 0020 1168     		ldr	r1, [r2]
 196              		.loc 1 174 0
 197 0022 0023     		movs	r3, #0
 198              		.loc 1 173 0
 199 0024 01F0F901 		and	r1, r1, #249
 200 0028 1160     		str	r1, [r2]
 201              		.loc 1 175 0
 202 002a 1146     		mov	r1, r2
 203              		.loc 1 174 0
 204 002c 9360     		str	r3, [r2, #8]
 205              	.L15:
 206              		.loc 1 175 0 discriminator 1
 207 002e 8B68     		ldr	r3, [r1, #8]
 208 0030 1F4A     		ldr	r2, .L26
 209 0032 13F00C0F 		tst	r3, #12
 210 0036 FAD1     		bne	.L15
 211              		.loc 1 185 0
 212 0038 1368     		ldr	r3, [r2]
 213 003a 43F48033 		orr	r3, r3, #65536
 214 003e 1360     		str	r3, [r2]
 215              		.loc 1 187 0
 216 0040 1146     		mov	r1, r2
 217              	.L17:
 218              		.loc 1 187 0 is_stmt 0 discriminator 1
 219 0042 0B68     		ldr	r3, [r1]
 220 0044 1A4A     		ldr	r2, .L26
 221 0046 9B03     		lsls	r3, r3, #14
 222 0048 FBD5     		bpl	.L17
 223              		.loc 1 193 0 is_stmt 1
 224 004a 536F     		ldr	r3, [r2, #116]
 225 004c 43F00103 		orr	r3, r3, #1
 226 0050 5367     		str	r3, [r2, #116]
 227              		.loc 1 194 0
ARM GAS  /tmp/cc8lqZHy.s 			page 5


 228 0052 1146     		mov	r1, r2
 229              	.L19:
 230              		.loc 1 194 0 is_stmt 0 discriminator 1
 231 0054 4B6F     		ldr	r3, [r1, #116]
 232 0056 164A     		ldr	r2, .L26
 233 0058 9807     		lsls	r0, r3, #30
 234 005a FBD5     		bpl	.L19
 235              		.loc 1 200 0 is_stmt 1
 236 005c 164B     		ldr	r3, .L26+8
 237 005e 5360     		str	r3, [r2, #4]
 238              		.loc 1 202 0
 239 0060 1368     		ldr	r3, [r2]
 240              		.loc 1 206 0
 241 0062 1449     		ldr	r1, .L26+4
 242              		.loc 1 202 0
 243 0064 43F08073 		orr	r3, r3, #16777216
 244 0068 1360     		str	r3, [r2]
 245              	.L21:
 246              		.loc 1 206 0 discriminator 1
 247 006a 4B68     		ldr	r3, [r1, #4]
 248 006c 5A04     		lsls	r2, r3, #17
 249 006e FCD5     		bpl	.L21
 250              		.loc 1 222 0
 251 0070 0F49     		ldr	r1, .L26
 252              	.L23:
 253 0072 0B68     		ldr	r3, [r1]
 254 0074 0E4A     		ldr	r2, .L26
 255 0076 9B01     		lsls	r3, r3, #6
 256 0078 FBD5     		bpl	.L23
 257              		.loc 1 250 0
 258 007a 104B     		ldr	r3, .L26+12
 259              		.loc 1 237 0
 260 007c 1049     		ldr	r1, .L26+16
 261 007e 9160     		str	r1, [r2, #8]
 262              		.loc 1 250 0
 263 0080 40F20571 		movw	r1, #1797
 264 0084 1960     		str	r1, [r3]
 265              		.loc 1 256 0
 266 0086 9368     		ldr	r3, [r2, #8]
 267 0088 43F00203 		orr	r3, r3, #2
 268 008c 9360     		str	r3, [r2, #8]
 269              		.loc 1 257 0
 270 008e 1146     		mov	r1, r2
 271              	.L25:
 272              		.loc 1 257 0 is_stmt 0 discriminator 1
 273 0090 8B68     		ldr	r3, [r1, #8]
 274 0092 074A     		ldr	r2, .L26
 275 0094 03F00C03 		and	r3, r3, #12
 276 0098 082B     		cmp	r3, #8
 277 009a F9D1     		bne	.L25
 278              		.loc 1 264 0 is_stmt 1
 279 009c 536C     		ldr	r3, [r2, #68]
 280 009e 43F48043 		orr	r3, r3, #16384
 281 00a2 5364     		str	r3, [r2, #68]
 282 00a4 536E     		ldr	r3, [r2, #100]
 283 00a6 43F48043 		orr	r3, r3, #16384
 284 00aa 5366     		str	r3, [r2, #100]
ARM GAS  /tmp/cc8lqZHy.s 			page 6


 285 00ac 7047     		bx	lr
 286              	.L27:
 287 00ae 00BF     		.align	2
 288              	.L26:
 289 00b0 00380240 		.word	1073887232
 290 00b4 00700040 		.word	1073770496
 291 00b8 08544007 		.word	121656328
 292 00bc 003C0240 		.word	1073888256
 293 00c0 00940838 		.word	940086272
 294              		.cfi_endproc
 295              	.LFE113:
 296              		.size	stm32_clock_init, .-stm32_clock_init
 297 00c4 AFF30080 		.text
 297      AFF30080 
 297      AFF30080 
 298              	.Letext0:
 299              		.file 2 "/opt/ARM/arm-none-eabi/include/machine/_default_types.h"
 300              		.file 3 "/opt/ARM/arm-none-eabi/include/stdint.h"
 301              		.file 4 "../../os/ports/common/ARMCMx/nvic.h"
 302              		.file 5 "../../os/ports/common/ARMCMx/CMSIS/include/core_cm4.h"
 303              		.file 6 "../../os/hal/platforms/STM32F4xx/stm32f4xx.h"
 304              		.file 7 "../../os/hal/platforms/STM32F4xx/stm32_dma.h"
 305              		.section	.debug_info,"",%progbits
 306              	.Ldebug_info0:
 307 0000 8D040000 		.4byte	0x48d
 308 0004 0400     		.2byte	0x4
 309 0006 00000000 		.4byte	.Ldebug_abbrev0
 310 000a 04       		.byte	0x4
 311 000b 01       		.uleb128 0x1
 312 000c 00020000 		.4byte	.LASF70
 313 0010 01       		.byte	0x1
 314 0011 D4030000 		.4byte	.LASF71
 315 0015 8E010000 		.4byte	.LASF72
 316 0019 18000000 		.4byte	.Ldebug_ranges0+0x18
 317 001d 00000000 		.4byte	0
 318 0021 00000000 		.4byte	.Ldebug_line0
 319 0025 02       		.uleb128 0x2
 320 0026 04       		.byte	0x4
 321 0027 05       		.byte	0x5
 322 0028 696E7400 		.ascii	"int\000"
 323 002c 03       		.uleb128 0x3
 324 002d 04       		.byte	0x4
 325 002e 07       		.byte	0x7
 326 002f D8010000 		.4byte	.LASF0
 327 0033 03       		.uleb128 0x3
 328 0034 01       		.byte	0x1
 329 0035 06       		.byte	0x6
 330 0036 62010000 		.4byte	.LASF1
 331 003a 03       		.uleb128 0x3
 332 003b 01       		.byte	0x1
 333 003c 08       		.byte	0x8
 334 003d 4C010000 		.4byte	.LASF2
 335 0041 03       		.uleb128 0x3
 336 0042 02       		.byte	0x2
 337 0043 05       		.byte	0x5
 338 0044 21000000 		.4byte	.LASF3
 339 0048 03       		.uleb128 0x3
ARM GAS  /tmp/cc8lqZHy.s 			page 7


 340 0049 02       		.byte	0x2
 341 004a 07       		.byte	0x7
 342 004b 3B030000 		.4byte	.LASF4
 343 004f 04       		.uleb128 0x4
 344 0050 FF030000 		.4byte	.LASF6
 345 0054 02       		.byte	0x2
 346 0055 37       		.byte	0x37
 347 0056 5A000000 		.4byte	0x5a
 348 005a 03       		.uleb128 0x3
 349 005b 04       		.byte	0x4
 350 005c 05       		.byte	0x5
 351 005d 02010000 		.4byte	.LASF5
 352 0061 04       		.uleb128 0x4
 353 0062 5D000000 		.4byte	.LASF7
 354 0066 02       		.byte	0x2
 355 0067 38       		.byte	0x38
 356 0068 6C000000 		.4byte	0x6c
 357 006c 03       		.uleb128 0x3
 358 006d 04       		.byte	0x4
 359 006e 07       		.byte	0x7
 360 006f EE010000 		.4byte	.LASF8
 361 0073 03       		.uleb128 0x3
 362 0074 08       		.byte	0x8
 363 0075 05       		.byte	0x5
 364 0076 E1000000 		.4byte	.LASF9
 365 007a 03       		.uleb128 0x3
 366 007b 08       		.byte	0x8
 367 007c 07       		.byte	0x7
 368 007d 6E010000 		.4byte	.LASF10
 369 0081 04       		.uleb128 0x4
 370 0082 65030000 		.4byte	.LASF11
 371 0086 03       		.byte	0x3
 372 0087 41       		.byte	0x41
 373 0088 4F000000 		.4byte	0x4f
 374 008c 04       		.uleb128 0x4
 375 008d 85010000 		.4byte	.LASF12
 376 0091 03       		.byte	0x3
 377 0092 42       		.byte	0x42
 378 0093 61000000 		.4byte	0x61
 379 0097 03       		.uleb128 0x3
 380 0098 01       		.byte	0x1
 381 0099 02       		.byte	0x2
 382 009a 6D030000 		.4byte	.LASF13
 383 009e 04       		.uleb128 0x4
 384 009f D1000000 		.4byte	.LASF14
 385 00a3 04       		.byte	0x4
 386 00a4 3A       		.byte	0x3a
 387 00a5 A9000000 		.4byte	0xa9
 388 00a9 05       		.uleb128 0x5
 389 00aa 8C000000 		.4byte	0x8c
 390 00ae 03       		.uleb128 0x3
 391 00af 04       		.byte	0x4
 392 00b0 07       		.byte	0x7
 393 00b1 2B000000 		.4byte	.LASF15
 394 00b5 06       		.uleb128 0x6
 395 00b6 10       		.byte	0x10
 396 00b7 04       		.byte	0x4
ARM GAS  /tmp/cc8lqZHy.s 			page 8


 397 00b8 F1       		.byte	0xf1
 398 00b9 EE000000 		.4byte	0xee
 399 00bd 07       		.uleb128 0x7
 400 00be FC000000 		.4byte	.LASF16
 401 00c2 04       		.byte	0x4
 402 00c3 F2       		.byte	0xf2
 403 00c4 9E000000 		.4byte	0x9e
 404 00c8 00       		.byte	0
 405 00c9 07       		.uleb128 0x7
 406 00ca A2000000 		.4byte	.LASF17
 407 00ce 04       		.byte	0x4
 408 00cf F3       		.byte	0xf3
 409 00d0 9E000000 		.4byte	0x9e
 410 00d4 04       		.byte	0x4
 411 00d5 07       		.uleb128 0x7
 412 00d6 C3000000 		.4byte	.LASF18
 413 00da 04       		.byte	0x4
 414 00db F4       		.byte	0xf4
 415 00dc 9E000000 		.4byte	0x9e
 416 00e0 08       		.byte	0x8
 417 00e1 07       		.uleb128 0x7
 418 00e2 1B000000 		.4byte	.LASF19
 419 00e6 04       		.byte	0x4
 420 00e7 F5       		.byte	0xf5
 421 00e8 9E000000 		.4byte	0x9e
 422 00ec 0C       		.byte	0xc
 423 00ed 00       		.byte	0
 424 00ee 04       		.uleb128 0x4
 425 00ef 5D030000 		.4byte	.LASF20
 426 00f3 04       		.byte	0x4
 427 00f4 F6       		.byte	0xf6
 428 00f5 B5000000 		.4byte	0xb5
 429 00f9 08       		.uleb128 0x8
 430 00fa 20       		.byte	0x20
 431 00fb 04       		.byte	0x4
 432 00fc 0601     		.2byte	0x106
 433 00fe 6B010000 		.4byte	0x16b
 434 0102 09       		.uleb128 0x9
 435 0103 76000000 		.4byte	.LASF21
 436 0107 04       		.byte	0x4
 437 0108 0701     		.2byte	0x107
 438 010a 9E000000 		.4byte	0x9e
 439 010e 00       		.byte	0
 440 010f 09       		.uleb128 0x9
 441 0110 EF000000 		.4byte	.LASF22
 442 0114 04       		.byte	0x4
 443 0115 0801     		.2byte	0x108
 444 0117 9E000000 		.4byte	0x9e
 445 011b 04       		.byte	0x4
 446 011c 09       		.uleb128 0x9
 447 011d 89000000 		.4byte	.LASF23
 448 0121 04       		.byte	0x4
 449 0122 0901     		.2byte	0x109
 450 0124 9E000000 		.4byte	0x9e
 451 0128 08       		.byte	0x8
 452 0129 09       		.uleb128 0x9
 453 012a 45010000 		.4byte	.LASF24
ARM GAS  /tmp/cc8lqZHy.s 			page 9


 454 012e 04       		.byte	0x4
 455 012f 0A01     		.2byte	0x10a
 456 0131 9E000000 		.4byte	0x9e
 457 0135 0C       		.byte	0xc
 458 0136 09       		.uleb128 0x9
 459 0137 CB030000 		.4byte	.LASF25
 460 013b 04       		.byte	0x4
 461 013c 0B01     		.2byte	0x10b
 462 013e 9E000000 		.4byte	0x9e
 463 0142 10       		.byte	0x10
 464 0143 09       		.uleb128 0x9
 465 0144 09040000 		.4byte	.LASF26
 466 0148 04       		.byte	0x4
 467 0149 0C01     		.2byte	0x10c
 468 014b 9E000000 		.4byte	0x9e
 469 014f 14       		.byte	0x14
 470 0150 09       		.uleb128 0x9
 471 0151 3E000000 		.4byte	.LASF27
 472 0155 04       		.byte	0x4
 473 0156 0D01     		.2byte	0x10d
 474 0158 9E000000 		.4byte	0x9e
 475 015c 18       		.byte	0x18
 476 015d 09       		.uleb128 0x9
 477 015e 39000000 		.4byte	.LASF28
 478 0162 04       		.byte	0x4
 479 0163 0E01     		.2byte	0x10e
 480 0165 9E000000 		.4byte	0x9e
 481 0169 1C       		.byte	0x1c
 482 016a 00       		.byte	0
 483 016b 0A       		.uleb128 0xa
 484 016c 68000000 		.4byte	.LASF29
 485 0170 04       		.byte	0x4
 486 0171 0F01     		.2byte	0x10f
 487 0173 F9000000 		.4byte	0xf9
 488 0177 03       		.uleb128 0x3
 489 0178 01       		.byte	0x1
 490 0179 08       		.byte	0x8
 491 017a 58030000 		.4byte	.LASF30
 492 017e 0B       		.uleb128 0xb
 493 017f A9000000 		.4byte	0xa9
 494 0183 0C       		.uleb128 0xc
 495 0184 8C000000 		.4byte	0x8c
 496 0188 93010000 		.4byte	0x193
 497 018c 0D       		.uleb128 0xd
 498 018d AE000000 		.4byte	0xae
 499 0191 01       		.byte	0x1
 500 0192 00       		.byte	0
 501 0193 08       		.uleb128 0x8
 502 0194 10       		.byte	0x10
 503 0195 05       		.byte	0x5
 504 0196 6002     		.2byte	0x260
 505 0198 D1010000 		.4byte	0x1d1
 506 019c 09       		.uleb128 0x9
 507 019d 76000000 		.4byte	.LASF21
 508 01a1 05       		.byte	0x5
 509 01a2 6202     		.2byte	0x262
 510 01a4 A9000000 		.4byte	0xa9
ARM GAS  /tmp/cc8lqZHy.s 			page 10


 511 01a8 00       		.byte	0
 512 01a9 09       		.uleb128 0x9
 513 01aa 10040000 		.4byte	.LASF31
 514 01ae 05       		.byte	0x5
 515 01af 6302     		.2byte	0x263
 516 01b1 A9000000 		.4byte	0xa9
 517 01b5 04       		.byte	0x4
 518 01b6 0E       		.uleb128 0xe
 519 01b7 56414C00 		.ascii	"VAL\000"
 520 01bb 05       		.byte	0x5
 521 01bc 6402     		.2byte	0x264
 522 01be A9000000 		.4byte	0xa9
 523 01c2 08       		.byte	0x8
 524 01c3 09       		.uleb128 0x9
 525 01c4 F6000000 		.4byte	.LASF32
 526 01c8 05       		.byte	0x5
 527 01c9 6502     		.2byte	0x265
 528 01cb 7E010000 		.4byte	0x17e
 529 01cf 0C       		.byte	0xc
 530 01d0 00       		.byte	0
 531 01d1 0A       		.uleb128 0xa
 532 01d2 2E030000 		.4byte	.LASF33
 533 01d6 05       		.byte	0x5
 534 01d7 6602     		.2byte	0x266
 535 01d9 93010000 		.4byte	0x193
 536 01dd 05       		.uleb128 0x5
 537 01de 81000000 		.4byte	0x81
 538 01e2 08       		.uleb128 0x8
 539 01e3 1C       		.byte	0x1c
 540 01e4 06       		.byte	0x6
 541 01e5 3E03     		.2byte	0x33e
 542 01e7 45020000 		.4byte	0x245
 543 01eb 0E       		.uleb128 0xe
 544 01ec 41435200 		.ascii	"ACR\000"
 545 01f0 06       		.byte	0x6
 546 01f1 4003     		.2byte	0x340
 547 01f3 A9000000 		.4byte	0xa9
 548 01f7 00       		.byte	0
 549 01f8 09       		.uleb128 0x9
 550 01f9 40010000 		.4byte	.LASF34
 551 01fd 06       		.byte	0x6
 552 01fe 4103     		.2byte	0x341
 553 0200 A9000000 		.4byte	0xa9
 554 0204 04       		.byte	0x4
 555 0205 09       		.uleb128 0x9
 556 0206 D9000000 		.4byte	.LASF35
 557 020a 06       		.byte	0x6
 558 020b 4203     		.2byte	0x342
 559 020d A9000000 		.4byte	0xa9
 560 0211 08       		.byte	0x8
 561 0212 0E       		.uleb128 0xe
 562 0213 535200   		.ascii	"SR\000"
 563 0216 06       		.byte	0x6
 564 0217 4303     		.2byte	0x343
 565 0219 A9000000 		.4byte	0xa9
 566 021d 0C       		.byte	0xc
 567 021e 0E       		.uleb128 0xe
ARM GAS  /tmp/cc8lqZHy.s 			page 11


 568 021f 435200   		.ascii	"CR\000"
 569 0222 06       		.byte	0x6
 570 0223 4403     		.2byte	0x344
 571 0225 A9000000 		.4byte	0xa9
 572 0229 10       		.byte	0x10
 573 022a 09       		.uleb128 0x9
 574 022b 56040000 		.4byte	.LASF36
 575 022f 06       		.byte	0x6
 576 0230 4503     		.2byte	0x345
 577 0232 A9000000 		.4byte	0xa9
 578 0236 14       		.byte	0x14
 579 0237 09       		.uleb128 0x9
 580 0238 31010000 		.4byte	.LASF37
 581 023c 06       		.byte	0x6
 582 023d 4603     		.2byte	0x346
 583 023f A9000000 		.4byte	0xa9
 584 0243 18       		.byte	0x18
 585 0244 00       		.byte	0
 586 0245 0A       		.uleb128 0xa
 587 0246 26040000 		.4byte	.LASF38
 588 024a 06       		.byte	0x6
 589 024b 4703     		.2byte	0x347
 590 024d E2010000 		.4byte	0x1e2
 591 0251 08       		.uleb128 0x8
 592 0252 08       		.byte	0x8
 593 0253 06       		.byte	0x6
 594 0254 4E04     		.2byte	0x44e
 595 0256 74020000 		.4byte	0x274
 596 025a 0E       		.uleb128 0xe
 597 025b 435200   		.ascii	"CR\000"
 598 025e 06       		.byte	0x6
 599 025f 5004     		.2byte	0x450
 600 0261 A9000000 		.4byte	0xa9
 601 0265 00       		.byte	0
 602 0266 0E       		.uleb128 0xe
 603 0267 43535200 		.ascii	"CSR\000"
 604 026b 06       		.byte	0x6
 605 026c 5104     		.2byte	0x451
 606 026e A9000000 		.4byte	0xa9
 607 0272 04       		.byte	0x4
 608 0273 00       		.byte	0
 609 0274 0A       		.uleb128 0xa
 610 0275 51000000 		.4byte	.LASF39
 611 0279 06       		.byte	0x6
 612 027a 5204     		.2byte	0x452
 613 027c 51020000 		.4byte	0x251
 614 0280 08       		.uleb128 0x8
 615 0281 90       		.byte	0x90
 616 0282 06       		.byte	0x6
 617 0283 5804     		.2byte	0x458
 618 0285 29040000 		.4byte	0x429
 619 0289 0E       		.uleb128 0xe
 620 028a 435200   		.ascii	"CR\000"
 621 028d 06       		.byte	0x6
 622 028e 5A04     		.2byte	0x45a
 623 0290 A9000000 		.4byte	0xa9
 624 0294 00       		.byte	0
ARM GAS  /tmp/cc8lqZHy.s 			page 12


 625 0295 09       		.uleb128 0x9
 626 0296 26030000 		.4byte	.LASF40
 627 029a 06       		.byte	0x6
 628 029b 5B04     		.2byte	0x45b
 629 029d A9000000 		.4byte	0xa9
 630 02a1 04       		.byte	0x4
 631 02a2 09       		.uleb128 0x9
 632 02a3 84000000 		.4byte	.LASF41
 633 02a7 06       		.byte	0x6
 634 02a8 5C04     		.2byte	0x45c
 635 02aa A9000000 		.4byte	0xa9
 636 02ae 08       		.byte	0x8
 637 02af 0E       		.uleb128 0xe
 638 02b0 43495200 		.ascii	"CIR\000"
 639 02b4 06       		.byte	0x6
 640 02b5 5D04     		.2byte	0x45d
 641 02b7 A9000000 		.4byte	0xa9
 642 02bb 0C       		.byte	0xc
 643 02bc 09       		.uleb128 0x9
 644 02bd 7B000000 		.4byte	.LASF42
 645 02c1 06       		.byte	0x6
 646 02c2 5E04     		.2byte	0x45e
 647 02c4 A9000000 		.4byte	0xa9
 648 02c8 10       		.byte	0x10
 649 02c9 09       		.uleb128 0x9
 650 02ca E5010000 		.4byte	.LASF43
 651 02ce 06       		.byte	0x6
 652 02cf 5F04     		.2byte	0x45f
 653 02d1 A9000000 		.4byte	0xa9
 654 02d5 14       		.byte	0x14
 655 02d6 09       		.uleb128 0x9
 656 02d7 1D040000 		.4byte	.LASF44
 657 02db 06       		.byte	0x6
 658 02dc 6004     		.2byte	0x460
 659 02de A9000000 		.4byte	0xa9
 660 02e2 18       		.byte	0x18
 661 02e3 09       		.uleb128 0x9
 662 02e4 85030000 		.4byte	.LASF45
 663 02e8 06       		.byte	0x6
 664 02e9 6104     		.2byte	0x461
 665 02eb 8C000000 		.4byte	0x8c
 666 02ef 1C       		.byte	0x1c
 667 02f0 09       		.uleb128 0x9
 668 02f1 0A000000 		.4byte	.LASF46
 669 02f5 06       		.byte	0x6
 670 02f6 6204     		.2byte	0x462
 671 02f8 A9000000 		.4byte	0xa9
 672 02fc 20       		.byte	0x20
 673 02fd 09       		.uleb128 0x9
 674 02fe 17010000 		.4byte	.LASF47
 675 0302 06       		.byte	0x6
 676 0303 6304     		.2byte	0x463
 677 0305 A9000000 		.4byte	0xa9
 678 0309 24       		.byte	0x24
 679 030a 09       		.uleb128 0x9
 680 030b 8F030000 		.4byte	.LASF48
 681 030f 06       		.byte	0x6
ARM GAS  /tmp/cc8lqZHy.s 			page 13


 682 0310 6404     		.2byte	0x464
 683 0312 83010000 		.4byte	0x183
 684 0316 28       		.byte	0x28
 685 0317 09       		.uleb128 0x9
 686 0318 15040000 		.4byte	.LASF49
 687 031c 06       		.byte	0x6
 688 031d 6504     		.2byte	0x465
 689 031f A9000000 		.4byte	0xa9
 690 0323 30       		.byte	0x30
 691 0324 09       		.uleb128 0x9
 692 0325 13000000 		.4byte	.LASF50
 693 0329 06       		.byte	0x6
 694 032a 6604     		.2byte	0x466
 695 032c A9000000 		.4byte	0xa9
 696 0330 34       		.byte	0x34
 697 0331 09       		.uleb128 0x9
 698 0332 38010000 		.4byte	.LASF51
 699 0336 06       		.byte	0x6
 700 0337 6704     		.2byte	0x467
 701 0339 A9000000 		.4byte	0xa9
 702 033d 38       		.byte	0x38
 703 033e 09       		.uleb128 0x9
 704 033f 99030000 		.4byte	.LASF52
 705 0343 06       		.byte	0x6
 706 0344 6804     		.2byte	0x468
 707 0346 8C000000 		.4byte	0x8c
 708 034a 3C       		.byte	0x3c
 709 034b 09       		.uleb128 0x9
 710 034c 9A000000 		.4byte	.LASF53
 711 0350 06       		.byte	0x6
 712 0351 6904     		.2byte	0x469
 713 0353 A9000000 		.4byte	0xa9
 714 0357 40       		.byte	0x40
 715 0358 09       		.uleb128 0x9
 716 0359 5A010000 		.4byte	.LASF54
 717 035d 06       		.byte	0x6
 718 035e 6A04     		.2byte	0x46a
 719 0360 A9000000 		.4byte	0xa9
 720 0364 44       		.byte	0x44
 721 0365 09       		.uleb128 0x9
 722 0366 A3030000 		.4byte	.LASF55
 723 036a 06       		.byte	0x6
 724 036b 6B04     		.2byte	0x46b
 725 036d 83010000 		.4byte	0x183
 726 0371 48       		.byte	0x48
 727 0372 09       		.uleb128 0x9
 728 0373 00000000 		.4byte	.LASF56
 729 0377 06       		.byte	0x6
 730 0378 6C04     		.2byte	0x46c
 731 037a A9000000 		.4byte	0xa9
 732 037e 50       		.byte	0x50
 733 037f 09       		.uleb128 0x9
 734 0380 73030000 		.4byte	.LASF57
 735 0384 06       		.byte	0x6
 736 0385 6D04     		.2byte	0x46d
 737 0387 A9000000 		.4byte	0xa9
 738 038b 54       		.byte	0x54
ARM GAS  /tmp/cc8lqZHy.s 			page 14


 739 038c 09       		.uleb128 0x9
 740 038d 90000000 		.4byte	.LASF58
 741 0391 06       		.byte	0x6
 742 0392 6E04     		.2byte	0x46e
 743 0394 A9000000 		.4byte	0xa9
 744 0398 58       		.byte	0x58
 745 0399 09       		.uleb128 0x9
 746 039a AD030000 		.4byte	.LASF59
 747 039e 06       		.byte	0x6
 748 039f 6F04     		.2byte	0x46f
 749 03a1 8C000000 		.4byte	0x8c
 750 03a5 5C       		.byte	0x5c
 751 03a6 09       		.uleb128 0x9
 752 03a7 4E030000 		.4byte	.LASF60
 753 03ab 06       		.byte	0x6
 754 03ac 7004     		.2byte	0x470
 755 03ae A9000000 		.4byte	0xa9
 756 03b2 60       		.byte	0x60
 757 03b3 09       		.uleb128 0x9
 758 03b4 4C040000 		.4byte	.LASF61
 759 03b8 06       		.byte	0x6
 760 03b9 7104     		.2byte	0x471
 761 03bb A9000000 		.4byte	0xa9
 762 03bf 64       		.byte	0x64
 763 03c0 09       		.uleb128 0x9
 764 03c1 B7030000 		.4byte	.LASF62
 765 03c5 06       		.byte	0x6
 766 03c6 7204     		.2byte	0x472
 767 03c8 83010000 		.4byte	0x183
 768 03cc 68       		.byte	0x68
 769 03cd 09       		.uleb128 0x9
 770 03ce 34000000 		.4byte	.LASF63
 771 03d2 06       		.byte	0x6
 772 03d3 7304     		.2byte	0x473
 773 03d5 A9000000 		.4byte	0xa9
 774 03d9 70       		.byte	0x70
 775 03da 0E       		.uleb128 0xe
 776 03db 43535200 		.ascii	"CSR\000"
 777 03df 06       		.byte	0x6
 778 03e0 7404     		.2byte	0x474
 779 03e2 A9000000 		.4byte	0xa9
 780 03e6 74       		.byte	0x74
 781 03e7 09       		.uleb128 0x9
 782 03e8 C1030000 		.4byte	.LASF64
 783 03ec 06       		.byte	0x6
 784 03ed 7504     		.2byte	0x475
 785 03ef 83010000 		.4byte	0x183
 786 03f3 78       		.byte	0x78
 787 03f4 09       		.uleb128 0x9
 788 03f5 70000000 		.4byte	.LASF65
 789 03f9 06       		.byte	0x6
 790 03fa 7604     		.2byte	0x476
 791 03fc A9000000 		.4byte	0xa9
 792 0400 80       		.byte	0x80
 793 0401 09       		.uleb128 0x9
 794 0402 46000000 		.4byte	.LASF66
 795 0406 06       		.byte	0x6
ARM GAS  /tmp/cc8lqZHy.s 			page 15


 796 0407 7704     		.2byte	0x477
 797 0409 A9000000 		.4byte	0xa9
 798 040d 84       		.byte	0x84
 799 040e 09       		.uleb128 0x9
 800 040f 41040000 		.4byte	.LASF67
 801 0413 06       		.byte	0x6
 802 0414 7804     		.2byte	0x478
 803 0416 A9000000 		.4byte	0xa9
 804 041a 88       		.byte	0x88
 805 041b 09       		.uleb128 0x9
 806 041c C9000000 		.4byte	.LASF68
 807 0420 06       		.byte	0x6
 808 0421 7904     		.2byte	0x479
 809 0423 A9000000 		.4byte	0xa9
 810 0427 8C       		.byte	0x8c
 811 0428 00       		.byte	0
 812 0429 0A       		.uleb128 0xa
 813 042a 0B010000 		.4byte	.LASF69
 814 042e 06       		.byte	0x6
 815 042f 7B04     		.2byte	0x47b
 816 0431 80020000 		.4byte	0x280
 817 0435 0F       		.uleb128 0xf
 818 0436 A8000000 		.4byte	.LASF73
 819 043a 01       		.byte	0x1
 820 043b 33       		.byte	0x33
 821 043c 01       		.byte	0x1
 822 043d 10       		.uleb128 0x10
 823 043e 19030000 		.4byte	.LASF74
 824 0442 01       		.byte	0x1
 825 0443 70       		.byte	0x70
 826 0444 00000000 		.4byte	.LFB112
 827 0448 B8000000 		.4byte	.LFE112-.LFB112
 828 044c 01       		.uleb128 0x1
 829 044d 9C       		.byte	0x9c
 830 044e 6B040000 		.4byte	0x46b
 831 0452 11       		.uleb128 0x11
 832 0453 35040000 		.4byte	0x435
 833 0457 24000000 		.4byte	.LBB4
 834 045b 00000000 		.4byte	.Ldebug_ranges0+0
 835 045f 01       		.byte	0x1
 836 0460 88       		.byte	0x88
 837 0461 12       		.uleb128 0x12
 838 0462 9E000000 		.4byte	.LVL0
 839 0466 88040000 		.4byte	0x488
 840 046a 00       		.byte	0
 841 046b 13       		.uleb128 0x13
 842 046c 20010000 		.4byte	.LASF75
 843 0470 01       		.byte	0x1
 844 0471 9B       		.byte	0x9b
 845 0472 00000000 		.4byte	.LFB113
 846 0476 C4000000 		.4byte	.LFE113-.LFB113
 847 047a 01       		.uleb128 0x1
 848 047b 9C       		.byte	0x9c
 849 047c 14       		.uleb128 0x14
 850 047d 34040000 		.4byte	.LASF76
 851 0481 05       		.byte	0x5
 852 0482 9806     		.2byte	0x698
ARM GAS  /tmp/cc8lqZHy.s 			page 16


 853 0484 DD010000 		.4byte	0x1dd
 854 0488 15       		.uleb128 0x15
 855 0489 7D030000 		.4byte	.LASF77
 856 048d 07       		.byte	0x7
 857 048e C101     		.2byte	0x1c1
 858 0490 00       		.byte	0
 859              		.section	.debug_abbrev,"",%progbits
 860              	.Ldebug_abbrev0:
 861 0000 01       		.uleb128 0x1
 862 0001 11       		.uleb128 0x11
 863 0002 01       		.byte	0x1
 864 0003 25       		.uleb128 0x25
 865 0004 0E       		.uleb128 0xe
 866 0005 13       		.uleb128 0x13
 867 0006 0B       		.uleb128 0xb
 868 0007 03       		.uleb128 0x3
 869 0008 0E       		.uleb128 0xe
 870 0009 1B       		.uleb128 0x1b
 871 000a 0E       		.uleb128 0xe
 872 000b 55       		.uleb128 0x55
 873 000c 17       		.uleb128 0x17
 874 000d 11       		.uleb128 0x11
 875 000e 01       		.uleb128 0x1
 876 000f 10       		.uleb128 0x10
 877 0010 17       		.uleb128 0x17
 878 0011 00       		.byte	0
 879 0012 00       		.byte	0
 880 0013 02       		.uleb128 0x2
 881 0014 24       		.uleb128 0x24
 882 0015 00       		.byte	0
 883 0016 0B       		.uleb128 0xb
 884 0017 0B       		.uleb128 0xb
 885 0018 3E       		.uleb128 0x3e
 886 0019 0B       		.uleb128 0xb
 887 001a 03       		.uleb128 0x3
 888 001b 08       		.uleb128 0x8
 889 001c 00       		.byte	0
 890 001d 00       		.byte	0
 891 001e 03       		.uleb128 0x3
 892 001f 24       		.uleb128 0x24
 893 0020 00       		.byte	0
 894 0021 0B       		.uleb128 0xb
 895 0022 0B       		.uleb128 0xb
 896 0023 3E       		.uleb128 0x3e
 897 0024 0B       		.uleb128 0xb
 898 0025 03       		.uleb128 0x3
 899 0026 0E       		.uleb128 0xe
 900 0027 00       		.byte	0
 901 0028 00       		.byte	0
 902 0029 04       		.uleb128 0x4
 903 002a 16       		.uleb128 0x16
 904 002b 00       		.byte	0
 905 002c 03       		.uleb128 0x3
 906 002d 0E       		.uleb128 0xe
 907 002e 3A       		.uleb128 0x3a
 908 002f 0B       		.uleb128 0xb
 909 0030 3B       		.uleb128 0x3b
ARM GAS  /tmp/cc8lqZHy.s 			page 17


 910 0031 0B       		.uleb128 0xb
 911 0032 49       		.uleb128 0x49
 912 0033 13       		.uleb128 0x13
 913 0034 00       		.byte	0
 914 0035 00       		.byte	0
 915 0036 05       		.uleb128 0x5
 916 0037 35       		.uleb128 0x35
 917 0038 00       		.byte	0
 918 0039 49       		.uleb128 0x49
 919 003a 13       		.uleb128 0x13
 920 003b 00       		.byte	0
 921 003c 00       		.byte	0
 922 003d 06       		.uleb128 0x6
 923 003e 13       		.uleb128 0x13
 924 003f 01       		.byte	0x1
 925 0040 0B       		.uleb128 0xb
 926 0041 0B       		.uleb128 0xb
 927 0042 3A       		.uleb128 0x3a
 928 0043 0B       		.uleb128 0xb
 929 0044 3B       		.uleb128 0x3b
 930 0045 0B       		.uleb128 0xb
 931 0046 01       		.uleb128 0x1
 932 0047 13       		.uleb128 0x13
 933 0048 00       		.byte	0
 934 0049 00       		.byte	0
 935 004a 07       		.uleb128 0x7
 936 004b 0D       		.uleb128 0xd
 937 004c 00       		.byte	0
 938 004d 03       		.uleb128 0x3
 939 004e 0E       		.uleb128 0xe
 940 004f 3A       		.uleb128 0x3a
 941 0050 0B       		.uleb128 0xb
 942 0051 3B       		.uleb128 0x3b
 943 0052 0B       		.uleb128 0xb
 944 0053 49       		.uleb128 0x49
 945 0054 13       		.uleb128 0x13
 946 0055 38       		.uleb128 0x38
 947 0056 0B       		.uleb128 0xb
 948 0057 00       		.byte	0
 949 0058 00       		.byte	0
 950 0059 08       		.uleb128 0x8
 951 005a 13       		.uleb128 0x13
 952 005b 01       		.byte	0x1
 953 005c 0B       		.uleb128 0xb
 954 005d 0B       		.uleb128 0xb
 955 005e 3A       		.uleb128 0x3a
 956 005f 0B       		.uleb128 0xb
 957 0060 3B       		.uleb128 0x3b
 958 0061 05       		.uleb128 0x5
 959 0062 01       		.uleb128 0x1
 960 0063 13       		.uleb128 0x13
 961 0064 00       		.byte	0
 962 0065 00       		.byte	0
 963 0066 09       		.uleb128 0x9
 964 0067 0D       		.uleb128 0xd
 965 0068 00       		.byte	0
 966 0069 03       		.uleb128 0x3
ARM GAS  /tmp/cc8lqZHy.s 			page 18


 967 006a 0E       		.uleb128 0xe
 968 006b 3A       		.uleb128 0x3a
 969 006c 0B       		.uleb128 0xb
 970 006d 3B       		.uleb128 0x3b
 971 006e 05       		.uleb128 0x5
 972 006f 49       		.uleb128 0x49
 973 0070 13       		.uleb128 0x13
 974 0071 38       		.uleb128 0x38
 975 0072 0B       		.uleb128 0xb
 976 0073 00       		.byte	0
 977 0074 00       		.byte	0
 978 0075 0A       		.uleb128 0xa
 979 0076 16       		.uleb128 0x16
 980 0077 00       		.byte	0
 981 0078 03       		.uleb128 0x3
 982 0079 0E       		.uleb128 0xe
 983 007a 3A       		.uleb128 0x3a
 984 007b 0B       		.uleb128 0xb
 985 007c 3B       		.uleb128 0x3b
 986 007d 05       		.uleb128 0x5
 987 007e 49       		.uleb128 0x49
 988 007f 13       		.uleb128 0x13
 989 0080 00       		.byte	0
 990 0081 00       		.byte	0
 991 0082 0B       		.uleb128 0xb
 992 0083 26       		.uleb128 0x26
 993 0084 00       		.byte	0
 994 0085 49       		.uleb128 0x49
 995 0086 13       		.uleb128 0x13
 996 0087 00       		.byte	0
 997 0088 00       		.byte	0
 998 0089 0C       		.uleb128 0xc
 999 008a 01       		.uleb128 0x1
 1000 008b 01       		.byte	0x1
 1001 008c 49       		.uleb128 0x49
 1002 008d 13       		.uleb128 0x13
 1003 008e 01       		.uleb128 0x1
 1004 008f 13       		.uleb128 0x13
 1005 0090 00       		.byte	0
 1006 0091 00       		.byte	0
 1007 0092 0D       		.uleb128 0xd
 1008 0093 21       		.uleb128 0x21
 1009 0094 00       		.byte	0
 1010 0095 49       		.uleb128 0x49
 1011 0096 13       		.uleb128 0x13
 1012 0097 2F       		.uleb128 0x2f
 1013 0098 0B       		.uleb128 0xb
 1014 0099 00       		.byte	0
 1015 009a 00       		.byte	0
 1016 009b 0E       		.uleb128 0xe
 1017 009c 0D       		.uleb128 0xd
 1018 009d 00       		.byte	0
 1019 009e 03       		.uleb128 0x3
 1020 009f 08       		.uleb128 0x8
 1021 00a0 3A       		.uleb128 0x3a
 1022 00a1 0B       		.uleb128 0xb
 1023 00a2 3B       		.uleb128 0x3b
ARM GAS  /tmp/cc8lqZHy.s 			page 19


 1024 00a3 05       		.uleb128 0x5
 1025 00a4 49       		.uleb128 0x49
 1026 00a5 13       		.uleb128 0x13
 1027 00a6 38       		.uleb128 0x38
 1028 00a7 0B       		.uleb128 0xb
 1029 00a8 00       		.byte	0
 1030 00a9 00       		.byte	0
 1031 00aa 0F       		.uleb128 0xf
 1032 00ab 2E       		.uleb128 0x2e
 1033 00ac 00       		.byte	0
 1034 00ad 03       		.uleb128 0x3
 1035 00ae 0E       		.uleb128 0xe
 1036 00af 3A       		.uleb128 0x3a
 1037 00b0 0B       		.uleb128 0xb
 1038 00b1 3B       		.uleb128 0x3b
 1039 00b2 0B       		.uleb128 0xb
 1040 00b3 27       		.uleb128 0x27
 1041 00b4 19       		.uleb128 0x19
 1042 00b5 20       		.uleb128 0x20
 1043 00b6 0B       		.uleb128 0xb
 1044 00b7 00       		.byte	0
 1045 00b8 00       		.byte	0
 1046 00b9 10       		.uleb128 0x10
 1047 00ba 2E       		.uleb128 0x2e
 1048 00bb 01       		.byte	0x1
 1049 00bc 3F       		.uleb128 0x3f
 1050 00bd 19       		.uleb128 0x19
 1051 00be 03       		.uleb128 0x3
 1052 00bf 0E       		.uleb128 0xe
 1053 00c0 3A       		.uleb128 0x3a
 1054 00c1 0B       		.uleb128 0xb
 1055 00c2 3B       		.uleb128 0x3b
 1056 00c3 0B       		.uleb128 0xb
 1057 00c4 27       		.uleb128 0x27
 1058 00c5 19       		.uleb128 0x19
 1059 00c6 11       		.uleb128 0x11
 1060 00c7 01       		.uleb128 0x1
 1061 00c8 12       		.uleb128 0x12
 1062 00c9 06       		.uleb128 0x6
 1063 00ca 40       		.uleb128 0x40
 1064 00cb 18       		.uleb128 0x18
 1065 00cc 9742     		.uleb128 0x2117
 1066 00ce 19       		.uleb128 0x19
 1067 00cf 01       		.uleb128 0x1
 1068 00d0 13       		.uleb128 0x13
 1069 00d1 00       		.byte	0
 1070 00d2 00       		.byte	0
 1071 00d3 11       		.uleb128 0x11
 1072 00d4 1D       		.uleb128 0x1d
 1073 00d5 00       		.byte	0
 1074 00d6 31       		.uleb128 0x31
 1075 00d7 13       		.uleb128 0x13
 1076 00d8 52       		.uleb128 0x52
 1077 00d9 01       		.uleb128 0x1
 1078 00da 55       		.uleb128 0x55
 1079 00db 17       		.uleb128 0x17
 1080 00dc 58       		.uleb128 0x58
ARM GAS  /tmp/cc8lqZHy.s 			page 20


 1081 00dd 0B       		.uleb128 0xb
 1082 00de 59       		.uleb128 0x59
 1083 00df 0B       		.uleb128 0xb
 1084 00e0 00       		.byte	0
 1085 00e1 00       		.byte	0
 1086 00e2 12       		.uleb128 0x12
 1087 00e3 898201   		.uleb128 0x4109
 1088 00e6 00       		.byte	0
 1089 00e7 11       		.uleb128 0x11
 1090 00e8 01       		.uleb128 0x1
 1091 00e9 9542     		.uleb128 0x2115
 1092 00eb 19       		.uleb128 0x19
 1093 00ec 31       		.uleb128 0x31
 1094 00ed 13       		.uleb128 0x13
 1095 00ee 00       		.byte	0
 1096 00ef 00       		.byte	0
 1097 00f0 13       		.uleb128 0x13
 1098 00f1 2E       		.uleb128 0x2e
 1099 00f2 00       		.byte	0
 1100 00f3 3F       		.uleb128 0x3f
 1101 00f4 19       		.uleb128 0x19
 1102 00f5 03       		.uleb128 0x3
 1103 00f6 0E       		.uleb128 0xe
 1104 00f7 3A       		.uleb128 0x3a
 1105 00f8 0B       		.uleb128 0xb
 1106 00f9 3B       		.uleb128 0x3b
 1107 00fa 0B       		.uleb128 0xb
 1108 00fb 27       		.uleb128 0x27
 1109 00fc 19       		.uleb128 0x19
 1110 00fd 11       		.uleb128 0x11
 1111 00fe 01       		.uleb128 0x1
 1112 00ff 12       		.uleb128 0x12
 1113 0100 06       		.uleb128 0x6
 1114 0101 40       		.uleb128 0x40
 1115 0102 18       		.uleb128 0x18
 1116 0103 9742     		.uleb128 0x2117
 1117 0105 19       		.uleb128 0x19
 1118 0106 00       		.byte	0
 1119 0107 00       		.byte	0
 1120 0108 14       		.uleb128 0x14
 1121 0109 34       		.uleb128 0x34
 1122 010a 00       		.byte	0
 1123 010b 03       		.uleb128 0x3
 1124 010c 0E       		.uleb128 0xe
 1125 010d 3A       		.uleb128 0x3a
 1126 010e 0B       		.uleb128 0xb
 1127 010f 3B       		.uleb128 0x3b
 1128 0110 05       		.uleb128 0x5
 1129 0111 49       		.uleb128 0x49
 1130 0112 13       		.uleb128 0x13
 1131 0113 3F       		.uleb128 0x3f
 1132 0114 19       		.uleb128 0x19
 1133 0115 3C       		.uleb128 0x3c
 1134 0116 19       		.uleb128 0x19
 1135 0117 00       		.byte	0
 1136 0118 00       		.byte	0
 1137 0119 15       		.uleb128 0x15
ARM GAS  /tmp/cc8lqZHy.s 			page 21


 1138 011a 2E       		.uleb128 0x2e
 1139 011b 00       		.byte	0
 1140 011c 3F       		.uleb128 0x3f
 1141 011d 19       		.uleb128 0x19
 1142 011e 03       		.uleb128 0x3
 1143 011f 0E       		.uleb128 0xe
 1144 0120 3A       		.uleb128 0x3a
 1145 0121 0B       		.uleb128 0xb
 1146 0122 3B       		.uleb128 0x3b
 1147 0123 05       		.uleb128 0x5
 1148 0124 27       		.uleb128 0x27
 1149 0125 19       		.uleb128 0x19
 1150 0126 3C       		.uleb128 0x3c
 1151 0127 19       		.uleb128 0x19
 1152 0128 00       		.byte	0
 1153 0129 00       		.byte	0
 1154 012a 00       		.byte	0
 1155              		.section	.debug_aranges,"",%progbits
 1156 0000 24000000 		.4byte	0x24
 1157 0004 0200     		.2byte	0x2
 1158 0006 00000000 		.4byte	.Ldebug_info0
 1159 000a 04       		.byte	0x4
 1160 000b 00       		.byte	0
 1161 000c 0000     		.2byte	0
 1162 000e 0000     		.2byte	0
 1163 0010 00000000 		.4byte	.LFB112
 1164 0014 B8000000 		.4byte	.LFE112-.LFB112
 1165 0018 00000000 		.4byte	.LFB113
 1166 001c C4000000 		.4byte	.LFE113-.LFB113
 1167 0020 00000000 		.4byte	0
 1168 0024 00000000 		.4byte	0
 1169              		.section	.debug_ranges,"",%progbits
 1170              	.Ldebug_ranges0:
 1171 0000 24000000 		.4byte	.LBB4
 1172 0004 26000000 		.4byte	.LBE4
 1173 0008 58000000 		.4byte	.LBB7
 1174 000c 96000000 		.4byte	.LBE7
 1175 0010 00000000 		.4byte	0
 1176 0014 00000000 		.4byte	0
 1177 0018 00000000 		.4byte	.LFB112
 1178 001c B8000000 		.4byte	.LFE112
 1179 0020 00000000 		.4byte	.LFB113
 1180 0024 C4000000 		.4byte	.LFE113
 1181 0028 00000000 		.4byte	0
 1182 002c 00000000 		.4byte	0
 1183              		.section	.debug_line,"",%progbits
 1184              	.Ldebug_line0:
 1185 0000 CA010000 		.section	.debug_str,"MS",%progbits,1
 1185      02002501 
 1185      00000201 
 1185      FB0E0D00 
 1185      01010101 
 1186              	.LASF56:
 1187 0000 41484231 		.ascii	"AHB1LPENR\000"
 1187      4C50454E 
 1187      5200
 1188              	.LASF46:
ARM GAS  /tmp/cc8lqZHy.s 			page 22


 1189 000a 41504231 		.ascii	"APB1RSTR\000"
 1189      52535452 
 1189      00
 1190              	.LASF50:
 1191 0013 41484232 		.ascii	"AHB2ENR\000"
 1191      454E5200 
 1192              	.LASF19:
 1193 001b 44454D43 		.ascii	"DEMCR\000"
 1193      5200
 1194              	.LASF3:
 1195 0021 73686F72 		.ascii	"short int\000"
 1195      7420696E 
 1195      7400
 1196              	.LASF15:
 1197 002b 73697A65 		.ascii	"sizetype\000"
 1197      74797065 
 1197      00
 1198              	.LASF63:
 1199 0034 42444352 		.ascii	"BDCR\000"
 1199      00
 1200              	.LASF28:
 1201 0039 50435352 		.ascii	"PCSR\000"
 1201      00
 1202              	.LASF27:
 1203 003e 464F4C44 		.ascii	"FOLDCNT\000"
 1203      434E5400 
 1204              	.LASF66:
 1205 0046 504C4C49 		.ascii	"PLLI2SCFGR\000"
 1205      32534346 
 1205      475200
 1206              	.LASF39:
 1207 0051 5057525F 		.ascii	"PWR_TypeDef\000"
 1207      54797065 
 1207      44656600 
 1208              	.LASF7:
 1209 005d 5F5F7569 		.ascii	"__uint32_t\000"
 1209      6E743332 
 1209      5F7400
 1210              	.LASF29:
 1211 0068 434D785F 		.ascii	"CMx_DWT\000"
 1211      44575400 
 1212              	.LASF65:
 1213 0070 53534347 		.ascii	"SSCGR\000"
 1213      5200
 1214              	.LASF21:
 1215 0076 4354524C 		.ascii	"CTRL\000"
 1215      00
 1216              	.LASF42:
 1217 007b 41484231 		.ascii	"AHB1RSTR\000"
 1217      52535452 
 1217      00
 1218              	.LASF41:
 1219 0084 43464752 		.ascii	"CFGR\000"
 1219      00
 1220              	.LASF23:
 1221 0089 43504943 		.ascii	"CPICNT\000"
 1221      4E5400
ARM GAS  /tmp/cc8lqZHy.s 			page 23


 1222              	.LASF58:
 1223 0090 41484233 		.ascii	"AHB3LPENR\000"
 1223      4C50454E 
 1223      5200
 1224              	.LASF53:
 1225 009a 41504231 		.ascii	"APB1ENR\000"
 1225      454E5200 
 1226              	.LASF17:
 1227 00a2 44435253 		.ascii	"DCRSR\000"
 1227      5200
 1228              	.LASF73:
 1229 00a8 68616C5F 		.ascii	"hal_lld_backup_domain_init\000"
 1229      6C6C645F 
 1229      6261636B 
 1229      75705F64 
 1229      6F6D6169 
 1230              	.LASF18:
 1231 00c3 44435244 		.ascii	"DCRDR\000"
 1231      5200
 1232              	.LASF68:
 1233 00c9 44434B43 		.ascii	"DCKCFGR\000"
 1233      46475200 
 1234              	.LASF14:
 1235 00d1 494F5245 		.ascii	"IOREG32\000"
 1235      47333200 
 1236              	.LASF35:
 1237 00d9 4F50544B 		.ascii	"OPTKEYR\000"
 1237      45595200 
 1238              	.LASF9:
 1239 00e1 6C6F6E67 		.ascii	"long long int\000"
 1239      206C6F6E 
 1239      6720696E 
 1239      7400
 1240              	.LASF22:
 1241 00ef 43594343 		.ascii	"CYCCNT\000"
 1241      4E5400
 1242              	.LASF32:
 1243 00f6 43414C49 		.ascii	"CALIB\000"
 1243      4200
 1244              	.LASF16:
 1245 00fc 44484353 		.ascii	"DHCSR\000"
 1245      5200
 1246              	.LASF5:
 1247 0102 6C6F6E67 		.ascii	"long int\000"
 1247      20696E74 
 1247      00
 1248              	.LASF69:
 1249 010b 5243435F 		.ascii	"RCC_TypeDef\000"
 1249      54797065 
 1249      44656600 
 1250              	.LASF47:
 1251 0117 41504232 		.ascii	"APB2RSTR\000"
 1251      52535452 
 1251      00
 1252              	.LASF75:
 1253 0120 73746D33 		.ascii	"stm32_clock_init\000"
 1253      325F636C 
ARM GAS  /tmp/cc8lqZHy.s 			page 24


 1253      6F636B5F 
 1253      696E6974 
 1253      00
 1254              	.LASF37:
 1255 0131 4F505443 		.ascii	"OPTCR1\000"
 1255      523100
 1256              	.LASF51:
 1257 0138 41484233 		.ascii	"AHB3ENR\000"
 1257      454E5200 
 1258              	.LASF34:
 1259 0140 4B455952 		.ascii	"KEYR\000"
 1259      00
 1260              	.LASF24:
 1261 0145 45584343 		.ascii	"EXCCNT\000"
 1261      4E5400
 1262              	.LASF2:
 1263 014c 756E7369 		.ascii	"unsigned char\000"
 1263      676E6564 
 1263      20636861 
 1263      7200
 1264              	.LASF54:
 1265 015a 41504232 		.ascii	"APB2ENR\000"
 1265      454E5200 
 1266              	.LASF1:
 1267 0162 7369676E 		.ascii	"signed char\000"
 1267      65642063 
 1267      68617200 
 1268              	.LASF10:
 1269 016e 6C6F6E67 		.ascii	"long long unsigned int\000"
 1269      206C6F6E 
 1269      6720756E 
 1269      7369676E 
 1269      65642069 
 1270              	.LASF12:
 1271 0185 75696E74 		.ascii	"uint32_t\000"
 1271      33325F74 
 1271      00
 1272              	.LASF72:
 1273 018e 2F686F6D 		.ascii	"/home/makkmarci/devel/ChibiOS_2.6.5/projects/STM32F"
 1273      652F6D61 
 1273      6B6B6D61 
 1273      7263692F 
 1273      64657665 
 1274 01c1 345F4368 		.ascii	"4_ChibiOS_uGFX_gwin_2/\000"
 1274      6962694F 
 1274      535F7547 
 1274      46585F67 
 1274      77696E5F 
 1275              	.LASF0:
 1276 01d8 756E7369 		.ascii	"unsigned int\000"
 1276      676E6564 
 1276      20696E74 
 1276      00
 1277              	.LASF43:
 1278 01e5 41484232 		.ascii	"AHB2RSTR\000"
 1278      52535452 
 1278      00
ARM GAS  /tmp/cc8lqZHy.s 			page 25


 1279              	.LASF8:
 1280 01ee 6C6F6E67 		.ascii	"long unsigned int\000"
 1280      20756E73 
 1280      69676E65 
 1280      6420696E 
 1280      7400
 1281              	.LASF70:
 1282 0200 474E5520 		.ascii	"GNU C 4.8.4 20140526 (release) [ARM/embedded-4_8-br"
 1282      4320342E 
 1282      382E3420 
 1282      32303134 
 1282      30353236 
 1283 0233 616E6368 		.ascii	"anch revision 211358] -mcpu=cortex-m4 -mfloat-abi=h"
 1283      20726576 
 1283      6973696F 
 1283      6E203231 
 1283      31333538 
 1284 0266 61726420 		.ascii	"ard -mfpu=fpv4-sp-d16 -mno-thumb-interwork -mthumb "
 1284      2D6D6670 
 1284      753D6670 
 1284      76342D73 
 1284      702D6431 
 1285 0299 2D676764 		.ascii	"-ggdb -O2 -fomit-frame-pointer -falign-functions=16"
 1285      62202D4F 
 1285      32202D66 
 1285      6F6D6974 
 1285      2D667261 
 1286 02cc 202D6666 		.ascii	" -ffunction-sections -fdata-sections -fno-common -f"
 1286      756E6374 
 1286      696F6E2D 
 1286      73656374 
 1286      696F6E73 
 1287 02ff 73696E67 		.ascii	"single-precision-constant\000"
 1287      6C652D70 
 1287      72656369 
 1287      73696F6E 
 1287      2D636F6E 
 1288              	.LASF74:
 1289 0319 68616C5F 		.ascii	"hal_lld_init\000"
 1289      6C6C645F 
 1289      696E6974 
 1289      00
 1290              	.LASF40:
 1291 0326 504C4C43 		.ascii	"PLLCFGR\000"
 1291      46475200 
 1292              	.LASF33:
 1293 032e 53797354 		.ascii	"SysTick_Type\000"
 1293      69636B5F 
 1293      54797065 
 1293      00
 1294              	.LASF4:
 1295 033b 73686F72 		.ascii	"short unsigned int\000"
 1295      7420756E 
 1295      7369676E 
 1295      65642069 
 1295      6E7400
 1296              	.LASF60:
ARM GAS  /tmp/cc8lqZHy.s 			page 26


 1297 034e 41504231 		.ascii	"APB1LPENR\000"
 1297      4C50454E 
 1297      5200
 1298              	.LASF30:
 1299 0358 63686172 		.ascii	"char\000"
 1299      00
 1300              	.LASF20:
 1301 035d 434D785F 		.ascii	"CMx_SCS\000"
 1301      53435300 
 1302              	.LASF11:
 1303 0365 696E7433 		.ascii	"int32_t\000"
 1303      325F7400 
 1304              	.LASF13:
 1305 036d 5F426F6F 		.ascii	"_Bool\000"
 1305      6C00
 1306              	.LASF57:
 1307 0373 41484232 		.ascii	"AHB2LPENR\000"
 1307      4C50454E 
 1307      5200
 1308              	.LASF77:
 1309 037d 646D6149 		.ascii	"dmaInit\000"
 1309      6E697400 
 1310              	.LASF45:
 1311 0385 52455345 		.ascii	"RESERVED0\000"
 1311      52564544 
 1311      3000
 1312              	.LASF48:
 1313 038f 52455345 		.ascii	"RESERVED1\000"
 1313      52564544 
 1313      3100
 1314              	.LASF52:
 1315 0399 52455345 		.ascii	"RESERVED2\000"
 1315      52564544 
 1315      3200
 1316              	.LASF55:
 1317 03a3 52455345 		.ascii	"RESERVED3\000"
 1317      52564544 
 1317      3300
 1318              	.LASF59:
 1319 03ad 52455345 		.ascii	"RESERVED4\000"
 1319      52564544 
 1319      3400
 1320              	.LASF62:
 1321 03b7 52455345 		.ascii	"RESERVED5\000"
 1321      52564544 
 1321      3500
 1322              	.LASF64:
 1323 03c1 52455345 		.ascii	"RESERVED6\000"
 1323      52564544 
 1323      3600
 1324              	.LASF25:
 1325 03cb 534C4545 		.ascii	"SLEEPCNT\000"
 1325      50434E54 
 1325      00
 1326              	.LASF71:
 1327 03d4 2E2E2F2E 		.ascii	"../../os/hal/platforms/STM32F4xx/hal_lld.c\000"
 1327      2E2F6F73 
ARM GAS  /tmp/cc8lqZHy.s 			page 27


 1327      2F68616C 
 1327      2F706C61 
 1327      74666F72 
 1328              	.LASF6:
 1329 03ff 5F5F696E 		.ascii	"__int32_t\000"
 1329      7433325F 
 1329      7400
 1330              	.LASF26:
 1331 0409 4C535543 		.ascii	"LSUCNT\000"
 1331      4E5400
 1332              	.LASF31:
 1333 0410 4C4F4144 		.ascii	"LOAD\000"
 1333      00
 1334              	.LASF49:
 1335 0415 41484231 		.ascii	"AHB1ENR\000"
 1335      454E5200 
 1336              	.LASF44:
 1337 041d 41484233 		.ascii	"AHB3RSTR\000"
 1337      52535452 
 1337      00
 1338              	.LASF38:
 1339 0426 464C4153 		.ascii	"FLASH_TypeDef\000"
 1339      485F5479 
 1339      70654465 
 1339      6600
 1340              	.LASF76:
 1341 0434 49544D5F 		.ascii	"ITM_RxBuffer\000"
 1341      52784275 
 1341      66666572 
 1341      00
 1342              	.LASF67:
 1343 0441 504C4C53 		.ascii	"PLLSAICFGR\000"
 1343      41494346 
 1343      475200
 1344              	.LASF61:
 1345 044c 41504232 		.ascii	"APB2LPENR\000"
 1345      4C50454E 
 1345      5200
 1346              	.LASF36:
 1347 0456 4F505443 		.ascii	"OPTCR\000"
 1347      5200
 1348              		.ident	"GCC: (GNU Tools for ARM Embedded Processors) 4.8.4 20140526 (release) [ARM/embedded-4_8-br
ARM GAS  /tmp/cc8lqZHy.s 			page 28


DEFINED SYMBOLS
                            *ABS*:00000000 hal_lld.c
     /tmp/cc8lqZHy.s:21     .text.hal_lld_init:00000000 $t
     /tmp/cc8lqZHy.s:27     .text.hal_lld_init:00000000 hal_lld_init
     /tmp/cc8lqZHy.s:149    .text.hal_lld_init:000000a0 $d
     /tmp/cc8lqZHy.s:159    .text.stm32_clock_init:00000000 $t
     /tmp/cc8lqZHy.s:165    .text.stm32_clock_init:00000000 stm32_clock_init
     /tmp/cc8lqZHy.s:289    .text.stm32_clock_init:000000b0 $d
                     .debug_frame:00000010 $d
     /tmp/cc8lqZHy.s:158    .text.hal_lld_init:000000b8 $t
     /tmp/cc8lqZHy.s:297    .text.stm32_clock_init:000000c4 $t

UNDEFINED SYMBOLS
dmaInit
