ARM GAS  /tmp/ccGUl8KV.s 			page 1


   1              		.syntax unified
   2              		.cpu cortex-m4
   3              		.eabi_attribute 27, 1
   4              		.eabi_attribute 28, 1
   5              		.fpu fpv4-sp-d16
   6              		.eabi_attribute 20, 1
   7              		.eabi_attribute 21, 1
   8              		.eabi_attribute 23, 3
   9              		.eabi_attribute 24, 1
  10              		.eabi_attribute 25, 1
  11              		.eabi_attribute 26, 1
  12              		.eabi_attribute 30, 6
  13              		.eabi_attribute 34, 1
  14              		.eabi_attribute 18, 4
  15              		.thumb
  16              		.file	"hal_lld.c"
  17              		.text
  18              	.Ltext0:
  19              		.cfi_sections	.debug_frame
  20              		.section	.text.hal_lld_backup_domain_init,"ax",%progbits
  21              		.align	2
  22              		.p2align 4,,15
  23              		.thumb
  24              		.thumb_func
  25              		.type	hal_lld_backup_domain_init, %function
  26              	hal_lld_backup_domain_init:
  27              	.LFB111:
  28              		.file 1 "/home/makkmarci/workspace/ChibiOS_2.6.8/os/hal/platforms/STM32F4xx/hal_lld.c"
  29              		.loc 1 51 0
  30              		.cfi_startproc
  31              		@ args = 0, pretend = 0, frame = 0
  32              		@ frame_needed = 0, uses_anonymous_args = 0
  33              		@ link register save eliminated.
  34              		.loc 1 54 0
  35 0000 134A     		ldr	r2, .L4
  36 0002 134B     		ldr	r3, .L4
  37 0004 1B68     		ldr	r3, [r3]
  38 0006 43F48073 		orr	r3, r3, #256
  39 000a 1360     		str	r3, [r2]
  40              		.loc 1 57 0
  41 000c 114B     		ldr	r3, .L4+4
  42 000e 1B6F     		ldr	r3, [r3, #112]
  43 0010 03F44073 		and	r3, r3, #768
  44 0014 B3F5007F 		cmp	r3, #512
  45 0018 06D0     		beq	.L2
  46              		.loc 1 59 0
  47 001a 0E4B     		ldr	r3, .L4+4
  48 001c 4FF48032 		mov	r2, #65536
  49 0020 1A67     		str	r2, [r3, #112]
  50              		.loc 1 60 0
  51 0022 0C4B     		ldr	r3, .L4+4
  52 0024 0022     		movs	r2, #0
  53 0026 1A67     		str	r2, [r3, #112]
  54              	.L2:
  55              		.loc 1 88 0
  56 0028 0A4A     		ldr	r2, .L4+4
  57 002a 0A4B     		ldr	r3, .L4+4
ARM GAS  /tmp/ccGUl8KV.s 			page 2


  58 002c 1B6B     		ldr	r3, [r3, #48]
  59 002e 43F48023 		orr	r3, r3, #262144
  60 0032 1363     		str	r3, [r2, #48]
  61              		.loc 1 90 0
  62 0034 064A     		ldr	r2, .L4
  63 0036 064B     		ldr	r3, .L4
  64 0038 5B68     		ldr	r3, [r3, #4]
  65 003a 43F40073 		orr	r3, r3, #512
  66 003e 5360     		str	r3, [r2, #4]
  67              		.loc 1 91 0
  68 0040 00BF     		nop
  69              	.L3:
  70              		.loc 1 91 0 is_stmt 0 discriminator 1
  71 0042 034B     		ldr	r3, .L4
  72 0044 5B68     		ldr	r3, [r3, #4]
  73 0046 03F00803 		and	r3, r3, #8
  74 004a 002B     		cmp	r3, #0
  75 004c F9D0     		beq	.L3
  76              		.loc 1 96 0 is_stmt 1
  77 004e 7047     		bx	lr
  78              	.L5:
  79              		.align	2
  80              	.L4:
  81 0050 00700040 		.word	1073770496
  82 0054 00380240 		.word	1073887232
  83              		.cfi_endproc
  84              	.LFE111:
  85              		.size	hal_lld_backup_domain_init, .-hal_lld_backup_domain_init
  86 0058 AFF30080 		.section	.text.hal_lld_init,"ax",%progbits
  86      AFF30080 
  87              		.align	2
  88              		.p2align 4,,15
  89              		.global	hal_lld_init
  90              		.thumb
  91              		.thumb_func
  92              		.type	hal_lld_init, %function
  93              	hal_lld_init:
  94              	.LFB112:
  95              		.loc 1 111 0
  96              		.cfi_startproc
  97              		@ args = 0, pretend = 0, frame = 0
  98              		@ frame_needed = 0, uses_anonymous_args = 0
  99 0000 08B5     		push	{r3, lr}
 100              		.cfi_def_cfa_offset 8
 101              		.cfi_offset 3, -8
 102              		.cfi_offset 14, -4
 103              		.loc 1 115 0
 104 0002 224B     		ldr	r3, .L7
 105 0004 1B69     		ldr	r3, [r3, #16]
 106 0006 214B     		ldr	r3, .L7
 107 0008 4FF0FF32 		mov	r2, #-1
 108 000c 1A61     		str	r2, [r3, #16]
 109 000e 1F4B     		ldr	r3, .L7
 110 0010 0022     		movs	r2, #0
 111 0012 1A61     		str	r2, [r3, #16]
 112              		.loc 1 116 0
 113 0014 1D4B     		ldr	r3, .L7
ARM GAS  /tmp/ccGUl8KV.s 			page 3


 114 0016 5B69     		ldr	r3, [r3, #20]
 115 0018 1C4B     		ldr	r3, .L7
 116 001a 4FF0FF32 		mov	r2, #-1
 117 001e 5A61     		str	r2, [r3, #20]
 118 0020 1A4B     		ldr	r3, .L7
 119 0022 0022     		movs	r2, #0
 120 0024 5A61     		str	r2, [r3, #20]
 121              		.loc 1 117 0
 122 0026 194A     		ldr	r2, .L7
 123 0028 184B     		ldr	r3, .L7
 124 002a 1B6A     		ldr	r3, [r3, #32]
 125 002c 63F08053 		orn	r3, r3, #268435456
 126 0030 1362     		str	r3, [r2, #32]
 127 0032 164B     		ldr	r3, .L7
 128 0034 0022     		movs	r2, #0
 129 0036 1A62     		str	r2, [r3, #32]
 130              		.loc 1 118 0
 131 0038 144B     		ldr	r3, .L7
 132 003a 5B6A     		ldr	r3, [r3, #36]
 133 003c 134B     		ldr	r3, .L7
 134 003e 4FF0FF32 		mov	r2, #-1
 135 0042 5A62     		str	r2, [r3, #36]
 136 0044 114B     		ldr	r3, .L7
 137 0046 0022     		movs	r2, #0
 138 0048 5A62     		str	r2, [r3, #36]
 139              		.loc 1 121 0
 140 004a 114B     		ldr	r3, .L7+4
 141 004c 114A     		ldr	r2, .L7+8
 142 004e 5A60     		str	r2, [r3, #4]
 143              		.loc 1 122 0
 144 0050 0F4B     		ldr	r3, .L7+4
 145 0052 0022     		movs	r2, #0
 146 0054 9A60     		str	r2, [r3, #8]
 147              		.loc 1 123 0
 148 0056 0E4B     		ldr	r3, .L7+4
 149 0058 0722     		movs	r2, #7
 150 005a 1A60     		str	r2, [r3]
 151              		.loc 1 128 0
 152 005c 0E4A     		ldr	r2, .L7+12
 153 005e 0E4B     		ldr	r3, .L7+12
 154 0060 DB68     		ldr	r3, [r3, #12]
 155 0062 43F08073 		orr	r3, r3, #16777216
 156 0066 D360     		str	r3, [r2, #12]
 157              		.loc 1 129 0
 158 0068 0C4A     		ldr	r2, .L7+16
 159 006a 0C4B     		ldr	r3, .L7+16
 160 006c 1B68     		ldr	r3, [r3]
 161 006e 43F00103 		orr	r3, r3, #1
 162 0072 1360     		str	r3, [r2]
 163              		.loc 1 132 0
 164 0074 054A     		ldr	r2, .L7
 165 0076 054B     		ldr	r3, .L7
 166 0078 1B6C     		ldr	r3, [r3, #64]
 167 007a 43F08053 		orr	r3, r3, #268435456
 168 007e 1364     		str	r3, [r2, #64]
 169              		.loc 1 135 0
 170 0080 FFF7FEFF 		bl	hal_lld_backup_domain_init
ARM GAS  /tmp/ccGUl8KV.s 			page 4


 171              		.loc 1 138 0
 172 0084 FFF7FEFF 		bl	dmaInit
 173              		.loc 1 145 0
 174 0088 08BD     		pop	{r3, pc}
 175              	.L8:
 176 008a 00BF     		.align	2
 177              	.L7:
 178 008c 00380240 		.word	1073887232
 179 0090 10E000E0 		.word	-536813552
 180 0094 3F900200 		.word	167999
 181 0098 F0ED00E0 		.word	-536810000
 182 009c 001000E0 		.word	-536866816
 183              		.cfi_endproc
 184              	.LFE112:
 185              		.size	hal_lld_init, .-hal_lld_init
 186              		.section	.text.stm32_clock_init,"ax",%progbits
 187              		.align	2
 188              		.p2align 4,,15
 189              		.global	stm32_clock_init
 190              		.thumb
 191              		.thumb_func
 192              		.type	stm32_clock_init, %function
 193              	stm32_clock_init:
 194              	.LFB113:
 195              		.loc 1 154 0
 196              		.cfi_startproc
 197              		@ args = 0, pretend = 0, frame = 0
 198              		@ frame_needed = 0, uses_anonymous_args = 0
 199              		@ link register save eliminated.
 200              		.loc 1 158 0
 201 0000 404B     		ldr	r3, .L17
 202 0002 4FF08052 		mov	r2, #268435456
 203 0006 1A64     		str	r2, [r3, #64]
 204              		.loc 1 162 0
 205 0008 3F4B     		ldr	r3, .L17+4
 206 000a 4FF44042 		mov	r2, #49152
 207 000e 1A60     		str	r2, [r3]
 208              		.loc 1 169 0
 209 0010 3C4A     		ldr	r2, .L17
 210 0012 3C4B     		ldr	r3, .L17
 211 0014 1B68     		ldr	r3, [r3]
 212 0016 43F00103 		orr	r3, r3, #1
 213 001a 1360     		str	r3, [r2]
 214              		.loc 1 170 0
 215 001c 00BF     		nop
 216              	.L10:
 217              		.loc 1 170 0 is_stmt 0 discriminator 1
 218 001e 394B     		ldr	r3, .L17
 219 0020 1B68     		ldr	r3, [r3]
 220 0022 03F00203 		and	r3, r3, #2
 221 0026 002B     		cmp	r3, #0
 222 0028 F9D0     		beq	.L10
 223              		.loc 1 176 0 is_stmt 1
 224 002a 364A     		ldr	r2, .L17
 225 002c 354B     		ldr	r3, .L17
 226 002e 9B68     		ldr	r3, [r3, #8]
 227 0030 23F00303 		bic	r3, r3, #3
ARM GAS  /tmp/ccGUl8KV.s 			page 5


 228 0034 9360     		str	r3, [r2, #8]
 229              		.loc 1 177 0
 230 0036 334A     		ldr	r2, .L17
 231 0038 324B     		ldr	r3, .L17
 232 003a 9B68     		ldr	r3, [r3, #8]
 233 003c 9360     		str	r3, [r2, #8]
 234              		.loc 1 178 0
 235 003e 00BF     		nop
 236              	.L11:
 237              		.loc 1 178 0 is_stmt 0 discriminator 1
 238 0040 304B     		ldr	r3, .L17
 239 0042 9B68     		ldr	r3, [r3, #8]
 240 0044 03F00C03 		and	r3, r3, #12
 241 0048 002B     		cmp	r3, #0
 242 004a F9D1     		bne	.L11
 243              		.loc 1 182 0 is_stmt 1
 244 004c 2D4A     		ldr	r2, .L17
 245 004e 2D4B     		ldr	r3, .L17
 246 0050 1B68     		ldr	r3, [r3]
 247 0052 03F0F903 		and	r3, r3, #249
 248 0056 1360     		str	r3, [r2]
 249              		.loc 1 183 0
 250 0058 2A4B     		ldr	r3, .L17
 251 005a 0022     		movs	r2, #0
 252 005c 9A60     		str	r2, [r3, #8]
 253              		.loc 1 192 0
 254 005e 294A     		ldr	r2, .L17
 255 0060 284B     		ldr	r3, .L17
 256 0062 1B68     		ldr	r3, [r3]
 257 0064 43F48033 		orr	r3, r3, #65536
 258 0068 1360     		str	r3, [r2]
 259              		.loc 1 194 0
 260 006a 00BF     		nop
 261              	.L12:
 262              		.loc 1 194 0 is_stmt 0 discriminator 1
 263 006c 254B     		ldr	r3, .L17
 264 006e 1B68     		ldr	r3, [r3]
 265 0070 03F40033 		and	r3, r3, #131072
 266 0074 002B     		cmp	r3, #0
 267 0076 F9D0     		beq	.L12
 268              		.loc 1 200 0 is_stmt 1
 269 0078 224A     		ldr	r2, .L17
 270 007a 224B     		ldr	r3, .L17
 271 007c 5B6F     		ldr	r3, [r3, #116]
 272 007e 43F00103 		orr	r3, r3, #1
 273 0082 5367     		str	r3, [r2, #116]
 274              		.loc 1 201 0
 275 0084 00BF     		nop
 276              	.L13:
 277              		.loc 1 201 0 is_stmt 0 discriminator 1
 278 0086 1F4B     		ldr	r3, .L17
 279 0088 5B6F     		ldr	r3, [r3, #116]
 280 008a 03F00203 		and	r3, r3, #2
 281 008e 002B     		cmp	r3, #0
 282 0090 F9D0     		beq	.L13
 283              		.loc 1 207 0 is_stmt 1
 284 0092 1C4B     		ldr	r3, .L17
ARM GAS  /tmp/ccGUl8KV.s 			page 6


 285 0094 1D4A     		ldr	r2, .L17+8
 286 0096 5A60     		str	r2, [r3, #4]
 287              		.loc 1 209 0
 288 0098 1A4A     		ldr	r2, .L17
 289 009a 1A4B     		ldr	r3, .L17
 290 009c 1B68     		ldr	r3, [r3]
 291 009e 43F08073 		orr	r3, r3, #16777216
 292 00a2 1360     		str	r3, [r2]
 293              		.loc 1 213 0
 294 00a4 00BF     		nop
 295              	.L14:
 296              		.loc 1 213 0 is_stmt 0 discriminator 1
 297 00a6 184B     		ldr	r3, .L17+4
 298 00a8 5B68     		ldr	r3, [r3, #4]
 299 00aa 03F48043 		and	r3, r3, #16384
 300 00ae 002B     		cmp	r3, #0
 301 00b0 F9D0     		beq	.L14
 302              		.loc 1 229 0 is_stmt 1
 303 00b2 00BF     		nop
 304              	.L15:
 305              		.loc 1 229 0 is_stmt 0 discriminator 1
 306 00b4 134B     		ldr	r3, .L17
 307 00b6 1B68     		ldr	r3, [r3]
 308 00b8 03F00073 		and	r3, r3, #33554432
 309 00bc 002B     		cmp	r3, #0
 310 00be F9D0     		beq	.L15
 311              		.loc 1 244 0 is_stmt 1
 312 00c0 104B     		ldr	r3, .L17
 313 00c2 134A     		ldr	r2, .L17+12
 314 00c4 9A60     		str	r2, [r3, #8]
 315              		.loc 1 257 0
 316 00c6 134B     		ldr	r3, .L17+16
 317 00c8 40F20572 		movw	r2, #1797
 318 00cc 1A60     		str	r2, [r3]
 319              		.loc 1 263 0
 320 00ce 0D4A     		ldr	r2, .L17
 321 00d0 0C4B     		ldr	r3, .L17
 322 00d2 9B68     		ldr	r3, [r3, #8]
 323 00d4 43F00203 		orr	r3, r3, #2
 324 00d8 9360     		str	r3, [r2, #8]
 325              		.loc 1 264 0
 326 00da 00BF     		nop
 327              	.L16:
 328              		.loc 1 264 0 is_stmt 0 discriminator 1
 329 00dc 094B     		ldr	r3, .L17
 330 00de 9B68     		ldr	r3, [r3, #8]
 331 00e0 03F00C03 		and	r3, r3, #12
 332 00e4 082B     		cmp	r3, #8
 333 00e6 F9D1     		bne	.L16
 334              		.loc 1 271 0 is_stmt 1
 335 00e8 064A     		ldr	r2, .L17
 336 00ea 064B     		ldr	r3, .L17
 337 00ec 5B6C     		ldr	r3, [r3, #68]
 338 00ee 43F48043 		orr	r3, r3, #16384
 339 00f2 5364     		str	r3, [r2, #68]
 340 00f4 034A     		ldr	r2, .L17
 341 00f6 034B     		ldr	r3, .L17
ARM GAS  /tmp/ccGUl8KV.s 			page 7


 342 00f8 5B6E     		ldr	r3, [r3, #100]
 343 00fa 43F48043 		orr	r3, r3, #16384
 344 00fe 5366     		str	r3, [r2, #100]
 345              		.loc 1 272 0
 346 0100 7047     		bx	lr
 347              	.L18:
 348 0102 00BF     		.align	2
 349              	.L17:
 350 0104 00380240 		.word	1073887232
 351 0108 00700040 		.word	1073770496
 352 010c 08544007 		.word	121656328
 353 0110 00940838 		.word	940086272
 354 0114 003C0240 		.word	1073888256
 355              		.cfi_endproc
 356              	.LFE113:
 357              		.size	stm32_clock_init, .-stm32_clock_init
 358 0118 AFF30080 		.text
 358      AFF30080 
 359              	.Letext0:
 360              		.file 2 "/opt/gcc-arm-none-eabi/arm-none-eabi/include/machine/_default_types.h"
 361              		.file 3 "/opt/gcc-arm-none-eabi/arm-none-eabi/include/stdint.h"
 362              		.file 4 "/home/makkmarci/workspace/ChibiOS_2.6.8/os/ports/common/ARMCMx/nvic.h"
 363              		.file 5 "/home/makkmarci/workspace/ChibiOS_2.6.8/os/ports/common/ARMCMx/CMSIS/include/core_cm4.h"
 364              		.file 6 "/home/makkmarci/workspace/ChibiOS_2.6.8/os/hal/platforms/STM32F4xx/stm32f4xx.h"