ARM GAS  /tmp/ccZ5heLd.s 			page 1


   1              		.syntax unified
   2              		.cpu cortex-m4
   3              		.eabi_attribute 27, 1
   4              		.eabi_attribute 28, 1
   5              		.fpu fpv4-sp-d16
   6              		.eabi_attribute 20, 1
   7              		.eabi_attribute 21, 1
   8              		.eabi_attribute 23, 3
   9              		.eabi_attribute 24, 1
  10              		.eabi_attribute 25, 1
  11              		.eabi_attribute 26, 1
  12              		.eabi_attribute 30, 6
  13              		.eabi_attribute 34, 1
  14              		.eabi_attribute 18, 4
  15              		.thumb
  16              		.file	"icu.c"
  17              		.text
  18              	.Ltext0:
  19              		.cfi_sections	.debug_frame
  20              		.section	.text.icuInit,"ax",%progbits
  21              		.align	2
  22              		.p2align 4,,15
  23              		.global	icuInit
  24              		.thumb
  25              		.thumb_func
  26              		.type	icuInit, %function
  27              	icuInit:
  28              	.LFB111:
  29              		.file 1 "/home/makkmarci/workspace/ChibiOS_2.6.8/os/hal/src/icu.c"
  30              		.loc 1 68 0
  31              		.cfi_startproc
  32              		@ args = 0, pretend = 0, frame = 0
  33              		@ frame_needed = 0, uses_anonymous_args = 0
  34 0000 08B5     		push	{r3, lr}
  35              		.cfi_def_cfa_offset 8
  36              		.cfi_offset 3, -8
  37              		.cfi_offset 14, -4
  38              		.loc 1 70 0
  39 0002 FFF7FEFF 		bl	icu_lld_init
  40              		.loc 1 71 0
  41 0006 08BD     		pop	{r3, pc}
  42              		.cfi_endproc
  43              	.LFE111:
  44              		.size	icuInit, .-icuInit
  45 0008 AFF30080 		.section	.text.icuObjectInit,"ax",%progbits
  45      AFF30080 
  46              		.align	2
  47              		.p2align 4,,15
  48              		.global	icuObjectInit
  49              		.thumb
  50              		.thumb_func
  51              		.type	icuObjectInit, %function
  52              	icuObjectInit:
  53              	.LFB112:
  54              		.loc 1 80 0
  55              		.cfi_startproc
  56              		@ args = 0, pretend = 0, frame = 8
ARM GAS  /tmp/ccZ5heLd.s 			page 2


  57              		@ frame_needed = 0, uses_anonymous_args = 0
  58              		@ link register save eliminated.
  59 0000 82B0     		sub	sp, sp, #8
  60              		.cfi_def_cfa_offset 8
  61 0002 0190     		str	r0, [sp, #4]
  62              		.loc 1 82 0
  63 0004 019B     		ldr	r3, [sp, #4]
  64 0006 0122     		movs	r2, #1
  65 0008 1A70     		strb	r2, [r3]
  66              		.loc 1 83 0
  67 000a 019B     		ldr	r3, [sp, #4]
  68 000c 0022     		movs	r2, #0
  69 000e 5A60     		str	r2, [r3, #4]
  70              		.loc 1 84 0
  71 0010 02B0     		add	sp, sp, #8
  72              		.cfi_def_cfa_offset 0
  73              		@ sp needed
  74 0012 7047     		bx	lr
  75              		.cfi_endproc
  76              	.LFE112:
  77              		.size	icuObjectInit, .-icuObjectInit
  78 0014 AFF30080 		.section	.rodata
  78      AFF30080 
  78      AFF30080 
  79              		.align	2
  80              	.LC0:
  81 0000 22696375 		.ascii	"\"icuStart\"()\000"
  81      53746172 
  81      74222829 
  81      00
  82 000d 000000   		.align	2
  83              	.LC1:
  84 0010 69637553 		.ascii	"icuStart(), #1\000"
  84      74617274 
  84      28292C20 
  84      233100
  85              		.section	.text.icuStart,"ax",%progbits
  86              		.align	2
  87              		.p2align 4,,15
  88              		.global	icuStart
  89              		.thumb
  90              		.thumb_func
  91              		.type	icuStart, %function
  92              	icuStart:
  93              	.LFB113:
  94              		.loc 1 94 0
  95              		.cfi_startproc
  96              		@ args = 0, pretend = 0, frame = 8
  97              		@ frame_needed = 0, uses_anonymous_args = 0
  98 0000 00B5     		push	{lr}
  99              		.cfi_def_cfa_offset 4
 100              		.cfi_offset 14, -4
 101 0002 83B0     		sub	sp, sp, #12
 102              		.cfi_def_cfa_offset 16
 103 0004 0190     		str	r0, [sp, #4]
 104 0006 0091     		str	r1, [sp]
 105              		.loc 1 96 0
ARM GAS  /tmp/ccZ5heLd.s 			page 3


 106 0008 019B     		ldr	r3, [sp, #4]
 107 000a 002B     		cmp	r3, #0
 108 000c 02D0     		beq	.L4
 109              		.loc 1 96 0 is_stmt 0 discriminator 2
 110 000e 009B     		ldr	r3, [sp]
 111 0010 002B     		cmp	r3, #0
 112 0012 02D1     		bne	.L5
 113              	.L4:
 114              		.loc 1 96 0 discriminator 3
 115 0014 0E48     		ldr	r0, .L7
 116 0016 FFF7FEFF 		bl	chDbgPanic
 117              	.L5:
 118              		.loc 1 98 0 is_stmt 1
 119              	@ 98 "/home/makkmarci/workspace/ChibiOS_2.6.8/os/hal/src/icu.c" 1
 120 001a FFF7FEFF 		bl      _port_lock
 121              	@ 0 "" 2
 122              		.loc 1 99 0
 123              		.thumb
 124 001e 019B     		ldr	r3, [sp, #4]
 125 0020 1B78     		ldrb	r3, [r3]	@ zero_extendqisi2
 126 0022 012B     		cmp	r3, #1
 127 0024 06D0     		beq	.L6
 128              		.loc 1 99 0 is_stmt 0 discriminator 1
 129 0026 019B     		ldr	r3, [sp, #4]
 130 0028 1B78     		ldrb	r3, [r3]	@ zero_extendqisi2
 131 002a 022B     		cmp	r3, #2
 132 002c 02D0     		beq	.L6
 133              		.loc 1 99 0 discriminator 2
 134 002e 0948     		ldr	r0, .L7+4
 135 0030 FFF7FEFF 		bl	chDbgPanic
 136              	.L6:
 137              		.loc 1 101 0 is_stmt 1
 138 0034 019B     		ldr	r3, [sp, #4]
 139 0036 009A     		ldr	r2, [sp]
 140 0038 5A60     		str	r2, [r3, #4]
 141              		.loc 1 102 0
 142 003a 0198     		ldr	r0, [sp, #4]
 143 003c FFF7FEFF 		bl	icu_lld_start
 144              		.loc 1 103 0
 145 0040 019B     		ldr	r3, [sp, #4]
 146 0042 0222     		movs	r2, #2
 147 0044 1A70     		strb	r2, [r3]
 148              		.loc 1 104 0
 149              	@ 104 "/home/makkmarci/workspace/ChibiOS_2.6.8/os/hal/src/icu.c" 1
 150 0046 FFF7FEFF 		bl      _port_unlock
 151              	@ 0 "" 2
 152              		.loc 1 105 0
 153              		.thumb
 154 004a 03B0     		add	sp, sp, #12
 155              		.cfi_def_cfa_offset 4
 156              		@ sp needed
 157 004c 5DF804FB 		ldr	pc, [sp], #4
 158              	.L8:
 159              		.align	2
 160              	.L7:
 161 0050 00000000 		.word	.LC0
 162 0054 10000000 		.word	.LC1
ARM GAS  /tmp/ccZ5heLd.s 			page 4


 163              		.cfi_endproc
 164              	.LFE113:
 165              		.size	icuStart, .-icuStart
 166 0058 AFF30080 		.section	.rodata
 166      AFF30080 
 167 001f 00       		.align	2
 168              	.LC2:
 169 0020 22696375 		.ascii	"\"icuStop\"()\000"
 169      53746F70 
 169      22282900 
 170              		.align	2
 171              	.LC3:
 172 002c 69637553 		.ascii	"icuStop(), #1\000"
 172      746F7028 
 172      292C2023 
 172      3100
 173              		.section	.text.icuStop,"ax",%progbits
 174              		.align	2
 175              		.p2align 4,,15
 176              		.global	icuStop
 177              		.thumb
 178              		.thumb_func
 179              		.type	icuStop, %function
 180              	icuStop:
 181              	.LFB114:
 182              		.loc 1 114 0
 183              		.cfi_startproc
 184              		@ args = 0, pretend = 0, frame = 8
 185              		@ frame_needed = 0, uses_anonymous_args = 0
 186 0000 00B5     		push	{lr}
 187              		.cfi_def_cfa_offset 4
 188              		.cfi_offset 14, -4
 189 0002 83B0     		sub	sp, sp, #12
 190              		.cfi_def_cfa_offset 16
 191 0004 0190     		str	r0, [sp, #4]
 192              		.loc 1 116 0
 193 0006 019B     		ldr	r3, [sp, #4]
 194 0008 002B     		cmp	r3, #0
 195 000a 02D1     		bne	.L10
 196              		.loc 1 116 0 is_stmt 0 discriminator 1
 197 000c 0D48     		ldr	r0, .L12
 198 000e FFF7FEFF 		bl	chDbgPanic
 199              	.L10:
 200              		.loc 1 118 0 is_stmt 1
 201              	@ 118 "/home/makkmarci/workspace/ChibiOS_2.6.8/os/hal/src/icu.c" 1
 202 0012 FFF7FEFF 		bl      _port_lock
 203              	@ 0 "" 2
 204              		.loc 1 119 0
 205              		.thumb
 206 0016 019B     		ldr	r3, [sp, #4]
 207 0018 1B78     		ldrb	r3, [r3]	@ zero_extendqisi2
 208 001a 012B     		cmp	r3, #1
 209 001c 06D0     		beq	.L11
 210              		.loc 1 119 0 is_stmt 0 discriminator 1
 211 001e 019B     		ldr	r3, [sp, #4]
 212 0020 1B78     		ldrb	r3, [r3]	@ zero_extendqisi2
 213 0022 022B     		cmp	r3, #2
ARM GAS  /tmp/ccZ5heLd.s 			page 5


 214 0024 02D0     		beq	.L11
 215              		.loc 1 119 0 discriminator 2
 216 0026 0848     		ldr	r0, .L12+4
 217 0028 FFF7FEFF 		bl	chDbgPanic
 218              	.L11:
 219              		.loc 1 121 0 is_stmt 1
 220 002c 0198     		ldr	r0, [sp, #4]
 221 002e FFF7FEFF 		bl	icu_lld_stop
 222              		.loc 1 122 0
 223 0032 019B     		ldr	r3, [sp, #4]
 224 0034 0122     		movs	r2, #1
 225 0036 1A70     		strb	r2, [r3]
 226              		.loc 1 123 0
 227              	@ 123 "/home/makkmarci/workspace/ChibiOS_2.6.8/os/hal/src/icu.c" 1
 228 0038 FFF7FEFF 		bl      _port_unlock
 229              	@ 0 "" 2
 230              		.loc 1 124 0
 231              		.thumb
 232 003c 03B0     		add	sp, sp, #12
 233              		.cfi_def_cfa_offset 4
 234              		@ sp needed
 235 003e 5DF804FB 		ldr	pc, [sp], #4
 236              	.L13:
 237 0042 00BF     		.align	2
 238              	.L12:
 239 0044 20000000 		.word	.LC2
 240 0048 2C000000 		.word	.LC3
 241              		.cfi_endproc
 242              	.LFE114:
 243              		.size	icuStop, .-icuStop
 244 004c AFF30080 		.section	.rodata
 245 003a 0000     		.align	2
 246              	.LC4:
 247 003c 22696375 		.ascii	"\"icuEnable\"()\000"
 247      456E6162 
 247      6C652228 
 247      2900
 248 004a 0000     		.align	2
 249              	.LC5:
 250 004c 69637545 		.ascii	"icuEnable(), #1\000"
 250      6E61626C 
 250      6528292C 
 250      20233100 
 251              		.section	.text.icuEnable,"ax",%progbits
 252              		.align	2
 253              		.p2align 4,,15
 254              		.global	icuEnable
 255              		.thumb
 256              		.thumb_func
 257              		.type	icuEnable, %function
 258              	icuEnable:
 259              	.LFB115:
 260              		.loc 1 133 0
 261              		.cfi_startproc
 262              		@ args = 0, pretend = 0, frame = 8
 263              		@ frame_needed = 0, uses_anonymous_args = 0
 264 0000 00B5     		push	{lr}
ARM GAS  /tmp/ccZ5heLd.s 			page 6


 265              		.cfi_def_cfa_offset 4
 266              		.cfi_offset 14, -4
 267 0002 83B0     		sub	sp, sp, #12
 268              		.cfi_def_cfa_offset 16
 269 0004 0190     		str	r0, [sp, #4]
 270              		.loc 1 135 0
 271 0006 019B     		ldr	r3, [sp, #4]
 272 0008 002B     		cmp	r3, #0
 273 000a 02D1     		bne	.L15
 274              		.loc 1 135 0 is_stmt 0 discriminator 1
 275 000c 0B48     		ldr	r0, .L17
 276 000e FFF7FEFF 		bl	chDbgPanic
 277              	.L15:
 278              		.loc 1 137 0 is_stmt 1
 279              	@ 137 "/home/makkmarci/workspace/ChibiOS_2.6.8/os/hal/src/icu.c" 1
 280 0012 FFF7FEFF 		bl      _port_lock
 281              	@ 0 "" 2
 282              		.loc 1 138 0
 283              		.thumb
 284 0016 019B     		ldr	r3, [sp, #4]
 285 0018 1B78     		ldrb	r3, [r3]	@ zero_extendqisi2
 286 001a 022B     		cmp	r3, #2
 287 001c 02D0     		beq	.L16
 288              		.loc 1 138 0 is_stmt 0 discriminator 1
 289 001e 0848     		ldr	r0, .L17+4
 290 0020 FFF7FEFF 		bl	chDbgPanic
 291              	.L16:
 292              		.loc 1 139 0 is_stmt 1
 293 0024 0198     		ldr	r0, [sp, #4]
 294 0026 FFF7FEFF 		bl	icu_lld_enable
 295              		.loc 1 140 0
 296 002a 019B     		ldr	r3, [sp, #4]
 297 002c 0322     		movs	r2, #3
 298 002e 1A70     		strb	r2, [r3]
 299              		.loc 1 141 0
 300              	@ 141 "/home/makkmarci/workspace/ChibiOS_2.6.8/os/hal/src/icu.c" 1
 301 0030 FFF7FEFF 		bl      _port_unlock
 302              	@ 0 "" 2
 303              		.loc 1 142 0
 304              		.thumb
 305 0034 03B0     		add	sp, sp, #12
 306              		.cfi_def_cfa_offset 4
 307              		@ sp needed
 308 0036 5DF804FB 		ldr	pc, [sp], #4
 309              	.L18:
 310 003a 00BF     		.align	2
 311              	.L17:
 312 003c 3C000000 		.word	.LC4
 313 0040 4C000000 		.word	.LC5
 314              		.cfi_endproc
 315              	.LFE115:
 316              		.size	icuEnable, .-icuEnable
 317 0044 AFF30080 		.section	.rodata
 317      AFF30080 
 317      AFF30080 
 318              		.align	2
 319              	.LC6:
ARM GAS  /tmp/ccZ5heLd.s 			page 7


 320 005c 22696375 		.ascii	"\"icuDisable\"()\000"
 320      44697361 
 320      626C6522 
 320      282900
 321 006b 00       		.align	2
 322              	.LC7:
 323 006c 69637544 		.ascii	"icuDisable(), #1\000"
 323      69736162 
 323      6C652829 
 323      2C202331 
 323      00
 324 007d 000000   		.section	.text.icuDisable,"ax",%progbits
 325              		.align	2
 326              		.p2align 4,,15
 327              		.global	icuDisable
 328              		.thumb
 329              		.thumb_func
 330              		.type	icuDisable, %function
 331              	icuDisable:
 332              	.LFB116:
 333              		.loc 1 151 0
 334              		.cfi_startproc
 335              		@ args = 0, pretend = 0, frame = 8
 336              		@ frame_needed = 0, uses_anonymous_args = 0
 337 0000 00B5     		push	{lr}
 338              		.cfi_def_cfa_offset 4
 339              		.cfi_offset 14, -4
 340 0002 83B0     		sub	sp, sp, #12
 341              		.cfi_def_cfa_offset 16
 342 0004 0190     		str	r0, [sp, #4]
 343              		.loc 1 153 0
 344 0006 019B     		ldr	r3, [sp, #4]
 345 0008 002B     		cmp	r3, #0
 346 000a 02D1     		bne	.L20
 347              		.loc 1 153 0 is_stmt 0 discriminator 1
 348 000c 1148     		ldr	r0, .L22
 349 000e FFF7FEFF 		bl	chDbgPanic
 350              	.L20:
 351              		.loc 1 155 0 is_stmt 1
 352              	@ 155 "/home/makkmarci/workspace/ChibiOS_2.6.8/os/hal/src/icu.c" 1
 353 0012 FFF7FEFF 		bl      _port_lock
 354              	@ 0 "" 2
 355              		.loc 1 156 0
 356              		.thumb
 357 0016 019B     		ldr	r3, [sp, #4]
 358 0018 1B78     		ldrb	r3, [r3]	@ zero_extendqisi2
 359 001a 022B     		cmp	r3, #2
 360 001c 0ED0     		beq	.L21
 361              		.loc 1 156 0 is_stmt 0 discriminator 1
 362 001e 019B     		ldr	r3, [sp, #4]
 363 0020 1B78     		ldrb	r3, [r3]	@ zero_extendqisi2
 364 0022 032B     		cmp	r3, #3
 365 0024 0AD0     		beq	.L21
 366              		.loc 1 156 0 discriminator 2
 367 0026 019B     		ldr	r3, [sp, #4]
 368 0028 1B78     		ldrb	r3, [r3]	@ zero_extendqisi2
 369 002a 042B     		cmp	r3, #4
ARM GAS  /tmp/ccZ5heLd.s 			page 8


 370 002c 06D0     		beq	.L21
 371              		.loc 1 156 0 discriminator 3
 372 002e 019B     		ldr	r3, [sp, #4]
 373 0030 1B78     		ldrb	r3, [r3]	@ zero_extendqisi2
 374 0032 052B     		cmp	r3, #5
 375 0034 02D0     		beq	.L21
 376              		.loc 1 156 0 discriminator 4
 377 0036 0848     		ldr	r0, .L22+4
 378 0038 FFF7FEFF 		bl	chDbgPanic
 379              	.L21:
 380              		.loc 1 159 0 is_stmt 1
 381 003c 0198     		ldr	r0, [sp, #4]
 382 003e FFF7FEFF 		bl	icu_lld_disable
 383              		.loc 1 160 0
 384 0042 019B     		ldr	r3, [sp, #4]
 385 0044 0222     		movs	r2, #2
 386 0046 1A70     		strb	r2, [r3]
 387              		.loc 1 161 0
 388              	@ 161 "/home/makkmarci/workspace/ChibiOS_2.6.8/os/hal/src/icu.c" 1
 389 0048 FFF7FEFF 		bl      _port_unlock
 390              	@ 0 "" 2
 391              		.loc 1 162 0
 392              		.thumb
 393 004c 03B0     		add	sp, sp, #12
 394              		.cfi_def_cfa_offset 4
 395              		@ sp needed
 396 004e 5DF804FB 		ldr	pc, [sp], #4
 397              	.L23:
 398 0052 00BF     		.align	2
 399              	.L22:
 400 0054 5C000000 		.word	.LC6
 401 0058 6C000000 		.word	.LC7
 402              		.cfi_endproc
 403              	.LFE116:
 404              		.size	icuDisable, .-icuDisable
 405 005c AFF30080 		.text
 406              	.Letext0:
 407              		.file 2 "/opt/gcc-arm-none-eabi/arm-none-eabi/include/machine/_default_types.h"
 408              		.file 3 "/opt/gcc-arm-none-eabi/arm-none-eabi/include/stdint.h"
 409              		.file 4 "/home/makkmarci/workspace/ChibiOS_2.6.8/os/hal/include/icu.h"
 410              		.file 5 "/home/makkmarci/workspace/ChibiOS_2.6.8/os/hal/platforms/STM32/TIMv1/icu_lld.h"
 411              		.file 6 "/home/makkmarci/workspace/ChibiOS_2.6.8/os/hal/platforms/STM32/TIMv1/stm32_tim.h"
 412              		.file 7 "/home/makkmarci/workspace/ChibiOS_2.6.8/os/ports/common/ARMCMx/CMSIS/include/core_cm4.h"
 413              		.section	.debug_info,"",%progbits
 414              	.Ldebug_info0:
 415 0000 5C040000 		.4byte	0x45c
 416 0004 0400     		.2byte	0x4
 417 0006 00000000 		.4byte	.Ldebug_abbrev0
 418 000a 04       		.byte	0x4
 419 000b 01       		.uleb128 0x1
 420 000c B9000000 		.4byte	.LASF62
 421 0010 01       		.byte	0x1
 422 0011 24030000 		.4byte	.LASF63
 423 0015 00000000 		.4byte	.Ldebug_ranges0+0
 424 0019 00000000 		.4byte	0
 425 001d 00000000 		.4byte	.Ldebug_line0
 426 0021 02       		.uleb128 0x2
ARM GAS  /tmp/ccZ5heLd.s 			page 9


 427 0022 04       		.byte	0x4
 428 0023 05       		.byte	0x5
 429 0024 696E7400 		.ascii	"int\000"
 430 0028 03       		.uleb128 0x3
 431 0029 04       		.byte	0x4
 432 002a 07       		.byte	0x7
 433 002b 58020000 		.4byte	.LASF0
 434 002f 03       		.uleb128 0x3
 435 0030 01       		.byte	0x1
 436 0031 06       		.byte	0x6
 437 0032 2C020000 		.4byte	.LASF1
 438 0036 03       		.uleb128 0x3
 439 0037 01       		.byte	0x1
 440 0038 08       		.byte	0x8
 441 0039 01020000 		.4byte	.LASF2
 442 003d 03       		.uleb128 0x3
 443 003e 02       		.byte	0x2
 444 003f 05       		.byte	0x5
 445 0040 3A000000 		.4byte	.LASF3
 446 0044 03       		.uleb128 0x3
 447 0045 02       		.byte	0x2
 448 0046 07       		.byte	0x7
 449 0047 7A020000 		.4byte	.LASF4
 450 004b 04       		.uleb128 0x4
 451 004c 69030000 		.4byte	.LASF6
 452 0050 02       		.byte	0x2
 453 0051 3F       		.byte	0x3f
 454 0052 56000000 		.4byte	0x56
 455 0056 03       		.uleb128 0x3
 456 0057 04       		.byte	0x4
 457 0058 05       		.byte	0x5
 458 0059 D4010000 		.4byte	.LASF5
 459 005d 04       		.uleb128 0x4
 460 005e 5C000000 		.4byte	.LASF7
 461 0062 02       		.byte	0x2
 462 0063 41       		.byte	0x41
 463 0064 68000000 		.4byte	0x68
 464 0068 03       		.uleb128 0x3
 465 0069 04       		.byte	0x4
 466 006a 07       		.byte	0x7
 467 006b 0C030000 		.4byte	.LASF8
 468 006f 03       		.uleb128 0x3
 469 0070 08       		.byte	0x8
 470 0071 05       		.byte	0x5
 471 0072 AB000000 		.4byte	.LASF9
 472 0076 03       		.uleb128 0x3
 473 0077 08       		.byte	0x8
 474 0078 07       		.byte	0x7
 475 0079 38020000 		.4byte	.LASF10
 476 007d 04       		.uleb128 0x4
 477 007e BB020000 		.4byte	.LASF11
 478 0082 03       		.byte	0x3
 479 0083 2C       		.byte	0x2c
 480 0084 4B000000 		.4byte	0x4b
 481 0088 04       		.uleb128 0x4
 482 0089 4F020000 		.4byte	.LASF12
 483 008d 03       		.byte	0x3
ARM GAS  /tmp/ccZ5heLd.s 			page 10


 484 008e 2D       		.byte	0x2d
 485 008f 5D000000 		.4byte	0x5d
 486 0093 03       		.uleb128 0x3
 487 0094 01       		.byte	0x1
 488 0095 02       		.byte	0x2
 489 0096 74020000 		.4byte	.LASF13
 490 009a 05       		.uleb128 0x5
 491 009b 88000000 		.4byte	0x88
 492 009f 03       		.uleb128 0x3
 493 00a0 04       		.byte	0x4
 494 00a1 07       		.byte	0x7
 495 00a2 49000000 		.4byte	.LASF14
 496 00a6 03       		.uleb128 0x3
 497 00a7 01       		.byte	0x1
 498 00a8 08       		.byte	0x8
 499 00a9 8D020000 		.4byte	.LASF15
 500 00ad 06       		.uleb128 0x6
 501 00ae 88000000 		.4byte	0x88
 502 00b2 BD000000 		.4byte	0xbd
 503 00b6 07       		.uleb128 0x7
 504 00b7 9F000000 		.4byte	0x9f
 505 00bb 03       		.byte	0x3
 506 00bc 00       		.byte	0
 507 00bd 05       		.uleb128 0x5
 508 00be 7D000000 		.4byte	0x7d
 509 00c2 08       		.uleb128 0x8
 510 00c3 04       		.byte	0x4
 511 00c4 9A000000 		.4byte	0x9a
 512 00c8 09       		.uleb128 0x9
 513 00c9 01       		.byte	0x1
 514 00ca 04       		.byte	0x4
 515 00cb 3C       		.byte	0x3c
 516 00cc F5000000 		.4byte	0xf5
 517 00d0 0A       		.uleb128 0xa
 518 00d1 EB020000 		.4byte	.LASF16
 519 00d5 00       		.sleb128 0
 520 00d6 0A       		.uleb128 0xa
 521 00d7 0D000000 		.4byte	.LASF17
 522 00db 01       		.sleb128 1
 523 00dc 0A       		.uleb128 0xa
 524 00dd 8C030000 		.4byte	.LASF18
 525 00e1 02       		.sleb128 2
 526 00e2 0A       		.uleb128 0xa
 527 00e3 BC030000 		.4byte	.LASF19
 528 00e7 03       		.sleb128 3
 529 00e8 0A       		.uleb128 0xa
 530 00e9 A0000000 		.4byte	.LASF20
 531 00ed 04       		.sleb128 4
 532 00ee 0A       		.uleb128 0xa
 533 00ef F3010000 		.4byte	.LASF21
 534 00f3 05       		.sleb128 5
 535 00f4 00       		.byte	0
 536 00f5 04       		.uleb128 0x4
 537 00f6 B1030000 		.4byte	.LASF22
 538 00fa 04       		.byte	0x4
 539 00fb 43       		.byte	0x43
 540 00fc C8000000 		.4byte	0xc8
ARM GAS  /tmp/ccZ5heLd.s 			page 11


 541 0100 04       		.uleb128 0x4
 542 0101 78030000 		.4byte	.LASF23
 543 0105 04       		.byte	0x4
 544 0106 48       		.byte	0x48
 545 0107 0B010000 		.4byte	0x10b
 546 010b 0B       		.uleb128 0xb
 547 010c 78030000 		.4byte	.LASF23
 548 0110 18       		.byte	0x18
 549 0111 05       		.byte	0x5
 550 0112 3101     		.2byte	0x131
 551 0114 67010000 		.4byte	0x167
 552 0118 0C       		.uleb128 0xc
 553 0119 28000000 		.4byte	.LASF24
 554 011d 05       		.byte	0x5
 555 011e 3501     		.2byte	0x135
 556 0120 F5000000 		.4byte	0xf5
 557 0124 00       		.byte	0
 558 0125 0C       		.uleb128 0xc
 559 0126 6C000000 		.4byte	.LASF25
 560 012a 05       		.byte	0x5
 561 012b 3901     		.2byte	0x139
 562 012d 6F030000 		.4byte	0x36f
 563 0131 04       		.byte	0x4
 564 0132 0C       		.uleb128 0xc
 565 0133 1E030000 		.4byte	.LASF26
 566 0137 05       		.byte	0x5
 567 0138 4101     		.2byte	0x141
 568 013a 88000000 		.4byte	0x88
 569 013e 08       		.byte	0x8
 570 013f 0D       		.uleb128 0xd
 571 0140 74696D00 		.ascii	"tim\000"
 572 0144 05       		.byte	0x5
 573 0145 4501     		.2byte	0x145
 574 0147 7A030000 		.4byte	0x37a
 575 014b 0C       		.byte	0xc
 576 014c 0C       		.uleb128 0xc
 577 014d CE010000 		.4byte	.LASF27
 578 0151 05       		.byte	0x5
 579 0152 4901     		.2byte	0x149
 580 0154 C2000000 		.4byte	0xc2
 581 0158 10       		.byte	0x10
 582 0159 0C       		.uleb128 0xc
 583 015a E7010000 		.4byte	.LASF28
 584 015e 05       		.byte	0x5
 585 015f 4D01     		.2byte	0x14d
 586 0161 C2000000 		.4byte	0xc2
 587 0165 14       		.byte	0x14
 588 0166 00       		.byte	0
 589 0167 04       		.uleb128 0x4
 590 0168 92020000 		.4byte	.LASF29
 591 016c 04       		.byte	0x4
 592 016d 4F       		.byte	0x4f
 593 016e 72010000 		.4byte	0x172
 594 0172 08       		.uleb128 0x8
 595 0173 04       		.byte	0x4
 596 0174 78010000 		.4byte	0x178
 597 0178 0E       		.uleb128 0xe
ARM GAS  /tmp/ccZ5heLd.s 			page 12


 598 0179 83010000 		.4byte	0x183
 599 017d 0F       		.uleb128 0xf
 600 017e 83010000 		.4byte	0x183
 601 0182 00       		.byte	0
 602 0183 08       		.uleb128 0x8
 603 0184 04       		.byte	0x4
 604 0185 00010000 		.4byte	0x100
 605 0189 10       		.uleb128 0x10
 606 018a 60       		.byte	0x60
 607 018b 06       		.byte	0x6
 608 018c 9E01     		.2byte	0x19e
 609 018e A2020000 		.4byte	0x2a2
 610 0192 0D       		.uleb128 0xd
 611 0193 43523100 		.ascii	"CR1\000"
 612 0197 06       		.byte	0x6
 613 0198 9F01     		.2byte	0x19f
 614 019a 9A000000 		.4byte	0x9a
 615 019e 00       		.byte	0
 616 019f 0D       		.uleb128 0xd
 617 01a0 43523200 		.ascii	"CR2\000"
 618 01a4 06       		.byte	0x6
 619 01a5 A001     		.2byte	0x1a0
 620 01a7 9A000000 		.4byte	0x9a
 621 01ab 04       		.byte	0x4
 622 01ac 0C       		.uleb128 0xc
 623 01ad FC010000 		.4byte	.LASF30
 624 01b1 06       		.byte	0x6
 625 01b2 A101     		.2byte	0x1a1
 626 01b4 9A000000 		.4byte	0x9a
 627 01b8 08       		.byte	0x8
 628 01b9 0C       		.uleb128 0xc
 629 01ba 65020000 		.4byte	.LASF31
 630 01be 06       		.byte	0x6
 631 01bf A201     		.2byte	0x1a2
 632 01c1 9A000000 		.4byte	0x9a
 633 01c5 0C       		.byte	0xc
 634 01c6 0D       		.uleb128 0xd
 635 01c7 535200   		.ascii	"SR\000"
 636 01ca 06       		.byte	0x6
 637 01cb A301     		.2byte	0x1a3
 638 01cd 9A000000 		.4byte	0x9a
 639 01d1 10       		.byte	0x10
 640 01d2 0D       		.uleb128 0xd
 641 01d3 45475200 		.ascii	"EGR\000"
 642 01d7 06       		.byte	0x6
 643 01d8 A401     		.2byte	0x1a4
 644 01da 9A000000 		.4byte	0x9a
 645 01de 14       		.byte	0x14
 646 01df 0C       		.uleb128 0xc
 647 01e0 ED010000 		.4byte	.LASF32
 648 01e4 06       		.byte	0x6
 649 01e5 A501     		.2byte	0x1a5
 650 01e7 9A000000 		.4byte	0x9a
 651 01eb 18       		.byte	0x18
 652 01ec 0C       		.uleb128 0xc
 653 01ed 2E000000 		.4byte	.LASF33
 654 01f1 06       		.byte	0x6
ARM GAS  /tmp/ccZ5heLd.s 			page 13


 655 01f2 A601     		.2byte	0x1a6
 656 01f4 9A000000 		.4byte	0x9a
 657 01f8 1C       		.byte	0x1c
 658 01f9 0C       		.uleb128 0xc
 659 01fa 08000000 		.4byte	.LASF34
 660 01fe 06       		.byte	0x6
 661 01ff A701     		.2byte	0x1a7
 662 0201 9A000000 		.4byte	0x9a
 663 0205 20       		.byte	0x20
 664 0206 0D       		.uleb128 0xd
 665 0207 434E5400 		.ascii	"CNT\000"
 666 020b 06       		.byte	0x6
 667 020c A801     		.2byte	0x1a8
 668 020e 9A000000 		.4byte	0x9a
 669 0212 24       		.byte	0x24
 670 0213 0D       		.uleb128 0xd
 671 0214 50534300 		.ascii	"PSC\000"
 672 0218 06       		.byte	0x6
 673 0219 A901     		.2byte	0x1a9
 674 021b 9A000000 		.4byte	0x9a
 675 021f 28       		.byte	0x28
 676 0220 0D       		.uleb128 0xd
 677 0221 41525200 		.ascii	"ARR\000"
 678 0225 06       		.byte	0x6
 679 0226 AA01     		.2byte	0x1aa
 680 0228 9A000000 		.4byte	0x9a
 681 022c 2C       		.byte	0x2c
 682 022d 0D       		.uleb128 0xd
 683 022e 52435200 		.ascii	"RCR\000"
 684 0232 06       		.byte	0x6
 685 0233 AB01     		.2byte	0x1ab
 686 0235 9A000000 		.4byte	0x9a
 687 0239 30       		.byte	0x30
 688 023a 0D       		.uleb128 0xd
 689 023b 43435200 		.ascii	"CCR\000"
 690 023f 06       		.byte	0x6
 691 0240 AC01     		.2byte	0x1ac
 692 0242 A2020000 		.4byte	0x2a2
 693 0246 34       		.byte	0x34
 694 0247 0C       		.uleb128 0xc
 695 0248 B6020000 		.4byte	.LASF35
 696 024c 06       		.byte	0x6
 697 024d AD01     		.2byte	0x1ad
 698 024f 9A000000 		.4byte	0x9a
 699 0253 44       		.byte	0x44
 700 0254 0D       		.uleb128 0xd
 701 0255 44435200 		.ascii	"DCR\000"
 702 0259 06       		.byte	0x6
 703 025a AE01     		.2byte	0x1ae
 704 025c 9A000000 		.4byte	0x9a
 705 0260 48       		.byte	0x48
 706 0261 0C       		.uleb128 0xc
 707 0262 23000000 		.4byte	.LASF36
 708 0266 06       		.byte	0x6
 709 0267 AF01     		.2byte	0x1af
 710 0269 9A000000 		.4byte	0x9a
 711 026d 4C       		.byte	0x4c
ARM GAS  /tmp/ccZ5heLd.s 			page 14


 712 026e 0D       		.uleb128 0xd
 713 026f 4F5200   		.ascii	"OR\000"
 714 0272 06       		.byte	0x6
 715 0273 B001     		.2byte	0x1b0
 716 0275 9A000000 		.4byte	0x9a
 717 0279 50       		.byte	0x50
 718 027a 0C       		.uleb128 0xc
 719 027b 34000000 		.4byte	.LASF37
 720 027f 06       		.byte	0x6
 721 0280 B101     		.2byte	0x1b1
 722 0282 9A000000 		.4byte	0x9a
 723 0286 54       		.byte	0x54
 724 0287 0C       		.uleb128 0xc
 725 0288 DD010000 		.4byte	.LASF38
 726 028c 06       		.byte	0x6
 727 028d B201     		.2byte	0x1b2
 728 028f 9A000000 		.4byte	0x9a
 729 0293 58       		.byte	0x58
 730 0294 0C       		.uleb128 0xc
 731 0295 E2010000 		.4byte	.LASF39
 732 0299 06       		.byte	0x6
 733 029a B301     		.2byte	0x1b3
 734 029c 9A000000 		.4byte	0x9a
 735 02a0 5C       		.byte	0x5c
 736 02a1 00       		.byte	0
 737 02a2 05       		.uleb128 0x5
 738 02a3 AD000000 		.4byte	0xad
 739 02a7 11       		.uleb128 0x11
 740 02a8 A0020000 		.4byte	.LASF40
 741 02ac 06       		.byte	0x6
 742 02ad B401     		.2byte	0x1b4
 743 02af 89010000 		.4byte	0x189
 744 02b3 09       		.uleb128 0x9
 745 02b4 01       		.byte	0x1
 746 02b5 05       		.byte	0x5
 747 02b6 EE       		.byte	0xee
 748 02b7 C8020000 		.4byte	0x2c8
 749 02bb 0A       		.uleb128 0xa
 750 02bc F6020000 		.4byte	.LASF41
 751 02c0 00       		.sleb128 0
 752 02c1 0A       		.uleb128 0xa
 753 02c2 C3020000 		.4byte	.LASF42
 754 02c6 01       		.sleb128 1
 755 02c7 00       		.byte	0
 756 02c8 04       		.uleb128 0x4
 757 02c9 52000000 		.4byte	.LASF43
 758 02cd 05       		.byte	0x5
 759 02ce F1       		.byte	0xf1
 760 02cf B3020000 		.4byte	0x2b3
 761 02d3 04       		.uleb128 0x4
 762 02d4 6A020000 		.4byte	.LASF44
 763 02d8 05       		.byte	0x5
 764 02d9 F6       		.byte	0xf6
 765 02da 88000000 		.4byte	0x88
 766 02de 09       		.uleb128 0x9
 767 02df 01       		.byte	0x1
 768 02e0 05       		.byte	0x5
ARM GAS  /tmp/ccZ5heLd.s 			page 15


 769 02e1 FB       		.byte	0xfb
 770 02e2 F3020000 		.4byte	0x2f3
 771 02e6 0A       		.uleb128 0xa
 772 02e7 73000000 		.4byte	.LASF45
 773 02eb 00       		.sleb128 0
 774 02ec 0A       		.uleb128 0xa
 775 02ed 81000000 		.4byte	.LASF46
 776 02f1 01       		.sleb128 1
 777 02f2 00       		.byte	0
 778 02f3 04       		.uleb128 0x4
 779 02f4 16000000 		.4byte	.LASF47
 780 02f8 05       		.byte	0x5
 781 02f9 FE       		.byte	0xfe
 782 02fa DE020000 		.4byte	0x2de
 783 02fe 10       		.uleb128 0x10
 784 02ff 1C       		.byte	0x1c
 785 0300 05       		.byte	0x5
 786 0301 0901     		.2byte	0x109
 787 0303 63030000 		.4byte	0x363
 788 0307 0C       		.uleb128 0xc
 789 0308 67000000 		.4byte	.LASF48
 790 030c 05       		.byte	0x5
 791 030d 0D01     		.2byte	0x10d
 792 030f C8020000 		.4byte	0x2c8
 793 0313 00       		.byte	0
 794 0314 0C       		.uleb128 0xc
 795 0315 82030000 		.4byte	.LASF49
 796 0319 05       		.byte	0x5
 797 031a 1301     		.2byte	0x113
 798 031c D3020000 		.4byte	0x2d3
 799 0320 04       		.byte	0x4
 800 0321 0C       		.uleb128 0xc
 801 0322 97000000 		.4byte	.LASF50
 802 0326 05       		.byte	0x5
 803 0327 1701     		.2byte	0x117
 804 0329 67010000 		.4byte	0x167
 805 032d 08       		.byte	0x8
 806 032e 0C       		.uleb128 0xc
 807 032f AC020000 		.4byte	.LASF51
 808 0333 05       		.byte	0x5
 809 0334 1B01     		.2byte	0x11b
 810 0336 67010000 		.4byte	0x167
 811 033a 0C       		.byte	0xc
 812 033b 0C       		.uleb128 0xc
 813 033c 5D030000 		.4byte	.LASF52
 814 0340 05       		.byte	0x5
 815 0341 1F01     		.2byte	0x11f
 816 0343 67010000 		.4byte	0x167
 817 0347 10       		.byte	0x10
 818 0348 0C       		.uleb128 0xc
 819 0349 D8020000 		.4byte	.LASF53
 820 034d 05       		.byte	0x5
 821 034e 2501     		.2byte	0x125
 822 0350 F3020000 		.4byte	0x2f3
 823 0354 14       		.byte	0x14
 824 0355 0C       		.uleb128 0xc
 825 0356 73030000 		.4byte	.LASF54
ARM GAS  /tmp/ccZ5heLd.s 			page 16


 826 035a 05       		.byte	0x5
 827 035b 2B01     		.2byte	0x12b
 828 035d 88000000 		.4byte	0x88
 829 0361 18       		.byte	0x18
 830 0362 00       		.byte	0
 831 0363 11       		.uleb128 0x11
 832 0364 0F020000 		.4byte	.LASF55
 833 0368 05       		.byte	0x5
 834 0369 2C01     		.2byte	0x12c
 835 036b FE020000 		.4byte	0x2fe
 836 036f 08       		.uleb128 0x8
 837 0370 04       		.byte	0x4
 838 0371 75030000 		.4byte	0x375
 839 0375 12       		.uleb128 0x12
 840 0376 63030000 		.4byte	0x363
 841 037a 08       		.uleb128 0x8
 842 037b 04       		.byte	0x4
 843 037c A7020000 		.4byte	0x2a7
 844 0380 13       		.uleb128 0x13
 845 0381 8F000000 		.4byte	.LASF64
 846 0385 01       		.byte	0x1
 847 0386 44       		.byte	0x44
 848 0387 00000000 		.4byte	.LFB111
 849 038b 08000000 		.4byte	.LFE111-.LFB111
 850 038f 01       		.uleb128 0x1
 851 0390 9C       		.byte	0x9c
 852 0391 14       		.uleb128 0x14
 853 0392 96030000 		.4byte	.LASF56
 854 0396 01       		.byte	0x1
 855 0397 50       		.byte	0x50
 856 0398 00000000 		.4byte	.LFB112
 857 039c 14000000 		.4byte	.LFE112-.LFB112
 858 03a0 01       		.uleb128 0x1
 859 03a1 9C       		.byte	0x9c
 860 03a2 B5030000 		.4byte	0x3b5
 861 03a6 15       		.uleb128 0x15
 862 03a7 44000000 		.4byte	.LASF58
 863 03ab 01       		.byte	0x1
 864 03ac 50       		.byte	0x50
 865 03ad 83010000 		.4byte	0x183
 866 03b1 02       		.uleb128 0x2
 867 03b2 91       		.byte	0x91
 868 03b3 7C       		.sleb128 -4
 869 03b4 00       		.byte	0
 870 03b5 16       		.uleb128 0x16
 871 03b6 19020000 		.4byte	.LASF57
 872 03ba 01       		.byte	0x1
 873 03bb 5E       		.byte	0x5e
 874 03bc 00000000 		.4byte	.LFB113
 875 03c0 58000000 		.4byte	.LFE113-.LFB113
 876 03c4 01       		.uleb128 0x1
 877 03c5 9C       		.byte	0x9c
 878 03c6 E7030000 		.4byte	0x3e7
 879 03ca 15       		.uleb128 0x15
 880 03cb 44000000 		.4byte	.LASF58
 881 03cf 01       		.byte	0x1
 882 03d0 5E       		.byte	0x5e
ARM GAS  /tmp/ccZ5heLd.s 			page 17


 883 03d1 83010000 		.4byte	0x183
 884 03d5 02       		.uleb128 0x2
 885 03d6 91       		.byte	0x91
 886 03d7 74       		.sleb128 -12
 887 03d8 15       		.uleb128 0x15
 888 03d9 6C000000 		.4byte	.LASF25
 889 03dd 01       		.byte	0x1
 890 03de 5E       		.byte	0x5e
 891 03df 6F030000 		.4byte	0x36f
 892 03e3 02       		.uleb128 0x2
 893 03e4 91       		.byte	0x91
 894 03e5 70       		.sleb128 -16
 895 03e6 00       		.byte	0
 896 03e7 16       		.uleb128 0x16
 897 03e8 00000000 		.4byte	.LASF59
 898 03ec 01       		.byte	0x1
 899 03ed 72       		.byte	0x72
 900 03ee 00000000 		.4byte	.LFB114
 901 03f2 4C000000 		.4byte	.LFE114-.LFB114
 902 03f6 01       		.uleb128 0x1
 903 03f7 9C       		.byte	0x9c
 904 03f8 0B040000 		.4byte	0x40b
 905 03fc 15       		.uleb128 0x15
 906 03fd 44000000 		.4byte	.LASF58
 907 0401 01       		.byte	0x1
 908 0402 72       		.byte	0x72
 909 0403 83010000 		.4byte	0x183
 910 0407 02       		.uleb128 0x2
 911 0408 91       		.byte	0x91
 912 0409 74       		.sleb128 -12
 913 040a 00       		.byte	0
 914 040b 16       		.uleb128 0x16
 915 040c 22020000 		.4byte	.LASF60
 916 0410 01       		.byte	0x1
 917 0411 85       		.byte	0x85
 918 0412 00000000 		.4byte	.LFB115
 919 0416 44000000 		.4byte	.LFE115-.LFB115
 920 041a 01       		.uleb128 0x1
 921 041b 9C       		.byte	0x9c
 922 041c 2F040000 		.4byte	0x42f
 923 0420 15       		.uleb128 0x15
 924 0421 44000000 		.4byte	.LASF58
 925 0425 01       		.byte	0x1
 926 0426 85       		.byte	0x85
 927 0427 83010000 		.4byte	0x183
 928 042b 02       		.uleb128 0x2
 929 042c 91       		.byte	0x91
 930 042d 74       		.sleb128 -12
 931 042e 00       		.byte	0
 932 042f 16       		.uleb128 0x16
 933 0430 E0020000 		.4byte	.LASF61
 934 0434 01       		.byte	0x1
 935 0435 97       		.byte	0x97
 936 0436 00000000 		.4byte	.LFB116
 937 043a 5C000000 		.4byte	.LFE116-.LFB116
 938 043e 01       		.uleb128 0x1
 939 043f 9C       		.byte	0x9c
ARM GAS  /tmp/ccZ5heLd.s 			page 18


 940 0440 53040000 		.4byte	0x453
 941 0444 15       		.uleb128 0x15
 942 0445 44000000 		.4byte	.LASF58
 943 0449 01       		.byte	0x1
 944 044a 97       		.byte	0x97
 945 044b 83010000 		.4byte	0x183
 946 044f 02       		.uleb128 0x2
 947 0450 91       		.byte	0x91
 948 0451 74       		.sleb128 -12
 949 0452 00       		.byte	0
 950 0453 17       		.uleb128 0x17
 951 0454 A4030000 		.4byte	.LASF65
 952 0458 07       		.byte	0x7
 953 0459 9806     		.2byte	0x698
 954 045b BD000000 		.4byte	0xbd
 955 045f 00       		.byte	0
 956              		.section	.debug_abbrev,"",%progbits
 957              	.Ldebug_abbrev0:
 958 0000 01       		.uleb128 0x1
 959 0001 11       		.uleb128 0x11
 960 0002 01       		.byte	0x1
 961 0003 25       		.uleb128 0x25
 962 0004 0E       		.uleb128 0xe
 963 0005 13       		.uleb128 0x13
 964 0006 0B       		.uleb128 0xb
 965 0007 03       		.uleb128 0x3
 966 0008 0E       		.uleb128 0xe
 967 0009 55       		.uleb128 0x55
 968 000a 17       		.uleb128 0x17
 969 000b 11       		.uleb128 0x11
 970 000c 01       		.uleb128 0x1
 971 000d 10       		.uleb128 0x10
 972 000e 17       		.uleb128 0x17
 973 000f 00       		.byte	0
 974 0010 00       		.byte	0
 975 0011 02       		.uleb128 0x2
 976 0012 24       		.uleb128 0x24
 977 0013 00       		.byte	0
 978 0014 0B       		.uleb128 0xb
 979 0015 0B       		.uleb128 0xb
 980 0016 3E       		.uleb128 0x3e
 981 0017 0B       		.uleb128 0xb
 982 0018 03       		.uleb128 0x3
 983 0019 08       		.uleb128 0x8
 984 001a 00       		.byte	0
 985 001b 00       		.byte	0
 986 001c 03       		.uleb128 0x3
 987 001d 24       		.uleb128 0x24
 988 001e 00       		.byte	0
 989 001f 0B       		.uleb128 0xb
 990 0020 0B       		.uleb128 0xb
 991 0021 3E       		.uleb128 0x3e
 992 0022 0B       		.uleb128 0xb
 993 0023 03       		.uleb128 0x3
 994 0024 0E       		.uleb128 0xe
 995 0025 00       		.byte	0
 996 0026 00       		.byte	0
ARM GAS  /tmp/ccZ5heLd.s 			page 19


 997 0027 04       		.uleb128 0x4
 998 0028 16       		.uleb128 0x16
 999 0029 00       		.byte	0
 1000 002a 03       		.uleb128 0x3
 1001 002b 0E       		.uleb128 0xe
 1002 002c 3A       		.uleb128 0x3a
 1003 002d 0B       		.uleb128 0xb
 1004 002e 3B       		.uleb128 0x3b
 1005 002f 0B       		.uleb128 0xb
 1006 0030 49       		.uleb128 0x49
 1007 0031 13       		.uleb128 0x13
 1008 0032 00       		.byte	0
 1009 0033 00       		.byte	0
 1010 0034 05       		.uleb128 0x5
 1011 0035 35       		.uleb128 0x35
 1012 0036 00       		.byte	0
 1013 0037 49       		.uleb128 0x49
 1014 0038 13       		.uleb128 0x13
 1015 0039 00       		.byte	0
 1016 003a 00       		.byte	0
 1017 003b 06       		.uleb128 0x6
 1018 003c 01       		.uleb128 0x1
 1019 003d 01       		.byte	0x1
 1020 003e 49       		.uleb128 0x49
 1021 003f 13       		.uleb128 0x13
 1022 0040 01       		.uleb128 0x1
 1023 0041 13       		.uleb128 0x13
 1024 0042 00       		.byte	0
 1025 0043 00       		.byte	0
 1026 0044 07       		.uleb128 0x7
 1027 0045 21       		.uleb128 0x21
 1028 0046 00       		.byte	0
 1029 0047 49       		.uleb128 0x49
 1030 0048 13       		.uleb128 0x13
 1031 0049 2F       		.uleb128 0x2f
 1032 004a 0B       		.uleb128 0xb
 1033 004b 00       		.byte	0
 1034 004c 00       		.byte	0
 1035 004d 08       		.uleb128 0x8
 1036 004e 0F       		.uleb128 0xf
 1037 004f 00       		.byte	0
 1038 0050 0B       		.uleb128 0xb
 1039 0051 0B       		.uleb128 0xb
 1040 0052 49       		.uleb128 0x49
 1041 0053 13       		.uleb128 0x13
 1042 0054 00       		.byte	0
 1043 0055 00       		.byte	0
 1044 0056 09       		.uleb128 0x9
 1045 0057 04       		.uleb128 0x4
 1046 0058 01       		.byte	0x1
 1047 0059 0B       		.uleb128 0xb
 1048 005a 0B       		.uleb128 0xb
 1049 005b 3A       		.uleb128 0x3a
 1050 005c 0B       		.uleb128 0xb
 1051 005d 3B       		.uleb128 0x3b
 1052 005e 0B       		.uleb128 0xb
 1053 005f 01       		.uleb128 0x1
ARM GAS  /tmp/ccZ5heLd.s 			page 20


 1054 0060 13       		.uleb128 0x13
 1055 0061 00       		.byte	0
 1056 0062 00       		.byte	0
 1057 0063 0A       		.uleb128 0xa
 1058 0064 28       		.uleb128 0x28
 1059 0065 00       		.byte	0
 1060 0066 03       		.uleb128 0x3
 1061 0067 0E       		.uleb128 0xe
 1062 0068 1C       		.uleb128 0x1c
 1063 0069 0D       		.uleb128 0xd
 1064 006a 00       		.byte	0
 1065 006b 00       		.byte	0
 1066 006c 0B       		.uleb128 0xb
 1067 006d 13       		.uleb128 0x13
 1068 006e 01       		.byte	0x1
 1069 006f 03       		.uleb128 0x3
 1070 0070 0E       		.uleb128 0xe
 1071 0071 0B       		.uleb128 0xb
 1072 0072 0B       		.uleb128 0xb
 1073 0073 3A       		.uleb128 0x3a
 1074 0074 0B       		.uleb128 0xb
 1075 0075 3B       		.uleb128 0x3b
 1076 0076 05       		.uleb128 0x5
 1077 0077 01       		.uleb128 0x1
 1078 0078 13       		.uleb128 0x13
 1079 0079 00       		.byte	0
 1080 007a 00       		.byte	0
 1081 007b 0C       		.uleb128 0xc
 1082 007c 0D       		.uleb128 0xd
 1083 007d 00       		.byte	0
 1084 007e 03       		.uleb128 0x3
 1085 007f 0E       		.uleb128 0xe
 1086 0080 3A       		.uleb128 0x3a
 1087 0081 0B       		.uleb128 0xb
 1088 0082 3B       		.uleb128 0x3b
 1089 0083 05       		.uleb128 0x5
 1090 0084 49       		.uleb128 0x49
 1091 0085 13       		.uleb128 0x13
 1092 0086 38       		.uleb128 0x38
 1093 0087 0B       		.uleb128 0xb
 1094 0088 00       		.byte	0
 1095 0089 00       		.byte	0
 1096 008a 0D       		.uleb128 0xd
 1097 008b 0D       		.uleb128 0xd
 1098 008c 00       		.byte	0
 1099 008d 03       		.uleb128 0x3
 1100 008e 08       		.uleb128 0x8
 1101 008f 3A       		.uleb128 0x3a
 1102 0090 0B       		.uleb128 0xb
 1103 0091 3B       		.uleb128 0x3b
 1104 0092 05       		.uleb128 0x5
 1105 0093 49       		.uleb128 0x49
 1106 0094 13       		.uleb128 0x13
 1107 0095 38       		.uleb128 0x38
 1108 0096 0B       		.uleb128 0xb
 1109 0097 00       		.byte	0
 1110 0098 00       		.byte	0
ARM GAS  /tmp/ccZ5heLd.s 			page 21


 1111 0099 0E       		.uleb128 0xe
 1112 009a 15       		.uleb128 0x15
 1113 009b 01       		.byte	0x1
 1114 009c 27       		.uleb128 0x27
 1115 009d 19       		.uleb128 0x19
 1116 009e 01       		.uleb128 0x1
 1117 009f 13       		.uleb128 0x13
 1118 00a0 00       		.byte	0
 1119 00a1 00       		.byte	0
 1120 00a2 0F       		.uleb128 0xf
 1121 00a3 05       		.uleb128 0x5
 1122 00a4 00       		.byte	0
 1123 00a5 49       		.uleb128 0x49
 1124 00a6 13       		.uleb128 0x13
 1125 00a7 00       		.byte	0
 1126 00a8 00       		.byte	0
 1127 00a9 10       		.uleb128 0x10
 1128 00aa 13       		.uleb128 0x13
 1129 00ab 01       		.byte	0x1
 1130 00ac 0B       		.uleb128 0xb
 1131 00ad 0B       		.uleb128 0xb
 1132 00ae 3A       		.uleb128 0x3a
 1133 00af 0B       		.uleb128 0xb
 1134 00b0 3B       		.uleb128 0x3b
 1135 00b1 05       		.uleb128 0x5
 1136 00b2 01       		.uleb128 0x1
 1137 00b3 13       		.uleb128 0x13
 1138 00b4 00       		.byte	0
 1139 00b5 00       		.byte	0
 1140 00b6 11       		.uleb128 0x11
 1141 00b7 16       		.uleb128 0x16
 1142 00b8 00       		.byte	0
 1143 00b9 03       		.uleb128 0x3
 1144 00ba 0E       		.uleb128 0xe
 1145 00bb 3A       		.uleb128 0x3a
 1146 00bc 0B       		.uleb128 0xb
 1147 00bd 3B       		.uleb128 0x3b
 1148 00be 05       		.uleb128 0x5
 1149 00bf 49       		.uleb128 0x49
 1150 00c0 13       		.uleb128 0x13
 1151 00c1 00       		.byte	0
 1152 00c2 00       		.byte	0
 1153 00c3 12       		.uleb128 0x12
 1154 00c4 26       		.uleb128 0x26
 1155 00c5 00       		.byte	0
 1156 00c6 49       		.uleb128 0x49
 1157 00c7 13       		.uleb128 0x13
 1158 00c8 00       		.byte	0
 1159 00c9 00       		.byte	0
 1160 00ca 13       		.uleb128 0x13
 1161 00cb 2E       		.uleb128 0x2e
 1162 00cc 00       		.byte	0
 1163 00cd 3F       		.uleb128 0x3f
 1164 00ce 19       		.uleb128 0x19
 1165 00cf 03       		.uleb128 0x3
 1166 00d0 0E       		.uleb128 0xe
 1167 00d1 3A       		.uleb128 0x3a
ARM GAS  /tmp/ccZ5heLd.s 			page 22


 1168 00d2 0B       		.uleb128 0xb
 1169 00d3 3B       		.uleb128 0x3b
 1170 00d4 0B       		.uleb128 0xb
 1171 00d5 27       		.uleb128 0x27
 1172 00d6 19       		.uleb128 0x19
 1173 00d7 11       		.uleb128 0x11
 1174 00d8 01       		.uleb128 0x1
 1175 00d9 12       		.uleb128 0x12
 1176 00da 06       		.uleb128 0x6
 1177 00db 40       		.uleb128 0x40
 1178 00dc 18       		.uleb128 0x18
 1179 00dd 9642     		.uleb128 0x2116
 1180 00df 19       		.uleb128 0x19
 1181 00e0 00       		.byte	0
 1182 00e1 00       		.byte	0
 1183 00e2 14       		.uleb128 0x14
 1184 00e3 2E       		.uleb128 0x2e
 1185 00e4 01       		.byte	0x1
 1186 00e5 3F       		.uleb128 0x3f
 1187 00e6 19       		.uleb128 0x19
 1188 00e7 03       		.uleb128 0x3
 1189 00e8 0E       		.uleb128 0xe
 1190 00e9 3A       		.uleb128 0x3a
 1191 00ea 0B       		.uleb128 0xb
 1192 00eb 3B       		.uleb128 0x3b
 1193 00ec 0B       		.uleb128 0xb
 1194 00ed 27       		.uleb128 0x27
 1195 00ee 19       		.uleb128 0x19
 1196 00ef 11       		.uleb128 0x11
 1197 00f0 01       		.uleb128 0x1
 1198 00f1 12       		.uleb128 0x12
 1199 00f2 06       		.uleb128 0x6
 1200 00f3 40       		.uleb128 0x40
 1201 00f4 18       		.uleb128 0x18
 1202 00f5 9742     		.uleb128 0x2117
 1203 00f7 19       		.uleb128 0x19
 1204 00f8 01       		.uleb128 0x1
 1205 00f9 13       		.uleb128 0x13
 1206 00fa 00       		.byte	0
 1207 00fb 00       		.byte	0
 1208 00fc 15       		.uleb128 0x15
 1209 00fd 05       		.uleb128 0x5
 1210 00fe 00       		.byte	0
 1211 00ff 03       		.uleb128 0x3
 1212 0100 0E       		.uleb128 0xe
 1213 0101 3A       		.uleb128 0x3a
 1214 0102 0B       		.uleb128 0xb
 1215 0103 3B       		.uleb128 0x3b
 1216 0104 0B       		.uleb128 0xb
 1217 0105 49       		.uleb128 0x49
 1218 0106 13       		.uleb128 0x13
 1219 0107 02       		.uleb128 0x2
 1220 0108 18       		.uleb128 0x18
 1221 0109 00       		.byte	0
 1222 010a 00       		.byte	0
 1223 010b 16       		.uleb128 0x16
 1224 010c 2E       		.uleb128 0x2e
ARM GAS  /tmp/ccZ5heLd.s 			page 23


 1225 010d 01       		.byte	0x1
 1226 010e 3F       		.uleb128 0x3f
 1227 010f 19       		.uleb128 0x19
 1228 0110 03       		.uleb128 0x3
 1229 0111 0E       		.uleb128 0xe
 1230 0112 3A       		.uleb128 0x3a
 1231 0113 0B       		.uleb128 0xb
 1232 0114 3B       		.uleb128 0x3b
 1233 0115 0B       		.uleb128 0xb
 1234 0116 27       		.uleb128 0x27
 1235 0117 19       		.uleb128 0x19
 1236 0118 11       		.uleb128 0x11
 1237 0119 01       		.uleb128 0x1
 1238 011a 12       		.uleb128 0x12
 1239 011b 06       		.uleb128 0x6
 1240 011c 40       		.uleb128 0x40
 1241 011d 18       		.uleb128 0x18
 1242 011e 9642     		.uleb128 0x2116
 1243 0120 19       		.uleb128 0x19
 1244 0121 01       		.uleb128 0x1
 1245 0122 13       		.uleb128 0x13
 1246 0123 00       		.byte	0
 1247 0124 00       		.byte	0
 1248 0125 17       		.uleb128 0x17
 1249 0126 34       		.uleb128 0x34
 1250 0127 00       		.byte	0
 1251 0128 03       		.uleb128 0x3
 1252 0129 0E       		.uleb128 0xe
 1253 012a 3A       		.uleb128 0x3a
 1254 012b 0B       		.uleb128 0xb
 1255 012c 3B       		.uleb128 0x3b
 1256 012d 05       		.uleb128 0x5
 1257 012e 49       		.uleb128 0x49
 1258 012f 13       		.uleb128 0x13
 1259 0130 3F       		.uleb128 0x3f
 1260 0131 19       		.uleb128 0x19
 1261 0132 3C       		.uleb128 0x3c
 1262 0133 19       		.uleb128 0x19
 1263 0134 00       		.byte	0
 1264 0135 00       		.byte	0
 1265 0136 00       		.byte	0
 1266              		.section	.debug_aranges,"",%progbits
 1267 0000 44000000 		.4byte	0x44
 1268 0004 0200     		.2byte	0x2
 1269 0006 00000000 		.4byte	.Ldebug_info0
 1270 000a 04       		.byte	0x4
 1271 000b 00       		.byte	0
 1272 000c 0000     		.2byte	0
 1273 000e 0000     		.2byte	0
 1274 0010 00000000 		.4byte	.LFB111
 1275 0014 08000000 		.4byte	.LFE111-.LFB111
 1276 0018 00000000 		.4byte	.LFB112
 1277 001c 14000000 		.4byte	.LFE112-.LFB112
 1278 0020 00000000 		.4byte	.LFB113
 1279 0024 58000000 		.4byte	.LFE113-.LFB113
 1280 0028 00000000 		.4byte	.LFB114
 1281 002c 4C000000 		.4byte	.LFE114-.LFB114
ARM GAS  /tmp/ccZ5heLd.s 			page 24


 1282 0030 00000000 		.4byte	.LFB115
 1283 0034 44000000 		.4byte	.LFE115-.LFB115
 1284 0038 00000000 		.4byte	.LFB116
 1285 003c 5C000000 		.4byte	.LFE116-.LFB116
 1286 0040 00000000 		.4byte	0
 1287 0044 00000000 		.4byte	0
 1288              		.section	.debug_ranges,"",%progbits
 1289              	.Ldebug_ranges0:
 1290 0000 00000000 		.4byte	.LFB111
 1291 0004 08000000 		.4byte	.LFE111
 1292 0008 00000000 		.4byte	.LFB112
 1293 000c 14000000 		.4byte	.LFE112
 1294 0010 00000000 		.4byte	.LFB113
 1295 0014 58000000 		.4byte	.LFE113
 1296 0018 00000000 		.4byte	.LFB114
 1297 001c 4C000000 		.4byte	.LFE114
 1298 0020 00000000 		.4byte	.LFB115
 1299 0024 44000000 		.4byte	.LFE115
 1300 0028 00000000 		.4byte	.LFB116
 1301 002c 5C000000 		.4byte	.LFE116
 1302 0030 00000000 		.4byte	0
 1303 0034 00000000 		.4byte	0
 1304              		.section	.debug_line,"",%progbits
 1305              	.Ldebug_line0:
 1306 0000 AB020000 		.section	.debug_str,"MS",%progbits,1
 1306      0200CD01 
 1306      00000201 
 1306      FB0E0D00 
 1306      01010101 
 1307              	.LASF59:
 1308 0000 69637553 		.ascii	"icuStop\000"
 1308      746F7000 
 1309              	.LASF34:
 1310 0008 43434552 		.ascii	"CCER\000"
 1310      00
 1311              	.LASF17:
 1312 000d 4943555F 		.ascii	"ICU_STOP\000"
 1312      53544F50 
 1312      00
 1313              	.LASF47:
 1314 0016 69637563 		.ascii	"icuchannel_t\000"
 1314      68616E6E 
 1314      656C5F74 
 1314      00
 1315              	.LASF36:
 1316 0023 444D4152 		.ascii	"DMAR\000"
 1316      00
 1317              	.LASF24:
 1318 0028 73746174 		.ascii	"state\000"
 1318      6500
 1319              	.LASF33:
 1320 002e 43434D52 		.ascii	"CCMR2\000"
 1320      3200
 1321              	.LASF37:
 1322 0034 43434D52 		.ascii	"CCMR3\000"
 1322      3300
 1323              	.LASF3:
ARM GAS  /tmp/ccZ5heLd.s 			page 25


 1324 003a 73686F72 		.ascii	"short int\000"
 1324      7420696E 
 1324      7400
 1325              	.LASF58:
 1326 0044 69637570 		.ascii	"icup\000"
 1326      00
 1327              	.LASF14:
 1328 0049 73697A65 		.ascii	"sizetype\000"
 1328      74797065 
 1328      00
 1329              	.LASF43:
 1330 0052 6963756D 		.ascii	"icumode_t\000"
 1330      6F64655F 
 1330      7400
 1331              	.LASF7:
 1332 005c 5F5F7569 		.ascii	"__uint32_t\000"
 1332      6E743332 
 1332      5F7400
 1333              	.LASF48:
 1334 0067 6D6F6465 		.ascii	"mode\000"
 1334      00
 1335              	.LASF25:
 1336 006c 636F6E66 		.ascii	"config\000"
 1336      696700
 1337              	.LASF45:
 1338 0073 4943555F 		.ascii	"ICU_CHANNEL_1\000"
 1338      4348414E 
 1338      4E454C5F 
 1338      3100
 1339              	.LASF46:
 1340 0081 4943555F 		.ascii	"ICU_CHANNEL_2\000"
 1340      4348414E 
 1340      4E454C5F 
 1340      3200
 1341              	.LASF64:
 1342 008f 69637549 		.ascii	"icuInit\000"
 1342      6E697400 
 1343              	.LASF50:
 1344 0097 77696474 		.ascii	"width_cb\000"
 1344      685F6362 
 1344      00
 1345              	.LASF20:
 1346 00a0 4943555F 		.ascii	"ICU_ACTIVE\000"
 1346      41435449 
 1346      564500
 1347              	.LASF9:
 1348 00ab 6C6F6E67 		.ascii	"long long int\000"
 1348      206C6F6E 
 1348      6720696E 
 1348      7400
 1349              	.LASF62:
 1350 00b9 474E5520 		.ascii	"GNU C 4.9.3 20150303 (release) [ARM/embedded-4_9-br"
 1350      4320342E 
 1350      392E3320 
 1350      32303135 
 1350      30333033 
 1351 00ec 616E6368 		.ascii	"anch revision 221220] -mcpu=cortex-m4 -mfloat-abi=h"
ARM GAS  /tmp/ccZ5heLd.s 			page 26


 1351      20726576 
 1351      6973696F 
 1351      6E203232 
 1351      31323230 
 1352 011f 61726420 		.ascii	"ard -mfpu=fpv4-sp-d16 -mno-thumb-interwork -mthumb "
 1352      2D6D6670 
 1352      753D6670 
 1352      76342D73 
 1352      702D6431 
 1353 0152 2D676764 		.ascii	"-ggdb -fomit-frame-pointer -falign-functions=16 -ff"
 1353      62202D66 
 1353      6F6D6974 
 1353      2D667261 
 1353      6D652D70 
 1354 0185 756E6374 		.ascii	"unction-sections -fdata-sections -fno-common -fsing"
 1354      696F6E2D 
 1354      73656374 
 1354      696F6E73 
 1354      202D6664 
 1355 01b8 6C652D70 		.ascii	"le-precision-constant\000"
 1355      72656369 
 1355      73696F6E 
 1355      2D636F6E 
 1355      7374616E 
 1356              	.LASF27:
 1357 01ce 77636372 		.ascii	"wccrp\000"
 1357      7000
 1358              	.LASF5:
 1359 01d4 6C6F6E67 		.ascii	"long int\000"
 1359      20696E74 
 1359      00
 1360              	.LASF38:
 1361 01dd 43435235 		.ascii	"CCR5\000"
 1361      00
 1362              	.LASF39:
 1363 01e2 43435236 		.ascii	"CCR6\000"
 1363      00
 1364              	.LASF28:
 1365 01e7 70636372 		.ascii	"pccrp\000"
 1365      7000
 1366              	.LASF32:
 1367 01ed 43434D52 		.ascii	"CCMR1\000"
 1367      3100
 1368              	.LASF21:
 1369 01f3 4943555F 		.ascii	"ICU_IDLE\000"
 1369      49444C45 
 1369      00
 1370              	.LASF30:
 1371 01fc 534D4352 		.ascii	"SMCR\000"
 1371      00
 1372              	.LASF2:
 1373 0201 756E7369 		.ascii	"unsigned char\000"
 1373      676E6564 
 1373      20636861 
 1373      7200
 1374              	.LASF55:
 1375 020f 49435543 		.ascii	"ICUConfig\000"
ARM GAS  /tmp/ccZ5heLd.s 			page 27


 1375      6F6E6669 
 1375      6700
 1376              	.LASF57:
 1377 0219 69637553 		.ascii	"icuStart\000"
 1377      74617274 
 1377      00
 1378              	.LASF60:
 1379 0222 69637545 		.ascii	"icuEnable\000"
 1379      6E61626C 
 1379      6500
 1380              	.LASF1:
 1381 022c 7369676E 		.ascii	"signed char\000"
 1381      65642063 
 1381      68617200 
 1382              	.LASF10:
 1383 0238 6C6F6E67 		.ascii	"long long unsigned int\000"
 1383      206C6F6E 
 1383      6720756E 
 1383      7369676E 
 1383      65642069 
 1384              	.LASF12:
 1385 024f 75696E74 		.ascii	"uint32_t\000"
 1385      33325F74 
 1385      00
 1386              	.LASF0:
 1387 0258 756E7369 		.ascii	"unsigned int\000"
 1387      676E6564 
 1387      20696E74 
 1387      00
 1388              	.LASF31:
 1389 0265 44494552 		.ascii	"DIER\000"
 1389      00
 1390              	.LASF44:
 1391 026a 69637566 		.ascii	"icufreq_t\000"
 1391      7265715F 
 1391      7400
 1392              	.LASF13:
 1393 0274 5F426F6F 		.ascii	"_Bool\000"
 1393      6C00
 1394              	.LASF4:
 1395 027a 73686F72 		.ascii	"short unsigned int\000"
 1395      7420756E 
 1395      7369676E 
 1395      65642069 
 1395      6E7400
 1396              	.LASF15:
 1397 028d 63686172 		.ascii	"char\000"
 1397      00
 1398              	.LASF29:
 1399 0292 69637563 		.ascii	"icucallback_t\000"
 1399      616C6C62 
 1399      61636B5F 
 1399      7400
 1400              	.LASF40:
 1401 02a0 73746D33 		.ascii	"stm32_tim_t\000"
 1401      325F7469 
 1401      6D5F7400 
ARM GAS  /tmp/ccZ5heLd.s 			page 28


 1402              	.LASF51:
 1403 02ac 70657269 		.ascii	"period_cb\000"
 1403      6F645F63 
 1403      6200
 1404              	.LASF35:
 1405 02b6 42445452 		.ascii	"BDTR\000"
 1405      00
 1406              	.LASF11:
 1407 02bb 696E7433 		.ascii	"int32_t\000"
 1407      325F7400 
 1408              	.LASF42:
 1409 02c3 4943555F 		.ascii	"ICU_INPUT_ACTIVE_LOW\000"
 1409      494E5055 
 1409      545F4143 
 1409      54495645 
 1409      5F4C4F57 
 1410              	.LASF53:
 1411 02d8 6368616E 		.ascii	"channel\000"
 1411      6E656C00 
 1412              	.LASF61:
 1413 02e0 69637544 		.ascii	"icuDisable\000"
 1413      69736162 
 1413      6C6500
 1414              	.LASF16:
 1415 02eb 4943555F 		.ascii	"ICU_UNINIT\000"
 1415      554E494E 
 1415      495400
 1416              	.LASF41:
 1417 02f6 4943555F 		.ascii	"ICU_INPUT_ACTIVE_HIGH\000"
 1417      494E5055 
 1417      545F4143 
 1417      54495645 
 1417      5F484947 
 1418              	.LASF8:
 1419 030c 6C6F6E67 		.ascii	"long unsigned int\000"
 1419      20756E73 
 1419      69676E65 
 1419      6420696E 
 1419      7400
 1420              	.LASF26:
 1421 031e 636C6F63 		.ascii	"clock\000"
 1421      6B00
 1422              	.LASF63:
 1423 0324 2F686F6D 		.ascii	"/home/makkmarci/workspace/ChibiOS_2.6.8/os/hal/src/"
 1423      652F6D61 
 1423      6B6B6D61 
 1423      7263692F 
 1423      776F726B 
 1424 0357 6963752E 		.ascii	"icu.c\000"
 1424      6300
 1425              	.LASF52:
 1426 035d 6F766572 		.ascii	"overflow_cb\000"
 1426      666C6F77 
 1426      5F636200 
 1427              	.LASF6:
 1428 0369 5F5F696E 		.ascii	"__int32_t\000"
 1428      7433325F 
ARM GAS  /tmp/ccZ5heLd.s 			page 29


 1428      7400
 1429              	.LASF54:
 1430 0373 64696572 		.ascii	"dier\000"
 1430      00
 1431              	.LASF23:
 1432 0378 49435544 		.ascii	"ICUDriver\000"
 1432      72697665 
 1432      7200
 1433              	.LASF49:
 1434 0382 66726571 		.ascii	"frequency\000"
 1434      75656E63 
 1434      7900
 1435              	.LASF18:
 1436 038c 4943555F 		.ascii	"ICU_READY\000"
 1436      52454144 
 1436      5900
 1437              	.LASF56:
 1438 0396 6963754F 		.ascii	"icuObjectInit\000"
 1438      626A6563 
 1438      74496E69 
 1438      7400
 1439              	.LASF65:
 1440 03a4 49544D5F 		.ascii	"ITM_RxBuffer\000"
 1440      52784275 
 1440      66666572 
 1440      00
 1441              	.LASF22:
 1442 03b1 69637573 		.ascii	"icustate_t\000"
 1442      74617465 
 1442      5F7400
 1443              	.LASF19:
 1444 03bc 4943555F 		.ascii	"ICU_WAITING\000"
 1444      57414954 
 1444      494E4700 
 1445              		.ident	"GCC: (GNU Tools for ARM Embedded Processors) 4.9.3 20150303 (release) [ARM/embedded-4_9-br
ARM GAS  /tmp/ccZ5heLd.s 			page 30


DEFINED SYMBOLS
                            *ABS*:00000000 icu.c
     /tmp/ccZ5heLd.s:21     .text.icuInit:00000000 $t
     /tmp/ccZ5heLd.s:27     .text.icuInit:00000000 icuInit
     /tmp/ccZ5heLd.s:46     .text.icuObjectInit:00000000 $t
     /tmp/ccZ5heLd.s:52     .text.icuObjectInit:00000000 icuObjectInit
     /tmp/ccZ5heLd.s:79     .rodata:00000000 $d
     /tmp/ccZ5heLd.s:86     .text.icuStart:00000000 $t
     /tmp/ccZ5heLd.s:92     .text.icuStart:00000000 icuStart
     /tmp/ccZ5heLd.s:161    .text.icuStart:00000050 $d
     /tmp/ccZ5heLd.s:174    .text.icuStop:00000000 $t
     /tmp/ccZ5heLd.s:180    .text.icuStop:00000000 icuStop
     /tmp/ccZ5heLd.s:239    .text.icuStop:00000044 $d
     /tmp/ccZ5heLd.s:252    .text.icuEnable:00000000 $t
     /tmp/ccZ5heLd.s:258    .text.icuEnable:00000000 icuEnable
     /tmp/ccZ5heLd.s:312    .text.icuEnable:0000003c $d
     /tmp/ccZ5heLd.s:325    .text.icuDisable:00000000 $t
     /tmp/ccZ5heLd.s:331    .text.icuDisable:00000000 icuDisable
     /tmp/ccZ5heLd.s:400    .text.icuDisable:00000054 $d
                     .debug_frame:00000010 $d
     /tmp/ccZ5heLd.s:166    .text.icuStart:00000058 $t
     /tmp/ccZ5heLd.s:244    .text.icuStop:0000004c $t
     /tmp/ccZ5heLd.s:317    .text.icuEnable:00000044 $t
     /tmp/ccZ5heLd.s:405    .text.icuDisable:0000005c $t

UNDEFINED SYMBOLS
icu_lld_init
chDbgPanic
_port_lock
icu_lld_start
_port_unlock
icu_lld_stop
icu_lld_enable
icu_lld_disable
