ARM GAS  /tmp/ccZ5heLd.s 			page 1


   1              		.syntax unified
   2              		.cpu cortex-m4
   3              		.eabi_attribute 27, 1
   4              		.eabi_attribute 28, 1
   5              		.fpu fpv4-sp-d16
   6              		.eabi_attribute 20, 1
   7              		.eabi_attribute 21, 1
   8              		.eabi_attribute 23, 3
   9              		.eabi_attribute 24, 1
  10              		.eabi_attribute 25, 1
  11              		.eabi_attribute 26, 1
  12              		.eabi_attribute 30, 6
  13              		.eabi_attribute 34, 1
  14              		.eabi_attribute 18, 4
  15              		.thumb
  16              		.file	"icu.c"
  17              		.text
  18              	.Ltext0:
  19              		.cfi_sections	.debug_frame
  20              		.section	.text.icuInit,"ax",%progbits
  21              		.align	2
  22              		.p2align 4,,15
  23              		.global	icuInit
  24              		.thumb
  25              		.thumb_func
  26              		.type	icuInit, %function
  27              	icuInit:
  28              	.LFB111:
  29              		.file 1 "/home/makkmarci/workspace/ChibiOS_2.6.8/os/hal/src/icu.c"
  30              		.loc 1 68 0
  31              		.cfi_startproc
  32              		@ args = 0, pretend = 0, frame = 0
  33              		@ frame_needed = 0, uses_anonymous_args = 0
  34 0000 08B5     		push	{r3, lr}
  35              		.cfi_def_cfa_offset 8
  36              		.cfi_offset 3, -8
  37              		.cfi_offset 14, -4
  38              		.loc 1 70 0
  39 0002 FFF7FEFF 		bl	icu_lld_init
  40              		.loc 1 71 0
  41 0006 08BD     		pop	{r3, pc}
  42              		.cfi_endproc
  43              	.LFE111:
  44              		.size	icuInit, .-icuInit
  45 0008 AFF30080 		.section	.text.icuObjectInit,"ax",%progbits
  45      AFF30080 
  46              		.align	2
  47              		.p2align 4,,15
  48              		.global	icuObjectInit
  49              		.thumb
  50              		.thumb_func
  51              		.type	icuObjectInit, %function
  52              	icuObjectInit:
  53              	.LFB112:
  54              		.loc 1 80 0
  55              		.cfi_startproc
  56              		@ args = 0, pretend = 0, frame = 8
ARM GAS  /tmp/ccZ5heLd.s 			page 2


  57              		@ frame_needed = 0, uses_anonymous_args = 0
  58              		@ link register save eliminated.
  59 0000 82B0     		sub	sp, sp, #8
  60              		.cfi_def_cfa_offset 8
  61 0002 0190     		str	r0, [sp, #4]
  62              		.loc 1 82 0
  63 0004 019B     		ldr	r3, [sp, #4]
  64 0006 0122     		movs	r2, #1
  65 0008 1A70     		strb	r2, [r3]
  66              		.loc 1 83 0
  67 000a 019B     		ldr	r3, [sp, #4]
  68 000c 0022     		movs	r2, #0
  69 000e 5A60     		str	r2, [r3, #4]
  70              		.loc 1 84 0
  71 0010 02B0     		add	sp, sp, #8
  72              		.cfi_def_cfa_offset 0
  73              		@ sp needed
  74 0012 7047     		bx	lr
  75              		.cfi_endproc
  76              	.LFE112:
  77              		.size	icuObjectInit, .-icuObjectInit
  78 0014 AFF30080 		.section	.rodata
  78      AFF30080 
  78      AFF30080 
  79              		.align	2
  80              	.LC0:
  81 0000 22696375 		.ascii	"\"icuStart\"()\000"
  81      53746172 
  81      74222829 
  81      00
  82 000d 000000   		.align	2
  83              	.LC1:
  84 0010 69637553 		.ascii	"icuStart(), #1\000"
  84      74617274 
  84      28292C20 
  84      233100
  85              		.section	.text.icuStart,"ax",%progbits
  86              		.align	2
  87              		.p2align 4,,15
  88              		.global	icuStart
  89              		.thumb
  90              		.thumb_func
  91              		.type	icuStart, %function
  92              	icuStart:
  93              	.LFB113:
  94              		.loc 1 94 0
  95              		.cfi_startproc
  96              		@ args = 0, pretend = 0, frame = 8
  97              		@ frame_needed = 0, uses_anonymous_args = 0
  98 0000 00B5     		push	{lr}
  99              		.cfi_def_cfa_offset 4
 100              		.cfi_offset 14, -4
 101 0002 83B0     		sub	sp, sp, #12
 102              		.cfi_def_cfa_offset 16
 103 0004 0190     		str	r0, [sp, #4]
 104 0006 0091     		str	r1, [sp]
 105              		.loc 1 96 0
ARM GAS  /tmp/ccZ5heLd.s 			page 3


 106 0008 019B     		ldr	r3, [sp, #4]
 107 000a 002B     		cmp	r3, #0
 108 000c 02D0     		beq	.L4
 109              		.loc 1 96 0 is_stmt 0 discriminator 2
 110 000e 009B     		ldr	r3, [sp]
 111 0010 002B     		cmp	r3, #0
 112 0012 02D1     		bne	.L5
 113              	.L4:
 114              		.loc 1 96 0 discriminator 3
 115 0014 0E48     		ldr	r0, .L7
 116 0016 FFF7FEFF 		bl	chDbgPanic
 117              	.L5:
 118              		.loc 1 98 0 is_stmt 1
 119              	@ 98 "/home/makkmarci/workspace/ChibiOS_2.6.8/os/hal/src/icu.c" 1
 120 001a FFF7FEFF 		bl      _port_lock
 121              	@ 0 "" 2
 122              		.loc 1 99 0
 123              		.thumb
 124 001e 019B     		ldr	r3, [sp, #4]
 125 0020 1B78     		ldrb	r3, [r3]	@ zero_extendqisi2
 126 0022 012B     		cmp	r3, #1
 127 0024 06D0     		beq	.L6
 128              		.loc 1 99 0 is_stmt 0 discriminator 1
 129 0026 019B     		ldr	r3, [sp, #4]
 130 0028 1B78     		ldrb	r3, [r3]	@ zero_extendqisi2
 131 002a 022B     		cmp	r3, #2
 132 002c 02D0     		beq	.L6
 133              		.loc 1 99 0 discriminator 2
 134 002e 0948     		ldr	r0, .L7+4
 135 0030 FFF7FEFF 		bl	chDbgPanic
 136              	.L6:
 137              		.loc 1 101 0 is_stmt 1
 138 0034 019B     		ldr	r3, [sp, #4]
 139 0036 009A     		ldr	r2, [sp]
 140 0038 5A60     		str	r2, [r3, #4]
 141              		.loc 1 102 0
 142 003a 0198     		ldr	r0, [sp, #4]
 143 003c FFF7FEFF 		bl	icu_lld_start
 144              		.loc 1 103 0
 145 0040 019B     		ldr	r3, [sp, #4]
 146 0042 0222     		movs	r2, #2
 147 0044 1A70     		strb	r2, [r3]
 148              		.loc 1 104 0
 149              	@ 104 "/home/makkmarci/workspace/ChibiOS_2.6.8/os/hal/src/icu.c" 1
 150 0046 FFF7FEFF 		bl      _port_unlock
 151              	@ 0 "" 2
 152              		.loc 1 105 0
 153              		.thumb
 154 004a 03B0     		add	sp, sp, #12
 155              		.cfi_def_cfa_offset 4
 156              		@ sp needed
 157 004c 5DF804FB 		ldr	pc, [sp], #4
 158              	.L8:
 159              		.align	2
 160              	.L7:
 161 0050 00000000 		.word	.LC0
 162 0054 10000000 		.word	.LC1
ARM GAS  /tmp/ccZ5heLd.s 			page 4


 163              		.cfi_endproc
 164              	.LFE113:
 165              		.size	icuStart, .-icuStart
 166 0058 AFF30080 		.section	.rodata
 166      AFF30080 
 167 001f 00       		.align	2
 168              	.LC2:
 169 0020 22696375 		.ascii	"\"icuStop\"()\000"
 169      53746F70 
 169      22282900 
 170              		.align	2
 171              	.LC3:
 172 002c 69637553 		.ascii	"icuStop(), #1\000"
 172      746F7028 
 172      292C2023 
 172      3100
 173              		.section	.text.icuStop,"ax",%progbits
 174              		.align	2
 175              		.p2align 4,,15
 176              		.global	icuStop
 177              		.thumb
 178              		.thumb_func
 179              		.type	icuStop, %function
 180              	icuStop:
 181              	.LFB114:
 182              		.loc 1 114 0
 183              		.cfi_startproc
 184              		@ args = 0, pretend = 0, frame = 8
 185              		@ frame_needed = 0, uses_anonymous_args = 0
 186 0000 00B5     		push	{lr}
 187              		.cfi_def_cfa_offset 4
 188              		.cfi_offset 14, -4
 189 0002 83B0     		sub	sp, sp, #12
 190              		.cfi_def_cfa_offset 16
 191 0004 0190     		str	r0, [sp, #4]
 192              		.loc 1 116 0
 193 0006 019B     		ldr	r3, [sp, #4]
 194 0008 002B     		cmp	r3, #0
 195 000a 02D1     		bne	.L10
 196              		.loc 1 116 0 is_stmt 0 discriminator 1
 197 000c 0D48     		ldr	r0, .L12
 198 000e FFF7FEFF 		bl	chDbgPanic
 199              	.L10:
 200              		.loc 1 118 0 is_stmt 1
 201              	@ 118 "/home/makkmarci/workspace/ChibiOS_2.6.8/os/hal/src/icu.c" 1
 202 0012 FFF7FEFF 		bl      _port_lock
 203              	@ 0 "" 2
 204              		.loc 1 119 0
 205              		.thumb
 206 0016 019B     		ldr	r3, [sp, #4]
 207 0018 1B78     		ldrb	r3, [r3]	@ zero_extendqisi2
 208 001a 012B     		cmp	r3, #1
 209 001c 06D0     		beq	.L11
 210              		.loc 1 119 0 is_stmt 0 discriminator 1
 211 001e 019B     		ldr	r3, [sp, #4]
 212 0020 1B78     		ldrb	r3, [r3]	@ zero_extendqisi2
 213 0022 022B     		cmp	r3, #2
ARM GAS  /tmp/ccZ5heLd.s 			page 5


 214 0024 02D0     		beq	.L11
 215              		.loc 1 119 0 discriminator 2
 216 0026 0848     		ldr	r0, .L12+4
 217 0028 FFF7FEFF 		bl	chDbgPanic
 218              	.L11:
 219              		.loc 1 121 0 is_stmt 1
 220 002c 0198     		ldr	r0, [sp, #4]
 221 002e FFF7FEFF 		bl	icu_lld_stop
 222              		.loc 1 122 0
 223 0032 019B     		ldr	r3, [sp, #4]
 224 0034 0122     		movs	r2, #1
 225 0036 1A70     		strb	r2, [r3]
 226              		.loc 1 123 0
 227              	@ 123 "/home/makkmarci/workspace/ChibiOS_2.6.8/os/hal/src/icu.c" 1
 228 0038 FFF7FEFF 		bl      _port_unlock
 229              	@ 0 "" 2
 230              		.loc 1 124 0
 231              		.thumb
 232 003c 03B0     		add	sp, sp, #12
 233              		.cfi_def_cfa_offset 4
 234              		@ sp needed
 235 003e 5DF804FB 		ldr	pc, [sp], #4
 236              	.L13:
 237 0042 00BF     		.align	2
 238              	.L12:
 239 0044 20000000 		.word	.LC2
 240 0048 2C000000 		.word	.LC3
 241              		.cfi_endproc
 242              	.LFE114:
 243              		.size	icuStop, .-icuStop
 244 004c AFF30080 		.section	.rodata
 245 003a 0000     		.align	2
 246              	.LC4:
 247 003c 22696375 		.ascii	"\"icuEnable\"()\000"
 247      456E6162 
 247      6C652228 
 247      2900
 248 004a 0000     		.align	2
 249              	.LC5:
 250 004c 69637545 		.ascii	"icuEnable(), #1\000"
 250      6E61626C 
 250      6528292C 
 250      20233100 
 251              		.section	.text.icuEnable,"ax",%progbits
 252              		.align	2
 253              		.p2align 4,,15
 254              		.global	icuEnable
 255              		.thumb
 256              		.thumb_func
 257              		.type	icuEnable, %function
 258              	icuEnable:
 259              	.LFB115:
 260              		.loc 1 133 0
 261              		.cfi_startproc
 262              		@ args = 0, pretend = 0, frame = 8
 263              		@ frame_needed = 0, uses_anonymous_args = 0
 264 0000 00B5     		push	{lr}
ARM GAS  /tmp/ccZ5heLd.s 			page 6


 265              		.cfi_def_cfa_offset 4
 266              		.cfi_offset 14, -4
 267 0002 83B0     		sub	sp, sp, #12
 268              		.cfi_def_cfa_offset 16
 269 0004 0190     		str	r0, [sp, #4]
 270              		.loc 1 135 0
 271 0006 019B     		ldr	r3, [sp, #4]
 272 0008 002B     		cmp	r3, #0
 273 000a 02D1     		bne	.L15
 274              		.loc 1 135 0 is_stmt 0 discriminator 1
 275 000c 0B48     		ldr	r0, .L17
 276 000e FFF7FEFF 		bl	chDbgPanic
 277              	.L15:
 278              		.loc 1 137 0 is_stmt 1
 279              	@ 137 "/home/makkmarci/workspace/ChibiOS_2.6.8/os/hal/src/icu.c" 1
 280 0012 FFF7FEFF 		bl      _port_lock
 281              	@ 0 "" 2
 282              		.loc 1 138 0
 283              		.thumb
 284 0016 019B     		ldr	r3, [sp, #4]
 285 0018 1B78     		ldrb	r3, [r3]	@ zero_extendqisi2
 286 001a 022B     		cmp	r3, #2
 287 001c 02D0     		beq	.L16
 288              		.loc 1 138 0 is_stmt 0 discriminator 1
 289 001e 0848     		ldr	r0, .L17+4
 290 0020 FFF7FEFF 		bl	chDbgPanic
 291              	.L16:
 292              		.loc 1 139 0 is_stmt 1
 293 0024 0198     		ldr	r0, [sp, #4]
 294 0026 FFF7FEFF 		bl	icu_lld_enable
 295              		.loc 1 140 0
 296 002a 019B     		ldr	r3, [sp, #4]
 297 002c 0322     		movs	r2, #3
 298 002e 1A70     		strb	r2, [r3]
 299              		.loc 1 141 0
 300              	@ 141 "/home/makkmarci/workspace/ChibiOS_2.6.8/os/hal/src/icu.c" 1
 301 0030 FFF7FEFF 		bl      _port_unlock
 302              	@ 0 "" 2
 303              		.loc 1 142 0
 304              		.thumb
 305 0034 03B0     		add	sp, sp, #12
 306              		.cfi_def_cfa_offset 4
 307              		@ sp needed
 308 0036 5DF804FB 		ldr	pc, [sp], #4
 309              	.L18:
 310 003a 00BF     		.align	2
 311              	.L17:
 312 003c 3C000000 		.word	.LC4
 313 0040 4C000000 		.word	.LC5
 314              		.cfi_endproc
 315              	.LFE115:
 316              		.size	icuEnable, .-icuEnable
 317 0044 AFF30080 		.section	.rodata
 317      AFF30080 
 317      AFF30080 
 318              		.align	2
 319              	.LC6:
ARM GAS  /tmp/ccZ5heLd.s 			page 7


 320 005c 22696375 		.ascii	"\"icuDisable\"()\000"
 320      44697361 
 320      626C6522 
 320      282900
 321 006b 00       		.align	2
 322              	.LC7:
 323 006c 69637544 		.ascii	"icuDisable(), #1\000"
 323      69736162 
 323      6C652829 
 323      2C202331 
 323      00
 324 007d 000000   		.section	.text.icuDisable,"ax",%progbits
 325              		.align	2
 326              		.p2align 4,,15
 327              		.global	icuDisable
 328              		.thumb
 329              		.thumb_func
 330              		.type	icuDisable, %function
 331              	icuDisable:
 332              	.LFB116:
 333              		.loc 1 151 0
 334              		.cfi_startproc
 335              		@ args = 0, pretend = 0, frame = 8
 336              		@ frame_needed = 0, uses_anonymous_args = 0
 337 0000 00B5     		push	{lr}
 338              		.cfi_def_cfa_offset 4
 339              		.cfi_offset 14, -4
 340 0002 83B0     		sub	sp, sp, #12
 341              		.cfi_def_cfa_offset 16
 342 0004 0190     		str	r0, [sp, #4]
 343              		.loc 1 153 0
 344 0006 019B     		ldr	r3, [sp, #4]
 345 0008 002B     		cmp	r3, #0
 346 000a 02D1     		bne	.L20
 347              		.loc 1 153 0 is_stmt 0 discriminator 1
 348 000c 1148     		ldr	r0, .L22
 349 000e FFF7FEFF 		bl	chDbgPanic
 350              	.L20:
 351              		.loc 1 155 0 is_stmt 1
 352              	@ 155 "/home/makkmarci/workspace/ChibiOS_2.6.8/os/hal/src/icu.c" 1
 353 0012 FFF7FEFF 		bl      _port_lock
 354              	@ 0 "" 2
 355              		.loc 1 156 0
 356              		.thumb
 357 0016 019B     		ldr	r3, [sp, #4]
 358 0018 1B78     		ldrb	r3, [r3]	@ zero_extendqisi2
 359 001a 022B     		cmp	r3, #2
 360 001c 0ED0     		beq	.L21
 361              		.loc 1 156 0 is_stmt 0 discriminator 1
 362 001e 019B     		ldr	r3, [sp, #4]
 363 0020 1B78     		ldrb	r3, [r3]	@ zero_extendqisi2
 364 0022 032B     		cmp	r3, #3
 365 0024 0AD0     		beq	.L21
 366              		.loc 1 156 0 discriminator 2
 367 0026 019B     		ldr	r3, [sp, #4]
 368 0028 1B78     		ldrb	r3, [r3]	@ zero_extendqisi2
 369 002a 042B     		cmp	r3, #4
ARM GAS  /tmp/ccZ5heLd.s 			page 8


 370 002c 06D0     		beq	.L21
 371              		.loc 1 156 0 discriminator 3
 372 002e 019B     		ldr	r3, [sp, #4]
 373 0030 1B78     		ldrb	r3, [r3]	@ zero_extendqisi2
 374 0032 052B     		cmp	r3, #5
 375 0034 02D0     		beq	.L21
 376              		.loc 1 156 0 discriminator 4
 377 0036 0848     		ldr	r0, .L22+4
 378 0038 FFF7FEFF 		bl	chDbgPanic
 379              	.L21:
 380              		.loc 1 159 0 is_stmt 1
 381 003c 0198     		ldr	r0, [sp, #4]
 382 003e FFF7FEFF 		bl	icu_lld_disable
 383              		.loc 1 160 0
 384 0042 019B     		ldr	r3, [sp, #4]
 385 0044 0222     		movs	r2, #2
 386 0046 1A70     		strb	r2, [r3]
 387              		.loc 1 161 0
 388              	@ 161 "/home/makkmarci/workspace/ChibiOS_2.6.8/os/hal/src/icu.c" 1
 389 0048 FFF7FEFF 		bl      _port_unlock
 390              	@ 0 "" 2
 391              		.loc 1 162 0
 392              		.thumb
 393 004c 03B0     		add	sp, sp, #12
 394              		.cfi_def_cfa_offset 4
 395              		@ sp needed
 396 004e 5DF804FB 		ldr	pc, [sp], #4
 397              	.L23:
 398 0052 00BF     		.align	2
 399              	.L22:
 400 0054 5C000000 		.word	.LC6
 401 0058 6C000000 		.word	.LC7
 402              		.cfi_endproc
 403              	.LFE116:
 404              		.size	icuDisable, .-icuDisable
 405 005c AFF30080 		.text
 406              	.Letext0:
 407              		.file 2 "/opt/gcc-arm-none-eabi/arm-none-eabi/include/machine/_default_types.h"
 408              		.file 3 "/opt/gcc-arm-none-eabi/arm-none-eabi/include/stdint.h"
 409              		.file 4 "/home/makkmarci/workspace/ChibiOS_2.6.8/os/hal/include/icu.h"
 410              		.file 5 "/home/makkmarci/workspace/ChibiOS_2.6.8/os/hal/platforms/STM32/TIMv1/icu_lld.h"
 411              		.file 6 "/home/makkmarci/workspace/ChibiOS_2.6.8/os/hal/platforms/STM32/TIMv1/stm32_tim.h"
 412              		.file 7 "/home/makkmarci/workspace/ChibiOS_2.6.8/os/ports/common/ARMCMx/CMSIS/include/core_cm4.h"