ARM GAS  /tmp/cc0Dp4m9.s 			page 1


   1              		.syntax unified
   2              		.cpu cortex-m4
   3              		.eabi_attribute 27, 3
   4              		.eabi_attribute 28, 1
   5              		.fpu fpv4-sp-d16
   6              		.eabi_attribute 20, 1
   7              		.eabi_attribute 21, 1
   8              		.eabi_attribute 23, 3
   9              		.eabi_attribute 24, 1
  10              		.eabi_attribute 25, 1
  11              		.eabi_attribute 26, 1
  12              		.eabi_attribute 30, 2
  13              		.eabi_attribute 34, 1
  14              		.eabi_attribute 18, 4
  15              		.thumb
  16              		.file	"icu_lld.c"
  17              		.text
  18              	.Ltext0:
  19              		.cfi_sections	.debug_frame
  20              		.section	.text.Vector108,"ax",%progbits
  21              		.align	2
  22              		.p2align 4,,15
  23              		.global	Vector108
  24              		.thumb
  25              		.thumb_func
  26              		.type	Vector108, %function
  27              	Vector108:
  28              	.LFB112:
  29              		.file 1 "../../os/hal/platforms/STM32/TIMv1/icu_lld.c"
  30              		.loc 1 256 0
  31              		.cfi_startproc
  32              		@ args = 0, pretend = 0, frame = 0
  33              		@ frame_needed = 0, uses_anonymous_args = 0
  34              	.LVL0:
  35 0000 38B5     		push	{r3, r4, r5, lr}
  36              		.cfi_def_cfa_offset 16
  37              		.cfi_offset 3, -16
  38              		.cfi_offset 4, -12
  39              		.cfi_offset 5, -8
  40              		.cfi_offset 14, -4
  41              	.LBB8:
  42              	.LBB9:
  43              		.loc 1 114 0
  44 0002 214C     		ldr	r4, .L34
  45 0004 E368     		ldr	r3, [r4, #12]
  46              		.loc 1 117 0
  47 0006 6268     		ldr	r2, [r4, #4]
  48              		.loc 1 114 0
  49 0008 1869     		ldr	r0, [r3, #16]
  50              	.LVL1:
  51              		.loc 1 115 0
  52 000a DD68     		ldr	r5, [r3, #12]
  53              		.loc 1 117 0
  54 000c 117D     		ldrb	r1, [r2, #20]	@ zero_extendqisi2
  55              		.loc 1 115 0
  56 000e 0540     		ands	r5, r5, r0
  57 0010 ADB2     		uxth	r5, r5
ARM GAS  /tmp/cc0Dp4m9.s 			page 2


  58              	.LVL2:
  59              		.loc 1 116 0
  60 0012 E8B2     		uxtb	r0, r5
  61 0014 C043     		mvns	r0, r0
  62 0016 1861     		str	r0, [r3, #16]
  63              		.loc 1 117 0
  64 0018 A9B9     		cbnz	r1, .L2
  65              		.loc 1 118 0
  66 001a AB07     		lsls	r3, r5, #30
  67 001c 07D5     		bpl	.L4
  68              	.LBB10:
  69              		.loc 1 119 0
  70 001e 2378     		ldrb	r3, [r4]	@ zero_extendqisi2
  71              	.LVL3:
  72 0020 0421     		movs	r1, #4
  73 0022 032B     		cmp	r3, #3
  74 0024 2170     		strb	r1, [r4]
  75 0026 02D0     		beq	.L4
  76 0028 D368     		ldr	r3, [r2, #12]
  77 002a 2046     		mov	r0, r4
  78 002c 9847     		blx	r3
  79              	.LVL4:
  80              	.L4:
  81              	.LBE10:
  82              		.loc 1 120 0
  83 002e 6807     		lsls	r0, r5, #29
  84 0030 1FD4     		bmi	.L33
  85              	.L7:
  86              		.loc 1 128 0
  87 0032 EB07     		lsls	r3, r5, #31
  88 0034 03D5     		bpl	.L10
  89              		.loc 1 129 0
  90 0036 6368     		ldr	r3, [r4, #4]
  91 0038 1348     		ldr	r0, .L34
  92 003a 1B69     		ldr	r3, [r3, #16]
  93 003c 9847     		blx	r3
  94              	.LVL5:
  95              	.L10:
  96              	.LBE9:
  97              	.LBE8:
  98              		.loc 1 263 0
  99 003e BDE83840 		pop	{r3, r4, r5, lr}
 100              	.LVL6:
 101              		.loc 1 262 0
 102 0042 FFF7FEBF 		b	_port_irq_epilogue
 103              	.LVL7:
 104              	.L2:
 105              	.LBB13:
 106              	.LBB12:
 107              		.loc 1 123 0
 108 0046 A907     		lsls	r1, r5, #30
 109 0048 07D5     		bpl	.L9
 110              		.loc 1 124 0
 111 004a 2378     		ldrb	r3, [r4]	@ zero_extendqisi2
 112 004c 032B     		cmp	r3, #3
 113 004e 04D0     		beq	.L9
 114 0050 0521     		movs	r1, #5
ARM GAS  /tmp/cc0Dp4m9.s 			page 3


 115 0052 9368     		ldr	r3, [r2, #8]
 116 0054 2170     		strb	r1, [r4]
 117 0056 2046     		mov	r0, r4
 118 0058 9847     		blx	r3
 119              	.LVL8:
 120              	.L9:
 121              		.loc 1 125 0
 122 005a 6A07     		lsls	r2, r5, #29
 123 005c E9D5     		bpl	.L7
 124              	.LBB11:
 125              		.loc 1 126 0
 126 005e 2378     		ldrb	r3, [r4]	@ zero_extendqisi2
 127              	.LVL9:
 128 0060 0948     		ldr	r0, .L34
 129 0062 0422     		movs	r2, #4
 130 0064 032B     		cmp	r3, #3
 131 0066 2270     		strb	r2, [r4]
 132 0068 E3D0     		beq	.L7
 133 006a 4368     		ldr	r3, [r0, #4]
 134 006c DB68     		ldr	r3, [r3, #12]
 135 006e 9847     		blx	r3
 136              	.LVL10:
 137 0070 DFE7     		b	.L7
 138              	.L33:
 139              	.LBE11:
 140              		.loc 1 121 0
 141 0072 2378     		ldrb	r3, [r4]	@ zero_extendqisi2
 142 0074 0448     		ldr	r0, .L34
 143 0076 032B     		cmp	r3, #3
 144 0078 DBD0     		beq	.L7
 145 007a 4368     		ldr	r3, [r0, #4]
 146 007c 0522     		movs	r2, #5
 147 007e 9B68     		ldr	r3, [r3, #8]
 148 0080 0270     		strb	r2, [r0]
 149 0082 9847     		blx	r3
 150              	.LVL11:
 151 0084 D5E7     		b	.L7
 152              	.L35:
 153 0086 00BF     		.align	2
 154              	.L34:
 155 0088 00000000 		.word	.LANCHOR0
 156              	.LBE12:
 157              	.LBE13:
 158              		.cfi_endproc
 159              	.LFE112:
 160              		.size	Vector108, .-Vector108
 161 008c AFF30080 		.section	.text.icu_lld_init,"ax",%progbits
 162              		.align	2
 163              		.p2align 4,,15
 164              		.global	icu_lld_init
 165              		.thumb
 166              		.thumb_func
 167              		.type	icu_lld_init, %function
 168              	icu_lld_init:
 169              	.LFB113:
 170              		.loc 1 339 0
 171              		.cfi_startproc
ARM GAS  /tmp/cc0Dp4m9.s 			page 4


 172              		@ args = 0, pretend = 0, frame = 0
 173              		@ frame_needed = 0, uses_anonymous_args = 0
 174 0000 10B5     		push	{r4, lr}
 175              		.cfi_def_cfa_offset 8
 176              		.cfi_offset 4, -8
 177              		.cfi_offset 14, -4
 178              		.loc 1 367 0
 179 0002 034C     		ldr	r4, .L37
 180 0004 2046     		mov	r0, r4
 181 0006 FFF7FEFF 		bl	icuObjectInit
 182              	.LVL12:
 183              		.loc 1 368 0
 184 000a 024B     		ldr	r3, .L37+4
 185 000c E360     		str	r3, [r4, #12]
 186 000e 10BD     		pop	{r4, pc}
 187              	.L38:
 188              		.align	2
 189              	.L37:
 190 0010 00000000 		.word	.LANCHOR0
 191 0014 000C0040 		.word	1073744896
 192              		.cfi_endproc
 193              	.LFE113:
 194              		.size	icu_lld_init, .-icu_lld_init
 195 0018 AFF30080 		.section	.text.icu_lld_start,"ax",%progbits
 195      AFF30080 
 196              		.align	2
 197              		.p2align 4,,15
 198              		.global	icu_lld_start
 199              		.thumb
 200              		.thumb_func
 201              		.type	icu_lld_start, %function
 202              	icu_lld_start:
 203              	.LFB114:
 204              		.loc 1 391 0
 205              		.cfi_startproc
 206              		@ args = 0, pretend = 0, frame = 0
 207              		@ frame_needed = 0, uses_anonymous_args = 0
 208              	.LVL13:
 209 0000 38B5     		push	{r3, r4, r5, lr}
 210              		.cfi_def_cfa_offset 16
 211              		.cfi_offset 3, -16
 212              		.cfi_offset 4, -12
 213              		.cfi_offset 5, -8
 214              		.cfi_offset 14, -4
 215              		.loc 1 394 0
 216 0002 4368     		ldr	r3, [r0, #4]
 217 0004 1B7D     		ldrb	r3, [r3, #20]	@ zero_extendqisi2
 218 0006 012B     		cmp	r3, #1
 219              		.loc 1 391 0
 220 0008 0446     		mov	r4, r0
 221              		.loc 1 394 0
 222 000a 02D9     		bls	.L40
 223              		.loc 1 394 0 is_stmt 0 discriminator 1
 224 000c 3148     		ldr	r0, .L56
 225              	.LVL14:
 226 000e FFF7FEFF 		bl	chDbgPanic
 227              	.LVL15:
ARM GAS  /tmp/cc0Dp4m9.s 			page 5


 228              	.L40:
 229              		.loc 1 398 0 is_stmt 1
 230 0012 2378     		ldrb	r3, [r4]	@ zero_extendqisi2
 231 0014 012B     		cmp	r3, #1
 232 0016 46D0     		beq	.L53
 233              		.loc 1 479 0
 234 0018 6268     		ldr	r2, [r4, #4]
 235              		.loc 1 478 0
 236 001a E368     		ldr	r3, [r4, #12]
 237              		.loc 1 479 0
 238 001c 9069     		ldr	r0, [r2, #24]
 239              		.loc 1 478 0
 240 001e 0021     		movs	r1, #0
 241              		.loc 1 479 0
 242 0020 20F0FF00 		bic	r0, r0, #255
 243              		.loc 1 478 0
 244 0024 1960     		str	r1, [r3]
 245              		.loc 1 479 0
 246 0026 D860     		str	r0, [r3, #12]
 247              		.loc 1 481 0
 248 0028 1961     		str	r1, [r3, #16]
 249              		.loc 1 482 0
 250 002a 5963     		str	r1, [r3, #52]
 251              		.loc 1 483 0
 252 002c 9963     		str	r1, [r3, #56]
 253              		.loc 1 484 0
 254 002e 5962     		str	r1, [r3, #36]
 255              	.L43:
 256              		.loc 1 488 0
 257 0030 A368     		ldr	r3, [r4, #8]
 258 0032 5068     		ldr	r0, [r2, #4]
 259 0034 B3FBF0F1 		udiv	r1, r3, r0
 260 0038 4D1E     		subs	r5, r1, #1
 261              	.LVL16:
 262              		.loc 1 489 0
 263 003a B5F5803F 		cmp	r5, #65536
 264 003e 03D2     		bcs	.L44
 265              		.loc 1 489 0 is_stmt 0 discriminator 2
 266 0040 00FB01F1 		mul	r1, r0, r1
 267 0044 8B42     		cmp	r3, r1
 268 0046 03D0     		beq	.L45
 269              	.L44:
 270              		.loc 1 489 0 discriminator 1
 271 0048 2248     		ldr	r0, .L56
 272 004a FFF7FEFF 		bl	chDbgPanic
 273              	.LVL17:
 274 004e 6268     		ldr	r2, [r4, #4]
 275              	.L45:
 276              		.loc 1 495 0 is_stmt 1
 277 0050 117D     		ldrb	r1, [r2, #20]	@ zero_extendqisi2
 278              		.loc 1 492 0
 279 0052 E368     		ldr	r3, [r4, #12]
 280              		.loc 1 508 0
 281 0054 1278     		ldrb	r2, [r2]	@ zero_extendqisi2
 282              		.loc 1 492 0
 283 0056 ADB2     		uxth	r5, r5
 284              	.LVL18:
ARM GAS  /tmp/cc0Dp4m9.s 			page 6


 285              		.loc 1 493 0
 286 0058 4FF6FF70 		movw	r0, #65535
 287              		.loc 1 492 0
 288 005c 9D62     		str	r5, [r3, #40]
 289              		.loc 1 493 0
 290 005e D862     		str	r0, [r3, #44]
 291              		.loc 1 495 0
 292 0060 69B9     		cbnz	r1, .L46
 293              		.loc 1 499 0
 294 0062 40F20120 		movw	r0, #513
 295              		.loc 1 503 0
 296 0066 5421     		movs	r1, #84
 297              		.loc 1 499 0
 298 0068 9861     		str	r0, [r3, #24]
 299              		.loc 1 503 0
 300 006a 9960     		str	r1, [r3, #8]
 301              		.loc 1 508 0
 302 006c C2B1     		cbz	r2, .L54
 303              		.loc 1 512 0
 304 006e 1322     		movs	r2, #19
 305 0070 1A62     		str	r2, [r3, #32]
 306              	.L48:
 307              		.loc 1 517 0 discriminator 1
 308 0072 03F13802 		add	r2, r3, #56
 309              		.loc 1 518 0 discriminator 1
 310 0076 3433     		adds	r3, r3, #52
 311              		.loc 1 517 0 discriminator 1
 312 0078 2261     		str	r2, [r4, #16]
 313              		.loc 1 518 0 discriminator 1
 314 007a 6361     		str	r3, [r4, #20]
 315 007c 38BD     		pop	{r3, r4, r5, pc}
 316              	.LVL19:
 317              	.L46:
 318              		.loc 1 523 0
 319 007e 4FF48170 		mov	r0, #258
 320              		.loc 1 527 0
 321 0082 6421     		movs	r1, #100
 322              		.loc 1 523 0
 323 0084 9861     		str	r0, [r3, #24]
 324              		.loc 1 527 0
 325 0086 9960     		str	r1, [r3, #8]
 326              		.loc 1 532 0
 327 0088 3AB1     		cbz	r2, .L55
 328              		.loc 1 536 0
 329 008a 3122     		movs	r2, #49
 330 008c 1A62     		str	r2, [r3, #32]
 331              	.L51:
 332              		.loc 1 541 0
 333 008e 03F13402 		add	r2, r3, #52
 334              		.loc 1 542 0
 335 0092 3833     		adds	r3, r3, #56
 336              		.loc 1 541 0
 337 0094 2261     		str	r2, [r4, #16]
 338              		.loc 1 542 0
 339 0096 6361     		str	r3, [r4, #20]
 340 0098 38BD     		pop	{r3, r4, r5, pc}
 341              	.LVL20:
ARM GAS  /tmp/cc0Dp4m9.s 			page 7


 342              	.L55:
 343              		.loc 1 533 0
 344 009a 1322     		movs	r2, #19
 345 009c 1A62     		str	r2, [r3, #32]
 346 009e F6E7     		b	.L51
 347              	.L54:
 348              		.loc 1 509 0
 349 00a0 3122     		movs	r2, #49
 350 00a2 1A62     		str	r2, [r3, #32]
 351 00a4 E5E7     		b	.L48
 352              	.L53:
 353              		.loc 1 443 0
 354 00a6 0C4B     		ldr	r3, .L56+4
 355 00a8 9C42     		cmp	r4, r3
 356 00aa 01D0     		beq	.L42
 357              	.L52:
 358 00ac 6268     		ldr	r2, [r4, #4]
 359 00ae BFE7     		b	.L43
 360              	.L42:
 361              		.loc 1 444 0
 362 00b0 0A4B     		ldr	r3, .L56+8
 363 00b2 1A6C     		ldr	r2, [r3, #64]
 364 00b4 42F00802 		orr	r2, r2, #8
 365 00b8 1A64     		str	r2, [r3, #64]
 366              		.loc 1 445 0
 367 00ba 196A     		ldr	r1, [r3, #32]
 368 00bc 0022     		movs	r2, #0
 369 00be 41F00801 		orr	r1, r1, #8
 370 00c2 1962     		str	r1, [r3, #32]
 371              		.loc 1 446 0
 372 00c4 3220     		movs	r0, #50
 373              		.loc 1 445 0
 374 00c6 1A62     		str	r2, [r3, #32]
 375              		.loc 1 446 0
 376 00c8 7021     		movs	r1, #112
 377 00ca FFF7FEFF 		bl	nvicEnableVector
 378              	.LVL21:
 379              		.loc 1 448 0
 380 00ce 044B     		ldr	r3, .L56+12
 381 00d0 A360     		str	r3, [r4, #8]
 382 00d2 EBE7     		b	.L52
 383              	.L57:
 384              		.align	2
 385              	.L56:
 386 00d4 00000000 		.word	.LC0
 387 00d8 00000000 		.word	.LANCHOR0
 388 00dc 00380240 		.word	1073887232
 389 00e0 00BD0105 		.word	84000000
 390              		.cfi_endproc
 391              	.LFE114:
 392              		.size	icu_lld_start, .-icu_lld_start
 393              		.section	.text.icu_lld_stop,"ax",%progbits
 394              		.align	2
 395              		.p2align 4,,15
 396              		.global	icu_lld_stop
 397              		.thumb
 398              		.thumb_func
ARM GAS  /tmp/cc0Dp4m9.s 			page 8


 399              		.type	icu_lld_stop, %function
 400              	icu_lld_stop:
 401              	.LFB115:
 402              		.loc 1 553 0
 403              		.cfi_startproc
 404              		@ args = 0, pretend = 0, frame = 0
 405              		@ frame_needed = 0, uses_anonymous_args = 0
 406              	.LVL22:
 407 0000 08B5     		push	{r3, lr}
 408              		.cfi_def_cfa_offset 8
 409              		.cfi_offset 3, -8
 410              		.cfi_offset 14, -4
 411              		.loc 1 555 0
 412 0002 0378     		ldrb	r3, [r0]	@ zero_extendqisi2
 413 0004 022B     		cmp	r3, #2
 414 0006 00D0     		beq	.L62
 415              	.LVL23:
 416              	.L58:
 417 0008 08BD     		pop	{r3, pc}
 418              	.LVL24:
 419              	.L62:
 420              		.loc 1 587 0
 421 000a 0849     		ldr	r1, .L63
 422              		.loc 1 557 0
 423 000c C368     		ldr	r3, [r0, #12]
 424 000e 0022     		movs	r2, #0
 425              		.loc 1 587 0
 426 0010 8842     		cmp	r0, r1
 427              		.loc 1 557 0
 428 0012 1A60     		str	r2, [r3]
 429              		.loc 1 558 0
 430 0014 DA60     		str	r2, [r3, #12]
 431              		.loc 1 559 0
 432 0016 1A61     		str	r2, [r3, #16]
 433              		.loc 1 587 0
 434 0018 F6D1     		bne	.L58
 435              		.loc 1 588 0
 436 001a 3220     		movs	r0, #50
 437              	.LVL25:
 438 001c FFF7FEFF 		bl	nvicDisableVector
 439              	.LVL26:
 440              		.loc 1 589 0
 441 0020 034B     		ldr	r3, .L63+4
 442 0022 1A6C     		ldr	r2, [r3, #64]
 443 0024 22F00802 		bic	r2, r2, #8
 444 0028 1A64     		str	r2, [r3, #64]
 445 002a EDE7     		b	.L58
 446              	.L64:
 447              		.align	2
 448              	.L63:
 449 002c 00000000 		.word	.LANCHOR0
 450 0030 00380240 		.word	1073887232
 451              		.cfi_endproc
 452              	.LFE115:
 453              		.size	icu_lld_stop, .-icu_lld_stop
 454 0034 AFF30080 		.section	.text.icu_lld_enable,"ax",%progbits
 454      AFF30080 
ARM GAS  /tmp/cc0Dp4m9.s 			page 9


 454      AFF30080 
 455              		.align	2
 456              		.p2align 4,,15
 457              		.global	icu_lld_enable
 458              		.thumb
 459              		.thumb_func
 460              		.type	icu_lld_enable, %function
 461              	icu_lld_enable:
 462              	.LFB116:
 463              		.loc 1 615 0
 464              		.cfi_startproc
 465              		@ args = 0, pretend = 0, frame = 0
 466              		@ frame_needed = 0, uses_anonymous_args = 0
 467              		@ link register save eliminated.
 468              	.LVL27:
 469              		.loc 1 617 0
 470 0000 C368     		ldr	r3, [r0, #12]
 471              		.loc 1 619 0
 472 0002 4268     		ldr	r2, [r0, #4]
 473              		.loc 1 617 0
 474 0004 5869     		ldr	r0, [r3, #20]
 475              	.LVL28:
 476              		.loc 1 619 0
 477 0006 117D     		ldrb	r1, [r2, #20]	@ zero_extendqisi2
 478              		.loc 1 615 0
 479 0008 10B4     		push	{r4}
 480              		.cfi_def_cfa_offset 4
 481              		.cfi_offset 4, -4
 482              		.loc 1 617 0
 483 000a 40F00100 		orr	r0, r0, #1
 484              		.loc 1 618 0
 485 000e 0024     		movs	r4, #0
 486              		.loc 1 617 0
 487 0010 5861     		str	r0, [r3, #20]
 488              		.loc 1 618 0
 489 0012 1C61     		str	r4, [r3, #16]
 490              		.loc 1 619 0
 491 0014 B1B9     		cbnz	r1, .L66
 492              		.loc 1 620 0
 493 0016 D168     		ldr	r1, [r2, #12]
 494 0018 19B1     		cbz	r1, .L67
 495              		.loc 1 621 0
 496 001a D968     		ldr	r1, [r3, #12]
 497 001c 41F00201 		orr	r1, r1, #2
 498 0020 D960     		str	r1, [r3, #12]
 499              	.L67:
 500              		.loc 1 622 0
 501 0022 9168     		ldr	r1, [r2, #8]
 502 0024 19B1     		cbz	r1, .L69
 503              	.L85:
 504              		.loc 1 628 0
 505 0026 D968     		ldr	r1, [r3, #12]
 506 0028 41F00401 		orr	r1, r1, #4
 507 002c D960     		str	r1, [r3, #12]
 508              	.L69:
 509              		.loc 1 630 0
 510 002e 1269     		ldr	r2, [r2, #16]
ARM GAS  /tmp/cc0Dp4m9.s 			page 10


 511 0030 1AB1     		cbz	r2, .L72
 512              		.loc 1 631 0
 513 0032 DA68     		ldr	r2, [r3, #12]
 514 0034 42F00102 		orr	r2, r2, #1
 515 0038 DA60     		str	r2, [r3, #12]
 516              	.L72:
 517              		.loc 1 632 0
 518 003a 0522     		movs	r2, #5
 519 003c 1A60     		str	r2, [r3]
 520              		.loc 1 633 0
 521 003e 5DF8044B 		ldr	r4, [sp], #4
 522 0042 7047     		bx	lr
 523              	.L66:
 524              		.loc 1 625 0
 525 0044 9168     		ldr	r1, [r2, #8]
 526 0046 19B1     		cbz	r1, .L70
 527              		.loc 1 626 0
 528 0048 D968     		ldr	r1, [r3, #12]
 529 004a 41F00201 		orr	r1, r1, #2
 530 004e D960     		str	r1, [r3, #12]
 531              	.L70:
 532              		.loc 1 627 0
 533 0050 D168     		ldr	r1, [r2, #12]
 534 0052 0029     		cmp	r1, #0
 535 0054 E7D1     		bne	.L85
 536 0056 EAE7     		b	.L69
 537              		.cfi_endproc
 538              	.LFE116:
 539              		.size	icu_lld_enable, .-icu_lld_enable
 540 0058 AFF30080 		.section	.text.icu_lld_disable,"ax",%progbits
 540      AFF30080 
 541              		.align	2
 542              		.p2align 4,,15
 543              		.global	icu_lld_disable
 544              		.thumb
 545              		.thumb_func
 546              		.type	icu_lld_disable, %function
 547              	icu_lld_disable:
 548              	.LFB117:
 549              		.loc 1 642 0
 550              		.cfi_startproc
 551              		@ args = 0, pretend = 0, frame = 0
 552              		@ frame_needed = 0, uses_anonymous_args = 0
 553              		@ link register save eliminated.
 554              	.LVL29:
 555              		.loc 1 644 0
 556 0000 C368     		ldr	r3, [r0, #12]
 557 0002 0022     		movs	r2, #0
 558 0004 1A60     		str	r2, [r3]
 559              		.loc 1 645 0
 560 0006 1A61     		str	r2, [r3, #16]
 561              		.loc 1 648 0
 562 0008 DA68     		ldr	r2, [r3, #12]
 563 000a 22F0FF02 		bic	r2, r2, #255
 564 000e DA60     		str	r2, [r3, #12]
 565 0010 7047     		bx	lr
 566              		.cfi_endproc
ARM GAS  /tmp/cc0Dp4m9.s 			page 11


 567              	.LFE117:
 568              		.size	icu_lld_disable, .-icu_lld_disable
 569              		.global	ICUD5
 570 0012 00BFAFF3 		.section	.bss.ICUD5,"aw",%nobits
 570      0080AFF3 
 570      0080AFF3 
 570      0080
 571              		.align	2
 572              		.set	.LANCHOR0,. + 0
 573              		.type	ICUD5, %object
 574              		.size	ICUD5, 24
 575              	ICUD5:
 576 0000 00000000 		.space	24
 576      00000000 
 576      00000000 
 576      00000000 
 576      00000000 
 577              		.section	.rodata.str1.4,"aMS",%progbits,1
 578              		.align	2
 579              	.LC0:
 580 0000 6963755F 		.ascii	"icu_lld_start(), #1\000"
 580      6C6C645F 
 580      73746172 
 580      7428292C 
 580      20233100 
 581              		.text
 582              	.Letext0:
 583              		.file 2 "/opt/ARM/arm-none-eabi/include/machine/_default_types.h"
 584              		.file 3 "/opt/ARM/arm-none-eabi/include/stdint.h"
 585              		.file 4 "../../os/hal/platforms/STM32F4xx/stm32f4xx.h"
 586              		.file 5 "../../os/hal/include/icu.h"
 587              		.file 6 "../../os/hal/platforms/STM32/TIMv1/icu_lld.h"
 588              		.file 7 "../../os/hal/platforms/STM32/TIMv1/stm32_tim.h"
 589              		.file 8 "../../os/ports/common/ARMCMx/CMSIS/include/core_cm4.h"
 590              		.file 9 "../../os/kernel/include/chdebug.h"
 591              		.file 10 "../../os/ports/common/ARMCMx/nvic.h"
 592              		.file 11 "../../os/ports/GCC/ARMCMx/chcore_v7m.h"
 593              		.section	.debug_info,"",%progbits
 594              	.Ldebug_info0:
 595 0000 FA070000 		.4byte	0x7fa
 596 0004 0400     		.2byte	0x4
 597 0006 00000000 		.4byte	.Ldebug_abbrev0
 598 000a 04       		.byte	0x4
 599 000b 01       		.uleb128 0x1
 600 000c 12040000 		.4byte	.LASF101
 601 0010 01       		.byte	0x1
 602 0011 BD010000 		.4byte	.LASF102
 603 0015 7E020000 		.4byte	.LASF103
 604 0019 18000000 		.4byte	.Ldebug_ranges0+0x18
 605 001d 00000000 		.4byte	0
 606 0021 00000000 		.4byte	.Ldebug_line0
 607 0025 02       		.uleb128 0x2
 608 0026 04       		.byte	0x4
 609 0027 05       		.byte	0x5
 610 0028 696E7400 		.ascii	"int\000"
 611 002c 03       		.uleb128 0x3
 612 002d 04       		.byte	0x4
ARM GAS  /tmp/cc0Dp4m9.s 			page 12


 613 002e 07       		.byte	0x7
 614 002f C8020000 		.4byte	.LASF0
 615 0033 03       		.uleb128 0x3
 616 0034 01       		.byte	0x1
 617 0035 06       		.byte	0x6
 618 0036 62020000 		.4byte	.LASF1
 619 003a 03       		.uleb128 0x3
 620 003b 01       		.byte	0x1
 621 003c 08       		.byte	0x8
 622 003d 22020000 		.4byte	.LASF2
 623 0041 03       		.uleb128 0x3
 624 0042 02       		.byte	0x2
 625 0043 05       		.byte	0x5
 626 0044 65000000 		.4byte	.LASF3
 627 0048 04       		.uleb128 0x4
 628 0049 B5000000 		.4byte	.LASF5
 629 004d 02       		.byte	0x2
 630 004e 26       		.byte	0x26
 631 004f 53000000 		.4byte	0x53
 632 0053 03       		.uleb128 0x3
 633 0054 02       		.byte	0x2
 634 0055 07       		.byte	0x7
 635 0056 04030000 		.4byte	.LASF4
 636 005a 04       		.uleb128 0x4
 637 005b 08040000 		.4byte	.LASF6
 638 005f 02       		.byte	0x2
 639 0060 37       		.byte	0x37
 640 0061 65000000 		.4byte	0x65
 641 0065 03       		.uleb128 0x3
 642 0066 04       		.byte	0x4
 643 0067 05       		.byte	0x5
 644 0068 77010000 		.4byte	.LASF7
 645 006c 04       		.uleb128 0x4
 646 006d 9C000000 		.4byte	.LASF8
 647 0071 02       		.byte	0x2
 648 0072 38       		.byte	0x38
 649 0073 77000000 		.4byte	0x77
 650 0077 03       		.uleb128 0x3
 651 0078 04       		.byte	0x4
 652 0079 07       		.byte	0x7
 653 007a 9C010000 		.4byte	.LASF9
 654 007e 03       		.uleb128 0x3
 655 007f 08       		.byte	0x8
 656 0080 05       		.byte	0x5
 657 0081 42010000 		.4byte	.LASF10
 658 0085 03       		.uleb128 0x3
 659 0086 08       		.byte	0x8
 660 0087 07       		.byte	0x7
 661 0088 50010000 		.4byte	.LASF11
 662 008c 04       		.uleb128 0x4
 663 008d DE020000 		.4byte	.LASF12
 664 0091 03       		.byte	0x3
 665 0092 36       		.byte	0x36
 666 0093 48000000 		.4byte	0x48
 667 0097 04       		.uleb128 0x4
 668 0098 4F030000 		.4byte	.LASF13
 669 009c 03       		.byte	0x3
ARM GAS  /tmp/cc0Dp4m9.s 			page 13


 670 009d 41       		.byte	0x41
 671 009e 5A000000 		.4byte	0x5a
 672 00a2 04       		.uleb128 0x4
 673 00a3 1D010000 		.4byte	.LASF14
 674 00a7 03       		.byte	0x3
 675 00a8 42       		.byte	0x42
 676 00a9 6C000000 		.4byte	0x6c
 677 00ad 03       		.uleb128 0x3
 678 00ae 01       		.byte	0x1
 679 00af 02       		.byte	0x2
 680 00b0 FE020000 		.4byte	.LASF15
 681 00b4 05       		.uleb128 0x5
 682 00b5 A2000000 		.4byte	0xa2
 683 00b9 03       		.uleb128 0x3
 684 00ba 04       		.byte	0x4
 685 00bb 07       		.byte	0x7
 686 00bc 74000000 		.4byte	.LASF16
 687 00c0 06       		.uleb128 0x6
 688 00c1 04       		.byte	0x4
 689 00c2 C6000000 		.4byte	0xc6
 690 00c6 07       		.uleb128 0x7
 691 00c7 CB000000 		.4byte	0xcb
 692 00cb 03       		.uleb128 0x3
 693 00cc 01       		.byte	0x1
 694 00cd 08       		.byte	0x8
 695 00ce 21030000 		.4byte	.LASF17
 696 00d2 08       		.uleb128 0x8
 697 00d3 A2000000 		.4byte	0xa2
 698 00d7 E2000000 		.4byte	0xe2
 699 00db 09       		.uleb128 0x9
 700 00dc B9000000 		.4byte	0xb9
 701 00e0 01       		.byte	0x1
 702 00e1 00       		.byte	0
 703 00e2 08       		.uleb128 0x8
 704 00e3 A2000000 		.4byte	0xa2
 705 00e7 F2000000 		.4byte	0xf2
 706 00eb 09       		.uleb128 0x9
 707 00ec B9000000 		.4byte	0xb9
 708 00f0 03       		.byte	0x3
 709 00f1 00       		.byte	0
 710 00f2 05       		.uleb128 0x5
 711 00f3 97000000 		.4byte	0x97
 712 00f7 0A       		.uleb128 0xa
 713 00f8 90       		.byte	0x90
 714 00f9 04       		.byte	0x4
 715 00fa 5804     		.2byte	0x458
 716 00fc A0020000 		.4byte	0x2a0
 717 0100 0B       		.uleb128 0xb
 718 0101 435200   		.ascii	"CR\000"
 719 0104 04       		.byte	0x4
 720 0105 5A04     		.2byte	0x45a
 721 0107 B4000000 		.4byte	0xb4
 722 010b 00       		.byte	0
 723 010c 0C       		.uleb128 0xc
 724 010d 8A050000 		.4byte	.LASF18
 725 0111 04       		.byte	0x4
 726 0112 5B04     		.2byte	0x45b
ARM GAS  /tmp/cc0Dp4m9.s 			page 14


 727 0114 B4000000 		.4byte	0xb4
 728 0118 04       		.byte	0x4
 729 0119 0C       		.uleb128 0xc
 730 011a E0000000 		.4byte	.LASF19
 731 011e 04       		.byte	0x4
 732 011f 5C04     		.2byte	0x45c
 733 0121 B4000000 		.4byte	0xb4
 734 0125 08       		.byte	0x8
 735 0126 0B       		.uleb128 0xb
 736 0127 43495200 		.ascii	"CIR\000"
 737 012b 04       		.byte	0x4
 738 012c 5D04     		.2byte	0x45d
 739 012e B4000000 		.4byte	0xb4
 740 0132 0C       		.byte	0xc
 741 0133 0C       		.uleb128 0xc
 742 0134 D0000000 		.4byte	.LASF20
 743 0138 04       		.byte	0x4
 744 0139 5E04     		.2byte	0x45e
 745 013b B4000000 		.4byte	0xb4
 746 013f 10       		.byte	0x10
 747 0140 0C       		.uleb128 0xc
 748 0141 D5020000 		.4byte	.LASF21
 749 0145 04       		.byte	0x4
 750 0146 5F04     		.2byte	0x45f
 751 0148 B4000000 		.4byte	0xb4
 752 014c 14       		.byte	0x14
 753 014d 0C       		.uleb128 0xc
 754 014e 66050000 		.4byte	.LASF22
 755 0152 04       		.byte	0x4
 756 0153 6004     		.2byte	0x460
 757 0155 B4000000 		.4byte	0xb4
 758 0159 18       		.byte	0x18
 759 015a 0C       		.uleb128 0xc
 760 015b 8F030000 		.4byte	.LASF23
 761 015f 04       		.byte	0x4
 762 0160 6104     		.2byte	0x461
 763 0162 A2000000 		.4byte	0xa2
 764 0166 1C       		.byte	0x1c
 765 0167 0C       		.uleb128 0xc
 766 0168 A7000000 		.4byte	.LASF24
 767 016c 04       		.byte	0x4
 768 016d 6204     		.2byte	0x462
 769 016f B4000000 		.4byte	0xb4
 770 0173 20       		.byte	0x20
 771 0174 0C       		.uleb128 0xc
 772 0175 B4010000 		.4byte	.LASF25
 773 0179 04       		.byte	0x4
 774 017a 6304     		.2byte	0x463
 775 017c B4000000 		.4byte	0xb4
 776 0180 24       		.byte	0x24
 777 0181 0C       		.uleb128 0xc
 778 0182 E5000000 		.4byte	.LASF26
 779 0186 04       		.byte	0x4
 780 0187 6404     		.2byte	0x464
 781 0189 D2000000 		.4byte	0xd2
 782 018d 28       		.byte	0x28
 783 018e 0C       		.uleb128 0xc
ARM GAS  /tmp/cc0Dp4m9.s 			page 15


 784 018f F4030000 		.4byte	.LASF27
 785 0193 04       		.byte	0x4
 786 0194 6504     		.2byte	0x465
 787 0196 B4000000 		.4byte	0xb4
 788 019a 30       		.byte	0x30
 789 019b 0C       		.uleb128 0xc
 790 019c 4C000000 		.4byte	.LASF28
 791 01a0 04       		.byte	0x4
 792 01a1 6604     		.2byte	0x466
 793 01a3 B4000000 		.4byte	0xb4
 794 01a7 34       		.byte	0x34
 795 01a8 0C       		.uleb128 0xc
 796 01a9 E7020000 		.4byte	.LASF29
 797 01ad 04       		.byte	0x4
 798 01ae 6704     		.2byte	0x467
 799 01b0 B4000000 		.4byte	0xb4
 800 01b4 38       		.byte	0x38
 801 01b5 0C       		.uleb128 0xc
 802 01b6 AF030000 		.4byte	.LASF30
 803 01ba 04       		.byte	0x4
 804 01bb 6804     		.2byte	0x468
 805 01bd A2000000 		.4byte	0xa2
 806 01c1 3C       		.byte	0x3c
 807 01c2 0C       		.uleb128 0xc
 808 01c3 F9000000 		.4byte	.LASF31
 809 01c7 04       		.byte	0x4
 810 01c8 6904     		.2byte	0x469
 811 01ca B4000000 		.4byte	0xb4
 812 01ce 40       		.byte	0x40
 813 01cf 0C       		.uleb128 0xc
 814 01d0 3A020000 		.4byte	.LASF32
 815 01d4 04       		.byte	0x4
 816 01d5 6A04     		.2byte	0x46a
 817 01d7 B4000000 		.4byte	0xb4
 818 01db 44       		.byte	0x44
 819 01dc 0C       		.uleb128 0xc
 820 01dd B9030000 		.4byte	.LASF33
 821 01e1 04       		.byte	0x4
 822 01e2 6B04     		.2byte	0x46b
 823 01e4 D2000000 		.4byte	0xd2
 824 01e8 48       		.byte	0x48
 825 01e9 0C       		.uleb128 0xc
 826 01ea 00000000 		.4byte	.LASF34
 827 01ee 04       		.byte	0x4
 828 01ef 6C04     		.2byte	0x46c
 829 01f1 B4000000 		.4byte	0xb4
 830 01f5 50       		.byte	0x50
 831 01f6 0C       		.uleb128 0xc
 832 01f7 85030000 		.4byte	.LASF35
 833 01fb 04       		.byte	0x4
 834 01fc 6D04     		.2byte	0x46d
 835 01fe B4000000 		.4byte	0xb4
 836 0202 54       		.byte	0x54
 837 0203 0C       		.uleb128 0xc
 838 0204 EF000000 		.4byte	.LASF36
 839 0208 04       		.byte	0x4
 840 0209 6E04     		.2byte	0x46e
ARM GAS  /tmp/cc0Dp4m9.s 			page 16


 841 020b B4000000 		.4byte	0xb4
 842 020f 58       		.byte	0x58
 843 0210 0C       		.uleb128 0xc
 844 0211 C3030000 		.4byte	.LASF37
 845 0215 04       		.byte	0x4
 846 0216 6F04     		.2byte	0x46f
 847 0218 A2000000 		.4byte	0xa2
 848 021c 5C       		.byte	0x5c
 849 021d 0C       		.uleb128 0xc
 850 021e 17030000 		.4byte	.LASF38
 851 0222 04       		.byte	0x4
 852 0223 7004     		.2byte	0x470
 853 0225 B4000000 		.4byte	0xb4
 854 0229 60       		.byte	0x60
 855 022a 0C       		.uleb128 0xc
 856 022b 9D050000 		.4byte	.LASF39
 857 022f 04       		.byte	0x4
 858 0230 7104     		.2byte	0x471
 859 0232 B4000000 		.4byte	0xb4
 860 0236 64       		.byte	0x64
 861 0237 0C       		.uleb128 0xc
 862 0238 CD030000 		.4byte	.LASF40
 863 023c 04       		.byte	0x4
 864 023d 7204     		.2byte	0x472
 865 023f D2000000 		.4byte	0xd2
 866 0243 68       		.byte	0x68
 867 0244 0C       		.uleb128 0xc
 868 0245 7D000000 		.4byte	.LASF41
 869 0249 04       		.byte	0x4
 870 024a 7304     		.2byte	0x473
 871 024c B4000000 		.4byte	0xb4
 872 0250 70       		.byte	0x70
 873 0251 0B       		.uleb128 0xb
 874 0252 43535200 		.ascii	"CSR\000"
 875 0256 04       		.byte	0x4
 876 0257 7404     		.2byte	0x474
 877 0259 B4000000 		.4byte	0xb4
 878 025d 74       		.byte	0x74
 879 025e 0C       		.uleb128 0xc
 880 025f D7030000 		.4byte	.LASF42
 881 0263 04       		.byte	0x4
 882 0264 7504     		.2byte	0x475
 883 0266 D2000000 		.4byte	0xd2
 884 026a 78       		.byte	0x78
 885 026b 0C       		.uleb128 0xc
 886 026c 6C030000 		.4byte	.LASF43
 887 0270 04       		.byte	0x4
 888 0271 7604     		.2byte	0x476
 889 0273 B4000000 		.4byte	0xb4
 890 0277 80       		.byte	0x80
 891 0278 0C       		.uleb128 0xc
 892 0279 91000000 		.4byte	.LASF44
 893 027d 04       		.byte	0x4
 894 027e 7704     		.2byte	0x477
 895 0280 B4000000 		.4byte	0xb4
 896 0284 84       		.byte	0x84
 897 0285 0C       		.uleb128 0xc
ARM GAS  /tmp/cc0Dp4m9.s 			page 17


 898 0286 92050000 		.4byte	.LASF45
 899 028a 04       		.byte	0x4
 900 028b 7804     		.2byte	0x478
 901 028d B4000000 		.4byte	0xb4
 902 0291 88       		.byte	0x88
 903 0292 0C       		.uleb128 0xc
 904 0293 26010000 		.4byte	.LASF46
 905 0297 04       		.byte	0x4
 906 0298 7904     		.2byte	0x479
 907 029a B4000000 		.4byte	0xb4
 908 029e 8C       		.byte	0x8c
 909 029f 00       		.byte	0
 910 02a0 0D       		.uleb128 0xd
 911 02a1 1C000000 		.4byte	.LASF47
 912 02a5 04       		.byte	0x4
 913 02a6 7B04     		.2byte	0x47b
 914 02a8 F7000000 		.4byte	0xf7
 915 02ac 06       		.uleb128 0x6
 916 02ad 04       		.byte	0x4
 917 02ae B4000000 		.4byte	0xb4
 918 02b2 0E       		.uleb128 0xe
 919 02b3 01       		.byte	0x1
 920 02b4 05       		.byte	0x5
 921 02b5 3C       		.byte	0x3c
 922 02b6 DF020000 		.4byte	0x2df
 923 02ba 0F       		.uleb128 0xf
 924 02bb 7A030000 		.4byte	.LASF48
 925 02bf 00       		.sleb128 0
 926 02c0 0F       		.uleb128 0xf
 927 02c1 28000000 		.4byte	.LASF49
 928 02c5 01       		.sleb128 1
 929 02c6 0F       		.uleb128 0xf
 930 02c7 44050000 		.4byte	.LASF50
 931 02cb 02       		.sleb128 2
 932 02cc 0F       		.uleb128 0xf
 933 02cd B2050000 		.4byte	.LASF51
 934 02d1 03       		.sleb128 3
 935 02d2 0F       		.uleb128 0xf
 936 02d3 37010000 		.4byte	.LASF52
 937 02d7 04       		.sleb128 4
 938 02d8 0F       		.uleb128 0xf
 939 02d9 01020000 		.4byte	.LASF53
 940 02dd 05       		.sleb128 5
 941 02de 00       		.byte	0
 942 02df 04       		.uleb128 0x4
 943 02e0 A7050000 		.4byte	.LASF54
 944 02e4 05       		.byte	0x5
 945 02e5 43       		.byte	0x43
 946 02e6 B2020000 		.4byte	0x2b2
 947 02ea 04       		.uleb128 0x4
 948 02eb 30050000 		.4byte	.LASF55
 949 02ef 05       		.byte	0x5
 950 02f0 48       		.byte	0x48
 951 02f1 F5020000 		.4byte	0x2f5
 952 02f5 10       		.uleb128 0x10
 953 02f6 30050000 		.4byte	.LASF55
 954 02fa 18       		.byte	0x18
ARM GAS  /tmp/cc0Dp4m9.s 			page 18


 955 02fb 06       		.byte	0x6
 956 02fc 3101     		.2byte	0x131
 957 02fe 51030000 		.4byte	0x351
 958 0302 0C       		.uleb128 0xc
 959 0303 59000000 		.4byte	.LASF56
 960 0307 06       		.byte	0x6
 961 0308 3501     		.2byte	0x135
 962 030a DF020000 		.4byte	0x2df
 963 030e 00       		.byte	0
 964 030f 0C       		.uleb128 0xc
 965 0310 D9000000 		.4byte	.LASF57
 966 0314 06       		.byte	0x6
 967 0315 3901     		.2byte	0x139
 968 0317 59050000 		.4byte	0x559
 969 031b 04       		.byte	0x4
 970 031c 0C       		.uleb128 0xc
 971 031d E1030000 		.4byte	.LASF58
 972 0321 06       		.byte	0x6
 973 0322 4101     		.2byte	0x141
 974 0324 A2000000 		.4byte	0xa2
 975 0328 08       		.byte	0x8
 976 0329 0B       		.uleb128 0xb
 977 032a 74696D00 		.ascii	"tim\000"
 978 032e 06       		.byte	0x6
 979 032f 4501     		.2byte	0x145
 980 0331 64050000 		.4byte	0x564
 981 0335 0C       		.byte	0xc
 982 0336 0C       		.uleb128 0xc
 983 0337 71010000 		.4byte	.LASF59
 984 033b 06       		.byte	0x6
 985 033c 4901     		.2byte	0x149
 986 033e AC020000 		.4byte	0x2ac
 987 0342 10       		.byte	0x10
 988 0343 0C       		.uleb128 0xc
 989 0344 AE010000 		.4byte	.LASF60
 990 0348 06       		.byte	0x6
 991 0349 4D01     		.2byte	0x14d
 992 034b AC020000 		.4byte	0x2ac
 993 034f 14       		.byte	0x14
 994 0350 00       		.byte	0
 995 0351 04       		.uleb128 0x4
 996 0352 26030000 		.4byte	.LASF61
 997 0356 05       		.byte	0x5
 998 0357 4F       		.byte	0x4f
 999 0358 5C030000 		.4byte	0x35c
 1000 035c 06       		.uleb128 0x6
 1001 035d 04       		.byte	0x4
 1002 035e 62030000 		.4byte	0x362
 1003 0362 11       		.uleb128 0x11
 1004 0363 6D030000 		.4byte	0x36d
 1005 0367 12       		.uleb128 0x12
 1006 0368 6D030000 		.4byte	0x36d
 1007 036c 00       		.byte	0
 1008 036d 06       		.uleb128 0x6
 1009 036e 04       		.byte	0x4
 1010 036f EA020000 		.4byte	0x2ea
 1011 0373 0A       		.uleb128 0xa
ARM GAS  /tmp/cc0Dp4m9.s 			page 19


 1012 0374 60       		.byte	0x60
 1013 0375 07       		.byte	0x7
 1014 0376 9E01     		.2byte	0x19e
 1015 0378 8C040000 		.4byte	0x48c
 1016 037c 0B       		.uleb128 0xb
 1017 037d 43523100 		.ascii	"CR1\000"
 1018 0381 07       		.byte	0x7
 1019 0382 9F01     		.2byte	0x19f
 1020 0384 B4000000 		.4byte	0xb4
 1021 0388 00       		.byte	0
 1022 0389 0B       		.uleb128 0xb
 1023 038a 43523200 		.ascii	"CR2\000"
 1024 038e 07       		.byte	0x7
 1025 038f A001     		.2byte	0x1a0
 1026 0391 B4000000 		.4byte	0xb4
 1027 0395 04       		.byte	0x4
 1028 0396 0C       		.uleb128 0xc
 1029 0397 0A020000 		.4byte	.LASF62
 1030 039b 07       		.byte	0x7
 1031 039c A101     		.2byte	0x1a1
 1032 039e B4000000 		.4byte	0xb4
 1033 03a2 08       		.byte	0x8
 1034 03a3 0C       		.uleb128 0xc
 1035 03a4 EF020000 		.4byte	.LASF63
 1036 03a8 07       		.byte	0x7
 1037 03a9 A201     		.2byte	0x1a2
 1038 03ab B4000000 		.4byte	0xb4
 1039 03af 0C       		.byte	0xc
 1040 03b0 0B       		.uleb128 0xb
 1041 03b1 535200   		.ascii	"SR\000"
 1042 03b4 07       		.byte	0x7
 1043 03b5 A301     		.2byte	0x1a3
 1044 03b7 B4000000 		.4byte	0xb4
 1045 03bb 10       		.byte	0x10
 1046 03bc 0B       		.uleb128 0xb
 1047 03bd 45475200 		.ascii	"EGR\000"
 1048 03c1 07       		.byte	0x7
 1049 03c2 A401     		.2byte	0x1a4
 1050 03c4 B4000000 		.4byte	0xb4
 1051 03c8 14       		.byte	0x14
 1052 03c9 0C       		.uleb128 0xc
 1053 03ca EA010000 		.4byte	.LASF64
 1054 03ce 07       		.byte	0x7
 1055 03cf A501     		.2byte	0x1a5
 1056 03d1 B4000000 		.4byte	0xb4
 1057 03d5 18       		.byte	0x18
 1058 03d6 0C       		.uleb128 0xc
 1059 03d7 5F000000 		.4byte	.LASF65
 1060 03db 07       		.byte	0x7
 1061 03dc A601     		.2byte	0x1a6
 1062 03de B4000000 		.4byte	0xb4
 1063 03e2 1C       		.byte	0x1c
 1064 03e3 0C       		.uleb128 0xc
 1065 03e4 17000000 		.4byte	.LASF66
 1066 03e8 07       		.byte	0x7
 1067 03e9 A701     		.2byte	0x1a7
 1068 03eb B4000000 		.4byte	0xb4
ARM GAS  /tmp/cc0Dp4m9.s 			page 20


 1069 03ef 20       		.byte	0x20
 1070 03f0 0B       		.uleb128 0xb
 1071 03f1 434E5400 		.ascii	"CNT\000"
 1072 03f5 07       		.byte	0x7
 1073 03f6 A801     		.2byte	0x1a8
 1074 03f8 B4000000 		.4byte	0xb4
 1075 03fc 24       		.byte	0x24
 1076 03fd 0B       		.uleb128 0xb
 1077 03fe 50534300 		.ascii	"PSC\000"
 1078 0402 07       		.byte	0x7
 1079 0403 A901     		.2byte	0x1a9
 1080 0405 B4000000 		.4byte	0xb4
 1081 0409 28       		.byte	0x28
 1082 040a 0B       		.uleb128 0xb
 1083 040b 41525200 		.ascii	"ARR\000"
 1084 040f 07       		.byte	0x7
 1085 0410 AA01     		.2byte	0x1aa
 1086 0412 B4000000 		.4byte	0xb4
 1087 0416 2C       		.byte	0x2c
 1088 0417 0B       		.uleb128 0xb
 1089 0418 52435200 		.ascii	"RCR\000"
 1090 041c 07       		.byte	0x7
 1091 041d AB01     		.2byte	0x1ab
 1092 041f B4000000 		.4byte	0xb4
 1093 0423 30       		.byte	0x30
 1094 0424 0B       		.uleb128 0xb
 1095 0425 43435200 		.ascii	"CCR\000"
 1096 0429 07       		.byte	0x7
 1097 042a AC01     		.2byte	0x1ac
 1098 042c 8C040000 		.4byte	0x48c
 1099 0430 34       		.byte	0x34
 1100 0431 0C       		.uleb128 0xc
 1101 0432 4A030000 		.4byte	.LASF67
 1102 0436 07       		.byte	0x7
 1103 0437 AD01     		.2byte	0x1ad
 1104 0439 B4000000 		.4byte	0xb4
 1105 043d 44       		.byte	0x44
 1106 043e 0B       		.uleb128 0xb
 1107 043f 44435200 		.ascii	"DCR\000"
 1108 0443 07       		.byte	0x7
 1109 0444 AE01     		.2byte	0x1ae
 1110 0446 B4000000 		.4byte	0xb4
 1111 044a 48       		.byte	0x48
 1112 044b 0C       		.uleb128 0xc
 1113 044c 54000000 		.4byte	.LASF68
 1114 0450 07       		.byte	0x7
 1115 0451 AF01     		.2byte	0x1af
 1116 0453 B4000000 		.4byte	0xb4
 1117 0457 4C       		.byte	0x4c
 1118 0458 0B       		.uleb128 0xb
 1119 0459 4F5200   		.ascii	"OR\000"
 1120 045c 07       		.byte	0x7
 1121 045d B001     		.2byte	0x1b0
 1122 045f B4000000 		.4byte	0xb4
 1123 0463 50       		.byte	0x50
 1124 0464 0C       		.uleb128 0xc
 1125 0465 F0010000 		.4byte	.LASF69
ARM GAS  /tmp/cc0Dp4m9.s 			page 21


 1126 0469 07       		.byte	0x7
 1127 046a B101     		.2byte	0x1b1
 1128 046c B4000000 		.4byte	0xb4
 1129 0470 54       		.byte	0x54
 1130 0471 0C       		.uleb128 0xc
 1131 0472 92010000 		.4byte	.LASF70
 1132 0476 07       		.byte	0x7
 1133 0477 B201     		.2byte	0x1b2
 1134 0479 B4000000 		.4byte	0xb4
 1135 047d 58       		.byte	0x58
 1136 047e 0C       		.uleb128 0xc
 1137 047f 97010000 		.4byte	.LASF71
 1138 0483 07       		.byte	0x7
 1139 0484 B301     		.2byte	0x1b3
 1140 0486 B4000000 		.4byte	0xb4
 1141 048a 5C       		.byte	0x5c
 1142 048b 00       		.byte	0
 1143 048c 05       		.uleb128 0x5
 1144 048d E2000000 		.4byte	0xe2
 1145 0491 0D       		.uleb128 0xd
 1146 0492 34030000 		.4byte	.LASF72
 1147 0496 07       		.byte	0x7
 1148 0497 B401     		.2byte	0x1b4
 1149 0499 73030000 		.4byte	0x373
 1150 049d 0E       		.uleb128 0xe
 1151 049e 01       		.byte	0x1
 1152 049f 06       		.byte	0x6
 1153 04a0 EE       		.byte	0xee
 1154 04a1 B2040000 		.4byte	0x4b2
 1155 04a5 0F       		.uleb128 0xf
 1156 04a6 99030000 		.4byte	.LASF73
 1157 04aa 00       		.sleb128 0
 1158 04ab 0F       		.uleb128 0xf
 1159 04ac 57030000 		.4byte	.LASF74
 1160 04b0 01       		.sleb128 1
 1161 04b1 00       		.byte	0
 1162 04b2 04       		.uleb128 0x4
 1163 04b3 67010000 		.4byte	.LASF75
 1164 04b7 06       		.byte	0x6
 1165 04b8 F1       		.byte	0xf1
 1166 04b9 9D040000 		.4byte	0x49d
 1167 04bd 04       		.uleb128 0x4
 1168 04be F4020000 		.4byte	.LASF76
 1169 04c2 06       		.byte	0x6
 1170 04c3 F6       		.byte	0xf6
 1171 04c4 A2000000 		.4byte	0xa2
 1172 04c8 0E       		.uleb128 0xe
 1173 04c9 01       		.byte	0x1
 1174 04ca 06       		.byte	0x6
 1175 04cb FB       		.byte	0xfb
 1176 04cc DD040000 		.4byte	0x4dd
 1177 04d0 0F       		.uleb128 0xf
 1178 04d1 01010000 		.4byte	.LASF77
 1179 04d5 00       		.sleb128 0
 1180 04d6 0F       		.uleb128 0xf
 1181 04d7 0F010000 		.4byte	.LASF78
 1182 04db 01       		.sleb128 1
ARM GAS  /tmp/cc0Dp4m9.s 			page 22


 1183 04dc 00       		.byte	0
 1184 04dd 04       		.uleb128 0x4
 1185 04de 31000000 		.4byte	.LASF79
 1186 04e2 06       		.byte	0x6
 1187 04e3 FE       		.byte	0xfe
 1188 04e4 C8040000 		.4byte	0x4c8
 1189 04e8 0A       		.uleb128 0xa
 1190 04e9 1C       		.byte	0x1c
 1191 04ea 06       		.byte	0x6
 1192 04eb 0901     		.2byte	0x109
 1193 04ed 4D050000 		.4byte	0x54d
 1194 04f1 0C       		.uleb128 0xc
 1195 04f2 B0000000 		.4byte	.LASF80
 1196 04f6 06       		.byte	0x6
 1197 04f7 0D01     		.2byte	0x10d
 1198 04f9 B2040000 		.4byte	0x4b2
 1199 04fd 00       		.byte	0
 1200 04fe 0C       		.uleb128 0xc
 1201 04ff 3A050000 		.4byte	.LASF81
 1202 0503 06       		.byte	0x6
 1203 0504 1301     		.2byte	0x113
 1204 0506 BD040000 		.4byte	0x4bd
 1205 050a 04       		.byte	0x4
 1206 050b 0C       		.uleb128 0xc
 1207 050c 2E010000 		.4byte	.LASF82
 1208 0510 06       		.byte	0x6
 1209 0511 1701     		.2byte	0x117
 1210 0513 51030000 		.4byte	0x351
 1211 0517 08       		.byte	0x8
 1212 0518 0C       		.uleb128 0xc
 1213 0519 40030000 		.4byte	.LASF83
 1214 051d 06       		.byte	0x6
 1215 051e 1B01     		.2byte	0x11b
 1216 0520 51030000 		.4byte	0x351
 1217 0524 0C       		.byte	0xc
 1218 0525 0C       		.uleb128 0xc
 1219 0526 FC030000 		.4byte	.LASF84
 1220 052a 06       		.byte	0x6
 1221 052b 1F01     		.2byte	0x11f
 1222 052d 51030000 		.4byte	0x351
 1223 0531 10       		.byte	0x10
 1224 0532 0C       		.uleb128 0xc
 1225 0533 72030000 		.4byte	.LASF85
 1226 0537 06       		.byte	0x6
 1227 0538 2501     		.2byte	0x125
 1228 053a DD040000 		.4byte	0x4dd
 1229 053e 14       		.byte	0x14
 1230 053f 0C       		.uleb128 0xc
 1231 0540 2B050000 		.4byte	.LASF86
 1232 0544 06       		.byte	0x6
 1233 0545 2B01     		.2byte	0x12b
 1234 0547 A2000000 		.4byte	0xa2
 1235 054b 18       		.byte	0x18
 1236 054c 00       		.byte	0
 1237 054d 0D       		.uleb128 0xd
 1238 054e 30020000 		.4byte	.LASF87
 1239 0552 06       		.byte	0x6
ARM GAS  /tmp/cc0Dp4m9.s 			page 23


 1240 0553 2C01     		.2byte	0x12c
 1241 0555 E8040000 		.4byte	0x4e8
 1242 0559 06       		.uleb128 0x6
 1243 055a 04       		.byte	0x4
 1244 055b 5F050000 		.4byte	0x55f
 1245 055f 07       		.uleb128 0x7
 1246 0560 4D050000 		.4byte	0x54d
 1247 0564 06       		.uleb128 0x6
 1248 0565 04       		.byte	0x4
 1249 0566 91040000 		.4byte	0x491
 1250 056a 13       		.uleb128 0x13
 1251 056b 4E050000 		.4byte	.LASF104
 1252 056f 01       		.byte	0x1
 1253 0570 6F       		.byte	0x6f
 1254 0571 01       		.byte	0x1
 1255 0572 AA050000 		.4byte	0x5aa
 1256 0576 14       		.uleb128 0x14
 1257 0577 6F000000 		.4byte	.LASF93
 1258 057b 01       		.byte	0x1
 1259 057c 6F       		.byte	0x6f
 1260 057d 6D030000 		.4byte	0x36d
 1261 0581 15       		.uleb128 0x15
 1262 0582 737200   		.ascii	"sr\000"
 1263 0585 01       		.byte	0x1
 1264 0586 70       		.byte	0x70
 1265 0587 8C000000 		.4byte	0x8c
 1266 058b 16       		.uleb128 0x16
 1267 058c 9C050000 		.4byte	0x59c
 1268 0590 17       		.uleb128 0x17
 1269 0591 53020000 		.4byte	.LASF88
 1270 0595 01       		.byte	0x1
 1271 0596 77       		.byte	0x77
 1272 0597 DF020000 		.4byte	0x2df
 1273 059b 00       		.byte	0
 1274 059c 18       		.uleb128 0x18
 1275 059d 17       		.uleb128 0x17
 1276 059e 53020000 		.4byte	.LASF88
 1277 05a2 01       		.byte	0x1
 1278 05a3 7E       		.byte	0x7e
 1279 05a4 DF020000 		.4byte	0x2df
 1280 05a8 00       		.byte	0
 1281 05a9 00       		.byte	0
 1282 05aa 19       		.uleb128 0x19
 1283 05ab 74020000 		.4byte	.LASF89
 1284 05af 01       		.byte	0x1
 1285 05b0 0001     		.2byte	0x100
 1286 05b2 00000000 		.4byte	.LFB112
 1287 05b6 8C000000 		.4byte	.LFE112-.LFB112
 1288 05ba 01       		.uleb128 0x1
 1289 05bb 9C       		.byte	0x9c
 1290 05bc 6C060000 		.4byte	0x66c
 1291 05c0 1A       		.uleb128 0x1a
 1292 05c1 6A050000 		.4byte	0x56a
 1293 05c5 02000000 		.4byte	.LBB8
 1294 05c9 00000000 		.4byte	.Ldebug_ranges0+0
 1295 05cd 01       		.byte	0x1
 1296 05ce 0401     		.2byte	0x104
ARM GAS  /tmp/cc0Dp4m9.s 			page 24


 1297 05d0 62060000 		.4byte	0x662
 1298 05d4 1B       		.uleb128 0x1b
 1299 05d5 76050000 		.4byte	0x576
 1300 05d9 06       		.uleb128 0x6
 1301 05da 03       		.byte	0x3
 1302 05db 00000000 		.4byte	ICUD5
 1303 05df 9F       		.byte	0x9f
 1304 05e0 1C       		.uleb128 0x1c
 1305 05e1 00000000 		.4byte	.Ldebug_ranges0+0
 1306 05e5 1D       		.uleb128 0x1d
 1307 05e6 81050000 		.4byte	0x581
 1308 05ea 00000000 		.4byte	.LLST0
 1309 05ee 1E       		.uleb128 0x1e
 1310 05ef 1E000000 		.4byte	.LBB10
 1311 05f3 10000000 		.4byte	.LBE10-.LBB10
 1312 05f7 11060000 		.4byte	0x611
 1313 05fb 1D       		.uleb128 0x1d
 1314 05fc 90050000 		.4byte	0x590
 1315 0600 33000000 		.4byte	.LLST1
 1316 0604 1F       		.uleb128 0x1f
 1317 0605 2E000000 		.4byte	.LVL4
 1318 0609 20       		.uleb128 0x20
 1319 060a 01       		.uleb128 0x1
 1320 060b 50       		.byte	0x50
 1321 060c 02       		.uleb128 0x2
 1322 060d 74       		.byte	0x74
 1323 060e 00       		.sleb128 0
 1324 060f 00       		.byte	0
 1325 0610 00       		.byte	0
 1326 0611 1E       		.uleb128 0x1e
 1327 0612 5E000000 		.4byte	.LBB11
 1328 0616 14000000 		.4byte	.LBE11-.LBB11
 1329 061a 34060000 		.4byte	0x634
 1330 061e 1D       		.uleb128 0x1d
 1331 061f 9D050000 		.4byte	0x59d
 1332 0623 4A000000 		.4byte	.LLST2
 1333 0627 1F       		.uleb128 0x1f
 1334 0628 70000000 		.4byte	.LVL10
 1335 062c 20       		.uleb128 0x20
 1336 062d 01       		.uleb128 0x1
 1337 062e 50       		.byte	0x50
 1338 062f 02       		.uleb128 0x2
 1339 0630 74       		.byte	0x74
 1340 0631 00       		.sleb128 0
 1341 0632 00       		.byte	0
 1342 0633 00       		.byte	0
 1343 0634 21       		.uleb128 0x21
 1344 0635 3E000000 		.4byte	.LVL5
 1345 0639 44060000 		.4byte	0x644
 1346 063d 20       		.uleb128 0x20
 1347 063e 01       		.uleb128 0x1
 1348 063f 50       		.byte	0x50
 1349 0640 02       		.uleb128 0x2
 1350 0641 74       		.byte	0x74
 1351 0642 00       		.sleb128 0
 1352 0643 00       		.byte	0
 1353 0644 21       		.uleb128 0x21
ARM GAS  /tmp/cc0Dp4m9.s 			page 25


 1354 0645 5A000000 		.4byte	.LVL8
 1355 0649 54060000 		.4byte	0x654
 1356 064d 20       		.uleb128 0x20
 1357 064e 01       		.uleb128 0x1
 1358 064f 50       		.byte	0x50
 1359 0650 02       		.uleb128 0x2
 1360 0651 74       		.byte	0x74
 1361 0652 00       		.sleb128 0
 1362 0653 00       		.byte	0
 1363 0654 1F       		.uleb128 0x1f
 1364 0655 84000000 		.4byte	.LVL11
 1365 0659 20       		.uleb128 0x20
 1366 065a 01       		.uleb128 0x1
 1367 065b 50       		.byte	0x50
 1368 065c 02       		.uleb128 0x2
 1369 065d 74       		.byte	0x74
 1370 065e 00       		.sleb128 0
 1371 065f 00       		.byte	0
 1372 0660 00       		.byte	0
 1373 0661 00       		.byte	0
 1374 0662 22       		.uleb128 0x22
 1375 0663 46000000 		.4byte	.LVL7
 1376 0667 AE070000 		.4byte	0x7ae
 1377 066b 00       		.byte	0
 1378 066c 19       		.uleb128 0x19
 1379 066d E7030000 		.4byte	.LASF90
 1380 0671 01       		.byte	0x1
 1381 0672 5301     		.2byte	0x153
 1382 0674 00000000 		.4byte	.LFB113
 1383 0678 18000000 		.4byte	.LFE113-.LFB113
 1384 067c 01       		.uleb128 0x1
 1385 067d 9C       		.byte	0x9c
 1386 067e 93060000 		.4byte	0x693
 1387 0682 23       		.uleb128 0x23
 1388 0683 0A000000 		.4byte	.LVL12
 1389 0687 B6070000 		.4byte	0x7b6
 1390 068b 20       		.uleb128 0x20
 1391 068c 01       		.uleb128 0x1
 1392 068d 50       		.byte	0x50
 1393 068e 02       		.uleb128 0x2
 1394 068f 74       		.byte	0x74
 1395 0690 00       		.sleb128 0
 1396 0691 00       		.byte	0
 1397 0692 00       		.byte	0
 1398 0693 19       		.uleb128 0x19
 1399 0694 3E000000 		.4byte	.LASF91
 1400 0698 01       		.byte	0x1
 1401 0699 8701     		.2byte	0x187
 1402 069b 00000000 		.4byte	.LFB114
 1403 069f E4000000 		.4byte	.LFE114-.LFB114
 1404 06a3 01       		.uleb128 0x1
 1405 06a4 9C       		.byte	0x9c
 1406 06a5 0E070000 		.4byte	0x70e
 1407 06a9 24       		.uleb128 0x24
 1408 06aa 6F000000 		.4byte	.LASF93
 1409 06ae 01       		.byte	0x1
 1410 06af 8701     		.2byte	0x187
ARM GAS  /tmp/cc0Dp4m9.s 			page 26


 1411 06b1 6D030000 		.4byte	0x36d
 1412 06b5 61000000 		.4byte	.LLST3
 1413 06b9 25       		.uleb128 0x25
 1414 06ba 70736300 		.ascii	"psc\000"
 1415 06be 01       		.byte	0x1
 1416 06bf 8801     		.2byte	0x188
 1417 06c1 A2000000 		.4byte	0xa2
 1418 06c5 7F000000 		.4byte	.LLST4
 1419 06c9 26       		.uleb128 0x26
 1420 06ca 12000000 		.4byte	.LVL15
 1421 06ce C7070000 		.4byte	0x7c7
 1422 06d2 E0060000 		.4byte	0x6e0
 1423 06d6 20       		.uleb128 0x20
 1424 06d7 01       		.uleb128 0x1
 1425 06d8 50       		.byte	0x50
 1426 06d9 05       		.uleb128 0x5
 1427 06da 03       		.byte	0x3
 1428 06db 00000000 		.4byte	.LC0
 1429 06df 00       		.byte	0
 1430 06e0 26       		.uleb128 0x26
 1431 06e1 4E000000 		.4byte	.LVL17
 1432 06e5 C7070000 		.4byte	0x7c7
 1433 06e9 F7060000 		.4byte	0x6f7
 1434 06ed 20       		.uleb128 0x20
 1435 06ee 01       		.uleb128 0x1
 1436 06ef 50       		.byte	0x50
 1437 06f0 05       		.uleb128 0x5
 1438 06f1 03       		.byte	0x3
 1439 06f2 00000000 		.4byte	.LC0
 1440 06f6 00       		.byte	0
 1441 06f7 23       		.uleb128 0x23
 1442 06f8 CE000000 		.4byte	.LVL21
 1443 06fc D8070000 		.4byte	0x7d8
 1444 0700 20       		.uleb128 0x20
 1445 0701 01       		.uleb128 0x1
 1446 0702 51       		.byte	0x51
 1447 0703 02       		.uleb128 0x2
 1448 0704 08       		.byte	0x8
 1449 0705 70       		.byte	0x70
 1450 0706 20       		.uleb128 0x20
 1451 0707 01       		.uleb128 0x1
 1452 0708 50       		.byte	0x50
 1453 0709 02       		.uleb128 0x2
 1454 070a 08       		.byte	0x8
 1455 070b 32       		.byte	0x32
 1456 070c 00       		.byte	0
 1457 070d 00       		.byte	0
 1458 070e 19       		.uleb128 0x19
 1459 070f 0A000000 		.4byte	.LASF92
 1460 0713 01       		.byte	0x1
 1461 0714 2902     		.2byte	0x229
 1462 0716 00000000 		.4byte	.LFB115
 1463 071a 34000000 		.4byte	.LFE115-.LFB115
 1464 071e 01       		.uleb128 0x1
 1465 071f 9C       		.byte	0x9c
 1466 0720 45070000 		.4byte	0x745
 1467 0724 24       		.uleb128 0x24
ARM GAS  /tmp/cc0Dp4m9.s 			page 27


 1468 0725 6F000000 		.4byte	.LASF93
 1469 0729 01       		.byte	0x1
 1470 072a 2902     		.2byte	0x229
 1471 072c 6D030000 		.4byte	0x36d
 1472 0730 92000000 		.4byte	.LLST5
 1473 0734 23       		.uleb128 0x23
 1474 0735 20000000 		.4byte	.LVL26
 1475 0739 EF070000 		.4byte	0x7ef
 1476 073d 20       		.uleb128 0x20
 1477 073e 01       		.uleb128 0x1
 1478 073f 50       		.byte	0x50
 1479 0740 02       		.uleb128 0x2
 1480 0741 08       		.byte	0x8
 1481 0742 32       		.byte	0x32
 1482 0743 00       		.byte	0
 1483 0744 00       		.byte	0
 1484 0745 19       		.uleb128 0x19
 1485 0746 82000000 		.4byte	.LASF94
 1486 074a 01       		.byte	0x1
 1487 074b 6702     		.2byte	0x267
 1488 074d 00000000 		.4byte	.LFB116
 1489 0751 58000000 		.4byte	.LFE116-.LFB116
 1490 0755 01       		.uleb128 0x1
 1491 0756 9C       		.byte	0x9c
 1492 0757 6C070000 		.4byte	0x76c
 1493 075b 24       		.uleb128 0x24
 1494 075c 6F000000 		.4byte	.LASF93
 1495 0760 01       		.byte	0x1
 1496 0761 6702     		.2byte	0x267
 1497 0763 6D030000 		.4byte	0x36d
 1498 0767 CC000000 		.4byte	.LLST6
 1499 076b 00       		.byte	0
 1500 076c 19       		.uleb128 0x19
 1501 076d C0000000 		.4byte	.LASF95
 1502 0771 01       		.byte	0x1
 1503 0772 8202     		.2byte	0x282
 1504 0774 00000000 		.4byte	.LFB117
 1505 0778 12000000 		.4byte	.LFE117-.LFB117
 1506 077c 01       		.uleb128 0x1
 1507 077d 9C       		.byte	0x9c
 1508 077e 91070000 		.4byte	0x791
 1509 0782 27       		.uleb128 0x27
 1510 0783 6F000000 		.4byte	.LASF93
 1511 0787 01       		.byte	0x1
 1512 0788 8202     		.2byte	0x282
 1513 078a 6D030000 		.4byte	0x36d
 1514 078e 01       		.uleb128 0x1
 1515 078f 50       		.byte	0x50
 1516 0790 00       		.byte	0
 1517 0791 28       		.uleb128 0x28
 1518 0792 7D050000 		.4byte	.LASF96
 1519 0796 08       		.byte	0x8
 1520 0797 9806     		.2byte	0x698
 1521 0799 F2000000 		.4byte	0xf2
 1522 079d 29       		.uleb128 0x29
 1523 079e 6E020000 		.4byte	.LASF97
 1524 07a2 01       		.byte	0x1
ARM GAS  /tmp/cc0Dp4m9.s 			page 28


 1525 07a3 4F       		.byte	0x4f
 1526 07a4 EA020000 		.4byte	0x2ea
 1527 07a8 05       		.uleb128 0x5
 1528 07a9 03       		.byte	0x3
 1529 07aa 00000000 		.4byte	ICUD5
 1530 07ae 2A       		.uleb128 0x2a
 1531 07af 0F020000 		.4byte	.LASF105
 1532 07b3 0B       		.byte	0xb
 1533 07b4 0302     		.2byte	0x203
 1534 07b6 2B       		.uleb128 0x2b
 1535 07b7 6F050000 		.4byte	.LASF98
 1536 07bb 05       		.byte	0x5
 1537 07bc BE       		.byte	0xbe
 1538 07bd C7070000 		.4byte	0x7c7
 1539 07c1 12       		.uleb128 0x12
 1540 07c2 6D030000 		.4byte	0x36d
 1541 07c6 00       		.byte	0
 1542 07c7 2B       		.uleb128 0x2b
 1543 07c8 F6010000 		.4byte	.LASF99
 1544 07cc 09       		.byte	0x9
 1545 07cd F6       		.byte	0xf6
 1546 07ce D8070000 		.4byte	0x7d8
 1547 07d2 12       		.uleb128 0x12
 1548 07d3 C0000000 		.4byte	0xc0
 1549 07d7 00       		.byte	0
 1550 07d8 2C       		.uleb128 0x2c
 1551 07d9 42020000 		.4byte	.LASF100
 1552 07dd 0A       		.byte	0xa
 1553 07de 2301     		.2byte	0x123
 1554 07e0 EF070000 		.4byte	0x7ef
 1555 07e4 12       		.uleb128 0x12
 1556 07e5 A2000000 		.4byte	0xa2
 1557 07e9 12       		.uleb128 0x12
 1558 07ea A2000000 		.4byte	0xa2
 1559 07ee 00       		.byte	0
 1560 07ef 2D       		.uleb128 0x2d
 1561 07f0 80010000 		.4byte	.LASF106
 1562 07f4 0A       		.byte	0xa
 1563 07f5 2401     		.2byte	0x124
 1564 07f7 12       		.uleb128 0x12
 1565 07f8 A2000000 		.4byte	0xa2
 1566 07fc 00       		.byte	0
 1567 07fd 00       		.byte	0
 1568              		.section	.debug_abbrev,"",%progbits
 1569              	.Ldebug_abbrev0:
 1570 0000 01       		.uleb128 0x1
 1571 0001 11       		.uleb128 0x11
 1572 0002 01       		.byte	0x1
 1573 0003 25       		.uleb128 0x25
 1574 0004 0E       		.uleb128 0xe
 1575 0005 13       		.uleb128 0x13
 1576 0006 0B       		.uleb128 0xb
 1577 0007 03       		.uleb128 0x3
 1578 0008 0E       		.uleb128 0xe
 1579 0009 1B       		.uleb128 0x1b
 1580 000a 0E       		.uleb128 0xe
 1581 000b 55       		.uleb128 0x55
ARM GAS  /tmp/cc0Dp4m9.s 			page 29


 1582 000c 17       		.uleb128 0x17
 1583 000d 11       		.uleb128 0x11
 1584 000e 01       		.uleb128 0x1
 1585 000f 10       		.uleb128 0x10
 1586 0010 17       		.uleb128 0x17
 1587 0011 00       		.byte	0
 1588 0012 00       		.byte	0
 1589 0013 02       		.uleb128 0x2
 1590 0014 24       		.uleb128 0x24
 1591 0015 00       		.byte	0
 1592 0016 0B       		.uleb128 0xb
 1593 0017 0B       		.uleb128 0xb
 1594 0018 3E       		.uleb128 0x3e
 1595 0019 0B       		.uleb128 0xb
 1596 001a 03       		.uleb128 0x3
 1597 001b 08       		.uleb128 0x8
 1598 001c 00       		.byte	0
 1599 001d 00       		.byte	0
 1600 001e 03       		.uleb128 0x3
 1601 001f 24       		.uleb128 0x24
 1602 0020 00       		.byte	0
 1603 0021 0B       		.uleb128 0xb
 1604 0022 0B       		.uleb128 0xb
 1605 0023 3E       		.uleb128 0x3e
 1606 0024 0B       		.uleb128 0xb
 1607 0025 03       		.uleb128 0x3
 1608 0026 0E       		.uleb128 0xe
 1609 0027 00       		.byte	0
 1610 0028 00       		.byte	0
 1611 0029 04       		.uleb128 0x4
 1612 002a 16       		.uleb128 0x16
 1613 002b 00       		.byte	0
 1614 002c 03       		.uleb128 0x3
 1615 002d 0E       		.uleb128 0xe
 1616 002e 3A       		.uleb128 0x3a
 1617 002f 0B       		.uleb128 0xb
 1618 0030 3B       		.uleb128 0x3b
 1619 0031 0B       		.uleb128 0xb
 1620 0032 49       		.uleb128 0x49
 1621 0033 13       		.uleb128 0x13
 1622 0034 00       		.byte	0
 1623 0035 00       		.byte	0
 1624 0036 05       		.uleb128 0x5
 1625 0037 35       		.uleb128 0x35
 1626 0038 00       		.byte	0
 1627 0039 49       		.uleb128 0x49
 1628 003a 13       		.uleb128 0x13
 1629 003b 00       		.byte	0
 1630 003c 00       		.byte	0
 1631 003d 06       		.uleb128 0x6
 1632 003e 0F       		.uleb128 0xf
 1633 003f 00       		.byte	0
 1634 0040 0B       		.uleb128 0xb
 1635 0041 0B       		.uleb128 0xb
 1636 0042 49       		.uleb128 0x49
 1637 0043 13       		.uleb128 0x13
 1638 0044 00       		.byte	0
ARM GAS  /tmp/cc0Dp4m9.s 			page 30


 1639 0045 00       		.byte	0
 1640 0046 07       		.uleb128 0x7
 1641 0047 26       		.uleb128 0x26
 1642 0048 00       		.byte	0
 1643 0049 49       		.uleb128 0x49
 1644 004a 13       		.uleb128 0x13
 1645 004b 00       		.byte	0
 1646 004c 00       		.byte	0
 1647 004d 08       		.uleb128 0x8
 1648 004e 01       		.uleb128 0x1
 1649 004f 01       		.byte	0x1
 1650 0050 49       		.uleb128 0x49
 1651 0051 13       		.uleb128 0x13
 1652 0052 01       		.uleb128 0x1
 1653 0053 13       		.uleb128 0x13
 1654 0054 00       		.byte	0
 1655 0055 00       		.byte	0
 1656 0056 09       		.uleb128 0x9
 1657 0057 21       		.uleb128 0x21
 1658 0058 00       		.byte	0
 1659 0059 49       		.uleb128 0x49
 1660 005a 13       		.uleb128 0x13
 1661 005b 2F       		.uleb128 0x2f
 1662 005c 0B       		.uleb128 0xb
 1663 005d 00       		.byte	0
 1664 005e 00       		.byte	0
 1665 005f 0A       		.uleb128 0xa
 1666 0060 13       		.uleb128 0x13
 1667 0061 01       		.byte	0x1
 1668 0062 0B       		.uleb128 0xb
 1669 0063 0B       		.uleb128 0xb
 1670 0064 3A       		.uleb128 0x3a
 1671 0065 0B       		.uleb128 0xb
 1672 0066 3B       		.uleb128 0x3b
 1673 0067 05       		.uleb128 0x5
 1674 0068 01       		.uleb128 0x1
 1675 0069 13       		.uleb128 0x13
 1676 006a 00       		.byte	0
 1677 006b 00       		.byte	0
 1678 006c 0B       		.uleb128 0xb
 1679 006d 0D       		.uleb128 0xd
 1680 006e 00       		.byte	0
 1681 006f 03       		.uleb128 0x3
 1682 0070 08       		.uleb128 0x8
 1683 0071 3A       		.uleb128 0x3a
 1684 0072 0B       		.uleb128 0xb
 1685 0073 3B       		.uleb128 0x3b
 1686 0074 05       		.uleb128 0x5
 1687 0075 49       		.uleb128 0x49
 1688 0076 13       		.uleb128 0x13
 1689 0077 38       		.uleb128 0x38
 1690 0078 0B       		.uleb128 0xb
 1691 0079 00       		.byte	0
 1692 007a 00       		.byte	0
 1693 007b 0C       		.uleb128 0xc
 1694 007c 0D       		.uleb128 0xd
 1695 007d 00       		.byte	0
ARM GAS  /tmp/cc0Dp4m9.s 			page 31


 1696 007e 03       		.uleb128 0x3
 1697 007f 0E       		.uleb128 0xe
 1698 0080 3A       		.uleb128 0x3a
 1699 0081 0B       		.uleb128 0xb
 1700 0082 3B       		.uleb128 0x3b
 1701 0083 05       		.uleb128 0x5
 1702 0084 49       		.uleb128 0x49
 1703 0085 13       		.uleb128 0x13
 1704 0086 38       		.uleb128 0x38
 1705 0087 0B       		.uleb128 0xb
 1706 0088 00       		.byte	0
 1707 0089 00       		.byte	0
 1708 008a 0D       		.uleb128 0xd
 1709 008b 16       		.uleb128 0x16
 1710 008c 00       		.byte	0
 1711 008d 03       		.uleb128 0x3
 1712 008e 0E       		.uleb128 0xe
 1713 008f 3A       		.uleb128 0x3a
 1714 0090 0B       		.uleb128 0xb
 1715 0091 3B       		.uleb128 0x3b
 1716 0092 05       		.uleb128 0x5
 1717 0093 49       		.uleb128 0x49
 1718 0094 13       		.uleb128 0x13
 1719 0095 00       		.byte	0
 1720 0096 00       		.byte	0
 1721 0097 0E       		.uleb128 0xe
 1722 0098 04       		.uleb128 0x4
 1723 0099 01       		.byte	0x1
 1724 009a 0B       		.uleb128 0xb
 1725 009b 0B       		.uleb128 0xb
 1726 009c 3A       		.uleb128 0x3a
 1727 009d 0B       		.uleb128 0xb
 1728 009e 3B       		.uleb128 0x3b
 1729 009f 0B       		.uleb128 0xb
 1730 00a0 01       		.uleb128 0x1
 1731 00a1 13       		.uleb128 0x13
 1732 00a2 00       		.byte	0
 1733 00a3 00       		.byte	0
 1734 00a4 0F       		.uleb128 0xf
 1735 00a5 28       		.uleb128 0x28
 1736 00a6 00       		.byte	0
 1737 00a7 03       		.uleb128 0x3
 1738 00a8 0E       		.uleb128 0xe
 1739 00a9 1C       		.uleb128 0x1c
 1740 00aa 0D       		.uleb128 0xd
 1741 00ab 00       		.byte	0
 1742 00ac 00       		.byte	0
 1743 00ad 10       		.uleb128 0x10
 1744 00ae 13       		.uleb128 0x13
 1745 00af 01       		.byte	0x1
 1746 00b0 03       		.uleb128 0x3
 1747 00b1 0E       		.uleb128 0xe
 1748 00b2 0B       		.uleb128 0xb
 1749 00b3 0B       		.uleb128 0xb
 1750 00b4 3A       		.uleb128 0x3a
 1751 00b5 0B       		.uleb128 0xb
 1752 00b6 3B       		.uleb128 0x3b
ARM GAS  /tmp/cc0Dp4m9.s 			page 32


 1753 00b7 05       		.uleb128 0x5
 1754 00b8 01       		.uleb128 0x1
 1755 00b9 13       		.uleb128 0x13
 1756 00ba 00       		.byte	0
 1757 00bb 00       		.byte	0
 1758 00bc 11       		.uleb128 0x11
 1759 00bd 15       		.uleb128 0x15
 1760 00be 01       		.byte	0x1
 1761 00bf 27       		.uleb128 0x27
 1762 00c0 19       		.uleb128 0x19
 1763 00c1 01       		.uleb128 0x1
 1764 00c2 13       		.uleb128 0x13
 1765 00c3 00       		.byte	0
 1766 00c4 00       		.byte	0
 1767 00c5 12       		.uleb128 0x12
 1768 00c6 05       		.uleb128 0x5
 1769 00c7 00       		.byte	0
 1770 00c8 49       		.uleb128 0x49
 1771 00c9 13       		.uleb128 0x13
 1772 00ca 00       		.byte	0
 1773 00cb 00       		.byte	0
 1774 00cc 13       		.uleb128 0x13
 1775 00cd 2E       		.uleb128 0x2e
 1776 00ce 01       		.byte	0x1
 1777 00cf 03       		.uleb128 0x3
 1778 00d0 0E       		.uleb128 0xe
 1779 00d1 3A       		.uleb128 0x3a
 1780 00d2 0B       		.uleb128 0xb
 1781 00d3 3B       		.uleb128 0x3b
 1782 00d4 0B       		.uleb128 0xb
 1783 00d5 27       		.uleb128 0x27
 1784 00d6 19       		.uleb128 0x19
 1785 00d7 20       		.uleb128 0x20
 1786 00d8 0B       		.uleb128 0xb
 1787 00d9 01       		.uleb128 0x1
 1788 00da 13       		.uleb128 0x13
 1789 00db 00       		.byte	0
 1790 00dc 00       		.byte	0
 1791 00dd 14       		.uleb128 0x14
 1792 00de 05       		.uleb128 0x5
 1793 00df 00       		.byte	0
 1794 00e0 03       		.uleb128 0x3
 1795 00e1 0E       		.uleb128 0xe
 1796 00e2 3A       		.uleb128 0x3a
 1797 00e3 0B       		.uleb128 0xb
 1798 00e4 3B       		.uleb128 0x3b
 1799 00e5 0B       		.uleb128 0xb
 1800 00e6 49       		.uleb128 0x49
 1801 00e7 13       		.uleb128 0x13
 1802 00e8 00       		.byte	0
 1803 00e9 00       		.byte	0
 1804 00ea 15       		.uleb128 0x15
 1805 00eb 34       		.uleb128 0x34
 1806 00ec 00       		.byte	0
 1807 00ed 03       		.uleb128 0x3
 1808 00ee 08       		.uleb128 0x8
 1809 00ef 3A       		.uleb128 0x3a
ARM GAS  /tmp/cc0Dp4m9.s 			page 33


 1810 00f0 0B       		.uleb128 0xb
 1811 00f1 3B       		.uleb128 0x3b
 1812 00f2 0B       		.uleb128 0xb
 1813 00f3 49       		.uleb128 0x49
 1814 00f4 13       		.uleb128 0x13
 1815 00f5 00       		.byte	0
 1816 00f6 00       		.byte	0
 1817 00f7 16       		.uleb128 0x16
 1818 00f8 0B       		.uleb128 0xb
 1819 00f9 01       		.byte	0x1
 1820 00fa 01       		.uleb128 0x1
 1821 00fb 13       		.uleb128 0x13
 1822 00fc 00       		.byte	0
 1823 00fd 00       		.byte	0
 1824 00fe 17       		.uleb128 0x17
 1825 00ff 34       		.uleb128 0x34
 1826 0100 00       		.byte	0
 1827 0101 03       		.uleb128 0x3
 1828 0102 0E       		.uleb128 0xe
 1829 0103 3A       		.uleb128 0x3a
 1830 0104 0B       		.uleb128 0xb
 1831 0105 3B       		.uleb128 0x3b
 1832 0106 0B       		.uleb128 0xb
 1833 0107 49       		.uleb128 0x49
 1834 0108 13       		.uleb128 0x13
 1835 0109 00       		.byte	0
 1836 010a 00       		.byte	0
 1837 010b 18       		.uleb128 0x18
 1838 010c 0B       		.uleb128 0xb
 1839 010d 01       		.byte	0x1
 1840 010e 00       		.byte	0
 1841 010f 00       		.byte	0
 1842 0110 19       		.uleb128 0x19
 1843 0111 2E       		.uleb128 0x2e
 1844 0112 01       		.byte	0x1
 1845 0113 3F       		.uleb128 0x3f
 1846 0114 19       		.uleb128 0x19
 1847 0115 03       		.uleb128 0x3
 1848 0116 0E       		.uleb128 0xe
 1849 0117 3A       		.uleb128 0x3a
 1850 0118 0B       		.uleb128 0xb
 1851 0119 3B       		.uleb128 0x3b
 1852 011a 05       		.uleb128 0x5
 1853 011b 27       		.uleb128 0x27
 1854 011c 19       		.uleb128 0x19
 1855 011d 11       		.uleb128 0x11
 1856 011e 01       		.uleb128 0x1
 1857 011f 12       		.uleb128 0x12
 1858 0120 06       		.uleb128 0x6
 1859 0121 40       		.uleb128 0x40
 1860 0122 18       		.uleb128 0x18
 1861 0123 9742     		.uleb128 0x2117
 1862 0125 19       		.uleb128 0x19
 1863 0126 01       		.uleb128 0x1
 1864 0127 13       		.uleb128 0x13
 1865 0128 00       		.byte	0
 1866 0129 00       		.byte	0
ARM GAS  /tmp/cc0Dp4m9.s 			page 34


 1867 012a 1A       		.uleb128 0x1a
 1868 012b 1D       		.uleb128 0x1d
 1869 012c 01       		.byte	0x1
 1870 012d 31       		.uleb128 0x31
 1871 012e 13       		.uleb128 0x13
 1872 012f 52       		.uleb128 0x52
 1873 0130 01       		.uleb128 0x1
 1874 0131 55       		.uleb128 0x55
 1875 0132 17       		.uleb128 0x17
 1876 0133 58       		.uleb128 0x58
 1877 0134 0B       		.uleb128 0xb
 1878 0135 59       		.uleb128 0x59
 1879 0136 05       		.uleb128 0x5
 1880 0137 01       		.uleb128 0x1
 1881 0138 13       		.uleb128 0x13
 1882 0139 00       		.byte	0
 1883 013a 00       		.byte	0
 1884 013b 1B       		.uleb128 0x1b
 1885 013c 05       		.uleb128 0x5
 1886 013d 00       		.byte	0
 1887 013e 31       		.uleb128 0x31
 1888 013f 13       		.uleb128 0x13
 1889 0140 02       		.uleb128 0x2
 1890 0141 18       		.uleb128 0x18
 1891 0142 00       		.byte	0
 1892 0143 00       		.byte	0
 1893 0144 1C       		.uleb128 0x1c
 1894 0145 0B       		.uleb128 0xb
 1895 0146 01       		.byte	0x1
 1896 0147 55       		.uleb128 0x55
 1897 0148 17       		.uleb128 0x17
 1898 0149 00       		.byte	0
 1899 014a 00       		.byte	0
 1900 014b 1D       		.uleb128 0x1d
 1901 014c 34       		.uleb128 0x34
 1902 014d 00       		.byte	0
 1903 014e 31       		.uleb128 0x31
 1904 014f 13       		.uleb128 0x13
 1905 0150 02       		.uleb128 0x2
 1906 0151 17       		.uleb128 0x17
 1907 0152 00       		.byte	0
 1908 0153 00       		.byte	0
 1909 0154 1E       		.uleb128 0x1e
 1910 0155 0B       		.uleb128 0xb
 1911 0156 01       		.byte	0x1
 1912 0157 11       		.uleb128 0x11
 1913 0158 01       		.uleb128 0x1
 1914 0159 12       		.uleb128 0x12
 1915 015a 06       		.uleb128 0x6
 1916 015b 01       		.uleb128 0x1
 1917 015c 13       		.uleb128 0x13
 1918 015d 00       		.byte	0
 1919 015e 00       		.byte	0
 1920 015f 1F       		.uleb128 0x1f
 1921 0160 898201   		.uleb128 0x4109
 1922 0163 01       		.byte	0x1
 1923 0164 11       		.uleb128 0x11
ARM GAS  /tmp/cc0Dp4m9.s 			page 35


 1924 0165 01       		.uleb128 0x1
 1925 0166 00       		.byte	0
 1926 0167 00       		.byte	0
 1927 0168 20       		.uleb128 0x20
 1928 0169 8A8201   		.uleb128 0x410a
 1929 016c 00       		.byte	0
 1930 016d 02       		.uleb128 0x2
 1931 016e 18       		.uleb128 0x18
 1932 016f 9142     		.uleb128 0x2111
 1933 0171 18       		.uleb128 0x18
 1934 0172 00       		.byte	0
 1935 0173 00       		.byte	0
 1936 0174 21       		.uleb128 0x21
 1937 0175 898201   		.uleb128 0x4109
 1938 0178 01       		.byte	0x1
 1939 0179 11       		.uleb128 0x11
 1940 017a 01       		.uleb128 0x1
 1941 017b 01       		.uleb128 0x1
 1942 017c 13       		.uleb128 0x13
 1943 017d 00       		.byte	0
 1944 017e 00       		.byte	0
 1945 017f 22       		.uleb128 0x22
 1946 0180 898201   		.uleb128 0x4109
 1947 0183 00       		.byte	0
 1948 0184 11       		.uleb128 0x11
 1949 0185 01       		.uleb128 0x1
 1950 0186 9542     		.uleb128 0x2115
 1951 0188 19       		.uleb128 0x19
 1952 0189 31       		.uleb128 0x31
 1953 018a 13       		.uleb128 0x13
 1954 018b 00       		.byte	0
 1955 018c 00       		.byte	0
 1956 018d 23       		.uleb128 0x23
 1957 018e 898201   		.uleb128 0x4109
 1958 0191 01       		.byte	0x1
 1959 0192 11       		.uleb128 0x11
 1960 0193 01       		.uleb128 0x1
 1961 0194 31       		.uleb128 0x31
 1962 0195 13       		.uleb128 0x13
 1963 0196 00       		.byte	0
 1964 0197 00       		.byte	0
 1965 0198 24       		.uleb128 0x24
 1966 0199 05       		.uleb128 0x5
 1967 019a 00       		.byte	0
 1968 019b 03       		.uleb128 0x3
 1969 019c 0E       		.uleb128 0xe
 1970 019d 3A       		.uleb128 0x3a
 1971 019e 0B       		.uleb128 0xb
 1972 019f 3B       		.uleb128 0x3b
 1973 01a0 05       		.uleb128 0x5
 1974 01a1 49       		.uleb128 0x49
 1975 01a2 13       		.uleb128 0x13
 1976 01a3 02       		.uleb128 0x2
 1977 01a4 17       		.uleb128 0x17
 1978 01a5 00       		.byte	0
 1979 01a6 00       		.byte	0
 1980 01a7 25       		.uleb128 0x25
ARM GAS  /tmp/cc0Dp4m9.s 			page 36


 1981 01a8 34       		.uleb128 0x34
 1982 01a9 00       		.byte	0
 1983 01aa 03       		.uleb128 0x3
 1984 01ab 08       		.uleb128 0x8
 1985 01ac 3A       		.uleb128 0x3a
 1986 01ad 0B       		.uleb128 0xb
 1987 01ae 3B       		.uleb128 0x3b
 1988 01af 05       		.uleb128 0x5
 1989 01b0 49       		.uleb128 0x49
 1990 01b1 13       		.uleb128 0x13
 1991 01b2 02       		.uleb128 0x2
 1992 01b3 17       		.uleb128 0x17
 1993 01b4 00       		.byte	0
 1994 01b5 00       		.byte	0
 1995 01b6 26       		.uleb128 0x26
 1996 01b7 898201   		.uleb128 0x4109
 1997 01ba 01       		.byte	0x1
 1998 01bb 11       		.uleb128 0x11
 1999 01bc 01       		.uleb128 0x1
 2000 01bd 31       		.uleb128 0x31
 2001 01be 13       		.uleb128 0x13
 2002 01bf 01       		.uleb128 0x1
 2003 01c0 13       		.uleb128 0x13
 2004 01c1 00       		.byte	0
 2005 01c2 00       		.byte	0
 2006 01c3 27       		.uleb128 0x27
 2007 01c4 05       		.uleb128 0x5
 2008 01c5 00       		.byte	0
 2009 01c6 03       		.uleb128 0x3
 2010 01c7 0E       		.uleb128 0xe
 2011 01c8 3A       		.uleb128 0x3a
 2012 01c9 0B       		.uleb128 0xb
 2013 01ca 3B       		.uleb128 0x3b
 2014 01cb 05       		.uleb128 0x5
 2015 01cc 49       		.uleb128 0x49
 2016 01cd 13       		.uleb128 0x13
 2017 01ce 02       		.uleb128 0x2
 2018 01cf 18       		.uleb128 0x18
 2019 01d0 00       		.byte	0
 2020 01d1 00       		.byte	0
 2021 01d2 28       		.uleb128 0x28
 2022 01d3 34       		.uleb128 0x34
 2023 01d4 00       		.byte	0
 2024 01d5 03       		.uleb128 0x3
 2025 01d6 0E       		.uleb128 0xe
 2026 01d7 3A       		.uleb128 0x3a
 2027 01d8 0B       		.uleb128 0xb
 2028 01d9 3B       		.uleb128 0x3b
 2029 01da 05       		.uleb128 0x5
 2030 01db 49       		.uleb128 0x49
 2031 01dc 13       		.uleb128 0x13
 2032 01dd 3F       		.uleb128 0x3f
 2033 01de 19       		.uleb128 0x19
 2034 01df 3C       		.uleb128 0x3c
 2035 01e0 19       		.uleb128 0x19
 2036 01e1 00       		.byte	0
 2037 01e2 00       		.byte	0
ARM GAS  /tmp/cc0Dp4m9.s 			page 37


 2038 01e3 29       		.uleb128 0x29
 2039 01e4 34       		.uleb128 0x34
 2040 01e5 00       		.byte	0
 2041 01e6 03       		.uleb128 0x3
 2042 01e7 0E       		.uleb128 0xe
 2043 01e8 3A       		.uleb128 0x3a
 2044 01e9 0B       		.uleb128 0xb
 2045 01ea 3B       		.uleb128 0x3b
 2046 01eb 0B       		.uleb128 0xb
 2047 01ec 49       		.uleb128 0x49
 2048 01ed 13       		.uleb128 0x13
 2049 01ee 3F       		.uleb128 0x3f
 2050 01ef 19       		.uleb128 0x19
 2051 01f0 02       		.uleb128 0x2
 2052 01f1 18       		.uleb128 0x18
 2053 01f2 00       		.byte	0
 2054 01f3 00       		.byte	0
 2055 01f4 2A       		.uleb128 0x2a
 2056 01f5 2E       		.uleb128 0x2e
 2057 01f6 00       		.byte	0
 2058 01f7 3F       		.uleb128 0x3f
 2059 01f8 19       		.uleb128 0x19
 2060 01f9 03       		.uleb128 0x3
 2061 01fa 0E       		.uleb128 0xe
 2062 01fb 3A       		.uleb128 0x3a
 2063 01fc 0B       		.uleb128 0xb
 2064 01fd 3B       		.uleb128 0x3b
 2065 01fe 05       		.uleb128 0x5
 2066 01ff 27       		.uleb128 0x27
 2067 0200 19       		.uleb128 0x19
 2068 0201 3C       		.uleb128 0x3c
 2069 0202 19       		.uleb128 0x19
 2070 0203 00       		.byte	0
 2071 0204 00       		.byte	0
 2072 0205 2B       		.uleb128 0x2b
 2073 0206 2E       		.uleb128 0x2e
 2074 0207 01       		.byte	0x1
 2075 0208 3F       		.uleb128 0x3f
 2076 0209 19       		.uleb128 0x19
 2077 020a 03       		.uleb128 0x3
 2078 020b 0E       		.uleb128 0xe
 2079 020c 3A       		.uleb128 0x3a
 2080 020d 0B       		.uleb128 0xb
 2081 020e 3B       		.uleb128 0x3b
 2082 020f 0B       		.uleb128 0xb
 2083 0210 27       		.uleb128 0x27
 2084 0211 19       		.uleb128 0x19
 2085 0212 3C       		.uleb128 0x3c
 2086 0213 19       		.uleb128 0x19
 2087 0214 01       		.uleb128 0x1
 2088 0215 13       		.uleb128 0x13
 2089 0216 00       		.byte	0
 2090 0217 00       		.byte	0
 2091 0218 2C       		.uleb128 0x2c
 2092 0219 2E       		.uleb128 0x2e
 2093 021a 01       		.byte	0x1
 2094 021b 3F       		.uleb128 0x3f
ARM GAS  /tmp/cc0Dp4m9.s 			page 38


 2095 021c 19       		.uleb128 0x19
 2096 021d 03       		.uleb128 0x3
 2097 021e 0E       		.uleb128 0xe
 2098 021f 3A       		.uleb128 0x3a
 2099 0220 0B       		.uleb128 0xb
 2100 0221 3B       		.uleb128 0x3b
 2101 0222 05       		.uleb128 0x5
 2102 0223 27       		.uleb128 0x27
 2103 0224 19       		.uleb128 0x19
 2104 0225 3C       		.uleb128 0x3c
 2105 0226 19       		.uleb128 0x19
 2106 0227 01       		.uleb128 0x1
 2107 0228 13       		.uleb128 0x13
 2108 0229 00       		.byte	0
 2109 022a 00       		.byte	0
 2110 022b 2D       		.uleb128 0x2d
 2111 022c 2E       		.uleb128 0x2e
 2112 022d 01       		.byte	0x1
 2113 022e 3F       		.uleb128 0x3f
 2114 022f 19       		.uleb128 0x19
 2115 0230 03       		.uleb128 0x3
 2116 0231 0E       		.uleb128 0xe
 2117 0232 3A       		.uleb128 0x3a
 2118 0233 0B       		.uleb128 0xb
 2119 0234 3B       		.uleb128 0x3b
 2120 0235 05       		.uleb128 0x5
 2121 0236 27       		.uleb128 0x27
 2122 0237 19       		.uleb128 0x19
 2123 0238 3C       		.uleb128 0x3c
 2124 0239 19       		.uleb128 0x19
 2125 023a 00       		.byte	0
 2126 023b 00       		.byte	0
 2127 023c 00       		.byte	0
 2128              		.section	.debug_loc,"",%progbits
 2129              	.Ldebug_loc0:
 2130              	.LLST0:
 2131 0000 0A000000 		.4byte	.LVL1
 2132 0004 12000000 		.4byte	.LVL2
 2133 0008 0100     		.2byte	0x1
 2134 000a 50       		.byte	0x50
 2135 000b 12000000 		.4byte	.LVL2
 2136 000f 42000000 		.4byte	.LVL6
 2137 0013 0600     		.2byte	0x6
 2138 0015 75       		.byte	0x75
 2139 0016 00       		.sleb128 0
 2140 0017 08       		.byte	0x8
 2141 0018 FF       		.byte	0xff
 2142 0019 1A       		.byte	0x1a
 2143 001a 9F       		.byte	0x9f
 2144 001b 46000000 		.4byte	.LVL7
 2145 001f 8C000000 		.4byte	.LFE112
 2146 0023 0600     		.2byte	0x6
 2147 0025 75       		.byte	0x75
 2148 0026 00       		.sleb128 0
 2149 0027 08       		.byte	0x8
 2150 0028 FF       		.byte	0xff
 2151 0029 1A       		.byte	0x1a
ARM GAS  /tmp/cc0Dp4m9.s 			page 39


 2152 002a 9F       		.byte	0x9f
 2153 002b 00000000 		.4byte	0
 2154 002f 00000000 		.4byte	0
 2155              	.LLST1:
 2156 0033 20000000 		.4byte	.LVL3
 2157 0037 2D000000 		.4byte	.LVL4-1
 2158 003b 0500     		.2byte	0x5
 2159 003d 03       		.byte	0x3
 2160 003e 00000000 		.4byte	ICUD5
 2161 0042 00000000 		.4byte	0
 2162 0046 00000000 		.4byte	0
 2163              	.LLST2:
 2164 004a 60000000 		.4byte	.LVL9
 2165 004e 6F000000 		.4byte	.LVL10-1
 2166 0052 0500     		.2byte	0x5
 2167 0054 03       		.byte	0x3
 2168 0055 00000000 		.4byte	ICUD5
 2169 0059 00000000 		.4byte	0
 2170 005d 00000000 		.4byte	0
 2171              	.LLST3:
 2172 0061 00000000 		.4byte	.LVL13
 2173 0065 0E000000 		.4byte	.LVL14
 2174 0069 0100     		.2byte	0x1
 2175 006b 50       		.byte	0x50
 2176 006c 0E000000 		.4byte	.LVL14
 2177 0070 E4000000 		.4byte	.LFE114
 2178 0074 0100     		.2byte	0x1
 2179 0076 54       		.byte	0x54
 2180 0077 00000000 		.4byte	0
 2181 007b 00000000 		.4byte	0
 2182              	.LLST4:
 2183 007f 3A000000 		.4byte	.LVL16
 2184 0083 58000000 		.4byte	.LVL18
 2185 0087 0100     		.2byte	0x1
 2186 0089 55       		.byte	0x55
 2187 008a 00000000 		.4byte	0
 2188 008e 00000000 		.4byte	0
 2189              	.LLST5:
 2190 0092 00000000 		.4byte	.LVL22
 2191 0096 08000000 		.4byte	.LVL23
 2192 009a 0100     		.2byte	0x1
 2193 009c 50       		.byte	0x50
 2194 009d 08000000 		.4byte	.LVL23
 2195 00a1 0A000000 		.4byte	.LVL24
 2196 00a5 0400     		.2byte	0x4
 2197 00a7 F3       		.byte	0xf3
 2198 00a8 01       		.uleb128 0x1
 2199 00a9 50       		.byte	0x50
 2200 00aa 9F       		.byte	0x9f
 2201 00ab 0A000000 		.4byte	.LVL24
 2202 00af 1C000000 		.4byte	.LVL25
 2203 00b3 0100     		.2byte	0x1
 2204 00b5 50       		.byte	0x50
 2205 00b6 1C000000 		.4byte	.LVL25
 2206 00ba 34000000 		.4byte	.LFE115
 2207 00be 0400     		.2byte	0x4
 2208 00c0 F3       		.byte	0xf3
ARM GAS  /tmp/cc0Dp4m9.s 			page 40


 2209 00c1 01       		.uleb128 0x1
 2210 00c2 50       		.byte	0x50
 2211 00c3 9F       		.byte	0x9f
 2212 00c4 00000000 		.4byte	0
 2213 00c8 00000000 		.4byte	0
 2214              	.LLST6:
 2215 00cc 00000000 		.4byte	.LVL27
 2216 00d0 06000000 		.4byte	.LVL28
 2217 00d4 0100     		.2byte	0x1
 2218 00d6 50       		.byte	0x50
 2219 00d7 06000000 		.4byte	.LVL28
 2220 00db 58000000 		.4byte	.LFE116
 2221 00df 0400     		.2byte	0x4
 2222 00e1 F3       		.byte	0xf3
 2223 00e2 01       		.uleb128 0x1
 2224 00e3 50       		.byte	0x50
 2225 00e4 9F       		.byte	0x9f
 2226 00e5 00000000 		.4byte	0
 2227 00e9 00000000 		.4byte	0
 2228              		.section	.debug_aranges,"",%progbits
 2229 0000 44000000 		.4byte	0x44
 2230 0004 0200     		.2byte	0x2
 2231 0006 00000000 		.4byte	.Ldebug_info0
 2232 000a 04       		.byte	0x4
 2233 000b 00       		.byte	0
 2234 000c 0000     		.2byte	0
 2235 000e 0000     		.2byte	0
 2236 0010 00000000 		.4byte	.LFB112
 2237 0014 8C000000 		.4byte	.LFE112-.LFB112
 2238 0018 00000000 		.4byte	.LFB113
 2239 001c 18000000 		.4byte	.LFE113-.LFB113
 2240 0020 00000000 		.4byte	.LFB114
 2241 0024 E4000000 		.4byte	.LFE114-.LFB114
 2242 0028 00000000 		.4byte	.LFB115
 2243 002c 34000000 		.4byte	.LFE115-.LFB115
 2244 0030 00000000 		.4byte	.LFB116
 2245 0034 58000000 		.4byte	.LFE116-.LFB116
 2246 0038 00000000 		.4byte	.LFB117
 2247 003c 12000000 		.4byte	.LFE117-.LFB117
 2248 0040 00000000 		.4byte	0
 2249 0044 00000000 		.4byte	0
 2250              		.section	.debug_ranges,"",%progbits
 2251              	.Ldebug_ranges0:
 2252 0000 02000000 		.4byte	.LBB8
 2253 0004 3E000000 		.4byte	.LBE8
 2254 0008 46000000 		.4byte	.LBB13
 2255 000c 8C000000 		.4byte	.LBE13
 2256 0010 00000000 		.4byte	0
 2257 0014 00000000 		.4byte	0
 2258 0018 00000000 		.4byte	.LFB112
 2259 001c 8C000000 		.4byte	.LFE112
 2260 0020 00000000 		.4byte	.LFB113
 2261 0024 18000000 		.4byte	.LFE113
 2262 0028 00000000 		.4byte	.LFB114
 2263 002c E4000000 		.4byte	.LFE114
 2264 0030 00000000 		.4byte	.LFB115
 2265 0034 34000000 		.4byte	.LFE115
ARM GAS  /tmp/cc0Dp4m9.s 			page 41


 2266 0038 00000000 		.4byte	.LFB116
 2267 003c 58000000 		.4byte	.LFE116
 2268 0040 00000000 		.4byte	.LFB117
 2269 0044 12000000 		.4byte	.LFE117
 2270 0048 00000000 		.4byte	0
 2271 004c 00000000 		.4byte	0
 2272              		.section	.debug_line,"",%progbits
 2273              	.Ldebug_line0:
 2274 0000 DE020000 		.section	.debug_str,"MS",%progbits,1
 2274      0200C201 
 2274      00000201 
 2274      FB0E0D00 
 2274      01010101 
 2275              	.LASF34:
 2276 0000 41484231 		.ascii	"AHB1LPENR\000"
 2276      4C50454E 
 2276      5200
 2277              	.LASF92:
 2278 000a 6963755F 		.ascii	"icu_lld_stop\000"
 2278      6C6C645F 
 2278      73746F70 
 2278      00
 2279              	.LASF66:
 2280 0017 43434552 		.ascii	"CCER\000"
 2280      00
 2281              	.LASF47:
 2282 001c 5243435F 		.ascii	"RCC_TypeDef\000"
 2282      54797065 
 2282      44656600 
 2283              	.LASF49:
 2284 0028 4943555F 		.ascii	"ICU_STOP\000"
 2284      53544F50 
 2284      00
 2285              	.LASF79:
 2286 0031 69637563 		.ascii	"icuchannel_t\000"
 2286      68616E6E 
 2286      656C5F74 
 2286      00
 2287              	.LASF91:
 2288 003e 6963755F 		.ascii	"icu_lld_start\000"
 2288      6C6C645F 
 2288      73746172 
 2288      7400
 2289              	.LASF28:
 2290 004c 41484232 		.ascii	"AHB2ENR\000"
 2290      454E5200 
 2291              	.LASF68:
 2292 0054 444D4152 		.ascii	"DMAR\000"
 2292      00
 2293              	.LASF56:
 2294 0059 73746174 		.ascii	"state\000"
 2294      6500
 2295              	.LASF65:
 2296 005f 43434D52 		.ascii	"CCMR2\000"
 2296      3200
 2297              	.LASF3:
 2298 0065 73686F72 		.ascii	"short int\000"
ARM GAS  /tmp/cc0Dp4m9.s 			page 42


 2298      7420696E 
 2298      7400
 2299              	.LASF93:
 2300 006f 69637570 		.ascii	"icup\000"
 2300      00
 2301              	.LASF16:
 2302 0074 73697A65 		.ascii	"sizetype\000"
 2302      74797065 
 2302      00
 2303              	.LASF41:
 2304 007d 42444352 		.ascii	"BDCR\000"
 2304      00
 2305              	.LASF94:
 2306 0082 6963755F 		.ascii	"icu_lld_enable\000"
 2306      6C6C645F 
 2306      656E6162 
 2306      6C6500
 2307              	.LASF44:
 2308 0091 504C4C49 		.ascii	"PLLI2SCFGR\000"
 2308      32534346 
 2308      475200
 2309              	.LASF8:
 2310 009c 5F5F7569 		.ascii	"__uint32_t\000"
 2310      6E743332 
 2310      5F7400
 2311              	.LASF24:
 2312 00a7 41504231 		.ascii	"APB1RSTR\000"
 2312      52535452 
 2312      00
 2313              	.LASF80:
 2314 00b0 6D6F6465 		.ascii	"mode\000"
 2314      00
 2315              	.LASF5:
 2316 00b5 5F5F7569 		.ascii	"__uint16_t\000"
 2316      6E743136 
 2316      5F7400
 2317              	.LASF95:
 2318 00c0 6963755F 		.ascii	"icu_lld_disable\000"
 2318      6C6C645F 
 2318      64697361 
 2318      626C6500 
 2319              	.LASF20:
 2320 00d0 41484231 		.ascii	"AHB1RSTR\000"
 2320      52535452 
 2320      00
 2321              	.LASF57:
 2322 00d9 636F6E66 		.ascii	"config\000"
 2322      696700
 2323              	.LASF19:
 2324 00e0 43464752 		.ascii	"CFGR\000"
 2324      00
 2325              	.LASF26:
 2326 00e5 52455345 		.ascii	"RESERVED1\000"
 2326      52564544 
 2326      3100
 2327              	.LASF36:
 2328 00ef 41484233 		.ascii	"AHB3LPENR\000"
ARM GAS  /tmp/cc0Dp4m9.s 			page 43


 2328      4C50454E 
 2328      5200
 2329              	.LASF31:
 2330 00f9 41504231 		.ascii	"APB1ENR\000"
 2330      454E5200 
 2331              	.LASF77:
 2332 0101 4943555F 		.ascii	"ICU_CHANNEL_1\000"
 2332      4348414E 
 2332      4E454C5F 
 2332      3100
 2333              	.LASF78:
 2334 010f 4943555F 		.ascii	"ICU_CHANNEL_2\000"
 2334      4348414E 
 2334      4E454C5F 
 2334      3200
 2335              	.LASF14:
 2336 011d 75696E74 		.ascii	"uint32_t\000"
 2336      33325F74 
 2336      00
 2337              	.LASF46:
 2338 0126 44434B43 		.ascii	"DCKCFGR\000"
 2338      46475200 
 2339              	.LASF82:
 2340 012e 77696474 		.ascii	"width_cb\000"
 2340      685F6362 
 2340      00
 2341              	.LASF52:
 2342 0137 4943555F 		.ascii	"ICU_ACTIVE\000"
 2342      41435449 
 2342      564500
 2343              	.LASF10:
 2344 0142 6C6F6E67 		.ascii	"long long int\000"
 2344      206C6F6E 
 2344      6720696E 
 2344      7400
 2345              	.LASF11:
 2346 0150 6C6F6E67 		.ascii	"long long unsigned int\000"
 2346      206C6F6E 
 2346      6720756E 
 2346      7369676E 
 2346      65642069 
 2347              	.LASF75:
 2348 0167 6963756D 		.ascii	"icumode_t\000"
 2348      6F64655F 
 2348      7400
 2349              	.LASF59:
 2350 0171 77636372 		.ascii	"wccrp\000"
 2350      7000
 2351              	.LASF7:
 2352 0177 6C6F6E67 		.ascii	"long int\000"
 2352      20696E74 
 2352      00
 2353              	.LASF106:
 2354 0180 6E766963 		.ascii	"nvicDisableVector\000"
 2354      44697361 
 2354      626C6556 
 2354      6563746F 
ARM GAS  /tmp/cc0Dp4m9.s 			page 44


 2354      7200
 2355              	.LASF70:
 2356 0192 43435235 		.ascii	"CCR5\000"
 2356      00
 2357              	.LASF71:
 2358 0197 43435236 		.ascii	"CCR6\000"
 2358      00
 2359              	.LASF9:
 2360 019c 6C6F6E67 		.ascii	"long unsigned int\000"
 2360      20756E73 
 2360      69676E65 
 2360      6420696E 
 2360      7400
 2361              	.LASF60:
 2362 01ae 70636372 		.ascii	"pccrp\000"
 2362      7000
 2363              	.LASF25:
 2364 01b4 41504232 		.ascii	"APB2RSTR\000"
 2364      52535452 
 2364      00
 2365              	.LASF102:
 2366 01bd 2E2E2F2E 		.ascii	"../../os/hal/platforms/STM32/TIMv1/icu_lld.c\000"
 2366      2E2F6F73 
 2366      2F68616C 
 2366      2F706C61 
 2366      74666F72 
 2367              	.LASF64:
 2368 01ea 43434D52 		.ascii	"CCMR1\000"
 2368      3100
 2369              	.LASF69:
 2370 01f0 43434D52 		.ascii	"CCMR3\000"
 2370      3300
 2371              	.LASF99:
 2372 01f6 63684462 		.ascii	"chDbgPanic\000"
 2372      6750616E 
 2372      696300
 2373              	.LASF53:
 2374 0201 4943555F 		.ascii	"ICU_IDLE\000"
 2374      49444C45 
 2374      00
 2375              	.LASF62:
 2376 020a 534D4352 		.ascii	"SMCR\000"
 2376      00
 2377              	.LASF105:
 2378 020f 5F706F72 		.ascii	"_port_irq_epilogue\000"
 2378      745F6972 
 2378      715F6570 
 2378      696C6F67 
 2378      756500
 2379              	.LASF2:
 2380 0222 756E7369 		.ascii	"unsigned char\000"
 2380      676E6564 
 2380      20636861 
 2380      7200
 2381              	.LASF87:
 2382 0230 49435543 		.ascii	"ICUConfig\000"
 2382      6F6E6669 
ARM GAS  /tmp/cc0Dp4m9.s 			page 45


 2382      6700
 2383              	.LASF32:
 2384 023a 41504232 		.ascii	"APB2ENR\000"
 2384      454E5200 
 2385              	.LASF100:
 2386 0242 6E766963 		.ascii	"nvicEnableVector\000"
 2386      456E6162 
 2386      6C655665 
 2386      63746F72 
 2386      00
 2387              	.LASF88:
 2388 0253 70726576 		.ascii	"previous_state\000"
 2388      696F7573 
 2388      5F737461 
 2388      746500
 2389              	.LASF1:
 2390 0262 7369676E 		.ascii	"signed char\000"
 2390      65642063 
 2390      68617200 
 2391              	.LASF97:
 2392 026e 49435544 		.ascii	"ICUD5\000"
 2392      3500
 2393              	.LASF89:
 2394 0274 56656374 		.ascii	"Vector108\000"
 2394      6F723130 
 2394      3800
 2395              	.LASF103:
 2396 027e 2F686F6D 		.ascii	"/home/makkmarci/devel/ChibiOS_2.6.5/projects/STM32F"
 2396      652F6D61 
 2396      6B6B6D61 
 2396      7263692F 
 2396      64657665 
 2397 02b1 345F4368 		.ascii	"4_ChibiOS_uGFX_gwin_2/\000"
 2397      6962694F 
 2397      535F7547 
 2397      46585F67 
 2397      77696E5F 
 2398              	.LASF0:
 2399 02c8 756E7369 		.ascii	"unsigned int\000"
 2399      676E6564 
 2399      20696E74 
 2399      00
 2400              	.LASF21:
 2401 02d5 41484232 		.ascii	"AHB2RSTR\000"
 2401      52535452 
 2401      00
 2402              	.LASF12:
 2403 02de 75696E74 		.ascii	"uint16_t\000"
 2403      31365F74 
 2403      00
 2404              	.LASF29:
 2405 02e7 41484233 		.ascii	"AHB3ENR\000"
 2405      454E5200 
 2406              	.LASF63:
 2407 02ef 44494552 		.ascii	"DIER\000"
 2407      00
 2408              	.LASF76:
ARM GAS  /tmp/cc0Dp4m9.s 			page 46


 2409 02f4 69637566 		.ascii	"icufreq_t\000"
 2409      7265715F 
 2409      7400
 2410              	.LASF15:
 2411 02fe 5F426F6F 		.ascii	"_Bool\000"
 2411      6C00
 2412              	.LASF4:
 2413 0304 73686F72 		.ascii	"short unsigned int\000"
 2413      7420756E 
 2413      7369676E 
 2413      65642069 
 2413      6E7400
 2414              	.LASF38:
 2415 0317 41504231 		.ascii	"APB1LPENR\000"
 2415      4C50454E 
 2415      5200
 2416              	.LASF17:
 2417 0321 63686172 		.ascii	"char\000"
 2417      00
 2418              	.LASF61:
 2419 0326 69637563 		.ascii	"icucallback_t\000"
 2419      616C6C62 
 2419      61636B5F 
 2419      7400
 2420              	.LASF72:
 2421 0334 73746D33 		.ascii	"stm32_tim_t\000"
 2421      325F7469 
 2421      6D5F7400 
 2422              	.LASF83:
 2423 0340 70657269 		.ascii	"period_cb\000"
 2423      6F645F63 
 2423      6200
 2424              	.LASF67:
 2425 034a 42445452 		.ascii	"BDTR\000"
 2425      00
 2426              	.LASF13:
 2427 034f 696E7433 		.ascii	"int32_t\000"
 2427      325F7400 
 2428              	.LASF74:
 2429 0357 4943555F 		.ascii	"ICU_INPUT_ACTIVE_LOW\000"
 2429      494E5055 
 2429      545F4143 
 2429      54495645 
 2429      5F4C4F57 
 2430              	.LASF43:
 2431 036c 53534347 		.ascii	"SSCGR\000"
 2431      5200
 2432              	.LASF85:
 2433 0372 6368616E 		.ascii	"channel\000"
 2433      6E656C00 
 2434              	.LASF48:
 2435 037a 4943555F 		.ascii	"ICU_UNINIT\000"
 2435      554E494E 
 2435      495400
 2436              	.LASF35:
 2437 0385 41484232 		.ascii	"AHB2LPENR\000"
 2437      4C50454E 
ARM GAS  /tmp/cc0Dp4m9.s 			page 47


 2437      5200
 2438              	.LASF23:
 2439 038f 52455345 		.ascii	"RESERVED0\000"
 2439      52564544 
 2439      3000
 2440              	.LASF73:
 2441 0399 4943555F 		.ascii	"ICU_INPUT_ACTIVE_HIGH\000"
 2441      494E5055 
 2441      545F4143 
 2441      54495645 
 2441      5F484947 
 2442              	.LASF30:
 2443 03af 52455345 		.ascii	"RESERVED2\000"
 2443      52564544 
 2443      3200
 2444              	.LASF33:
 2445 03b9 52455345 		.ascii	"RESERVED3\000"
 2445      52564544 
 2445      3300
 2446              	.LASF37:
 2447 03c3 52455345 		.ascii	"RESERVED4\000"
 2447      52564544 
 2447      3400
 2448              	.LASF40:
 2449 03cd 52455345 		.ascii	"RESERVED5\000"
 2449      52564544 
 2449      3500
 2450              	.LASF42:
 2451 03d7 52455345 		.ascii	"RESERVED6\000"
 2451      52564544 
 2451      3600
 2452              	.LASF58:
 2453 03e1 636C6F63 		.ascii	"clock\000"
 2453      6B00
 2454              	.LASF90:
 2455 03e7 6963755F 		.ascii	"icu_lld_init\000"
 2455      6C6C645F 
 2455      696E6974 
 2455      00
 2456              	.LASF27:
 2457 03f4 41484231 		.ascii	"AHB1ENR\000"
 2457      454E5200 
 2458              	.LASF84:
 2459 03fc 6F766572 		.ascii	"overflow_cb\000"
 2459      666C6F77 
 2459      5F636200 
 2460              	.LASF6:
 2461 0408 5F5F696E 		.ascii	"__int32_t\000"
 2461      7433325F 
 2461      7400
 2462              	.LASF101:
 2463 0412 474E5520 		.ascii	"GNU C 4.8.4 20140526 (release) [ARM/embedded-4_8-br"
 2463      4320342E 
 2463      382E3420 
 2463      32303134 
 2463      30353236 
 2464 0445 616E6368 		.ascii	"anch revision 211358] -mcpu=cortex-m4 -mfloat-abi=h"
ARM GAS  /tmp/cc0Dp4m9.s 			page 48


 2464      20726576 
 2464      6973696F 
 2464      6E203231 
 2464      31333538 
 2465 0478 61726420 		.ascii	"ard -mfpu=fpv4-sp-d16 -mno-thumb-interwork -mthumb "
 2465      2D6D6670 
 2465      753D6670 
 2465      76342D73 
 2465      702D6431 
 2466 04ab 2D676764 		.ascii	"-ggdb -O2 -fomit-frame-pointer -falign-functions=16"
 2466      62202D4F 
 2466      32202D66 
 2466      6F6D6974 
 2466      2D667261 
 2467 04de 202D6666 		.ascii	" -ffunction-sections -fdata-sections -fno-common -f"
 2467      756E6374 
 2467      696F6E2D 
 2467      73656374 
 2467      696F6E73 
 2468 0511 73696E67 		.ascii	"single-precision-constant\000"
 2468      6C652D70 
 2468      72656369 
 2468      73696F6E 
 2468      2D636F6E 
 2469              	.LASF86:
 2470 052b 64696572 		.ascii	"dier\000"
 2470      00
 2471              	.LASF55:
 2472 0530 49435544 		.ascii	"ICUDriver\000"
 2472      72697665 
 2472      7200
 2473              	.LASF81:
 2474 053a 66726571 		.ascii	"frequency\000"
 2474      75656E63 
 2474      7900
 2475              	.LASF50:
 2476 0544 4943555F 		.ascii	"ICU_READY\000"
 2476      52454144 
 2476      5900
 2477              	.LASF104:
 2478 054e 6963755F 		.ascii	"icu_lld_serve_interrupt\000"
 2478      6C6C645F 
 2478      73657276 
 2478      655F696E 
 2478      74657272 
 2479              	.LASF22:
 2480 0566 41484233 		.ascii	"AHB3RSTR\000"
 2480      52535452 
 2480      00
 2481              	.LASF98:
 2482 056f 6963754F 		.ascii	"icuObjectInit\000"
 2482      626A6563 
 2482      74496E69 
 2482      7400
 2483              	.LASF96:
 2484 057d 49544D5F 		.ascii	"ITM_RxBuffer\000"
 2484      52784275 
ARM GAS  /tmp/cc0Dp4m9.s 			page 49


 2484      66666572 
 2484      00
 2485              	.LASF18:
 2486 058a 504C4C43 		.ascii	"PLLCFGR\000"
 2486      46475200 
 2487              	.LASF45:
 2488 0592 504C4C53 		.ascii	"PLLSAICFGR\000"
 2488      41494346 
 2488      475200
 2489              	.LASF39:
 2490 059d 41504232 		.ascii	"APB2LPENR\000"
 2490      4C50454E 
 2490      5200
 2491              	.LASF54:
 2492 05a7 69637573 		.ascii	"icustate_t\000"
 2492      74617465 
 2492      5F7400
 2493              	.LASF51:
 2494 05b2 4943555F 		.ascii	"ICU_WAITING\000"
 2494      57414954 
 2494      494E4700 
 2495              		.ident	"GCC: (GNU Tools for ARM Embedded Processors) 4.8.4 20140526 (release) [ARM/embedded-4_8-br
ARM GAS  /tmp/cc0Dp4m9.s 			page 50


DEFINED SYMBOLS
                            *ABS*:00000000 icu_lld.c
     /tmp/cc0Dp4m9.s:21     .text.Vector108:00000000 $t
     /tmp/cc0Dp4m9.s:27     .text.Vector108:00000000 Vector108
     /tmp/cc0Dp4m9.s:155    .text.Vector108:00000088 $d
     /tmp/cc0Dp4m9.s:162    .text.icu_lld_init:00000000 $t
     /tmp/cc0Dp4m9.s:168    .text.icu_lld_init:00000000 icu_lld_init
     /tmp/cc0Dp4m9.s:190    .text.icu_lld_init:00000010 $d
     /tmp/cc0Dp4m9.s:196    .text.icu_lld_start:00000000 $t
     /tmp/cc0Dp4m9.s:202    .text.icu_lld_start:00000000 icu_lld_start
     /tmp/cc0Dp4m9.s:386    .text.icu_lld_start:000000d4 $d
     /tmp/cc0Dp4m9.s:394    .text.icu_lld_stop:00000000 $t
     /tmp/cc0Dp4m9.s:400    .text.icu_lld_stop:00000000 icu_lld_stop
     /tmp/cc0Dp4m9.s:449    .text.icu_lld_stop:0000002c $d
     /tmp/cc0Dp4m9.s:455    .text.icu_lld_enable:00000000 $t
     /tmp/cc0Dp4m9.s:461    .text.icu_lld_enable:00000000 icu_lld_enable
     /tmp/cc0Dp4m9.s:541    .text.icu_lld_disable:00000000 $t
     /tmp/cc0Dp4m9.s:547    .text.icu_lld_disable:00000000 icu_lld_disable
     /tmp/cc0Dp4m9.s:575    .bss.ICUD5:00000000 ICUD5
     /tmp/cc0Dp4m9.s:571    .bss.ICUD5:00000000 $d
     /tmp/cc0Dp4m9.s:578    .rodata.str1.4:00000000 $d
                     .debug_frame:00000010 $d
     /tmp/cc0Dp4m9.s:161    .text.Vector108:0000008c $t
     /tmp/cc0Dp4m9.s:195    .text.icu_lld_init:00000018 $t
     /tmp/cc0Dp4m9.s:2495   .text.icu_lld_start:000000e4 $t
     /tmp/cc0Dp4m9.s:454    .text.icu_lld_stop:00000034 $t

UNDEFINED SYMBOLS
_port_irq_epilogue
icuObjectInit
chDbgPanic
nvicEnableVector
nvicDisableVector
