ARM GAS  /tmp/cc0Dp4m9.s 			page 1


   1              		.syntax unified
   2              		.cpu cortex-m4
   3              		.eabi_attribute 27, 3
   4              		.eabi_attribute 28, 1
   5              		.fpu fpv4-sp-d16
   6              		.eabi_attribute 20, 1
   7              		.eabi_attribute 21, 1
   8              		.eabi_attribute 23, 3
   9              		.eabi_attribute 24, 1
  10              		.eabi_attribute 25, 1
  11              		.eabi_attribute 26, 1
  12              		.eabi_attribute 30, 2
  13              		.eabi_attribute 34, 1
  14              		.eabi_attribute 18, 4
  15              		.thumb
  16              		.file	"icu_lld.c"
  17              		.text
  18              	.Ltext0:
  19              		.cfi_sections	.debug_frame
  20              		.section	.text.Vector108,"ax",%progbits
  21              		.align	2
  22              		.p2align 4,,15
  23              		.global	Vector108
  24              		.thumb
  25              		.thumb_func
  26              		.type	Vector108, %function
  27              	Vector108:
  28              	.LFB112:
  29              		.file 1 "../../os/hal/platforms/STM32/TIMv1/icu_lld.c"
  30              		.loc 1 256 0
  31              		.cfi_startproc
  32              		@ args = 0, pretend = 0, frame = 0
  33              		@ frame_needed = 0, uses_anonymous_args = 0
  34              	.LVL0:
  35 0000 38B5     		push	{r3, r4, r5, lr}
  36              		.cfi_def_cfa_offset 16
  37              		.cfi_offset 3, -16
  38              		.cfi_offset 4, -12
  39              		.cfi_offset 5, -8
  40              		.cfi_offset 14, -4
  41              	.LBB8:
  42              	.LBB9:
  43              		.loc 1 114 0
  44 0002 214C     		ldr	r4, .L34
  45 0004 E368     		ldr	r3, [r4, #12]
  46              		.loc 1 117 0
  47 0006 6268     		ldr	r2, [r4, #4]
  48              		.loc 1 114 0
  49 0008 1869     		ldr	r0, [r3, #16]
  50              	.LVL1:
  51              		.loc 1 115 0
  52 000a DD68     		ldr	r5, [r3, #12]
  53              		.loc 1 117 0
  54 000c 117D     		ldrb	r1, [r2, #20]	@ zero_extendqisi2
  55              		.loc 1 115 0
  56 000e 0540     		ands	r5, r5, r0
  57 0010 ADB2     		uxth	r5, r5
ARM GAS  /tmp/cc0Dp4m9.s 			page 2


  58              	.LVL2:
  59              		.loc 1 116 0
  60 0012 E8B2     		uxtb	r0, r5
  61 0014 C043     		mvns	r0, r0
  62 0016 1861     		str	r0, [r3, #16]
  63              		.loc 1 117 0
  64 0018 A9B9     		cbnz	r1, .L2
  65              		.loc 1 118 0
  66 001a AB07     		lsls	r3, r5, #30
  67 001c 07D5     		bpl	.L4
  68              	.LBB10:
  69              		.loc 1 119 0
  70 001e 2378     		ldrb	r3, [r4]	@ zero_extendqisi2
  71              	.LVL3:
  72 0020 0421     		movs	r1, #4
  73 0022 032B     		cmp	r3, #3
  74 0024 2170     		strb	r1, [r4]
  75 0026 02D0     		beq	.L4
  76 0028 D368     		ldr	r3, [r2, #12]
  77 002a 2046     		mov	r0, r4
  78 002c 9847     		blx	r3
  79              	.LVL4:
  80              	.L4:
  81              	.LBE10:
  82              		.loc 1 120 0
  83 002e 6807     		lsls	r0, r5, #29
  84 0030 1FD4     		bmi	.L33
  85              	.L7:
  86              		.loc 1 128 0
  87 0032 EB07     		lsls	r3, r5, #31
  88 0034 03D5     		bpl	.L10
  89              		.loc 1 129 0
  90 0036 6368     		ldr	r3, [r4, #4]
  91 0038 1348     		ldr	r0, .L34
  92 003a 1B69     		ldr	r3, [r3, #16]
  93 003c 9847     		blx	r3
  94              	.LVL5:
  95              	.L10:
  96              	.LBE9:
  97              	.LBE8:
  98              		.loc 1 263 0
  99 003e BDE83840 		pop	{r3, r4, r5, lr}
 100              	.LVL6:
 101              		.loc 1 262 0
 102 0042 FFF7FEBF 		b	_port_irq_epilogue
 103              	.LVL7:
 104              	.L2:
 105              	.LBB13:
 106              	.LBB12:
 107              		.loc 1 123 0
 108 0046 A907     		lsls	r1, r5, #30
 109 0048 07D5     		bpl	.L9
 110              		.loc 1 124 0
 111 004a 2378     		ldrb	r3, [r4]	@ zero_extendqisi2
 112 004c 032B     		cmp	r3, #3
 113 004e 04D0     		beq	.L9
 114 0050 0521     		movs	r1, #5
ARM GAS  /tmp/cc0Dp4m9.s 			page 3


 115 0052 9368     		ldr	r3, [r2, #8]
 116 0054 2170     		strb	r1, [r4]
 117 0056 2046     		mov	r0, r4
 118 0058 9847     		blx	r3
 119              	.LVL8:
 120              	.L9:
 121              		.loc 1 125 0
 122 005a 6A07     		lsls	r2, r5, #29
 123 005c E9D5     		bpl	.L7
 124              	.LBB11:
 125              		.loc 1 126 0
 126 005e 2378     		ldrb	r3, [r4]	@ zero_extendqisi2
 127              	.LVL9:
 128 0060 0948     		ldr	r0, .L34
 129 0062 0422     		movs	r2, #4
 130 0064 032B     		cmp	r3, #3
 131 0066 2270     		strb	r2, [r4]
 132 0068 E3D0     		beq	.L7
 133 006a 4368     		ldr	r3, [r0, #4]
 134 006c DB68     		ldr	r3, [r3, #12]
 135 006e 9847     		blx	r3
 136              	.LVL10:
 137 0070 DFE7     		b	.L7
 138              	.L33:
 139              	.LBE11:
 140              		.loc 1 121 0
 141 0072 2378     		ldrb	r3, [r4]	@ zero_extendqisi2
 142 0074 0448     		ldr	r0, .L34
 143 0076 032B     		cmp	r3, #3
 144 0078 DBD0     		beq	.L7
 145 007a 4368     		ldr	r3, [r0, #4]
 146 007c 0522     		movs	r2, #5
 147 007e 9B68     		ldr	r3, [r3, #8]
 148 0080 0270     		strb	r2, [r0]
 149 0082 9847     		blx	r3
 150              	.LVL11:
 151 0084 D5E7     		b	.L7
 152              	.L35:
 153 0086 00BF     		.align	2
 154              	.L34:
 155 0088 00000000 		.word	.LANCHOR0
 156              	.LBE12:
 157              	.LBE13:
 158              		.cfi_endproc
 159              	.LFE112:
 160              		.size	Vector108, .-Vector108
 161 008c AFF30080 		.section	.text.icu_lld_init,"ax",%progbits
 162              		.align	2
 163              		.p2align 4,,15
 164              		.global	icu_lld_init
 165              		.thumb
 166              		.thumb_func
 167              		.type	icu_lld_init, %function
 168              	icu_lld_init:
 169              	.LFB113:
 170              		.loc 1 339 0
 171              		.cfi_startproc
ARM GAS  /tmp/cc0Dp4m9.s 			page 4


 172              		@ args = 0, pretend = 0, frame = 0
 173              		@ frame_needed = 0, uses_anonymous_args = 0
 174 0000 10B5     		push	{r4, lr}
 175              		.cfi_def_cfa_offset 8
 176              		.cfi_offset 4, -8
 177              		.cfi_offset 14, -4
 178              		.loc 1 367 0
 179 0002 034C     		ldr	r4, .L37
 180 0004 2046     		mov	r0, r4
 181 0006 FFF7FEFF 		bl	icuObjectInit
 182              	.LVL12:
 183              		.loc 1 368 0
 184 000a 024B     		ldr	r3, .L37+4
 185 000c E360     		str	r3, [r4, #12]
 186 000e 10BD     		pop	{r4, pc}
 187              	.L38:
 188              		.align	2
 189              	.L37:
 190 0010 00000000 		.word	.LANCHOR0
 191 0014 000C0040 		.word	1073744896
 192              		.cfi_endproc
 193              	.LFE113:
 194              		.size	icu_lld_init, .-icu_lld_init
 195 0018 AFF30080 		.section	.text.icu_lld_start,"ax",%progbits
 195      AFF30080 
 196              		.align	2
 197              		.p2align 4,,15
 198              		.global	icu_lld_start
 199              		.thumb
 200              		.thumb_func
 201              		.type	icu_lld_start, %function
 202              	icu_lld_start:
 203              	.LFB114:
 204              		.loc 1 391 0
 205              		.cfi_startproc
 206              		@ args = 0, pretend = 0, frame = 0
 207              		@ frame_needed = 0, uses_anonymous_args = 0
 208              	.LVL13:
 209 0000 38B5     		push	{r3, r4, r5, lr}
 210              		.cfi_def_cfa_offset 16
 211              		.cfi_offset 3, -16
 212              		.cfi_offset 4, -12
 213              		.cfi_offset 5, -8
 214              		.cfi_offset 14, -4
 215              		.loc 1 394 0
 216 0002 4368     		ldr	r3, [r0, #4]
 217 0004 1B7D     		ldrb	r3, [r3, #20]	@ zero_extendqisi2
 218 0006 012B     		cmp	r3, #1
 219              		.loc 1 391 0
 220 0008 0446     		mov	r4, r0
 221              		.loc 1 394 0
 222 000a 02D9     		bls	.L40
 223              		.loc 1 394 0 is_stmt 0 discriminator 1
 224 000c 3148     		ldr	r0, .L56
 225              	.LVL14:
 226 000e FFF7FEFF 		bl	chDbgPanic
 227              	.LVL15:
ARM GAS  /tmp/cc0Dp4m9.s 			page 5


 228              	.L40:
 229              		.loc 1 398 0 is_stmt 1
 230 0012 2378     		ldrb	r3, [r4]	@ zero_extendqisi2
 231 0014 012B     		cmp	r3, #1
 232 0016 46D0     		beq	.L53
 233              		.loc 1 479 0
 234 0018 6268     		ldr	r2, [r4, #4]
 235              		.loc 1 478 0
 236 001a E368     		ldr	r3, [r4, #12]
 237              		.loc 1 479 0
 238 001c 9069     		ldr	r0, [r2, #24]
 239              		.loc 1 478 0
 240 001e 0021     		movs	r1, #0
 241              		.loc 1 479 0
 242 0020 20F0FF00 		bic	r0, r0, #255
 243              		.loc 1 478 0
 244 0024 1960     		str	r1, [r3]
 245              		.loc 1 479 0
 246 0026 D860     		str	r0, [r3, #12]
 247              		.loc 1 481 0
 248 0028 1961     		str	r1, [r3, #16]
 249              		.loc 1 482 0
 250 002a 5963     		str	r1, [r3, #52]
 251              		.loc 1 483 0
 252 002c 9963     		str	r1, [r3, #56]
 253              		.loc 1 484 0
 254 002e 5962     		str	r1, [r3, #36]
 255              	.L43:
 256              		.loc 1 488 0
 257 0030 A368     		ldr	r3, [r4, #8]
 258 0032 5068     		ldr	r0, [r2, #4]
 259 0034 B3FBF0F1 		udiv	r1, r3, r0
 260 0038 4D1E     		subs	r5, r1, #1
 261              	.LVL16:
 262              		.loc 1 489 0
 263 003a B5F5803F 		cmp	r5, #65536
 264 003e 03D2     		bcs	.L44
 265              		.loc 1 489 0 is_stmt 0 discriminator 2
 266 0040 00FB01F1 		mul	r1, r0, r1
 267 0044 8B42     		cmp	r3, r1
 268 0046 03D0     		beq	.L45
 269              	.L44:
 270              		.loc 1 489 0 discriminator 1
 271 0048 2248     		ldr	r0, .L56
 272 004a FFF7FEFF 		bl	chDbgPanic
 273              	.LVL17:
 274 004e 6268     		ldr	r2, [r4, #4]
 275              	.L45:
 276              		.loc 1 495 0 is_stmt 1
 277 0050 117D     		ldrb	r1, [r2, #20]	@ zero_extendqisi2
 278              		.loc 1 492 0
 279 0052 E368     		ldr	r3, [r4, #12]
 280              		.loc 1 508 0
 281 0054 1278     		ldrb	r2, [r2]	@ zero_extendqisi2
 282              		.loc 1 492 0
 283 0056 ADB2     		uxth	r5, r5
 284              	.LVL18:
ARM GAS  /tmp/cc0Dp4m9.s 			page 6


 285              		.loc 1 493 0
 286 0058 4FF6FF70 		movw	r0, #65535
 287              		.loc 1 492 0
 288 005c 9D62     		str	r5, [r3, #40]
 289              		.loc 1 493 0
 290 005e D862     		str	r0, [r3, #44]
 291              		.loc 1 495 0
 292 0060 69B9     		cbnz	r1, .L46
 293              		.loc 1 499 0
 294 0062 40F20120 		movw	r0, #513
 295              		.loc 1 503 0
 296 0066 5421     		movs	r1, #84
 297              		.loc 1 499 0
 298 0068 9861     		str	r0, [r3, #24]
 299              		.loc 1 503 0
 300 006a 9960     		str	r1, [r3, #8]
 301              		.loc 1 508 0
 302 006c C2B1     		cbz	r2, .L54
 303              		.loc 1 512 0
 304 006e 1322     		movs	r2, #19
 305 0070 1A62     		str	r2, [r3, #32]
 306              	.L48:
 307              		.loc 1 517 0 discriminator 1
 308 0072 03F13802 		add	r2, r3, #56
 309              		.loc 1 518 0 discriminator 1
 310 0076 3433     		adds	r3, r3, #52
 311              		.loc 1 517 0 discriminator 1
 312 0078 2261     		str	r2, [r4, #16]
 313              		.loc 1 518 0 discriminator 1
 314 007a 6361     		str	r3, [r4, #20]
 315 007c 38BD     		pop	{r3, r4, r5, pc}
 316              	.LVL19:
 317              	.L46:
 318              		.loc 1 523 0
 319 007e 4FF48170 		mov	r0, #258
 320              		.loc 1 527 0
 321 0082 6421     		movs	r1, #100
 322              		.loc 1 523 0
 323 0084 9861     		str	r0, [r3, #24]
 324              		.loc 1 527 0
 325 0086 9960     		str	r1, [r3, #8]
 326              		.loc 1 532 0
 327 0088 3AB1     		cbz	r2, .L55
 328              		.loc 1 536 0
 329 008a 3122     		movs	r2, #49
 330 008c 1A62     		str	r2, [r3, #32]
 331              	.L51:
 332              		.loc 1 541 0
 333 008e 03F13402 		add	r2, r3, #52
 334              		.loc 1 542 0
 335 0092 3833     		adds	r3, r3, #56
 336              		.loc 1 541 0
 337 0094 2261     		str	r2, [r4, #16]
 338              		.loc 1 542 0
 339 0096 6361     		str	r3, [r4, #20]
 340 0098 38BD     		pop	{r3, r4, r5, pc}
 341              	.LVL20:
ARM GAS  /tmp/cc0Dp4m9.s 			page 7


 342              	.L55:
 343              		.loc 1 533 0
 344 009a 1322     		movs	r2, #19
 345 009c 1A62     		str	r2, [r3, #32]
 346 009e F6E7     		b	.L51
 347              	.L54:
 348              		.loc 1 509 0
 349 00a0 3122     		movs	r2, #49
 350 00a2 1A62     		str	r2, [r3, #32]
 351 00a4 E5E7     		b	.L48
 352              	.L53:
 353              		.loc 1 443 0
 354 00a6 0C4B     		ldr	r3, .L56+4
 355 00a8 9C42     		cmp	r4, r3
 356 00aa 01D0     		beq	.L42
 357              	.L52:
 358 00ac 6268     		ldr	r2, [r4, #4]
 359 00ae BFE7     		b	.L43
 360              	.L42:
 361              		.loc 1 444 0
 362 00b0 0A4B     		ldr	r3, .L56+8
 363 00b2 1A6C     		ldr	r2, [r3, #64]
 364 00b4 42F00802 		orr	r2, r2, #8
 365 00b8 1A64     		str	r2, [r3, #64]
 366              		.loc 1 445 0
 367 00ba 196A     		ldr	r1, [r3, #32]
 368 00bc 0022     		movs	r2, #0
 369 00be 41F00801 		orr	r1, r1, #8
 370 00c2 1962     		str	r1, [r3, #32]
 371              		.loc 1 446 0
 372 00c4 3220     		movs	r0, #50
 373              		.loc 1 445 0
 374 00c6 1A62     		str	r2, [r3, #32]
 375              		.loc 1 446 0
 376 00c8 7021     		movs	r1, #112
 377 00ca FFF7FEFF 		bl	nvicEnableVector
 378              	.LVL21:
 379              		.loc 1 448 0
 380 00ce 044B     		ldr	r3, .L56+12
 381 00d0 A360     		str	r3, [r4, #8]
 382 00d2 EBE7     		b	.L52
 383              	.L57:
 384              		.align	2
 385              	.L56:
 386 00d4 00000000 		.word	.LC0
 387 00d8 00000000 		.word	.LANCHOR0
 388 00dc 00380240 		.word	1073887232
 389 00e0 00BD0105 		.word	84000000
 390              		.cfi_endproc
 391              	.LFE114:
 392              		.size	icu_lld_start, .-icu_lld_start
 393              		.section	.text.icu_lld_stop,"ax",%progbits
 394              		.align	2
 395              		.p2align 4,,15
 396              		.global	icu_lld_stop
 397              		.thumb
 398              		.thumb_func
ARM GAS  /tmp/cc0Dp4m9.s 			page 8


 399              		.type	icu_lld_stop, %function
 400              	icu_lld_stop:
 401              	.LFB115:
 402              		.loc 1 553 0
 403              		.cfi_startproc
 404              		@ args = 0, pretend = 0, frame = 0
 405              		@ frame_needed = 0, uses_anonymous_args = 0
 406              	.LVL22:
 407 0000 08B5     		push	{r3, lr}
 408              		.cfi_def_cfa_offset 8
 409              		.cfi_offset 3, -8
 410              		.cfi_offset 14, -4
 411              		.loc 1 555 0
 412 0002 0378     		ldrb	r3, [r0]	@ zero_extendqisi2
 413 0004 022B     		cmp	r3, #2
 414 0006 00D0     		beq	.L62
 415              	.LVL23:
 416              	.L58:
 417 0008 08BD     		pop	{r3, pc}
 418              	.LVL24:
 419              	.L62:
 420              		.loc 1 587 0
 421 000a 0849     		ldr	r1, .L63
 422              		.loc 1 557 0
 423 000c C368     		ldr	r3, [r0, #12]
 424 000e 0022     		movs	r2, #0
 425              		.loc 1 587 0
 426 0010 8842     		cmp	r0, r1
 427              		.loc 1 557 0
 428 0012 1A60     		str	r2, [r3]
 429              		.loc 1 558 0
 430 0014 DA60     		str	r2, [r3, #12]
 431              		.loc 1 559 0
 432 0016 1A61     		str	r2, [r3, #16]
 433              		.loc 1 587 0
 434 0018 F6D1     		bne	.L58
 435              		.loc 1 588 0
 436 001a 3220     		movs	r0, #50
 437              	.LVL25:
 438 001c FFF7FEFF 		bl	nvicDisableVector
 439              	.LVL26:
 440              		.loc 1 589 0
 441 0020 034B     		ldr	r3, .L63+4
 442 0022 1A6C     		ldr	r2, [r3, #64]
 443 0024 22F00802 		bic	r2, r2, #8
 444 0028 1A64     		str	r2, [r3, #64]
 445 002a EDE7     		b	.L58
 446              	.L64:
 447              		.align	2
 448              	.L63:
 449 002c 00000000 		.word	.LANCHOR0
 450 0030 00380240 		.word	1073887232
 451              		.cfi_endproc
 452              	.LFE115:
 453              		.size	icu_lld_stop, .-icu_lld_stop
 454 0034 AFF30080 		.section	.text.icu_lld_enable,"ax",%progbits
 454      AFF30080 
ARM GAS  /tmp/cc0Dp4m9.s 			page 9


 454      AFF30080 
 455              		.align	2
 456              		.p2align 4,,15
 457              		.global	icu_lld_enable
 458              		.thumb
 459              		.thumb_func
 460              		.type	icu_lld_enable, %function
 461              	icu_lld_enable:
 462              	.LFB116:
 463              		.loc 1 615 0
 464              		.cfi_startproc
 465              		@ args = 0, pretend = 0, frame = 0
 466              		@ frame_needed = 0, uses_anonymous_args = 0
 467              		@ link register save eliminated.
 468              	.LVL27:
 469              		.loc 1 617 0
 470 0000 C368     		ldr	r3, [r0, #12]
 471              		.loc 1 619 0
 472 0002 4268     		ldr	r2, [r0, #4]
 473              		.loc 1 617 0
 474 0004 5869     		ldr	r0, [r3, #20]
 475              	.LVL28:
 476              		.loc 1 619 0
 477 0006 117D     		ldrb	r1, [r2, #20]	@ zero_extendqisi2
 478              		.loc 1 615 0
 479 0008 10B4     		push	{r4}
 480              		.cfi_def_cfa_offset 4
 481              		.cfi_offset 4, -4
 482              		.loc 1 617 0
 483 000a 40F00100 		orr	r0, r0, #1
 484              		.loc 1 618 0
 485 000e 0024     		movs	r4, #0
 486              		.loc 1 617 0
 487 0010 5861     		str	r0, [r3, #20]
 488              		.loc 1 618 0
 489 0012 1C61     		str	r4, [r3, #16]
 490              		.loc 1 619 0
 491 0014 B1B9     		cbnz	r1, .L66
 492              		.loc 1 620 0
 493 0016 D168     		ldr	r1, [r2, #12]
 494 0018 19B1     		cbz	r1, .L67
 495              		.loc 1 621 0
 496 001a D968     		ldr	r1, [r3, #12]
 497 001c 41F00201 		orr	r1, r1, #2
 498 0020 D960     		str	r1, [r3, #12]
 499              	.L67:
 500              		.loc 1 622 0
 501 0022 9168     		ldr	r1, [r2, #8]
 502 0024 19B1     		cbz	r1, .L69
 503              	.L85:
 504              		.loc 1 628 0
 505 0026 D968     		ldr	r1, [r3, #12]
 506 0028 41F00401 		orr	r1, r1, #4
 507 002c D960     		str	r1, [r3, #12]
 508              	.L69:
 509              		.loc 1 630 0
 510 002e 1269     		ldr	r2, [r2, #16]
ARM GAS  /tmp/cc0Dp4m9.s 			page 10


 511 0030 1AB1     		cbz	r2, .L72
 512              		.loc 1 631 0
 513 0032 DA68     		ldr	r2, [r3, #12]
 514 0034 42F00102 		orr	r2, r2, #1
 515 0038 DA60     		str	r2, [r3, #12]
 516              	.L72:
 517              		.loc 1 632 0
 518 003a 0522     		movs	r2, #5
 519 003c 1A60     		str	r2, [r3]
 520              		.loc 1 633 0
 521 003e 5DF8044B 		ldr	r4, [sp], #4
 522 0042 7047     		bx	lr
 523              	.L66:
 524              		.loc 1 625 0
 525 0044 9168     		ldr	r1, [r2, #8]
 526 0046 19B1     		cbz	r1, .L70
 527              		.loc 1 626 0
 528 0048 D968     		ldr	r1, [r3, #12]
 529 004a 41F00201 		orr	r1, r1, #2
 530 004e D960     		str	r1, [r3, #12]
 531              	.L70:
 532              		.loc 1 627 0
 533 0050 D168     		ldr	r1, [r2, #12]
 534 0052 0029     		cmp	r1, #0
 535 0054 E7D1     		bne	.L85
 536 0056 EAE7     		b	.L69
 537              		.cfi_endproc
 538              	.LFE116:
 539              		.size	icu_lld_enable, .-icu_lld_enable
 540 0058 AFF30080 		.section	.text.icu_lld_disable,"ax",%progbits
 540      AFF30080 
 541              		.align	2
 542              		.p2align 4,,15
 543              		.global	icu_lld_disable
 544              		.thumb
 545              		.thumb_func
 546              		.type	icu_lld_disable, %function
 547              	icu_lld_disable:
 548              	.LFB117:
 549              		.loc 1 642 0
 550              		.cfi_startproc
 551              		@ args = 0, pretend = 0, frame = 0
 552              		@ frame_needed = 0, uses_anonymous_args = 0
 553              		@ link register save eliminated.
 554              	.LVL29:
 555              		.loc 1 644 0
 556 0000 C368     		ldr	r3, [r0, #12]
 557 0002 0022     		movs	r2, #0
 558 0004 1A60     		str	r2, [r3]
 559              		.loc 1 645 0
 560 0006 1A61     		str	r2, [r3, #16]
 561              		.loc 1 648 0
 562 0008 DA68     		ldr	r2, [r3, #12]
 563 000a 22F0FF02 		bic	r2, r2, #255
 564 000e DA60     		str	r2, [r3, #12]
 565 0010 7047     		bx	lr
 566              		.cfi_endproc
ARM GAS  /tmp/cc0Dp4m9.s 			page 11


 567              	.LFE117:
 568              		.size	icu_lld_disable, .-icu_lld_disable
 569              		.global	ICUD5
 570 0012 00BFAFF3 		.section	.bss.ICUD5,"aw",%nobits
 570      0080AFF3 
 570      0080AFF3 
 570      0080
 571              		.align	2
 572              		.set	.LANCHOR0,. + 0
 573              		.type	ICUD5, %object
 574              		.size	ICUD5, 24
 575              	ICUD5:
 576 0000 00000000 		.space	24
 576      00000000 
 576      00000000 
 576      00000000 
 576      00000000 
 577              		.section	.rodata.str1.4,"aMS",%progbits,1
 578              		.align	2
 579              	.LC0:
 580 0000 6963755F 		.ascii	"icu_lld_start(), #1\000"
 580      6C6C645F 
 580      73746172 
 580      7428292C 
 580      20233100 
 581              		.text
 582              	.Letext0:
 583              		.file 2 "/opt/ARM/arm-none-eabi/include/machine/_default_types.h"
 584              		.file 3 "/opt/ARM/arm-none-eabi/include/stdint.h"
 585              		.file 4 "../../os/hal/platforms/STM32F4xx/stm32f4xx.h"
 586              		.file 5 "../../os/hal/include/icu.h"
 587              		.file 6 "../../os/hal/platforms/STM32/TIMv1/icu_lld.h"
 588              		.file 7 "../../os/hal/platforms/STM32/TIMv1/stm32_tim.h"
 589              		.file 8 "../../os/ports/common/ARMCMx/CMSIS/include/core_cm4.h"
 590              		.file 9 "../../os/kernel/include/chdebug.h"
 591              		.file 10 "../../os/ports/common/ARMCMx/nvic.h"
 592              		.file 11 "../../os/ports/GCC/ARMCMx/chcore_v7m.h"