ARM GAS  /tmp/ccmb1veH.s 			page 1


   1              		.syntax unified
   2              		.cpu cortex-m4
   3              		.eabi_attribute 27, 3
   4              		.eabi_attribute 28, 1
   5              		.fpu fpv4-sp-d16
   6              		.eabi_attribute 20, 1
   7              		.eabi_attribute 21, 1
   8              		.eabi_attribute 23, 3
   9              		.eabi_attribute 24, 1
  10              		.eabi_attribute 25, 1
  11              		.eabi_attribute 26, 1
  12              		.eabi_attribute 30, 2
  13              		.eabi_attribute 34, 1
  14              		.eabi_attribute 18, 4
  15              		.thumb
  16              		.file	"label.c"
  17              		.text
  18              	.Ltext0:
  19              		.cfi_sections	.debug_frame
  20              		.section	.text.gwinLabelDefaultDraw,"ax",%progbits
  21              		.align	2
  22              		.p2align 4,,15
  23              		.thumb
  24              		.thumb_func
  25              		.type	gwinLabelDefaultDraw, %function
  26              	gwinLabelDefaultDraw:
  27              	.LFB115:
  28              		.file 1 "/home/makkmarci/devel/ugfx/src/gwin/label.c"
  29              		.loc 1 139 0
  30              		.cfi_startproc
  31              		@ args = 0, pretend = 0, frame = 0
  32              		@ frame_needed = 0, uses_anonymous_args = 0
  33              	.LVL0:
  34 0000 F0B5     		push	{r4, r5, r6, r7, lr}
  35              		.cfi_def_cfa_offset 20
  36              		.cfi_offset 4, -20
  37              		.cfi_offset 5, -16
  38              		.cfi_offset 6, -12
  39              		.cfi_offset 7, -8
  40              		.cfi_offset 14, -4
  41              		.loc 1 145 0
  42 0002 2D4A     		ldr	r2, .L25
  43 0004 4368     		ldr	r3, [r0, #4]
  44 0006 9342     		cmp	r3, r2
  45              		.loc 1 139 0
  46 0008 87B0     		sub	sp, sp, #28
  47              		.cfi_def_cfa_offset 48
  48              		.loc 1 139 0
  49 000a 0446     		mov	r4, r0
  50              		.loc 1 145 0
  51 000c 01D0     		beq	.L21
  52              	.LVL1:
  53              	.L1:
  54              		.loc 1 171 0
  55 000e 07B0     		add	sp, sp, #28
  56              		@ sp needed
  57 0010 F0BD     		pop	{r4, r5, r6, r7, pc}
ARM GAS  /tmp/ccmb1veH.s 			page 2


  58              	.LVL2:
  59              	.L21:
  60              	.LBB20:
  61              	.LBB21:
  62              		.loc 1 148 0
  63 0012 8369     		ldr	r3, [r0, #24]
  64 0014 D807     		lsls	r0, r3, #31
  65              	.LVL3:
  66 0016 19D4     		bmi	.L22
  67 0018 268A     		ldrh	r6, [r4, #16]
  68              	.LVL4:
  69              	.L5:
  70              		.loc 1 149 0
  71 001a 9907     		lsls	r1, r3, #30
  72 001c 20D4     		bmi	.L23
  73 001e 608A     		ldrh	r0, [r4, #18]
  74              	.L7:
  75              	.LVL5:
  76              		.loc 1 150 0
  77 0020 13F4006F 		tst	r3, #2048
  78              		.loc 1 152 0
  79 0024 B4F91050 		ldrsh	r5, [r4, #16]
  80              		.loc 1 150 0
  81 0028 E36A     		ldr	r3, [r4, #44]
  82              		.loc 1 152 0
  83 002a 31B2     		sxth	r1, r6
  84              		.loc 1 150 0
  85 002c 14BF     		ite	ne
  86 002e 5F88     		ldrhne	r7, [r3, #2]
  87 0030 5F89     		ldrheq	r7, [r3, #10]
  88              	.LVL6:
  89              		.loc 1 152 0
  90 0032 8D42     		cmp	r5, r1
  91 0034 12D1     		bne	.L24
  92 0036 B4F91260 		ldrsh	r6, [r4, #18]
  93              	.LVL7:
  94 003a 02B2     		sxth	r2, r0
  95 003c 9642     		cmp	r6, r2
  96 003e 15D0     		beq	.L11
  97              	.L10:
  98              		.loc 1 153 0
  99 0040 2046     		mov	r0, r4
 100              	.LVL8:
 101              	.LBE21:
 102              	.LBE20:
 103              		.loc 1 171 0
 104 0042 07B0     		add	sp, sp, #28
 105              		@ sp needed
 106 0044 BDE8F040 		pop	{r4, r5, r6, r7, lr}
 107              	.LVL9:
 108              	.LBB27:
 109              	.LBB26:
 110              		.loc 1 153 0
 111 0048 FFF7FEBF 		b	gwinResize
 112              	.LVL10:
 113              	.L22:
 114              	.LBB22:
ARM GAS  /tmp/ccmb1veH.s 			page 3


 115              	.LBB23:
 116              		.loc 1 37 0
 117 004c 206A     		ldr	r0, [r4, #32]
 118 004e E169     		ldr	r1, [r4, #28]
 119              	.LVL11:
 120 0050 FFF7FEFF 		bl	gdispGetStringWidth
 121              	.LVL12:
 122 0054 0230     		adds	r0, r0, #2
 123 0056 86B2     		uxth	r6, r0
 124 0058 A369     		ldr	r3, [r4, #24]
 125 005a DEE7     		b	.L5
 126              	.LVL13:
 127              	.L24:
 128 005c 02B2     		sxth	r2, r0
 129 005e EFE7     		b	.L10
 130              	.LVL14:
 131              	.L23:
 132              	.LBE23:
 133              	.LBE22:
 134              	.LBB24:
 135              	.LBB25:
 136              		.loc 1 45 0
 137 0060 E069     		ldr	r0, [r4, #28]
 138 0062 0021     		movs	r1, #0
 139 0064 FFF7FEFF 		bl	gdispGetFontMetric
 140              	.LVL15:
 141 0068 A369     		ldr	r3, [r4, #24]
 142 006a D9E7     		b	.L7
 143              	.LVL16:
 144              	.L11:
 145              	.LBE25:
 146              	.LBE24:
 147              		.loc 1 165 0
 148 006c 216A     		ldr	r1, [r4, #32]
 149 006e E269     		ldr	r2, [r4, #28]
 150 0070 0292     		str	r2, [sp, #8]
 151 0072 0096     		str	r6, [sp]
 152 0074 0397     		str	r7, [sp, #12]
 153 0076 0191     		str	r1, [sp, #4]
 154 0078 1B88     		ldrh	r3, [r3]
 155 007a B4F90E20 		ldrsh	r2, [r4, #14]
 156 007e A068     		ldr	r0, [r4, #8]
 157              	.LVL17:
 158 0080 B4F90C10 		ldrsh	r1, [r4, #12]
 159 0084 0493     		str	r3, [sp, #16]
 160 0086 0023     		movs	r3, #0
 161 0088 0593     		str	r3, [sp, #20]
 162 008a 2B46     		mov	r3, r5
 163 008c FFF7FEFF 		bl	gdispGFillStringBox
 164              	.LVL18:
 165              		.loc 1 169 0
 166 0090 A369     		ldr	r3, [r4, #24]
 167 0092 5A07     		lsls	r2, r3, #29
 168 0094 BBD5     		bpl	.L1
 169              		.loc 1 170 0
 170 0096 13F4006F 		tst	r3, #2048
 171 009a E36A     		ldr	r3, [r4, #44]
ARM GAS  /tmp/ccmb1veH.s 			page 4


 172 009c A189     		ldrh	r1, [r4, #12]
 173 009e E289     		ldrh	r2, [r4, #14]
 174 00a0 14BF     		ite	ne
 175 00a2 9B88     		ldrhne	r3, [r3, #4]
 176 00a4 9B89     		ldrheq	r3, [r3, #12]
 177 00a6 A068     		ldr	r0, [r4, #8]
 178 00a8 0193     		str	r3, [sp, #4]
 179 00aa 0096     		str	r6, [sp]
 180 00ac 09B2     		sxth	r1, r1
 181 00ae 12B2     		sxth	r2, r2
 182 00b0 2B46     		mov	r3, r5
 183 00b2 FFF7FEFF 		bl	gdispGDrawBox
 184              	.LVL19:
 185 00b6 AAE7     		b	.L1
 186              	.L26:
 187              		.align	2
 188              	.L25:
 189 00b8 00000000 		.word	.LANCHOR0
 190              	.LBE26:
 191              	.LBE27:
 192              		.cfi_endproc
 193              	.LFE115:
 194              		.size	gwinLabelDefaultDraw, .-gwinLabelDefaultDraw
 195 00bc AFF30080 		.section	.text.gwinGLabelCreate,"ax",%progbits
 196              		.align	2
 197              		.p2align 4,,15
 198              		.global	gwinGLabelCreate
 199              		.thumb
 200              		.thumb_func
 201              		.type	gwinGLabelCreate, %function
 202              	gwinGLabelCreate:
 203              	.LFB113:
 204              		.loc 1 85 0
 205              		.cfi_startproc
 206              		@ args = 0, pretend = 0, frame = 0
 207              		@ frame_needed = 0, uses_anonymous_args = 0
 208              	.LVL20:
 209 0000 F8B5     		push	{r3, r4, r5, r6, r7, lr}
 210              		.cfi_def_cfa_offset 24
 211              		.cfi_offset 3, -24
 212              		.cfi_offset 4, -20
 213              		.cfi_offset 5, -16
 214              		.cfi_offset 6, -12
 215              		.cfi_offset 7, -8
 216              		.cfi_offset 14, -4
 217              		.loc 1 89 0
 218 0002 B2F90430 		ldrsh	r3, [r2, #4]
 219 0006 002B     		cmp	r3, #0
 220              		.loc 1 85 0
 221 0008 1446     		mov	r4, r2
 222 000a 0746     		mov	r7, r0
 223 000c 0D46     		mov	r5, r1
 224              		.loc 1 89 0
 225 000e 15DD     		ble	.L35
 226              		.loc 1 96 0
 227 0010 B4F90630 		ldrsh	r3, [r4, #6]
 228 0014 002B     		cmp	r3, #0
ARM GAS  /tmp/ccmb1veH.s 			page 5


 229              		.loc 1 86 0
 230 0016 4FF00006 		mov	r6, #0
 231              	.LVL21:
 232              		.loc 1 96 0
 233 001a 1EDD     		ble	.L36
 234              	.LVL22:
 235              	.L29:
 236              		.loc 1 101 0
 237 001c 2946     		mov	r1, r5
 238 001e 3846     		mov	r0, r7
 239 0020 2246     		mov	r2, r4
 240 0022 124B     		ldr	r3, .L37
 241 0024 FFF7FEFF 		bl	_gwidgetCreate
 242              	.LVL23:
 243 0028 0546     		mov	r5, r0
 244 002a 28B1     		cbz	r0, .L30
 245              		.loc 1 109 0
 246 002c 8369     		ldr	r3, [r0, #24]
 247              		.loc 1 110 0
 248 002e 217A     		ldrb	r1, [r4, #8]	@ zero_extendqisi2
 249              		.loc 1 109 0
 250 0030 1E43     		orrs	r6, r6, r3
 251              	.LVL24:
 252 0032 8661     		str	r6, [r0, #24]
 253              		.loc 1 110 0
 254 0034 FFF7FEFF 		bl	gwinSetVisible
 255              	.LVL25:
 256              	.L30:
 257              		.loc 1 113 0
 258 0038 2846     		mov	r0, r5
 259 003a F8BD     		pop	{r3, r4, r5, r6, r7, pc}
 260              	.LVL26:
 261              	.L35:
 262              		.loc 1 92 0
 263 003c D668     		ldr	r6, [r2, #12]
 264 003e FFF7FEFF 		bl	gwinGetDefaultFont
 265              	.LVL27:
 266 0042 0146     		mov	r1, r0
 267              	.LVL28:
 268              	.LBB28:
 269              	.LBB29:
 270              		.loc 1 37 0
 271 0044 3046     		mov	r0, r6
 272              	.LVL29:
 273 0046 FFF7FEFF 		bl	gdispGetStringWidth
 274              	.LVL30:
 275              	.LBE29:
 276              	.LBE28:
 277              		.loc 1 96 0
 278 004a B4F90630 		ldrsh	r3, [r4, #6]
 279              	.LBB31:
 280              	.LBB30:
 281              		.loc 1 37 0
 282 004e 0230     		adds	r0, r0, #2
 283              	.LBE30:
 284              	.LBE31:
 285              		.loc 1 96 0
ARM GAS  /tmp/ccmb1veH.s 			page 6


 286 0050 002B     		cmp	r3, #0
 287              		.loc 1 92 0
 288 0052 A080     		strh	r0, [r4, #4]	@ movhi
 289              		.loc 1 91 0
 290 0054 4FF00106 		mov	r6, #1
 291              	.LVL31:
 292              		.loc 1 96 0
 293 0058 E0DC     		bgt	.L29
 294              	.LVL32:
 295              	.L36:
 296              		.loc 1 98 0
 297 005a FFF7FEFF 		bl	gwinGetDefaultFont
 298              	.LVL33:
 299              	.LBB32:
 300              	.LBB33:
 301              		.loc 1 45 0
 302 005e 0021     		movs	r1, #0
 303 0060 FFF7FEFF 		bl	gdispGetFontMetric
 304              	.LVL34:
 305              	.LBE33:
 306              	.LBE32:
 307              		.loc 1 97 0
 308 0064 46F00206 		orr	r6, r6, #2
 309              	.LVL35:
 310              		.loc 1 98 0
 311 0068 E080     		strh	r0, [r4, #6]	@ movhi
 312 006a D7E7     		b	.L29
 313              	.L38:
 314              		.align	2
 315              	.L37:
 316 006c 00000000 		.word	.LANCHOR0
 317              		.cfi_endproc
 318              	.LFE113:
 319              		.size	gwinGLabelCreate, .-gwinGLabelCreate
 320              		.section	.text.gwinLabelSetBorder,"ax",%progbits
 321              		.align	2
 322              		.p2align 4,,15
 323              		.global	gwinLabelSetBorder
 324              		.thumb
 325              		.thumb_func
 326              		.type	gwinLabelSetBorder, %function
 327              	gwinLabelSetBorder:
 328              	.LFB114:
 329              		.loc 1 115 0
 330              		.cfi_startproc
 331              		@ args = 0, pretend = 0, frame = 0
 332              		@ frame_needed = 0, uses_anonymous_args = 0
 333              		@ link register save eliminated.
 334              	.LVL36:
 335              		.loc 1 117 0
 336 0000 074A     		ldr	r2, .L44
 337 0002 4368     		ldr	r3, [r0, #4]
 338 0004 9342     		cmp	r3, r2
 339 0006 00D0     		beq	.L42
 340 0008 7047     		bx	lr
 341              	.L42:
 342              		.loc 1 121 0
ARM GAS  /tmp/ccmb1veH.s 			page 7


 343 000a 8369     		ldr	r3, [r0, #24]
 344              		.loc 1 120 0
 345 000c 19B9     		cbnz	r1, .L43
 346              		.loc 1 123 0
 347 000e 23F00403 		bic	r3, r3, #4
 348 0012 8361     		str	r3, [r0, #24]
 349 0014 7047     		bx	lr
 350              	.L43:
 351              		.loc 1 121 0
 352 0016 43F00403 		orr	r3, r3, #4
 353 001a 8361     		str	r3, [r0, #24]
 354 001c 7047     		bx	lr
 355              	.L45:
 356 001e 00BF     		.align	2
 357              	.L44:
 358 0020 00000000 		.word	.LANCHOR0
 359              		.cfi_endproc
 360              	.LFE114:
 361              		.size	gwinLabelSetBorder, .-gwinLabelSetBorder
 362 0024 AFF30080 		.section	.rodata.labelVMT,"a",%progbits
 362      AFF30080 
 362      AFF30080 
 363              		.align	2
 364              		.set	.LANCHOR0,. + 0
 365              		.type	labelVMT, %object
 366              		.size	labelVMT, 36
 367              	labelVMT:
 368 0000 00000000 		.word	.LC0
 369 0004 30000000 		.word	48
 370 0008 00000000 		.word	_gwidgetDestroy
 371 000c 00000000 		.word	_gwidgetRedraw
 372 0010 00000000 		.word	0
 373 0014 00000000 		.word	gwinLabelDefaultDraw
 374 0018 00000000 		.word	0
 375 001c 00000000 		.word	0
 376 0020 00000000 		.word	0
 377              		.section	.rodata.str1.4,"aMS",%progbits,1
 378              		.align	2
 379              	.LC0:
 380 0000 4C616265 		.ascii	"Label\000"
 380      6C00
 381 0006 0000     		.text
 382              	.Letext0:
 383              		.file 2 "/opt/ARM/lib/gcc/arm-none-eabi/4.8.4/include/stddef.h"
 384              		.file 3 "/opt/ARM/arm-none-eabi/include/machine/_default_types.h"
 385              		.file 4 "/opt/ARM/arm-none-eabi/include/stdint.h"
 386              		.file 5 "../../os/ports/GCC/ARMCMx/chtypes.h"
 387              		.file 6 "/home/makkmarci/devel/ugfx/src/gqueue/sys_defs.h"
 388              		.file 7 "/home/makkmarci/devel/ugfx/src/gdisp/sys_defs.h"
 389              		.file 8 "/home/makkmarci/devel/ugfx/src/gdisp/colors.h"
 390              		.file 9 "/home/makkmarci/devel/ugfx/src/gwin/sys_defs.h"
 391              		.file 10 "/home/makkmarci/devel/ugfx/src/gwin/class_gwin.h"
 392              		.file 11 "/home/makkmarci/devel/ugfx/src/gwin/gwidget.h"
 393              		.file 12 "/home/makkmarci/devel/ugfx/src/gwin/label.h"
 394              		.file 13 "../../os/ports/common/ARMCMx/CMSIS/include/core_cm4.h"