ARM GAS  /tmp/ccEkOOX1.s 			page 1


   1              		.syntax unified
   2              		.cpu cortex-m4
   3              		.eabi_attribute 27, 3
   4              		.eabi_attribute 28, 1
   5              		.fpu fpv4-sp-d16
   6              		.eabi_attribute 20, 1
   7              		.eabi_attribute 21, 1
   8              		.eabi_attribute 23, 3
   9              		.eabi_attribute 24, 1
  10              		.eabi_attribute 25, 1
  11              		.eabi_attribute 26, 1
  12              		.eabi_attribute 30, 2
  13              		.eabi_attribute 34, 1
  14              		.eabi_attribute 18, 4
  15              		.thumb
  16              		.file	"main.c"
  17              		.text
  18              	.Ltext0:
  19              		.cfi_sections	.debug_frame
  20              		.section	.text.icuwidthcb,"ax",%progbits
  21              		.align	2
  22              		.p2align 4,,15
  23              		.thumb
  24              		.thumb_func
  25              		.type	icuwidthcb, %function
  26              	icuwidthcb:
  27              	.LFB112:
  28              		.file 1 "main.c"
  29              		.loc 1 106 0
  30              		.cfi_startproc
  31              		@ args = 0, pretend = 0, frame = 0
  32              		@ frame_needed = 0, uses_anonymous_args = 0
  33              		@ link register save eliminated.
  34              	.LVL0:
  35              		.loc 1 108 0
  36 0000 044A     		ldr	r2, .L2
  37              		.loc 1 109 0
  38 0002 054B     		ldr	r3, .L2+4
  39              		.loc 1 108 0
  40 0004 4FF48051 		mov	r1, #4096
  41 0008 1183     		strh	r1, [r2, #24]	@ movhi
  42              		.loc 1 109 0
  43 000a 0269     		ldr	r2, [r0, #16]
  44 000c 1268     		ldr	r2, [r2]
  45 000e 0132     		adds	r2, r2, #1
  46 0010 1A80     		strh	r2, [r3]	@ movhi
  47 0012 7047     		bx	lr
  48              	.L3:
  49              		.align	2
  50              	.L2:
  51 0014 000C0240 		.word	1073875968
  52 0018 00000000 		.word	.LANCHOR0
  53              		.cfi_endproc
  54              	.LFE112:
  55              		.size	icuwidthcb, .-icuwidthcb
  56 001c AFF30080 		.section	.text.icuperiodcb,"ax",%progbits
  57              		.align	2
ARM GAS  /tmp/ccEkOOX1.s 			page 2


  58              		.p2align 4,,15
  59              		.thumb
  60              		.thumb_func
  61              		.type	icuperiodcb, %function
  62              	icuperiodcb:
  63              	.LFB113:
  64              		.loc 1 112 0
  65              		.cfi_startproc
  66              		@ args = 0, pretend = 0, frame = 0
  67              		@ frame_needed = 0, uses_anonymous_args = 0
  68              		@ link register save eliminated.
  69              	.LVL1:
  70              		.loc 1 114 0
  71 0000 044A     		ldr	r2, .L5
  72              		.loc 1 115 0
  73 0002 054B     		ldr	r3, .L5+4
  74              		.loc 1 114 0
  75 0004 4FF48051 		mov	r1, #4096
  76 0008 5183     		strh	r1, [r2, #26]	@ movhi
  77              		.loc 1 115 0
  78 000a 4269     		ldr	r2, [r0, #20]
  79 000c 1268     		ldr	r2, [r2]
  80 000e 0132     		adds	r2, r2, #1
  81 0010 1A80     		strh	r2, [r3]	@ movhi
  82 0012 7047     		bx	lr
  83              	.L6:
  84              		.align	2
  85              	.L5:
  86 0014 000C0240 		.word	1073875968
  87 0018 00000000 		.word	.LANCHOR1
  88              		.cfi_endproc
  89              	.LFE113:
  90              		.size	icuperiodcb, .-icuperiodcb
  91 001c AFF30080 		.section	.text.adcerrorcallback,"ax",%progbits
  92              		.align	2
  93              		.p2align 4,,15
  94              		.thumb
  95              		.thumb_func
  96              		.type	adcerrorcallback, %function
  97              	adcerrorcallback:
  98              	.LFB115:
  99              		.loc 1 140 0
 100              		.cfi_startproc
 101              		@ args = 0, pretend = 0, frame = 0
 102              		@ frame_needed = 0, uses_anonymous_args = 0
 103              		@ link register save eliminated.
 104              	.LVL2:
 105              		.loc 1 143 0
 106 0000 024B     		ldr	r3, .L8
 107 0002 4FF48052 		mov	r2, #4096
 108 0006 1A83     		strh	r2, [r3, #24]	@ movhi
 109 0008 7047     		bx	lr
 110              	.L9:
 111 000a 00BF     		.align	2
 112              	.L8:
 113 000c 000C0240 		.word	1073875968
 114              		.cfi_endproc
ARM GAS  /tmp/ccEkOOX1.s 			page 3


 115              	.LFE115:
 116              		.size	adcerrorcallback, .-adcerrorcallback
 117              		.section	.text.Thread1,"ax",%progbits
 118              		.align	2
 119              		.p2align 4,,15
 120              		.thumb
 121              		.thumb_func
 122              		.type	Thread1, %function
 123              	Thread1:
 124              	.LFB124:
 125              		.loc 1 504 0
 126              		.cfi_startproc
 127              		@ Volatile: function does not return.
 128              		@ args = 0, pretend = 0, frame = 0
 129              		@ frame_needed = 0, uses_anonymous_args = 0
 130              	.LVL3:
 131 0000 08B5     		push	{r3, lr}
 132              		.cfi_def_cfa_offset 8
 133              		.cfi_offset 3, -8
 134              		.cfi_offset 14, -4
 135              		.loc 1 507 0
 136 0002 094B     		ldr	r3, .L13
 137 0004 094A     		ldr	r2, .L13+4
 138 0006 9B69     		ldr	r3, [r3, #24]
 139              		.loc 1 509 0
 140 0008 094C     		ldr	r4, .L13+8
 141              		.loc 1 507 0
 142 000a 9A61     		str	r2, [r3, #24]
 143              		.loc 1 509 0
 144 000c 4FF40055 		mov	r5, #8192
 145 0010 2E46     		mov	r6, r5	@ movhi
 146              	.LVL4:
 147              	.L11:
 148              		.loc 1 509 0 is_stmt 0 discriminator 1
 149 0012 2683     		strh	r6, [r4, #24]	@ movhi
 150              		.loc 1 510 0 is_stmt 1 discriminator 1
 151 0014 4FF4FA70 		mov	r0, #500
 152 0018 FFF7FEFF 		bl	chThdSleep
 153              	.LVL5:
 154              		.loc 1 511 0 discriminator 1
 155 001c 6583     		strh	r5, [r4, #26]	@ movhi
 156              		.loc 1 512 0 discriminator 1
 157 001e 4FF4FA70 		mov	r0, #500
 158 0022 FFF7FEFF 		bl	chThdSleep
 159              	.LVL6:
 160 0026 F4E7     		b	.L11
 161              	.L14:
 162              		.align	2
 163              	.L13:
 164 0028 00000000 		.word	rlist
 165 002c 00000000 		.word	.LC0
 166 0030 000C0240 		.word	1073875968
 167              		.cfi_endproc
 168              	.LFE124:
 169              		.size	Thread1, .-Thread1
 170 0034 AFF30080 		.section	.text.myload,"ax",%progbits
 170      AFF30080 
ARM GAS  /tmp/ccEkOOX1.s 			page 4


 170      AFF30080 
 171              		.align	2
 172              		.p2align 4,,15
 173              		.thumb
 174              		.thumb_func
 175              		.type	myload, %function
 176              	myload:
 177              	.LFB122:
 178              		.loc 1 371 0
 179              		.cfi_startproc
 180              		@ args = 0, pretend = 0, frame = 8
 181              		@ frame_needed = 0, uses_anonymous_args = 0
 182              	.LVL7:
 183 0000 10B5     		push	{r4, lr}
 184              		.cfi_def_cfa_offset 8
 185              		.cfi_offset 4, -8
 186              		.cfi_offset 14, -4
 187              		.loc 1 378 0
 188 0002 0E49     		ldr	r1, .L16
 189 0004 0E48     		ldr	r0, .L16+4
 190              	.LVL8:
 191              		.loc 1 371 0
 192 0006 82B0     		sub	sp, sp, #8
 193              		.cfi_def_cfa_offset 16
 194              		.loc 1 378 0
 195 0008 FFF7FEFF 		bl	gfileOpen
 196              	.LVL9:
 197              		.loc 1 380 0
 198 000c 0DF10701 		add	r1, sp, #7
 199 0010 0122     		movs	r2, #1
 200              		.loc 1 378 0
 201 0012 0446     		mov	r4, r0
 202              	.LVL10:
 203              		.loc 1 380 0
 204 0014 FFF7FEFF 		bl	gfileRead
 205              	.LVL11:
 206              		.loc 1 381 0
 207 0018 9DF80710 		ldrb	r1, [sp, #7]	@ zero_extendqisi2
 208 001c 0020     		movs	r0, #0
 209 001e FFF7FEFF 		bl	chHeapAlloc
 210              	.LVL12:
 211              		.loc 1 382 0
 212 0022 9DF80720 		ldrb	r2, [sp, #7]	@ zero_extendqisi2
 213              		.loc 1 381 0
 214 0026 0146     		mov	r1, r0
 215              	.LVL13:
 216              		.loc 1 382 0
 217 0028 2046     		mov	r0, r4
 218              	.LVL14:
 219 002a FFF7FEFF 		bl	gfileRead
 220              	.LVL15:
 221              		.loc 1 384 0
 222 002e 2046     		mov	r0, r4
 223 0030 FFF7FEFF 		bl	gfileClose
 224              	.LVL16:
 225              		.loc 1 387 0
 226 0034 0348     		ldr	r0, .L16+8
ARM GAS  /tmp/ccEkOOX1.s 			page 5


 227 0036 02B0     		add	sp, sp, #8
 228              		@ sp needed
 229 0038 10BD     		pop	{r4, pc}
 230              	.LVL17:
 231              	.L17:
 232 003a 00BF     		.align	2
 233              	.L16:
 234 003c 14000000 		.word	.LC2
 235 0040 08000000 		.word	.LC1
 236 0044 18000000 		.word	.LC3
 237              		.cfi_endproc
 238              	.LFE122:
 239              		.size	myload, .-myload
 240 0048 AFF30080 		.section	.text.chprintf.constprop.0,"ax",%progbits
 240      AFF30080 
 241              		.align	2
 242              		.p2align 4,,15
 243              		.thumb
 244              		.thumb_func
 245              		.type	chprintf.constprop.0, %function
 246              	chprintf.constprop.0:
 247              	.LFB127:
 248              		.file 2 "../../os/various/chprintf.h"
 249              		.loc 2 69 0
 250              		.cfi_startproc
 251              		@ args = 4, pretend = 12, frame = 8
 252              		@ frame_needed = 0, uses_anonymous_args = 1
 253              	.LVL18:
 254 0000 0EB4     		push	{r1, r2, r3}
 255              		.cfi_def_cfa_offset 12
 256              		.cfi_offset 1, -12
 257              		.cfi_offset 2, -8
 258              		.cfi_offset 3, -4
 259 0002 00B5     		push	{lr}
 260              		.cfi_def_cfa_offset 16
 261              		.cfi_offset 14, -16
 262 0004 82B0     		sub	sp, sp, #8
 263              		.cfi_def_cfa_offset 24
 264              		.loc 2 69 0
 265 0006 03AA     		add	r2, sp, #12
 266              		.loc 2 73 0
 267 0008 0548     		ldr	r0, .L19
 268              	.LVL19:
 269              		.loc 2 69 0
 270 000a 52F8041B 		ldr	r1, [r2], #4
 271              		.loc 2 72 0
 272 000e 0192     		str	r2, [sp, #4]
 273              		.loc 2 73 0
 274 0010 FFF7FEFF 		bl	chvprintf
 275              	.LVL20:
 276              		.loc 2 75 0
 277 0014 02B0     		add	sp, sp, #8
 278              		@ sp needed
 279 0016 5DF804EB 		ldr	lr, [sp], #4
 280 001a 03B0     		add	sp, sp, #12
 281 001c 7047     		bx	lr
 282              	.L20:
ARM GAS  /tmp/ccEkOOX1.s 			page 6


 283 001e 00BF     		.align	2
 284              	.L19:
 285 0020 00000000 		.word	SD2
 286              		.cfi_endproc
 287              	.LFE127:
 288              		.size	chprintf.constprop.0, .-chprintf.constprop.0
 289 0024 AFF30080 		.section	.text.mysave,"ax",%progbits
 289      AFF30080 
 289      AFF30080 
 290              		.align	2
 291              		.p2align 4,,15
 292              		.thumb
 293              		.thumb_func
 294              		.type	mysave, %function
 295              	mysave:
 296              	.LFB121:
 297              		.loc 1 347 0
 298              		.cfi_startproc
 299              		@ args = 0, pretend = 0, frame = 8
 300              		@ frame_needed = 0, uses_anonymous_args = 0
 301              	.LVL21:
 302 0000 F0B5     		push	{r4, r5, r6, r7, lr}
 303              		.cfi_def_cfa_offset 20
 304              		.cfi_offset 4, -20
 305              		.cfi_offset 5, -16
 306              		.cfi_offset 6, -12
 307              		.cfi_offset 7, -8
 308              		.cfi_offset 14, -4
 309 0002 83B0     		sub	sp, sp, #12
 310              		.cfi_def_cfa_offset 32
 311              		.loc 1 359 0
 312 0004 02AC     		add	r4, sp, #8
 313              		.loc 1 347 0
 314 0006 0E46     		mov	r6, r1
 315              		.loc 1 361 0
 316 0008 1048     		ldr	r0, .L22
 317              	.LVL22:
 318 000a 1149     		ldr	r1, .L22+4
 319              	.LVL23:
 320              		.loc 1 359 0
 321 000c 04F8012D 		strb	r2, [r4, #-1]!
 322              		.loc 1 361 0
 323 0010 FFF7FEFF 		bl	gfileOpen
 324              	.LVL24:
 325              		.loc 1 362 0
 326 0014 2146     		mov	r1, r4
 327              		.loc 1 361 0
 328 0016 0746     		mov	r7, r0
 329              	.LVL25:
 330              		.loc 1 362 0
 331 0018 0122     		movs	r2, #1
 332 001a FFF7FEFF 		bl	gfileWrite
 333              	.LVL26:
 334              		.loc 1 366 0
 335 001e 0D4D     		ldr	r5, .L22+8
 336              		.loc 1 363 0
 337 0020 9DF80720 		ldrb	r2, [sp, #7]	@ zero_extendqisi2
ARM GAS  /tmp/ccEkOOX1.s 			page 7


 338 0024 3146     		mov	r1, r6
 339 0026 3846     		mov	r0, r7
 340 0028 FFF7FEFF 		bl	gfileWrite
 341              	.LVL27:
 342              		.loc 1 364 0
 343 002c 3846     		mov	r0, r7
 344 002e FFF7FEFF 		bl	gfileClose
 345              	.LVL28:
 346              		.loc 1 366 0
 347 0032 3246     		mov	r2, r6
 348 0034 2846     		mov	r0, r5
 349 0036 0849     		ldr	r1, .L22+12
 350 0038 FFF7FEFF 		bl	chprintf.constprop.0
 351              	.LVL29:
 352              		.loc 1 367 0
 353 003c 2846     		mov	r0, r5
 354 003e 0749     		ldr	r1, .L22+16
 355 0040 9DF80720 		ldrb	r2, [sp, #7]	@ zero_extendqisi2
 356 0044 FFF7FEFF 		bl	chprintf.constprop.0
 357              	.LVL30:
 358              		.loc 1 368 0
 359 0048 03B0     		add	sp, sp, #12
 360              		@ sp needed
 361 004a F0BD     		pop	{r4, r5, r6, r7, pc}
 362              	.LVL31:
 363              	.L23:
 364              		.align	2
 365              	.L22:
 366 004c 08000000 		.word	.LC1
 367 0050 7C000000 		.word	.LC4
 368 0054 00000000 		.word	SD2
 369 0058 80000000 		.word	.LC5
 370 005c 88000000 		.word	.LC6
 371              		.cfi_endproc
 372              	.LFE121:
 373              		.size	mysave, .-mysave
 374              		.section	.text.ICUinit,"ax",%progbits
 375              		.align	2
 376              		.p2align 4,,15
 377              		.global	ICUinit
 378              		.thumb
 379              		.thumb_func
 380              		.type	ICUinit, %function
 381              	ICUinit:
 382              	.LFB114:
 383              		.loc 1 129 0
 384              		.cfi_startproc
 385              		@ args = 0, pretend = 0, frame = 0
 386              		@ frame_needed = 0, uses_anonymous_args = 0
 387 0000 10B5     		push	{r4, lr}
 388              		.cfi_def_cfa_offset 8
 389              		.cfi_offset 4, -8
 390              		.cfi_offset 14, -4
 391              		.loc 1 130 0
 392 0002 0A4C     		ldr	r4, .L25
 393 0004 0A49     		ldr	r1, .L25+4
 394 0006 2046     		mov	r0, r4
ARM GAS  /tmp/ccEkOOX1.s 			page 8


 395 0008 FFF7FEFF 		bl	icuStart
 396              	.LVL32:
 397              		.loc 1 131 0
 398 000c 0948     		ldr	r0, .L25+8
 399 000e 4021     		movs	r1, #64
 400 0010 4FF48172 		mov	r2, #258
 401 0014 FFF7FEFF 		bl	_pal_lld_setgroupmode
 402              	.LVL33:
 403              		.loc 1 132 0
 404 0018 2046     		mov	r0, r4
 405 001a FFF7FEFF 		bl	icuEnable
 406              	.LVL34:
 407              		.loc 1 133 0
 408 001e 4FF4FA60 		mov	r0, #2000
 409              		.loc 1 134 0
 410 0022 BDE81040 		pop	{r4, lr}
 411              		.loc 1 133 0
 412 0026 FFF7FEBF 		b	chThdSleep
 413              	.LVL35:
 414              	.L26:
 415 002a 00BF     		.align	2
 416              	.L25:
 417 002c 00000000 		.word	ICUD5
 418 0030 00000000 		.word	.LANCHOR2
 419 0034 00080240 		.word	1073874944
 420              		.cfi_endproc
 421              	.LFE114:
 422              		.size	ICUinit, .-ICUinit
 423 0038 AFF30080 		.section	.text.myADCinit,"ax",%progbits
 423      AFF30080 
 424              		.align	2
 425              		.p2align 4,,15
 426              		.global	myADCinit
 427              		.thumb
 428              		.thumb_func
 429              		.type	myADCinit, %function
 430              	myADCinit:
 431              	.LFB116:
 432              		.loc 1 179 0
 433              		.cfi_startproc
 434              		@ args = 0, pretend = 0, frame = 0
 435              		@ frame_needed = 0, uses_anonymous_args = 0
 436 0000 08B5     		push	{r3, lr}
 437              		.cfi_def_cfa_offset 8
 438              		.cfi_offset 3, -8
 439              		.cfi_offset 14, -4
 440              		.loc 1 180 0
 441 0002 0648     		ldr	r0, .L28
 442 0004 0221     		movs	r1, #2
 443 0006 0322     		movs	r2, #3
 444 0008 FFF7FEFF 		bl	_pal_lld_setgroupmode
 445              	.LVL36:
 446              		.loc 1 181 0
 447 000c 0448     		ldr	r0, .L28+4
 448 000e 0021     		movs	r1, #0
 449 0010 FFF7FEFF 		bl	adcStart
 450              	.LVL37:
ARM GAS  /tmp/ccEkOOX1.s 			page 9


 451              		.loc 1 184 0
 452 0014 BDE80840 		pop	{r3, lr}
 453              		.loc 1 183 0
 454 0018 FFF7FEBF 		b	adcSTM32EnableTSVREFE
 455              	.LVL38:
 456              	.L29:
 457              		.align	2
 458              	.L28:
 459 001c 00080240 		.word	1073874944
 460 0020 00000000 		.word	ADCD1
 461              		.cfi_endproc
 462              	.LFE116:
 463              		.size	myADCinit, .-myADCinit
 464 0024 AFF30080 		.section	.text.uitoa,"ax",%progbits
 464      AFF30080 
 464      AFF30080 
 465              		.align	2
 466              		.p2align 4,,15
 467              		.global	uitoa
 468              		.thumb
 469              		.thumb_func
 470              		.type	uitoa, %function
 471              	uitoa:
 472              	.LFB117:
 473              		.loc 1 186 0
 474              		.cfi_startproc
 475              		@ args = 0, pretend = 0, frame = 0
 476              		@ frame_needed = 0, uses_anonymous_args = 0
 477              		@ link register save eliminated.
 478              	.LVL39:
 479 0000 F0B4     		push	{r4, r5, r6, r7}
 480              		.cfi_def_cfa_offset 16
 481              		.cfi_offset 4, -16
 482              		.cfi_offset 5, -12
 483              		.cfi_offset 6, -8
 484              		.cfi_offset 7, -4
 485              		.loc 1 190 0
 486 0002 0029     		cmp	r1, #0
 487 0004 38D0     		beq	.L38
 488              		.loc 1 193 0
 489 0006 012A     		cmp	r2, #1
 490 0008 33DD     		ble	.L39
 491              	.LVL40:
 492              		.loc 1 203 0
 493 000a 1D4D     		ldr	r5, .L43
 494 000c A5FB0043 		umull	r4, r3, r5, r0
 495              	.LVL41:
 496              		.loc 1 204 0
 497 0010 DB08     		lsrs	r3, r3, #3
 498              	.LVL42:
 499 0012 2BD0     		beq	.L40
 500 0014 0124     		movs	r4, #1
 501              	.LVL43:
 502              	.L34:
 503              		.loc 1 203 0
 504 0016 A5FB0363 		umull	r6, r3, r5, r3
 505              	.LVL44:
ARM GAS  /tmp/ccEkOOX1.s 			page 10


 506              		.loc 1 204 0
 507 001a DB08     		lsrs	r3, r3, #3
 508              		.loc 1 207 0
 509 001c 04F10104 		add	r4, r4, #1
 510              	.LVL45:
 511              		.loc 1 204 0
 512 0020 F9D1     		bne	.L34
 513              		.loc 1 209 0
 514 0022 A242     		cmp	r2, r4
 515 0024 05DC     		bgt	.L42
 516              		.loc 1 210 0
 517 0026 3F22     		movs	r2, #63
 518              	.LVL46:
 519              		.loc 1 211 0
 520 0028 4B70     		strb	r3, [r1, #1]
 521              		.loc 1 210 0
 522 002a 0A70     		strb	r2, [r1]
 523              		.loc 1 212 0
 524 002c 0220     		movs	r0, #2
 525              	.LVL47:
 526              	.L31:
 527              		.loc 1 231 0
 528 002e F0BC     		pop	{r4, r5, r6, r7}
 529 0030 7047     		bx	lr
 530              	.LVL48:
 531              	.L42:
 532 0032 2246     		mov	r2, r4
 533              	.LVL49:
 534              		.loc 1 209 0
 535 0034 631E     		subs	r3, r4, #1
 536              	.LVL50:
 537              	.L32:
 538              		.loc 1 219 0
 539 0036 0025     		movs	r5, #0
 540 0038 8D54     		strb	r5, [r1, r2]
 541              		.loc 1 221 0
 542 003a 114F     		ldr	r7, .L43
 543              	.LVL51:
 544              	.L37:
 545 003c A7FB0052 		umull	r5, r2, r7, r0
 546 0040 D208     		lsrs	r2, r2, #3
 547 0042 02EB8206 		add	r6, r2, r2, lsl #2
 548 0046 013B     		subs	r3, r3, #1
 549              	.LVL52:
 550 0048 A0EB4600 		sub	r0, r0, r6, lsl #1
 551 004c CD18     		adds	r5, r1, r3
 552 004e 00F13006 		add	r6, r0, #48
 553 0052 6E70     		strb	r6, [r5, #1]
 554              		.loc 1 223 0
 555 0054 1046     		mov	r0, r2
 556 0056 002A     		cmp	r2, #0
 557 0058 F0D1     		bne	.L37
 558              		.loc 1 227 0
 559 005a 5A1C     		adds	r2, r3, #1
 560              	.LVL53:
 561 005c 04D0     		beq	.L41
 562              	.LVL54:
ARM GAS  /tmp/ccEkOOX1.s 			page 11


 563              		.loc 1 228 0
 564 005e 2D22     		movs	r2, #45
 565 0060 2046     		mov	r0, r4
 566              	.LVL55:
 567 0062 CA54     		strb	r2, [r1, r3]
 568              		.loc 1 231 0
 569 0064 F0BC     		pop	{r4, r5, r6, r7}
 570              	.LVL56:
 571 0066 7047     		bx	lr
 572              	.LVL57:
 573              	.L41:
 574 0068 2046     		mov	r0, r4
 575              	.LVL58:
 576 006a E0E7     		b	.L31
 577              	.LVL59:
 578              	.L40:
 579              		.loc 1 204 0
 580 006c 0122     		movs	r2, #1
 581              	.LVL60:
 582 006e 1446     		mov	r4, r2
 583 0070 E1E7     		b	.L32
 584              	.LVL61:
 585              	.L39:
 586              		.loc 1 194 0
 587 0072 6FF00300 		mvn	r0, #3
 588              	.LVL62:
 589 0076 DAE7     		b	.L31
 590              	.LVL63:
 591              	.L38:
 592              		.loc 1 191 0
 593 0078 6FF00200 		mvn	r0, #2
 594              	.LVL64:
 595 007c D7E7     		b	.L31
 596              	.L44:
 597 007e 00BF     		.align	2
 598              	.L43:
 599 0080 CDCCCCCC 		.word	-858993459
 600              		.cfi_endproc
 601              	.LFE117:
 602              		.size	uitoa, .-uitoa
 603              		.global	__aeabi_uldivmod
 604 0084 AFF30080 		.section	.text.readADC,"ax",%progbits
 604      AFF30080 
 604      AFF30080 
 605              		.align	2
 606              		.p2align 4,,15
 607              		.global	readADC
 608              		.thumb
 609              		.thumb_func
 610              		.type	readADC, %function
 611              	readADC:
 612              	.LFB118:
 613              		.loc 1 234 0
 614              		.cfi_startproc
 615              		@ args = 0, pretend = 0, frame = 8
 616              		@ frame_needed = 0, uses_anonymous_args = 0
 617 0000 F0B5     		push	{r4, r5, r6, r7, lr}
ARM GAS  /tmp/ccEkOOX1.s 			page 12


 618              		.cfi_def_cfa_offset 20
 619              		.cfi_offset 4, -20
 620              		.cfi_offset 5, -16
 621              		.cfi_offset 6, -12
 622              		.cfi_offset 7, -8
 623              		.cfi_offset 14, -4
 624              		.loc 1 238 0
 625 0002 2B49     		ldr	r1, .L49
 626 0004 2B4A     		ldr	r2, .L49+4
 627 0006 2C48     		ldr	r0, .L49+8
 628 0008 4FF40073 		mov	r3, #512
 629              		.loc 1 234 0
 630 000c 83B0     		sub	sp, sp, #12
 631              		.cfi_def_cfa_offset 32
 632              		.loc 1 238 0
 633 000e FFF7FEFF 		bl	adcConvert
 634              	.LVL65:
 635              		.loc 1 239 0
 636 0012 2A4A     		ldr	r2, .L49+12
 637 0014 2A4B     		ldr	r3, .L49+16
 638 0016 0021     		movs	r1, #0
 639 0018 1170     		strb	r1, [r2]
 640              	.LVL66:
 641 001a 03F20240 		addw	r0, r3, #1026
 642              	.LVL67:
 643              	.L47:
 644              		.loc 1 243 0 discriminator 2
 645 001e 33F8022F 		ldrh	r2, [r3, #2]!
 646              		.loc 1 241 0 discriminator 2
 647 0022 8342     		cmp	r3, r0
 648              		.loc 1 243 0 discriminator 2
 649 0024 1144     		add	r1, r1, r2
 650              		.loc 1 241 0 discriminator 2
 651 0026 FAD1     		bne	.L47
 652              		.loc 1 246 0
 653 0028 264A     		ldr	r2, .L49+20
 654 002a 274B     		ldr	r3, .L49+24
 655 002c 1268     		ldr	r2, [r2]
 656              		.loc 1 248 0
 657 002e 274E     		ldr	r6, .L49+28
 658              		.loc 1 246 0
 659 0030 274F     		ldr	r7, .L49+32
 660 0032 5201     		lsls	r2, r2, #5
 661 0034 A3FB0202 		umull	r0, r2, r3, r2
 662 0038 7920     		movs	r0, #121
 663 003a 0023     		movs	r3, #0
 664 003c 5209     		lsrs	r2, r2, #5
 665 003e A1FB0001 		umull	r0, r1, r1, r0
 666 0042 FFF7FEFF 		bl	__aeabi_uldivmod
 667              	.LVL68:
 668              		.loc 1 248 0
 669 0046 82B2     		uxth	r2, r0
 670 0048 A6FB0232 		umull	r3, r2, r6, r2
 671              		.loc 1 246 0
 672 004c 0446     		mov	r4, r0
 673              		.loc 1 248 0
 674 004e 520B     		lsrs	r2, r2, #13
ARM GAS  /tmp/ccEkOOX1.s 			page 13


 675 0050 2049     		ldr	r1, .L49+36
 676 0052 2148     		ldr	r0, .L49+40
 677              		.loc 1 246 0
 678 0054 3C60     		str	r4, [r7]
 679              		.loc 1 248 0
 680 0056 FFF7FEFF 		bl	sprintf
 681              	.LVL69:
 682              		.loc 1 249 0
 683 005a 3B88     		ldrh	r3, [r7]
 684 005c 1F49     		ldr	r1, .L49+44
 685 005e A6FB0352 		umull	r5, r2, r6, r3
 686 0062 42F21074 		movw	r4, #10000
 687 0066 520B     		lsrs	r2, r2, #13
 688 0068 04FB1232 		mls	r2, r4, r2, r3
 689 006c 92B2     		uxth	r2, r2
 690 006e 6846     		mov	r0, sp
 691 0070 FFF7FEFF 		bl	sprintf
 692              	.LVL70:
 693              		.loc 1 250 0
 694 0074 6946     		mov	r1, sp
 695 0076 0622     		movs	r2, #6
 696 0078 1748     		ldr	r0, .L49+40
 697 007a FFF7FEFF 		bl	strncat
 698              	.LVL71:
 699              		.loc 1 253 0
 700 007e 184B     		ldr	r3, .L49+48
 701 0080 1549     		ldr	r1, .L49+40
 702 0082 1868     		ldr	r0, [r3]
 703 0084 0122     		movs	r2, #1
 704 0086 FFF7FEFF 		bl	gwinSetText
 705              	.LVL72:
 706              		.loc 1 258 0
 707 008a 164B     		ldr	r3, .L49+52
 708 008c 1249     		ldr	r1, .L49+40
 709 008e 1868     		ldr	r0, [r3]
 710 0090 0122     		movs	r2, #1
 711 0092 FFF7FEFF 		bl	gwinSetText
 712              	.LVL73:
 713              		.loc 1 260 0
 714 0096 3B68     		ldr	r3, [r7]
 715 0098 1348     		ldr	r0, .L49+56
 716 009a 1449     		ldr	r1, .L49+60
 717 009c A6FB0352 		umull	r5, r2, r6, r3
 718 00a0 520B     		lsrs	r2, r2, #13
 719 00a2 04FB1233 		mls	r3, r4, r2, r3
 720 00a6 FFF7FEFF 		bl	chprintf.constprop.0
 721              	.LVL74:
 722              		.loc 1 271 0
 723 00aa 03B0     		add	sp, sp, #12
 724              		@ sp needed
 725 00ac F0BD     		pop	{r4, r5, r6, r7, pc}
 726              	.L50:
 727 00ae 00BF     		.align	2
 728              	.L49:
 729 00b0 00000000 		.word	.LANCHOR3
 730 00b4 00000000 		.word	.LANCHOR4
 731 00b8 00000000 		.word	ADCD1
ARM GAS  /tmp/ccEkOOX1.s 			page 14


 732 00bc 00000000 		.word	.LANCHOR5
 733 00c0 FEFFFFFF 		.word	.LANCHOR4-2
 734 00c4 00000000 		.word	.LANCHOR6
 735 00c8 1F85EB51 		.word	1374389535
 736 00cc 5917B7D1 		.word	-776530087
 737 00d0 00000000 		.word	.LANCHOR7
 738 00d4 90000000 		.word	.LC7
 739 00d8 00000000 		.word	.LANCHOR8
 740 00dc 94000000 		.word	.LC8
 741 00e0 00000000 		.word	.LANCHOR9
 742 00e4 00000000 		.word	.LANCHOR10
 743 00e8 00000000 		.word	SD2
 744 00ec 9C000000 		.word	.LC9
 745              		.cfi_endproc
 746              	.LFE118:
 747              		.size	readADC, .-readADC
 748              		.global	__aeabi_ldivmod
 749              		.section	.text.readVoltage,"ax",%progbits
 750              		.align	2
 751              		.p2align 4,,15
 752              		.global	readVoltage
 753              		.thumb
 754              		.thumb_func
 755              		.type	readVoltage, %function
 756              	readVoltage:
 757              	.LFB119:
 758              		.loc 1 274 0
 759              		.cfi_startproc
 760              		@ args = 0, pretend = 0, frame = 8
 761              		@ frame_needed = 0, uses_anonymous_args = 0
 762 0000 30B5     		push	{r4, r5, lr}
 763              		.cfi_def_cfa_offset 12
 764              		.cfi_offset 4, -12
 765              		.cfi_offset 5, -8
 766              		.cfi_offset 14, -4
 767              		.loc 1 279 0
 768 0002 2248     		ldr	r0, .L55
 769 0004 2249     		ldr	r1, .L55+4
 770 0006 234A     		ldr	r2, .L55+8
 771 0008 4FF40073 		mov	r3, #512
 772              		.loc 1 274 0
 773 000c 83B0     		sub	sp, sp, #12
 774              		.cfi_def_cfa_offset 24
 775              		.loc 1 279 0
 776 000e FFF7FEFF 		bl	adcStartConversion
 777              	.LVL75:
 778 0012 214B     		ldr	r3, .L55+12
 779 0014 0021     		movs	r1, #0
 780 0016 03F20240 		addw	r0, r3, #1026
 781              	.LVL76:
 782              	.L53:
 783              		.loc 1 284 0 discriminator 2
 784 001a 33F8022F 		ldrh	r2, [r3, #2]!
 785              		.loc 1 283 0 discriminator 2
 786 001e 8342     		cmp	r3, r0
 787              		.loc 1 284 0 discriminator 2
 788 0020 1144     		add	r1, r1, r2
ARM GAS  /tmp/ccEkOOX1.s 			page 15


 789              		.loc 1 283 0 discriminator 2
 790 0022 FAD1     		bne	.L53
 791              		.loc 1 288 0
 792 0024 1D4B     		ldr	r3, .L55+16
 793              		.loc 1 286 0
 794 0026 1E4D     		ldr	r5, .L55+20
 795              		.loc 1 288 0
 796 0028 1A68     		ldr	r2, [r3]
 797              		.loc 1 286 0
 798 002a 4C0A     		lsrs	r4, r1, #9
 799              		.loc 1 288 0
 800 002c 4BF61050 		movw	r0, #48400
 801              		.loc 1 286 0
 802 0030 2C60     		str	r4, [r5]
 803              		.loc 1 288 0
 804 0032 0023     		movs	r3, #0
 805 0034 A4FB0001 		umull	r0, r1, r4, r0
 806 0038 FFF7FEFF 		bl	__aeabi_ldivmod
 807              	.LVL77:
 808              		.loc 1 289 0
 809 003c 194A     		ldr	r2, .L55+24
 810 003e 1A49     		ldr	r1, .L55+28
 811              		.loc 1 288 0
 812 0040 0430     		adds	r0, r0, #4
 813 0042 C3B2     		uxtb	r3, r0
 814              	.LVL78:
 815              		.loc 1 289 0
 816 0044 A2FB0302 		umull	r0, r2, r2, r3
 817              	.LVL79:
 818 0048 5509     		lsrs	r5, r2, #5
 819 004a 6422     		movs	r2, #100
 820 004c 02FB1533 		mls	r3, r2, r5, r3
 821              	.LVL80:
 822 0050 DCB2     		uxtb	r4, r3
 823 0052 EDB2     		uxtb	r5, r5
 824 0054 2346     		mov	r3, r4
 825 0056 2A46     		mov	r2, r5
 826 0058 1448     		ldr	r0, .L55+32
 827 005a FFF7FEFF 		bl	chprintf.constprop.0
 828              	.LVL81:
 829              		.loc 1 291 0
 830 005e 2A46     		mov	r2, r5
 831 0060 1349     		ldr	r1, .L55+36
 832 0062 1448     		ldr	r0, .L55+40
 833 0064 FFF7FEFF 		bl	sprintf
 834              	.LVL82:
 835              		.loc 1 292 0
 836 0068 2246     		mov	r2, r4
 837 006a 6846     		mov	r0, sp
 838 006c 1249     		ldr	r1, .L55+44
 839 006e FFF7FEFF 		bl	sprintf
 840              	.LVL83:
 841              		.loc 1 293 0
 842 0072 6946     		mov	r1, sp
 843 0074 0622     		movs	r2, #6
 844 0076 0F48     		ldr	r0, .L55+40
 845 0078 FFF7FEFF 		bl	strncat
ARM GAS  /tmp/ccEkOOX1.s 			page 16


 846              	.LVL84:
 847              		.loc 1 294 0
 848 007c 0F4B     		ldr	r3, .L55+48
 849 007e 0D49     		ldr	r1, .L55+40
 850 0080 1868     		ldr	r0, [r3]
 851 0082 0122     		movs	r2, #1
 852 0084 FFF7FEFF 		bl	gwinSetText
 853              	.LVL85:
 854              		.loc 1 295 0
 855 0088 03B0     		add	sp, sp, #12
 856              		@ sp needed
 857 008a 30BD     		pop	{r4, r5, pc}
 858              	.L56:
 859              		.align	2
 860              	.L55:
 861 008c 00000000 		.word	ADCD1
 862 0090 00000000 		.word	.LANCHOR11
 863 0094 00000000 		.word	.LANCHOR12
 864 0098 FEFFFFFF 		.word	.LANCHOR12-2
 865 009c 00000000 		.word	.LANCHOR6
 866 00a0 00000000 		.word	.LANCHOR7
 867 00a4 1F85EB51 		.word	1374389535
 868 00a8 B4000000 		.word	.LC10
 869 00ac 00000000 		.word	SD2
 870 00b0 CC000000 		.word	.LC11
 871 00b4 00000000 		.word	.LANCHOR8
 872 00b8 D0000000 		.word	.LC12
 873 00bc 00000000 		.word	.LANCHOR13
 874              		.cfi_endproc
 875              	.LFE119:
 876              		.size	readVoltage, .-readVoltage
 877              		.section	.text.Thread2,"ax",%progbits
 878              		.align	2
 879              		.p2align 4,,15
 880              		.thumb
 881              		.thumb_func
 882              		.type	Thread2, %function
 883              	Thread2:
 884              	.LFB120:
 885              		.loc 1 299 0
 886              		.cfi_startproc
 887              		@ args = 0, pretend = 0, frame = 0
 888              		@ frame_needed = 0, uses_anonymous_args = 0
 889              	.LVL86:
 890              		.loc 1 302 0
 891 0000 124B     		ldr	r3, .L60
 892 0002 134A     		ldr	r2, .L60+4
 893 0004 9B69     		ldr	r3, [r3, #24]
 894              		.loc 1 299 0
 895 0006 70B5     		push	{r4, r5, r6, lr}
 896              		.cfi_def_cfa_offset 16
 897              		.cfi_offset 4, -16
 898              		.cfi_offset 5, -12
 899              		.cfi_offset 6, -8
 900              		.cfi_offset 14, -4
 901 0008 124D     		ldr	r5, .L60+8
 902 000a 134E     		ldr	r6, .L60+12
ARM GAS  /tmp/ccEkOOX1.s 			page 17


 903              		.loc 1 311 0
 904 000c 134C     		ldr	r4, .L60+16
 905              		.loc 1 302 0
 906 000e 9A61     		str	r2, [r3, #24]
 907 0010 0FE0     		b	.L59
 908              	.LVL87:
 909              	.L58:
 910              		.loc 1 311 0
 911 0012 6369     		ldr	r3, [r4, #20]
 912 0014 83F48053 		eor	r3, r3, #4096
 913 0018 6361     		str	r3, [r4, #20]
 914              		.loc 1 312 0
 915              	@ 312 "main.c" 1
 916 001a FFF7FEFF 		bl      _port_lock
 917              	@ 0 "" 2
 918              		.loc 1 313 0
 919              		.thumb
 920 001e FFF7FEFF 		bl	readADC
 921              	.LVL88:
 922              		.loc 1 314 0
 923 0022 FFF7FEFF 		bl	readVoltage
 924              	.LVL89:
 925              		.loc 1 315 0
 926              	@ 315 "main.c" 1
 927 0026 FFF7FEFF 		bl      _port_unlock
 928              	@ 0 "" 2
 929              		.loc 1 316 0
 930              		.thumb
 931 002a 4FF47A70 		mov	r0, #1000
 932 002e FFF7FEFF 		bl	chThdSleep
 933              	.LVL90:
 934              	.L59:
 935              		.loc 1 305 0
 936 0032 0B48     		ldr	r0, .L60+20
 937 0034 0B49     		ldr	r1, .L60+24
 938 0036 0022     		movs	r2, #0
 939 0038 FFF7FEFF 		bl	chprintf.constprop.0
 940              	.LVL91:
 941              		.loc 1 307 0
 942 003c 2B78     		ldrb	r3, [r5]	@ zero_extendqisi2
 943 003e 012B     		cmp	r3, #1
 944 0040 E7D1     		bne	.L58
 945              		.loc 1 309 0
 946 0042 3068     		ldr	r0, [r6]
 947 0044 0749     		ldr	r1, .L60+24
 948 0046 FFF7FEFF 		bl	gwinPrintf
 949              	.LVL92:
 950 004a E2E7     		b	.L58
 951              	.L61:
 952              		.align	2
 953              	.L60:
 954 004c 00000000 		.word	rlist
 955 0050 D8000000 		.word	.LC13
 956 0054 00000000 		.word	.LANCHOR14
 957 0058 00000000 		.word	.LANCHOR15
 958 005c 000C0240 		.word	1073875968
 959 0060 00000000 		.word	SD2
ARM GAS  /tmp/ccEkOOX1.s 			page 18


 960 0064 E4000000 		.word	.LC14
 961              		.cfi_endproc
 962              	.LFE120:
 963              		.size	Thread2, .-Thread2
 964 0068 AFF30080 		.section	.text.startBlinker,"ax",%progbits
 964      AFF30080 
 965              		.align	2
 966              		.p2align 4,,15
 967              		.global	startBlinker
 968              		.thumb
 969              		.thumb_func
 970              		.type	startBlinker, %function
 971              	startBlinker:
 972              	.LFB125:
 973              		.loc 1 517 0
 974              		.cfi_startproc
 975              		@ args = 0, pretend = 0, frame = 0
 976              		@ frame_needed = 0, uses_anonymous_args = 0
 977 0000 00B5     		push	{lr}
 978              		.cfi_def_cfa_offset 4
 979              		.cfi_offset 14, -4
 980 0002 83B0     		sub	sp, sp, #12
 981              		.cfi_def_cfa_offset 16
 982              		.loc 1 518 0
 983 0004 0023     		movs	r3, #0
 984 0006 0093     		str	r3, [sp]
 985 0008 4FF4AB61 		mov	r1, #1368
 986 000c 034B     		ldr	r3, .L63
 987 000e 0448     		ldr	r0, .L63+4
 988 0010 4022     		movs	r2, #64
 989 0012 FFF7FEFF 		bl	chThdCreateStatic
 990              	.LVL93:
 991              		.loc 1 519 0
 992 0016 03B0     		add	sp, sp, #12
 993              		@ sp needed
 994 0018 5DF804FB 		ldr	pc, [sp], #4
 995              	.L64:
 996              		.align	2
 997              	.L63:
 998 001c 00000000 		.word	Thread1
 999 0020 00000000 		.word	.LANCHOR16
 1000              		.cfi_endproc
 1001              	.LFE125:
 1002              		.size	startBlinker, .-startBlinker
 1003 0024 AFF30080 		.section	.text.startup.main,"ax",%progbits
 1003      AFF30080 
 1003      AFF30080 
 1004              		.align	2
 1005              		.p2align 4,,15
 1006              		.global	main
 1007              		.thumb
 1008              		.thumb_func
 1009              		.type	main, %function
 1010              	main:
 1011              	.LFB126:
 1012              		.loc 1 524 0
 1013              		.cfi_startproc
ARM GAS  /tmp/ccEkOOX1.s 			page 19


 1014              		@ args = 0, pretend = 0, frame = 32
 1015              		@ frame_needed = 0, uses_anonymous_args = 0
 1016 0000 2DE9F04F 		push	{r4, r5, r6, r7, r8, r9, r10, fp, lr}
 1017              		.cfi_def_cfa_offset 36
 1018              		.cfi_offset 4, -36
 1019              		.cfi_offset 5, -32
 1020              		.cfi_offset 6, -28
 1021              		.cfi_offset 7, -24
 1022              		.cfi_offset 8, -20
 1023              		.cfi_offset 9, -16
 1024              		.cfi_offset 10, -12
 1025              		.cfi_offset 11, -8
 1026              		.cfi_offset 14, -4
 1027 0004 8BB0     		sub	sp, sp, #44
 1028              		.cfi_def_cfa_offset 80
 1029              		.loc 1 546 0
 1030 0006 954D     		ldr	r5, .L67
 1031              		.loc 1 549 0
 1032 0008 DFF8B882 		ldr	r8, .L67+104
 1033              		.loc 1 548 0
 1034 000c DFF8B8A2 		ldr	r10, .L67+108
 1035              		.loc 1 550 0
 1036 0010 934F     		ldr	r7, .L67+4
 1037              		.loc 1 580 0
 1038 0012 944E     		ldr	r6, .L67+8
 1039              	.LBB8:
 1040              	.LBB9:
 1041              		.loc 1 485 0
 1042 0014 DFF8B492 		ldr	r9, .L67+112
 1043              	.LBE9:
 1044              	.LBE8:
 1045              		.loc 1 533 0
 1046 0018 FFF7FEFF 		bl	halInit
 1047              	.LVL94:
 1048              		.loc 1 534 0
 1049 001c FFF7FEFF 		bl	chSysInit
 1050              	.LVL95:
 1051              		.loc 1 536 0
 1052 0020 914B     		ldr	r3, .L67+12
 1053 0022 0024     		movs	r4, #0
 1054 0024 1C70     		strb	r4, [r3]
 1055              		.loc 1 543 0
 1056 0026 FFF7FEFF 		bl	gfxInit
 1057              	.LVL96:
 1058              		.loc 1 546 0
 1059 002a 2B68     		ldr	r3, [r5]
 1060 002c DFF8A0E2 		ldr	lr, .L67+116
 1061              		.loc 1 547 0
 1062 0030 8E49     		ldr	r1, .L67+16
 1063              		.loc 1 546 0
 1064 0032 1A88     		ldrh	r2, [r3]
 1065              		.loc 1 550 0
 1066 0034 8E48     		ldr	r0, .L67+20
 1067              		.loc 1 547 0
 1068 0036 5B88     		ldrh	r3, [r3, #2]
 1069              		.loc 1 546 0
 1070 0038 AEF80020 		strh	r2, [lr]	@ movhi
ARM GAS  /tmp/ccEkOOX1.s 			page 20


 1071              		.loc 1 547 0
 1072 003c 0B80     		strh	r3, [r1]	@ movhi
 1073              		.loc 1 549 0
 1074 003e A8F80030 		strh	r3, [r8]	@ movhi
 1075              		.loc 1 548 0
 1076 0042 AAF80020 		strh	r2, [r10]	@ movhi
 1077              		.loc 1 550 0
 1078 0046 FFF7FEFF 		bl	gdispOpenFont
 1079              	.LVL97:
 1080              	.LBB13:
 1081              	.LBB14:
 1082              		.loc 1 518 0
 1083 004a 8A4B     		ldr	r3, .L67+24
 1084 004c 0094     		str	r4, [sp]
 1085 004e 4022     		movs	r2, #64
 1086 0050 4FF4AB61 		mov	r1, #1368
 1087              	.LBE14:
 1088              	.LBE13:
 1089              		.loc 1 550 0
 1090 0054 3860     		str	r0, [r7]
 1091              	.LBB16:
 1092              	.LBB15:
 1093              		.loc 1 518 0
 1094 0056 8848     		ldr	r0, .L67+28
 1095 0058 FFF7FEFF 		bl	chThdCreateStatic
 1096              	.LVL98:
 1097              	.LBE15:
 1098              	.LBE16:
 1099              		.loc 1 554 0
 1100 005c FFF7FEFF 		bl	myADCinit
 1101              	.LVL99:
 1102              		.loc 1 555 0
 1103 0060 FFF7FEFF 		bl	ICUinit
 1104              	.LVL100:
 1105              		.loc 1 560 0
 1106 0064 2146     		mov	r1, r4
 1107 0066 8548     		ldr	r0, .L67+32
 1108 0068 FFF7FEFF 		bl	sdStart
 1109              	.LVL101:
 1110              		.loc 1 561 0
 1111 006c 8448     		ldr	r0, .L67+36
 1112 006e 0421     		movs	r1, #4
 1113 0070 40F28232 		movw	r2, #898
 1114 0074 FFF7FEFF 		bl	_pal_lld_setgroupmode
 1115              	.LVL102:
 1116              		.loc 1 562 0
 1117 0078 8148     		ldr	r0, .L67+36
 1118 007a 0821     		movs	r1, #8
 1119 007c 40F28232 		movw	r2, #898
 1120 0080 FFF7FEFF 		bl	_pal_lld_setgroupmode
 1121              	.LVL103:
 1122              		.loc 1 564 0
 1123 0084 7F4B     		ldr	r3, .L67+40
 1124 0086 0094     		str	r4, [sp]
 1125 0088 40F65811 		movw	r1, #2392
 1126 008c 4022     		movs	r2, #64
 1127 008e 7E48     		ldr	r0, .L67+44
ARM GAS  /tmp/ccEkOOX1.s 			page 21


 1128 0090 FFF7FEFF 		bl	chThdCreateStatic
 1129              	.LVL104:
 1130              		.loc 1 573 0
 1131 0094 7D4A     		ldr	r2, .L67+48
 1132 0096 7E49     		ldr	r1, .L67+52
 1133 0098 2346     		mov	r3, r4
 1134 009a 2046     		mov	r0, r4
 1135 009c FFF7FEFF 		bl	ginputSetMouseCalibrationRoutines
 1136              	.LVL105:
 1137              		.loc 1 576 0
 1138 00a0 7348     		ldr	r0, .L67+20
 1139 00a2 FFF7FEFF 		bl	gdispOpenFont
 1140              	.LVL106:
 1141 00a6 3860     		str	r0, [r7]
 1142              		.loc 1 577 0
 1143 00a8 FFF7FEFF 		bl	gwinSetDefaultFont
 1144              	.LVL107:
 1145              		.loc 1 578 0
 1146 00ac 2046     		mov	r0, r4
 1147 00ae FFF7FEFF 		bl	gwinSetDefaultBgColor
 1148              	.LVL108:
 1149              		.loc 1 579 0
 1150 00b2 4FF6FF70 		movw	r0, #65535
 1151 00b6 FFF7FEFF 		bl	gwinSetDefaultColor
 1152              	.LVL109:
 1153              		.loc 1 580 0
 1154 00ba 2146     		mov	r1, r4
 1155 00bc 3868     		ldr	r0, [r7]
 1156 00be FFF7FEFF 		bl	gdispGetFontMetric
 1157              	.LVL110:
 1158 00c2 831C     		adds	r3, r0, #2
 1159              	.LBB17:
 1160              	.LBB10:
 1161              		.loc 1 412 0
 1162 00c4 6A48     		ldr	r0, .L67+20
 1163              	.LBE10:
 1164              	.LBE17:
 1165              		.loc 1 580 0
 1166 00c6 3380     		strh	r3, [r6]	@ movhi
 1167              	.LBB18:
 1168              	.LBB11:
 1169              		.loc 1 412 0
 1170 00c8 FFF7FEFF 		bl	gdispOpenFont
 1171              	.LVL111:
 1172 00cc FFF7FEFF 		bl	gwinSetDefaultFont
 1173              	.LVL112:
 1174              		.loc 1 413 0
 1175 00d0 2146     		mov	r1, r4
 1176 00d2 7048     		ldr	r0, .L67+56
 1177 00d4 FFF7FEFF 		bl	gwinSetDefaultStyle
 1178              	.LVL113:
 1179              		.loc 1 414 0
 1180 00d8 2868     		ldr	r0, [r5]
 1181 00da 4FF6FF71 		movw	r1, #65535
 1182 00de FFF7FEFF 		bl	gdispGClear
 1183              	.LVL114:
 1184              		.loc 1 416 0
ARM GAS  /tmp/ccEkOOX1.s 			page 22


 1185 00e2 2146     		mov	r1, r4
 1186 00e4 3868     		ldr	r0, [r7]
 1187 00e6 FFF7FEFF 		bl	gdispGetFontMetric
 1188              	.LVL115:
 1189 00ea 0230     		adds	r0, r0, #2
 1190 00ec 82B2     		uxth	r2, r0
 1191              		.loc 1 427 0
 1192 00ee B8F800C0 		ldrh	ip, [r8]
 1193              		.loc 1 431 0
 1194 00f2 DFF8E0E1 		ldr	lr, .L67+120
 1195              		.loc 1 433 0
 1196 00f6 2868     		ldr	r0, [r5]
 1197              		.loc 1 431 0
 1198 00f8 CDF818E0 		str	lr, [sp, #24]
 1199              		.loc 1 416 0
 1200 00fc 93B2     		uxth	r3, r2
 1201              		.loc 1 427 0
 1202 00fe C2EB0C0C 		rsb	ip, r2, ip
 1203              		.loc 1 416 0
 1204 0102 3380     		strh	r3, [r6]	@ movhi
 1205              		.loc 1 429 0
 1206 0104 4FF0A00B 		mov	fp, #160
 1207              		.loc 1 433 0
 1208 0108 2146     		mov	r1, r4
 1209 010a 03AA     		add	r2, sp, #12
 1210              		.loc 1 430 0
 1211 010c ADF81230 		strh	r3, [sp, #18]	@ movhi
 1212              		.loc 1 423 0
 1213 0110 0123     		movs	r3, #1
 1214              		.loc 1 427 0
 1215 0112 ADF80EC0 		strh	ip, [sp, #14]	@ movhi
 1216              		.loc 1 423 0
 1217 0116 8DF81430 		strb	r3, [sp, #20]
 1218              		.loc 1 420 0
 1219 011a 0794     		str	r4, [sp, #28]
 1220              		.loc 1 421 0
 1221 011c 0894     		str	r4, [sp, #32]
 1222              		.loc 1 422 0
 1223 011e 0994     		str	r4, [sp, #36]
 1224              		.loc 1 428 0
 1225 0120 ADF80C40 		strh	r4, [sp, #12]	@ movhi
 1226              		.loc 1 429 0
 1227 0124 ADF810B0 		strh	fp, [sp, #16]	@ movhi
 1228              		.loc 1 433 0
 1229 0128 FFF7FEFF 		bl	gwinGLabelCreate
 1230              	.LVL116:
 1231              		.loc 1 436 0
 1232 012c 3388     		ldrh	r3, [r6]
 1233 012e B8F800C0 		ldrh	ip, [r8]
 1234              		.loc 1 433 0
 1235 0132 594A     		ldr	r2, .L67+60
 1236              		.loc 1 440 0
 1237 0134 DFF8A0E1 		ldr	lr, .L67+124
 1238              		.loc 1 433 0
 1239 0138 1060     		str	r0, [r2]
 1240              		.loc 1 436 0
 1241 013a C3EB0C0C 		rsb	ip, r3, ip
ARM GAS  /tmp/ccEkOOX1.s 			page 23


 1242              		.loc 1 442 0
 1243 013e 2146     		mov	r1, r4
 1244 0140 03AA     		add	r2, sp, #12
 1245 0142 2868     		ldr	r0, [r5]
 1246              		.loc 1 436 0
 1247 0144 ADF80EC0 		strh	ip, [sp, #14]	@ movhi
 1248              		.loc 1 439 0
 1249 0148 ADF81230 		strh	r3, [sp, #18]	@ movhi
 1250              		.loc 1 440 0
 1251 014c CDF818E0 		str	lr, [sp, #24]
 1252              		.loc 1 437 0
 1253 0150 ADF80CB0 		strh	fp, [sp, #12]	@ movhi
 1254              		.loc 1 438 0
 1255 0154 ADF810B0 		strh	fp, [sp, #16]	@ movhi
 1256              		.loc 1 442 0
 1257 0158 FFF7FEFF 		bl	gwinGLabelCreate
 1258              	.LVL117:
 1259 015c 4F4B     		ldr	r3, .L67+64
 1260              		.loc 1 450 0
 1261 015e B6F800E0 		ldrh	lr, [r6]
 1262              		.loc 1 442 0
 1263 0162 1860     		str	r0, [r3]
 1264              		.loc 1 449 0
 1265 0164 4FF03208 		mov	r8, #50
 1266              		.loc 1 451 0
 1267 0168 4D4B     		ldr	r3, .L67+68
 1268              		.loc 1 453 0
 1269 016a 2868     		ldr	r0, [r5]
 1270              		.loc 1 450 0
 1271 016c ADF812E0 		strh	lr, [sp, #18]	@ movhi
 1272              		.loc 1 453 0
 1273 0170 2146     		mov	r1, r4
 1274 0172 03AA     		add	r2, sp, #12
 1275              		.loc 1 451 0
 1276 0174 0693     		str	r3, [sp, #24]
 1277              		.loc 1 447 0
 1278 0176 ADF80E40 		strh	r4, [sp, #14]	@ movhi
 1279              		.loc 1 448 0
 1280 017a ADF80C40 		strh	r4, [sp, #12]	@ movhi
 1281              		.loc 1 449 0
 1282 017e ADF81080 		strh	r8, [sp, #16]	@ movhi
 1283              		.loc 1 453 0
 1284 0182 FFF7FEFF 		bl	gwinGLabelCreate
 1285              	.LVL118:
 1286 0186 474B     		ldr	r3, .L67+72
 1287              		.loc 1 459 0
 1288 0188 B6F800C0 		ldrh	ip, [r6]
 1289              		.loc 1 453 0
 1290 018c 1860     		str	r0, [r3]
 1291              		.loc 1 457 0
 1292 018e 4FF0280E 		mov	lr, #40
 1293              		.loc 1 460 0
 1294 0192 454B     		ldr	r3, .L67+76
 1295              		.loc 1 462 0
 1296 0194 2868     		ldr	r0, [r5]
 1297              		.loc 1 459 0
 1298 0196 ADF812C0 		strh	ip, [sp, #18]	@ movhi
ARM GAS  /tmp/ccEkOOX1.s 			page 24


 1299              		.loc 1 462 0
 1300 019a 2146     		mov	r1, r4
 1301 019c 03AA     		add	r2, sp, #12
 1302              		.loc 1 457 0
 1303 019e ADF80CE0 		strh	lr, [sp, #12]	@ movhi
 1304              		.loc 1 460 0
 1305 01a2 0693     		str	r3, [sp, #24]
 1306              		.loc 1 456 0
 1307 01a4 ADF80E40 		strh	r4, [sp, #14]	@ movhi
 1308              		.loc 1 458 0
 1309 01a8 ADF81080 		strh	r8, [sp, #16]	@ movhi
 1310              		.loc 1 462 0
 1311 01ac FFF7FEFF 		bl	gwinGLabelCreate
 1312              	.LVL119:
 1313 01b0 3E4A     		ldr	r2, .L67+80
 1314              		.loc 1 467 0
 1315 01b2 3388     		ldrh	r3, [r6]
 1316              		.loc 1 462 0
 1317 01b4 1060     		str	r0, [r2]
 1318              		.loc 1 471 0
 1319 01b6 DFF824E1 		ldr	lr, .L67+128
 1320              		.loc 1 473 0
 1321 01ba 2868     		ldr	r0, [r5]
 1322              		.loc 1 467 0
 1323 01bc ADF80E30 		strh	r3, [sp, #14]	@ movhi
 1324              		.loc 1 469 0
 1325 01c0 4FF0460C 		mov	ip, #70
 1326              		.loc 1 473 0
 1327 01c4 2146     		mov	r1, r4
 1328 01c6 03AA     		add	r2, sp, #12
 1329              		.loc 1 470 0
 1330 01c8 ADF81230 		strh	r3, [sp, #18]	@ movhi
 1331              		.loc 1 469 0
 1332 01cc ADF810C0 		strh	ip, [sp, #16]	@ movhi
 1333              		.loc 1 471 0
 1334 01d0 CDF818E0 		str	lr, [sp, #24]
 1335              		.loc 1 468 0
 1336 01d4 ADF80C40 		strh	r4, [sp, #12]	@ movhi
 1337              		.loc 1 473 0
 1338 01d8 FFF7FEFF 		bl	gwinGLabelCreate
 1339              	.LVL120:
 1340 01dc 344A     		ldr	r2, .L67+84
 1341              		.loc 1 476 0
 1342 01de 3388     		ldrh	r3, [r6]
 1343              		.loc 1 480 0
 1344 01e0 DFF8FCE0 		ldr	lr, .L67+132
 1345              		.loc 1 473 0
 1346 01e4 1060     		str	r0, [r2]
 1347              		.loc 1 477 0
 1348 01e6 4FF04B0C 		mov	ip, #75
 1349              		.loc 1 482 0
 1350 01ea 03AA     		add	r2, sp, #12
 1351 01ec 2146     		mov	r1, r4
 1352 01ee 2868     		ldr	r0, [r5]
 1353              		.loc 1 477 0
 1354 01f0 ADF80CC0 		strh	ip, [sp, #12]	@ movhi
 1355              		.loc 1 480 0
ARM GAS  /tmp/ccEkOOX1.s 			page 25


 1356 01f4 CDF818E0 		str	lr, [sp, #24]
 1357              		.loc 1 476 0
 1358 01f8 ADF80E30 		strh	r3, [sp, #14]	@ movhi
 1359              		.loc 1 479 0
 1360 01fc ADF81230 		strh	r3, [sp, #18]	@ movhi
 1361              		.loc 1 478 0
 1362 0200 ADF81080 		strh	r8, [sp, #16]	@ movhi
 1363              		.loc 1 482 0
 1364 0204 FFF7FEFF 		bl	gwinGLabelCreate
 1365              	.LVL121:
 1366 0208 2A4B     		ldr	r3, .L67+88
 1367              		.loc 1 485 0
 1368 020a 3968     		ldr	r1, [r7]
 1369              		.loc 1 482 0
 1370 020c 1860     		str	r0, [r3]
 1371              		.loc 1 485 0
 1372 020e 4846     		mov	r0, r9
 1373 0210 FFF7FEFF 		bl	gdispGetStringWidth
 1374              	.LVL122:
 1375              		.loc 1 488 0
 1376 0214 BAF80030 		ldrh	r3, [r10]
 1377              		.loc 1 490 0
 1378 0218 3688     		ldrh	r6, [r6]
 1379              		.loc 1 485 0
 1380 021a 2749     		ldr	r1, .L67+92
 1381              		.loc 1 489 0
 1382 021c ADF81080 		strh	r8, [sp, #16]	@ movhi
 1383              		.loc 1 488 0
 1384 0220 463B     		subs	r3, r3, #70
 1385              		.loc 1 485 0
 1386 0222 0880     		strh	r0, [r1]	@ movhi
 1387              		.loc 1 492 0
 1388 0224 03AA     		add	r2, sp, #12
 1389 0226 2146     		mov	r1, r4
 1390              		.loc 1 488 0
 1391 0228 ADF80C30 		strh	r3, [sp, #12]	@ movhi
 1392              		.loc 1 490 0
 1393 022c 0436     		adds	r6, r6, #4
 1394              		.loc 1 487 0
 1395 022e 0A23     		movs	r3, #10
 1396              		.loc 1 492 0
 1397 0230 2868     		ldr	r0, [r5]
 1398              		.loc 1 487 0
 1399 0232 ADF80E30 		strh	r3, [sp, #14]	@ movhi
 1400              		.loc 1 490 0
 1401 0236 ADF81260 		strh	r6, [sp, #18]	@ movhi
 1402              		.loc 1 491 0
 1403 023a CDF81890 		str	r9, [sp, #24]
 1404              		.loc 1 492 0
 1405 023e FFF7FEFF 		bl	gwinGButtonCreate
 1406              	.LVL123:
 1407 0242 1E4B     		ldr	r3, .L67+96
 1408              	.LBE11:
 1409              	.LBE18:
 1410              		.loc 1 594 0
 1411 0244 1E49     		ldr	r1, .L67+100
 1412              	.LBB19:
ARM GAS  /tmp/ccEkOOX1.s 			page 26


 1413              	.LBB12:
 1414              		.loc 1 492 0
 1415 0246 1860     		str	r0, [r3]
 1416              	.LBE12:
 1417              	.LBE19:
 1418              		.loc 1 594 0
 1419 0248 2246     		mov	r2, r4
 1420 024a 0C48     		ldr	r0, .L67+32
 1421 024c FFF7FEFF 		bl	chprintf.constprop.0
 1422              	.LVL124:
 1423              	.L66:
 1424              		.loc 1 623 0 discriminator 1
 1425 0250 4FF4FA70 		mov	r0, #500
 1426 0254 FFF7FEFF 		bl	chThdSleep
 1427              	.LVL125:
 1428 0258 FAE7     		b	.L66
 1429              	.L68:
 1430 025a 00BF     		.align	2
 1431              	.L67:
 1432 025c 00000000 		.word	GDISP
 1433 0260 00000000 		.word	.LANCHOR21
 1434 0264 00000000 		.word	.LANCHOR23
 1435 0268 00000000 		.word	.LANCHOR5
 1436 026c 00000000 		.word	.LANCHOR18
 1437 0270 F4000000 		.word	.LC15
 1438 0274 00000000 		.word	Thread1
 1439 0278 00000000 		.word	.LANCHOR16
 1440 027c 00000000 		.word	SD2
 1441 0280 00000240 		.word	1073872896
 1442 0284 00000000 		.word	Thread2
 1443 0288 00000000 		.word	.LANCHOR22
 1444 028c 00000000 		.word	myload
 1445 0290 00000000 		.word	mysave
 1446 0294 00000000 		.word	WhiteWidgetStyle
 1447 0298 00000000 		.word	.LANCHOR9
 1448 029c 00000000 		.word	.LANCHOR24
 1449 02a0 08010000 		.word	.LC18
 1450 02a4 00000000 		.word	.LANCHOR25
 1451 02a8 10010000 		.word	.LC19
 1452 02ac 00000000 		.word	.LANCHOR10
 1453 02b0 00000000 		.word	.LANCHOR26
 1454 02b4 00000000 		.word	.LANCHOR13
 1455 02b8 00000000 		.word	.LANCHOR27
 1456 02bc 00000000 		.word	.LANCHOR28
 1457 02c0 3C010000 		.word	.LC23
 1458 02c4 00000000 		.word	.LANCHOR20
 1459 02c8 00000000 		.word	.LANCHOR19
 1460 02cc 34010000 		.word	.LC22
 1461 02d0 00000000 		.word	.LANCHOR17
 1462 02d4 F8000000 		.word	.LC16
 1463 02d8 00010000 		.word	.LC17
 1464 02dc 1C010000 		.word	.LC20
 1465 02e0 28010000 		.word	.LC21
 1466              		.cfi_endproc
 1467              	.LFE126:
 1468              		.size	main, .-main
 1469              		.global	VREFMeasured
ARM GAS  /tmp/ccEkOOX1.s 			page 27


 1470              		.global	last_period
 1471              		.global	last_width
 1472              		.global	j
 1473              		.global	Result
 1474              		.global	ADC2status
 1475              		.global	sum
 1476              		.global	console
 1477              		.global	average
 1478              		.global	i
 1479 02e4 AFF30080 		.section	.bss.ADCvalue,"aw",%nobits
 1479      AFF30080 
 1479      AFF30080 
 1480              		.align	2
 1481              		.set	.LANCHOR10,. + 0
 1482              		.type	ADCvalue, %object
 1483              		.size	ADCvalue, 4
 1484              	ADCvalue:
 1485 0000 00000000 		.space	4
 1486              		.section	.bss.console,"aw",%nobits
 1487              		.set	.LANCHOR14,. + 0
 1488              		.type	console, %object
 1489              		.size	console, 1
 1490              	console:
 1491 0000 00       		.space	1
 1492              		.section	.bss.ADC2status,"aw",%nobits
 1493              		.set	.LANCHOR5,. + 0
 1494              		.type	ADC2status, %object
 1495              		.size	ADC2status, 1
 1496              	ADC2status:
 1497 0000 00       		.space	1
 1498              		.section	.bss.width,"aw",%nobits
 1499              		.align	1
 1500              		.set	.LANCHOR17,. + 0
 1501              		.type	width, %object
 1502              		.size	width, 2
 1503              	width:
 1504 0000 0000     		.space	2
 1505              		.section	.rodata.adcgrpcfg1,"a",%progbits
 1506              		.align	2
 1507              		.set	.LANCHOR3,. + 0
 1508              		.type	adcgrpcfg1, %object
 1509              		.size	adcgrpcfg1, 40
 1510              	adcgrpcfg1:
 1511 0000 00       		.byte	0
 1512 0001 00       		.space	1
 1513 0002 0200     		.short	2
 1514 0004 00000000 		.word	0
 1515 0008 00000000 		.word	adcerrorcallback
 1516 000c 00000000 		.word	0
 1517 0010 00000040 		.word	1073741824
 1518 0014 00000000 		.word	0
 1519 0018 00000000 		.word	0
 1520 001c 00001000 		.word	1048576
 1521 0020 00000000 		.word	0
 1522 0024 0B000000 		.word	11
 1523              		.section	.bss.ADCvalue2,"aw",%nobits
 1524              		.align	2
ARM GAS  /tmp/ccEkOOX1.s 			page 28


 1525              		.set	.LANCHOR13,. + 0
 1526              		.type	ADCvalue2, %object
 1527              		.size	ADCvalue2, 4
 1528              	ADCvalue2:
 1529 0000 00000000 		.space	4
 1530              		.section	.data.icucfg,"aw",%progbits
 1531              		.align	2
 1532              		.set	.LANCHOR2,. + 0
 1533              		.type	icucfg, %object
 1534              		.size	icucfg, 28
 1535              	icucfg:
 1536 0000 00       		.byte	0
 1537 0001 000000   		.space	3
 1538 0004 10270000 		.word	10000
 1539 0008 00000000 		.word	icuwidthcb
 1540 000c 00000000 		.word	icuperiodcb
 1541 0010 00000000 		.word	0
 1542 0014 00       		.byte	0
 1543 0015 000000   		.space	3
 1544 0018 00000000 		.word	0
 1545              		.section	.bss.last_period,"aw",%nobits
 1546              		.align	1
 1547              		.set	.LANCHOR1,. + 0
 1548              		.type	last_period, %object
 1549              		.size	last_period, 2
 1550              	last_period:
 1551 0000 0000     		.space	2
 1552              		.section	.rodata.adcgrpcfg2,"a",%progbits
 1553              		.align	2
 1554              		.set	.LANCHOR11,. + 0
 1555              		.type	adcgrpcfg2, %object
 1556              		.size	adcgrpcfg2, 40
 1557              	adcgrpcfg2:
 1558 0000 00       		.byte	0
 1559 0001 00       		.space	1
 1560 0002 0200     		.short	2
 1561 0004 00000000 		.word	0
 1562 0008 00000000 		.word	adcerrorcallback
 1563 000c 00000000 		.word	0
 1564 0010 00000040 		.word	1073741824
 1565 0014 0000FC00 		.word	16515072
 1566 0018 00000000 		.word	0
 1567 001c 00001000 		.word	1048576
 1568 0020 00000000 		.word	0
 1569 0024 00440800 		.word	541696
 1570              		.section	.bss.last_width,"aw",%nobits
 1571              		.align	1
 1572              		.set	.LANCHOR0,. + 0
 1573              		.type	last_width, %object
 1574              		.size	last_width, 2
 1575              	last_width:
 1576 0000 0000     		.space	2
 1577              		.section	.bss.ghc,"aw",%nobits
 1578              		.align	2
 1579              		.set	.LANCHOR15,. + 0
 1580              		.type	ghc, %object
 1581              		.size	ghc, 4
ARM GAS  /tmp/ccEkOOX1.s 			page 29


 1582              	ghc:
 1583 0000 00000000 		.space	4
 1584              		.section	.bss.samples1,"aw",%nobits
 1585              		.align	2
 1586              		.set	.LANCHOR4,. + 0
 1587              		.type	samples1, %object
 1588              		.size	samples1, 2048
 1589              	samples1:
 1590 0000 00000000 		.space	2048
 1590      00000000 
 1590      00000000 
 1590      00000000 
 1590      00000000 
 1591              		.section	.bss.samples2,"aw",%nobits
 1592              		.align	2
 1593              		.set	.LANCHOR12,. + 0
 1594              		.type	samples2, %object
 1595              		.size	samples2, 2048
 1596              	samples2:
 1597 0000 00000000 		.space	2048
 1597      00000000 
 1597      00000000 
 1597      00000000 
 1597      00000000 
 1598              		.section	.bss.i,"aw",%nobits
 1599              		.align	2
 1600              		.type	i, %object
 1601              		.size	i, 4
 1602              	i:
 1603 0000 00000000 		.space	4
 1604              		.section	.bss.j,"aw",%nobits
 1605              		.align	1
 1606              		.type	j, %object
 1607              		.size	j, 2
 1608              	j:
 1609 0000 0000     		.space	2
 1610              		.section	.bss.bWidth,"aw",%nobits
 1611              		.align	1
 1612              		.set	.LANCHOR27,. + 0
 1613              		.type	bWidth, %object
 1614              		.size	bWidth, 2
 1615              	bWidth:
 1616 0000 0000     		.space	2
 1617              		.section	.rodata.str1.4,"aMS",%progbits,1
 1618              		.align	2
 1619              	.LC0:
 1620 0000 626C696E 		.ascii	"blinker\000"
 1620      6B657200 
 1621              	.LC1:
 1622 0008 63616C69 		.ascii	"calib.gfx\000"
 1622      622E6766 
 1622      7800
 1623 0012 0000     		.space	2
 1624              	.LC2:
 1625 0014 7200     		.ascii	"r\000"
 1626 0016 0000     		.space	2
 1627              	.LC3:
ARM GAS  /tmp/ccEkOOX1.s 			page 30


 1628 0018 2F783364 		.ascii	"/x3d/x84/x21/xa6/x39/x65/x11/x4e/xc1/x51/xda/xf1/xb"
 1628      2F783834 
 1628      2F783231 
 1628      2F786136 
 1628      2F783339 
 1629 004b 392F7866 		.ascii	"9/xfe/x85/x01/xbd/xb8/xec/xa2/x43/xb0/xcb/x9f\000"
 1629      652F7838 
 1629      352F7830 
 1629      312F7862 
 1629      642F7862 
 1630 0079 000000   		.space	3
 1631              	.LC4:
 1632 007c 7700     		.ascii	"w\000"
 1633 007e 0000     		.space	2
 1634              	.LC5:
 1635 0080 25730D0A 		.ascii	"%s\015\012\000"
 1635      00
 1636 0085 000000   		.space	3
 1637              	.LC6:
 1638 0088 25690D0A 		.ascii	"%i\015\012\000"
 1638      00
 1639 008d 000000   		.space	3
 1640              	.LC7:
 1641 0090 256900   		.ascii	"%i\000"
 1642 0093 00       		.space	1
 1643              	.LC8:
 1644 0094 2E256956 		.ascii	".%iV\000"
 1644      00
 1645 0099 000000   		.space	3
 1646              	.LC9:
 1647 009c 4D656173 		.ascii	"Measured: %U.%04UV\015\012\000"
 1647      75726564 
 1647      3A202555 
 1647      2E253034 
 1647      55560D0A 
 1648 00b1 000000   		.space	3
 1649              	.LC10:
 1650 00b4 54656D70 		.ascii	"Temperatur: %d.%2U\302\260C\015\012\000"
 1650      65726174 
 1650      75723A20 
 1650      25642E25 
 1650      3255C2B0 
 1651              	.LC11:
 1652 00cc 256400   		.ascii	"%d\000"
 1653 00cf 00       		.space	1
 1654              	.LC12:
 1655 00d0 2E256943 		.ascii	".%iC\000"
 1655      00
 1656 00d5 000000   		.space	3
 1657              	.LC13:
 1658 00d8 41444320 		.ascii	"ADC blinker\000"
 1658      626C696E 
 1658      6B657200 
 1659              	.LC14:
 1660 00e4 41444320 		.ascii	"ADC sampling\015\012\000"
 1660      73616D70 
 1660      6C696E67 
ARM GAS  /tmp/ccEkOOX1.s 			page 31


 1660      0D0A00
 1661 00f3 00       		.space	1
 1662              	.LC15:
 1663 00f4 55493200 		.ascii	"UI2\000"
 1664              	.LC16:
 1665 00f8 53746174 		.ascii	"Status1\000"
 1665      75733100 
 1666              	.LC17:
 1667 0100 53746174 		.ascii	"Status2\000"
 1667      75733200 
 1668              	.LC18:
 1669 0108 41444331 		.ascii	"ADC1:\000"
 1669      3A00
 1670 010e 0000     		.space	2
 1671              	.LC19:
 1672 0110 41444320 		.ascii	"ADC value\000"
 1672      76616C75 
 1672      6500
 1673 011a 0000     		.space	2
 1674              	.LC20:
 1675 011c 436F7265 		.ascii	"Core temp:\000"
 1675      2074656D 
 1675      703A00
 1676 0127 00       		.space	1
 1677              	.LC21:
 1678 0128 41444320 		.ascii	"ADC value2\000"
 1678      76616C75 
 1678      653200
 1679 0133 00       		.space	1
 1680              	.LC22:
 1681 0134 436F6E73 		.ascii	"Console\000"
 1681      6F6C6500 
 1682              	.LC23:
 1683 013c 4D61696E 		.ascii	"Main loop\015\012\000"
 1683      206C6F6F 
 1683      700D0A00 
 1684              		.section	.bss.ghStatus2,"aw",%nobits
 1685              		.align	2
 1686              		.set	.LANCHOR24,. + 0
 1687              		.type	ghStatus2, %object
 1688              		.size	ghStatus2, 4
 1689              	ghStatus2:
 1690 0000 00000000 		.space	4
 1691              		.section	.bss.height,"aw",%nobits
 1692              		.align	1
 1693              		.set	.LANCHOR18,. + 0
 1694              		.type	height, %object
 1695              		.size	height, 2
 1696              	height:
 1697 0000 0000     		.space	2
 1698              		.section	.bss.ghConsole,"aw",%nobits
 1699              		.align	2
 1700              		.set	.LANCHOR28,. + 0
 1701              		.type	ghConsole, %object
 1702              		.size	ghConsole, 4
 1703              	ghConsole:
 1704 0000 00000000 		.space	4
ARM GAS  /tmp/ccEkOOX1.s 			page 32


 1705              		.section	.bss.average,"aw",%nobits
 1706              		.align	1
 1707              		.type	average, %object
 1708              		.size	average, 2
 1709              	average:
 1710 0000 0000     		.space	2
 1711              		.section	.bss.ADClabel2,"aw",%nobits
 1712              		.align	2
 1713              		.set	.LANCHOR26,. + 0
 1714              		.type	ADClabel2, %object
 1715              		.size	ADClabel2, 4
 1716              	ADClabel2:
 1717 0000 00000000 		.space	4
 1718              		.section	.bss.ghStatus1,"aw",%nobits
 1719              		.align	2
 1720              		.set	.LANCHOR9,. + 0
 1721              		.type	ghStatus1, %object
 1722              		.size	ghStatus1, 4
 1723              	ghStatus1:
 1724 0000 00000000 		.space	4
 1725              		.section	.bss.font,"aw",%nobits
 1726              		.align	2
 1727              		.set	.LANCHOR21,. + 0
 1728              		.type	font, %object
 1729              		.size	font, 4
 1730              	font:
 1731 0000 00000000 		.space	4
 1732              		.section	.bss.swidth,"aw",%nobits
 1733              		.align	1
 1734              		.set	.LANCHOR19,. + 0
 1735              		.type	swidth, %object
 1736              		.size	swidth, 2
 1737              	swidth:
 1738 0000 0000     		.space	2
 1739              		.section	.bss.Result,"aw",%nobits
 1740              		.align	2
 1741              		.set	.LANCHOR8,. + 0
 1742              		.type	Result, %object
 1743              		.size	Result, 6
 1744              	Result:
 1745 0000 00000000 		.space	6
 1745      0000
 1746 0006 0000     		.section	.bss.ADClabel,"aw",%nobits
 1747              		.align	2
 1748              		.set	.LANCHOR25,. + 0
 1749              		.type	ADClabel, %object
 1750              		.size	ADClabel, 4
 1751              	ADClabel:
 1752 0000 00000000 		.space	4
 1753              		.section	.data.VREFMeasured,"aw",%progbits
 1754              		.align	2
 1755              		.set	.LANCHOR6,. + 0
 1756              		.type	VREFMeasured, %object
 1757              		.size	VREFMeasured, 4
 1758              	VREFMeasured:
 1759 0000 41670000 		.word	26433
 1760              		.section	.bss.sum,"aw",%nobits
ARM GAS  /tmp/ccEkOOX1.s 			page 33


 1761              		.align	2
 1762              		.set	.LANCHOR7,. + 0
 1763              		.type	sum, %object
 1764              		.size	sum, 4
 1765              	sum:
 1766 0000 00000000 		.space	4
 1767              		.section	.bss.sheight,"aw",%nobits
 1768              		.align	1
 1769              		.set	.LANCHOR20,. + 0
 1770              		.type	sheight, %object
 1771              		.size	sheight, 2
 1772              	sheight:
 1773 0000 0000     		.space	2
 1774              		.section	.bss.waThread1,"aw",%nobits
 1775              		.align	3
 1776              		.set	.LANCHOR16,. + 0
 1777              		.type	waThread1, %object
 1778              		.size	waThread1, 1368
 1779              	waThread1:
 1780 0000 00000000 		.space	1368
 1780      00000000 
 1780      00000000 
 1780      00000000 
 1780      00000000 
 1781              		.section	.bss.waThread2,"aw",%nobits
 1782              		.align	3
 1783              		.set	.LANCHOR22,. + 0
 1784              		.type	waThread2, %object
 1785              		.size	waThread2, 2392
 1786              	waThread2:
 1787 0000 00000000 		.space	2392
 1787      00000000 
 1787      00000000 
 1787      00000000 
 1787      00000000 
 1788              		.section	.bss.bHeight,"aw",%nobits
 1789              		.align	1
 1790              		.set	.LANCHOR23,. + 0
 1791              		.type	bHeight, %object
 1792              		.size	bHeight, 2
 1793              	bHeight:
 1794 0000 0000     		.space	2
 1795              		.text
 1796              	.Letext0:
 1797              		.file 3 "/opt/ARM/lib/gcc/arm-none-eabi/4.8.4/include/stddef.h"
 1798              		.file 4 "/opt/ARM/arm-none-eabi/include/machine/_default_types.h"
 1799              		.file 5 "/opt/ARM/arm-none-eabi/include/stdint.h"
 1800              		.file 6 "../../os/ports/GCC/ARMCMx/chtypes.h"
 1801              		.file 7 "../../os/kernel/include/chlists.h"
 1802              		.file 8 "../../os/kernel/include/chthreads.h"
 1803              		.file 9 "../../os/ports/GCC/ARMCMx/chcore_v7m.h"
 1804              		.file 10 "../../os/kernel/include/chschd.h"
 1805              		.file 11 "../../os/kernel/include/chmtx.h"
 1806              		.file 12 "../../os/kernel/include/chevents.h"
 1807              		.file 13 "../../os/kernel/include/chmemcore.h"
 1808              		.file 14 "../../os/kernel/include/chheap.h"
 1809              		.file 15 "../../os/kernel/include/chqueues.h"
ARM GAS  /tmp/ccEkOOX1.s 			page 34


 1810              		.file 16 "../../os/kernel/include/chstreams.h"
 1811              		.file 17 "../../os/hal/platforms/STM32F4xx/stm32f4xx.h"
 1812              		.file 18 "../../os/hal/platforms/STM32F4xx/stm32_dma.h"
 1813              		.file 19 "../../os/hal/platforms/STM32/GPIOv2/pal_lld.h"
 1814              		.file 20 "../../os/hal/include/adc.h"
 1815              		.file 21 "../../os/hal/platforms/STM32F4xx/adc_lld.h"
 1816              		.file 22 "../../os/hal/include/icu.h"
 1817              		.file 23 "../../os/hal/platforms/STM32/TIMv1/icu_lld.h"
 1818              		.file 24 "../../os/hal/platforms/STM32/TIMv1/stm32_tim.h"
 1819              		.file 25 "../../os/hal/include/serial.h"
 1820              		.file 26 "../../os/hal/platforms/STM32/USARTv1/serial_lld.h"
 1821              		.file 27 "/opt/ARM/lib/gcc/arm-none-eabi/4.8.4/include/stdarg.h"
 1822              		.file 28 "<built-in>"
 1823              		.file 29 "/home/makkmarci/devel/ugfx/src/gqueue/sys_defs.h"
 1824              		.file 30 "/home/makkmarci/devel/ugfx/src/gdisp/sys_defs.h"
 1825              		.file 31 "/home/makkmarci/devel/ugfx/src/gdisp/colors.h"
 1826              		.file 32 "/home/makkmarci/devel/ugfx/src/gwin/sys_defs.h"
 1827              		.file 33 "/home/makkmarci/devel/ugfx/src/gwin/gwidget.h"
 1828              		.file 34 "/home/makkmarci/devel/ugfx/src/gwin/button.h"
 1829              		.file 35 "/home/makkmarci/devel/ugfx/src/gwin/label.h"
 1830              		.file 36 "/home/makkmarci/devel/ugfx/src/ginput/mouse.h"
 1831              		.file 37 "aprilia.h"
 1832              		.file 38 "Aprilia-4.h"
 1833              		.file 39 "console.h"
 1834              		.file 40 "../../os/ports/common/ARMCMx/CMSIS/include/core_cm4.h"
 1835              		.file 41 "/home/makkmarci/devel/ugfx/src/gfile/sys_defs.h"
 1836              		.file 42 "/opt/ARM/arm-none-eabi/include/stdio.h"
 1837              		.file 43 "/opt/ARM/arm-none-eabi/include/string.h"
 1838              		.file 44 "/home/makkmarci/devel/ugfx/src/gwin/console.h"
 1839              		.file 45 "../../os/hal/include/hal.h"
 1840              		.file 46 "../../os/kernel/include/chsys.h"
 1841              		.file 47 "/home/makkmarci/devel/ugfx/gfx.h"