ARM GAS  /tmp/cc5AHGFd.s 			page 1


   1              		.syntax unified
   2              		.cpu cortex-m4
   3              		.eabi_attribute 27, 3
   4              		.eabi_attribute 28, 1
   5              		.fpu fpv4-sp-d16
   6              		.eabi_attribute 20, 1
   7              		.eabi_attribute 21, 1
   8              		.eabi_attribute 23, 3
   9              		.eabi_attribute 24, 1
  10              		.eabi_attribute 25, 1
  11              		.eabi_attribute 26, 1
  12              		.eabi_attribute 30, 2
  13              		.eabi_attribute 34, 1
  14              		.eabi_attribute 18, 4
  15              		.thumb
  16              		.file	"mf_bwfont.c"
  17              		.text
  18              	.Ltext0:
  19              		.cfi_sections	.debug_frame
  20              		.section	.text.mf_bwfont_render_character,"ax",%progbits
  21              		.align	2
  22              		.p2align 4,,15
  23              		.global	mf_bwfont_render_character
  24              		.thumb
  25              		.thumb_func
  26              		.type	mf_bwfont_render_character, %function
  27              	mf_bwfont_render_character:
  28              	.LFB114:
  29              		.file 1 "/home/makkmarci/devel/ugfx/src/gdisp/mcufont/mf_bwfont.c"
  30              		.loc 1 120 0
  31              		.cfi_startproc
  32              		@ args = 8, pretend = 0, frame = 40
  33              		@ frame_needed = 0, uses_anonymous_args = 0
  34              	.LVL0:
  35 0000 2DE9F04F 		push	{r4, r5, r6, r7, r8, r9, r10, fp, lr}
  36              		.cfi_def_cfa_offset 36
  37              		.cfi_offset 4, -36
  38              		.cfi_offset 5, -32
  39              		.cfi_offset 6, -28
  40              		.cfi_offset 7, -24
  41              		.cfi_offset 8, -20
  42              		.cfi_offset 9, -16
  43              		.cfi_offset 10, -12
  44              		.cfi_offset 11, -8
  45              		.cfi_offset 14, -4
  46              	.LBB16:
  47              	.LBB17:
  48              		.loc 1 20 0
  49 0004 467F     		ldrb	r6, [r0, #29]	@ zero_extendqisi2
  50              	.LBE17:
  51              	.LBE16:
  52              		.loc 1 120 0
  53 0006 8DB0     		sub	sp, sp, #52
  54              		.cfi_def_cfa_offset 88
  55              	.LBB19:
  56              	.LBB18:
  57              		.loc 1 20 0
ARM GAS  /tmp/cc5AHGFd.s 			page 2


  58 0008 002E     		cmp	r6, #0
  59 000a 00F0C680 		beq	.L21
  60 000e D0F820A0 		ldr	r10, [r0, #32]
  61 0012 0020     		movs	r0, #0
  62              	.LVL1:
  63              	.L6:
  64              		.loc 1 23 0
  65 0014 BAF80040 		ldrh	r4, [r10]
  66              	.LVL2:
  67              		.loc 1 24 0
  68 0018 A342     		cmp	r3, r4
  69              		.loc 1 20 0
  70 001a 00F10100 		add	r0, r0, #1
  71              	.LVL3:
  72              		.loc 1 23 0
  73 001e C4EB0305 		rsb	r5, r4, r3
  74              		.loc 1 24 0
  75 0022 03D3     		bcc	.L3
  76 0024 BAF80240 		ldrh	r4, [r10, #2]
  77              	.LVL4:
  78 0028 A542     		cmp	r5, r4
  79 002a 07D3     		bcc	.L35
  80              	.L3:
  81              		.loc 1 20 0
  82 002c B042     		cmp	r0, r6
  83 002e 0AF1180A 		add	r10, r10, #24
  84              	.LVL5:
  85 0032 EFD3     		bcc	.L6
  86              	.LBE18:
  87              	.LBE19:
  88              		.loc 1 127 0
  89 0034 0020     		movs	r0, #0
  90              	.LVL6:
  91              	.L2:
  92              		.loc 1 130 0
  93 0036 0DB0     		add	sp, sp, #52
  94              		@ sp needed
  95 0038 BDE8F08F 		pop	{r4, r5, r6, r7, r8, r9, r10, fp, pc}
  96              	.LVL7:
  97              	.L35:
  98              	.LBB20:
  99              	.LBB21:
 100              		.loc 1 57 0
 101 003c 9AF80800 		ldrb	r0, [r10, #8]	@ zero_extendqisi2
 102              	.LVL8:
 103 0040 0028     		cmp	r0, #0
 104 0042 40F08880 		bne	.L4
 105              		.loc 1 64 0
 106 0046 DAF81040 		ldr	r4, [r10, #16]
 107 004a 9AF80690 		ldrb	r9, [r10, #6]	@ zero_extendqisi2
 108 004e DAF81430 		ldr	r3, [r10, #20]
 109              	.LVL9:
 110 0052 ADB2     		uxth	r5, r5
 111 0054 0A95     		str	r5, [sp, #40]
 112 0056 0A9E     		ldr	r6, [sp, #40]
 113              		.loc 1 65 0
 114 0058 04EB4505 		add	r5, r4, r5, lsl #1
ARM GAS  /tmp/cc5AHGFd.s 			page 3


 115              		.loc 1 64 0
 116 005c 34F81640 		ldrh	r4, [r4, r6, lsl #1]
 117              		.loc 1 65 0
 118 0060 AF78     		ldrb	r7, [r5, #2]	@ zero_extendqisi2
 119              		.loc 1 64 0
 120 0062 09FB0433 		mla	r3, r9, r4, r3
 121              		.loc 1 65 0
 122 0066 3F1B     		subs	r7, r7, r4
 123 0068 FFB2     		uxtb	r7, r7
 124              		.loc 1 64 0
 125 006a 0893     		str	r3, [sp, #32]
 126              	.LVL10:
 127              	.L7:
 128              		.loc 1 71 0
 129 006c 9AF80440 		ldrb	r4, [r10, #4]	@ zero_extendqisi2
 130              		.loc 1 70 0
 131 0070 9AF80550 		ldrb	r5, [r10, #5]	@ zero_extendqisi2
 132              		.loc 1 69 0
 133 0074 9AF80730 		ldrb	r3, [r10, #7]	@ zero_extendqisi2
 134              	.LVL11:
 135              		.loc 1 71 0
 136 0078 2144     		add	r1, r1, r4
 137              	.LVL12:
 138              		.loc 1 70 0
 139 007a 2A44     		add	r2, r2, r5
 140              	.LVL13:
 141              		.loc 1 71 0
 142 007c 89B2     		uxth	r1, r1
 143              		.loc 1 70 0
 144 007e 92B2     		uxth	r2, r2
 145              		.loc 1 71 0
 146 0080 0791     		str	r1, [sp, #28]
 147              	.LVL14:
 148              		.loc 1 75 0
 149 0082 002B     		cmp	r3, #0
 150 0084 5FD0     		beq	.L8
 151 0086 013B     		subs	r3, r3, #1
 152 0088 DBB2     		uxtb	r3, r3
 153 008a 0133     		adds	r3, r3, #1
 154 008c 1344     		add	r3, r3, r2
 155              		.loc 1 73 0
 156 008e 0024     		movs	r4, #0
 157 0090 9BB2     		uxth	r3, r3
 158              		.loc 1 77 0
 159 0092 CDF82CA0 		str	r10, [sp, #44]
 160              		.loc 1 73 0
 161 0096 0594     		str	r4, [sp, #20]
 162 0098 0993     		str	r3, [sp, #36]
 163              		.loc 1 72 0
 164 009a 4FF0000B 		mov	fp, #0
 165              		.loc 1 77 0
 166 009e 9246     		mov	r10, r2
 167              	.LVL15:
 168              	.L18:
 169 00a0 0125     		movs	r5, #1
 170 00a2 05FA0BF8 		lsl	r8, r5, fp
 171              		.loc 1 81 0
ARM GAS  /tmp/cc5AHGFd.s 			page 4


 172 00a6 059E     		ldr	r6, [sp, #20]
 173 00a8 089D     		ldr	r5, [sp, #32]
 174              		.loc 1 77 0
 175 00aa 5FFA88F8 		uxtb	r8, r8
 176              	.LVL16:
 177              		.loc 1 81 0
 178 00ae 3544     		add	r5, r5, r6
 179              	.LVL17:
 180              		.loc 1 82 0
 181 00b0 002F     		cmp	r7, #0
 182 00b2 2ED0     		beq	.L10
 183 00b4 0024     		movs	r4, #0
 184              		.loc 1 89 0
 185 00b6 0FFA8AF6 		sxth	r6, r10
 186              		.loc 1 80 0
 187 00ba 2246     		mov	r2, r4
 188              		.loc 1 79 0
 189 00bc 2346     		mov	r3, r4
 190              		.loc 1 89 0
 191 00be 0696     		str	r6, [sp, #24]
 192 00c0 BC46     		mov	ip, r7
 193 00c2 09E0     		b	.L14
 194              	.LVL18:
 195              	.L11:
 196              		.loc 1 87 0
 197 00c4 0BB1     		cbz	r3, .L25
 198 00c6 002A     		cmp	r2, #0
 199 00c8 52D1     		bne	.L36
 200              	.L25:
 201 00ca 0122     		movs	r2, #1
 202              	.LVL19:
 203              	.L12:
 204 00cc 0134     		adds	r4, r4, #1
 205              	.LVL20:
 206              		.loc 1 82 0
 207 00ce E3B2     		uxtb	r3, r4
 208 00d0 6345     		cmp	r3, ip
 209 00d2 4D44     		add	r5, r5, r9
 210              	.LVL21:
 211 00d4 0FD2     		bcs	.L13
 212              	.LVL22:
 213              	.L37:
 214 00d6 3346     		mov	r3, r6
 215              	.LVL23:
 216              	.L14:
 217              		.loc 1 84 0
 218 00d8 2978     		ldrb	r1, [r5]	@ zero_extendqisi2
 219 00da 18EA010F 		tst	r8, r1
 220 00de 0CBF     		ite	eq
 221 00e0 0026     		moveq	r6, #0
 222 00e2 0126     		movne	r6, #1
 223              	.LVL24:
 224              		.loc 1 85 0
 225 00e4 9E42     		cmp	r6, r3
 226 00e6 EDD1     		bne	.L11
 227 00e8 0134     		adds	r4, r4, #1
 228              	.LVL25:
ARM GAS  /tmp/cc5AHGFd.s 			page 5


 229              		.loc 1 82 0
 230 00ea E3B2     		uxtb	r3, r4
 231              	.LVL26:
 232 00ec 0132     		adds	r2, r2, #1
 233              	.LVL27:
 234 00ee 6345     		cmp	r3, ip
 235 00f0 D2B2     		uxtb	r2, r2
 236              	.LVL28:
 237 00f2 4D44     		add	r5, r5, r9
 238              	.LVL29:
 239 00f4 EFD3     		bcc	.L37
 240              	.LVL30:
 241              	.L13:
 242 00f6 6746     		mov	r7, ip
 243              		.loc 1 99 0
 244 00f8 5EB1     		cbz	r6, .L10
 245 00fa 52B1     		cbz	r2, .L10
 246              		.loc 1 101 0
 247 00fc 0798     		ldr	r0, [sp, #28]
 248 00fe 179C     		ldr	r4, [sp, #92]
 249 0100 0094     		str	r4, [sp]
 250 0102 6044     		add	r0, r0, ip
 251 0104 801A     		subs	r0, r0, r2
 252 0106 00B2     		sxth	r0, r0
 253 0108 0FFA8AF1 		sxth	r1, r10
 254 010c FF23     		movs	r3, #255
 255 010e 169D     		ldr	r5, [sp, #88]
 256              	.LVL31:
 257 0110 A847     		blx	r5
 258              	.LVL32:
 259              	.L10:
 260              		.loc 1 104 0
 261 0112 0BF1010B 		add	fp, fp, #1
 262              	.LVL33:
 263 0116 5FFA8BFB 		uxtb	fp, fp
 264              	.LVL34:
 265              		.loc 1 105 0
 266 011a BBF1070F 		cmp	fp, #7
 267 011e 05D9     		bls	.L16
 268              	.LVL35:
 269              		.loc 1 108 0
 270 0120 059E     		ldr	r6, [sp, #20]
 271 0122 731C     		adds	r3, r6, #1
 272 0124 DBB2     		uxtb	r3, r3
 273 0126 0593     		str	r3, [sp, #20]
 274              	.LVL36:
 275              		.loc 1 107 0
 276 0128 4FF0000B 		mov	fp, #0
 277              	.LVL37:
 278              	.L16:
 279 012c 0AF1010C 		add	ip, r10, #1
 280              		.loc 1 75 0
 281 0130 099C     		ldr	r4, [sp, #36]
 282 0132 1FFA8CFA 		uxth	r10, ip
 283 0136 A245     		cmp	r10, r4
 284 0138 B2D1     		bne	.L18
 285 013a DDF82CA0 		ldr	r10, [sp, #44]
ARM GAS  /tmp/cc5AHGFd.s 			page 6


 286 013e 9AF80440 		ldrb	r4, [r10, #4]	@ zero_extendqisi2
 287 0142 9AF80800 		ldrb	r0, [r10, #8]	@ zero_extendqisi2
 288              	.LVL38:
 289              	.L8:
 290              	.LBB22:
 291              	.LBB23:
 292              		.loc 1 36 0
 293 0146 18BB     		cbnz	r0, .L38
 294              		.loc 1 42 0
 295 0148 DAF80C30 		ldr	r3, [r10, #12]
 296 014c 0A9D     		ldr	r5, [sp, #40]
 297 014e 585D     		ldrb	r0, [r3, r5]	@ zero_extendqisi2
 298              	.LBE23:
 299              	.LBE22:
 300              	.LBE21:
 301              	.LBE20:
 302              		.loc 1 130 0
 303 0150 0DB0     		add	sp, sp, #52
 304              		@ sp needed
 305 0152 BDE8F08F 		pop	{r4, r5, r6, r7, r8, r9, r10, fp, pc}
 306              	.LVL39:
 307              	.L4:
 308              	.LBB27:
 309              	.LBB26:
 310              		.loc 1 59 0
 311 0156 ADB2     		uxth	r5, r5
 312 0158 9AF80690 		ldrb	r9, [r10, #6]	@ zero_extendqisi2
 313 015c DAF81430 		ldr	r3, [r10, #20]
 314              	.LVL40:
 315 0160 0A95     		str	r5, [sp, #40]
 316 0162 05FB00F4 		mul	r4, r5, r0
 317 0166 09FB0433 		mla	r3, r9, r4, r3
 318 016a 0893     		str	r3, [sp, #32]
 319              	.LVL41:
 320 016c 0746     		mov	r7, r0
 321 016e 7DE7     		b	.L7
 322              	.LVL42:
 323              	.L36:
 324 0170 0798     		ldr	r0, [sp, #28]
 325              		.loc 1 89 0
 326 0172 179F     		ldr	r7, [sp, #92]
 327 0174 0097     		str	r7, [sp]
 328 0176 2044     		add	r0, r0, r4
 329 0178 801A     		subs	r0, r0, r2
 330 017a CDF80CC0 		str	ip, [sp, #12]
 331 017e 00B2     		sxth	r0, r0
 332 0180 0699     		ldr	r1, [sp, #24]
 333 0182 169F     		ldr	r7, [sp, #88]
 334 0184 FF23     		movs	r3, #255
 335              	.LVL43:
 336 0186 B847     		blx	r7
 337              	.LVL44:
 338 0188 0122     		movs	r2, #1
 339 018a DDF80CC0 		ldr	ip, [sp, #12]
 340 018e 9DE7     		b	.L12
 341              	.LVL45:
 342              	.L38:
ARM GAS  /tmp/cc5AHGFd.s 			page 7


 343              	.LBB25:
 344              	.LBB24:
 345              		.loc 1 38 0
 346 0190 2044     		add	r0, r0, r4
 347 0192 C0B2     		uxtb	r0, r0
 348              	.LBE24:
 349              	.LBE25:
 350              	.LBE26:
 351              	.LBE27:
 352              		.loc 1 130 0
 353 0194 0DB0     		add	sp, sp, #52
 354              		@ sp needed
 355 0196 BDE8F08F 		pop	{r4, r5, r6, r7, r8, r9, r10, fp, pc}
 356              	.LVL46:
 357              	.L21:
 358              		.loc 1 127 0
 359 019a 3046     		mov	r0, r6
 360              	.LVL47:
 361 019c 4BE7     		b	.L2
 362              		.cfi_endproc
 363              	.LFE114:
 364              		.size	mf_bwfont_render_character, .-mf_bwfont_render_character
 365 019e 00BF     		.section	.text.mf_bwfont_character_width,"ax",%progbits
 366              		.align	2
 367              		.p2align 4,,15
 368              		.global	mf_bwfont_character_width
 369              		.thumb
 370              		.thumb_func
 371              		.type	mf_bwfont_character_width, %function
 372              	mf_bwfont_character_width:
 373              	.LFB115:
 374              		.loc 1 134 0
 375              		.cfi_startproc
 376              		@ args = 0, pretend = 0, frame = 0
 377              		@ frame_needed = 0, uses_anonymous_args = 0
 378              		@ link register save eliminated.
 379              	.LVL48:
 380 0000 70B4     		push	{r4, r5, r6}
 381              		.cfi_def_cfa_offset 12
 382              		.cfi_offset 4, -12
 383              		.cfi_offset 5, -8
 384              		.cfi_offset 6, -4
 385              	.LBB28:
 386              	.LBB29:
 387              		.loc 1 20 0
 388 0002 467F     		ldrb	r6, [r0, #29]	@ zero_extendqisi2
 389 0004 F6B1     		cbz	r6, .L45
 390 0006 036A     		ldr	r3, [r0, #32]
 391 0008 0022     		movs	r2, #0
 392              	.LVL49:
 393              	.L44:
 394              		.loc 1 23 0
 395 000a 1C88     		ldrh	r4, [r3]
 396              	.LVL50:
 397              		.loc 1 24 0
 398 000c A142     		cmp	r1, r4
 399              		.loc 1 20 0
ARM GAS  /tmp/cc5AHGFd.s 			page 8


 400 000e 02F10102 		add	r2, r2, #1
 401              	.LVL51:
 402              		.loc 1 23 0
 403 0012 C4EB0105 		rsb	r5, r4, r1
 404              		.loc 1 24 0
 405 0016 02D3     		bcc	.L41
 406 0018 5888     		ldrh	r0, [r3, #2]
 407 001a 8542     		cmp	r5, r0
 408 001c 06D3     		bcc	.L49
 409              	.L41:
 410              		.loc 1 20 0
 411 001e B242     		cmp	r2, r6
 412 0020 03F11803 		add	r3, r3, #24
 413              	.LVL52:
 414 0024 F1D3     		bcc	.L44
 415              	.LBE29:
 416              	.LBE28:
 417              		.loc 1 141 0
 418 0026 0020     		movs	r0, #0
 419              	.LVL53:
 420              	.L40:
 421              		.loc 1 144 0
 422 0028 70BC     		pop	{r4, r5, r6}
 423 002a 7047     		bx	lr
 424              	.LVL54:
 425              	.L49:
 426              		.loc 1 136 0
 427 002c 1A7A     		ldrb	r2, [r3, #8]	@ zero_extendqisi2
 428              	.LVL55:
 429 002e 1879     		ldrb	r0, [r3, #4]	@ zero_extendqisi2
 430              	.LBB30:
 431              	.LBB31:
 432              		.loc 1 36 0
 433 0030 1AB1     		cbz	r2, .L50
 434              		.loc 1 38 0
 435 0032 0244     		add	r2, r2, r0
 436 0034 D0B2     		uxtb	r0, r2
 437              	.LBE31:
 438              	.LBE30:
 439              		.loc 1 144 0
 440 0036 70BC     		pop	{r4, r5, r6}
 441              	.LVL56:
 442 0038 7047     		bx	lr
 443              	.LVL57:
 444              	.L50:
 445 003a ADB2     		uxth	r5, r5
 446              	.LBB33:
 447              	.LBB32:
 448              		.loc 1 42 0
 449 003c DB68     		ldr	r3, [r3, #12]
 450              	.LVL58:
 451 003e 585D     		ldrb	r0, [r3, r5]	@ zero_extendqisi2
 452              	.LBE32:
 453              	.LBE33:
 454              		.loc 1 144 0
 455 0040 70BC     		pop	{r4, r5, r6}
 456              	.LVL59:
ARM GAS  /tmp/cc5AHGFd.s 			page 9


 457 0042 7047     		bx	lr
 458              	.LVL60:
 459              	.L45:
 460              		.loc 1 141 0
 461 0044 3046     		mov	r0, r6
 462              	.LVL61:
 463 0046 EFE7     		b	.L40
 464              		.cfi_endproc
 465              	.LFE115:
 466              		.size	mf_bwfont_character_width, .-mf_bwfont_character_width
 467 0048 AFF30080 		.text
 467      AFF30080 
 468              	.Letext0:
 469              		.file 2 "/opt/ARM/arm-none-eabi/include/machine/_default_types.h"
 470              		.file 3 "/opt/ARM/arm-none-eabi/include/stdint.h"
 471              		.file 4 "/home/makkmarci/devel/ugfx/src/gdisp/mcufont/mf_font.h"
 472              		.file 5 "/home/makkmarci/devel/ugfx/src/gdisp/mcufont/mf_encoding.h"
 473              		.file 6 "/home/makkmarci/devel/ugfx/src/gdisp/mcufont/mf_bwfont.h"
 474              		.file 7 "../../os/ports/common/ARMCMx/CMSIS/include/core_cm4.h"