ARM GAS  /tmp/cc4FXoch.s 			page 1


   1              		.syntax unified
   2              		.cpu cortex-m4
   3              		.eabi_attribute 27, 1
   4              		.eabi_attribute 28, 1
   5              		.fpu fpv4-sp-d16
   6              		.eabi_attribute 20, 1
   7              		.eabi_attribute 21, 1
   8              		.eabi_attribute 23, 3
   9              		.eabi_attribute 24, 1
  10              		.eabi_attribute 25, 1
  11              		.eabi_attribute 26, 1
  12              		.eabi_attribute 30, 6
  13              		.eabi_attribute 34, 1
  14              		.eabi_attribute 18, 4
  15              		.thumb
  16              		.file	"mf_encoding.c"
  17              		.text
  18              	.Ltext0:
  19              		.cfi_sections	.debug_frame
  20              		.section	.text.mf_getchar,"ax",%progbits
  21              		.align	2
  22              		.p2align 4,,15
  23              		.global	mf_getchar
  24              		.thumb
  25              		.thumb_func
  26              		.type	mf_getchar, %function
  27              	mf_getchar:
  28              	.LFB111:
  29              		.file 1 "/home/makkmarci/workspace/ugfx/src/gdisp/mcufont/mf_encoding.c"
  30              		.loc 1 15 0
  31              		.cfi_startproc
  32              		@ args = 0, pretend = 0, frame = 16
  33              		@ frame_needed = 0, uses_anonymous_args = 0
  34              		@ link register save eliminated.
  35 0000 84B0     		sub	sp, sp, #16
  36              		.cfi_def_cfa_offset 16
  37 0002 0190     		str	r0, [sp, #4]
  38              		.loc 1 20 0
  39 0004 019B     		ldr	r3, [sp, #4]
  40 0006 1B68     		ldr	r3, [r3]
  41 0008 1B78     		ldrb	r3, [r3]
  42 000a 8DF80B30 		strb	r3, [sp, #11]
  43              		.loc 1 21 0
  44 000e 9DF80B30 		ldrb	r3, [sp, #11]	@ zero_extendqisi2
  45 0012 002B     		cmp	r3, #0
  46 0014 01D1     		bne	.L2
  47              		.loc 1 22 0
  48 0016 0023     		movs	r3, #0
  49 0018 83E0     		b	.L3
  50              	.L2:
  51              		.loc 1 24 0
  52 001a 019B     		ldr	r3, [sp, #4]
  53 001c 1B68     		ldr	r3, [r3]
  54 001e 5A1C     		adds	r2, r3, #1
  55 0020 019B     		ldr	r3, [sp, #4]
  56 0022 1A60     		str	r2, [r3]
  57              		.loc 1 26 0
ARM GAS  /tmp/cc4FXoch.s 			page 2


  58 0024 9DF80B30 		ldrb	r3, [sp, #11]	@ zero_extendqisi2
  59 0028 5BB2     		sxtb	r3, r3
  60 002a 002B     		cmp	r3, #0
  61 002c 03DB     		blt	.L4
  62              		.loc 1 29 0
  63 002e 9DF80B30 		ldrb	r3, [sp, #11]	@ zero_extendqisi2
  64 0032 9BB2     		uxth	r3, r3
  65 0034 75E0     		b	.L3
  66              	.L4:
  67              		.loc 1 31 0
  68 0036 9DF80B30 		ldrb	r3, [sp, #11]	@ zero_extendqisi2
  69 003a 03F0C003 		and	r3, r3, #192
  70 003e 802B     		cmp	r3, #128
  71 0040 03D1     		bne	.L5
  72              		.loc 1 36 0
  73 0042 9DF80B30 		ldrb	r3, [sp, #11]	@ zero_extendqisi2
  74 0046 9BB2     		uxth	r3, r3
  75 0048 6BE0     		b	.L3
  76              	.L5:
  77              		.loc 1 38 0
  78 004a 019B     		ldr	r3, [sp, #4]
  79 004c 1B68     		ldr	r3, [r3]
  80 004e 1B78     		ldrb	r3, [r3]	@ zero_extendqisi2
  81 0050 03F0C003 		and	r3, r3, #192
  82 0054 C02B     		cmp	r3, #192
  83 0056 03D1     		bne	.L6
  84              		.loc 1 43 0
  85 0058 9DF80B30 		ldrb	r3, [sp, #11]	@ zero_extendqisi2
  86 005c 9BB2     		uxth	r3, r3
  87 005e 60E0     		b	.L3
  88              	.L6:
  89              		.loc 1 50 0
  90 0060 0223     		movs	r3, #2
  91 0062 8DF80E30 		strb	r3, [sp, #14]
  92              		.loc 1 51 0
  93 0066 2023     		movs	r3, #32
  94 0068 8DF80F30 		strb	r3, [sp, #15]
  95              		.loc 1 52 0
  96 006c 0023     		movs	r3, #0
  97 006e ADF80C30 		strh	r3, [sp, #12]	@ movhi
  98              		.loc 1 53 0
  99 0072 1DE0     		b	.L7
 100              	.L9:
 101              		.loc 1 55 0
 102 0074 9DF80E30 		ldrb	r3, [sp, #14]	@ zero_extendqisi2
 103 0078 0133     		adds	r3, r3, #1
 104 007a 8DF80E30 		strb	r3, [sp, #14]
 105              		.loc 1 56 0
 106 007e 9DF80F30 		ldrb	r3, [sp, #15]	@ zero_extendqisi2
 107 0082 5B08     		lsrs	r3, r3, #1
 108 0084 8DF80F30 		strb	r3, [sp, #15]
 109              		.loc 1 58 0
 110 0088 BDF80C30 		ldrh	r3, [sp, #12]
 111 008c 9B01     		lsls	r3, r3, #6
 112 008e 9AB2     		uxth	r2, r3
 113 0090 019B     		ldr	r3, [sp, #4]
 114 0092 1B68     		ldr	r3, [r3]
ARM GAS  /tmp/cc4FXoch.s 			page 3


 115 0094 1B78     		ldrb	r3, [r3]	@ zero_extendqisi2
 116 0096 9BB2     		uxth	r3, r3
 117 0098 03F03F03 		and	r3, r3, #63
 118 009c 9BB2     		uxth	r3, r3
 119 009e 1343     		orrs	r3, r3, r2
 120 00a0 9BB2     		uxth	r3, r3
 121 00a2 ADF80C30 		strh	r3, [sp, #12]	@ movhi
 122              		.loc 1 59 0
 123 00a6 019B     		ldr	r3, [sp, #4]
 124 00a8 1B68     		ldr	r3, [r3]
 125 00aa 5A1C     		adds	r2, r3, #1
 126 00ac 019B     		ldr	r3, [sp, #4]
 127 00ae 1A60     		str	r2, [r3]
 128              	.L7:
 129              		.loc 1 53 0
 130 00b0 9DF80B20 		ldrb	r2, [sp, #11]
 131 00b4 9DF80F30 		ldrb	r3, [sp, #15]
 132 00b8 1340     		ands	r3, r3, r2
 133 00ba DBB2     		uxtb	r3, r3
 134 00bc 002B     		cmp	r3, #0
 135 00be 03D0     		beq	.L8
 136              		.loc 1 53 0 is_stmt 0 discriminator 1
 137 00c0 9DF80E30 		ldrb	r3, [sp, #14]	@ zero_extendqisi2
 138 00c4 042B     		cmp	r3, #4
 139 00c6 D5D9     		bls	.L9
 140              	.L8:
 141              		.loc 1 62 0 is_stmt 1
 142 00c8 BDF80C30 		ldrh	r3, [sp, #12]
 143 00cc 9B01     		lsls	r3, r3, #6
 144 00ce 9AB2     		uxth	r2, r3
 145 00d0 019B     		ldr	r3, [sp, #4]
 146 00d2 1B68     		ldr	r3, [r3]
 147 00d4 1B78     		ldrb	r3, [r3]	@ zero_extendqisi2
 148 00d6 9BB2     		uxth	r3, r3
 149 00d8 03F03F03 		and	r3, r3, #63
 150 00dc 9BB2     		uxth	r3, r3
 151 00de 1343     		orrs	r3, r3, r2
 152 00e0 9BB2     		uxth	r3, r3
 153 00e2 ADF80C30 		strh	r3, [sp, #12]	@ movhi
 154              		.loc 1 63 0
 155 00e6 019B     		ldr	r3, [sp, #4]
 156 00e8 1B68     		ldr	r3, [r3]
 157 00ea 5A1C     		adds	r2, r3, #1
 158 00ec 019B     		ldr	r3, [sp, #4]
 159 00ee 1A60     		str	r2, [r3]
 160              		.loc 1 65 0
 161 00f0 9DF80B20 		ldrb	r2, [sp, #11]	@ zero_extendqisi2
 162 00f4 9DF80F30 		ldrb	r3, [sp, #15]	@ zero_extendqisi2
 163 00f8 013B     		subs	r3, r3, #1
 164 00fa 02EA0301 		and	r1, r2, r3
 165 00fe 9DF80E30 		ldrb	r3, [sp, #14]	@ zero_extendqisi2
 166 0102 5A1E     		subs	r2, r3, #1
 167 0104 1346     		mov	r3, r2
 168 0106 5B00     		lsls	r3, r3, #1
 169 0108 1344     		add	r3, r3, r2
 170 010a 5B00     		lsls	r3, r3, #1
 171 010c 01FA03F3 		lsl	r3, r1, r3
ARM GAS  /tmp/cc4FXoch.s 			page 4


 172 0110 9AB2     		uxth	r2, r3
 173 0112 BDF80C30 		ldrh	r3, [sp, #12]
 174 0116 1343     		orrs	r3, r3, r2
 175 0118 9BB2     		uxth	r3, r3
 176 011a ADF80C30 		strh	r3, [sp, #12]	@ movhi
 177              		.loc 1 66 0
 178 011e BDF80C30 		ldrh	r3, [sp, #12]
 179              	.L3:
 180              		.loc 1 68 0
 181 0122 1846     		mov	r0, r3
 182 0124 04B0     		add	sp, sp, #16
 183              		.cfi_def_cfa_offset 0
 184              		@ sp needed
 185 0126 7047     		bx	lr
 186              		.cfi_endproc
 187              	.LFE111:
 188              		.size	mf_getchar, .-mf_getchar
 189 0128 AFF30080 		.section	.text.mf_rewind,"ax",%progbits
 189      AFF30080 
 190              		.align	2
 191              		.p2align 4,,15
 192              		.global	mf_rewind
 193              		.thumb
 194              		.thumb_func
 195              		.type	mf_rewind, %function
 196              	mf_rewind:
 197              	.LFB112:
 198              		.loc 1 71 0
 199              		.cfi_startproc
 200              		@ args = 0, pretend = 0, frame = 8
 201              		@ frame_needed = 0, uses_anonymous_args = 0
 202              		@ link register save eliminated.
 203 0000 82B0     		sub	sp, sp, #8
 204              		.cfi_def_cfa_offset 8
 205 0002 0190     		str	r0, [sp, #4]
 206              		.loc 1 72 0
 207 0004 019B     		ldr	r3, [sp, #4]
 208 0006 1B68     		ldr	r3, [r3]
 209 0008 5A1E     		subs	r2, r3, #1
 210 000a 019B     		ldr	r3, [sp, #4]
 211 000c 1A60     		str	r2, [r3]
 212              		.loc 1 74 0
 213 000e 04E0     		b	.L11
 214              	.L13:
 215              		.loc 1 75 0
 216 0010 019B     		ldr	r3, [sp, #4]
 217 0012 1B68     		ldr	r3, [r3]
 218 0014 5A1E     		subs	r2, r3, #1
 219 0016 019B     		ldr	r3, [sp, #4]
 220 0018 1A60     		str	r2, [r3]
 221              	.L11:
 222              		.loc 1 74 0
 223 001a 019B     		ldr	r3, [sp, #4]
 224 001c 1B68     		ldr	r3, [r3]
 225 001e 1B78     		ldrb	r3, [r3]	@ zero_extendqisi2
 226 0020 DBB2     		uxtb	r3, r3
 227 0022 5BB2     		sxtb	r3, r3
ARM GAS  /tmp/cc4FXoch.s 			page 5


 228 0024 002B     		cmp	r3, #0
 229 0026 06DA     		bge	.L10
 230              		.loc 1 74 0 is_stmt 0 discriminator 1
 231 0028 019B     		ldr	r3, [sp, #4]
 232 002a 1B68     		ldr	r3, [r3]
 233 002c 1B78     		ldrb	r3, [r3]	@ zero_extendqisi2
 234 002e 03F0C003 		and	r3, r3, #192
 235 0032 C02B     		cmp	r3, #192
 236 0034 ECD1     		bne	.L13
 237              	.L10:
 238              		.loc 1 76 0 is_stmt 1
 239 0036 02B0     		add	sp, sp, #8
 240              		.cfi_def_cfa_offset 0
 241              		@ sp needed
 242 0038 7047     		bx	lr
 243              		.cfi_endproc
 244              	.LFE112:
 245              		.size	mf_rewind, .-mf_rewind
 246 003a 00BFAFF3 		.text
 246      0080
 247              	.Letext0:
 248              		.file 2 "/opt/gcc-arm-none-eabi/arm-none-eabi/include/machine/_default_types.h"
 249              		.file 3 "/opt/gcc-arm-none-eabi/arm-none-eabi/include/stdint.h"
 250              		.file 4 "/home/makkmarci/workspace/ugfx/src/gdisp/mcufont/mf_encoding.h"
 251              		.file 5 "/home/makkmarci/workspace/ChibiOS_2.6.8/os/ports/common/ARMCMx/CMSIS/include/core_cm4.h"
 252              		.section	.debug_info,"",%progbits
 253              	.Ldebug_info0:
 254 0000 75010000 		.4byte	0x175
 255 0004 0400     		.2byte	0x4
 256 0006 00000000 		.4byte	.Ldebug_abbrev0
 257 000a 04       		.byte	0x4
 258 000b 01       		.uleb128 0x1
 259 000c 1C000000 		.4byte	.LASF22
 260 0010 01       		.byte	0x1
 261 0011 B9010000 		.4byte	.LASF23
 262 0015 00000000 		.4byte	.Ldebug_ranges0+0
 263 0019 00000000 		.4byte	0
 264 001d 00000000 		.4byte	.Ldebug_line0
 265 0021 02       		.uleb128 0x2
 266 0022 04       		.byte	0x4
 267 0023 05       		.byte	0x5
 268 0024 696E7400 		.ascii	"int\000"
 269 0028 03       		.uleb128 0x3
 270 0029 04       		.byte	0x4
 271 002a 07       		.byte	0x7
 272 002b 99010000 		.4byte	.LASF0
 273 002f 03       		.uleb128 0x3
 274 0030 01       		.byte	0x1
 275 0031 06       		.byte	0x6
 276 0032 3A020000 		.4byte	.LASF1
 277 0036 04       		.uleb128 0x4
 278 0037 00000000 		.4byte	.LASF4
 279 003b 02       		.byte	0x2
 280 003c 1D       		.byte	0x1d
 281 003d 41000000 		.4byte	0x41
 282 0041 03       		.uleb128 0x3
 283 0042 01       		.byte	0x1
ARM GAS  /tmp/cc4FXoch.s 			page 6


 284 0043 08       		.byte	0x8
 285 0044 80010000 		.4byte	.LASF2
 286 0048 03       		.uleb128 0x3
 287 0049 02       		.byte	0x2
 288 004a 05       		.byte	0x5
 289 004b 1E020000 		.4byte	.LASF3
 290 004f 04       		.uleb128 0x4
 291 0050 8E010000 		.4byte	.LASF5
 292 0054 02       		.byte	0x2
 293 0055 2B       		.byte	0x2b
 294 0056 5A000000 		.4byte	0x5a
 295 005a 03       		.uleb128 0x3
 296 005b 02       		.byte	0x2
 297 005c 07       		.byte	0x7
 298 005d 60010000 		.4byte	.LASF6
 299 0061 04       		.uleb128 0x4
 300 0062 0A000000 		.4byte	.LASF7
 301 0066 02       		.byte	0x2
 302 0067 3F       		.byte	0x3f
 303 0068 6C000000 		.4byte	0x6c
 304 006c 03       		.uleb128 0x3
 305 006d 04       		.byte	0x4
 306 006e 05       		.byte	0x5
 307 006f 31020000 		.4byte	.LASF8
 308 0073 03       		.uleb128 0x3
 309 0074 04       		.byte	0x4
 310 0075 07       		.byte	0x7
 311 0076 43010000 		.4byte	.LASF9
 312 007a 03       		.uleb128 0x3
 313 007b 08       		.byte	0x8
 314 007c 05       		.byte	0x5
 315 007d 09020000 		.4byte	.LASF10
 316 0081 03       		.uleb128 0x3
 317 0082 08       		.byte	0x8
 318 0083 07       		.byte	0x7
 319 0084 4C020000 		.4byte	.LASF11
 320 0088 04       		.uleb128 0x4
 321 0089 14000000 		.4byte	.LASF12
 322 008d 03       		.byte	0x3
 323 008e 15       		.byte	0x15
 324 008f 36000000 		.4byte	0x36
 325 0093 04       		.uleb128 0x4
 326 0094 28020000 		.4byte	.LASF13
 327 0098 03       		.byte	0x3
 328 0099 21       		.byte	0x21
 329 009a 4F000000 		.4byte	0x4f
 330 009e 04       		.uleb128 0x4
 331 009f F8010000 		.4byte	.LASF14
 332 00a3 03       		.byte	0x3
 333 00a4 2C       		.byte	0x2c
 334 00a5 61000000 		.4byte	0x61
 335 00a9 03       		.uleb128 0x3
 336 00aa 01       		.byte	0x1
 337 00ab 02       		.byte	0x2
 338 00ac 46020000 		.4byte	.LASF15
 339 00b0 03       		.uleb128 0x3
 340 00b1 04       		.byte	0x4
ARM GAS  /tmp/cc4FXoch.s 			page 7


 341 00b2 07       		.byte	0x7
 342 00b3 00020000 		.4byte	.LASF16
 343 00b7 05       		.uleb128 0x5
 344 00b8 04       		.byte	0x4
 345 00b9 BD000000 		.4byte	0xbd
 346 00bd 06       		.uleb128 0x6
 347 00be C2000000 		.4byte	0xc2
 348 00c2 03       		.uleb128 0x3
 349 00c3 01       		.byte	0x1
 350 00c4 08       		.byte	0x8
 351 00c5 A6010000 		.4byte	.LASF17
 352 00c9 07       		.uleb128 0x7
 353 00ca 9E000000 		.4byte	0x9e
 354 00ce 04       		.uleb128 0x4
 355 00cf 3B010000 		.4byte	.LASF18
 356 00d3 04       		.byte	0x4
 357 00d4 18       		.byte	0x18
 358 00d5 93000000 		.4byte	0x93
 359 00d9 04       		.uleb128 0x4
 360 00da AB010000 		.4byte	.LASF19
 361 00de 04       		.byte	0x4
 362 00df 1F       		.byte	0x1f
 363 00e0 B7000000 		.4byte	0xb7
 364 00e4 08       		.uleb128 0x8
 365 00e5 55010000 		.4byte	.LASF24
 366 00e9 01       		.byte	0x1
 367 00ea 0E       		.byte	0xe
 368 00eb CE000000 		.4byte	0xce
 369 00ef 00000000 		.4byte	.LFB111
 370 00f3 28010000 		.4byte	.LFE111-.LFB111
 371 00f7 01       		.uleb128 0x1
 372 00f8 9C       		.byte	0x9c
 373 00f9 42010000 		.4byte	0x142
 374 00fd 09       		.uleb128 0x9
 375 00fe 73747200 		.ascii	"str\000"
 376 0102 01       		.byte	0x1
 377 0103 0E       		.byte	0xe
 378 0104 42010000 		.4byte	0x142
 379 0108 02       		.uleb128 0x2
 380 0109 91       		.byte	0x91
 381 010a 74       		.sleb128 -12
 382 010b 0A       		.uleb128 0xa
 383 010c 6300     		.ascii	"c\000"
 384 010e 01       		.byte	0x1
 385 010f 10       		.byte	0x10
 386 0110 88000000 		.4byte	0x88
 387 0114 02       		.uleb128 0x2
 388 0115 91       		.byte	0x91
 389 0116 7B       		.sleb128 -5
 390 0117 0A       		.uleb128 0xa
 391 0118 746D7000 		.ascii	"tmp\000"
 392 011c 01       		.byte	0x1
 393 011d 11       		.byte	0x11
 394 011e 88000000 		.4byte	0x88
 395 0122 02       		.uleb128 0x2
 396 0123 91       		.byte	0x91
 397 0124 7F       		.sleb128 -1
ARM GAS  /tmp/cc4FXoch.s 			page 8


 398 0125 0B       		.uleb128 0xb
 399 0126 17020000 		.4byte	.LASF20
 400 012a 01       		.byte	0x1
 401 012b 11       		.byte	0x11
 402 012c 88000000 		.4byte	0x88
 403 0130 02       		.uleb128 0x2
 404 0131 91       		.byte	0x91
 405 0132 7E       		.sleb128 -2
 406 0133 0B       		.uleb128 0xb
 407 0134 B2010000 		.4byte	.LASF21
 408 0138 01       		.byte	0x1
 409 0139 12       		.byte	0x12
 410 013a 93000000 		.4byte	0x93
 411 013e 02       		.uleb128 0x2
 412 013f 91       		.byte	0x91
 413 0140 7C       		.sleb128 -4
 414 0141 00       		.byte	0
 415 0142 05       		.uleb128 0x5
 416 0143 04       		.byte	0x4
 417 0144 D9000000 		.4byte	0xd9
 418 0148 0C       		.uleb128 0xc
 419 0149 31010000 		.4byte	.LASF25
 420 014d 01       		.byte	0x1
 421 014e 46       		.byte	0x46
 422 014f 00000000 		.4byte	.LFB112
 423 0153 3A000000 		.4byte	.LFE112-.LFB112
 424 0157 01       		.uleb128 0x1
 425 0158 9C       		.byte	0x9c
 426 0159 6C010000 		.4byte	0x16c
 427 015d 09       		.uleb128 0x9
 428 015e 73747200 		.ascii	"str\000"
 429 0162 01       		.byte	0x1
 430 0163 46       		.byte	0x46
 431 0164 42010000 		.4byte	0x142
 432 0168 02       		.uleb128 0x2
 433 0169 91       		.byte	0x91
 434 016a 7C       		.sleb128 -4
 435 016b 00       		.byte	0
 436 016c 0D       		.uleb128 0xd
 437 016d 73010000 		.4byte	.LASF26
 438 0171 05       		.byte	0x5
 439 0172 9806     		.2byte	0x698
 440 0174 C9000000 		.4byte	0xc9
 441 0178 00       		.byte	0
 442              		.section	.debug_abbrev,"",%progbits
 443              	.Ldebug_abbrev0:
 444 0000 01       		.uleb128 0x1
 445 0001 11       		.uleb128 0x11
 446 0002 01       		.byte	0x1
 447 0003 25       		.uleb128 0x25
 448 0004 0E       		.uleb128 0xe
 449 0005 13       		.uleb128 0x13
 450 0006 0B       		.uleb128 0xb
 451 0007 03       		.uleb128 0x3
 452 0008 0E       		.uleb128 0xe
 453 0009 55       		.uleb128 0x55
 454 000a 17       		.uleb128 0x17
ARM GAS  /tmp/cc4FXoch.s 			page 9


 455 000b 11       		.uleb128 0x11
 456 000c 01       		.uleb128 0x1
 457 000d 10       		.uleb128 0x10
 458 000e 17       		.uleb128 0x17
 459 000f 00       		.byte	0
 460 0010 00       		.byte	0
 461 0011 02       		.uleb128 0x2
 462 0012 24       		.uleb128 0x24
 463 0013 00       		.byte	0
 464 0014 0B       		.uleb128 0xb
 465 0015 0B       		.uleb128 0xb
 466 0016 3E       		.uleb128 0x3e
 467 0017 0B       		.uleb128 0xb
 468 0018 03       		.uleb128 0x3
 469 0019 08       		.uleb128 0x8
 470 001a 00       		.byte	0
 471 001b 00       		.byte	0
 472 001c 03       		.uleb128 0x3
 473 001d 24       		.uleb128 0x24
 474 001e 00       		.byte	0
 475 001f 0B       		.uleb128 0xb
 476 0020 0B       		.uleb128 0xb
 477 0021 3E       		.uleb128 0x3e
 478 0022 0B       		.uleb128 0xb
 479 0023 03       		.uleb128 0x3
 480 0024 0E       		.uleb128 0xe
 481 0025 00       		.byte	0
 482 0026 00       		.byte	0
 483 0027 04       		.uleb128 0x4
 484 0028 16       		.uleb128 0x16
 485 0029 00       		.byte	0
 486 002a 03       		.uleb128 0x3
 487 002b 0E       		.uleb128 0xe
 488 002c 3A       		.uleb128 0x3a
 489 002d 0B       		.uleb128 0xb
 490 002e 3B       		.uleb128 0x3b
 491 002f 0B       		.uleb128 0xb
 492 0030 49       		.uleb128 0x49
 493 0031 13       		.uleb128 0x13
 494 0032 00       		.byte	0
 495 0033 00       		.byte	0
 496 0034 05       		.uleb128 0x5
 497 0035 0F       		.uleb128 0xf
 498 0036 00       		.byte	0
 499 0037 0B       		.uleb128 0xb
 500 0038 0B       		.uleb128 0xb
 501 0039 49       		.uleb128 0x49
 502 003a 13       		.uleb128 0x13
 503 003b 00       		.byte	0
 504 003c 00       		.byte	0
 505 003d 06       		.uleb128 0x6
 506 003e 26       		.uleb128 0x26
 507 003f 00       		.byte	0
 508 0040 49       		.uleb128 0x49
 509 0041 13       		.uleb128 0x13
 510 0042 00       		.byte	0
 511 0043 00       		.byte	0
ARM GAS  /tmp/cc4FXoch.s 			page 10


 512 0044 07       		.uleb128 0x7
 513 0045 35       		.uleb128 0x35
 514 0046 00       		.byte	0
 515 0047 49       		.uleb128 0x49
 516 0048 13       		.uleb128 0x13
 517 0049 00       		.byte	0
 518 004a 00       		.byte	0
 519 004b 08       		.uleb128 0x8
 520 004c 2E       		.uleb128 0x2e
 521 004d 01       		.byte	0x1
 522 004e 3F       		.uleb128 0x3f
 523 004f 19       		.uleb128 0x19
 524 0050 03       		.uleb128 0x3
 525 0051 0E       		.uleb128 0xe
 526 0052 3A       		.uleb128 0x3a
 527 0053 0B       		.uleb128 0xb
 528 0054 3B       		.uleb128 0x3b
 529 0055 0B       		.uleb128 0xb
 530 0056 27       		.uleb128 0x27
 531 0057 19       		.uleb128 0x19
 532 0058 49       		.uleb128 0x49
 533 0059 13       		.uleb128 0x13
 534 005a 11       		.uleb128 0x11
 535 005b 01       		.uleb128 0x1
 536 005c 12       		.uleb128 0x12
 537 005d 06       		.uleb128 0x6
 538 005e 40       		.uleb128 0x40
 539 005f 18       		.uleb128 0x18
 540 0060 9742     		.uleb128 0x2117
 541 0062 19       		.uleb128 0x19
 542 0063 01       		.uleb128 0x1
 543 0064 13       		.uleb128 0x13
 544 0065 00       		.byte	0
 545 0066 00       		.byte	0
 546 0067 09       		.uleb128 0x9
 547 0068 05       		.uleb128 0x5
 548 0069 00       		.byte	0
 549 006a 03       		.uleb128 0x3
 550 006b 08       		.uleb128 0x8
 551 006c 3A       		.uleb128 0x3a
 552 006d 0B       		.uleb128 0xb
 553 006e 3B       		.uleb128 0x3b
 554 006f 0B       		.uleb128 0xb
 555 0070 49       		.uleb128 0x49
 556 0071 13       		.uleb128 0x13
 557 0072 02       		.uleb128 0x2
 558 0073 18       		.uleb128 0x18
 559 0074 00       		.byte	0
 560 0075 00       		.byte	0
 561 0076 0A       		.uleb128 0xa
 562 0077 34       		.uleb128 0x34
 563 0078 00       		.byte	0
 564 0079 03       		.uleb128 0x3
 565 007a 08       		.uleb128 0x8
 566 007b 3A       		.uleb128 0x3a
 567 007c 0B       		.uleb128 0xb
 568 007d 3B       		.uleb128 0x3b
ARM GAS  /tmp/cc4FXoch.s 			page 11


 569 007e 0B       		.uleb128 0xb
 570 007f 49       		.uleb128 0x49
 571 0080 13       		.uleb128 0x13
 572 0081 02       		.uleb128 0x2
 573 0082 18       		.uleb128 0x18
 574 0083 00       		.byte	0
 575 0084 00       		.byte	0
 576 0085 0B       		.uleb128 0xb
 577 0086 34       		.uleb128 0x34
 578 0087 00       		.byte	0
 579 0088 03       		.uleb128 0x3
 580 0089 0E       		.uleb128 0xe
 581 008a 3A       		.uleb128 0x3a
 582 008b 0B       		.uleb128 0xb
 583 008c 3B       		.uleb128 0x3b
 584 008d 0B       		.uleb128 0xb
 585 008e 49       		.uleb128 0x49
 586 008f 13       		.uleb128 0x13
 587 0090 02       		.uleb128 0x2
 588 0091 18       		.uleb128 0x18
 589 0092 00       		.byte	0
 590 0093 00       		.byte	0
 591 0094 0C       		.uleb128 0xc
 592 0095 2E       		.uleb128 0x2e
 593 0096 01       		.byte	0x1
 594 0097 3F       		.uleb128 0x3f
 595 0098 19       		.uleb128 0x19
 596 0099 03       		.uleb128 0x3
 597 009a 0E       		.uleb128 0xe
 598 009b 3A       		.uleb128 0x3a
 599 009c 0B       		.uleb128 0xb
 600 009d 3B       		.uleb128 0x3b
 601 009e 0B       		.uleb128 0xb
 602 009f 27       		.uleb128 0x27
 603 00a0 19       		.uleb128 0x19
 604 00a1 11       		.uleb128 0x11
 605 00a2 01       		.uleb128 0x1
 606 00a3 12       		.uleb128 0x12
 607 00a4 06       		.uleb128 0x6
 608 00a5 40       		.uleb128 0x40
 609 00a6 18       		.uleb128 0x18
 610 00a7 9742     		.uleb128 0x2117
 611 00a9 19       		.uleb128 0x19
 612 00aa 01       		.uleb128 0x1
 613 00ab 13       		.uleb128 0x13
 614 00ac 00       		.byte	0
 615 00ad 00       		.byte	0
 616 00ae 0D       		.uleb128 0xd
 617 00af 34       		.uleb128 0x34
 618 00b0 00       		.byte	0
 619 00b1 03       		.uleb128 0x3
 620 00b2 0E       		.uleb128 0xe
 621 00b3 3A       		.uleb128 0x3a
 622 00b4 0B       		.uleb128 0xb
 623 00b5 3B       		.uleb128 0x3b
 624 00b6 05       		.uleb128 0x5
 625 00b7 49       		.uleb128 0x49
ARM GAS  /tmp/cc4FXoch.s 			page 12


 626 00b8 13       		.uleb128 0x13
 627 00b9 3F       		.uleb128 0x3f
 628 00ba 19       		.uleb128 0x19
 629 00bb 3C       		.uleb128 0x3c
 630 00bc 19       		.uleb128 0x19
 631 00bd 00       		.byte	0
 632 00be 00       		.byte	0
 633 00bf 00       		.byte	0
 634              		.section	.debug_aranges,"",%progbits
 635 0000 24000000 		.4byte	0x24
 636 0004 0200     		.2byte	0x2
 637 0006 00000000 		.4byte	.Ldebug_info0
 638 000a 04       		.byte	0x4
 639 000b 00       		.byte	0
 640 000c 0000     		.2byte	0
 641 000e 0000     		.2byte	0
 642 0010 00000000 		.4byte	.LFB111
 643 0014 28010000 		.4byte	.LFE111-.LFB111
 644 0018 00000000 		.4byte	.LFB112
 645 001c 3A000000 		.4byte	.LFE112-.LFB112
 646 0020 00000000 		.4byte	0
 647 0024 00000000 		.4byte	0
 648              		.section	.debug_ranges,"",%progbits
 649              	.Ldebug_ranges0:
 650 0000 00000000 		.4byte	.LFB111
 651 0004 28010000 		.4byte	.LFE111
 652 0008 00000000 		.4byte	.LFB112
 653 000c 3A000000 		.4byte	.LFE112
 654 0010 00000000 		.4byte	0
 655 0014 00000000 		.4byte	0
 656              		.section	.debug_line,"",%progbits
 657              	.Ldebug_line0:
 658 0000 98010000 		.section	.debug_str,"MS",%progbits,1
 658      02004301 
 658      00000201 
 658      FB0E0D00 
 658      01010101 
 659              	.LASF4:
 660 0000 5F5F7569 		.ascii	"__uint8_t\000"
 660      6E74385F 
 660      7400
 661              	.LASF7:
 662 000a 5F5F696E 		.ascii	"__int32_t\000"
 662      7433325F 
 662      7400
 663              	.LASF12:
 664 0014 75696E74 		.ascii	"uint8_t\000"
 664      385F7400 
 665              	.LASF22:
 666 001c 474E5520 		.ascii	"GNU C 4.9.3 20150303 (release) [ARM/embedded-4_9-br"
 666      4320342E 
 666      392E3320 
 666      32303135 
 666      30333033 
 667 004f 616E6368 		.ascii	"anch revision 221220] -mcpu=cortex-m4 -mfloat-abi=h"
 667      20726576 
 667      6973696F 
ARM GAS  /tmp/cc4FXoch.s 			page 13


 667      6E203232 
 667      31323230 
 668 0082 61726420 		.ascii	"ard -mfpu=fpv4-sp-d16 -mno-thumb-interwork -mthumb "
 668      2D6D6670 
 668      753D6670 
 668      76342D73 
 668      702D6431 
 669 00b5 2D676764 		.ascii	"-ggdb -fomit-frame-pointer -falign-functions=16 -ff"
 669      62202D66 
 669      6F6D6974 
 669      2D667261 
 669      6D652D70 
 670 00e8 756E6374 		.ascii	"unction-sections -fdata-sections -fno-common -fsing"
 670      696F6E2D 
 670      73656374 
 670      696F6E73 
 670      202D6664 
 671 011b 6C652D70 		.ascii	"le-precision-constant\000"
 671      72656369 
 671      73696F6E 
 671      2D636F6E 
 671      7374616E 
 672              	.LASF25:
 673 0131 6D665F72 		.ascii	"mf_rewind\000"
 673      6577696E 
 673      6400
 674              	.LASF18:
 675 013b 6D665F63 		.ascii	"mf_char\000"
 675      68617200 
 676              	.LASF9:
 677 0143 6C6F6E67 		.ascii	"long unsigned int\000"
 677      20756E73 
 677      69676E65 
 677      6420696E 
 677      7400
 678              	.LASF24:
 679 0155 6D665F67 		.ascii	"mf_getchar\000"
 679      65746368 
 679      617200
 680              	.LASF6:
 681 0160 73686F72 		.ascii	"short unsigned int\000"
 681      7420756E 
 681      7369676E 
 681      65642069 
 681      6E7400
 682              	.LASF26:
 683 0173 49544D5F 		.ascii	"ITM_RxBuffer\000"
 683      52784275 
 683      66666572 
 683      00
 684              	.LASF2:
 685 0180 756E7369 		.ascii	"unsigned char\000"
 685      676E6564 
 685      20636861 
 685      7200
 686              	.LASF5:
 687 018e 5F5F7569 		.ascii	"__uint16_t\000"
ARM GAS  /tmp/cc4FXoch.s 			page 14


 687      6E743136 
 687      5F7400
 688              	.LASF0:
 689 0199 756E7369 		.ascii	"unsigned int\000"
 689      676E6564 
 689      20696E74 
 689      00
 690              	.LASF17:
 691 01a6 63686172 		.ascii	"char\000"
 691      00
 692              	.LASF19:
 693 01ab 6D665F73 		.ascii	"mf_str\000"
 693      747200
 694              	.LASF21:
 695 01b2 72657375 		.ascii	"result\000"
 695      6C7400
 696              	.LASF23:
 697 01b9 2F686F6D 		.ascii	"/home/makkmarci/workspace/ugfx/src/gdisp/mcufont/mf"
 697      652F6D61 
 697      6B6B6D61 
 697      7263692F 
 697      776F726B 
 698 01ec 5F656E63 		.ascii	"_encoding.c\000"
 698      6F64696E 
 698      672E6300 
 699              	.LASF14:
 700 01f8 696E7433 		.ascii	"int32_t\000"
 700      325F7400 
 701              	.LASF16:
 702 0200 73697A65 		.ascii	"sizetype\000"
 702      74797065 
 702      00
 703              	.LASF10:
 704 0209 6C6F6E67 		.ascii	"long long int\000"
 704      206C6F6E 
 704      6720696E 
 704      7400
 705              	.LASF20:
 706 0217 7365716C 		.ascii	"seqlen\000"
 706      656E00
 707              	.LASF3:
 708 021e 73686F72 		.ascii	"short int\000"
 708      7420696E 
 708      7400
 709              	.LASF13:
 710 0228 75696E74 		.ascii	"uint16_t\000"
 710      31365F74 
 710      00
 711              	.LASF8:
 712 0231 6C6F6E67 		.ascii	"long int\000"
 712      20696E74 
 712      00
 713              	.LASF1:
 714 023a 7369676E 		.ascii	"signed char\000"
 714      65642063 
 714      68617200 
 715              	.LASF15:
ARM GAS  /tmp/cc4FXoch.s 			page 15


 716 0246 5F426F6F 		.ascii	"_Bool\000"
 716      6C00
 717              	.LASF11:
 718 024c 6C6F6E67 		.ascii	"long long unsigned int\000"
 718      206C6F6E 
 718      6720756E 
 718      7369676E 
 718      65642069 
 719              		.ident	"GCC: (GNU Tools for ARM Embedded Processors) 4.9.3 20150303 (release) [ARM/embedded-4_9-br
ARM GAS  /tmp/cc4FXoch.s 			page 16


DEFINED SYMBOLS
                            *ABS*:00000000 mf_encoding.c
     /tmp/cc4FXoch.s:21     .text.mf_getchar:00000000 $t
     /tmp/cc4FXoch.s:27     .text.mf_getchar:00000000 mf_getchar
     /tmp/cc4FXoch.s:190    .text.mf_rewind:00000000 $t
     /tmp/cc4FXoch.s:196    .text.mf_rewind:00000000 mf_rewind
                     .debug_frame:00000010 $d

NO UNDEFINED SYMBOLS
