ARM GAS  /tmp/ccQiodt2.s 			page 1


   1              		.syntax unified
   2              		.cpu cortex-m4
   3              		.eabi_attribute 27, 3
   4              		.eabi_attribute 28, 1
   5              		.fpu fpv4-sp-d16
   6              		.eabi_attribute 20, 1
   7              		.eabi_attribute 21, 1
   8              		.eabi_attribute 23, 3
   9              		.eabi_attribute 24, 1
  10              		.eabi_attribute 25, 1
  11              		.eabi_attribute 26, 1
  12              		.eabi_attribute 30, 2
  13              		.eabi_attribute 34, 1
  14              		.eabi_attribute 18, 4
  15              		.thumb
  16              		.file	"mf_encoding.c"
  17              		.text
  18              	.Ltext0:
  19              		.cfi_sections	.debug_frame
  20              		.section	.text.mf_getchar,"ax",%progbits
  21              		.align	2
  22              		.p2align 4,,15
  23              		.global	mf_getchar
  24              		.thumb
  25              		.thumb_func
  26              		.type	mf_getchar, %function
  27              	mf_getchar:
  28              	.LFB111:
  29              		.file 1 "/home/makkmarci/devel/ugfx/src/gdisp/mcufont/mf_encoding.c"
  30              		.loc 1 15 0
  31              		.cfi_startproc
  32              		@ args = 0, pretend = 0, frame = 0
  33              		@ frame_needed = 0, uses_anonymous_args = 0
  34              		@ link register save eliminated.
  35              	.LVL0:
  36 0000 F0B4     		push	{r4, r5, r6, r7}
  37              		.cfi_def_cfa_offset 16
  38              		.cfi_offset 4, -16
  39              		.cfi_offset 5, -12
  40              		.cfi_offset 6, -8
  41              		.cfi_offset 7, -4
  42              		.loc 1 20 0
  43 0002 0168     		ldr	r1, [r0]
  44 0004 0B78     		ldrb	r3, [r1]	@ zero_extendqisi2
  45              	.LVL1:
  46              		.loc 1 15 0
  47 0006 0246     		mov	r2, r0
  48              		.loc 1 21 0
  49 0008 1BB1     		cbz	r3, .L11
  50              		.loc 1 24 0
  51 000a 4C1C     		adds	r4, r1, #1
  52 000c 0460     		str	r4, [r0]
  53              	.LVL2:
  54              		.loc 1 26 0
  55 000e 1806     		lsls	r0, r3, #24
  56              	.LVL3:
  57 0010 02D4     		bmi	.L3
ARM GAS  /tmp/ccQiodt2.s 			page 2


  58              	.L11:
  59              		.loc 1 22 0
  60 0012 1846     		mov	r0, r3
  61              		.loc 1 68 0
  62 0014 F0BC     		pop	{r4, r5, r6, r7}
  63 0016 7047     		bx	lr
  64              	.L3:
  65              		.loc 1 31 0
  66 0018 03F0C000 		and	r0, r3, #192
  67 001c 8028     		cmp	r0, #128
  68 001e F8D0     		beq	.L11
  69              		.loc 1 38 0
  70 0020 4F78     		ldrb	r7, [r1, #1]	@ zero_extendqisi2
  71 0022 07F0C001 		and	r1, r7, #192
  72 0026 C029     		cmp	r1, #192
  73 0028 F3D0     		beq	.L11
  74              	.LVL4:
  75              		.loc 1 53 0 discriminator 1
  76 002a 03F02001 		and	r1, r3, #32
  77 002e 01F0FF00 		and	r0, r1, #255
  78 0032 79B3     		cbz	r1, .L13
  79              		.loc 1 53 0 is_stmt 0
  80 0034 0026     		movs	r6, #0
  81 0036 0220     		movs	r0, #2
  82 0038 2025     		movs	r5, #32
  83              	.LVL5:
  84              	.L10:
  85              		.loc 1 58 0 is_stmt 1
  86 003a 07F03F07 		and	r7, r7, #63
  87              		.loc 1 56 0
  88 003e 6D08     		lsrs	r5, r5, #1
  89              	.LVL6:
  90              		.loc 1 58 0
  91 0040 47EA8616 		orr	r6, r7, r6, lsl #6
  92              	.LVL7:
  93              		.loc 1 55 0
  94 0044 0130     		adds	r0, r0, #1
  95              	.LVL8:
  96              		.loc 1 59 0
  97 0046 611C     		adds	r1, r4, #1
  98              		.loc 1 53 0
  99 0048 2B42     		tst	r3, r5
 100              		.loc 1 58 0
 101 004a B6B2     		uxth	r6, r6
 102              		.loc 1 55 0
 103 004c C0B2     		uxtb	r0, r0
 104              	.LVL9:
 105              		.loc 1 59 0
 106 004e 1160     		str	r1, [r2]
 107              		.loc 1 53 0
 108 0050 16D0     		beq	.L14
 109              		.loc 1 53 0 is_stmt 0 discriminator 2
 110 0052 0528     		cmp	r0, #5
 111 0054 02D0     		beq	.L9
 112 0056 0F78     		ldrb	r7, [r1]	@ zero_extendqisi2
 113              		.loc 1 59 0 is_stmt 1
 114 0058 0C46     		mov	r4, r1
ARM GAS  /tmp/ccQiodt2.s 			page 3


 115 005a EEE7     		b	.L10
 116              	.L9:
 117 005c B001     		lsls	r0, r6, #6
 118              	.LVL10:
 119 005e 6778     		ldrb	r7, [r4, #1]	@ zero_extendqisi2
 120 0060 80B2     		uxth	r0, r0
 121 0062 013D     		subs	r5, r5, #1
 122              	.LVL11:
 123              		.loc 1 53 0
 124 0064 4FF0180C 		mov	ip, #24
 125              	.LVL12:
 126              	.L7:
 127              		.loc 1 62 0
 128 0068 07F03F07 		and	r7, r7, #63
 129              	.LVL13:
 130              		.loc 1 65 0
 131 006c 2B40     		ands	r3, r3, r5
 132              	.LVL14:
 133              		.loc 1 62 0
 134 006e 3843     		orrs	r0, r0, r7
 135              		.loc 1 65 0
 136 0070 03FA0CF3 		lsl	r3, r3, ip
 137 0074 1843     		orrs	r0, r0, r3
 138              		.loc 1 63 0
 139 0076 0131     		adds	r1, r1, #1
 140              		.loc 1 65 0
 141 0078 80B2     		uxth	r0, r0
 142              		.loc 1 63 0
 143 007a 1160     		str	r1, [r2]
 144              		.loc 1 68 0
 145 007c F0BC     		pop	{r4, r5, r6, r7}
 146 007e 7047     		bx	lr
 147              	.LVL15:
 148              	.L14:
 149 0080 0138     		subs	r0, r0, #1
 150              	.LVL16:
 151 0082 00EB4000 		add	r0, r0, r0, lsl #1
 152              	.LVL17:
 153 0086 B601     		lsls	r6, r6, #6
 154              	.LVL18:
 155 0088 4FEA400C 		lsl	ip, r0, #1
 156 008c 6778     		ldrb	r7, [r4, #1]	@ zero_extendqisi2
 157 008e B0B2     		uxth	r0, r6
 158 0090 013D     		subs	r5, r5, #1
 159              	.LVL19:
 160 0092 E9E7     		b	.L7
 161              	.LVL20:
 162              	.L13:
 163              		.loc 1 53 0
 164 0094 2146     		mov	r1, r4
 165 0096 4FF0060C 		mov	ip, #6
 166 009a 1F25     		movs	r5, #31
 167 009c E4E7     		b	.L7
 168              		.cfi_endproc
 169              	.LFE111:
 170              		.size	mf_getchar, .-mf_getchar
 171 009e 00BF     		.section	.text.mf_rewind,"ax",%progbits
ARM GAS  /tmp/ccQiodt2.s 			page 4


 172              		.align	2
 173              		.p2align 4,,15
 174              		.global	mf_rewind
 175              		.thumb
 176              		.thumb_func
 177              		.type	mf_rewind, %function
 178              	mf_rewind:
 179              	.LFB112:
 180              		.loc 1 71 0
 181              		.cfi_startproc
 182              		@ args = 0, pretend = 0, frame = 0
 183              		@ frame_needed = 0, uses_anonymous_args = 0
 184              		@ link register save eliminated.
 185              	.LVL21:
 186              		.loc 1 72 0
 187 0000 0368     		ldr	r3, [r0]
 188 0002 5A1E     		subs	r2, r3, #1
 189 0004 0260     		str	r2, [r0]
 190              		.loc 1 74 0
 191 0006 13F8012C 		ldrb	r2, [r3, #-1]	@ zero_extendqisi2
 192 000a 1106     		lsls	r1, r2, #24
 193 000c 0ED5     		bpl	.L15
 194 000e 02F0C002 		and	r2, r2, #192
 195 0012 C02A     		cmp	r2, #192
 196 0014 0AD0     		beq	.L15
 197 0016 023B     		subs	r3, r3, #2
 198 0018 01E0     		b	.L18
 199              	.L25:
 200              		.loc 1 74 0 is_stmt 0 discriminator 2
 201 001a C029     		cmp	r1, #192
 202 001c 06D0     		beq	.L15
 203              	.L18:
 204              		.loc 1 75 0 is_stmt 1
 205 001e 0360     		str	r3, [r0]
 206              		.loc 1 74 0
 207 0020 13F80129 		ldrb	r2, [r3], #-1	@ zero_extendqisi2
 208 0024 02F0C001 		and	r1, r2, #192
 209 0028 1206     		lsls	r2, r2, #24
 210 002a F6D4     		bmi	.L25
 211              	.L15:
 212 002c 7047     		bx	lr
 213              		.cfi_endproc
 214              	.LFE112:
 215              		.size	mf_rewind, .-mf_rewind
 216 002e 00BF     		.text
 217              	.Letext0:
 218              		.file 2 "/opt/ARM/arm-none-eabi/include/machine/_default_types.h"
 219              		.file 3 "/opt/ARM/arm-none-eabi/include/stdint.h"
 220              		.file 4 "/home/makkmarci/devel/ugfx/src/gdisp/mcufont/mf_encoding.h"
 221              		.file 5 "../../os/ports/common/ARMCMx/CMSIS/include/core_cm4.h"
 222              		.section	.debug_info,"",%progbits
 223              	.Ldebug_info0:
 224 0000 7D010000 		.4byte	0x17d
 225 0004 0400     		.2byte	0x4
 226 0006 00000000 		.4byte	.Ldebug_abbrev0
 227 000a 04       		.byte	0x4
 228 000b 01       		.uleb128 0x1
ARM GAS  /tmp/ccQiodt2.s 			page 5


 229 000c 7D010000 		.4byte	.LASF22
 230 0010 01       		.byte	0x1
 231 0011 27010000 		.4byte	.LASF23
 232 0015 84000000 		.4byte	.LASF24
 233 0019 00000000 		.4byte	.Ldebug_ranges0+0
 234 001d 00000000 		.4byte	0
 235 0021 00000000 		.4byte	.Ldebug_line0
 236 0025 02       		.uleb128 0x2
 237 0026 04       		.byte	0x4
 238 0027 05       		.byte	0x5
 239 0028 696E7400 		.ascii	"int\000"
 240 002c 03       		.uleb128 0x3
 241 002d 04       		.byte	0x4
 242 002e 07       		.byte	0x7
 243 002f CE000000 		.4byte	.LASF0
 244 0033 03       		.uleb128 0x3
 245 0034 01       		.byte	0x1
 246 0035 06       		.byte	0x6
 247 0036 6B010000 		.4byte	.LASF1
 248 003a 04       		.uleb128 0x4
 249 003b 00000000 		.4byte	.LASF4
 250 003f 02       		.byte	0x2
 251 0040 1C       		.byte	0x1c
 252 0041 45000000 		.4byte	0x45
 253 0045 03       		.uleb128 0x3
 254 0046 01       		.byte	0x1
 255 0047 08       		.byte	0x8
 256 0048 6B000000 		.4byte	.LASF2
 257 004c 03       		.uleb128 0x3
 258 004d 02       		.byte	0x2
 259 004e 05       		.byte	0x5
 260 004f 14010000 		.4byte	.LASF3
 261 0053 04       		.uleb128 0x4
 262 0054 79000000 		.4byte	.LASF5
 263 0058 02       		.byte	0x2
 264 0059 26       		.byte	0x26
 265 005a 5E000000 		.4byte	0x5e
 266 005e 03       		.uleb128 0x3
 267 005f 02       		.byte	0x2
 268 0060 07       		.byte	0x7
 269 0061 4B000000 		.4byte	.LASF6
 270 0065 04       		.uleb128 0x4
 271 0066 0A000000 		.4byte	.LASF7
 272 006a 02       		.byte	0x2
 273 006b 37       		.byte	0x37
 274 006c 70000000 		.4byte	0x70
 275 0070 03       		.uleb128 0x3
 276 0071 04       		.byte	0x4
 277 0072 05       		.byte	0x5
 278 0073 62010000 		.4byte	.LASF8
 279 0077 03       		.uleb128 0x3
 280 0078 04       		.byte	0x4
 281 0079 07       		.byte	0x7
 282 007a 2E000000 		.4byte	.LASF9
 283 007e 03       		.uleb128 0x3
 284 007f 08       		.byte	0x8
 285 0080 05       		.byte	0x5
ARM GAS  /tmp/ccQiodt2.s 			page 6


 286 0081 FF000000 		.4byte	.LASF10
 287 0085 03       		.uleb128 0x3
 288 0086 08       		.byte	0x8
 289 0087 07       		.byte	0x7
 290 0088 96020000 		.4byte	.LASF11
 291 008c 04       		.uleb128 0x4
 292 008d 14000000 		.4byte	.LASF12
 293 0091 03       		.byte	0x3
 294 0092 2A       		.byte	0x2a
 295 0093 3A000000 		.4byte	0x3a
 296 0097 04       		.uleb128 0x4
 297 0098 1E010000 		.4byte	.LASF13
 298 009c 03       		.byte	0x3
 299 009d 36       		.byte	0x36
 300 009e 53000000 		.4byte	0x53
 301 00a2 04       		.uleb128 0x4
 302 00a3 EE000000 		.4byte	.LASF14
 303 00a7 03       		.byte	0x3
 304 00a8 41       		.byte	0x41
 305 00a9 65000000 		.4byte	0x65
 306 00ad 03       		.uleb128 0x3
 307 00ae 01       		.byte	0x1
 308 00af 02       		.byte	0x2
 309 00b0 77010000 		.4byte	.LASF15
 310 00b4 03       		.uleb128 0x3
 311 00b5 04       		.byte	0x4
 312 00b6 07       		.byte	0x7
 313 00b7 F6000000 		.4byte	.LASF16
 314 00bb 05       		.uleb128 0x5
 315 00bc 04       		.byte	0x4
 316 00bd C1000000 		.4byte	0xc1
 317 00c1 06       		.uleb128 0x6
 318 00c2 C6000000 		.4byte	0xc6
 319 00c6 03       		.uleb128 0x3
 320 00c7 01       		.byte	0x1
 321 00c8 08       		.byte	0x8
 322 00c9 DB000000 		.4byte	.LASF17
 323 00cd 07       		.uleb128 0x7
 324 00ce A2000000 		.4byte	0xa2
 325 00d2 04       		.uleb128 0x4
 326 00d3 26000000 		.4byte	.LASF18
 327 00d7 04       		.byte	0x4
 328 00d8 18       		.byte	0x18
 329 00d9 97000000 		.4byte	0x97
 330 00dd 04       		.uleb128 0x4
 331 00de E0000000 		.4byte	.LASF19
 332 00e2 04       		.byte	0x4
 333 00e3 1F       		.byte	0x1f
 334 00e4 BB000000 		.4byte	0xbb
 335 00e8 08       		.uleb128 0x8
 336 00e9 40000000 		.4byte	.LASF25
 337 00ed 01       		.byte	0x1
 338 00ee 0E       		.byte	0xe
 339 00ef D2000000 		.4byte	0xd2
 340 00f3 00000000 		.4byte	.LFB111
 341 00f7 9E000000 		.4byte	.LFE111-.LFB111
 342 00fb 01       		.uleb128 0x1
ARM GAS  /tmp/ccQiodt2.s 			page 7


 343 00fc 9C       		.byte	0x9c
 344 00fd 4B010000 		.4byte	0x14b
 345 0101 09       		.uleb128 0x9
 346 0102 73747200 		.ascii	"str\000"
 347 0106 01       		.byte	0x1
 348 0107 0E       		.byte	0xe
 349 0108 4B010000 		.4byte	0x14b
 350 010c 00000000 		.4byte	.LLST0
 351 0110 0A       		.uleb128 0xa
 352 0111 6300     		.ascii	"c\000"
 353 0113 01       		.byte	0x1
 354 0114 10       		.byte	0x10
 355 0115 8C000000 		.4byte	0x8c
 356 0119 1E000000 		.4byte	.LLST1
 357 011d 0A       		.uleb128 0xa
 358 011e 746D7000 		.ascii	"tmp\000"
 359 0122 01       		.byte	0x1
 360 0123 11       		.byte	0x11
 361 0124 8C000000 		.4byte	0x8c
 362 0128 48000000 		.4byte	.LLST2
 363 012c 0B       		.uleb128 0xb
 364 012d 0D010000 		.4byte	.LASF20
 365 0131 01       		.byte	0x1
 366 0132 11       		.byte	0x11
 367 0133 8C000000 		.4byte	0x8c
 368 0137 A5000000 		.4byte	.LLST3
 369 013b 0B       		.uleb128 0xb
 370 013c E7000000 		.4byte	.LASF21
 371 0140 01       		.byte	0x1
 372 0141 12       		.byte	0x12
 373 0142 97000000 		.4byte	0x97
 374 0146 00010000 		.4byte	.LLST4
 375 014a 00       		.byte	0
 376 014b 05       		.uleb128 0x5
 377 014c 04       		.byte	0x4
 378 014d DD000000 		.4byte	0xdd
 379 0151 0C       		.uleb128 0xc
 380 0152 1C000000 		.4byte	.LASF26
 381 0156 01       		.byte	0x1
 382 0157 46       		.byte	0x46
 383 0158 00000000 		.4byte	.LFB112
 384 015c 2E000000 		.4byte	.LFE112-.LFB112
 385 0160 01       		.uleb128 0x1
 386 0161 9C       		.byte	0x9c
 387 0162 74010000 		.4byte	0x174
 388 0166 0D       		.uleb128 0xd
 389 0167 73747200 		.ascii	"str\000"
 390 016b 01       		.byte	0x1
 391 016c 46       		.byte	0x46
 392 016d 4B010000 		.4byte	0x14b
 393 0171 01       		.uleb128 0x1
 394 0172 50       		.byte	0x50
 395 0173 00       		.byte	0
 396 0174 0E       		.uleb128 0xe
 397 0175 5E000000 		.4byte	.LASF27
 398 0179 05       		.byte	0x5
 399 017a 9806     		.2byte	0x698
ARM GAS  /tmp/ccQiodt2.s 			page 8


 400 017c CD000000 		.4byte	0xcd
 401 0180 00       		.byte	0
 402              		.section	.debug_abbrev,"",%progbits
 403              	.Ldebug_abbrev0:
 404 0000 01       		.uleb128 0x1
 405 0001 11       		.uleb128 0x11
 406 0002 01       		.byte	0x1
 407 0003 25       		.uleb128 0x25
 408 0004 0E       		.uleb128 0xe
 409 0005 13       		.uleb128 0x13
 410 0006 0B       		.uleb128 0xb
 411 0007 03       		.uleb128 0x3
 412 0008 0E       		.uleb128 0xe
 413 0009 1B       		.uleb128 0x1b
 414 000a 0E       		.uleb128 0xe
 415 000b 55       		.uleb128 0x55
 416 000c 17       		.uleb128 0x17
 417 000d 11       		.uleb128 0x11
 418 000e 01       		.uleb128 0x1
 419 000f 10       		.uleb128 0x10
 420 0010 17       		.uleb128 0x17
 421 0011 00       		.byte	0
 422 0012 00       		.byte	0
 423 0013 02       		.uleb128 0x2
 424 0014 24       		.uleb128 0x24
 425 0015 00       		.byte	0
 426 0016 0B       		.uleb128 0xb
 427 0017 0B       		.uleb128 0xb
 428 0018 3E       		.uleb128 0x3e
 429 0019 0B       		.uleb128 0xb
 430 001a 03       		.uleb128 0x3
 431 001b 08       		.uleb128 0x8
 432 001c 00       		.byte	0
 433 001d 00       		.byte	0
 434 001e 03       		.uleb128 0x3
 435 001f 24       		.uleb128 0x24
 436 0020 00       		.byte	0
 437 0021 0B       		.uleb128 0xb
 438 0022 0B       		.uleb128 0xb
 439 0023 3E       		.uleb128 0x3e
 440 0024 0B       		.uleb128 0xb
 441 0025 03       		.uleb128 0x3
 442 0026 0E       		.uleb128 0xe
 443 0027 00       		.byte	0
 444 0028 00       		.byte	0
 445 0029 04       		.uleb128 0x4
 446 002a 16       		.uleb128 0x16
 447 002b 00       		.byte	0
 448 002c 03       		.uleb128 0x3
 449 002d 0E       		.uleb128 0xe
 450 002e 3A       		.uleb128 0x3a
 451 002f 0B       		.uleb128 0xb
 452 0030 3B       		.uleb128 0x3b
 453 0031 0B       		.uleb128 0xb
 454 0032 49       		.uleb128 0x49
 455 0033 13       		.uleb128 0x13
 456 0034 00       		.byte	0
ARM GAS  /tmp/ccQiodt2.s 			page 9


 457 0035 00       		.byte	0
 458 0036 05       		.uleb128 0x5
 459 0037 0F       		.uleb128 0xf
 460 0038 00       		.byte	0
 461 0039 0B       		.uleb128 0xb
 462 003a 0B       		.uleb128 0xb
 463 003b 49       		.uleb128 0x49
 464 003c 13       		.uleb128 0x13
 465 003d 00       		.byte	0
 466 003e 00       		.byte	0
 467 003f 06       		.uleb128 0x6
 468 0040 26       		.uleb128 0x26
 469 0041 00       		.byte	0
 470 0042 49       		.uleb128 0x49
 471 0043 13       		.uleb128 0x13
 472 0044 00       		.byte	0
 473 0045 00       		.byte	0
 474 0046 07       		.uleb128 0x7
 475 0047 35       		.uleb128 0x35
 476 0048 00       		.byte	0
 477 0049 49       		.uleb128 0x49
 478 004a 13       		.uleb128 0x13
 479 004b 00       		.byte	0
 480 004c 00       		.byte	0
 481 004d 08       		.uleb128 0x8
 482 004e 2E       		.uleb128 0x2e
 483 004f 01       		.byte	0x1
 484 0050 3F       		.uleb128 0x3f
 485 0051 19       		.uleb128 0x19
 486 0052 03       		.uleb128 0x3
 487 0053 0E       		.uleb128 0xe
 488 0054 3A       		.uleb128 0x3a
 489 0055 0B       		.uleb128 0xb
 490 0056 3B       		.uleb128 0x3b
 491 0057 0B       		.uleb128 0xb
 492 0058 27       		.uleb128 0x27
 493 0059 19       		.uleb128 0x19
 494 005a 49       		.uleb128 0x49
 495 005b 13       		.uleb128 0x13
 496 005c 11       		.uleb128 0x11
 497 005d 01       		.uleb128 0x1
 498 005e 12       		.uleb128 0x12
 499 005f 06       		.uleb128 0x6
 500 0060 40       		.uleb128 0x40
 501 0061 18       		.uleb128 0x18
 502 0062 9742     		.uleb128 0x2117
 503 0064 19       		.uleb128 0x19
 504 0065 01       		.uleb128 0x1
 505 0066 13       		.uleb128 0x13
 506 0067 00       		.byte	0
 507 0068 00       		.byte	0
 508 0069 09       		.uleb128 0x9
 509 006a 05       		.uleb128 0x5
 510 006b 00       		.byte	0
 511 006c 03       		.uleb128 0x3
 512 006d 08       		.uleb128 0x8
 513 006e 3A       		.uleb128 0x3a
ARM GAS  /tmp/ccQiodt2.s 			page 10


 514 006f 0B       		.uleb128 0xb
 515 0070 3B       		.uleb128 0x3b
 516 0071 0B       		.uleb128 0xb
 517 0072 49       		.uleb128 0x49
 518 0073 13       		.uleb128 0x13
 519 0074 02       		.uleb128 0x2
 520 0075 17       		.uleb128 0x17
 521 0076 00       		.byte	0
 522 0077 00       		.byte	0
 523 0078 0A       		.uleb128 0xa
 524 0079 34       		.uleb128 0x34
 525 007a 00       		.byte	0
 526 007b 03       		.uleb128 0x3
 527 007c 08       		.uleb128 0x8
 528 007d 3A       		.uleb128 0x3a
 529 007e 0B       		.uleb128 0xb
 530 007f 3B       		.uleb128 0x3b
 531 0080 0B       		.uleb128 0xb
 532 0081 49       		.uleb128 0x49
 533 0082 13       		.uleb128 0x13
 534 0083 02       		.uleb128 0x2
 535 0084 17       		.uleb128 0x17
 536 0085 00       		.byte	0
 537 0086 00       		.byte	0
 538 0087 0B       		.uleb128 0xb
 539 0088 34       		.uleb128 0x34
 540 0089 00       		.byte	0
 541 008a 03       		.uleb128 0x3
 542 008b 0E       		.uleb128 0xe
 543 008c 3A       		.uleb128 0x3a
 544 008d 0B       		.uleb128 0xb
 545 008e 3B       		.uleb128 0x3b
 546 008f 0B       		.uleb128 0xb
 547 0090 49       		.uleb128 0x49
 548 0091 13       		.uleb128 0x13
 549 0092 02       		.uleb128 0x2
 550 0093 17       		.uleb128 0x17
 551 0094 00       		.byte	0
 552 0095 00       		.byte	0
 553 0096 0C       		.uleb128 0xc
 554 0097 2E       		.uleb128 0x2e
 555 0098 01       		.byte	0x1
 556 0099 3F       		.uleb128 0x3f
 557 009a 19       		.uleb128 0x19
 558 009b 03       		.uleb128 0x3
 559 009c 0E       		.uleb128 0xe
 560 009d 3A       		.uleb128 0x3a
 561 009e 0B       		.uleb128 0xb
 562 009f 3B       		.uleb128 0x3b
 563 00a0 0B       		.uleb128 0xb
 564 00a1 27       		.uleb128 0x27
 565 00a2 19       		.uleb128 0x19
 566 00a3 11       		.uleb128 0x11
 567 00a4 01       		.uleb128 0x1
 568 00a5 12       		.uleb128 0x12
 569 00a6 06       		.uleb128 0x6
 570 00a7 40       		.uleb128 0x40
ARM GAS  /tmp/ccQiodt2.s 			page 11


 571 00a8 18       		.uleb128 0x18
 572 00a9 9742     		.uleb128 0x2117
 573 00ab 19       		.uleb128 0x19
 574 00ac 01       		.uleb128 0x1
 575 00ad 13       		.uleb128 0x13
 576 00ae 00       		.byte	0
 577 00af 00       		.byte	0
 578 00b0 0D       		.uleb128 0xd
 579 00b1 05       		.uleb128 0x5
 580 00b2 00       		.byte	0
 581 00b3 03       		.uleb128 0x3
 582 00b4 08       		.uleb128 0x8
 583 00b5 3A       		.uleb128 0x3a
 584 00b6 0B       		.uleb128 0xb
 585 00b7 3B       		.uleb128 0x3b
 586 00b8 0B       		.uleb128 0xb
 587 00b9 49       		.uleb128 0x49
 588 00ba 13       		.uleb128 0x13
 589 00bb 02       		.uleb128 0x2
 590 00bc 18       		.uleb128 0x18
 591 00bd 00       		.byte	0
 592 00be 00       		.byte	0
 593 00bf 0E       		.uleb128 0xe
 594 00c0 34       		.uleb128 0x34
 595 00c1 00       		.byte	0
 596 00c2 03       		.uleb128 0x3
 597 00c3 0E       		.uleb128 0xe
 598 00c4 3A       		.uleb128 0x3a
 599 00c5 0B       		.uleb128 0xb
 600 00c6 3B       		.uleb128 0x3b
 601 00c7 05       		.uleb128 0x5
 602 00c8 49       		.uleb128 0x49
 603 00c9 13       		.uleb128 0x13
 604 00ca 3F       		.uleb128 0x3f
 605 00cb 19       		.uleb128 0x19
 606 00cc 3C       		.uleb128 0x3c
 607 00cd 19       		.uleb128 0x19
 608 00ce 00       		.byte	0
 609 00cf 00       		.byte	0
 610 00d0 00       		.byte	0
 611              		.section	.debug_loc,"",%progbits
 612              	.Ldebug_loc0:
 613              	.LLST0:
 614 0000 00000000 		.4byte	.LVL0
 615 0004 10000000 		.4byte	.LVL3
 616 0008 0100     		.2byte	0x1
 617 000a 50       		.byte	0x50
 618 000b 10000000 		.4byte	.LVL3
 619 000f 9E000000 		.4byte	.LFE111
 620 0013 0100     		.2byte	0x1
 621 0015 52       		.byte	0x52
 622 0016 00000000 		.4byte	0
 623 001a 00000000 		.4byte	0
 624              	.LLST1:
 625 001e 06000000 		.4byte	.LVL1
 626 0022 0E000000 		.4byte	.LVL2
 627 0026 0200     		.2byte	0x2
ARM GAS  /tmp/ccQiodt2.s 			page 12


 628 0028 71       		.byte	0x71
 629 0029 00       		.sleb128 0
 630 002a 0E000000 		.4byte	.LVL2
 631 002e 6E000000 		.4byte	.LVL14
 632 0032 0100     		.2byte	0x1
 633 0034 53       		.byte	0x53
 634 0035 80000000 		.4byte	.LVL15
 635 0039 9E000000 		.4byte	.LFE111
 636 003d 0100     		.2byte	0x1
 637 003f 53       		.byte	0x53
 638 0040 00000000 		.4byte	0
 639 0044 00000000 		.4byte	0
 640              	.LLST2:
 641 0048 2A000000 		.4byte	.LVL4
 642 004c 3A000000 		.4byte	.LVL5
 643 0050 0300     		.2byte	0x3
 644 0052 08       		.byte	0x8
 645 0053 20       		.byte	0x20
 646 0054 9F       		.byte	0x9f
 647 0055 3A000000 		.4byte	.LVL5
 648 0059 40000000 		.4byte	.LVL6
 649 005d 0100     		.2byte	0x1
 650 005f 55       		.byte	0x55
 651 0060 4E000000 		.4byte	.LVL9
 652 0064 64000000 		.4byte	.LVL11
 653 0068 0100     		.2byte	0x1
 654 006a 55       		.byte	0x55
 655 006b 64000000 		.4byte	.LVL11
 656 006f 68000000 		.4byte	.LVL12
 657 0073 0300     		.2byte	0x3
 658 0075 75       		.byte	0x75
 659 0076 01       		.sleb128 1
 660 0077 9F       		.byte	0x9f
 661 0078 80000000 		.4byte	.LVL15
 662 007c 92000000 		.4byte	.LVL19
 663 0080 0100     		.2byte	0x1
 664 0082 55       		.byte	0x55
 665 0083 92000000 		.4byte	.LVL19
 666 0087 94000000 		.4byte	.LVL20
 667 008b 0300     		.2byte	0x3
 668 008d 75       		.byte	0x75
 669 008e 01       		.sleb128 1
 670 008f 9F       		.byte	0x9f
 671 0090 94000000 		.4byte	.LVL20
 672 0094 9E000000 		.4byte	.LFE111
 673 0098 0300     		.2byte	0x3
 674 009a 08       		.byte	0x8
 675 009b 20       		.byte	0x20
 676 009c 9F       		.byte	0x9f
 677 009d 00000000 		.4byte	0
 678 00a1 00000000 		.4byte	0
 679              	.LLST3:
 680 00a5 2A000000 		.4byte	.LVL4
 681 00a9 3A000000 		.4byte	.LVL5
 682 00ad 0200     		.2byte	0x2
 683 00af 32       		.byte	0x32
 684 00b0 9F       		.byte	0x9f
ARM GAS  /tmp/ccQiodt2.s 			page 13


 685 00b1 3A000000 		.4byte	.LVL5
 686 00b5 46000000 		.4byte	.LVL8
 687 00b9 0100     		.2byte	0x1
 688 00bb 50       		.byte	0x50
 689 00bc 46000000 		.4byte	.LVL8
 690 00c0 4E000000 		.4byte	.LVL9
 691 00c4 0300     		.2byte	0x3
 692 00c6 70       		.byte	0x70
 693 00c7 7F       		.sleb128 -1
 694 00c8 9F       		.byte	0x9f
 695 00c9 4E000000 		.4byte	.LVL9
 696 00cd 5E000000 		.4byte	.LVL10
 697 00d1 0100     		.2byte	0x1
 698 00d3 50       		.byte	0x50
 699 00d4 80000000 		.4byte	.LVL15
 700 00d8 82000000 		.4byte	.LVL16
 701 00dc 0100     		.2byte	0x1
 702 00de 50       		.byte	0x50
 703 00df 82000000 		.4byte	.LVL16
 704 00e3 86000000 		.4byte	.LVL17
 705 00e7 0300     		.2byte	0x3
 706 00e9 70       		.byte	0x70
 707 00ea 01       		.sleb128 1
 708 00eb 9F       		.byte	0x9f
 709 00ec 94000000 		.4byte	.LVL20
 710 00f0 9E000000 		.4byte	.LFE111
 711 00f4 0200     		.2byte	0x2
 712 00f6 32       		.byte	0x32
 713 00f7 9F       		.byte	0x9f
 714 00f8 00000000 		.4byte	0
 715 00fc 00000000 		.4byte	0
 716              	.LLST4:
 717 0100 2A000000 		.4byte	.LVL4
 718 0104 3A000000 		.4byte	.LVL5
 719 0108 0200     		.2byte	0x2
 720 010a 30       		.byte	0x30
 721 010b 9F       		.byte	0x9f
 722 010c 3A000000 		.4byte	.LVL5
 723 0110 44000000 		.4byte	.LVL7
 724 0114 0100     		.2byte	0x1
 725 0116 56       		.byte	0x56
 726 0117 4E000000 		.4byte	.LVL9
 727 011b 68000000 		.4byte	.LVL12
 728 011f 0100     		.2byte	0x1
 729 0121 56       		.byte	0x56
 730 0122 68000000 		.4byte	.LVL12
 731 0126 6C000000 		.4byte	.LVL13
 732 012a 0C00     		.2byte	0xc
 733 012c 77       		.byte	0x77
 734 012d 00       		.sleb128 0
 735 012e 08       		.byte	0x8
 736 012f 3F       		.byte	0x3f
 737 0130 1A       		.byte	0x1a
 738 0131 08       		.byte	0x8
 739 0132 FF       		.byte	0xff
 740 0133 1A       		.byte	0x1a
 741 0134 70       		.byte	0x70
ARM GAS  /tmp/ccQiodt2.s 			page 14


 742 0135 00       		.sleb128 0
 743 0136 21       		.byte	0x21
 744 0137 9F       		.byte	0x9f
 745 0138 80000000 		.4byte	.LVL15
 746 013c 88000000 		.4byte	.LVL18
 747 0140 0100     		.2byte	0x1
 748 0142 56       		.byte	0x56
 749 0143 94000000 		.4byte	.LVL20
 750 0147 9E000000 		.4byte	.LFE111
 751 014b 0200     		.2byte	0x2
 752 014d 30       		.byte	0x30
 753 014e 9F       		.byte	0x9f
 754 014f 00000000 		.4byte	0
 755 0153 00000000 		.4byte	0
 756              		.section	.debug_aranges,"",%progbits
 757 0000 24000000 		.4byte	0x24
 758 0004 0200     		.2byte	0x2
 759 0006 00000000 		.4byte	.Ldebug_info0
 760 000a 04       		.byte	0x4
 761 000b 00       		.byte	0
 762 000c 0000     		.2byte	0
 763 000e 0000     		.2byte	0
 764 0010 00000000 		.4byte	.LFB111
 765 0014 9E000000 		.4byte	.LFE111-.LFB111
 766 0018 00000000 		.4byte	.LFB112
 767 001c 2E000000 		.4byte	.LFE112-.LFB112
 768 0020 00000000 		.4byte	0
 769 0024 00000000 		.4byte	0
 770              		.section	.debug_ranges,"",%progbits
 771              	.Ldebug_ranges0:
 772 0000 00000000 		.4byte	.LFB111
 773 0004 9E000000 		.4byte	.LFE111
 774 0008 00000000 		.4byte	.LFB112
 775 000c 2E000000 		.4byte	.LFE112
 776 0010 00000000 		.4byte	0
 777 0014 00000000 		.4byte	0
 778              		.section	.debug_line,"",%progbits
 779              	.Ldebug_line0:
 780 0000 6E010000 		.section	.debug_str,"MS",%progbits,1
 780      02000101 
 780      00000201 
 780      FB0E0D00 
 780      01010101 
 781              	.LASF4:
 782 0000 5F5F7569 		.ascii	"__uint8_t\000"
 782      6E74385F 
 782      7400
 783              	.LASF7:
 784 000a 5F5F696E 		.ascii	"__int32_t\000"
 784      7433325F 
 784      7400
 785              	.LASF12:
 786 0014 75696E74 		.ascii	"uint8_t\000"
 786      385F7400 
 787              	.LASF26:
 788 001c 6D665F72 		.ascii	"mf_rewind\000"
 788      6577696E 
ARM GAS  /tmp/ccQiodt2.s 			page 15


 788      6400
 789              	.LASF18:
 790 0026 6D665F63 		.ascii	"mf_char\000"
 790      68617200 
 791              	.LASF9:
 792 002e 6C6F6E67 		.ascii	"long unsigned int\000"
 792      20756E73 
 792      69676E65 
 792      6420696E 
 792      7400
 793              	.LASF25:
 794 0040 6D665F67 		.ascii	"mf_getchar\000"
 794      65746368 
 794      617200
 795              	.LASF6:
 796 004b 73686F72 		.ascii	"short unsigned int\000"
 796      7420756E 
 796      7369676E 
 796      65642069 
 796      6E7400
 797              	.LASF27:
 798 005e 49544D5F 		.ascii	"ITM_RxBuffer\000"
 798      52784275 
 798      66666572 
 798      00
 799              	.LASF2:
 800 006b 756E7369 		.ascii	"unsigned char\000"
 800      676E6564 
 800      20636861 
 800      7200
 801              	.LASF5:
 802 0079 5F5F7569 		.ascii	"__uint16_t\000"
 802      6E743136 
 802      5F7400
 803              	.LASF24:
 804 0084 2F686F6D 		.ascii	"/home/makkmarci/devel/ChibiOS_2.6.5/projects/STM32F"
 804      652F6D61 
 804      6B6B6D61 
 804      7263692F 
 804      64657665 
 805 00b7 345F4368 		.ascii	"4_ChibiOS_uGFX_gwin_2/\000"
 805      6962694F 
 805      535F7547 
 805      46585F67 
 805      77696E5F 
 806              	.LASF0:
 807 00ce 756E7369 		.ascii	"unsigned int\000"
 807      676E6564 
 807      20696E74 
 807      00
 808              	.LASF17:
 809 00db 63686172 		.ascii	"char\000"
 809      00
 810              	.LASF19:
 811 00e0 6D665F73 		.ascii	"mf_str\000"
 811      747200
 812              	.LASF21:
ARM GAS  /tmp/ccQiodt2.s 			page 16


 813 00e7 72657375 		.ascii	"result\000"
 813      6C7400
 814              	.LASF14:
 815 00ee 696E7433 		.ascii	"int32_t\000"
 815      325F7400 
 816              	.LASF16:
 817 00f6 73697A65 		.ascii	"sizetype\000"
 817      74797065 
 817      00
 818              	.LASF10:
 819 00ff 6C6F6E67 		.ascii	"long long int\000"
 819      206C6F6E 
 819      6720696E 
 819      7400
 820              	.LASF20:
 821 010d 7365716C 		.ascii	"seqlen\000"
 821      656E00
 822              	.LASF3:
 823 0114 73686F72 		.ascii	"short int\000"
 823      7420696E 
 823      7400
 824              	.LASF13:
 825 011e 75696E74 		.ascii	"uint16_t\000"
 825      31365F74 
 825      00
 826              	.LASF23:
 827 0127 2F686F6D 		.ascii	"/home/makkmarci/devel/ugfx/src/gdisp/mcufont/mf_enc"
 827      652F6D61 
 827      6B6B6D61 
 827      7263692F 
 827      64657665 
 828 015a 6F64696E 		.ascii	"oding.c\000"
 828      672E6300 
 829              	.LASF8:
 830 0162 6C6F6E67 		.ascii	"long int\000"
 830      20696E74 
 830      00
 831              	.LASF1:
 832 016b 7369676E 		.ascii	"signed char\000"
 832      65642063 
 832      68617200 
 833              	.LASF15:
 834 0177 5F426F6F 		.ascii	"_Bool\000"
 834      6C00
 835              	.LASF22:
 836 017d 474E5520 		.ascii	"GNU C 4.8.4 20140526 (release) [ARM/embedded-4_8-br"
 836      4320342E 
 836      382E3420 
 836      32303134 
 836      30353236 
 837 01b0 616E6368 		.ascii	"anch revision 211358] -mcpu=cortex-m4 -mfloat-abi=h"
 837      20726576 
 837      6973696F 
 837      6E203231 
 837      31333538 
 838 01e3 61726420 		.ascii	"ard -mfpu=fpv4-sp-d16 -mno-thumb-interwork -mthumb "
 838      2D6D6670 
ARM GAS  /tmp/ccQiodt2.s 			page 17


 838      753D6670 
 838      76342D73 
 838      702D6431 
 839 0216 2D676764 		.ascii	"-ggdb -O2 -fomit-frame-pointer -falign-functions=16"
 839      62202D4F 
 839      32202D66 
 839      6F6D6974 
 839      2D667261 
 840 0249 202D6666 		.ascii	" -ffunction-sections -fdata-sections -fno-common -f"
 840      756E6374 
 840      696F6E2D 
 840      73656374 
 840      696F6E73 
 841 027c 73696E67 		.ascii	"single-precision-constant\000"
 841      6C652D70 
 841      72656369 
 841      73696F6E 
 841      2D636F6E 
 842              	.LASF11:
 843 0296 6C6F6E67 		.ascii	"long long unsigned int\000"
 843      206C6F6E 
 843      6720756E 
 843      7369676E 
 843      65642069 
 844              		.ident	"GCC: (GNU Tools for ARM Embedded Processors) 4.8.4 20140526 (release) [ARM/embedded-4_8-br
ARM GAS  /tmp/ccQiodt2.s 			page 18


DEFINED SYMBOLS
                            *ABS*:00000000 mf_encoding.c
     /tmp/ccQiodt2.s:21     .text.mf_getchar:00000000 $t
     /tmp/ccQiodt2.s:27     .text.mf_getchar:00000000 mf_getchar
     /tmp/ccQiodt2.s:172    .text.mf_rewind:00000000 $t
     /tmp/ccQiodt2.s:178    .text.mf_rewind:00000000 mf_rewind
                     .debug_frame:00000010 $d

NO UNDEFINED SYMBOLS
