ARM GAS  /tmp/cc4hxgpo.s 			page 1


   1              		.syntax unified
   2              		.cpu cortex-m4
   3              		.eabi_attribute 27, 1
   4              		.eabi_attribute 28, 1
   5              		.fpu fpv4-sp-d16
   6              		.eabi_attribute 20, 1
   7              		.eabi_attribute 21, 1
   8              		.eabi_attribute 23, 3
   9              		.eabi_attribute 24, 1
  10              		.eabi_attribute 25, 1
  11              		.eabi_attribute 26, 1
  12              		.eabi_attribute 30, 6
  13              		.eabi_attribute 34, 1
  14              		.eabi_attribute 18, 4
  15              		.thumb
  16              		.file	"mf_justify.c"
  17              		.text
  18              	.Ltext0:
  19              		.cfi_sections	.debug_frame
  20              		.section	.text.mf_round_to_tab,"ax",%progbits
  21              		.align	2
  22              		.p2align 4,,15
  23              		.thumb
  24              		.thumb_func
  25              		.type	mf_round_to_tab, %function
  26              	mf_round_to_tab:
  27              	.LFB111:
  28              		.file 1 "/home/makkmarci/workspace/ugfx/src/gdisp/mcufont/mf_justify.c"
  29              		.loc 1 17 0
  30              		.cfi_startproc
  31              		@ args = 0, pretend = 0, frame = 16
  32              		@ frame_needed = 0, uses_anonymous_args = 0
  33 0000 00B5     		push	{lr}
  34              		.cfi_def_cfa_offset 4
  35              		.cfi_offset 14, -4
  36 0002 85B0     		sub	sp, sp, #20
  37              		.cfi_def_cfa_offset 24
  38 0004 0190     		str	r0, [sp, #4]
  39 0006 0B46     		mov	r3, r1
  40 0008 ADF80230 		strh	r3, [sp, #2]	@ movhi
  41 000c 1346     		mov	r3, r2	@ movhi
  42 000e ADF80030 		strh	r3, [sp]	@ movhi
  43              		.loc 1 20 0
  44 0012 0198     		ldr	r0, [sp, #4]
  45 0014 6D21     		movs	r1, #109
  46 0016 FFF7FEFF 		bl	mf_character_width
  47 001a 0346     		mov	r3, r0
  48 001c 9BB2     		uxth	r3, r3
  49 001e DB00     		lsls	r3, r3, #3
  50 0020 9BB2     		uxth	r3, r3
  51 0022 ADF80E30 		strh	r3, [sp, #14]	@ movhi
  52              		.loc 1 23 0
  53 0026 0198     		ldr	r0, [sp, #4]
  54 0028 2021     		movs	r1, #32
  55 002a FFF7FEFF 		bl	mf_character_width
  56 002e 0346     		mov	r3, r0
  57 0030 9AB2     		uxth	r2, r3
ARM GAS  /tmp/cc4hxgpo.s 			page 2


  58 0032 BDF80030 		ldrh	r3, [sp]
  59 0036 1344     		add	r3, r3, r2
  60 0038 9BB2     		uxth	r3, r3
  61 003a ADF80030 		strh	r3, [sp]	@ movhi
  62              		.loc 1 26 0
  63 003e BDF80020 		ldrh	r2, [sp]
  64 0042 BDF80230 		ldrh	r3, [sp, #2]
  65 0046 D31A     		subs	r3, r2, r3
  66 0048 9AB2     		uxth	r2, r3
  67 004a 019B     		ldr	r3, [sp, #4]
  68 004c 1B7B     		ldrb	r3, [r3, #12]	@ zero_extendqisi2
  69 004e 9BB2     		uxth	r3, r3
  70 0050 1344     		add	r3, r3, r2
  71 0052 9BB2     		uxth	r3, r3
  72 0054 ADF80C30 		strh	r3, [sp, #12]	@ movhi
  73              		.loc 1 27 0
  74 0058 BDF80E10 		ldrh	r1, [sp, #14]
  75 005c BDF90C30 		ldrsh	r3, [sp, #12]
  76 0060 BDF90E20 		ldrsh	r2, [sp, #14]
  77 0064 93FBF2F0 		sdiv	r0, r3, r2
  78 0068 02FB00F2 		mul	r2, r2, r0
  79 006c 9B1A     		subs	r3, r3, r2
  80 006e 9BB2     		uxth	r3, r3
  81 0070 CB1A     		subs	r3, r1, r3
  82 0072 9AB2     		uxth	r2, r3
  83 0074 BDF80030 		ldrh	r3, [sp]
  84 0078 1344     		add	r3, r3, r2
  85 007a 9BB2     		uxth	r3, r3
  86 007c ADF80030 		strh	r3, [sp]	@ movhi
  87              		.loc 1 29 0
  88 0080 BDF80030 		ldrh	r3, [sp]
  89 0084 1BB2     		sxth	r3, r3
  90              		.loc 1 30 0
  91 0086 1846     		mov	r0, r3
  92 0088 05B0     		add	sp, sp, #20
  93              		.cfi_def_cfa_offset 4
  94              		@ sp needed
  95 008a 5DF804FB 		ldr	pc, [sp], #4
  96              		.cfi_endproc
  97              	.LFE111:
  98              		.size	mf_round_to_tab, .-mf_round_to_tab
  99 008e 00BF     		.section	.text.mf_round_to_prev_tab,"ax",%progbits
 100              		.align	2
 101              		.p2align 4,,15
 102              		.thumb
 103              		.thumb_func
 104              		.type	mf_round_to_prev_tab, %function
 105              	mf_round_to_prev_tab:
 106              	.LFB112:
 107              		.loc 1 35 0
 108              		.cfi_startproc
 109              		@ args = 0, pretend = 0, frame = 16
 110              		@ frame_needed = 0, uses_anonymous_args = 0
 111 0000 00B5     		push	{lr}
 112              		.cfi_def_cfa_offset 4
 113              		.cfi_offset 14, -4
 114 0002 85B0     		sub	sp, sp, #20
ARM GAS  /tmp/cc4hxgpo.s 			page 3


 115              		.cfi_def_cfa_offset 24
 116 0004 0190     		str	r0, [sp, #4]
 117 0006 0B46     		mov	r3, r1
 118 0008 ADF80230 		strh	r3, [sp, #2]	@ movhi
 119 000c 1346     		mov	r3, r2	@ movhi
 120 000e ADF80030 		strh	r3, [sp]	@ movhi
 121              		.loc 1 38 0
 122 0012 0198     		ldr	r0, [sp, #4]
 123 0014 6D21     		movs	r1, #109
 124 0016 FFF7FEFF 		bl	mf_character_width
 125 001a 0346     		mov	r3, r0
 126 001c 9BB2     		uxth	r3, r3
 127 001e DB00     		lsls	r3, r3, #3
 128 0020 9BB2     		uxth	r3, r3
 129 0022 ADF80E30 		strh	r3, [sp, #14]	@ movhi
 130              		.loc 1 41 0
 131 0026 0198     		ldr	r0, [sp, #4]
 132 0028 2021     		movs	r1, #32
 133 002a FFF7FEFF 		bl	mf_character_width
 134 002e 0346     		mov	r3, r0
 135 0030 BDF80020 		ldrh	r2, [sp]
 136 0034 9BB2     		uxth	r3, r3
 137 0036 D31A     		subs	r3, r2, r3
 138 0038 9BB2     		uxth	r3, r3
 139 003a ADF80030 		strh	r3, [sp]	@ movhi
 140              		.loc 1 44 0
 141 003e BDF80220 		ldrh	r2, [sp, #2]
 142 0042 BDF80030 		ldrh	r3, [sp]
 143 0046 D31A     		subs	r3, r2, r3
 144 0048 9AB2     		uxth	r2, r3
 145 004a 019B     		ldr	r3, [sp, #4]
 146 004c 1B7B     		ldrb	r3, [r3, #12]	@ zero_extendqisi2
 147 004e 9BB2     		uxth	r3, r3
 148 0050 1344     		add	r3, r3, r2
 149 0052 9BB2     		uxth	r3, r3
 150 0054 ADF80C30 		strh	r3, [sp, #12]	@ movhi
 151              		.loc 1 45 0
 152 0058 BDF90C30 		ldrsh	r3, [sp, #12]
 153 005c BDF90E20 		ldrsh	r2, [sp, #14]
 154 0060 93FBF2F1 		sdiv	r1, r3, r2
 155 0064 02FB01F2 		mul	r2, r2, r1
 156 0068 9B1A     		subs	r3, r3, r2
 157 006a 9AB2     		uxth	r2, r3
 158 006c BDF80E30 		ldrh	r3, [sp, #14]
 159 0070 D31A     		subs	r3, r2, r3
 160 0072 9AB2     		uxth	r2, r3
 161 0074 BDF80030 		ldrh	r3, [sp]
 162 0078 1344     		add	r3, r3, r2
 163 007a 9BB2     		uxth	r3, r3
 164 007c ADF80030 		strh	r3, [sp]	@ movhi
 165              		.loc 1 47 0
 166 0080 BDF80030 		ldrh	r3, [sp]
 167 0084 1BB2     		sxth	r3, r3
 168              		.loc 1 48 0
 169 0086 1846     		mov	r0, r3
 170 0088 05B0     		add	sp, sp, #20
 171              		.cfi_def_cfa_offset 4
ARM GAS  /tmp/cc4hxgpo.s 			page 4


 172              		@ sp needed
 173 008a 5DF804FB 		ldr	pc, [sp], #4
 174              		.cfi_endproc
 175              	.LFE112:
 176              		.size	mf_round_to_prev_tab, .-mf_round_to_prev_tab
 177 008e 00BF     		.section	.text.mf_get_string_width,"ax",%progbits
 178              		.align	2
 179              		.p2align 4,,15
 180              		.global	mf_get_string_width
 181              		.thumb
 182              		.thumb_func
 183              		.type	mf_get_string_width, %function
 184              	mf_get_string_width:
 185              	.LFB113:
 186              		.loc 1 53 0
 187              		.cfi_startproc
 188              		@ args = 0, pretend = 0, frame = 24
 189              		@ frame_needed = 0, uses_anonymous_args = 0
 190 0000 00B5     		push	{lr}
 191              		.cfi_def_cfa_offset 4
 192              		.cfi_offset 14, -4
 193 0002 87B0     		sub	sp, sp, #28
 194              		.cfi_def_cfa_offset 32
 195 0004 0390     		str	r0, [sp, #12]
 196 0006 0291     		str	r1, [sp, #8]
 197 0008 1146     		mov	r1, r2
 198 000a 1A46     		mov	r2, r3
 199 000c 0B46     		mov	r3, r1	@ movhi
 200 000e ADF80630 		strh	r3, [sp, #6]	@ movhi
 201 0012 1346     		mov	r3, r2
 202 0014 8DF80530 		strb	r3, [sp, #5]
 203              		.loc 1 54 0
 204 0018 0023     		movs	r3, #0
 205 001a ADF81630 		strh	r3, [sp, #22]	@ movhi
 206              		.loc 1 55 0
 207 001e 0023     		movs	r3, #0
 208 0020 ADF81430 		strh	r3, [sp, #20]	@ movhi
 209              		.loc 1 57 0
 210 0024 BDF80630 		ldrh	r3, [sp, #6]
 211 0028 002B     		cmp	r3, #0
 212 002a 03D1     		bne	.L6
 213              		.loc 1 58 0
 214 002c 4FF6FF73 		movw	r3, #65535
 215 0030 ADF80630 		strh	r3, [sp, #6]	@ movhi
 216              	.L6:
 217              		.loc 1 60 0
 218 0034 31E0     		b	.L7
 219              	.L11:
 220              		.loc 1 62 0
 221 0036 02AB     		add	r3, sp, #8
 222 0038 1846     		mov	r0, r3
 223 003a FFF7FEFF 		bl	mf_getchar
 224 003e 0346     		mov	r3, r0
 225 0040 ADF81230 		strh	r3, [sp, #18]	@ movhi
 226              		.loc 1 64 0
 227 0044 BDF81230 		ldrh	r3, [sp, #18]
 228 0048 092B     		cmp	r3, #9
ARM GAS  /tmp/cc4hxgpo.s 			page 5


 229 004a 0DD1     		bne	.L8
 230              		.loc 1 67 0
 231 004c BDF91630 		ldrsh	r3, [sp, #22]
 232 0050 0398     		ldr	r0, [sp, #12]
 233 0052 0021     		movs	r1, #0
 234 0054 1A46     		mov	r2, r3
 235 0056 FFF7FEFF 		bl	mf_round_to_tab
 236 005a 0346     		mov	r3, r0
 237 005c ADF81630 		strh	r3, [sp, #22]	@ movhi
 238              		.loc 1 68 0
 239 0060 2023     		movs	r3, #32
 240 0062 ADF81430 		strh	r3, [sp, #20]	@ movhi
 241              		.loc 1 69 0
 242 0066 18E0     		b	.L7
 243              	.L8:
 244              		.loc 1 75 0
 245 0068 9DF80530 		ldrb	r3, [sp, #5]	@ zero_extendqisi2
 246 006c 002B     		cmp	r3, #0
 247 006e 02D0     		beq	.L9
 248              		.loc 1 75 0 is_stmt 0 discriminator 1
 249 0070 BDF81430 		ldrh	r3, [sp, #20]
 250 0074 002B     		cmp	r3, #0
 251              	.L9:
 252              		.loc 1 78 0 is_stmt 1
 253 0076 BDF81230 		ldrh	r3, [sp, #18]
 254 007a 0398     		ldr	r0, [sp, #12]
 255 007c 1946     		mov	r1, r3
 256 007e FFF7FEFF 		bl	mf_character_width
 257 0082 0346     		mov	r3, r0
 258 0084 9AB2     		uxth	r2, r3
 259 0086 BDF81630 		ldrh	r3, [sp, #22]
 260 008a 1344     		add	r3, r3, r2
 261 008c 9BB2     		uxth	r3, r3
 262 008e ADF81630 		strh	r3, [sp, #22]	@ movhi
 263              		.loc 1 79 0
 264 0092 BDF81230 		ldrh	r3, [sp, #18]	@ movhi
 265 0096 ADF81430 		strh	r3, [sp, #20]	@ movhi
 266              	.L7:
 267              		.loc 1 60 0
 268 009a BDF80630 		ldrh	r3, [sp, #6]
 269 009e 5A1E     		subs	r2, r3, #1
 270 00a0 ADF80620 		strh	r2, [sp, #6]	@ movhi
 271 00a4 002B     		cmp	r3, #0
 272 00a6 03D0     		beq	.L10
 273              		.loc 1 60 0 is_stmt 0 discriminator 1
 274 00a8 029B     		ldr	r3, [sp, #8]
 275 00aa 1B78     		ldrb	r3, [r3]	@ zero_extendqisi2
 276 00ac 002B     		cmp	r3, #0
 277 00ae C2D1     		bne	.L11
 278              	.L10:
 279              		.loc 1 82 0 is_stmt 1
 280 00b0 BDF81630 		ldrh	r3, [sp, #22]
 281 00b4 1BB2     		sxth	r3, r3
 282              		.loc 1 83 0
 283 00b6 1846     		mov	r0, r3
 284 00b8 07B0     		add	sp, sp, #28
 285              		.cfi_def_cfa_offset 4
ARM GAS  /tmp/cc4hxgpo.s 			page 6


 286              		@ sp needed
 287 00ba 5DF804FB 		ldr	pc, [sp], #4
 288              		.cfi_endproc
 289              	.LFE113:
 290              		.size	mf_get_string_width, .-mf_get_string_width
 291 00be 00BF     		.section	.text.strip_spaces,"ax",%progbits
 292              		.align	2
 293              		.p2align 4,,15
 294              		.thumb
 295              		.thumb_func
 296              		.type	strip_spaces, %function
 297              	strip_spaces:
 298              	.LFB114:
 299              		.loc 1 87 0
 300              		.cfi_startproc
 301              		@ args = 0, pretend = 0, frame = 24
 302              		@ frame_needed = 0, uses_anonymous_args = 0
 303 0000 00B5     		push	{lr}
 304              		.cfi_def_cfa_offset 4
 305              		.cfi_offset 14, -4
 306 0002 87B0     		sub	sp, sp, #28
 307              		.cfi_def_cfa_offset 32
 308 0004 0390     		str	r0, [sp, #12]
 309 0006 0B46     		mov	r3, r1
 310 0008 0192     		str	r2, [sp, #4]
 311 000a ADF80A30 		strh	r3, [sp, #10]	@ movhi
 312              		.loc 1 88 0
 313 000e 0023     		movs	r3, #0
 314 0010 ADF81630 		strh	r3, [sp, #22]	@ movhi
 315 0014 0023     		movs	r3, #0
 316 0016 ADF81430 		strh	r3, [sp, #20]	@ movhi
 317              		.loc 1 89 0
 318 001a 0023     		movs	r3, #0
 319 001c ADF81230 		strh	r3, [sp, #18]	@ movhi
 320              		.loc 1 91 0
 321 0020 BDF80A30 		ldrh	r3, [sp, #10]
 322 0024 002B     		cmp	r3, #0
 323 0026 03D1     		bne	.L14
 324              		.loc 1 92 0
 325 0028 4FF6FF73 		movw	r3, #65535
 326 002c ADF80A30 		strh	r3, [sp, #10]	@ movhi
 327              	.L14:
 328              		.loc 1 94 0
 329 0030 23E0     		b	.L15
 330              	.L17:
 331              		.loc 1 96 0
 332 0032 BDF81630 		ldrh	r3, [sp, #22]
 333 0036 0133     		adds	r3, r3, #1
 334 0038 ADF81630 		strh	r3, [sp, #22]	@ movhi
 335              		.loc 1 97 0
 336 003c 03AB     		add	r3, sp, #12
 337 003e 1846     		mov	r0, r3
 338 0040 FFF7FEFF 		bl	mf_getchar
 339 0044 0346     		mov	r3, r0
 340 0046 ADF81230 		strh	r3, [sp, #18]	@ movhi
 341              		.loc 1 98 0
 342 004a BDF81230 		ldrh	r3, [sp, #18]
ARM GAS  /tmp/cc4hxgpo.s 			page 7


 343 004e 202B     		cmp	r3, #32
 344 0050 13D0     		beq	.L15
 345              		.loc 1 98 0 is_stmt 0 discriminator 1
 346 0052 BDF81230 		ldrh	r3, [sp, #18]
 347 0056 A02B     		cmp	r3, #160
 348 0058 0FD0     		beq	.L15
 349              		.loc 1 98 0 discriminator 2
 350 005a BDF81230 		ldrh	r3, [sp, #18]
 351 005e 0A2B     		cmp	r3, #10
 352 0060 0BD0     		beq	.L15
 353              		.loc 1 98 0 discriminator 3
 354 0062 BDF81230 		ldrh	r3, [sp, #18]
 355 0066 0D2B     		cmp	r3, #13
 356 0068 07D0     		beq	.L15
 357              		.loc 1 99 0 is_stmt 1
 358 006a BDF81230 		ldrh	r3, [sp, #18]
 359 006e 092B     		cmp	r3, #9
 360 0070 03D0     		beq	.L15
 361              		.loc 1 101 0
 362 0072 BDF81630 		ldrh	r3, [sp, #22]	@ movhi
 363 0076 ADF81430 		strh	r3, [sp, #20]	@ movhi
 364              	.L15:
 365              		.loc 1 94 0
 366 007a BDF80A30 		ldrh	r3, [sp, #10]
 367 007e 5A1E     		subs	r2, r3, #1
 368 0080 ADF80A20 		strh	r2, [sp, #10]	@ movhi
 369 0084 002B     		cmp	r3, #0
 370 0086 03D0     		beq	.L16
 371              		.loc 1 94 0 is_stmt 0 discriminator 1
 372 0088 039B     		ldr	r3, [sp, #12]
 373 008a 1B78     		ldrb	r3, [r3]	@ zero_extendqisi2
 374 008c 002B     		cmp	r3, #0
 375 008e D0D1     		bne	.L17
 376              	.L16:
 377              		.loc 1 105 0 is_stmt 1
 378 0090 019B     		ldr	r3, [sp, #4]
 379 0092 002B     		cmp	r3, #0
 380 0094 0BD0     		beq	.L18
 381              		.loc 1 107 0
 382 0096 039B     		ldr	r3, [sp, #12]
 383 0098 1B78     		ldrb	r3, [r3]	@ zero_extendqisi2
 384 009a 002B     		cmp	r3, #0
 385 009c 03D1     		bne	.L19
 386              		.loc 1 108 0
 387 009e 019B     		ldr	r3, [sp, #4]
 388 00a0 0022     		movs	r2, #0
 389 00a2 1A80     		strh	r2, [r3]	@ movhi
 390 00a4 03E0     		b	.L18
 391              	.L19:
 392              		.loc 1 110 0
 393 00a6 019B     		ldr	r3, [sp, #4]
 394 00a8 BDF81220 		ldrh	r2, [sp, #18]	@ movhi
 395 00ac 1A80     		strh	r2, [r3]	@ movhi
 396              	.L18:
 397              		.loc 1 113 0
 398 00ae BDF81430 		ldrh	r3, [sp, #20]
 399              		.loc 1 114 0
ARM GAS  /tmp/cc4hxgpo.s 			page 8


 400 00b2 1846     		mov	r0, r3
 401 00b4 07B0     		add	sp, sp, #28
 402              		.cfi_def_cfa_offset 4
 403              		@ sp needed
 404 00b6 5DF804FB 		ldr	pc, [sp], #4
 405              		.cfi_endproc
 406              	.LFE114:
 407              		.size	strip_spaces, .-strip_spaces
 408 00ba 00BFAFF3 		.section	.text.render_left,"ax",%progbits
 408      0080
 409              		.align	2
 410              		.p2align 4,,15
 411              		.thumb
 412              		.thumb_func
 413              		.type	render_left, %function
 414              	render_left:
 415              	.LFB115:
 416              		.loc 1 122 0
 417              		.cfi_startproc
 418              		@ args = 12, pretend = 0, frame = 24
 419              		@ frame_needed = 0, uses_anonymous_args = 0
 420 0000 10B5     		push	{r4, lr}
 421              		.cfi_def_cfa_offset 8
 422              		.cfi_offset 4, -8
 423              		.cfi_offset 14, -4
 424 0002 86B0     		sub	sp, sp, #24
 425              		.cfi_def_cfa_offset 32
 426 0004 0390     		str	r0, [sp, #12]
 427 0006 0193     		str	r3, [sp, #4]
 428 0008 0B46     		mov	r3, r1	@ movhi
 429 000a ADF80A30 		strh	r3, [sp, #10]	@ movhi
 430 000e 1346     		mov	r3, r2	@ movhi
 431 0010 ADF80830 		strh	r3, [sp, #8]	@ movhi
 432              		.loc 1 124 0
 433 0014 0023     		movs	r3, #0
 434 0016 ADF81430 		strh	r3, [sp, #20]	@ movhi
 435              		.loc 1 126 0
 436 001a BDF80A20 		ldrh	r2, [sp, #10]
 437 001e 039B     		ldr	r3, [sp, #12]
 438 0020 1B7B     		ldrb	r3, [r3, #12]	@ zero_extendqisi2
 439 0022 9BB2     		uxth	r3, r3
 440 0024 D31A     		subs	r3, r2, r3
 441 0026 9BB2     		uxth	r3, r3
 442 0028 ADF81630 		strh	r3, [sp, #22]	@ movhi
 443              		.loc 1 127 0
 444 002c 35E0     		b	.L22
 445              	.L25:
 446              		.loc 1 129 0
 447 002e 01AB     		add	r3, sp, #4
 448 0030 1846     		mov	r0, r3
 449 0032 FFF7FEFF 		bl	mf_getchar
 450 0036 0346     		mov	r3, r0
 451 0038 ADF81230 		strh	r3, [sp, #18]	@ movhi
 452              		.loc 1 131 0
 453 003c BDF81230 		ldrh	r3, [sp, #18]
 454 0040 092B     		cmp	r3, #9
 455 0042 0FD1     		bne	.L23
ARM GAS  /tmp/cc4hxgpo.s 			page 9


 456              		.loc 1 134 0
 457 0044 BDF90A20 		ldrsh	r2, [sp, #10]
 458 0048 BDF91630 		ldrsh	r3, [sp, #22]
 459 004c 0398     		ldr	r0, [sp, #12]
 460 004e 1146     		mov	r1, r2
 461 0050 1A46     		mov	r2, r3
 462 0052 FFF7FEFF 		bl	mf_round_to_tab
 463 0056 0346     		mov	r3, r0
 464 0058 ADF81630 		strh	r3, [sp, #22]	@ movhi
 465              		.loc 1 135 0
 466 005c 2023     		movs	r3, #32
 467 005e ADF81430 		strh	r3, [sp, #20]	@ movhi
 468              		.loc 1 136 0
 469 0062 1AE0     		b	.L22
 470              	.L23:
 471              		.loc 1 142 0
 472 0064 BDF81430 		ldrh	r3, [sp, #20]
 473 0068 002B     		cmp	r3, #0
 474              		.loc 1 145 0
 475 006a BDF91610 		ldrsh	r1, [sp, #22]
 476 006e BDF90820 		ldrsh	r2, [sp, #8]
 477 0072 BDF81230 		ldrh	r3, [sp, #18]
 478 0076 099C     		ldr	r4, [sp, #36]
 479 0078 0846     		mov	r0, r1
 480 007a 1146     		mov	r1, r2
 481 007c 1A46     		mov	r2, r3
 482 007e 0A9B     		ldr	r3, [sp, #40]
 483 0080 A047     		blx	r4
 484 0082 0346     		mov	r3, r0
 485 0084 9AB2     		uxth	r2, r3
 486 0086 BDF81630 		ldrh	r3, [sp, #22]
 487 008a 1344     		add	r3, r3, r2
 488 008c 9BB2     		uxth	r3, r3
 489 008e ADF81630 		strh	r3, [sp, #22]	@ movhi
 490              		.loc 1 146 0
 491 0092 BDF81230 		ldrh	r3, [sp, #18]	@ movhi
 492 0096 ADF81430 		strh	r3, [sp, #20]	@ movhi
 493              	.L22:
 494              		.loc 1 127 0
 495 009a BDF82030 		ldrh	r3, [sp, #32]
 496 009e 5A1E     		subs	r2, r3, #1
 497 00a0 ADF82020 		strh	r2, [sp, #32]	@ movhi
 498 00a4 002B     		cmp	r3, #0
 499 00a6 C2D1     		bne	.L25
 500              		.loc 1 148 0
 501 00a8 06B0     		add	sp, sp, #24
 502              		.cfi_def_cfa_offset 8
 503              		@ sp needed
 504 00aa 10BD     		pop	{r4, pc}
 505              		.cfi_endproc
 506              	.LFE115:
 507              		.size	render_left, .-render_left
 508 00ac AFF30080 		.section	.text.render_right,"ax",%progbits
 509              		.align	2
 510              		.p2align 4,,15
 511              		.thumb
 512              		.thumb_func
ARM GAS  /tmp/cc4hxgpo.s 			page 10


 513              		.type	render_right, %function
 514              	render_right:
 515              	.LFB116:
 516              		.loc 1 172 0
 517              		.cfi_startproc
 518              		@ args = 12, pretend = 0, frame = 32
 519              		@ frame_needed = 0, uses_anonymous_args = 0
 520 0000 10B5     		push	{r4, lr}
 521              		.cfi_def_cfa_offset 8
 522              		.cfi_offset 4, -8
 523              		.cfi_offset 14, -4
 524 0002 88B0     		sub	sp, sp, #32
 525              		.cfi_def_cfa_offset 40
 526 0004 0390     		str	r0, [sp, #12]
 527 0006 0193     		str	r3, [sp, #4]
 528 0008 0B46     		mov	r3, r1	@ movhi
 529 000a ADF80A30 		strh	r3, [sp, #10]	@ movhi
 530 000e 1346     		mov	r3, r2	@ movhi
 531 0010 ADF80830 		strh	r3, [sp, #8]	@ movhi
 532              		.loc 1 175 0
 533 0014 0023     		movs	r3, #0
 534 0016 ADF81A30 		strh	r3, [sp, #26]	@ movhi
 535              		.loc 1 179 0
 536 001a 0023     		movs	r3, #0
 537 001c ADF81C30 		strh	r3, [sp, #28]	@ movhi
 538 0020 08E0     		b	.L27
 539              	.L28:
 540              		.loc 1 180 0 discriminator 3
 541 0022 01AB     		add	r3, sp, #4
 542 0024 1846     		mov	r0, r3
 543 0026 FFF7FEFF 		bl	mf_getchar
 544              		.loc 1 179 0 discriminator 3
 545 002a BDF81C30 		ldrh	r3, [sp, #28]
 546 002e 0133     		adds	r3, r3, #1
 547 0030 ADF81C30 		strh	r3, [sp, #28]	@ movhi
 548              	.L27:
 549              		.loc 1 179 0 is_stmt 0 discriminator 1
 550 0034 BDF81C20 		ldrh	r2, [sp, #28]
 551 0038 BDF82830 		ldrh	r3, [sp, #40]
 552 003c 9A42     		cmp	r2, r3
 553 003e F0D3     		bcc	.L28
 554              		.loc 1 182 0 is_stmt 1
 555 0040 BDF80A20 		ldrh	r2, [sp, #10]
 556 0044 039B     		ldr	r3, [sp, #12]
 557 0046 1B7B     		ldrb	r3, [r3, #12]	@ zero_extendqisi2
 558 0048 9BB2     		uxth	r3, r3
 559 004a D31A     		subs	r3, r2, r3
 560 004c 9BB2     		uxth	r3, r3
 561 004e ADF81E30 		strh	r3, [sp, #30]	@ movhi
 562              		.loc 1 183 0
 563 0052 0023     		movs	r3, #0
 564 0054 ADF81C30 		strh	r3, [sp, #28]	@ movhi
 565 0058 46E0     		b	.L29
 566              	.L33:
 567              		.loc 1 185 0
 568 005a 01AB     		add	r3, sp, #4
 569 005c 1846     		mov	r0, r3
ARM GAS  /tmp/cc4hxgpo.s 			page 11


 570 005e FFF7FEFF 		bl	mf_rewind
 571              		.loc 1 186 0
 572 0062 019B     		ldr	r3, [sp, #4]
 573 0064 0593     		str	r3, [sp, #20]
 574              		.loc 1 187 0
 575 0066 05AB     		add	r3, sp, #20
 576 0068 1846     		mov	r0, r3
 577 006a FFF7FEFF 		bl	mf_getchar
 578 006e 0346     		mov	r3, r0
 579 0070 ADF81830 		strh	r3, [sp, #24]	@ movhi
 580              		.loc 1 190 0
 581 0074 BDF81830 		ldrh	r3, [sp, #24]
 582 0078 092B     		cmp	r3, #9
 583 007a 0FD1     		bne	.L30
 584              		.loc 1 193 0
 585 007c BDF90A20 		ldrsh	r2, [sp, #10]
 586 0080 BDF91E30 		ldrsh	r3, [sp, #30]
 587 0084 0398     		ldr	r0, [sp, #12]
 588 0086 1146     		mov	r1, r2
 589 0088 1A46     		mov	r2, r3
 590 008a FFF7FEFF 		bl	mf_round_to_prev_tab
 591 008e 0346     		mov	r3, r0
 592 0090 ADF81E30 		strh	r3, [sp, #30]	@ movhi
 593              		.loc 1 194 0
 594 0094 2023     		movs	r3, #32
 595 0096 ADF81A30 		strh	r3, [sp, #26]	@ movhi
 596              		.loc 1 195 0
 597 009a 20E0     		b	.L31
 598              	.L30:
 599              		.loc 1 202 0
 600 009c BDF81830 		ldrh	r3, [sp, #24]
 601 00a0 0398     		ldr	r0, [sp, #12]
 602 00a2 1946     		mov	r1, r3
 603 00a4 FFF7FEFF 		bl	mf_character_width
 604 00a8 0346     		mov	r3, r0
 605 00aa BDF81E20 		ldrh	r2, [sp, #30]
 606 00ae 9BB2     		uxth	r3, r3
 607 00b0 D31A     		subs	r3, r2, r3
 608 00b2 9BB2     		uxth	r3, r3
 609 00b4 ADF81E30 		strh	r3, [sp, #30]	@ movhi
 610              		.loc 1 205 0
 611 00b8 BDF81A30 		ldrh	r3, [sp, #26]
 612 00bc 002B     		cmp	r3, #0
 613              		.loc 1 208 0
 614 00be BDF91E10 		ldrsh	r1, [sp, #30]
 615 00c2 BDF90820 		ldrsh	r2, [sp, #8]
 616 00c6 BDF81830 		ldrh	r3, [sp, #24]
 617 00ca 0B9C     		ldr	r4, [sp, #44]
 618 00cc 0846     		mov	r0, r1
 619 00ce 1146     		mov	r1, r2
 620 00d0 1A46     		mov	r2, r3
 621 00d2 0C9B     		ldr	r3, [sp, #48]
 622 00d4 A047     		blx	r4
 623              		.loc 1 209 0
 624 00d6 BDF81830 		ldrh	r3, [sp, #24]	@ movhi
 625 00da ADF81A30 		strh	r3, [sp, #26]	@ movhi
 626              	.L31:
ARM GAS  /tmp/cc4hxgpo.s 			page 12


 627              		.loc 1 183 0 discriminator 2
 628 00de BDF81C30 		ldrh	r3, [sp, #28]
 629 00e2 0133     		adds	r3, r3, #1
 630 00e4 ADF81C30 		strh	r3, [sp, #28]	@ movhi
 631              	.L29:
 632              		.loc 1 183 0 is_stmt 0 discriminator 1
 633 00e8 BDF81C20 		ldrh	r2, [sp, #28]
 634 00ec BDF82830 		ldrh	r3, [sp, #40]
 635 00f0 9A42     		cmp	r2, r3
 636 00f2 B2D3     		bcc	.L33
 637              		.loc 1 211 0 is_stmt 1
 638 00f4 08B0     		add	sp, sp, #32
 639              		.cfi_def_cfa_offset 8
 640              		@ sp needed
 641 00f6 10BD     		pop	{r4, pc}
 642              		.cfi_endproc
 643              	.LFE116:
 644              		.size	render_right, .-render_right
 645 00f8 AFF30080 		.section	.text.mf_render_aligned,"ax",%progbits
 645      AFF30080 
 646              		.align	2
 647              		.p2align 4,,15
 648              		.global	mf_render_aligned
 649              		.thumb
 650              		.thumb_func
 651              		.type	mf_render_aligned, %function
 652              	mf_render_aligned:
 653              	.LFB117:
 654              		.loc 1 219 0
 655              		.cfi_startproc
 656              		@ args = 16, pretend = 0, frame = 24
 657              		@ frame_needed = 0, uses_anonymous_args = 0
 658 0000 00B5     		push	{lr}
 659              		.cfi_def_cfa_offset 4
 660              		.cfi_offset 14, -4
 661 0002 8BB0     		sub	sp, sp, #44
 662              		.cfi_def_cfa_offset 48
 663 0004 0790     		str	r0, [sp, #28]
 664 0006 0846     		mov	r0, r1
 665 0008 1146     		mov	r1, r2
 666 000a 1A46     		mov	r2, r3
 667 000c 0346     		mov	r3, r0	@ movhi
 668 000e ADF81A30 		strh	r3, [sp, #26]	@ movhi
 669 0012 0B46     		mov	r3, r1	@ movhi
 670 0014 ADF81830 		strh	r3, [sp, #24]	@ movhi
 671 0018 1346     		mov	r3, r2
 672 001a 8DF81730 		strb	r3, [sp, #23]
 673              		.loc 1 221 0
 674 001e BDF83430 		ldrh	r3, [sp, #52]
 675 0022 0C98     		ldr	r0, [sp, #48]
 676 0024 1946     		mov	r1, r3
 677 0026 0022     		movs	r2, #0
 678 0028 FFF7FEFF 		bl	strip_spaces
 679 002c 0346     		mov	r3, r0
 680 002e ADF83430 		strh	r3, [sp, #52]	@ movhi
 681              		.loc 1 223 0
 682 0032 9DF81730 		ldrb	r3, [sp, #23]	@ zero_extendqisi2
ARM GAS  /tmp/cc4hxgpo.s 			page 13


 683 0036 002B     		cmp	r3, #0
 684 0038 0ED1     		bne	.L35
 685              		.loc 1 225 0
 686 003a BDF91A10 		ldrsh	r1, [sp, #26]
 687 003e BDF91820 		ldrsh	r2, [sp, #24]
 688 0042 BDF83430 		ldrh	r3, [sp, #52]
 689 0046 0093     		str	r3, [sp]
 690 0048 0E9B     		ldr	r3, [sp, #56]
 691 004a 0193     		str	r3, [sp, #4]
 692 004c 0F9B     		ldr	r3, [sp, #60]
 693 004e 0293     		str	r3, [sp, #8]
 694 0050 0798     		ldr	r0, [sp, #28]
 695 0052 0C9B     		ldr	r3, [sp, #48]
 696 0054 FFF7FEFF 		bl	render_left
 697              	.L35:
 698              		.loc 1 227 0
 699 0058 9DF81730 		ldrb	r3, [sp, #23]	@ zero_extendqisi2
 700 005c 012B     		cmp	r3, #1
 701 005e 27D1     		bne	.L36
 702              		.loc 1 229 0
 703 0060 BDF83430 		ldrh	r3, [sp, #52]
 704 0064 0798     		ldr	r0, [sp, #28]
 705 0066 0C99     		ldr	r1, [sp, #48]
 706 0068 1A46     		mov	r2, r3
 707 006a 0023     		movs	r3, #0
 708 006c FFF7FEFF 		bl	mf_get_string_width
 709 0070 0346     		mov	r3, r0
 710 0072 ADF82630 		strh	r3, [sp, #38]	@ movhi
 711              		.loc 1 230 0
 712 0076 BDF81A20 		ldrh	r2, [sp, #26]
 713 007a BDF92630 		ldrsh	r3, [sp, #38]
 714 007e D90F     		lsrs	r1, r3, #31
 715 0080 0B44     		add	r3, r3, r1
 716 0082 5B10     		asrs	r3, r3, #1
 717 0084 9BB2     		uxth	r3, r3
 718 0086 9BB2     		uxth	r3, r3
 719 0088 D31A     		subs	r3, r2, r3
 720 008a 9BB2     		uxth	r3, r3
 721 008c ADF81A30 		strh	r3, [sp, #26]	@ movhi
 722              		.loc 1 231 0
 723 0090 BDF91A10 		ldrsh	r1, [sp, #26]
 724 0094 BDF91820 		ldrsh	r2, [sp, #24]
 725 0098 BDF83430 		ldrh	r3, [sp, #52]
 726 009c 0093     		str	r3, [sp]
 727 009e 0E9B     		ldr	r3, [sp, #56]
 728 00a0 0193     		str	r3, [sp, #4]
 729 00a2 0F9B     		ldr	r3, [sp, #60]
 730 00a4 0293     		str	r3, [sp, #8]
 731 00a6 0798     		ldr	r0, [sp, #28]
 732 00a8 0C9B     		ldr	r3, [sp, #48]
 733 00aa FFF7FEFF 		bl	render_left
 734 00ae 12E0     		b	.L34
 735              	.L36:
 736              		.loc 1 233 0
 737 00b0 9DF81730 		ldrb	r3, [sp, #23]	@ zero_extendqisi2
 738 00b4 022B     		cmp	r3, #2
 739 00b6 0ED1     		bne	.L34
ARM GAS  /tmp/cc4hxgpo.s 			page 14


 740              		.loc 1 235 0
 741 00b8 BDF91A10 		ldrsh	r1, [sp, #26]
 742 00bc BDF91820 		ldrsh	r2, [sp, #24]
 743 00c0 BDF83430 		ldrh	r3, [sp, #52]
 744 00c4 0093     		str	r3, [sp]
 745 00c6 0E9B     		ldr	r3, [sp, #56]
 746 00c8 0193     		str	r3, [sp, #4]
 747 00ca 0F9B     		ldr	r3, [sp, #60]
 748 00cc 0293     		str	r3, [sp, #8]
 749 00ce 0798     		ldr	r0, [sp, #28]
 750 00d0 0C9B     		ldr	r3, [sp, #48]
 751 00d2 FFF7FEFF 		bl	render_right
 752              	.L34:
 753              		.loc 1 237 0
 754 00d6 0BB0     		add	sp, sp, #44
 755              		.cfi_def_cfa_offset 4
 756              		@ sp needed
 757 00d8 5DF804FB 		ldr	pc, [sp], #4
 758              		.cfi_endproc
 759              	.LFE117:
 760              		.size	mf_render_aligned, .-mf_render_aligned
 761 00dc AFF30080 		.section	.text.mf_render_justified,"ax",%progbits
 762              		.align	2
 763              		.p2align 4,,15
 764              		.global	mf_render_justified
 765              		.thumb
 766              		.thumb_func
 767              		.type	mf_render_justified, %function
 768              	mf_render_justified:
 769              	.LFB118:
 770              		.loc 1 249 0
 771              		.cfi_startproc
 772              		@ args = 16, pretend = 0, frame = 16
 773              		@ frame_needed = 0, uses_anonymous_args = 0
 774 0000 00B5     		push	{lr}
 775              		.cfi_def_cfa_offset 4
 776              		.cfi_offset 14, -4
 777 0002 89B0     		sub	sp, sp, #36
 778              		.cfi_def_cfa_offset 40
 779 0004 0790     		str	r0, [sp, #28]
 780 0006 0846     		mov	r0, r1
 781 0008 1146     		mov	r1, r2
 782 000a 1A46     		mov	r2, r3
 783 000c 0346     		mov	r3, r0	@ movhi
 784 000e ADF81A30 		strh	r3, [sp, #26]	@ movhi
 785 0012 0B46     		mov	r3, r1	@ movhi
 786 0014 ADF81830 		strh	r3, [sp, #24]	@ movhi
 787 0018 1346     		mov	r3, r2	@ movhi
 788 001a ADF81630 		strh	r3, [sp, #22]	@ movhi
 789              		.loc 1 251 0
 790 001e BDF91A10 		ldrsh	r1, [sp, #26]
 791 0022 BDF91820 		ldrsh	r2, [sp, #24]
 792 0026 0A9B     		ldr	r3, [sp, #40]
 793 0028 0093     		str	r3, [sp]
 794 002a BDF82C30 		ldrh	r3, [sp, #44]
 795 002e 0193     		str	r3, [sp, #4]
 796 0030 0C9B     		ldr	r3, [sp, #48]
ARM GAS  /tmp/cc4hxgpo.s 			page 15


 797 0032 0293     		str	r3, [sp, #8]
 798 0034 0D9B     		ldr	r3, [sp, #52]
 799 0036 0393     		str	r3, [sp, #12]
 800 0038 0798     		ldr	r0, [sp, #28]
 801 003a 0023     		movs	r3, #0
 802 003c FFF7FEFF 		bl	mf_render_aligned
 803              		.loc 1 252 0
 804 0040 09B0     		add	sp, sp, #36
 805              		.cfi_def_cfa_offset 4
 806              		@ sp needed
 807 0042 5DF804FB 		ldr	pc, [sp], #4
 808              		.cfi_endproc
 809              	.LFE118:
 810              		.size	mf_render_justified, .-mf_render_justified
 811 0046 00BFAFF3 		.text
 811      0080AFF3 
 811      0080
 812              	.Letext0:
 813              		.file 2 "/opt/gcc-arm-none-eabi/arm-none-eabi/include/machine/_default_types.h"
 814              		.file 3 "/opt/gcc-arm-none-eabi/arm-none-eabi/include/stdint.h"
 815              		.file 4 "/home/makkmarci/workspace/ugfx/src/gdisp/mcufont/mf_font.h"
 816              		.file 5 "/home/makkmarci/workspace/ugfx/src/gdisp/mcufont/mf_encoding.h"
 817              		.file 6 "/home/makkmarci/workspace/ugfx/src/gdisp/mcufont/mf_justify.h"
 818              		.file 7 "/home/makkmarci/workspace/ChibiOS_2.6.8/os/ports/common/ARMCMx/CMSIS/include/core_cm4.h"