ARM GAS  /tmp/cck4mDbc.s 			page 1


   1              		.syntax unified
   2              		.cpu cortex-m4
   3              		.eabi_attribute 27, 3
   4              		.eabi_attribute 28, 1
   5              		.fpu fpv4-sp-d16
   6              		.eabi_attribute 20, 1
   7              		.eabi_attribute 21, 1
   8              		.eabi_attribute 23, 3
   9              		.eabi_attribute 24, 1
  10              		.eabi_attribute 25, 1
  11              		.eabi_attribute 26, 1
  12              		.eabi_attribute 30, 2
  13              		.eabi_attribute 34, 1
  14              		.eabi_attribute 18, 4
  15              		.thumb
  16              		.file	"mf_rlefont.c"
  17              		.text
  18              	.Ltext0:
  19              		.cfi_sections	.debug_frame
  20              		.section	.text.write_pixels,"ax",%progbits
  21              		.align	2
  22              		.p2align 4,,15
  23              		.thumb
  24              		.thumb_func
  25              		.type	write_pixels, %function
  26              	write_pixels:
  27              	.LFB112:
  28              		.file 1 "/home/makkmarci/devel/ugfx/src/gdisp/mcufont/mf_rlefont.c"
  29              		.loc 1 74 0
  30              		.cfi_startproc
  31              		@ args = 0, pretend = 0, frame = 0
  32              		@ frame_needed = 0, uses_anonymous_args = 0
  33              	.LVL0:
  34 0000 2DE9F043 		push	{r4, r5, r6, r7, r8, r9, lr}
  35              		.cfi_def_cfa_offset 28
  36              		.cfi_offset 4, -28
  37              		.cfi_offset 5, -24
  38              		.cfi_offset 6, -20
  39              		.cfi_offset 7, -16
  40              		.cfi_offset 8, -12
  41              		.cfi_offset 9, -8
  42              		.cfi_offset 14, -4
  43              		.loc 1 78 0
  44 0004 8588     		ldrh	r5, [r0, #4]
  45 0006 4788     		ldrh	r7, [r0, #2]
  46              		.loc 1 74 0
  47 0008 0446     		mov	r4, r0
  48              		.loc 1 78 0
  49 000a 28B2     		sxth	r0, r5
  50              	.LVL1:
  51              		.loc 1 74 0
  52 000c 0E46     		mov	r6, r1
  53              		.loc 1 78 0
  54 000e 3BB2     		sxth	r3, r7
  55 0010 4118     		adds	r1, r0, r1
  56              	.LVL2:
  57 0012 9942     		cmp	r1, r3
ARM GAS  /tmp/cck4mDbc.s 			page 2


  58              		.loc 1 74 0
  59 0014 83B0     		sub	sp, sp, #12
  60              		.cfi_def_cfa_offset 40
  61              		.loc 1 74 0
  62 0016 9046     		mov	r8, r2
  63              		.loc 1 78 0
  64 0018 19DB     		blt	.L2
  65 001a E188     		ldrh	r1, [r4, #6]
  66              	.LVL3:
  67              	.L3:
  68              		.loc 1 80 0
  69 001c 7D1B     		subs	r5, r7, r5
  70              		.loc 1 81 0
  71 001e 2369     		ldr	r3, [r4, #16]
  72 0020 0093     		str	r3, [sp]
  73              		.loc 1 80 0
  74 0022 5FFA85F9 		uxtb	r9, r5
  75              	.LVL4:
  76              		.loc 1 81 0
  77 0026 09B2     		sxth	r1, r1
  78 0028 4A46     		mov	r2, r9
  79 002a 4346     		mov	r3, r8
  80 002c E568     		ldr	r5, [r4, #12]
  81              	.LVL5:
  82 002e A847     		blx	r5
  83              	.LVL6:
  84              		.loc 1 83 0
  85 0030 2588     		ldrh	r5, [r4]
  86              		.loc 1 84 0
  87 0032 E188     		ldrh	r1, [r4, #6]
  88              		.loc 1 78 0
  89 0034 6788     		ldrh	r7, [r4, #2]
  90              		.loc 1 83 0
  91 0036 A580     		strh	r5, [r4, #4]	@ movhi
  92              		.loc 1 82 0
  93 0038 C9EB0606 		rsb	r6, r9, r6
  94              	.LVL7:
  95 003c B6B2     		uxth	r6, r6
  96              	.LVL8:
  97              		.loc 1 78 0
  98 003e 28B2     		sxth	r0, r5
  99              		.loc 1 84 0
 100 0040 0131     		adds	r1, r1, #1
 101              		.loc 1 78 0
 102 0042 8219     		adds	r2, r0, r6
 103 0044 3BB2     		sxth	r3, r7
 104              		.loc 1 84 0
 105 0046 89B2     		uxth	r1, r1
 106              		.loc 1 78 0
 107 0048 9A42     		cmp	r2, r3
 108              		.loc 1 84 0
 109 004a E180     		strh	r1, [r4, #6]	@ movhi
 110              		.loc 1 78 0
 111 004c E6DA     		bge	.L3
 112              	.LVL9:
 113              	.L2:
 114              		.loc 1 88 0
ARM GAS  /tmp/cck4mDbc.s 			page 3


 115 004e 56B1     		cbz	r6, .L1
 116              		.loc 1 90 0
 117 0050 2369     		ldr	r3, [r4, #16]
 118 0052 B4F90610 		ldrsh	r1, [r4, #6]
 119 0056 0093     		str	r3, [sp]
 120 0058 F2B2     		uxtb	r2, r6
 121 005a 4346     		mov	r3, r8
 122 005c E568     		ldr	r5, [r4, #12]
 123 005e A847     		blx	r5
 124              	.LVL10:
 125              		.loc 1 91 0
 126 0060 A388     		ldrh	r3, [r4, #4]
 127 0062 1E44     		add	r6, r6, r3
 128 0064 A680     		strh	r6, [r4, #4]	@ movhi
 129              	.L1:
 130              		.loc 1 93 0
 131 0066 03B0     		add	sp, sp, #12
 132              		@ sp needed
 133 0068 BDE8F083 		pop	{r4, r5, r6, r7, r8, r9, pc}
 134              		.cfi_endproc
 135              	.LFE112:
 136              		.size	write_pixels, .-write_pixels
 137 006c AFF30080 		.section	.text.find_glyph.isra.0,"ax",%progbits
 138              		.align	2
 139              		.p2align 4,,15
 140              		.thumb
 141              		.thumb_func
 142              		.type	find_glyph.isra.0, %function
 143              	find_glyph.isra.0:
 144              	.LFB122:
 145              		.loc 1 38 0
 146              		.cfi_startproc
 147              		@ args = 0, pretend = 0, frame = 0
 148              		@ frame_needed = 0, uses_anonymous_args = 0
 149              		@ link register save eliminated.
 150              	.LVL11:
 151 0000 30B4     		push	{r4, r5}
 152              		.cfi_def_cfa_offset 8
 153              		.cfi_offset 4, -8
 154              		.cfi_offset 5, -4
 155              		.loc 1 43 0
 156 0002 80B1     		cbz	r0, .L10
 157 0004 0B68     		ldr	r3, [r1]
 158 0006 0021     		movs	r1, #0
 159              	.LVL12:
 160              	.L12:
 161              		.loc 1 46 0
 162 0008 1C88     		ldrh	r4, [r3]
 163              	.LVL13:
 164              		.loc 1 47 0
 165 000a A242     		cmp	r2, r4
 166              		.loc 1 43 0
 167 000c 01F10101 		add	r1, r1, #1
 168              	.LVL14:
 169              		.loc 1 46 0
 170 0010 C4EB0205 		rsb	r5, r4, r2
 171              		.loc 1 47 0
ARM GAS  /tmp/cck4mDbc.s 			page 4


 172 0014 02D3     		bcc	.L11
 173 0016 5C88     		ldrh	r4, [r3, #2]
 174              	.LVL15:
 175 0018 A542     		cmp	r5, r4
 176 001a 06D3     		bcc	.L16
 177              	.L11:
 178              		.loc 1 43 0
 179 001c 8142     		cmp	r1, r0
 180 001e 03F10C03 		add	r3, r3, #12
 181              	.LVL16:
 182 0022 F1D3     		bcc	.L12
 183              		.loc 1 54 0
 184 0024 0020     		movs	r0, #0
 185              	.LVL17:
 186              	.L10:
 187              		.loc 1 55 0
 188 0026 30BC     		pop	{r4, r5}
 189 0028 7047     		bx	lr
 190              	.LVL18:
 191              	.L16:
 192              	.LBB23:
 193              		.loc 1 49 0
 194 002a 5A68     		ldr	r2, [r3, #4]
 195              	.LVL19:
 196              		.loc 1 50 0
 197 002c 9868     		ldr	r0, [r3, #8]
 198 002e 32F81530 		ldrh	r3, [r2, r5, lsl #1]
 199              	.LVL20:
 200              	.LBE23:
 201              		.loc 1 55 0
 202 0032 30BC     		pop	{r4, r5}
 203              	.LVL21:
 204              	.LBB24:
 205              		.loc 1 50 0
 206 0034 1844     		add	r0, r0, r3
 207              	.LBE24:
 208              		.loc 1 55 0
 209 0036 7047     		bx	lr
 210              		.cfi_endproc
 211              	.LFE122:
 212              		.size	find_glyph.isra.0, .-find_glyph.isra.0
 213 0038 AFF30080 		.section	.text.write_ref_codeword,"ax",%progbits
 213      AFF30080 
 214              		.align	2
 215              		.p2align 4,,15
 216              		.thumb
 217              		.thumb_func
 218              		.type	write_ref_codeword, %function
 219              	write_ref_codeword:
 220              	.LFB117:
 221              		.loc 1 195 0
 222              		.cfi_startproc
 223              		@ args = 0, pretend = 0, frame = 0
 224              		@ frame_needed = 0, uses_anonymous_args = 0
 225              	.LVL22:
 226              		.loc 1 196 0
 227 0000 0F2A     		cmp	r2, #15
ARM GAS  /tmp/cck4mDbc.s 			page 5


 228              		.loc 1 195 0
 229 0002 2DE9F041 		push	{r4, r5, r6, r7, r8, lr}
 230              		.cfi_def_cfa_offset 24
 231              		.cfi_offset 4, -24
 232              		.cfi_offset 5, -20
 233              		.cfi_offset 6, -16
 234              		.cfi_offset 7, -12
 235              		.cfi_offset 8, -8
 236              		.cfi_offset 14, -4
 237              		.loc 1 195 0
 238 0006 0746     		mov	r7, r0
 239 0008 0D46     		mov	r5, r1
 240              		.loc 1 196 0
 241 000a 3FD9     		bls	.L60
 242              		.loc 1 200 0
 243 000c 102A     		cmp	r2, #16
 244 000e 56D0     		beq	.L61
 245              		.loc 1 205 0
 246 0010 172A     		cmp	r2, #23
 247 0012 39D9     		bls	.L17
 248              		.loc 1 209 0
 249 0014 90F82830 		ldrb	r3, [r0, #40]	@ zero_extendqisi2
 250 0018 1733     		adds	r3, r3, #23
 251 001a 9342     		cmp	r3, r2
 252 001c 53DA     		bge	.L62
 253              	.LVL23:
 254              	.LBB41:
 255              	.LBB42:
 256              	.LBB43:
 257              	.LBB44:
 258              		.loc 1 143 0
 259 001e FB2A     		cmp	r2, #251
 260 0020 3DD9     		bls	.L63
 261 0022 0127     		movs	r7, #1
 262              	.L35:
 263              	.LBE44:
 264              	.LBE43:
 265              		.loc 1 163 0
 266 0024 043A     		subs	r2, r2, #4
 267              	.LVL24:
 268 0026 D6B2     		uxtb	r6, r2
 269              	.LVL25:
 270              		.loc 1 164 0
 271 0028 0021     		movs	r1, #0
 272              	.LVL26:
 273 002a 06E0     		b	.L44
 274              	.LVL27:
 275              	.L65:
 276              		.loc 1 171 0
 277 002c 0131     		adds	r1, r1, #1
 278              	.LVL28:
 279              		.loc 1 167 0
 280 002e 7B1E     		subs	r3, r7, #1
 281              		.loc 1 171 0
 282 0030 C9B2     		uxtb	r1, r1
 283              	.LVL29:
 284              		.loc 1 184 0
ARM GAS  /tmp/cck4mDbc.s 			page 6


 285 0032 7608     		lsrs	r6, r6, #1
 286              	.LVL30:
 287              		.loc 1 167 0
 288 0034 DBB2     		uxtb	r3, r3
 289              	.LVL31:
 290 0036 07B3     		cbz	r7, .L64
 291              	.LVL32:
 292              	.L43:
 293 0038 1F46     		mov	r7, r3
 294              	.L44:
 295              	.LVL33:
 296              		.loc 1 169 0
 297 003a F307     		lsls	r3, r6, #31
 298 003c F6D4     		bmi	.L65
 299              		.loc 1 175 0
 300 003e 0029     		cmp	r1, #0
 301 0040 38D1     		bne	.L66
 302              	.LVL34:
 303              	.L38:
 304              	.LBB47:
 305              	.LBB48:
 306              		.loc 1 98 0
 307 0042 AB88     		ldrh	r3, [r5, #4]
 308              		.loc 1 99 0
 309 0044 6888     		ldrh	r0, [r5, #2]
 310              		.loc 1 98 0
 311 0046 0133     		adds	r3, r3, #1
 312 0048 9BB2     		uxth	r3, r3
 313              		.loc 1 99 0
 314 004a 1AB2     		sxth	r2, r3
 315 004c 01B2     		sxth	r1, r0
 316 004e 8A42     		cmp	r2, r1
 317              		.loc 1 98 0
 318 0050 AB80     		strh	r3, [r5, #4]	@ movhi
 319              		.loc 1 99 0
 320 0052 0CDB     		blt	.L41
 321 0054 2C88     		ldrh	r4, [r5]
 322 0056 EA88     		ldrh	r2, [r5, #6]
 323 0058 201A     		subs	r0, r4, r0
 324 005a 80B2     		uxth	r0, r0
 325              	.L42:
 326 005c 0344     		add	r3, r3, r0
 327 005e 9BB2     		uxth	r3, r3
 328 0060 1CB2     		sxth	r4, r3
 329 0062 0132     		adds	r2, r2, #1
 330 0064 8C42     		cmp	r4, r1
 331 0066 92B2     		uxth	r2, r2
 332 0068 F8DA     		bge	.L42
 333 006a AB80     		strh	r3, [r5, #4]	@ movhi
 334 006c EA80     		strh	r2, [r5, #6]	@ movhi
 335              	.L41:
 336              	.LBE48:
 337              	.LBE47:
 338              		.loc 1 167 0
 339 006e 7B1E     		subs	r3, r7, #1
 340              	.LBB50:
 341              	.LBB49:
ARM GAS  /tmp/cck4mDbc.s 			page 7


 342              		.loc 1 102 0
 343 0070 0021     		movs	r1, #0
 344              	.LVL35:
 345              	.LBE49:
 346              	.LBE50:
 347              		.loc 1 184 0
 348 0072 7608     		lsrs	r6, r6, #1
 349              	.LVL36:
 350              		.loc 1 167 0
 351 0074 DBB2     		uxtb	r3, r3
 352              	.LVL37:
 353 0076 002F     		cmp	r7, #0
 354 0078 DED1     		bne	.L43
 355              	.LVL38:
 356              	.L64:
 357              		.loc 1 187 0
 358 007a 29B1     		cbz	r1, .L17
 359              		.loc 1 188 0
 360 007c 2846     		mov	r0, r5
 361 007e FF22     		movs	r2, #255
 362              	.LBE42:
 363              	.LBE41:
 364              		.loc 1 217 0
 365 0080 BDE8F041 		pop	{r4, r5, r6, r7, r8, lr}
 366              	.LVL39:
 367              	.LBB56:
 368              	.LBB53:
 369              		.loc 1 188 0
 370 0084 FFF7FEBF 		b	write_pixels
 371              	.LVL40:
 372              	.L17:
 373 0088 BDE8F081 		pop	{r4, r5, r6, r7, r8, pc}
 374              	.LVL41:
 375              	.L60:
 376              	.LBE53:
 377              	.LBE56:
 378              		.loc 1 198 0
 379 008c 02EB0212 		add	r2, r2, r2, lsl #4
 380              	.LVL42:
 381 0090 0846     		mov	r0, r1
 382              	.LVL43:
 383 0092 D2B2     		uxtb	r2, r2
 384 0094 0121     		movs	r1, #1
 385              	.LVL44:
 386              		.loc 1 217 0
 387 0096 BDE8F041 		pop	{r4, r5, r6, r7, r8, lr}
 388              	.LVL45:
 389              		.loc 1 198 0
 390 009a FFF7FEBF 		b	write_pixels
 391              	.LVL46:
 392              	.L63:
 393              	.LBB57:
 394              	.LBB54:
 395              	.LBB51:
 396              	.LBB45:
 397              		.loc 1 145 0
 398 009e F32A     		cmp	r2, #243
ARM GAS  /tmp/cck4mDbc.s 			page 8


 399 00a0 74D8     		bhi	.L46
 400              		.loc 1 147 0
 401 00a2 E32A     		cmp	r2, #227
 402 00a4 74D8     		bhi	.L47
 403              		.loc 1 149 0
 404 00a6 C32A     		cmp	r2, #195
 405 00a8 74D8     		bhi	.L48
 406              		.loc 1 151 0
 407 00aa 842A     		cmp	r2, #132
 408 00ac 34BF     		ite	cc
 409 00ae 0627     		movcc	r7, #6
 410 00b0 0527     		movcs	r7, #5
 411 00b2 B7E7     		b	.L35
 412              	.LVL47:
 413              	.L66:
 414              	.LBE45:
 415              	.LBE51:
 416              		.loc 1 177 0
 417 00b4 2846     		mov	r0, r5
 418 00b6 FF22     		movs	r2, #255
 419 00b8 FFF7FEFF 		bl	write_pixels
 420              	.LVL48:
 421 00bc C1E7     		b	.L38
 422              	.LVL49:
 423              	.L61:
 424              	.LBE54:
 425              	.LBE57:
 426              		.loc 1 203 0
 427 00be 0B89     		ldrh	r3, [r1, #8]
 428 00c0 CB80     		strh	r3, [r1, #6]	@ movhi
 429 00c2 BDE8F081 		pop	{r4, r5, r6, r7, r8, pc}
 430              	.L62:
 431              	.LVL50:
 432              		.loc 1 192 0
 433 00c6 436A     		ldr	r3, [r0, #36]
 434              	.LBB58:
 435              	.LBB59:
 436              		.loc 1 211 0
 437 00c8 183A     		subs	r2, r2, #24
 438              	.LVL51:
 439 00ca D2B2     		uxtb	r2, r2
 440              	.LVL52:
 441              	.LBB60:
 442              	.LBB61:
 443              		.loc 1 112 0
 444 00cc 03EB4201 		add	r1, r3, r2, lsl #1
 445              	.LVL53:
 446              		.loc 1 111 0
 447 00d0 33F81260 		ldrh	r6, [r3, r2, lsl #1]
 448              	.LVL54:
 449              		.loc 1 112 0
 450 00d4 4B88     		ldrh	r3, [r1, #2]
 451 00d6 9B1B     		subs	r3, r3, r6
 452 00d8 9BB2     		uxth	r3, r3
 453              	.LVL55:
 454              		.loc 1 115 0
 455 00da 002B     		cmp	r3, #0
ARM GAS  /tmp/cck4mDbc.s 			page 9


 456 00dc D4D0     		beq	.L17
 457 00de 013B     		subs	r3, r3, #1
 458              	.LVL56:
 459 00e0 721C     		adds	r2, r6, #1
 460              	.LVL57:
 461 00e2 12FA83F8 		uxtah	r8, r2, r3
 462              	.LVL58:
 463              	.L34:
 464              	.LBB62:
 465              		.loc 1 117 0
 466 00e6 3B6A     		ldr	r3, [r7, #32]
 467 00e8 9B5D     		ldrb	r3, [r3, r6]	@ zero_extendqisi2
 468              	.LVL59:
 469              		.loc 1 118 0
 470 00ea 13F0C002 		ands	r2, r3, #192
 471 00ee 1AD1     		bne	.L24
 472              	.LVL60:
 473              	.LBB63:
 474              	.LBB64:
 475              		.loc 1 98 0
 476 00f0 AA88     		ldrh	r2, [r5, #4]
 477              		.loc 1 99 0
 478 00f2 6988     		ldrh	r1, [r5, #2]
 479              		.loc 1 98 0
 480 00f4 1344     		add	r3, r3, r2
 481              	.LVL61:
 482 00f6 9BB2     		uxth	r3, r3
 483              		.loc 1 99 0
 484 00f8 1AB2     		sxth	r2, r3
 485 00fa 0CB2     		sxth	r4, r1
 486 00fc A242     		cmp	r2, r4
 487              		.loc 1 98 0
 488 00fe AB80     		strh	r3, [r5, #4]	@ movhi
 489              	.LVL62:
 490              		.loc 1 99 0
 491 0100 0CDB     		blt	.L26
 492 0102 2888     		ldrh	r0, [r5]
 493 0104 EA88     		ldrh	r2, [r5, #6]
 494 0106 411A     		subs	r1, r0, r1
 495 0108 88B2     		uxth	r0, r1
 496              	.L29:
 497 010a 0344     		add	r3, r3, r0
 498 010c 9BB2     		uxth	r3, r3
 499 010e 19B2     		sxth	r1, r3
 500 0110 0132     		adds	r2, r2, #1
 501 0112 8C42     		cmp	r4, r1
 502 0114 92B2     		uxth	r2, r2
 503 0116 F8DD     		ble	.L29
 504              	.LVL63:
 505              	.L59:
 506 0118 AB80     		strh	r3, [r5, #4]	@ movhi
 507 011a EA80     		strh	r2, [r5, #6]	@ movhi
 508              	.L26:
 509 011c 0136     		adds	r6, r6, #1
 510              	.LBE64:
 511              	.LBE63:
 512              	.LBE62:
ARM GAS  /tmp/cck4mDbc.s 			page 10


 513              		.loc 1 115 0
 514 011e 4645     		cmp	r6, r8
 515 0120 E1D1     		bne	.L34
 516 0122 BDE8F081 		pop	{r4, r5, r6, r7, r8, pc}
 517              	.LVL64:
 518              	.L24:
 519              	.LBB70:
 520              		.loc 1 122 0
 521 0126 402A     		cmp	r2, #64
 522 0128 0FD0     		beq	.L67
 523              		.loc 1 126 0
 524 012a 802A     		cmp	r2, #128
 525 012c 26D0     		beq	.L68
 526              		.loc 1 130 0
 527 012e C02A     		cmp	r2, #192
 528 0130 F4D1     		bne	.L26
 529              	.LVL65:
 530              	.LBB65:
 531              		.loc 1 134 0
 532 0132 03F00F02 		and	r2, r3, #15
 533              		.loc 1 133 0
 534 0136 C3F30111 		ubfx	r1, r3, #4, #2
 535              		.loc 1 134 0
 536 013a 02EB0212 		add	r2, r2, r2, lsl #4
 537              		.loc 1 135 0
 538 013e D2B2     		uxtb	r2, r2
 539 0140 0131     		adds	r1, r1, #1
 540 0142 2846     		mov	r0, r5
 541 0144 FFF7FEFF 		bl	write_pixels
 542              	.LVL66:
 543 0148 E8E7     		b	.L26
 544              	.LVL67:
 545              	.L67:
 546              	.LBE65:
 547              	.LBB66:
 548              	.LBB67:
 549              		.loc 1 98 0
 550 014a AA88     		ldrh	r2, [r5, #4]
 551              		.loc 1 99 0
 552 014c 6988     		ldrh	r1, [r5, #2]
 553              	.LBE67:
 554              	.LBE66:
 555              		.loc 1 124 0
 556 014e 03F03F03 		and	r3, r3, #63
 557              	.LVL68:
 558 0152 0133     		adds	r3, r3, #1
 559              	.LBB69:
 560              	.LBB68:
 561              		.loc 1 98 0
 562 0154 02EB8313 		add	r3, r2, r3, lsl #6
 563 0158 9BB2     		uxth	r3, r3
 564              		.loc 1 99 0
 565 015a 1AB2     		sxth	r2, r3
 566 015c 08B2     		sxth	r0, r1
 567 015e 8242     		cmp	r2, r0
 568              		.loc 1 98 0
 569 0160 AB80     		strh	r3, [r5, #4]	@ movhi
ARM GAS  /tmp/cck4mDbc.s 			page 11


 570              	.LVL69:
 571              		.loc 1 99 0
 572 0162 DBDB     		blt	.L26
 573 0164 2C88     		ldrh	r4, [r5]
 574 0166 EA88     		ldrh	r2, [r5, #6]
 575 0168 611A     		subs	r1, r4, r1
 576 016a 8CB2     		uxth	r4, r1
 577              	.L32:
 578 016c 2344     		add	r3, r3, r4
 579 016e 9BB2     		uxth	r3, r3
 580 0170 19B2     		sxth	r1, r3
 581 0172 0132     		adds	r2, r2, #1
 582 0174 8842     		cmp	r0, r1
 583 0176 92B2     		uxth	r2, r2
 584 0178 F8DD     		ble	.L32
 585 017a CDE7     		b	.L59
 586              	.LVL70:
 587              	.L68:
 588              	.LBE68:
 589              	.LBE69:
 590              		.loc 1 128 0
 591 017c 03F03F01 		and	r1, r3, #63
 592 0180 0131     		adds	r1, r1, #1
 593 0182 2846     		mov	r0, r5
 594 0184 FF22     		movs	r2, #255
 595 0186 FFF7FEFF 		bl	write_pixels
 596              	.LVL71:
 597 018a C7E7     		b	.L26
 598              	.LVL72:
 599              	.L46:
 600              	.LBE70:
 601              	.LBE61:
 602              	.LBE60:
 603              	.LBE59:
 604              	.LBE58:
 605              	.LBB71:
 606              	.LBB55:
 607              	.LBB52:
 608              	.LBB46:
 609              		.loc 1 145 0
 610 018c 0227     		movs	r7, #2
 611 018e 49E7     		b	.L35
 612              	.L47:
 613              		.loc 1 147 0
 614 0190 0327     		movs	r7, #3
 615 0192 47E7     		b	.L35
 616              	.L48:
 617              		.loc 1 149 0
 618 0194 0427     		movs	r7, #4
 619 0196 45E7     		b	.L35
 620              	.LBE46:
 621              	.LBE52:
 622              	.LBE55:
 623              	.LBE71:
 624              		.cfi_endproc
 625              	.LFE117:
 626              		.size	write_ref_codeword, .-write_ref_codeword
ARM GAS  /tmp/cck4mDbc.s 			page 12


 627 0198 AFF30080 		.section	.text.mf_rlefont_render_character,"ax",%progbits
 627      AFF30080 
 628              		.align	2
 629              		.p2align 4,,15
 630              		.global	mf_rlefont_render_character
 631              		.thumb
 632              		.thumb_func
 633              		.type	mf_rlefont_render_character, %function
 634              	mf_rlefont_render_character:
 635              	.LFB120:
 636              		.loc 1 257 0
 637              		.cfi_startproc
 638              		@ args = 8, pretend = 0, frame = 24
 639              		@ frame_needed = 0, uses_anonymous_args = 0
 640              	.LVL73:
 641 0000 2DE9F043 		push	{r4, r5, r6, r7, r8, r9, lr}
 642              		.cfi_def_cfa_offset 28
 643              		.cfi_offset 4, -28
 644              		.cfi_offset 5, -24
 645              		.cfi_offset 6, -20
 646              		.cfi_offset 7, -16
 647              		.cfi_offset 8, -12
 648              		.cfi_offset 9, -8
 649              		.cfi_offset 14, -4
 650              		.loc 1 266 0
 651 0004 90F80980 		ldrb	r8, [r0, #9]	@ zero_extendqisi2
 652              		.loc 1 263 0
 653 0008 90F808E0 		ldrb	lr, [r0, #8]	@ zero_extendqisi2
 654              		.loc 1 257 0
 655 000c 87B0     		sub	sp, sp, #28
 656              		.cfi_def_cfa_offset 56
 657              		.loc 1 257 0
 658 000e 0446     		mov	r4, r0
 659              		.loc 1 266 0
 660 0010 9044     		add	r8, r8, r2
 661              		.loc 1 257 0
 662 0012 0D46     		mov	r5, r1
 663              		.loc 1 263 0
 664 0014 8E44     		add	lr, lr, r1
 665              		.loc 1 257 0
 666 0016 9146     		mov	r9, r2
 667 0018 0E9F     		ldr	r7, [sp, #56]
 668 001a 0F9E     		ldr	r6, [sp, #60]
 669              		.loc 1 265 0
 670 001c ADF80A20 		strh	r2, [sp, #10]	@ movhi
 671              		.loc 1 266 0
 672 0020 1FFA88F8 		uxth	r8, r8
 673              		.loc 1 270 0
 674 0024 90F82A00 		ldrb	r0, [r0, #42]	@ zero_extendqisi2
 675              	.LVL74:
 676              		.loc 1 262 0
 677 0028 ADF80450 		strh	r5, [sp, #4]	@ movhi
 678              		.loc 1 270 0
 679 002c 1A46     		mov	r2, r3
 680              	.LVL75:
 681 002e 04F12C01 		add	r1, r4, #44
 682              	.LVL76:
ARM GAS  /tmp/cck4mDbc.s 			page 13


 683              		.loc 1 264 0
 684 0032 ADF80850 		strh	r5, [sp, #8]	@ movhi
 685              		.loc 1 263 0
 686 0036 ADF806E0 		strh	lr, [sp, #6]	@ movhi
 687              		.loc 1 266 0
 688 003a ADF80C80 		strh	r8, [sp, #12]	@ movhi
 689              		.loc 1 267 0
 690 003e 0497     		str	r7, [sp, #16]
 691              		.loc 1 268 0
 692 0040 0596     		str	r6, [sp, #20]
 693              		.loc 1 270 0
 694 0042 FFF7FEFF 		bl	find_glyph.isra.0
 695              	.LVL77:
 696              		.loc 1 271 0
 697 0046 0028     		cmp	r0, #0
 698 0048 3CD0     		beq	.L70
 699              	.LVL78:
 700 004a 0FFA88F3 		sxth	r3, r8
 701 004e 0FFA89F1 		sxth	r1, r9
 702              		.loc 1 274 0
 703 0052 90F80080 		ldrb	r8, [r0]	@ zero_extendqisi2
 704              	.LVL79:
 705 0056 0646     		mov	r6, r0
 706              	.LBB77:
 707              	.LBB78:
 708              	.LBB79:
 709              	.LBB80:
 710              		.loc 1 224 0
 711 0058 0227     		movs	r7, #2
 712              	.LBE80:
 713              	.LBE79:
 714              	.LBE78:
 715              	.LBE77:
 716              		.loc 1 275 0
 717 005a 07E0     		b	.L71
 718              	.LVL80:
 719              	.L72:
 720              	.LBB87:
 721              	.LBB84:
 722              		.loc 1 247 0
 723 005c 2046     		mov	r0, r4
 724 005e 01A9     		add	r1, sp, #4
 725              	.LVL81:
 726 0060 FFF7FEFF 		bl	write_ref_codeword
 727              	.LVL82:
 728              	.L81:
 729 0064 BDF90A10 		ldrsh	r1, [sp, #10]
 730 0068 BDF90C30 		ldrsh	r3, [sp, #12]
 731              	.LVL83:
 732              	.L71:
 733              	.LBE84:
 734              	.LBE87:
 735              		.loc 1 275 0 discriminator 1
 736 006c 9942     		cmp	r1, r3
 737 006e 28DA     		bge	.L82
 738              	.LVL84:
 739              	.LBB88:
ARM GAS  /tmp/cck4mDbc.s 			page 14


 740              	.LBB85:
 741              		.loc 1 240 0
 742 0070 94F82800 		ldrb	r0, [r4, #40]	@ zero_extendqisi2
 743              	.LBE85:
 744              	.LBE88:
 745              		.loc 1 277 0
 746 0074 16F8012F 		ldrb	r2, [r6, #1]!	@ zero_extendqisi2
 747              	.LVL85:
 748              	.LBB89:
 749              	.LBB86:
 750              		.loc 1 240 0
 751 0078 1730     		adds	r0, r0, #23
 752 007a 9042     		cmp	r0, r2
 753 007c EEDA     		bge	.L72
 754              		.loc 1 241 0
 755 007e 94F82900 		ldrb	r0, [r4, #41]	@ zero_extendqisi2
 756 0082 1730     		adds	r0, r0, #23
 757              		.loc 1 240 0
 758 0084 8242     		cmp	r2, r0
 759 0086 E9DC     		bgt	.L72
 760              		.loc 1 243 0
 761 0088 183A     		subs	r2, r2, #24
 762 008a D2B2     		uxtb	r2, r2
 763              	.LVL86:
 764              	.LBB83:
 765              	.LBB82:
 766              		.loc 1 225 0
 767 008c 17FB0275 		smlabb	r5, r7, r2, r7
 768              		.loc 1 224 0
 769 0090 606A     		ldr	r0, [r4, #36]
 770              		.loc 1 225 0
 771 0092 30F805C0 		ldrh	ip, [r0, r5]
 772              		.loc 1 224 0
 773 0096 30F81250 		ldrh	r5, [r0, r2, lsl #1]
 774              	.LVL87:
 775              		.loc 1 225 0
 776 009a C5EB0C02 		rsb	r2, r5, ip
 777              	.LVL88:
 778 009e 92B2     		uxth	r2, r2
 779              	.LVL89:
 780              		.loc 1 228 0
 781 00a0 002A     		cmp	r2, #0
 782 00a2 E3D0     		beq	.L71
 783 00a4 02F1FF39 		add	r9, r2, #-1
 784 00a8 6B1C     		adds	r3, r5, #1
 785 00aa 13FA89F9 		uxtah	r9, r3, r9
 786              	.LVL90:
 787              	.L75:
 788              	.LBB81:
 789              		.loc 1 230 0
 790 00ae 236A     		ldr	r3, [r4, #32]
 791              		.loc 1 231 0
 792 00b0 2046     		mov	r0, r4
 793 00b2 5A5D     		ldrb	r2, [r3, r5]	@ zero_extendqisi2
 794 00b4 01A9     		add	r1, sp, #4
 795              	.LVL91:
 796 00b6 0135     		adds	r5, r5, #1
ARM GAS  /tmp/cck4mDbc.s 			page 15


 797              	.LVL92:
 798 00b8 FFF7FEFF 		bl	write_ref_codeword
 799              	.LVL93:
 800              	.LBE81:
 801              		.loc 1 228 0
 802 00bc 4D45     		cmp	r5, r9
 803 00be F6D1     		bne	.L75
 804 00c0 D0E7     		b	.L81
 805              	.LVL94:
 806              	.L82:
 807              	.LBE82:
 808              	.LBE83:
 809              	.LBE86:
 810              	.LBE89:
 811              		.loc 1 280 0
 812 00c2 4046     		mov	r0, r8
 813              	.LVL95:
 814              	.L70:
 815              		.loc 1 281 0
 816 00c4 07B0     		add	sp, sp, #28
 817              		@ sp needed
 818 00c6 BDE8F083 		pop	{r4, r5, r6, r7, r8, r9, pc}
 819              		.cfi_endproc
 820              	.LFE120:
 821              		.size	mf_rlefont_render_character, .-mf_rlefont_render_character
 822 00ca 00BFAFF3 		.section	.text.mf_rlefont_character_width,"ax",%progbits
 822      0080
 823              		.align	2
 824              		.p2align 4,,15
 825              		.global	mf_rlefont_character_width
 826              		.thumb
 827              		.thumb_func
 828              		.type	mf_rlefont_character_width, %function
 829              	mf_rlefont_character_width:
 830              	.LFB121:
 831              		.loc 1 285 0
 832              		.cfi_startproc
 833              		@ args = 0, pretend = 0, frame = 0
 834              		@ frame_needed = 0, uses_anonymous_args = 0
 835              	.LVL96:
 836 0000 08B5     		push	{r3, lr}
 837              		.cfi_def_cfa_offset 8
 838              		.cfi_offset 3, -8
 839              		.cfi_offset 14, -4
 840              		.loc 1 285 0
 841 0002 0346     		mov	r3, r0
 842 0004 0A46     		mov	r2, r1
 843              		.loc 1 287 0
 844 0006 90F82A00 		ldrb	r0, [r0, #42]	@ zero_extendqisi2
 845              	.LVL97:
 846 000a 03F12C01 		add	r1, r3, #44
 847              	.LVL98:
 848 000e FFF7FEFF 		bl	find_glyph.isra.0
 849              	.LVL99:
 850              		.loc 1 288 0
 851 0012 00B1     		cbz	r0, .L84
 852              		.loc 1 291 0
ARM GAS  /tmp/cck4mDbc.s 			page 16


 853 0014 0078     		ldrb	r0, [r0]	@ zero_extendqisi2
 854              	.LVL100:
 855              	.L84:
 856              		.loc 1 292 0
 857 0016 08BD     		pop	{r3, pc}
 858              		.cfi_endproc
 859              	.LFE121:
 860              		.size	mf_rlefont_character_width, .-mf_rlefont_character_width
 861 0018 AFF30080 		.text
 861      AFF30080 
 862              	.Letext0:
 863              		.file 2 "/opt/ARM/arm-none-eabi/include/machine/_default_types.h"
 864              		.file 3 "/opt/ARM/arm-none-eabi/include/stdint.h"
 865              		.file 4 "/home/makkmarci/devel/ugfx/src/gdisp/mcufont/mf_font.h"
 866              		.file 5 "/home/makkmarci/devel/ugfx/src/gdisp/mcufont/mf_encoding.h"
 867              		.file 6 "/home/makkmarci/devel/ugfx/src/gdisp/mcufont/mf_rlefont.h"
 868              		.file 7 "../../os/ports/common/ARMCMx/CMSIS/include/core_cm4.h"
 869              		.section	.debug_info,"",%progbits
 870              	.Ldebug_info0:
 871 0000 4D0A0000 		.4byte	0xa4d
 872 0004 0400     		.2byte	0x4
 873 0006 00000000 		.4byte	.Ldebug_abbrev0
 874 000a 04       		.byte	0x4
 875 000b 01       		.uleb128 0x1
 876 000c 25010000 		.4byte	.LASF79
 877 0010 01       		.byte	0x1
 878 0011 15050000 		.4byte	.LASF80
 879 0015 1F030000 		.4byte	.LASF81
 880 0019 E8000000 		.4byte	.Ldebug_ranges0+0xe8
 881 001d 00000000 		.4byte	0
 882 0021 00000000 		.4byte	.Ldebug_line0
 883 0025 02       		.uleb128 0x2
 884 0026 04       		.byte	0x4
 885 0027 05       		.byte	0x5
 886 0028 696E7400 		.ascii	"int\000"
 887 002c 03       		.uleb128 0x3
 888 002d 04       		.byte	0x4
 889 002e 07       		.byte	0x7
 890 002f 69030000 		.4byte	.LASF0
 891 0033 03       		.uleb128 0x3
 892 0034 01       		.byte	0x1
 893 0035 06       		.byte	0x6
 894 0036 F6020000 		.4byte	.LASF1
 895 003a 04       		.uleb128 0x4
 896 003b 72020000 		.4byte	.LASF3
 897 003f 02       		.byte	0x2
 898 0040 1C       		.byte	0x1c
 899 0041 45000000 		.4byte	0x45
 900 0045 03       		.uleb128 0x3
 901 0046 01       		.byte	0x1
 902 0047 08       		.byte	0x8
 903 0048 E8020000 		.4byte	.LASF2
 904 004c 04       		.uleb128 0x4
 905 004d BC000000 		.4byte	.LASF4
 906 0051 02       		.byte	0x2
 907 0052 25       		.byte	0x25
 908 0053 57000000 		.4byte	0x57
ARM GAS  /tmp/cck4mDbc.s 			page 17


 909 0057 03       		.uleb128 0x3
 910 0058 02       		.byte	0x2
 911 0059 05       		.byte	0x5
 912 005a 36000000 		.4byte	.LASF5
 913 005e 04       		.uleb128 0x4
 914 005f 7C000000 		.4byte	.LASF6
 915 0063 02       		.byte	0x2
 916 0064 26       		.byte	0x26
 917 0065 69000000 		.4byte	0x69
 918 0069 03       		.uleb128 0x3
 919 006a 02       		.byte	0x2
 920 006b 07       		.byte	0x7
 921 006c F7030000 		.4byte	.LASF7
 922 0070 04       		.uleb128 0x4
 923 0071 ED030000 		.4byte	.LASF8
 924 0075 02       		.byte	0x2
 925 0076 37       		.byte	0x37
 926 0077 7B000000 		.4byte	0x7b
 927 007b 03       		.uleb128 0x3
 928 007c 04       		.byte	0x4
 929 007d 05       		.byte	0x5
 930 007e 62020000 		.4byte	.LASF9
 931 0082 03       		.uleb128 0x3
 932 0083 04       		.byte	0x4
 933 0084 07       		.byte	0x7
 934 0085 61040000 		.4byte	.LASF10
 935 0089 03       		.uleb128 0x3
 936 008a 08       		.byte	0x8
 937 008b 05       		.byte	0x5
 938 008c 44020000 		.4byte	.LASF11
 939 0090 03       		.uleb128 0x3
 940 0091 08       		.byte	0x8
 941 0092 07       		.byte	0x7
 942 0093 08030000 		.4byte	.LASF12
 943 0097 04       		.uleb128 0x4
 944 0098 D5040000 		.4byte	.LASF13
 945 009c 03       		.byte	0x3
 946 009d 2A       		.byte	0x2a
 947 009e 3A000000 		.4byte	0x3a
 948 00a2 04       		.uleb128 0x4
 949 00a3 00050000 		.4byte	.LASF14
 950 00a7 03       		.byte	0x3
 951 00a8 35       		.byte	0x35
 952 00a9 4C000000 		.4byte	0x4c
 953 00ad 04       		.uleb128 0x4
 954 00ae 7E030000 		.4byte	.LASF15
 955 00b2 03       		.byte	0x3
 956 00b3 36       		.byte	0x36
 957 00b4 5E000000 		.4byte	0x5e
 958 00b8 04       		.uleb128 0x4
 959 00b9 E5030000 		.4byte	.LASF16
 960 00bd 03       		.byte	0x3
 961 00be 41       		.byte	0x41
 962 00bf 70000000 		.4byte	0x70
 963 00c3 03       		.uleb128 0x3
 964 00c4 01       		.byte	0x1
 965 00c5 02       		.byte	0x2
ARM GAS  /tmp/cck4mDbc.s 			page 18


 966 00c6 24040000 		.4byte	.LASF17
 967 00ca 05       		.uleb128 0x5
 968 00cb 04       		.byte	0x4
 969 00cc 03       		.uleb128 0x3
 970 00cd 04       		.byte	0x4
 971 00ce 07       		.byte	0x7
 972 00cf 5B000000 		.4byte	.LASF18
 973 00d3 06       		.uleb128 0x6
 974 00d4 04       		.byte	0x4
 975 00d5 D9000000 		.4byte	0xd9
 976 00d9 07       		.uleb128 0x7
 977 00da DE000000 		.4byte	0xde
 978 00de 03       		.uleb128 0x3
 979 00df 01       		.byte	0x1
 980 00e0 08       		.byte	0x8
 981 00e1 CA030000 		.4byte	.LASF19
 982 00e5 06       		.uleb128 0x6
 983 00e6 04       		.byte	0x4
 984 00e7 EB000000 		.4byte	0xeb
 985 00eb 07       		.uleb128 0x7
 986 00ec 97000000 		.4byte	0x97
 987 00f0 08       		.uleb128 0x8
 988 00f1 B8000000 		.4byte	0xb8
 989 00f5 07       		.uleb128 0x7
 990 00f6 AD000000 		.4byte	0xad
 991 00fa 06       		.uleb128 0x6
 992 00fb 04       		.byte	0x4
 993 00fc 00010000 		.4byte	0x100
 994 0100 07       		.uleb128 0x7
 995 0101 05010000 		.4byte	0x105
 996 0105 09       		.uleb128 0x9
 997 0106 DA000000 		.4byte	.LASF35
 998 010a 1C       		.byte	0x1c
 999 010b 04       		.byte	0x4
 1000 010c 1D       		.byte	0x1d
 1001 010d AE010000 		.4byte	0x1ae
 1002 0111 0A       		.uleb128 0xa
 1003 0112 AD020000 		.4byte	.LASF20
 1004 0116 04       		.byte	0x4
 1005 0117 20       		.byte	0x20
 1006 0118 D3000000 		.4byte	0xd3
 1007 011c 00       		.byte	0
 1008 011d 0A       		.uleb128 0xa
 1009 011e B7020000 		.4byte	.LASF21
 1010 0122 04       		.byte	0x4
 1011 0123 23       		.byte	0x23
 1012 0124 D3000000 		.4byte	0xd3
 1013 0128 04       		.byte	0x4
 1014 0129 0A       		.uleb128 0xa
 1015 012a 9A040000 		.4byte	.LASF22
 1016 012e 04       		.byte	0x4
 1017 012f 26       		.byte	0x26
 1018 0130 97000000 		.4byte	0x97
 1019 0134 08       		.byte	0x8
 1020 0135 0A       		.uleb128 0xa
 1021 0136 2A040000 		.4byte	.LASF23
 1022 013a 04       		.byte	0x4
ARM GAS  /tmp/cck4mDbc.s 			page 19


 1023 013b 27       		.byte	0x27
 1024 013c 97000000 		.4byte	0x97
 1025 0140 09       		.byte	0x9
 1026 0141 0A       		.uleb128 0xa
 1027 0142 E4000000 		.4byte	.LASF24
 1028 0146 04       		.byte	0x4
 1029 0147 2A       		.byte	0x2a
 1030 0148 97000000 		.4byte	0x97
 1031 014c 0A       		.byte	0xa
 1032 014d 0A       		.uleb128 0xa
 1033 014e BC030000 		.4byte	.LASF25
 1034 0152 04       		.byte	0x4
 1035 0153 2B       		.byte	0x2b
 1036 0154 97000000 		.4byte	0x97
 1037 0158 0B       		.byte	0xb
 1038 0159 0A       		.uleb128 0xa
 1039 015a CF030000 		.4byte	.LASF26
 1040 015e 04       		.byte	0x4
 1041 015f 2E       		.byte	0x2e
 1042 0160 97000000 		.4byte	0x97
 1043 0164 0C       		.byte	0xc
 1044 0165 0A       		.uleb128 0xa
 1045 0166 DA030000 		.4byte	.LASF27
 1046 016a 04       		.byte	0x4
 1047 016b 2F       		.byte	0x2f
 1048 016c 97000000 		.4byte	0x97
 1049 0170 0D       		.byte	0xd
 1050 0171 0A       		.uleb128 0xa
 1051 0172 8E040000 		.4byte	.LASF28
 1052 0176 04       		.byte	0x4
 1053 0177 32       		.byte	0x32
 1054 0178 97000000 		.4byte	0x97
 1055 017c 0E       		.byte	0xe
 1056 017d 0A       		.uleb128 0xa
 1057 017e 02030000 		.4byte	.LASF29
 1058 0182 04       		.byte	0x4
 1059 0183 35       		.byte	0x35
 1060 0184 97000000 		.4byte	0x97
 1061 0188 0F       		.byte	0xf
 1062 0189 0A       		.uleb128 0xa
 1063 018a DD040000 		.4byte	.LASF30
 1064 018e 04       		.byte	0x4
 1065 018f 38       		.byte	0x38
 1066 0190 AE010000 		.4byte	0x1ae
 1067 0194 10       		.byte	0x10
 1068 0195 0A       		.uleb128 0xa
 1069 0196 F0040000 		.4byte	.LASF31
 1070 019a 04       		.byte	0x4
 1071 019b 3C       		.byte	0x3c
 1072 019c FD010000 		.4byte	0x1fd
 1073 01a0 14       		.byte	0x14
 1074 01a1 0A       		.uleb128 0xa
 1075 01a2 98000000 		.4byte	.LASF32
 1076 01a6 04       		.byte	0x4
 1077 01a7 40       		.byte	0x40
 1078 01a8 2B020000 		.4byte	0x22b
 1079 01ac 18       		.byte	0x18
ARM GAS  /tmp/cck4mDbc.s 			page 20


 1080 01ad 00       		.byte	0
 1081 01ae 04       		.uleb128 0x4
 1082 01af CC000000 		.4byte	.LASF33
 1083 01b3 05       		.byte	0x5
 1084 01b4 18       		.byte	0x18
 1085 01b5 AD000000 		.4byte	0xad
 1086 01b9 04       		.uleb128 0x4
 1087 01ba 0A040000 		.4byte	.LASF34
 1088 01be 04       		.byte	0x4
 1089 01bf 19       		.byte	0x19
 1090 01c0 C4010000 		.4byte	0x1c4
 1091 01c4 06       		.uleb128 0x6
 1092 01c5 04       		.byte	0x4
 1093 01c6 CA010000 		.4byte	0x1ca
 1094 01ca 0B       		.uleb128 0xb
 1095 01cb E9010000 		.4byte	0x1e9
 1096 01cf 0C       		.uleb128 0xc
 1097 01d0 A2000000 		.4byte	0xa2
 1098 01d4 0C       		.uleb128 0xc
 1099 01d5 A2000000 		.4byte	0xa2
 1100 01d9 0C       		.uleb128 0xc
 1101 01da 97000000 		.4byte	0x97
 1102 01de 0C       		.uleb128 0xc
 1103 01df 97000000 		.4byte	0x97
 1104 01e3 0C       		.uleb128 0xc
 1105 01e4 CA000000 		.4byte	0xca
 1106 01e8 00       		.byte	0
 1107 01e9 0D       		.uleb128 0xd
 1108 01ea 97000000 		.4byte	0x97
 1109 01ee FD010000 		.4byte	0x1fd
 1110 01f2 0C       		.uleb128 0xc
 1111 01f3 FA000000 		.4byte	0xfa
 1112 01f7 0C       		.uleb128 0xc
 1113 01f8 AE010000 		.4byte	0x1ae
 1114 01fc 00       		.byte	0
 1115 01fd 06       		.uleb128 0x6
 1116 01fe 04       		.byte	0x4
 1117 01ff E9010000 		.4byte	0x1e9
 1118 0203 0D       		.uleb128 0xd
 1119 0204 97000000 		.4byte	0x97
 1120 0208 2B020000 		.4byte	0x22b
 1121 020c 0C       		.uleb128 0xc
 1122 020d FA000000 		.4byte	0xfa
 1123 0211 0C       		.uleb128 0xc
 1124 0212 A2000000 		.4byte	0xa2
 1125 0216 0C       		.uleb128 0xc
 1126 0217 A2000000 		.4byte	0xa2
 1127 021b 0C       		.uleb128 0xc
 1128 021c AE010000 		.4byte	0x1ae
 1129 0220 0C       		.uleb128 0xc
 1130 0221 B9010000 		.4byte	0x1b9
 1131 0225 0C       		.uleb128 0xc
 1132 0226 CA000000 		.4byte	0xca
 1133 022a 00       		.byte	0
 1134 022b 06       		.uleb128 0x6
 1135 022c 04       		.byte	0x4
 1136 022d 03020000 		.4byte	0x203
ARM GAS  /tmp/cck4mDbc.s 			page 21


 1137 0231 09       		.uleb128 0x9
 1138 0232 7C020000 		.4byte	.LASF36
 1139 0236 0C       		.byte	0xc
 1140 0237 06       		.byte	0x6
 1141 0238 17       		.byte	0x17
 1142 0239 6E020000 		.4byte	0x26e
 1143 023d 0A       		.uleb128 0xa
 1144 023e 08000000 		.4byte	.LASF37
 1145 0242 06       		.byte	0x6
 1146 0243 1A       		.byte	0x1a
 1147 0244 AD000000 		.4byte	0xad
 1148 0248 00       		.byte	0
 1149 0249 0A       		.uleb128 0xa
 1150 024a 13000000 		.4byte	.LASF38
 1151 024e 06       		.byte	0x6
 1152 024f 1D       		.byte	0x1d
 1153 0250 AD000000 		.4byte	0xad
 1154 0254 02       		.byte	0x2
 1155 0255 0A       		.uleb128 0xa
 1156 0256 A0040000 		.4byte	.LASF39
 1157 025a 06       		.byte	0x6
 1158 025b 20       		.byte	0x20
 1159 025c 6E020000 		.4byte	0x26e
 1160 0260 04       		.byte	0x4
 1161 0261 0A       		.uleb128 0xa
 1162 0262 D6020000 		.4byte	.LASF40
 1163 0266 06       		.byte	0x6
 1164 0267 23       		.byte	0x23
 1165 0268 E5000000 		.4byte	0xe5
 1166 026c 08       		.byte	0x8
 1167 026d 00       		.byte	0
 1168 026e 06       		.uleb128 0x6
 1169 026f 04       		.byte	0x4
 1170 0270 F5000000 		.4byte	0xf5
 1171 0274 09       		.uleb128 0x9
 1172 0275 C2020000 		.4byte	.LASF41
 1173 0279 30       		.byte	0x30
 1174 027a 06       		.byte	0x6
 1175 027b 27       		.byte	0x27
 1176 027c E1020000 		.4byte	0x2e1
 1177 0280 0A       		.uleb128 0xa
 1178 0281 77000000 		.4byte	.LASF42
 1179 0285 06       		.byte	0x6
 1180 0286 29       		.byte	0x29
 1181 0287 05010000 		.4byte	0x105
 1182 028b 00       		.byte	0
 1183 028c 0A       		.uleb128 0xa
 1184 028d 00000000 		.4byte	.LASF43
 1185 0291 06       		.byte	0x6
 1186 0292 2C       		.byte	0x2c
 1187 0293 EB000000 		.4byte	0xeb
 1188 0297 1C       		.byte	0x1c
 1189 0298 0A       		.uleb128 0xa
 1190 0299 4F050000 		.4byte	.LASF44
 1191 029d 06       		.byte	0x6
 1192 029e 2F       		.byte	0x2f
 1193 029f E5000000 		.4byte	0xe5
ARM GAS  /tmp/cck4mDbc.s 			page 22


 1194 02a3 20       		.byte	0x20
 1195 02a4 0A       		.uleb128 0xa
 1196 02a5 A9000000 		.4byte	.LASF45
 1197 02a9 06       		.byte	0x6
 1198 02aa 34       		.byte	0x34
 1199 02ab 6E020000 		.4byte	0x26e
 1200 02af 24       		.byte	0x24
 1201 02b0 0A       		.uleb128 0xa
 1202 02b1 52020000 		.4byte	.LASF46
 1203 02b5 06       		.byte	0x6
 1204 02b6 38       		.byte	0x38
 1205 02b7 EB000000 		.4byte	0xeb
 1206 02bb 28       		.byte	0x28
 1207 02bc 0A       		.uleb128 0xa
 1208 02bd 87000000 		.4byte	.LASF47
 1209 02c1 06       		.byte	0x6
 1210 02c2 3C       		.byte	0x3c
 1211 02c3 EB000000 		.4byte	0xeb
 1212 02c7 29       		.byte	0x29
 1213 02c8 0A       		.uleb128 0xa
 1214 02c9 7D040000 		.4byte	.LASF48
 1215 02cd 06       		.byte	0x6
 1216 02ce 3F       		.byte	0x3f
 1217 02cf EB000000 		.4byte	0xeb
 1218 02d3 2A       		.byte	0x2a
 1219 02d4 0A       		.uleb128 0xa
 1220 02d5 0E010000 		.4byte	.LASF49
 1221 02d9 06       		.byte	0x6
 1222 02da 42       		.byte	0x42
 1223 02db E1020000 		.4byte	0x2e1
 1224 02df 2C       		.byte	0x2c
 1225 02e0 00       		.byte	0
 1226 02e1 06       		.uleb128 0x6
 1227 02e2 04       		.byte	0x4
 1228 02e3 E7020000 		.4byte	0x2e7
 1229 02e7 07       		.uleb128 0x7
 1230 02e8 31020000 		.4byte	0x231
 1231 02ec 09       		.uleb128 0x9
 1232 02ed AE040000 		.4byte	.LASF50
 1233 02f1 14       		.byte	0x14
 1234 02f2 01       		.byte	0x1
 1235 02f3 3B       		.byte	0x3b
 1236 02f4 49030000 		.4byte	0x349
 1237 02f8 0A       		.uleb128 0xa
 1238 02f9 76030000 		.4byte	.LASF51
 1239 02fd 01       		.byte	0x1
 1240 02fe 3D       		.byte	0x3d
 1241 02ff A2000000 		.4byte	0xa2
 1242 0303 00       		.byte	0
 1243 0304 0A       		.uleb128 0xa
 1244 0305 3E020000 		.4byte	.LASF52
 1245 0309 01       		.byte	0x1
 1246 030a 3E       		.byte	0x3e
 1247 030b A2000000 		.4byte	0xa2
 1248 030f 02       		.byte	0x2
 1249 0310 0E       		.uleb128 0xe
 1250 0311 7800     		.ascii	"x\000"
ARM GAS  /tmp/cck4mDbc.s 			page 23


 1251 0313 01       		.byte	0x1
 1252 0314 3F       		.byte	0x3f
 1253 0315 A2000000 		.4byte	0xa2
 1254 0319 04       		.byte	0x4
 1255 031a 0E       		.uleb128 0xe
 1256 031b 7900     		.ascii	"y\000"
 1257 031d 01       		.byte	0x1
 1258 031e 40       		.byte	0x40
 1259 031f A2000000 		.4byte	0xa2
 1260 0323 06       		.byte	0x6
 1261 0324 0A       		.uleb128 0xa
 1262 0325 1E040000 		.4byte	.LASF53
 1263 0329 01       		.byte	0x1
 1264 032a 41       		.byte	0x41
 1265 032b A2000000 		.4byte	0xa2
 1266 032f 08       		.byte	0x8
 1267 0330 0A       		.uleb128 0xa
 1268 0331 5F050000 		.4byte	.LASF54
 1269 0335 01       		.byte	0x1
 1270 0336 42       		.byte	0x42
 1271 0337 B9010000 		.4byte	0x1b9
 1272 033b 0C       		.byte	0xc
 1273 033c 0A       		.uleb128 0xa
 1274 033d 2A000000 		.4byte	.LASF55
 1275 0341 01       		.byte	0x1
 1276 0342 43       		.byte	0x43
 1277 0343 CA000000 		.4byte	0xca
 1278 0347 10       		.byte	0x10
 1279 0348 00       		.byte	0
 1280 0349 0F       		.uleb128 0xf
 1281 034a 1A010000 		.4byte	.LASF67
 1282 034e 01       		.byte	0x1
 1283 034f 26       		.byte	0x26
 1284 0350 E5000000 		.4byte	0xe5
 1285 0354 01       		.byte	0x1
 1286 0355 9C030000 		.4byte	0x39c
 1287 0359 10       		.uleb128 0x10
 1288 035a 77000000 		.4byte	.LASF42
 1289 035e 01       		.byte	0x1
 1290 035f 26       		.byte	0x26
 1291 0360 9C030000 		.4byte	0x39c
 1292 0364 10       		.uleb128 0x10
 1293 0365 73040000 		.4byte	.LASF56
 1294 0369 01       		.byte	0x1
 1295 036a 27       		.byte	0x27
 1296 036b AD000000 		.4byte	0xad
 1297 036f 11       		.uleb128 0x11
 1298 0370 6900     		.ascii	"i\000"
 1299 0372 01       		.byte	0x1
 1300 0373 29       		.byte	0x29
 1301 0374 2C000000 		.4byte	0x2c
 1302 0378 12       		.uleb128 0x12
 1303 0379 30000000 		.4byte	.LASF57
 1304 037d 01       		.byte	0x1
 1305 037e 29       		.byte	0x29
 1306 037f 2C000000 		.4byte	0x2c
 1307 0383 12       		.uleb128 0x12
ARM GAS  /tmp/cck4mDbc.s 			page 24


 1308 0384 BC040000 		.4byte	.LASF58
 1309 0388 01       		.byte	0x1
 1310 0389 2A       		.byte	0x2a
 1311 038a E1020000 		.4byte	0x2e1
 1312 038e 13       		.uleb128 0x13
 1313 038f 12       		.uleb128 0x12
 1314 0390 6B020000 		.4byte	.LASF59
 1315 0394 01       		.byte	0x1
 1316 0395 31       		.byte	0x31
 1317 0396 AD000000 		.4byte	0xad
 1318 039a 00       		.byte	0
 1319 039b 00       		.byte	0
 1320 039c 06       		.uleb128 0x6
 1321 039d 04       		.byte	0x4
 1322 039e A2030000 		.4byte	0x3a2
 1323 03a2 07       		.uleb128 0x7
 1324 03a3 74020000 		.4byte	0x274
 1325 03a7 14       		.uleb128 0x14
 1326 03a8 1E000000 		.4byte	.LASF62
 1327 03ac 01       		.byte	0x1
 1328 03ad 60       		.byte	0x60
 1329 03ae 01       		.byte	0x1
 1330 03af CA030000 		.4byte	0x3ca
 1331 03b3 10       		.uleb128 0x10
 1332 03b4 87030000 		.4byte	.LASF60
 1333 03b8 01       		.byte	0x1
 1334 03b9 60       		.byte	0x60
 1335 03ba CA030000 		.4byte	0x3ca
 1336 03be 10       		.uleb128 0x10
 1337 03bf D4000000 		.4byte	.LASF61
 1338 03c3 01       		.byte	0x1
 1339 03c4 60       		.byte	0x60
 1340 03c5 AD000000 		.4byte	0xad
 1341 03c9 00       		.byte	0
 1342 03ca 06       		.uleb128 0x6
 1343 03cb 04       		.byte	0x4
 1344 03cc EC020000 		.4byte	0x2ec
 1345 03d0 14       		.uleb128 0x14
 1346 03d1 4D040000 		.4byte	.LASF63
 1347 03d5 01       		.byte	0x1
 1348 03d6 6B       		.byte	0x6b
 1349 03d7 01       		.byte	0x1
 1350 03d8 42040000 		.4byte	0x442
 1351 03dc 10       		.uleb128 0x10
 1352 03dd 77000000 		.4byte	.LASF42
 1353 03e1 01       		.byte	0x1
 1354 03e2 6B       		.byte	0x6b
 1355 03e3 9C030000 		.4byte	0x39c
 1356 03e7 10       		.uleb128 0x10
 1357 03e8 87030000 		.4byte	.LASF60
 1358 03ec 01       		.byte	0x1
 1359 03ed 6C       		.byte	0x6c
 1360 03ee CA030000 		.4byte	0x3ca
 1361 03f2 10       		.uleb128 0x10
 1362 03f3 30000000 		.4byte	.LASF57
 1363 03f7 01       		.byte	0x1
 1364 03f8 6D       		.byte	0x6d
ARM GAS  /tmp/cck4mDbc.s 			page 25


 1365 03f9 97000000 		.4byte	0x97
 1366 03fd 12       		.uleb128 0x12
 1367 03fe 6B020000 		.4byte	.LASF59
 1368 0402 01       		.byte	0x1
 1369 0403 6F       		.byte	0x6f
 1370 0404 AD000000 		.4byte	0xad
 1371 0408 12       		.uleb128 0x12
 1372 0409 CF020000 		.4byte	.LASF64
 1373 040d 01       		.byte	0x1
 1374 040e 70       		.byte	0x70
 1375 040f AD000000 		.4byte	0xad
 1376 0413 11       		.uleb128 0x11
 1377 0414 6900     		.ascii	"i\000"
 1378 0416 01       		.byte	0x1
 1379 0417 71       		.byte	0x71
 1380 0418 AD000000 		.4byte	0xad
 1381 041c 13       		.uleb128 0x13
 1382 041d 12       		.uleb128 0x12
 1383 041e 8E030000 		.4byte	.LASF65
 1384 0422 01       		.byte	0x1
 1385 0423 75       		.byte	0x75
 1386 0424 97000000 		.4byte	0x97
 1387 0428 13       		.uleb128 0x13
 1388 0429 12       		.uleb128 0x12
 1389 042a D4000000 		.4byte	.LASF61
 1390 042e 01       		.byte	0x1
 1391 042f 84       		.byte	0x84
 1392 0430 97000000 		.4byte	0x97
 1393 0434 12       		.uleb128 0x12
 1394 0435 C6000000 		.4byte	.LASF66
 1395 0439 01       		.byte	0x1
 1396 043a 84       		.byte	0x84
 1397 043b 97000000 		.4byte	0x97
 1398 043f 00       		.byte	0
 1399 0440 00       		.byte	0
 1400 0441 00       		.byte	0
 1401 0442 0F       		.uleb128 0xf
 1402 0443 F2000000 		.4byte	.LASF68
 1403 0447 01       		.byte	0x1
 1404 0448 8D       		.byte	0x8d
 1405 0449 97000000 		.4byte	0x97
 1406 044d 01       		.byte	0x1
 1407 044e 5E040000 		.4byte	0x45e
 1408 0452 10       		.uleb128 0x10
 1409 0453 30000000 		.4byte	.LASF57
 1410 0457 01       		.byte	0x1
 1411 0458 8D       		.byte	0x8d
 1412 0459 97000000 		.4byte	0x97
 1413 045d 00       		.byte	0
 1414 045e 14       		.uleb128 0x14
 1415 045f 64000000 		.4byte	.LASF69
 1416 0463 01       		.byte	0x1
 1417 0464 9E       		.byte	0x9e
 1418 0465 01       		.byte	0x1
 1419 0466 AD040000 		.4byte	0x4ad
 1420 046a 10       		.uleb128 0x10
 1421 046b 77000000 		.4byte	.LASF42
ARM GAS  /tmp/cck4mDbc.s 			page 26


 1422 046f 01       		.byte	0x1
 1423 0470 9E       		.byte	0x9e
 1424 0471 9C030000 		.4byte	0x39c
 1425 0475 10       		.uleb128 0x10
 1426 0476 87030000 		.4byte	.LASF60
 1427 047a 01       		.byte	0x1
 1428 047b 9F       		.byte	0x9f
 1429 047c CA030000 		.4byte	0x3ca
 1430 0480 10       		.uleb128 0x10
 1431 0481 8E030000 		.4byte	.LASF65
 1432 0485 01       		.byte	0x1
 1433 0486 A0       		.byte	0xa0
 1434 0487 97000000 		.4byte	0x97
 1435 048b 12       		.uleb128 0x12
 1436 048c 05010000 		.4byte	.LASF70
 1437 0490 01       		.byte	0x1
 1438 0491 A2       		.byte	0xa2
 1439 0492 97000000 		.4byte	0x97
 1440 0496 12       		.uleb128 0x12
 1441 0497 A8020000 		.4byte	.LASF71
 1442 049b 01       		.byte	0x1
 1443 049c A3       		.byte	0xa3
 1444 049d 97000000 		.4byte	0x97
 1445 04a1 12       		.uleb128 0x12
 1446 04a2 E1020000 		.4byte	.LASF72
 1447 04a6 01       		.byte	0x1
 1448 04a7 A4       		.byte	0xa4
 1449 04a8 97000000 		.4byte	0x97
 1450 04ac 00       		.byte	0
 1451 04ad 14       		.uleb128 0x14
 1452 04ae C2040000 		.4byte	.LASF73
 1453 04b2 01       		.byte	0x1
 1454 04b3 C0       		.byte	0xc0
 1455 04b4 01       		.byte	0x1
 1456 04b5 DB040000 		.4byte	0x4db
 1457 04b9 10       		.uleb128 0x10
 1458 04ba 77000000 		.4byte	.LASF42
 1459 04be 01       		.byte	0x1
 1460 04bf C0       		.byte	0xc0
 1461 04c0 9C030000 		.4byte	0x39c
 1462 04c4 10       		.uleb128 0x10
 1463 04c5 87030000 		.4byte	.LASF60
 1464 04c9 01       		.byte	0x1
 1465 04ca C1       		.byte	0xc1
 1466 04cb CA030000 		.4byte	0x3ca
 1467 04cf 10       		.uleb128 0x10
 1468 04d0 8E030000 		.4byte	.LASF65
 1469 04d4 01       		.byte	0x1
 1470 04d5 C2       		.byte	0xc2
 1471 04d6 97000000 		.4byte	0x97
 1472 04da 00       		.byte	0
 1473 04db 15       		.uleb128 0x15
 1474 04dc AF030000 		.4byte	.LASF82
 1475 04e0 01       		.byte	0x1
 1476 04e1 48       		.byte	0x48
 1477 04e2 00000000 		.4byte	.LFB112
 1478 04e6 6C000000 		.4byte	.LFE112-.LFB112
ARM GAS  /tmp/cck4mDbc.s 			page 27


 1479 04ea 01       		.uleb128 0x1
 1480 04eb 9C       		.byte	0x9c
 1481 04ec 5B050000 		.4byte	0x55b
 1482 04f0 16       		.uleb128 0x16
 1483 04f1 87030000 		.4byte	.LASF60
 1484 04f5 01       		.byte	0x1
 1485 04f6 48       		.byte	0x48
 1486 04f7 CA030000 		.4byte	0x3ca
 1487 04fb 00000000 		.4byte	.LLST0
 1488 04ff 16       		.uleb128 0x16
 1489 0500 D4000000 		.4byte	.LASF61
 1490 0504 01       		.byte	0x1
 1491 0505 48       		.byte	0x48
 1492 0506 AD000000 		.4byte	0xad
 1493 050a 1E000000 		.4byte	.LLST1
 1494 050e 16       		.uleb128 0x16
 1495 050f C6000000 		.4byte	.LASF66
 1496 0513 01       		.byte	0x1
 1497 0514 49       		.byte	0x49
 1498 0515 97000000 		.4byte	0x97
 1499 0519 47000000 		.4byte	.LLST2
 1500 051d 17       		.uleb128 0x17
 1501 051e 31040000 		.4byte	.LASF76
 1502 0522 01       		.byte	0x1
 1503 0523 4B       		.byte	0x4b
 1504 0524 97000000 		.4byte	0x97
 1505 0528 68000000 		.4byte	.LLST3
 1506 052c 18       		.uleb128 0x18
 1507 052d 30000000 		.4byte	.LVL6
 1508 0531 02       		.uleb128 0x2
 1509 0532 75       		.byte	0x75
 1510 0533 00       		.sleb128 0
 1511 0534 45050000 		.4byte	0x545
 1512 0538 19       		.uleb128 0x19
 1513 0539 01       		.uleb128 0x1
 1514 053a 53       		.byte	0x53
 1515 053b 02       		.uleb128 0x2
 1516 053c 78       		.byte	0x78
 1517 053d 00       		.sleb128 0
 1518 053e 19       		.uleb128 0x19
 1519 053f 01       		.uleb128 0x1
 1520 0540 52       		.byte	0x52
 1521 0541 02       		.uleb128 0x2
 1522 0542 79       		.byte	0x79
 1523 0543 00       		.sleb128 0
 1524 0544 00       		.byte	0
 1525 0545 1A       		.uleb128 0x1a
 1526 0546 60000000 		.4byte	.LVL10
 1527 054a 02       		.uleb128 0x2
 1528 054b 75       		.byte	0x75
 1529 054c 00       		.sleb128 0
 1530 054d 19       		.uleb128 0x19
 1531 054e 01       		.uleb128 0x1
 1532 054f 53       		.byte	0x53
 1533 0550 02       		.uleb128 0x2
 1534 0551 78       		.byte	0x78
 1535 0552 00       		.sleb128 0
ARM GAS  /tmp/cck4mDbc.s 			page 28


 1536 0553 19       		.uleb128 0x19
 1537 0554 01       		.uleb128 0x1
 1538 0555 52       		.byte	0x52
 1539 0556 02       		.uleb128 0x2
 1540 0557 76       		.byte	0x76
 1541 0558 00       		.sleb128 0
 1542 0559 00       		.byte	0
 1543 055a 00       		.byte	0
 1544 055b 1B       		.uleb128 0x1b
 1545 055c 49030000 		.4byte	0x349
 1546 0560 00000000 		.4byte	.LFB122
 1547 0564 38000000 		.4byte	.LFE122-.LFB122
 1548 0568 01       		.uleb128 0x1
 1549 0569 9C       		.byte	0x9c
 1550 056a BA050000 		.4byte	0x5ba
 1551 056e 1C       		.uleb128 0x1c
 1552 056f 64030000 		.4byte	0x364
 1553 0573 91000000 		.4byte	.LLST4
 1554 0577 1D       		.uleb128 0x1d
 1555 0578 59030000 		.4byte	0x359
 1556 057c 06       		.uleb128 0x6
 1557 057d FA       		.byte	0xfa
 1558 057e 59030000 		.4byte	0x359
 1559 0582 9F       		.byte	0x9f
 1560 0583 1D       		.uleb128 0x1d
 1561 0584 59030000 		.4byte	0x359
 1562 0588 06       		.uleb128 0x6
 1563 0589 FA       		.byte	0xfa
 1564 058a 59030000 		.4byte	0x359
 1565 058e 9F       		.byte	0x9f
 1566 058f 1E       		.uleb128 0x1e
 1567 0590 6F030000 		.4byte	0x36f
 1568 0594 B2000000 		.4byte	.LLST5
 1569 0598 1E       		.uleb128 0x1e
 1570 0599 78030000 		.4byte	0x378
 1571 059d DC000000 		.4byte	.LLST6
 1572 05a1 1E       		.uleb128 0x1e
 1573 05a2 83030000 		.4byte	0x383
 1574 05a6 3A010000 		.4byte	.LLST7
 1575 05aa 1F       		.uleb128 0x1f
 1576 05ab 00000000 		.4byte	.Ldebug_ranges0+0
 1577 05af 1E       		.uleb128 0x1e
 1578 05b0 8F030000 		.4byte	0x38f
 1579 05b4 65010000 		.4byte	.LLST8
 1580 05b8 00       		.byte	0
 1581 05b9 00       		.byte	0
 1582 05ba 1B       		.uleb128 0x1b
 1583 05bb AD040000 		.4byte	0x4ad
 1584 05bf 00000000 		.4byte	.LFB117
 1585 05c3 98010000 		.4byte	.LFE117-.LFB117
 1586 05c7 01       		.uleb128 0x1
 1587 05c8 9C       		.byte	0x9c
 1588 05c9 E2070000 		.4byte	0x7e2
 1589 05cd 1C       		.uleb128 0x1c
 1590 05ce B9040000 		.4byte	0x4b9
 1591 05d2 90010000 		.4byte	.LLST9
 1592 05d6 1C       		.uleb128 0x1c
ARM GAS  /tmp/cck4mDbc.s 			page 29


 1593 05d7 C4040000 		.4byte	0x4c4
 1594 05db 0F020000 		.4byte	.LLST10
 1595 05df 1C       		.uleb128 0x1c
 1596 05e0 CF040000 		.4byte	0x4cf
 1597 05e4 B7020000 		.4byte	.LLST11
 1598 05e8 20       		.uleb128 0x20
 1599 05e9 5E040000 		.4byte	0x45e
 1600 05ed 1E000000 		.4byte	.LBB41
 1601 05f1 18000000 		.4byte	.Ldebug_ranges0+0x18
 1602 05f5 01       		.byte	0x1
 1603 05f6 D7       		.byte	0xd7
 1604 05f7 AC060000 		.4byte	0x6ac
 1605 05fb 1C       		.uleb128 0x1c
 1606 05fc 6A040000 		.4byte	0x46a
 1607 0600 2E030000 		.4byte	.LLST12
 1608 0604 1C       		.uleb128 0x1c
 1609 0605 80040000 		.4byte	0x480
 1610 0609 73030000 		.4byte	.LLST13
 1611 060d 1C       		.uleb128 0x1c
 1612 060e 75040000 		.4byte	0x475
 1613 0612 A9030000 		.4byte	.LLST14
 1614 0616 1F       		.uleb128 0x1f
 1615 0617 18000000 		.4byte	.Ldebug_ranges0+0x18
 1616 061b 1E       		.uleb128 0x1e
 1617 061c 8B040000 		.4byte	0x48b
 1618 0620 01040000 		.4byte	.LLST15
 1619 0624 1E       		.uleb128 0x1e
 1620 0625 96040000 		.4byte	0x496
 1621 0629 40040000 		.4byte	.LLST16
 1622 062d 1E       		.uleb128 0x1e
 1623 062e A1040000 		.4byte	0x4a1
 1624 0632 74040000 		.4byte	.LLST17
 1625 0636 20       		.uleb128 0x20
 1626 0637 42040000 		.4byte	0x442
 1627 063b 1E000000 		.4byte	.LBB43
 1628 063f 40000000 		.4byte	.Ldebug_ranges0+0x40
 1629 0643 01       		.byte	0x1
 1630 0644 A2       		.byte	0xa2
 1631 0645 53060000 		.4byte	0x653
 1632 0649 1C       		.uleb128 0x1c
 1633 064a 52040000 		.4byte	0x452
 1634 064e 73030000 		.4byte	.LLST13
 1635 0652 00       		.byte	0
 1636 0653 20       		.uleb128 0x20
 1637 0654 A7030000 		.4byte	0x3a7
 1638 0658 42000000 		.4byte	.LBB47
 1639 065c 60000000 		.4byte	.Ldebug_ranges0+0x60
 1640 0660 01       		.byte	0x1
 1641 0661 B5       		.byte	0xb5
 1642 0662 79060000 		.4byte	0x679
 1643 0666 1C       		.uleb128 0x1c
 1644 0667 BE030000 		.4byte	0x3be
 1645 066b E4040000 		.4byte	.LLST19
 1646 066f 1C       		.uleb128 0x1c
 1647 0670 B3030000 		.4byte	0x3b3
 1648 0674 F8040000 		.4byte	.LLST20
 1649 0678 00       		.byte	0
ARM GAS  /tmp/cck4mDbc.s 			page 30


 1650 0679 21       		.uleb128 0x21
 1651 067a 88000000 		.4byte	.LVL40
 1652 067e DB040000 		.4byte	0x4db
 1653 0682 94060000 		.4byte	0x694
 1654 0686 19       		.uleb128 0x19
 1655 0687 01       		.uleb128 0x1
 1656 0688 52       		.byte	0x52
 1657 0689 02       		.uleb128 0x2
 1658 068a 09       		.byte	0x9
 1659 068b FF       		.byte	0xff
 1660 068c 19       		.uleb128 0x19
 1661 068d 01       		.uleb128 0x1
 1662 068e 50       		.byte	0x50
 1663 068f 03       		.uleb128 0x3
 1664 0690 F3       		.byte	0xf3
 1665 0691 01       		.uleb128 0x1
 1666 0692 51       		.byte	0x51
 1667 0693 00       		.byte	0
 1668 0694 22       		.uleb128 0x22
 1669 0695 BC000000 		.4byte	.LVL48
 1670 0699 DB040000 		.4byte	0x4db
 1671 069d 19       		.uleb128 0x19
 1672 069e 01       		.uleb128 0x1
 1673 069f 52       		.byte	0x52
 1674 06a0 02       		.uleb128 0x2
 1675 06a1 09       		.byte	0x9
 1676 06a2 FF       		.byte	0xff
 1677 06a3 19       		.uleb128 0x19
 1678 06a4 01       		.uleb128 0x1
 1679 06a5 50       		.byte	0x50
 1680 06a6 02       		.uleb128 0x2
 1681 06a7 75       		.byte	0x75
 1682 06a8 00       		.sleb128 0
 1683 06a9 00       		.byte	0
 1684 06aa 00       		.byte	0
 1685 06ab 00       		.byte	0
 1686 06ac 23       		.uleb128 0x23
 1687 06ad C8000000 		.4byte	.LBB58
 1688 06b1 C4000000 		.4byte	.LBE58-.LBB58
 1689 06b5 CB070000 		.4byte	0x7cb
 1690 06b9 1C       		.uleb128 0x1c
 1691 06ba CF040000 		.4byte	0x4cf
 1692 06be 0B050000 		.4byte	.LLST21
 1693 06c2 1C       		.uleb128 0x1c
 1694 06c3 C4040000 		.4byte	0x4c4
 1695 06c7 2B050000 		.4byte	.LLST22
 1696 06cb 1C       		.uleb128 0x1c
 1697 06cc B9040000 		.4byte	0x4b9
 1698 06d0 49050000 		.4byte	.LLST23
 1699 06d4 24       		.uleb128 0x24
 1700 06d5 D0030000 		.4byte	0x3d0
 1701 06d9 CC000000 		.4byte	.LBB60
 1702 06dd C0000000 		.4byte	.LBE60-.LBB60
 1703 06e1 01       		.byte	0x1
 1704 06e2 D3       		.byte	0xd3
 1705 06e3 1C       		.uleb128 0x1c
 1706 06e4 DC030000 		.4byte	0x3dc
ARM GAS  /tmp/cck4mDbc.s 			page 31


 1707 06e8 67050000 		.4byte	.LLST24
 1708 06ec 1C       		.uleb128 0x1c
 1709 06ed DC030000 		.4byte	0x3dc
 1710 06f1 67050000 		.4byte	.LLST24
 1711 06f5 1C       		.uleb128 0x1c
 1712 06f6 F2030000 		.4byte	0x3f2
 1713 06fa 85050000 		.4byte	.LLST26
 1714 06fe 1C       		.uleb128 0x1c
 1715 06ff E7030000 		.4byte	0x3e7
 1716 0703 98050000 		.4byte	.LLST27
 1717 0707 25       		.uleb128 0x25
 1718 0708 CC000000 		.4byte	.LBB61
 1719 070c C0000000 		.4byte	.LBE61-.LBB61
 1720 0710 26       		.uleb128 0x26
 1721 0711 FD030000 		.4byte	0x3fd
 1722 0715 1E       		.uleb128 0x1e
 1723 0716 08040000 		.4byte	0x408
 1724 071a B6050000 		.4byte	.LLST28
 1725 071e 1E       		.uleb128 0x1e
 1726 071f 13040000 		.4byte	0x413
 1727 0723 D6050000 		.4byte	.LLST29
 1728 0727 1F       		.uleb128 0x1f
 1729 0728 78000000 		.4byte	.Ldebug_ranges0+0x78
 1730 072c 1E       		.uleb128 0x1e
 1731 072d 1D040000 		.4byte	0x41d
 1732 0731 EA050000 		.4byte	.LLST30
 1733 0735 27       		.uleb128 0x27
 1734 0736 A7030000 		.4byte	0x3a7
 1735 073a F0000000 		.4byte	.LBB63
 1736 073e 2E000000 		.4byte	.LBE63-.LBB63
 1737 0742 01       		.byte	0x1
 1738 0743 78       		.byte	0x78
 1739 0744 5B070000 		.4byte	0x75b
 1740 0748 1C       		.uleb128 0x1c
 1741 0749 BE030000 		.4byte	0x3be
 1742 074d 32060000 		.4byte	.LLST31
 1743 0751 1C       		.uleb128 0x1c
 1744 0752 B3030000 		.4byte	0x3b3
 1745 0756 60060000 		.4byte	.LLST32
 1746 075a 00       		.byte	0
 1747 075b 23       		.uleb128 0x23
 1748 075c 32010000 		.4byte	.LBB65
 1749 0760 18000000 		.4byte	.LBE65-.LBB65
 1750 0764 8B070000 		.4byte	0x78b
 1751 0768 1E       		.uleb128 0x1e
 1752 0769 29040000 		.4byte	0x429
 1753 076d 73060000 		.4byte	.LLST33
 1754 0771 1E       		.uleb128 0x1e
 1755 0772 34040000 		.4byte	0x434
 1756 0776 8F060000 		.4byte	.LLST34
 1757 077a 22       		.uleb128 0x22
 1758 077b 48010000 		.4byte	.LVL66
 1759 077f DB040000 		.4byte	0x4db
 1760 0783 19       		.uleb128 0x19
 1761 0784 01       		.uleb128 0x1
 1762 0785 50       		.byte	0x50
 1763 0786 02       		.uleb128 0x2
ARM GAS  /tmp/cck4mDbc.s 			page 32


 1764 0787 75       		.byte	0x75
 1765 0788 00       		.sleb128 0
 1766 0789 00       		.byte	0
 1767 078a 00       		.byte	0
 1768 078b 20       		.uleb128 0x20
 1769 078c A7030000 		.4byte	0x3a7
 1770 0790 4A010000 		.4byte	.LBB66
 1771 0794 90000000 		.4byte	.Ldebug_ranges0+0x90
 1772 0798 01       		.byte	0x1
 1773 0799 7C       		.byte	0x7c
 1774 079a B1070000 		.4byte	0x7b1
 1775 079e 1C       		.uleb128 0x1c
 1776 079f BE030000 		.4byte	0x3be
 1777 07a3 A8060000 		.4byte	.LLST35
 1778 07a7 1C       		.uleb128 0x1c
 1779 07a8 B3030000 		.4byte	0x3b3
 1780 07ac E4060000 		.4byte	.LLST36
 1781 07b0 00       		.byte	0
 1782 07b1 22       		.uleb128 0x22
 1783 07b2 8A010000 		.4byte	.LVL71
 1784 07b6 DB040000 		.4byte	0x4db
 1785 07ba 19       		.uleb128 0x19
 1786 07bb 01       		.uleb128 0x1
 1787 07bc 52       		.byte	0x52
 1788 07bd 02       		.uleb128 0x2
 1789 07be 09       		.byte	0x9
 1790 07bf FF       		.byte	0xff
 1791 07c0 19       		.uleb128 0x19
 1792 07c1 01       		.uleb128 0x1
 1793 07c2 50       		.byte	0x50
 1794 07c3 02       		.uleb128 0x2
 1795 07c4 75       		.byte	0x75
 1796 07c5 00       		.sleb128 0
 1797 07c6 00       		.byte	0
 1798 07c7 00       		.byte	0
 1799 07c8 00       		.byte	0
 1800 07c9 00       		.byte	0
 1801 07ca 00       		.byte	0
 1802 07cb 28       		.uleb128 0x28
 1803 07cc 9E000000 		.4byte	.LVL46
 1804 07d0 DB040000 		.4byte	0x4db
 1805 07d4 19       		.uleb128 0x19
 1806 07d5 01       		.uleb128 0x1
 1807 07d6 51       		.byte	0x51
 1808 07d7 01       		.uleb128 0x1
 1809 07d8 31       		.byte	0x31
 1810 07d9 19       		.uleb128 0x19
 1811 07da 01       		.uleb128 0x1
 1812 07db 50       		.byte	0x50
 1813 07dc 03       		.uleb128 0x3
 1814 07dd F3       		.byte	0xf3
 1815 07de 01       		.uleb128 0x1
 1816 07df 51       		.byte	0x51
 1817 07e0 00       		.byte	0
 1818 07e1 00       		.byte	0
 1819 07e2 14       		.uleb128 0x14
 1820 07e3 38040000 		.4byte	.LASF74
ARM GAS  /tmp/cck4mDbc.s 			page 33


 1821 07e7 01       		.byte	0x1
 1822 07e8 EC       		.byte	0xec
 1823 07e9 01       		.byte	0x1
 1824 07ea 10080000 		.4byte	0x810
 1825 07ee 10       		.uleb128 0x10
 1826 07ef 77000000 		.4byte	.LASF42
 1827 07f3 01       		.byte	0x1
 1828 07f4 EC       		.byte	0xec
 1829 07f5 9C030000 		.4byte	0x39c
 1830 07f9 10       		.uleb128 0x10
 1831 07fa 87030000 		.4byte	.LASF60
 1832 07fe 01       		.byte	0x1
 1833 07ff ED       		.byte	0xed
 1834 0800 CA030000 		.4byte	0x3ca
 1835 0804 10       		.uleb128 0x10
 1836 0805 8E030000 		.4byte	.LASF65
 1837 0809 01       		.byte	0x1
 1838 080a EE       		.byte	0xee
 1839 080b 97000000 		.4byte	0x97
 1840 080f 00       		.byte	0
 1841 0810 14       		.uleb128 0x14
 1842 0811 94020000 		.4byte	.LASF75
 1843 0815 01       		.byte	0x1
 1844 0816 DC       		.byte	0xdc
 1845 0817 01       		.byte	0x1
 1846 0818 6A080000 		.4byte	0x86a
 1847 081c 10       		.uleb128 0x10
 1848 081d 77000000 		.4byte	.LASF42
 1849 0821 01       		.byte	0x1
 1850 0822 DC       		.byte	0xdc
 1851 0823 9C030000 		.4byte	0x39c
 1852 0827 10       		.uleb128 0x10
 1853 0828 87030000 		.4byte	.LASF60
 1854 082c 01       		.byte	0x1
 1855 082d DD       		.byte	0xdd
 1856 082e CA030000 		.4byte	0x3ca
 1857 0832 10       		.uleb128 0x10
 1858 0833 30000000 		.4byte	.LASF57
 1859 0837 01       		.byte	0x1
 1860 0838 DE       		.byte	0xde
 1861 0839 97000000 		.4byte	0x97
 1862 083d 12       		.uleb128 0x12
 1863 083e 6B020000 		.4byte	.LASF59
 1864 0842 01       		.byte	0x1
 1865 0843 E0       		.byte	0xe0
 1866 0844 AD000000 		.4byte	0xad
 1867 0848 12       		.uleb128 0x12
 1868 0849 CF020000 		.4byte	.LASF64
 1869 084d 01       		.byte	0x1
 1870 084e E1       		.byte	0xe1
 1871 084f AD000000 		.4byte	0xad
 1872 0853 11       		.uleb128 0x11
 1873 0854 6900     		.ascii	"i\000"
 1874 0856 01       		.byte	0x1
 1875 0857 E2       		.byte	0xe2
 1876 0858 AD000000 		.4byte	0xad
 1877 085c 13       		.uleb128 0x13
ARM GAS  /tmp/cck4mDbc.s 			page 34


 1878 085d 12       		.uleb128 0x12
 1879 085e 8E030000 		.4byte	.LASF65
 1880 0862 01       		.byte	0x1
 1881 0863 E6       		.byte	0xe6
 1882 0864 97000000 		.4byte	0x97
 1883 0868 00       		.byte	0
 1884 0869 00       		.byte	0
 1885 086a 29       		.uleb128 0x29
 1886 086b 93030000 		.4byte	.LASF77
 1887 086f 01       		.byte	0x1
 1888 0870 FC       		.byte	0xfc
 1889 0871 97000000 		.4byte	0x97
 1890 0875 00000000 		.4byte	.LFB120
 1891 0879 CA000000 		.4byte	.LFE120-.LFB120
 1892 087d 01       		.uleb128 0x1
 1893 087e 9C       		.byte	0x9c
 1894 087f DF090000 		.4byte	0x9df
 1895 0883 16       		.uleb128 0x16
 1896 0884 77000000 		.4byte	.LASF42
 1897 0888 01       		.byte	0x1
 1898 0889 FC       		.byte	0xfc
 1899 088a FA000000 		.4byte	0xfa
 1900 088e F7060000 		.4byte	.LLST37
 1901 0892 2A       		.uleb128 0x2a
 1902 0893 783000   		.ascii	"x0\000"
 1903 0896 01       		.byte	0x1
 1904 0897 FD       		.byte	0xfd
 1905 0898 A2000000 		.4byte	0xa2
 1906 089c 15070000 		.4byte	.LLST38
 1907 08a0 2A       		.uleb128 0x2a
 1908 08a1 793000   		.ascii	"y0\000"
 1909 08a4 01       		.byte	0x1
 1910 08a5 FD       		.byte	0xfd
 1911 08a6 A2000000 		.4byte	0xa2
 1912 08aa 36070000 		.4byte	.LLST39
 1913 08ae 16       		.uleb128 0x16
 1914 08af 73040000 		.4byte	.LASF56
 1915 08b3 01       		.byte	0x1
 1916 08b4 FE       		.byte	0xfe
 1917 08b5 AD000000 		.4byte	0xad
 1918 08b9 63070000 		.4byte	.LLST40
 1919 08bd 2B       		.uleb128 0x2b
 1920 08be 5F050000 		.4byte	.LASF54
 1921 08c2 01       		.byte	0x1
 1922 08c3 FF       		.byte	0xff
 1923 08c4 B9010000 		.4byte	0x1b9
 1924 08c8 02       		.uleb128 0x2
 1925 08c9 91       		.byte	0x91
 1926 08ca 00       		.sleb128 0
 1927 08cb 2C       		.uleb128 0x2c
 1928 08cc 2A000000 		.4byte	.LASF55
 1929 08d0 01       		.byte	0x1
 1930 08d1 0001     		.2byte	0x100
 1931 08d3 CA000000 		.4byte	0xca
 1932 08d7 02       		.uleb128 0x2
 1933 08d8 91       		.byte	0x91
 1934 08d9 04       		.sleb128 4
ARM GAS  /tmp/cck4mDbc.s 			page 35


 1935 08da 2D       		.uleb128 0x2d
 1936 08db 7000     		.ascii	"p\000"
 1937 08dd 01       		.byte	0x1
 1938 08de 0201     		.2byte	0x102
 1939 08e0 E5000000 		.4byte	0xe5
 1940 08e4 84070000 		.4byte	.LLST41
 1941 08e8 2E       		.uleb128 0x2e
 1942 08e9 9A040000 		.4byte	.LASF22
 1943 08ed 01       		.byte	0x1
 1944 08ee 0301     		.2byte	0x103
 1945 08f0 97000000 		.4byte	0x97
 1946 08f4 CB070000 		.4byte	.LLST42
 1947 08f8 2F       		.uleb128 0x2f
 1948 08f9 87030000 		.4byte	.LASF60
 1949 08fd 01       		.byte	0x1
 1950 08fe 0501     		.2byte	0x105
 1951 0900 EC020000 		.4byte	0x2ec
 1952 0904 02       		.uleb128 0x2
 1953 0905 91       		.byte	0x91
 1954 0906 4C       		.sleb128 -52
 1955 0907 30       		.uleb128 0x30
 1956 0908 E2070000 		.4byte	0x7e2
 1957 090c 58000000 		.4byte	.LBB77
 1958 0910 A8000000 		.4byte	.Ldebug_ranges0+0xa8
 1959 0914 01       		.byte	0x1
 1960 0915 1501     		.2byte	0x115
 1961 0917 C6090000 		.4byte	0x9c6
 1962 091b 1C       		.uleb128 0x1c
 1963 091c 04080000 		.4byte	0x804
 1964 0920 EA070000 		.4byte	.LLST43
 1965 0924 1C       		.uleb128 0x1c
 1966 0925 F9070000 		.4byte	0x7f9
 1967 0929 0A080000 		.4byte	.LLST44
 1968 092d 1C       		.uleb128 0x1c
 1969 092e EE070000 		.4byte	0x7ee
 1970 0932 5C080000 		.4byte	.LLST45
 1971 0936 20       		.uleb128 0x20
 1972 0937 10080000 		.4byte	0x810
 1973 093b 58000000 		.4byte	.LBB79
 1974 093f D0000000 		.4byte	.Ldebug_ranges0+0xd0
 1975 0943 01       		.byte	0x1
 1976 0944 F3       		.byte	0xf3
 1977 0945 AF090000 		.4byte	0x9af
 1978 0949 1C       		.uleb128 0x1c
 1979 094a 32080000 		.4byte	0x832
 1980 094e 7A080000 		.4byte	.LLST46
 1981 0952 1C       		.uleb128 0x1c
 1982 0953 27080000 		.4byte	0x827
 1983 0957 A1080000 		.4byte	.LLST47
 1984 095b 1C       		.uleb128 0x1c
 1985 095c 1C080000 		.4byte	0x81c
 1986 0960 CE080000 		.4byte	.LLST48
 1987 0964 1F       		.uleb128 0x1f
 1988 0965 D0000000 		.4byte	.Ldebug_ranges0+0xd0
 1989 0969 1E       		.uleb128 0x1e
 1990 096a 3D080000 		.4byte	0x83d
 1991 096e E1080000 		.4byte	.LLST49
ARM GAS  /tmp/cck4mDbc.s 			page 36


 1992 0972 1E       		.uleb128 0x1e
 1993 0973 48080000 		.4byte	0x848
 1994 0977 15090000 		.4byte	.LLST50
 1995 097b 1E       		.uleb128 0x1e
 1996 097c 53080000 		.4byte	0x853
 1997 0980 28090000 		.4byte	.LLST51
 1998 0984 25       		.uleb128 0x25
 1999 0985 AE000000 		.4byte	.LBB81
 2000 0989 0E000000 		.4byte	.LBE81-.LBB81
 2001 098d 1E       		.uleb128 0x1e
 2002 098e 5D080000 		.4byte	0x85d
 2003 0992 3C090000 		.4byte	.LLST52
 2004 0996 22       		.uleb128 0x22
 2005 0997 BC000000 		.4byte	.LVL93
 2006 099b AD040000 		.4byte	0x4ad
 2007 099f 19       		.uleb128 0x19
 2008 09a0 01       		.uleb128 0x1
 2009 09a1 51       		.byte	0x51
 2010 09a2 02       		.uleb128 0x2
 2011 09a3 91       		.byte	0x91
 2012 09a4 4C       		.sleb128 -52
 2013 09a5 19       		.uleb128 0x19
 2014 09a6 01       		.uleb128 0x1
 2015 09a7 50       		.byte	0x50
 2016 09a8 02       		.uleb128 0x2
 2017 09a9 74       		.byte	0x74
 2018 09aa 00       		.sleb128 0
 2019 09ab 00       		.byte	0
 2020 09ac 00       		.byte	0
 2021 09ad 00       		.byte	0
 2022 09ae 00       		.byte	0
 2023 09af 22       		.uleb128 0x22
 2024 09b0 64000000 		.4byte	.LVL82
 2025 09b4 AD040000 		.4byte	0x4ad
 2026 09b8 19       		.uleb128 0x19
 2027 09b9 01       		.uleb128 0x1
 2028 09ba 51       		.byte	0x51
 2029 09bb 02       		.uleb128 0x2
 2030 09bc 91       		.byte	0x91
 2031 09bd 4C       		.sleb128 -52
 2032 09be 19       		.uleb128 0x19
 2033 09bf 01       		.uleb128 0x1
 2034 09c0 50       		.byte	0x50
 2035 09c1 02       		.uleb128 0x2
 2036 09c2 74       		.byte	0x74
 2037 09c3 00       		.sleb128 0
 2038 09c4 00       		.byte	0
 2039 09c5 00       		.byte	0
 2040 09c6 22       		.uleb128 0x22
 2041 09c7 46000000 		.4byte	.LVL77
 2042 09cb 5B050000 		.4byte	0x55b
 2043 09cf 19       		.uleb128 0x19
 2044 09d0 01       		.uleb128 0x1
 2045 09d1 51       		.byte	0x51
 2046 09d2 02       		.uleb128 0x2
 2047 09d3 74       		.byte	0x74
 2048 09d4 2C       		.sleb128 44
ARM GAS  /tmp/cck4mDbc.s 			page 37


 2049 09d5 31       		.uleb128 0x31
 2050 09d6 59030000 		.4byte	0x359
 2051 09da 02       		.uleb128 0x2
 2052 09db 74       		.byte	0x74
 2053 09dc 00       		.sleb128 0
 2054 09dd 00       		.byte	0
 2055 09de 00       		.byte	0
 2056 09df 32       		.uleb128 0x32
 2057 09e0 40000000 		.4byte	.LASF78
 2058 09e4 01       		.byte	0x1
 2059 09e5 1B01     		.2byte	0x11b
 2060 09e7 97000000 		.4byte	0x97
 2061 09eb 00000000 		.4byte	.LFB121
 2062 09ef 18000000 		.4byte	.LFE121-.LFB121
 2063 09f3 01       		.uleb128 0x1
 2064 09f4 9C       		.byte	0x9c
 2065 09f5 440A0000 		.4byte	0xa44
 2066 09f9 33       		.uleb128 0x33
 2067 09fa 77000000 		.4byte	.LASF42
 2068 09fe 01       		.byte	0x1
 2069 09ff 1B01     		.2byte	0x11b
 2070 0a01 FA000000 		.4byte	0xfa
 2071 0a05 66090000 		.4byte	.LLST53
 2072 0a09 33       		.uleb128 0x33
 2073 0a0a 73040000 		.4byte	.LASF56
 2074 0a0e 01       		.byte	0x1
 2075 0a0f 1C01     		.2byte	0x11c
 2076 0a11 AD000000 		.4byte	0xad
 2077 0a15 92090000 		.4byte	.LLST54
 2078 0a19 2D       		.uleb128 0x2d
 2079 0a1a 7000     		.ascii	"p\000"
 2080 0a1c 01       		.byte	0x1
 2081 0a1d 1E01     		.2byte	0x11e
 2082 0a1f E5000000 		.4byte	0xe5
 2083 0a23 B3090000 		.4byte	.LLST55
 2084 0a27 22       		.uleb128 0x22
 2085 0a28 12000000 		.4byte	.LVL99
 2086 0a2c 5B050000 		.4byte	0x55b
 2087 0a30 19       		.uleb128 0x19
 2088 0a31 01       		.uleb128 0x1
 2089 0a32 51       		.byte	0x51
 2090 0a33 05       		.uleb128 0x5
 2091 0a34 F3       		.byte	0xf3
 2092 0a35 01       		.uleb128 0x1
 2093 0a36 50       		.byte	0x50
 2094 0a37 23       		.byte	0x23
 2095 0a38 2C       		.uleb128 0x2c
 2096 0a39 31       		.uleb128 0x31
 2097 0a3a 59030000 		.4byte	0x359
 2098 0a3e 03       		.uleb128 0x3
 2099 0a3f F3       		.byte	0xf3
 2100 0a40 01       		.uleb128 0x1
 2101 0a41 50       		.byte	0x50
 2102 0a42 00       		.byte	0
 2103 0a43 00       		.byte	0
 2104 0a44 34       		.uleb128 0x34
 2105 0a45 08050000 		.4byte	.LASF83
ARM GAS  /tmp/cck4mDbc.s 			page 38


 2106 0a49 07       		.byte	0x7
 2107 0a4a 9806     		.2byte	0x698
 2108 0a4c F0000000 		.4byte	0xf0
 2109 0a50 00       		.byte	0
 2110              		.section	.debug_abbrev,"",%progbits
 2111              	.Ldebug_abbrev0:
 2112 0000 01       		.uleb128 0x1
 2113 0001 11       		.uleb128 0x11
 2114 0002 01       		.byte	0x1
 2115 0003 25       		.uleb128 0x25
 2116 0004 0E       		.uleb128 0xe
 2117 0005 13       		.uleb128 0x13
 2118 0006 0B       		.uleb128 0xb
 2119 0007 03       		.uleb128 0x3
 2120 0008 0E       		.uleb128 0xe
 2121 0009 1B       		.uleb128 0x1b
 2122 000a 0E       		.uleb128 0xe
 2123 000b 55       		.uleb128 0x55
 2124 000c 17       		.uleb128 0x17
 2125 000d 11       		.uleb128 0x11
 2126 000e 01       		.uleb128 0x1
 2127 000f 10       		.uleb128 0x10
 2128 0010 17       		.uleb128 0x17
 2129 0011 00       		.byte	0
 2130 0012 00       		.byte	0
 2131 0013 02       		.uleb128 0x2
 2132 0014 24       		.uleb128 0x24
 2133 0015 00       		.byte	0
 2134 0016 0B       		.uleb128 0xb
 2135 0017 0B       		.uleb128 0xb
 2136 0018 3E       		.uleb128 0x3e
 2137 0019 0B       		.uleb128 0xb
 2138 001a 03       		.uleb128 0x3
 2139 001b 08       		.uleb128 0x8
 2140 001c 00       		.byte	0
 2141 001d 00       		.byte	0
 2142 001e 03       		.uleb128 0x3
 2143 001f 24       		.uleb128 0x24
 2144 0020 00       		.byte	0
 2145 0021 0B       		.uleb128 0xb
 2146 0022 0B       		.uleb128 0xb
 2147 0023 3E       		.uleb128 0x3e
 2148 0024 0B       		.uleb128 0xb
 2149 0025 03       		.uleb128 0x3
 2150 0026 0E       		.uleb128 0xe
 2151 0027 00       		.byte	0
 2152 0028 00       		.byte	0
 2153 0029 04       		.uleb128 0x4
 2154 002a 16       		.uleb128 0x16
 2155 002b 00       		.byte	0
 2156 002c 03       		.uleb128 0x3
 2157 002d 0E       		.uleb128 0xe
 2158 002e 3A       		.uleb128 0x3a
 2159 002f 0B       		.uleb128 0xb
 2160 0030 3B       		.uleb128 0x3b
 2161 0031 0B       		.uleb128 0xb
 2162 0032 49       		.uleb128 0x49
ARM GAS  /tmp/cck4mDbc.s 			page 39


 2163 0033 13       		.uleb128 0x13
 2164 0034 00       		.byte	0
 2165 0035 00       		.byte	0
 2166 0036 05       		.uleb128 0x5
 2167 0037 0F       		.uleb128 0xf
 2168 0038 00       		.byte	0
 2169 0039 0B       		.uleb128 0xb
 2170 003a 0B       		.uleb128 0xb
 2171 003b 00       		.byte	0
 2172 003c 00       		.byte	0
 2173 003d 06       		.uleb128 0x6
 2174 003e 0F       		.uleb128 0xf
 2175 003f 00       		.byte	0
 2176 0040 0B       		.uleb128 0xb
 2177 0041 0B       		.uleb128 0xb
 2178 0042 49       		.uleb128 0x49
 2179 0043 13       		.uleb128 0x13
 2180 0044 00       		.byte	0
 2181 0045 00       		.byte	0
 2182 0046 07       		.uleb128 0x7
 2183 0047 26       		.uleb128 0x26
 2184 0048 00       		.byte	0
 2185 0049 49       		.uleb128 0x49
 2186 004a 13       		.uleb128 0x13
 2187 004b 00       		.byte	0
 2188 004c 00       		.byte	0
 2189 004d 08       		.uleb128 0x8
 2190 004e 35       		.uleb128 0x35
 2191 004f 00       		.byte	0
 2192 0050 49       		.uleb128 0x49
 2193 0051 13       		.uleb128 0x13
 2194 0052 00       		.byte	0
 2195 0053 00       		.byte	0
 2196 0054 09       		.uleb128 0x9
 2197 0055 13       		.uleb128 0x13
 2198 0056 01       		.byte	0x1
 2199 0057 03       		.uleb128 0x3
 2200 0058 0E       		.uleb128 0xe
 2201 0059 0B       		.uleb128 0xb
 2202 005a 0B       		.uleb128 0xb
 2203 005b 3A       		.uleb128 0x3a
 2204 005c 0B       		.uleb128 0xb
 2205 005d 3B       		.uleb128 0x3b
 2206 005e 0B       		.uleb128 0xb
 2207 005f 01       		.uleb128 0x1
 2208 0060 13       		.uleb128 0x13
 2209 0061 00       		.byte	0
 2210 0062 00       		.byte	0
 2211 0063 0A       		.uleb128 0xa
 2212 0064 0D       		.uleb128 0xd
 2213 0065 00       		.byte	0
 2214 0066 03       		.uleb128 0x3
 2215 0067 0E       		.uleb128 0xe
 2216 0068 3A       		.uleb128 0x3a
 2217 0069 0B       		.uleb128 0xb
 2218 006a 3B       		.uleb128 0x3b
 2219 006b 0B       		.uleb128 0xb
ARM GAS  /tmp/cck4mDbc.s 			page 40


 2220 006c 49       		.uleb128 0x49
 2221 006d 13       		.uleb128 0x13
 2222 006e 38       		.uleb128 0x38
 2223 006f 0B       		.uleb128 0xb
 2224 0070 00       		.byte	0
 2225 0071 00       		.byte	0
 2226 0072 0B       		.uleb128 0xb
 2227 0073 15       		.uleb128 0x15
 2228 0074 01       		.byte	0x1
 2229 0075 27       		.uleb128 0x27
 2230 0076 19       		.uleb128 0x19
 2231 0077 01       		.uleb128 0x1
 2232 0078 13       		.uleb128 0x13
 2233 0079 00       		.byte	0
 2234 007a 00       		.byte	0
 2235 007b 0C       		.uleb128 0xc
 2236 007c 05       		.uleb128 0x5
 2237 007d 00       		.byte	0
 2238 007e 49       		.uleb128 0x49
 2239 007f 13       		.uleb128 0x13
 2240 0080 00       		.byte	0
 2241 0081 00       		.byte	0
 2242 0082 0D       		.uleb128 0xd
 2243 0083 15       		.uleb128 0x15
 2244 0084 01       		.byte	0x1
 2245 0085 27       		.uleb128 0x27
 2246 0086 19       		.uleb128 0x19
 2247 0087 49       		.uleb128 0x49
 2248 0088 13       		.uleb128 0x13
 2249 0089 01       		.uleb128 0x1
 2250 008a 13       		.uleb128 0x13
 2251 008b 00       		.byte	0
 2252 008c 00       		.byte	0
 2253 008d 0E       		.uleb128 0xe
 2254 008e 0D       		.uleb128 0xd
 2255 008f 00       		.byte	0
 2256 0090 03       		.uleb128 0x3
 2257 0091 08       		.uleb128 0x8
 2258 0092 3A       		.uleb128 0x3a
 2259 0093 0B       		.uleb128 0xb
 2260 0094 3B       		.uleb128 0x3b
 2261 0095 0B       		.uleb128 0xb
 2262 0096 49       		.uleb128 0x49
 2263 0097 13       		.uleb128 0x13
 2264 0098 38       		.uleb128 0x38
 2265 0099 0B       		.uleb128 0xb
 2266 009a 00       		.byte	0
 2267 009b 00       		.byte	0
 2268 009c 0F       		.uleb128 0xf
 2269 009d 2E       		.uleb128 0x2e
 2270 009e 01       		.byte	0x1
 2271 009f 03       		.uleb128 0x3
 2272 00a0 0E       		.uleb128 0xe
 2273 00a1 3A       		.uleb128 0x3a
 2274 00a2 0B       		.uleb128 0xb
 2275 00a3 3B       		.uleb128 0x3b
 2276 00a4 0B       		.uleb128 0xb
ARM GAS  /tmp/cck4mDbc.s 			page 41


 2277 00a5 27       		.uleb128 0x27
 2278 00a6 19       		.uleb128 0x19
 2279 00a7 49       		.uleb128 0x49
 2280 00a8 13       		.uleb128 0x13
 2281 00a9 20       		.uleb128 0x20
 2282 00aa 0B       		.uleb128 0xb
 2283 00ab 01       		.uleb128 0x1
 2284 00ac 13       		.uleb128 0x13
 2285 00ad 00       		.byte	0
 2286 00ae 00       		.byte	0
 2287 00af 10       		.uleb128 0x10
 2288 00b0 05       		.uleb128 0x5
 2289 00b1 00       		.byte	0
 2290 00b2 03       		.uleb128 0x3
 2291 00b3 0E       		.uleb128 0xe
 2292 00b4 3A       		.uleb128 0x3a
 2293 00b5 0B       		.uleb128 0xb
 2294 00b6 3B       		.uleb128 0x3b
 2295 00b7 0B       		.uleb128 0xb
 2296 00b8 49       		.uleb128 0x49
 2297 00b9 13       		.uleb128 0x13
 2298 00ba 00       		.byte	0
 2299 00bb 00       		.byte	0
 2300 00bc 11       		.uleb128 0x11
 2301 00bd 34       		.uleb128 0x34
 2302 00be 00       		.byte	0
 2303 00bf 03       		.uleb128 0x3
 2304 00c0 08       		.uleb128 0x8
 2305 00c1 3A       		.uleb128 0x3a
 2306 00c2 0B       		.uleb128 0xb
 2307 00c3 3B       		.uleb128 0x3b
 2308 00c4 0B       		.uleb128 0xb
 2309 00c5 49       		.uleb128 0x49
 2310 00c6 13       		.uleb128 0x13
 2311 00c7 00       		.byte	0
 2312 00c8 00       		.byte	0
 2313 00c9 12       		.uleb128 0x12
 2314 00ca 34       		.uleb128 0x34
 2315 00cb 00       		.byte	0
 2316 00cc 03       		.uleb128 0x3
 2317 00cd 0E       		.uleb128 0xe
 2318 00ce 3A       		.uleb128 0x3a
 2319 00cf 0B       		.uleb128 0xb
 2320 00d0 3B       		.uleb128 0x3b
 2321 00d1 0B       		.uleb128 0xb
 2322 00d2 49       		.uleb128 0x49
 2323 00d3 13       		.uleb128 0x13
 2324 00d4 00       		.byte	0
 2325 00d5 00       		.byte	0
 2326 00d6 13       		.uleb128 0x13
 2327 00d7 0B       		.uleb128 0xb
 2328 00d8 01       		.byte	0x1
 2329 00d9 00       		.byte	0
 2330 00da 00       		.byte	0
 2331 00db 14       		.uleb128 0x14
 2332 00dc 2E       		.uleb128 0x2e
 2333 00dd 01       		.byte	0x1
ARM GAS  /tmp/cck4mDbc.s 			page 42


 2334 00de 03       		.uleb128 0x3
 2335 00df 0E       		.uleb128 0xe
 2336 00e0 3A       		.uleb128 0x3a
 2337 00e1 0B       		.uleb128 0xb
 2338 00e2 3B       		.uleb128 0x3b
 2339 00e3 0B       		.uleb128 0xb
 2340 00e4 27       		.uleb128 0x27
 2341 00e5 19       		.uleb128 0x19
 2342 00e6 20       		.uleb128 0x20
 2343 00e7 0B       		.uleb128 0xb
 2344 00e8 01       		.uleb128 0x1
 2345 00e9 13       		.uleb128 0x13
 2346 00ea 00       		.byte	0
 2347 00eb 00       		.byte	0
 2348 00ec 15       		.uleb128 0x15
 2349 00ed 2E       		.uleb128 0x2e
 2350 00ee 01       		.byte	0x1
 2351 00ef 03       		.uleb128 0x3
 2352 00f0 0E       		.uleb128 0xe
 2353 00f1 3A       		.uleb128 0x3a
 2354 00f2 0B       		.uleb128 0xb
 2355 00f3 3B       		.uleb128 0x3b
 2356 00f4 0B       		.uleb128 0xb
 2357 00f5 27       		.uleb128 0x27
 2358 00f6 19       		.uleb128 0x19
 2359 00f7 11       		.uleb128 0x11
 2360 00f8 01       		.uleb128 0x1
 2361 00f9 12       		.uleb128 0x12
 2362 00fa 06       		.uleb128 0x6
 2363 00fb 40       		.uleb128 0x40
 2364 00fc 18       		.uleb128 0x18
 2365 00fd 9742     		.uleb128 0x2117
 2366 00ff 19       		.uleb128 0x19
 2367 0100 01       		.uleb128 0x1
 2368 0101 13       		.uleb128 0x13
 2369 0102 00       		.byte	0
 2370 0103 00       		.byte	0
 2371 0104 16       		.uleb128 0x16
 2372 0105 05       		.uleb128 0x5
 2373 0106 00       		.byte	0
 2374 0107 03       		.uleb128 0x3
 2375 0108 0E       		.uleb128 0xe
 2376 0109 3A       		.uleb128 0x3a
 2377 010a 0B       		.uleb128 0xb
 2378 010b 3B       		.uleb128 0x3b
 2379 010c 0B       		.uleb128 0xb
 2380 010d 49       		.uleb128 0x49
 2381 010e 13       		.uleb128 0x13
 2382 010f 02       		.uleb128 0x2
 2383 0110 17       		.uleb128 0x17
 2384 0111 00       		.byte	0
 2385 0112 00       		.byte	0
 2386 0113 17       		.uleb128 0x17
 2387 0114 34       		.uleb128 0x34
 2388 0115 00       		.byte	0
 2389 0116 03       		.uleb128 0x3
 2390 0117 0E       		.uleb128 0xe
ARM GAS  /tmp/cck4mDbc.s 			page 43


 2391 0118 3A       		.uleb128 0x3a
 2392 0119 0B       		.uleb128 0xb
 2393 011a 3B       		.uleb128 0x3b
 2394 011b 0B       		.uleb128 0xb
 2395 011c 49       		.uleb128 0x49
 2396 011d 13       		.uleb128 0x13
 2397 011e 02       		.uleb128 0x2
 2398 011f 17       		.uleb128 0x17
 2399 0120 00       		.byte	0
 2400 0121 00       		.byte	0
 2401 0122 18       		.uleb128 0x18
 2402 0123 898201   		.uleb128 0x4109
 2403 0126 01       		.byte	0x1
 2404 0127 11       		.uleb128 0x11
 2405 0128 01       		.uleb128 0x1
 2406 0129 9342     		.uleb128 0x2113
 2407 012b 18       		.uleb128 0x18
 2408 012c 01       		.uleb128 0x1
 2409 012d 13       		.uleb128 0x13
 2410 012e 00       		.byte	0
 2411 012f 00       		.byte	0
 2412 0130 19       		.uleb128 0x19
 2413 0131 8A8201   		.uleb128 0x410a
 2414 0134 00       		.byte	0
 2415 0135 02       		.uleb128 0x2
 2416 0136 18       		.uleb128 0x18
 2417 0137 9142     		.uleb128 0x2111
 2418 0139 18       		.uleb128 0x18
 2419 013a 00       		.byte	0
 2420 013b 00       		.byte	0
 2421 013c 1A       		.uleb128 0x1a
 2422 013d 898201   		.uleb128 0x4109
 2423 0140 01       		.byte	0x1
 2424 0141 11       		.uleb128 0x11
 2425 0142 01       		.uleb128 0x1
 2426 0143 9342     		.uleb128 0x2113
 2427 0145 18       		.uleb128 0x18
 2428 0146 00       		.byte	0
 2429 0147 00       		.byte	0
 2430 0148 1B       		.uleb128 0x1b
 2431 0149 2E       		.uleb128 0x2e
 2432 014a 01       		.byte	0x1
 2433 014b 31       		.uleb128 0x31
 2434 014c 13       		.uleb128 0x13
 2435 014d 11       		.uleb128 0x11
 2436 014e 01       		.uleb128 0x1
 2437 014f 12       		.uleb128 0x12
 2438 0150 06       		.uleb128 0x6
 2439 0151 40       		.uleb128 0x40
 2440 0152 18       		.uleb128 0x18
 2441 0153 9742     		.uleb128 0x2117
 2442 0155 19       		.uleb128 0x19
 2443 0156 01       		.uleb128 0x1
 2444 0157 13       		.uleb128 0x13
 2445 0158 00       		.byte	0
 2446 0159 00       		.byte	0
 2447 015a 1C       		.uleb128 0x1c
ARM GAS  /tmp/cck4mDbc.s 			page 44


 2448 015b 05       		.uleb128 0x5
 2449 015c 00       		.byte	0
 2450 015d 31       		.uleb128 0x31
 2451 015e 13       		.uleb128 0x13
 2452 015f 02       		.uleb128 0x2
 2453 0160 17       		.uleb128 0x17
 2454 0161 00       		.byte	0
 2455 0162 00       		.byte	0
 2456 0163 1D       		.uleb128 0x1d
 2457 0164 05       		.uleb128 0x5
 2458 0165 00       		.byte	0
 2459 0166 31       		.uleb128 0x31
 2460 0167 13       		.uleb128 0x13
 2461 0168 02       		.uleb128 0x2
 2462 0169 18       		.uleb128 0x18
 2463 016a 00       		.byte	0
 2464 016b 00       		.byte	0
 2465 016c 1E       		.uleb128 0x1e
 2466 016d 34       		.uleb128 0x34
 2467 016e 00       		.byte	0
 2468 016f 31       		.uleb128 0x31
 2469 0170 13       		.uleb128 0x13
 2470 0171 02       		.uleb128 0x2
 2471 0172 17       		.uleb128 0x17
 2472 0173 00       		.byte	0
 2473 0174 00       		.byte	0
 2474 0175 1F       		.uleb128 0x1f
 2475 0176 0B       		.uleb128 0xb
 2476 0177 01       		.byte	0x1
 2477 0178 55       		.uleb128 0x55
 2478 0179 17       		.uleb128 0x17
 2479 017a 00       		.byte	0
 2480 017b 00       		.byte	0
 2481 017c 20       		.uleb128 0x20
 2482 017d 1D       		.uleb128 0x1d
 2483 017e 01       		.byte	0x1
 2484 017f 31       		.uleb128 0x31
 2485 0180 13       		.uleb128 0x13
 2486 0181 52       		.uleb128 0x52
 2487 0182 01       		.uleb128 0x1
 2488 0183 55       		.uleb128 0x55
 2489 0184 17       		.uleb128 0x17
 2490 0185 58       		.uleb128 0x58
 2491 0186 0B       		.uleb128 0xb
 2492 0187 59       		.uleb128 0x59
 2493 0188 0B       		.uleb128 0xb
 2494 0189 01       		.uleb128 0x1
 2495 018a 13       		.uleb128 0x13
 2496 018b 00       		.byte	0
 2497 018c 00       		.byte	0
 2498 018d 21       		.uleb128 0x21
 2499 018e 898201   		.uleb128 0x4109
 2500 0191 01       		.byte	0x1
 2501 0192 11       		.uleb128 0x11
 2502 0193 01       		.uleb128 0x1
 2503 0194 9542     		.uleb128 0x2115
 2504 0196 19       		.uleb128 0x19
ARM GAS  /tmp/cck4mDbc.s 			page 45


 2505 0197 31       		.uleb128 0x31
 2506 0198 13       		.uleb128 0x13
 2507 0199 01       		.uleb128 0x1
 2508 019a 13       		.uleb128 0x13
 2509 019b 00       		.byte	0
 2510 019c 00       		.byte	0
 2511 019d 22       		.uleb128 0x22
 2512 019e 898201   		.uleb128 0x4109
 2513 01a1 01       		.byte	0x1
 2514 01a2 11       		.uleb128 0x11
 2515 01a3 01       		.uleb128 0x1
 2516 01a4 31       		.uleb128 0x31
 2517 01a5 13       		.uleb128 0x13
 2518 01a6 00       		.byte	0
 2519 01a7 00       		.byte	0
 2520 01a8 23       		.uleb128 0x23
 2521 01a9 0B       		.uleb128 0xb
 2522 01aa 01       		.byte	0x1
 2523 01ab 11       		.uleb128 0x11
 2524 01ac 01       		.uleb128 0x1
 2525 01ad 12       		.uleb128 0x12
 2526 01ae 06       		.uleb128 0x6
 2527 01af 01       		.uleb128 0x1
 2528 01b0 13       		.uleb128 0x13
 2529 01b1 00       		.byte	0
 2530 01b2 00       		.byte	0
 2531 01b3 24       		.uleb128 0x24
 2532 01b4 1D       		.uleb128 0x1d
 2533 01b5 01       		.byte	0x1
 2534 01b6 31       		.uleb128 0x31
 2535 01b7 13       		.uleb128 0x13
 2536 01b8 11       		.uleb128 0x11
 2537 01b9 01       		.uleb128 0x1
 2538 01ba 12       		.uleb128 0x12
 2539 01bb 06       		.uleb128 0x6
 2540 01bc 58       		.uleb128 0x58
 2541 01bd 0B       		.uleb128 0xb
 2542 01be 59       		.uleb128 0x59
 2543 01bf 0B       		.uleb128 0xb
 2544 01c0 00       		.byte	0
 2545 01c1 00       		.byte	0
 2546 01c2 25       		.uleb128 0x25
 2547 01c3 0B       		.uleb128 0xb
 2548 01c4 01       		.byte	0x1
 2549 01c5 11       		.uleb128 0x11
 2550 01c6 01       		.uleb128 0x1
 2551 01c7 12       		.uleb128 0x12
 2552 01c8 06       		.uleb128 0x6
 2553 01c9 00       		.byte	0
 2554 01ca 00       		.byte	0
 2555 01cb 26       		.uleb128 0x26
 2556 01cc 34       		.uleb128 0x34
 2557 01cd 00       		.byte	0
 2558 01ce 31       		.uleb128 0x31
 2559 01cf 13       		.uleb128 0x13
 2560 01d0 00       		.byte	0
 2561 01d1 00       		.byte	0
ARM GAS  /tmp/cck4mDbc.s 			page 46


 2562 01d2 27       		.uleb128 0x27
 2563 01d3 1D       		.uleb128 0x1d
 2564 01d4 01       		.byte	0x1
 2565 01d5 31       		.uleb128 0x31
 2566 01d6 13       		.uleb128 0x13
 2567 01d7 11       		.uleb128 0x11
 2568 01d8 01       		.uleb128 0x1
 2569 01d9 12       		.uleb128 0x12
 2570 01da 06       		.uleb128 0x6
 2571 01db 58       		.uleb128 0x58
 2572 01dc 0B       		.uleb128 0xb
 2573 01dd 59       		.uleb128 0x59
 2574 01de 0B       		.uleb128 0xb
 2575 01df 01       		.uleb128 0x1
 2576 01e0 13       		.uleb128 0x13
 2577 01e1 00       		.byte	0
 2578 01e2 00       		.byte	0
 2579 01e3 28       		.uleb128 0x28
 2580 01e4 898201   		.uleb128 0x4109
 2581 01e7 01       		.byte	0x1
 2582 01e8 11       		.uleb128 0x11
 2583 01e9 01       		.uleb128 0x1
 2584 01ea 9542     		.uleb128 0x2115
 2585 01ec 19       		.uleb128 0x19
 2586 01ed 31       		.uleb128 0x31
 2587 01ee 13       		.uleb128 0x13
 2588 01ef 00       		.byte	0
 2589 01f0 00       		.byte	0
 2590 01f1 29       		.uleb128 0x29
 2591 01f2 2E       		.uleb128 0x2e
 2592 01f3 01       		.byte	0x1
 2593 01f4 3F       		.uleb128 0x3f
 2594 01f5 19       		.uleb128 0x19
 2595 01f6 03       		.uleb128 0x3
 2596 01f7 0E       		.uleb128 0xe
 2597 01f8 3A       		.uleb128 0x3a
 2598 01f9 0B       		.uleb128 0xb
 2599 01fa 3B       		.uleb128 0x3b
 2600 01fb 0B       		.uleb128 0xb
 2601 01fc 27       		.uleb128 0x27
 2602 01fd 19       		.uleb128 0x19
 2603 01fe 49       		.uleb128 0x49
 2604 01ff 13       		.uleb128 0x13
 2605 0200 11       		.uleb128 0x11
 2606 0201 01       		.uleb128 0x1
 2607 0202 12       		.uleb128 0x12
 2608 0203 06       		.uleb128 0x6
 2609 0204 40       		.uleb128 0x40
 2610 0205 18       		.uleb128 0x18
 2611 0206 9742     		.uleb128 0x2117
 2612 0208 19       		.uleb128 0x19
 2613 0209 01       		.uleb128 0x1
 2614 020a 13       		.uleb128 0x13
 2615 020b 00       		.byte	0
 2616 020c 00       		.byte	0
 2617 020d 2A       		.uleb128 0x2a
 2618 020e 05       		.uleb128 0x5
ARM GAS  /tmp/cck4mDbc.s 			page 47


 2619 020f 00       		.byte	0
 2620 0210 03       		.uleb128 0x3
 2621 0211 08       		.uleb128 0x8
 2622 0212 3A       		.uleb128 0x3a
 2623 0213 0B       		.uleb128 0xb
 2624 0214 3B       		.uleb128 0x3b
 2625 0215 0B       		.uleb128 0xb
 2626 0216 49       		.uleb128 0x49
 2627 0217 13       		.uleb128 0x13
 2628 0218 02       		.uleb128 0x2
 2629 0219 17       		.uleb128 0x17
 2630 021a 00       		.byte	0
 2631 021b 00       		.byte	0
 2632 021c 2B       		.uleb128 0x2b
 2633 021d 05       		.uleb128 0x5
 2634 021e 00       		.byte	0
 2635 021f 03       		.uleb128 0x3
 2636 0220 0E       		.uleb128 0xe
 2637 0221 3A       		.uleb128 0x3a
 2638 0222 0B       		.uleb128 0xb
 2639 0223 3B       		.uleb128 0x3b
 2640 0224 0B       		.uleb128 0xb
 2641 0225 49       		.uleb128 0x49
 2642 0226 13       		.uleb128 0x13
 2643 0227 02       		.uleb128 0x2
 2644 0228 18       		.uleb128 0x18
 2645 0229 00       		.byte	0
 2646 022a 00       		.byte	0
 2647 022b 2C       		.uleb128 0x2c
 2648 022c 05       		.uleb128 0x5
 2649 022d 00       		.byte	0
 2650 022e 03       		.uleb128 0x3
 2651 022f 0E       		.uleb128 0xe
 2652 0230 3A       		.uleb128 0x3a
 2653 0231 0B       		.uleb128 0xb
 2654 0232 3B       		.uleb128 0x3b
 2655 0233 05       		.uleb128 0x5
 2656 0234 49       		.uleb128 0x49
 2657 0235 13       		.uleb128 0x13
 2658 0236 02       		.uleb128 0x2
 2659 0237 18       		.uleb128 0x18
 2660 0238 00       		.byte	0
 2661 0239 00       		.byte	0
 2662 023a 2D       		.uleb128 0x2d
 2663 023b 34       		.uleb128 0x34
 2664 023c 00       		.byte	0
 2665 023d 03       		.uleb128 0x3
 2666 023e 08       		.uleb128 0x8
 2667 023f 3A       		.uleb128 0x3a
 2668 0240 0B       		.uleb128 0xb
 2669 0241 3B       		.uleb128 0x3b
 2670 0242 05       		.uleb128 0x5
 2671 0243 49       		.uleb128 0x49
 2672 0244 13       		.uleb128 0x13
 2673 0245 02       		.uleb128 0x2
 2674 0246 17       		.uleb128 0x17
 2675 0247 00       		.byte	0
ARM GAS  /tmp/cck4mDbc.s 			page 48


 2676 0248 00       		.byte	0
 2677 0249 2E       		.uleb128 0x2e
 2678 024a 34       		.uleb128 0x34
 2679 024b 00       		.byte	0
 2680 024c 03       		.uleb128 0x3
 2681 024d 0E       		.uleb128 0xe
 2682 024e 3A       		.uleb128 0x3a
 2683 024f 0B       		.uleb128 0xb
 2684 0250 3B       		.uleb128 0x3b
 2685 0251 05       		.uleb128 0x5
 2686 0252 49       		.uleb128 0x49
 2687 0253 13       		.uleb128 0x13
 2688 0254 02       		.uleb128 0x2
 2689 0255 17       		.uleb128 0x17
 2690 0256 00       		.byte	0
 2691 0257 00       		.byte	0
 2692 0258 2F       		.uleb128 0x2f
 2693 0259 34       		.uleb128 0x34
 2694 025a 00       		.byte	0
 2695 025b 03       		.uleb128 0x3
 2696 025c 0E       		.uleb128 0xe
 2697 025d 3A       		.uleb128 0x3a
 2698 025e 0B       		.uleb128 0xb
 2699 025f 3B       		.uleb128 0x3b
 2700 0260 05       		.uleb128 0x5
 2701 0261 49       		.uleb128 0x49
 2702 0262 13       		.uleb128 0x13
 2703 0263 02       		.uleb128 0x2
 2704 0264 18       		.uleb128 0x18
 2705 0265 00       		.byte	0
 2706 0266 00       		.byte	0
 2707 0267 30       		.uleb128 0x30
 2708 0268 1D       		.uleb128 0x1d
 2709 0269 01       		.byte	0x1
 2710 026a 31       		.uleb128 0x31
 2711 026b 13       		.uleb128 0x13
 2712 026c 52       		.uleb128 0x52
 2713 026d 01       		.uleb128 0x1
 2714 026e 55       		.uleb128 0x55
 2715 026f 17       		.uleb128 0x17
 2716 0270 58       		.uleb128 0x58
 2717 0271 0B       		.uleb128 0xb
 2718 0272 59       		.uleb128 0x59
 2719 0273 05       		.uleb128 0x5
 2720 0274 01       		.uleb128 0x1
 2721 0275 13       		.uleb128 0x13
 2722 0276 00       		.byte	0
 2723 0277 00       		.byte	0
 2724 0278 31       		.uleb128 0x31
 2725 0279 8A8201   		.uleb128 0x410a
 2726 027c 00       		.byte	0
 2727 027d 31       		.uleb128 0x31
 2728 027e 13       		.uleb128 0x13
 2729 027f 9142     		.uleb128 0x2111
 2730 0281 18       		.uleb128 0x18
 2731 0282 00       		.byte	0
 2732 0283 00       		.byte	0
ARM GAS  /tmp/cck4mDbc.s 			page 49


 2733 0284 32       		.uleb128 0x32
 2734 0285 2E       		.uleb128 0x2e
 2735 0286 01       		.byte	0x1
 2736 0287 3F       		.uleb128 0x3f
 2737 0288 19       		.uleb128 0x19
 2738 0289 03       		.uleb128 0x3
 2739 028a 0E       		.uleb128 0xe
 2740 028b 3A       		.uleb128 0x3a
 2741 028c 0B       		.uleb128 0xb
 2742 028d 3B       		.uleb128 0x3b
 2743 028e 05       		.uleb128 0x5
 2744 028f 27       		.uleb128 0x27
 2745 0290 19       		.uleb128 0x19
 2746 0291 49       		.uleb128 0x49
 2747 0292 13       		.uleb128 0x13
 2748 0293 11       		.uleb128 0x11
 2749 0294 01       		.uleb128 0x1
 2750 0295 12       		.uleb128 0x12
 2751 0296 06       		.uleb128 0x6
 2752 0297 40       		.uleb128 0x40
 2753 0298 18       		.uleb128 0x18
 2754 0299 9742     		.uleb128 0x2117
 2755 029b 19       		.uleb128 0x19
 2756 029c 01       		.uleb128 0x1
 2757 029d 13       		.uleb128 0x13
 2758 029e 00       		.byte	0
 2759 029f 00       		.byte	0
 2760 02a0 33       		.uleb128 0x33
 2761 02a1 05       		.uleb128 0x5
 2762 02a2 00       		.byte	0
 2763 02a3 03       		.uleb128 0x3
 2764 02a4 0E       		.uleb128 0xe
 2765 02a5 3A       		.uleb128 0x3a
 2766 02a6 0B       		.uleb128 0xb
 2767 02a7 3B       		.uleb128 0x3b
 2768 02a8 05       		.uleb128 0x5
 2769 02a9 49       		.uleb128 0x49
 2770 02aa 13       		.uleb128 0x13
 2771 02ab 02       		.uleb128 0x2
 2772 02ac 17       		.uleb128 0x17
 2773 02ad 00       		.byte	0
 2774 02ae 00       		.byte	0
 2775 02af 34       		.uleb128 0x34
 2776 02b0 34       		.uleb128 0x34
 2777 02b1 00       		.byte	0
 2778 02b2 03       		.uleb128 0x3
 2779 02b3 0E       		.uleb128 0xe
 2780 02b4 3A       		.uleb128 0x3a
 2781 02b5 0B       		.uleb128 0xb
 2782 02b6 3B       		.uleb128 0x3b
 2783 02b7 05       		.uleb128 0x5
 2784 02b8 49       		.uleb128 0x49
 2785 02b9 13       		.uleb128 0x13
 2786 02ba 3F       		.uleb128 0x3f
 2787 02bb 19       		.uleb128 0x19
 2788 02bc 3C       		.uleb128 0x3c
 2789 02bd 19       		.uleb128 0x19
ARM GAS  /tmp/cck4mDbc.s 			page 50


 2790 02be 00       		.byte	0
 2791 02bf 00       		.byte	0
 2792 02c0 00       		.byte	0
 2793              		.section	.debug_loc,"",%progbits
 2794              	.Ldebug_loc0:
 2795              	.LLST0:
 2796 0000 00000000 		.4byte	.LVL0
 2797 0004 0C000000 		.4byte	.LVL1
 2798 0008 0100     		.2byte	0x1
 2799 000a 50       		.byte	0x50
 2800 000b 0C000000 		.4byte	.LVL1
 2801 000f 6C000000 		.4byte	.LFE112
 2802 0013 0100     		.2byte	0x1
 2803 0015 54       		.byte	0x54
 2804 0016 00000000 		.4byte	0
 2805 001a 00000000 		.4byte	0
 2806              	.LLST1:
 2807 001e 00000000 		.4byte	.LVL0
 2808 0022 12000000 		.4byte	.LVL2
 2809 0026 0100     		.2byte	0x1
 2810 0028 51       		.byte	0x51
 2811 0029 12000000 		.4byte	.LVL2
 2812 002d 3C000000 		.4byte	.LVL7
 2813 0031 0100     		.2byte	0x1
 2814 0033 56       		.byte	0x56
 2815 0034 3E000000 		.4byte	.LVL8
 2816 0038 4E000000 		.4byte	.LVL9
 2817 003c 0100     		.2byte	0x1
 2818 003e 56       		.byte	0x56
 2819 003f 00000000 		.4byte	0
 2820 0043 00000000 		.4byte	0
 2821              	.LLST2:
 2822 0047 00000000 		.4byte	.LVL0
 2823 004b 1C000000 		.4byte	.LVL3
 2824 004f 0100     		.2byte	0x1
 2825 0051 52       		.byte	0x52
 2826 0052 1C000000 		.4byte	.LVL3
 2827 0056 6C000000 		.4byte	.LFE112
 2828 005a 0400     		.2byte	0x4
 2829 005c F3       		.byte	0xf3
 2830 005d 01       		.uleb128 0x1
 2831 005e 52       		.byte	0x52
 2832 005f 9F       		.byte	0x9f
 2833 0060 00000000 		.4byte	0
 2834 0064 00000000 		.4byte	0
 2835              	.LLST3:
 2836 0068 26000000 		.4byte	.LVL4
 2837 006c 2E000000 		.4byte	.LVL5
 2838 0070 0100     		.2byte	0x1
 2839 0072 55       		.byte	0x55
 2840 0073 2E000000 		.4byte	.LVL5
 2841 0077 2F000000 		.4byte	.LVL6-1
 2842 007b 0100     		.2byte	0x1
 2843 007d 52       		.byte	0x52
 2844 007e 2F000000 		.4byte	.LVL6-1
 2845 0082 4E000000 		.4byte	.LVL9
 2846 0086 0100     		.2byte	0x1
ARM GAS  /tmp/cck4mDbc.s 			page 51


 2847 0088 59       		.byte	0x59
 2848 0089 00000000 		.4byte	0
 2849 008d 00000000 		.4byte	0
 2850              	.LLST4:
 2851 0091 00000000 		.4byte	.LVL11
 2852 0095 2C000000 		.4byte	.LVL19
 2853 0099 0100     		.2byte	0x1
 2854 009b 52       		.byte	0x52
 2855 009c 2C000000 		.4byte	.LVL19
 2856 00a0 38000000 		.4byte	.LFE122
 2857 00a4 0400     		.2byte	0x4
 2858 00a6 F3       		.byte	0xf3
 2859 00a7 01       		.uleb128 0x1
 2860 00a8 52       		.byte	0x52
 2861 00a9 9F       		.byte	0x9f
 2862 00aa 00000000 		.4byte	0
 2863 00ae 00000000 		.4byte	0
 2864              	.LLST5:
 2865 00b2 00000000 		.4byte	.LVL11
 2866 00b6 08000000 		.4byte	.LVL12
 2867 00ba 0200     		.2byte	0x2
 2868 00bc 30       		.byte	0x30
 2869 00bd 9F       		.byte	0x9f
 2870 00be 08000000 		.4byte	.LVL12
 2871 00c2 26000000 		.4byte	.LVL17
 2872 00c6 0100     		.2byte	0x1
 2873 00c8 51       		.byte	0x51
 2874 00c9 2A000000 		.4byte	.LVL18
 2875 00cd 38000000 		.4byte	.LFE122
 2876 00d1 0100     		.2byte	0x1
 2877 00d3 51       		.byte	0x51
 2878 00d4 00000000 		.4byte	0
 2879 00d8 00000000 		.4byte	0
 2880              	.LLST6:
 2881 00dc 0A000000 		.4byte	.LVL13
 2882 00e0 18000000 		.4byte	.LVL15
 2883 00e4 0A00     		.2byte	0xa
 2884 00e6 72       		.byte	0x72
 2885 00e7 00       		.sleb128 0
 2886 00e8 74       		.byte	0x74
 2887 00e9 00       		.sleb128 0
 2888 00ea 0A       		.byte	0xa
 2889 00eb FFFF     		.2byte	0xffff
 2890 00ed 1A       		.byte	0x1a
 2891 00ee 1C       		.byte	0x1c
 2892 00ef 9F       		.byte	0x9f
 2893 00f0 18000000 		.4byte	.LVL15
 2894 00f4 22000000 		.4byte	.LVL16
 2895 00f8 0C00     		.2byte	0xc
 2896 00fa 72       		.byte	0x72
 2897 00fb 00       		.sleb128 0
 2898 00fc 73       		.byte	0x73
 2899 00fd 00       		.sleb128 0
 2900 00fe 94       		.byte	0x94
 2901 00ff 02       		.byte	0x2
 2902 0100 0A       		.byte	0xa
 2903 0101 FFFF     		.2byte	0xffff
ARM GAS  /tmp/cck4mDbc.s 			page 52


 2904 0103 1A       		.byte	0x1a
 2905 0104 1C       		.byte	0x1c
 2906 0105 9F       		.byte	0x9f
 2907 0106 22000000 		.4byte	.LVL16
 2908 010a 26000000 		.4byte	.LVL17
 2909 010e 0C00     		.2byte	0xc
 2910 0110 72       		.byte	0x72
 2911 0111 00       		.sleb128 0
 2912 0112 73       		.byte	0x73
 2913 0113 74       		.sleb128 -12
 2914 0114 94       		.byte	0x94
 2915 0115 02       		.byte	0x2
 2916 0116 0A       		.byte	0xa
 2917 0117 FFFF     		.2byte	0xffff
 2918 0119 1A       		.byte	0x1a
 2919 011a 1C       		.byte	0x1c
 2920 011b 9F       		.byte	0x9f
 2921 011c 2A000000 		.4byte	.LVL18
 2922 0120 2C000000 		.4byte	.LVL19
 2923 0124 0C00     		.2byte	0xc
 2924 0126 72       		.byte	0x72
 2925 0127 00       		.sleb128 0
 2926 0128 73       		.byte	0x73
 2927 0129 00       		.sleb128 0
 2928 012a 94       		.byte	0x94
 2929 012b 02       		.byte	0x2
 2930 012c 0A       		.byte	0xa
 2931 012d FFFF     		.2byte	0xffff
 2932 012f 1A       		.byte	0x1a
 2933 0130 1C       		.byte	0x1c
 2934 0131 9F       		.byte	0x9f
 2935 0132 00000000 		.4byte	0
 2936 0136 00000000 		.4byte	0
 2937              	.LLST7:
 2938 013a 08000000 		.4byte	.LVL12
 2939 013e 22000000 		.4byte	.LVL16
 2940 0142 0100     		.2byte	0x1
 2941 0144 53       		.byte	0x53
 2942 0145 22000000 		.4byte	.LVL16
 2943 0149 26000000 		.4byte	.LVL17
 2944 014d 0300     		.2byte	0x3
 2945 014f 73       		.byte	0x73
 2946 0150 74       		.sleb128 -12
 2947 0151 9F       		.byte	0x9f
 2948 0152 2A000000 		.4byte	.LVL18
 2949 0156 32000000 		.4byte	.LVL20
 2950 015a 0100     		.2byte	0x1
 2951 015c 53       		.byte	0x53
 2952 015d 00000000 		.4byte	0
 2953 0161 00000000 		.4byte	0
 2954              	.LLST8:
 2955 0165 2A000000 		.4byte	.LVL18
 2956 0169 32000000 		.4byte	.LVL20
 2957 016d 0800     		.2byte	0x8
 2958 016f 75       		.byte	0x75
 2959 0170 00       		.sleb128 0
 2960 0171 31       		.byte	0x31
ARM GAS  /tmp/cck4mDbc.s 			page 53


 2961 0172 24       		.byte	0x24
 2962 0173 73       		.byte	0x73
 2963 0174 04       		.sleb128 4
 2964 0175 06       		.byte	0x6
 2965 0176 22       		.byte	0x22
 2966 0177 32000000 		.4byte	.LVL20
 2967 017b 34000000 		.4byte	.LVL21
 2968 017f 0700     		.2byte	0x7
 2969 0181 75       		.byte	0x75
 2970 0182 00       		.sleb128 0
 2971 0183 31       		.byte	0x31
 2972 0184 24       		.byte	0x24
 2973 0185 72       		.byte	0x72
 2974 0186 00       		.sleb128 0
 2975 0187 22       		.byte	0x22
 2976 0188 00000000 		.4byte	0
 2977 018c 00000000 		.4byte	0
 2978              	.LLST9:
 2979 0190 00000000 		.4byte	.LVL22
 2980 0194 2C000000 		.4byte	.LVL27
 2981 0198 0100     		.2byte	0x1
 2982 019a 50       		.byte	0x50
 2983 019b 2C000000 		.4byte	.LVL27
 2984 019f 8C000000 		.4byte	.LVL41
 2985 01a3 0400     		.2byte	0x4
 2986 01a5 F3       		.byte	0xf3
 2987 01a6 01       		.uleb128 0x1
 2988 01a7 50       		.byte	0x50
 2989 01a8 9F       		.byte	0x9f
 2990 01a9 8C000000 		.4byte	.LVL41
 2991 01ad 92000000 		.4byte	.LVL43
 2992 01b1 0100     		.2byte	0x1
 2993 01b3 50       		.byte	0x50
 2994 01b4 92000000 		.4byte	.LVL43
 2995 01b8 9A000000 		.4byte	.LVL45
 2996 01bc 0100     		.2byte	0x1
 2997 01be 57       		.byte	0x57
 2998 01bf 9A000000 		.4byte	.LVL45
 2999 01c3 9E000000 		.4byte	.LVL46
 3000 01c7 0400     		.2byte	0x4
 3001 01c9 F3       		.byte	0xf3
 3002 01ca 01       		.uleb128 0x1
 3003 01cb 50       		.byte	0x50
 3004 01cc 9F       		.byte	0x9f
 3005 01cd 9E000000 		.4byte	.LVL46
 3006 01d1 B4000000 		.4byte	.LVL47
 3007 01d5 0100     		.2byte	0x1
 3008 01d7 50       		.byte	0x50
 3009 01d8 B4000000 		.4byte	.LVL47
 3010 01dc BE000000 		.4byte	.LVL49
 3011 01e0 0400     		.2byte	0x4
 3012 01e2 F3       		.byte	0xf3
 3013 01e3 01       		.uleb128 0x1
 3014 01e4 50       		.byte	0x50
 3015 01e5 9F       		.byte	0x9f
 3016 01e6 BE000000 		.4byte	.LVL49
 3017 01ea E6000000 		.4byte	.LVL58
ARM GAS  /tmp/cck4mDbc.s 			page 54


 3018 01ee 0100     		.2byte	0x1
 3019 01f0 50       		.byte	0x50
 3020 01f1 E6000000 		.4byte	.LVL58
 3021 01f5 8C010000 		.4byte	.LVL72
 3022 01f9 0100     		.2byte	0x1
 3023 01fb 57       		.byte	0x57
 3024 01fc 8C010000 		.4byte	.LVL72
 3025 0200 98010000 		.4byte	.LFE117
 3026 0204 0100     		.2byte	0x1
 3027 0206 50       		.byte	0x50
 3028 0207 00000000 		.4byte	0
 3029 020b 00000000 		.4byte	0
 3030              	.LLST10:
 3031 020f 00000000 		.4byte	.LVL22
 3032 0213 2A000000 		.4byte	.LVL26
 3033 0217 0100     		.2byte	0x1
 3034 0219 51       		.byte	0x51
 3035 021a 2A000000 		.4byte	.LVL26
 3036 021e 84000000 		.4byte	.LVL39
 3037 0222 0100     		.2byte	0x1
 3038 0224 55       		.byte	0x55
 3039 0225 84000000 		.4byte	.LVL39
 3040 0229 87000000 		.4byte	.LVL40-1
 3041 022d 0100     		.2byte	0x1
 3042 022f 50       		.byte	0x50
 3043 0230 87000000 		.4byte	.LVL40-1
 3044 0234 88000000 		.4byte	.LVL40
 3045 0238 0400     		.2byte	0x4
 3046 023a F3       		.byte	0xf3
 3047 023b 01       		.uleb128 0x1
 3048 023c 51       		.byte	0x51
 3049 023d 9F       		.byte	0x9f
 3050 023e 88000000 		.4byte	.LVL40
 3051 0242 8C000000 		.4byte	.LVL41
 3052 0246 0100     		.2byte	0x1
 3053 0248 55       		.byte	0x55
 3054 0249 8C000000 		.4byte	.LVL41
 3055 024d 96000000 		.4byte	.LVL44
 3056 0251 0100     		.2byte	0x1
 3057 0253 51       		.byte	0x51
 3058 0254 96000000 		.4byte	.LVL44
 3059 0258 9A000000 		.4byte	.LVL45
 3060 025c 0100     		.2byte	0x1
 3061 025e 55       		.byte	0x55
 3062 025f 9A000000 		.4byte	.LVL45
 3063 0263 9D000000 		.4byte	.LVL46-1
 3064 0267 0100     		.2byte	0x1
 3065 0269 50       		.byte	0x50
 3066 026a 9D000000 		.4byte	.LVL46-1
 3067 026e 9E000000 		.4byte	.LVL46
 3068 0272 0400     		.2byte	0x4
 3069 0274 F3       		.byte	0xf3
 3070 0275 01       		.uleb128 0x1
 3071 0276 51       		.byte	0x51
 3072 0277 9F       		.byte	0x9f
 3073 0278 9E000000 		.4byte	.LVL46
 3074 027c B4000000 		.4byte	.LVL47
ARM GAS  /tmp/cck4mDbc.s 			page 55


 3075 0280 0100     		.2byte	0x1
 3076 0282 51       		.byte	0x51
 3077 0283 B4000000 		.4byte	.LVL47
 3078 0287 BE000000 		.4byte	.LVL49
 3079 028b 0100     		.2byte	0x1
 3080 028d 55       		.byte	0x55
 3081 028e BE000000 		.4byte	.LVL49
 3082 0292 D0000000 		.4byte	.LVL53
 3083 0296 0100     		.2byte	0x1
 3084 0298 51       		.byte	0x51
 3085 0299 D0000000 		.4byte	.LVL53
 3086 029d 8C010000 		.4byte	.LVL72
 3087 02a1 0100     		.2byte	0x1
 3088 02a3 55       		.byte	0x55
 3089 02a4 8C010000 		.4byte	.LVL72
 3090 02a8 98010000 		.4byte	.LFE117
 3091 02ac 0100     		.2byte	0x1
 3092 02ae 51       		.byte	0x51
 3093 02af 00000000 		.4byte	0
 3094 02b3 00000000 		.4byte	0
 3095              	.LLST11:
 3096 02b7 00000000 		.4byte	.LVL22
 3097 02bb 26000000 		.4byte	.LVL24
 3098 02bf 0100     		.2byte	0x1
 3099 02c1 52       		.byte	0x52
 3100 02c2 26000000 		.4byte	.LVL24
 3101 02c6 8C000000 		.4byte	.LVL41
 3102 02ca 0400     		.2byte	0x4
 3103 02cc F3       		.byte	0xf3
 3104 02cd 01       		.uleb128 0x1
 3105 02ce 52       		.byte	0x52
 3106 02cf 9F       		.byte	0x9f
 3107 02d0 8C000000 		.4byte	.LVL41
 3108 02d4 90000000 		.4byte	.LVL42
 3109 02d8 0100     		.2byte	0x1
 3110 02da 52       		.byte	0x52
 3111 02db 90000000 		.4byte	.LVL42
 3112 02df 9E000000 		.4byte	.LVL46
 3113 02e3 0400     		.2byte	0x4
 3114 02e5 F3       		.byte	0xf3
 3115 02e6 01       		.uleb128 0x1
 3116 02e7 52       		.byte	0x52
 3117 02e8 9F       		.byte	0x9f
 3118 02e9 9E000000 		.4byte	.LVL46
 3119 02ed B4000000 		.4byte	.LVL47
 3120 02f1 0100     		.2byte	0x1
 3121 02f3 52       		.byte	0x52
 3122 02f4 B4000000 		.4byte	.LVL47
 3123 02f8 BE000000 		.4byte	.LVL49
 3124 02fc 0400     		.2byte	0x4
 3125 02fe F3       		.byte	0xf3
 3126 02ff 01       		.uleb128 0x1
 3127 0300 52       		.byte	0x52
 3128 0301 9F       		.byte	0x9f
 3129 0302 BE000000 		.4byte	.LVL49
 3130 0306 CA000000 		.4byte	.LVL51
 3131 030a 0100     		.2byte	0x1
ARM GAS  /tmp/cck4mDbc.s 			page 56


 3132 030c 52       		.byte	0x52
 3133 030d CA000000 		.4byte	.LVL51
 3134 0311 8C010000 		.4byte	.LVL72
 3135 0315 0400     		.2byte	0x4
 3136 0317 F3       		.byte	0xf3
 3137 0318 01       		.uleb128 0x1
 3138 0319 52       		.byte	0x52
 3139 031a 9F       		.byte	0x9f
 3140 031b 8C010000 		.4byte	.LVL72
 3141 031f 98010000 		.4byte	.LFE117
 3142 0323 0100     		.2byte	0x1
 3143 0325 52       		.byte	0x52
 3144 0326 00000000 		.4byte	0
 3145 032a 00000000 		.4byte	0
 3146              	.LLST12:
 3147 032e 1E000000 		.4byte	.LVL23
 3148 0332 2C000000 		.4byte	.LVL27
 3149 0336 0100     		.2byte	0x1
 3150 0338 50       		.byte	0x50
 3151 0339 2C000000 		.4byte	.LVL27
 3152 033d 88000000 		.4byte	.LVL40
 3153 0341 0400     		.2byte	0x4
 3154 0343 F3       		.byte	0xf3
 3155 0344 01       		.uleb128 0x1
 3156 0345 50       		.byte	0x50
 3157 0346 9F       		.byte	0x9f
 3158 0347 9E000000 		.4byte	.LVL46
 3159 034b B4000000 		.4byte	.LVL47
 3160 034f 0100     		.2byte	0x1
 3161 0351 50       		.byte	0x50
 3162 0352 B4000000 		.4byte	.LVL47
 3163 0356 BE000000 		.4byte	.LVL49
 3164 035a 0400     		.2byte	0x4
 3165 035c F3       		.byte	0xf3
 3166 035d 01       		.uleb128 0x1
 3167 035e 50       		.byte	0x50
 3168 035f 9F       		.byte	0x9f
 3169 0360 8C010000 		.4byte	.LVL72
 3170 0364 98010000 		.4byte	.LFE117
 3171 0368 0100     		.2byte	0x1
 3172 036a 50       		.byte	0x50
 3173 036b 00000000 		.4byte	0
 3174 036f 00000000 		.4byte	0
 3175              	.LLST13:
 3176 0373 1E000000 		.4byte	.LVL23
 3177 0377 26000000 		.4byte	.LVL24
 3178 037b 0100     		.2byte	0x1
 3179 037d 52       		.byte	0x52
 3180 037e 26000000 		.4byte	.LVL24
 3181 0382 2C000000 		.4byte	.LVL27
 3182 0386 0300     		.2byte	0x3
 3183 0388 72       		.byte	0x72
 3184 0389 04       		.sleb128 4
 3185 038a 9F       		.byte	0x9f
 3186 038b 9E000000 		.4byte	.LVL46
 3187 038f B4000000 		.4byte	.LVL47
 3188 0393 0100     		.2byte	0x1
ARM GAS  /tmp/cck4mDbc.s 			page 57


 3189 0395 52       		.byte	0x52
 3190 0396 8C010000 		.4byte	.LVL72
 3191 039a 98010000 		.4byte	.LFE117
 3192 039e 0100     		.2byte	0x1
 3193 03a0 52       		.byte	0x52
 3194 03a1 00000000 		.4byte	0
 3195 03a5 00000000 		.4byte	0
 3196              	.LLST14:
 3197 03a9 1E000000 		.4byte	.LVL23
 3198 03ad 2A000000 		.4byte	.LVL26
 3199 03b1 0100     		.2byte	0x1
 3200 03b3 51       		.byte	0x51
 3201 03b4 2A000000 		.4byte	.LVL26
 3202 03b8 84000000 		.4byte	.LVL39
 3203 03bc 0100     		.2byte	0x1
 3204 03be 55       		.byte	0x55
 3205 03bf 84000000 		.4byte	.LVL39
 3206 03c3 87000000 		.4byte	.LVL40-1
 3207 03c7 0100     		.2byte	0x1
 3208 03c9 50       		.byte	0x50
 3209 03ca 87000000 		.4byte	.LVL40-1
 3210 03ce 88000000 		.4byte	.LVL40
 3211 03d2 0400     		.2byte	0x4
 3212 03d4 F3       		.byte	0xf3
 3213 03d5 01       		.uleb128 0x1
 3214 03d6 51       		.byte	0x51
 3215 03d7 9F       		.byte	0x9f
 3216 03d8 9E000000 		.4byte	.LVL46
 3217 03dc B4000000 		.4byte	.LVL47
 3218 03e0 0100     		.2byte	0x1
 3219 03e2 51       		.byte	0x51
 3220 03e3 B4000000 		.4byte	.LVL47
 3221 03e7 BE000000 		.4byte	.LVL49
 3222 03eb 0100     		.2byte	0x1
 3223 03ed 55       		.byte	0x55
 3224 03ee 8C010000 		.4byte	.LVL72
 3225 03f2 98010000 		.4byte	.LFE117
 3226 03f6 0100     		.2byte	0x1
 3227 03f8 51       		.byte	0x51
 3228 03f9 00000000 		.4byte	0
 3229 03fd 00000000 		.4byte	0
 3230              	.LLST15:
 3231 0401 28000000 		.4byte	.LVL25
 3232 0405 36000000 		.4byte	.LVL31
 3233 0409 0100     		.2byte	0x1
 3234 040b 57       		.byte	0x57
 3235 040c 36000000 		.4byte	.LVL31
 3236 0410 38000000 		.4byte	.LVL32
 3237 0414 0100     		.2byte	0x1
 3238 0416 53       		.byte	0x53
 3239 0417 3A000000 		.4byte	.LVL33
 3240 041b 76000000 		.4byte	.LVL37
 3241 041f 0100     		.2byte	0x1
 3242 0421 57       		.byte	0x57
 3243 0422 76000000 		.4byte	.LVL37
 3244 0426 7A000000 		.4byte	.LVL38
 3245 042a 0100     		.2byte	0x1
ARM GAS  /tmp/cck4mDbc.s 			page 58


 3246 042c 53       		.byte	0x53
 3247 042d B4000000 		.4byte	.LVL47
 3248 0431 BE000000 		.4byte	.LVL49
 3249 0435 0100     		.2byte	0x1
 3250 0437 57       		.byte	0x57
 3251 0438 00000000 		.4byte	0
 3252 043c 00000000 		.4byte	0
 3253              	.LLST16:
 3254 0440 28000000 		.4byte	.LVL25
 3255 0444 2C000000 		.4byte	.LVL27
 3256 0448 0100     		.2byte	0x1
 3257 044a 52       		.byte	0x52
 3258 044b 2C000000 		.4byte	.LVL27
 3259 044f 38000000 		.4byte	.LVL32
 3260 0453 0100     		.2byte	0x1
 3261 0455 56       		.byte	0x56
 3262 0456 3A000000 		.4byte	.LVL33
 3263 045a 7A000000 		.4byte	.LVL38
 3264 045e 0100     		.2byte	0x1
 3265 0460 56       		.byte	0x56
 3266 0461 B4000000 		.4byte	.LVL47
 3267 0465 BE000000 		.4byte	.LVL49
 3268 0469 0100     		.2byte	0x1
 3269 046b 56       		.byte	0x56
 3270 046c 00000000 		.4byte	0
 3271 0470 00000000 		.4byte	0
 3272              	.LLST17:
 3273 0474 28000000 		.4byte	.LVL25
 3274 0478 2C000000 		.4byte	.LVL27
 3275 047c 0200     		.2byte	0x2
 3276 047e 30       		.byte	0x30
 3277 047f 9F       		.byte	0x9f
 3278 0480 2C000000 		.4byte	.LVL27
 3279 0484 2E000000 		.4byte	.LVL28
 3280 0488 0100     		.2byte	0x1
 3281 048a 51       		.byte	0x51
 3282 048b 2E000000 		.4byte	.LVL28
 3283 048f 32000000 		.4byte	.LVL29
 3284 0493 0300     		.2byte	0x3
 3285 0495 71       		.byte	0x71
 3286 0496 7F       		.sleb128 -1
 3287 0497 9F       		.byte	0x9f
 3288 0498 32000000 		.4byte	.LVL29
 3289 049c 38000000 		.4byte	.LVL32
 3290 04a0 0100     		.2byte	0x1
 3291 04a2 51       		.byte	0x51
 3292 04a3 3A000000 		.4byte	.LVL33
 3293 04a7 42000000 		.4byte	.LVL34
 3294 04ab 0100     		.2byte	0x1
 3295 04ad 51       		.byte	0x51
 3296 04ae 42000000 		.4byte	.LVL34
 3297 04b2 72000000 		.4byte	.LVL35
 3298 04b6 0200     		.2byte	0x2
 3299 04b8 30       		.byte	0x30
 3300 04b9 9F       		.byte	0x9f
 3301 04ba 72000000 		.4byte	.LVL35
 3302 04be 7A000000 		.4byte	.LVL38
ARM GAS  /tmp/cck4mDbc.s 			page 59


 3303 04c2 0100     		.2byte	0x1
 3304 04c4 51       		.byte	0x51
 3305 04c5 B4000000 		.4byte	.LVL47
 3306 04c9 BB000000 		.4byte	.LVL48-1
 3307 04cd 0100     		.2byte	0x1
 3308 04cf 51       		.byte	0x51
 3309 04d0 BC000000 		.4byte	.LVL48
 3310 04d4 BE000000 		.4byte	.LVL49
 3311 04d8 0200     		.2byte	0x2
 3312 04da 30       		.byte	0x30
 3313 04db 9F       		.byte	0x9f
 3314 04dc 00000000 		.4byte	0
 3315 04e0 00000000 		.4byte	0
 3316              	.LLST19:
 3317 04e4 42000000 		.4byte	.LVL34
 3318 04e8 7A000000 		.4byte	.LVL38
 3319 04ec 0200     		.2byte	0x2
 3320 04ee 31       		.byte	0x31
 3321 04ef 9F       		.byte	0x9f
 3322 04f0 00000000 		.4byte	0
 3323 04f4 00000000 		.4byte	0
 3324              	.LLST20:
 3325 04f8 42000000 		.4byte	.LVL34
 3326 04fc 7A000000 		.4byte	.LVL38
 3327 0500 0100     		.2byte	0x1
 3328 0502 55       		.byte	0x55
 3329 0503 00000000 		.4byte	0
 3330 0507 00000000 		.4byte	0
 3331              	.LLST21:
 3332 050b C6000000 		.4byte	.LVL50
 3333 050f CA000000 		.4byte	.LVL51
 3334 0513 0100     		.2byte	0x1
 3335 0515 52       		.byte	0x52
 3336 0516 CA000000 		.4byte	.LVL51
 3337 051a CC000000 		.4byte	.LVL52
 3338 051e 0300     		.2byte	0x3
 3339 0520 72       		.byte	0x72
 3340 0521 18       		.sleb128 24
 3341 0522 9F       		.byte	0x9f
 3342 0523 00000000 		.4byte	0
 3343 0527 00000000 		.4byte	0
 3344              	.LLST22:
 3345 052b C6000000 		.4byte	.LVL50
 3346 052f D0000000 		.4byte	.LVL53
 3347 0533 0100     		.2byte	0x1
 3348 0535 51       		.byte	0x51
 3349 0536 D0000000 		.4byte	.LVL53
 3350 053a 8C010000 		.4byte	.LVL72
 3351 053e 0100     		.2byte	0x1
 3352 0540 55       		.byte	0x55
 3353 0541 00000000 		.4byte	0
 3354 0545 00000000 		.4byte	0
 3355              	.LLST23:
 3356 0549 C6000000 		.4byte	.LVL50
 3357 054d E6000000 		.4byte	.LVL58
 3358 0551 0100     		.2byte	0x1
 3359 0553 50       		.byte	0x50
ARM GAS  /tmp/cck4mDbc.s 			page 60


 3360 0554 E6000000 		.4byte	.LVL58
 3361 0558 8C010000 		.4byte	.LVL72
 3362 055c 0100     		.2byte	0x1
 3363 055e 57       		.byte	0x57
 3364 055f 00000000 		.4byte	0
 3365 0563 00000000 		.4byte	0
 3366              	.LLST24:
 3367 0567 CC000000 		.4byte	.LVL52
 3368 056b E6000000 		.4byte	.LVL58
 3369 056f 0100     		.2byte	0x1
 3370 0571 50       		.byte	0x50
 3371 0572 E6000000 		.4byte	.LVL58
 3372 0576 8C010000 		.4byte	.LVL72
 3373 057a 0100     		.2byte	0x1
 3374 057c 57       		.byte	0x57
 3375 057d 00000000 		.4byte	0
 3376 0581 00000000 		.4byte	0
 3377              	.LLST26:
 3378 0585 CC000000 		.4byte	.LVL52
 3379 0589 E2000000 		.4byte	.LVL57
 3380 058d 0100     		.2byte	0x1
 3381 058f 52       		.byte	0x52
 3382 0590 00000000 		.4byte	0
 3383 0594 00000000 		.4byte	0
 3384              	.LLST27:
 3385 0598 CC000000 		.4byte	.LVL52
 3386 059c D0000000 		.4byte	.LVL53
 3387 05a0 0100     		.2byte	0x1
 3388 05a2 51       		.byte	0x51
 3389 05a3 D0000000 		.4byte	.LVL53
 3390 05a7 8C010000 		.4byte	.LVL72
 3391 05ab 0100     		.2byte	0x1
 3392 05ad 55       		.byte	0x55
 3393 05ae 00000000 		.4byte	0
 3394 05b2 00000000 		.4byte	0
 3395              	.LLST28:
 3396 05b6 DA000000 		.4byte	.LVL55
 3397 05ba E0000000 		.4byte	.LVL56
 3398 05be 0100     		.2byte	0x1
 3399 05c0 53       		.byte	0x53
 3400 05c1 E0000000 		.4byte	.LVL56
 3401 05c5 E6000000 		.4byte	.LVL58
 3402 05c9 0300     		.2byte	0x3
 3403 05cb 73       		.byte	0x73
 3404 05cc 01       		.sleb128 1
 3405 05cd 9F       		.byte	0x9f
 3406 05ce 00000000 		.4byte	0
 3407 05d2 00000000 		.4byte	0
 3408              	.LLST29:
 3409 05d6 DA000000 		.4byte	.LVL55
 3410 05da E6000000 		.4byte	.LVL58
 3411 05de 0200     		.2byte	0x2
 3412 05e0 30       		.byte	0x30
 3413 05e1 9F       		.byte	0x9f
 3414 05e2 00000000 		.4byte	0
 3415 05e6 00000000 		.4byte	0
 3416              	.LLST30:
ARM GAS  /tmp/cck4mDbc.s 			page 61


 3417 05ea EA000000 		.4byte	.LVL59
 3418 05ee 00010000 		.4byte	.LVL62
 3419 05f2 0600     		.2byte	0x6
 3420 05f4 77       		.byte	0x77
 3421 05f5 20       		.sleb128 32
 3422 05f6 06       		.byte	0x6
 3423 05f7 76       		.byte	0x76
 3424 05f8 00       		.sleb128 0
 3425 05f9 22       		.byte	0x22
 3426 05fa 26010000 		.4byte	.LVL64
 3427 05fe 47010000 		.4byte	.LVL66-1
 3428 0602 0600     		.2byte	0x6
 3429 0604 77       		.byte	0x77
 3430 0605 20       		.sleb128 32
 3431 0606 06       		.byte	0x6
 3432 0607 76       		.byte	0x76
 3433 0608 00       		.sleb128 0
 3434 0609 22       		.byte	0x22
 3435 060a 4A010000 		.4byte	.LVL67
 3436 060e 62010000 		.4byte	.LVL69
 3437 0612 0600     		.2byte	0x6
 3438 0614 77       		.byte	0x77
 3439 0615 20       		.sleb128 32
 3440 0616 06       		.byte	0x6
 3441 0617 76       		.byte	0x76
 3442 0618 00       		.sleb128 0
 3443 0619 22       		.byte	0x22
 3444 061a 7C010000 		.4byte	.LVL70
 3445 061e 89010000 		.4byte	.LVL71-1
 3446 0622 0600     		.2byte	0x6
 3447 0624 77       		.byte	0x77
 3448 0625 20       		.sleb128 32
 3449 0626 06       		.byte	0x6
 3450 0627 76       		.byte	0x76
 3451 0628 00       		.sleb128 0
 3452 0629 22       		.byte	0x22
 3453 062a 00000000 		.4byte	0
 3454 062e 00000000 		.4byte	0
 3455              	.LLST31:
 3456 0632 F0000000 		.4byte	.LVL60
 3457 0636 F6000000 		.4byte	.LVL61
 3458 063a 0600     		.2byte	0x6
 3459 063c 73       		.byte	0x73
 3460 063d 00       		.sleb128 0
 3461 063e 08       		.byte	0x8
 3462 063f FF       		.byte	0xff
 3463 0640 1A       		.byte	0x1a
 3464 0641 9F       		.byte	0x9f
 3465 0642 F6000000 		.4byte	.LVL61
 3466 0646 00010000 		.4byte	.LVL62
 3467 064a 0C00     		.2byte	0xc
 3468 064c 77       		.byte	0x77
 3469 064d 20       		.sleb128 32
 3470 064e 06       		.byte	0x6
 3471 064f 76       		.byte	0x76
 3472 0650 00       		.sleb128 0
 3473 0651 22       		.byte	0x22
ARM GAS  /tmp/cck4mDbc.s 			page 62


 3474 0652 94       		.byte	0x94
 3475 0653 01       		.byte	0x1
 3476 0654 08       		.byte	0x8
 3477 0655 FF       		.byte	0xff
 3478 0656 1A       		.byte	0x1a
 3479 0657 9F       		.byte	0x9f
 3480 0658 00000000 		.4byte	0
 3481 065c 00000000 		.4byte	0
 3482              	.LLST32:
 3483 0660 F0000000 		.4byte	.LVL60
 3484 0664 18010000 		.4byte	.LVL63
 3485 0668 0100     		.2byte	0x1
 3486 066a 55       		.byte	0x55
 3487 066b 00000000 		.4byte	0
 3488 066f 00000000 		.4byte	0
 3489              	.LLST33:
 3490 0673 32010000 		.4byte	.LVL65
 3491 0677 47010000 		.4byte	.LVL66-1
 3492 067b 0A00     		.2byte	0xa
 3493 067d 73       		.byte	0x73
 3494 067e 00       		.sleb128 0
 3495 067f 08       		.byte	0x8
 3496 0680 3F       		.byte	0x3f
 3497 0681 1A       		.byte	0x1a
 3498 0682 34       		.byte	0x34
 3499 0683 25       		.byte	0x25
 3500 0684 23       		.byte	0x23
 3501 0685 01       		.uleb128 0x1
 3502 0686 9F       		.byte	0x9f
 3503 0687 00000000 		.4byte	0
 3504 068b 00000000 		.4byte	0
 3505              	.LLST34:
 3506 068f 32010000 		.4byte	.LVL65
 3507 0693 47010000 		.4byte	.LVL66-1
 3508 0697 0700     		.2byte	0x7
 3509 0699 73       		.byte	0x73
 3510 069a 00       		.sleb128 0
 3511 069b 3F       		.byte	0x3f
 3512 069c 1A       		.byte	0x1a
 3513 069d 41       		.byte	0x41
 3514 069e 1E       		.byte	0x1e
 3515 069f 9F       		.byte	0x9f
 3516 06a0 00000000 		.4byte	0
 3517 06a4 00000000 		.4byte	0
 3518              	.LLST35:
 3519 06a8 4A010000 		.4byte	.LVL67
 3520 06ac 52010000 		.4byte	.LVL68
 3521 06b0 0D00     		.2byte	0xd
 3522 06b2 73       		.byte	0x73
 3523 06b3 00       		.sleb128 0
 3524 06b4 08       		.byte	0x8
 3525 06b5 3F       		.byte	0x3f
 3526 06b6 1A       		.byte	0x1a
 3527 06b7 08       		.byte	0x8
 3528 06b8 FF       		.byte	0xff
 3529 06b9 1A       		.byte	0x1a
 3530 06ba 23       		.byte	0x23
ARM GAS  /tmp/cck4mDbc.s 			page 63


 3531 06bb 01       		.uleb128 0x1
 3532 06bc 36       		.byte	0x36
 3533 06bd 24       		.byte	0x24
 3534 06be 9F       		.byte	0x9f
 3535 06bf 52010000 		.4byte	.LVL68
 3536 06c3 62010000 		.4byte	.LVL69
 3537 06c7 1300     		.2byte	0x13
 3538 06c9 77       		.byte	0x77
 3539 06ca 20       		.sleb128 32
 3540 06cb 06       		.byte	0x6
 3541 06cc 76       		.byte	0x76
 3542 06cd 00       		.sleb128 0
 3543 06ce 22       		.byte	0x22
 3544 06cf 94       		.byte	0x94
 3545 06d0 01       		.byte	0x1
 3546 06d1 08       		.byte	0x8
 3547 06d2 3F       		.byte	0x3f
 3548 06d3 1A       		.byte	0x1a
 3549 06d4 08       		.byte	0x8
 3550 06d5 FF       		.byte	0xff
 3551 06d6 1A       		.byte	0x1a
 3552 06d7 23       		.byte	0x23
 3553 06d8 01       		.uleb128 0x1
 3554 06d9 36       		.byte	0x36
 3555 06da 24       		.byte	0x24
 3556 06db 9F       		.byte	0x9f
 3557 06dc 00000000 		.4byte	0
 3558 06e0 00000000 		.4byte	0
 3559              	.LLST36:
 3560 06e4 4A010000 		.4byte	.LVL67
 3561 06e8 7C010000 		.4byte	.LVL70
 3562 06ec 0100     		.2byte	0x1
 3563 06ee 55       		.byte	0x55
 3564 06ef 00000000 		.4byte	0
 3565 06f3 00000000 		.4byte	0
 3566              	.LLST37:
 3567 06f7 00000000 		.4byte	.LVL73
 3568 06fb 28000000 		.4byte	.LVL74
 3569 06ff 0100     		.2byte	0x1
 3570 0701 50       		.byte	0x50
 3571 0702 28000000 		.4byte	.LVL74
 3572 0706 CA000000 		.4byte	.LFE120
 3573 070a 0100     		.2byte	0x1
 3574 070c 54       		.byte	0x54
 3575 070d 00000000 		.4byte	0
 3576 0711 00000000 		.4byte	0
 3577              	.LLST38:
 3578 0715 00000000 		.4byte	.LVL73
 3579 0719 32000000 		.4byte	.LVL76
 3580 071d 0100     		.2byte	0x1
 3581 071f 51       		.byte	0x51
 3582 0720 32000000 		.4byte	.LVL76
 3583 0724 CA000000 		.4byte	.LFE120
 3584 0728 0400     		.2byte	0x4
 3585 072a F3       		.byte	0xf3
 3586 072b 01       		.uleb128 0x1
 3587 072c 51       		.byte	0x51
ARM GAS  /tmp/cck4mDbc.s 			page 64


 3588 072d 9F       		.byte	0x9f
 3589 072e 00000000 		.4byte	0
 3590 0732 00000000 		.4byte	0
 3591              	.LLST39:
 3592 0736 00000000 		.4byte	.LVL73
 3593 073a 2E000000 		.4byte	.LVL75
 3594 073e 0100     		.2byte	0x1
 3595 0740 52       		.byte	0x52
 3596 0741 2E000000 		.4byte	.LVL75
 3597 0745 45000000 		.4byte	.LVL77-1
 3598 0749 0200     		.2byte	0x2
 3599 074b 91       		.byte	0x91
 3600 074c 52       		.sleb128 -46
 3601 074d 45000000 		.4byte	.LVL77-1
 3602 0751 CA000000 		.4byte	.LFE120
 3603 0755 0400     		.2byte	0x4
 3604 0757 F3       		.byte	0xf3
 3605 0758 01       		.uleb128 0x1
 3606 0759 52       		.byte	0x52
 3607 075a 9F       		.byte	0x9f
 3608 075b 00000000 		.4byte	0
 3609 075f 00000000 		.4byte	0
 3610              	.LLST40:
 3611 0763 00000000 		.4byte	.LVL73
 3612 0767 45000000 		.4byte	.LVL77-1
 3613 076b 0100     		.2byte	0x1
 3614 076d 53       		.byte	0x53
 3615 076e 45000000 		.4byte	.LVL77-1
 3616 0772 CA000000 		.4byte	.LFE120
 3617 0776 0400     		.2byte	0x4
 3618 0778 F3       		.byte	0xf3
 3619 0779 01       		.uleb128 0x1
 3620 077a 53       		.byte	0x53
 3621 077b 9F       		.byte	0x9f
 3622 077c 00000000 		.4byte	0
 3623 0780 00000000 		.4byte	0
 3624              	.LLST41:
 3625 0784 46000000 		.4byte	.LVL77
 3626 0788 4A000000 		.4byte	.LVL78
 3627 078c 0100     		.2byte	0x1
 3628 078e 50       		.byte	0x50
 3629 078f 4A000000 		.4byte	.LVL78
 3630 0793 5C000000 		.4byte	.LVL80
 3631 0797 0300     		.2byte	0x3
 3632 0799 70       		.byte	0x70
 3633 079a 01       		.sleb128 1
 3634 079b 9F       		.byte	0x9f
 3635 079c 5C000000 		.4byte	.LVL80
 3636 07a0 70000000 		.4byte	.LVL84
 3637 07a4 0300     		.2byte	0x3
 3638 07a6 76       		.byte	0x76
 3639 07a7 01       		.sleb128 1
 3640 07a8 9F       		.byte	0x9f
 3641 07a9 70000000 		.4byte	.LVL84
 3642 07ad 78000000 		.4byte	.LVL85
 3643 07b1 0300     		.2byte	0x3
 3644 07b3 76       		.byte	0x76
ARM GAS  /tmp/cck4mDbc.s 			page 65


 3645 07b4 02       		.sleb128 2
 3646 07b5 9F       		.byte	0x9f
 3647 07b6 78000000 		.4byte	.LVL85
 3648 07ba C4000000 		.4byte	.LVL95
 3649 07be 0300     		.2byte	0x3
 3650 07c0 76       		.byte	0x76
 3651 07c1 01       		.sleb128 1
 3652 07c2 9F       		.byte	0x9f
 3653 07c3 00000000 		.4byte	0
 3654 07c7 00000000 		.4byte	0
 3655              	.LLST42:
 3656 07cb 56000000 		.4byte	.LVL79
 3657 07cf 5C000000 		.4byte	.LVL80
 3658 07d3 0200     		.2byte	0x2
 3659 07d5 70       		.byte	0x70
 3660 07d6 00       		.sleb128 0
 3661 07d7 5C000000 		.4byte	.LVL80
 3662 07db C4000000 		.4byte	.LVL95
 3663 07df 0100     		.2byte	0x1
 3664 07e1 58       		.byte	0x58
 3665 07e2 00000000 		.4byte	0
 3666 07e6 00000000 		.4byte	0
 3667              	.LLST43:
 3668 07ea 5C000000 		.4byte	.LVL80
 3669 07ee 63000000 		.4byte	.LVL82-1
 3670 07f2 0200     		.2byte	0x2
 3671 07f4 76       		.byte	0x76
 3672 07f5 00       		.sleb128 0
 3673 07f6 78000000 		.4byte	.LVL85
 3674 07fa AE000000 		.4byte	.LVL90
 3675 07fe 0200     		.2byte	0x2
 3676 0800 76       		.byte	0x76
 3677 0801 00       		.sleb128 0
 3678 0802 00000000 		.4byte	0
 3679 0806 00000000 		.4byte	0
 3680              	.LLST44:
 3681 080a 5C000000 		.4byte	.LVL80
 3682 080e 60000000 		.4byte	.LVL81
 3683 0812 0300     		.2byte	0x3
 3684 0814 91       		.byte	0x91
 3685 0815 4C       		.sleb128 -52
 3686 0816 9F       		.byte	0x9f
 3687 0817 60000000 		.4byte	.LVL81
 3688 081b 63000000 		.4byte	.LVL82-1
 3689 081f 0100     		.2byte	0x1
 3690 0821 51       		.byte	0x51
 3691 0822 63000000 		.4byte	.LVL82-1
 3692 0826 6C000000 		.4byte	.LVL83
 3693 082a 0300     		.2byte	0x3
 3694 082c 91       		.byte	0x91
 3695 082d 4C       		.sleb128 -52
 3696 082e 9F       		.byte	0x9f
 3697 082f 78000000 		.4byte	.LVL85
 3698 0833 B6000000 		.4byte	.LVL91
 3699 0837 0300     		.2byte	0x3
 3700 0839 91       		.byte	0x91
 3701 083a 4C       		.sleb128 -52
ARM GAS  /tmp/cck4mDbc.s 			page 66


 3702 083b 9F       		.byte	0x9f
 3703 083c B6000000 		.4byte	.LVL91
 3704 0840 BB000000 		.4byte	.LVL93-1
 3705 0844 0100     		.2byte	0x1
 3706 0846 51       		.byte	0x51
 3707 0847 BB000000 		.4byte	.LVL93-1
 3708 084b C2000000 		.4byte	.LVL94
 3709 084f 0300     		.2byte	0x3
 3710 0851 91       		.byte	0x91
 3711 0852 4C       		.sleb128 -52
 3712 0853 9F       		.byte	0x9f
 3713 0854 00000000 		.4byte	0
 3714 0858 00000000 		.4byte	0
 3715              	.LLST45:
 3716 085c 5C000000 		.4byte	.LVL80
 3717 0860 6C000000 		.4byte	.LVL83
 3718 0864 0100     		.2byte	0x1
 3719 0866 54       		.byte	0x54
 3720 0867 78000000 		.4byte	.LVL85
 3721 086b C2000000 		.4byte	.LVL94
 3722 086f 0100     		.2byte	0x1
 3723 0871 54       		.byte	0x54
 3724 0872 00000000 		.4byte	0
 3725 0876 00000000 		.4byte	0
 3726              	.LLST46:
 3727 087a 8C000000 		.4byte	.LVL86
 3728 087e 9E000000 		.4byte	.LVL88
 3729 0882 0100     		.2byte	0x1
 3730 0884 52       		.byte	0x52
 3731 0885 9E000000 		.4byte	.LVL88
 3732 0889 AE000000 		.4byte	.LVL90
 3733 088d 0A00     		.2byte	0xa
 3734 088f 76       		.byte	0x76
 3735 0890 00       		.sleb128 0
 3736 0891 94       		.byte	0x94
 3737 0892 01       		.byte	0x1
 3738 0893 08       		.byte	0x8
 3739 0894 FF       		.byte	0xff
 3740 0895 1A       		.byte	0x1a
 3741 0896 48       		.byte	0x48
 3742 0897 1C       		.byte	0x1c
 3743 0898 9F       		.byte	0x9f
 3744 0899 00000000 		.4byte	0
 3745 089d 00000000 		.4byte	0
 3746              	.LLST47:
 3747 08a1 8C000000 		.4byte	.LVL86
 3748 08a5 B6000000 		.4byte	.LVL91
 3749 08a9 0300     		.2byte	0x3
 3750 08ab 91       		.byte	0x91
 3751 08ac 4C       		.sleb128 -52
 3752 08ad 9F       		.byte	0x9f
 3753 08ae B6000000 		.4byte	.LVL91
 3754 08b2 BB000000 		.4byte	.LVL93-1
 3755 08b6 0100     		.2byte	0x1
 3756 08b8 51       		.byte	0x51
 3757 08b9 BB000000 		.4byte	.LVL93-1
 3758 08bd C2000000 		.4byte	.LVL94
ARM GAS  /tmp/cck4mDbc.s 			page 67


 3759 08c1 0300     		.2byte	0x3
 3760 08c3 91       		.byte	0x91
 3761 08c4 4C       		.sleb128 -52
 3762 08c5 9F       		.byte	0x9f
 3763 08c6 00000000 		.4byte	0
 3764 08ca 00000000 		.4byte	0
 3765              	.LLST48:
 3766 08ce 8C000000 		.4byte	.LVL86
 3767 08d2 C2000000 		.4byte	.LVL94
 3768 08d6 0100     		.2byte	0x1
 3769 08d8 54       		.byte	0x54
 3770 08d9 00000000 		.4byte	0
 3771 08dd 00000000 		.4byte	0
 3772              	.LLST49:
 3773 08e1 9A000000 		.4byte	.LVL87
 3774 08e5 9E000000 		.4byte	.LVL88
 3775 08e9 0700     		.2byte	0x7
 3776 08eb 72       		.byte	0x72
 3777 08ec 00       		.sleb128 0
 3778 08ed 31       		.byte	0x31
 3779 08ee 24       		.byte	0x24
 3780 08ef 70       		.byte	0x70
 3781 08f0 00       		.sleb128 0
 3782 08f1 22       		.byte	0x22
 3783 08f2 9E000000 		.4byte	.LVL88
 3784 08f6 AE000000 		.4byte	.LVL90
 3785 08fa 1100     		.2byte	0x11
 3786 08fc 76       		.byte	0x76
 3787 08fd 00       		.sleb128 0
 3788 08fe 94       		.byte	0x94
 3789 08ff 01       		.byte	0x1
 3790 0900 08       		.byte	0x8
 3791 0901 FF       		.byte	0xff
 3792 0902 1A       		.byte	0x1a
 3793 0903 48       		.byte	0x48
 3794 0904 1C       		.byte	0x1c
 3795 0905 08       		.byte	0x8
 3796 0906 FF       		.byte	0xff
 3797 0907 1A       		.byte	0x1a
 3798 0908 31       		.byte	0x31
 3799 0909 24       		.byte	0x24
 3800 090a 70       		.byte	0x70
 3801 090b 00       		.sleb128 0
 3802 090c 22       		.byte	0x22
 3803 090d 00000000 		.4byte	0
 3804 0911 00000000 		.4byte	0
 3805              	.LLST50:
 3806 0915 A0000000 		.4byte	.LVL89
 3807 0919 AE000000 		.4byte	.LVL90
 3808 091d 0100     		.2byte	0x1
 3809 091f 52       		.byte	0x52
 3810 0920 00000000 		.4byte	0
 3811 0924 00000000 		.4byte	0
 3812              	.LLST51:
 3813 0928 A0000000 		.4byte	.LVL89
 3814 092c AE000000 		.4byte	.LVL90
 3815 0930 0200     		.2byte	0x2
ARM GAS  /tmp/cck4mDbc.s 			page 68


 3816 0932 30       		.byte	0x30
 3817 0933 9F       		.byte	0x9f
 3818 0934 00000000 		.4byte	0
 3819 0938 00000000 		.4byte	0
 3820              	.LLST52:
 3821 093c AE000000 		.4byte	.LVL90
 3822 0940 B8000000 		.4byte	.LVL92
 3823 0944 0600     		.2byte	0x6
 3824 0946 74       		.byte	0x74
 3825 0947 20       		.sleb128 32
 3826 0948 06       		.byte	0x6
 3827 0949 75       		.byte	0x75
 3828 094a 00       		.sleb128 0
 3829 094b 22       		.byte	0x22
 3830 094c B8000000 		.4byte	.LVL92
 3831 0950 BB000000 		.4byte	.LVL93-1
 3832 0954 0800     		.2byte	0x8
 3833 0956 74       		.byte	0x74
 3834 0957 20       		.sleb128 32
 3835 0958 06       		.byte	0x6
 3836 0959 75       		.byte	0x75
 3837 095a 00       		.sleb128 0
 3838 095b 22       		.byte	0x22
 3839 095c 31       		.byte	0x31
 3840 095d 1C       		.byte	0x1c
 3841 095e 00000000 		.4byte	0
 3842 0962 00000000 		.4byte	0
 3843              	.LLST53:
 3844 0966 00000000 		.4byte	.LVL96
 3845 096a 0A000000 		.4byte	.LVL97
 3846 096e 0100     		.2byte	0x1
 3847 0970 50       		.byte	0x50
 3848 0971 0A000000 		.4byte	.LVL97
 3849 0975 11000000 		.4byte	.LVL99-1
 3850 0979 0100     		.2byte	0x1
 3851 097b 53       		.byte	0x53
 3852 097c 11000000 		.4byte	.LVL99-1
 3853 0980 18000000 		.4byte	.LFE121
 3854 0984 0400     		.2byte	0x4
 3855 0986 F3       		.byte	0xf3
 3856 0987 01       		.uleb128 0x1
 3857 0988 50       		.byte	0x50
 3858 0989 9F       		.byte	0x9f
 3859 098a 00000000 		.4byte	0
 3860 098e 00000000 		.4byte	0
 3861              	.LLST54:
 3862 0992 00000000 		.4byte	.LVL96
 3863 0996 0E000000 		.4byte	.LVL98
 3864 099a 0100     		.2byte	0x1
 3865 099c 51       		.byte	0x51
 3866 099d 0E000000 		.4byte	.LVL98
 3867 09a1 18000000 		.4byte	.LFE121
 3868 09a5 0400     		.2byte	0x4
 3869 09a7 F3       		.byte	0xf3
 3870 09a8 01       		.uleb128 0x1
 3871 09a9 51       		.byte	0x51
 3872 09aa 9F       		.byte	0x9f
ARM GAS  /tmp/cck4mDbc.s 			page 69


 3873 09ab 00000000 		.4byte	0
 3874 09af 00000000 		.4byte	0
 3875              	.LLST55:
 3876 09b3 12000000 		.4byte	.LVL99
 3877 09b7 16000000 		.4byte	.LVL100
 3878 09bb 0100     		.2byte	0x1
 3879 09bd 50       		.byte	0x50
 3880 09be 00000000 		.4byte	0
 3881 09c2 00000000 		.4byte	0
 3882              		.section	.debug_aranges,"",%progbits
 3883 0000 3C000000 		.4byte	0x3c
 3884 0004 0200     		.2byte	0x2
 3885 0006 00000000 		.4byte	.Ldebug_info0
 3886 000a 04       		.byte	0x4
 3887 000b 00       		.byte	0
 3888 000c 0000     		.2byte	0
 3889 000e 0000     		.2byte	0
 3890 0010 00000000 		.4byte	.LFB112
 3891 0014 6C000000 		.4byte	.LFE112-.LFB112
 3892 0018 00000000 		.4byte	.LFB122
 3893 001c 38000000 		.4byte	.LFE122-.LFB122
 3894 0020 00000000 		.4byte	.LFB117
 3895 0024 98010000 		.4byte	.LFE117-.LFB117
 3896 0028 00000000 		.4byte	.LFB120
 3897 002c CA000000 		.4byte	.LFE120-.LFB120
 3898 0030 00000000 		.4byte	.LFB121
 3899 0034 18000000 		.4byte	.LFE121-.LFB121
 3900 0038 00000000 		.4byte	0
 3901 003c 00000000 		.4byte	0
 3902              		.section	.debug_ranges,"",%progbits
 3903              	.Ldebug_ranges0:
 3904 0000 2A000000 		.4byte	.LBB23
 3905 0004 32000000 		.4byte	.LBE23
 3906 0008 34000000 		.4byte	.LBB24
 3907 000c 36000000 		.4byte	.LBE24
 3908 0010 00000000 		.4byte	0
 3909 0014 00000000 		.4byte	0
 3910 0018 1E000000 		.4byte	.LBB41
 3911 001c 80000000 		.4byte	.LBE41
 3912 0020 84000000 		.4byte	.LBB56
 3913 0024 8C000000 		.4byte	.LBE56
 3914 0028 9E000000 		.4byte	.LBB57
 3915 002c BE000000 		.4byte	.LBE57
 3916 0030 8C010000 		.4byte	.LBB71
 3917 0034 98010000 		.4byte	.LBE71
 3918 0038 00000000 		.4byte	0
 3919 003c 00000000 		.4byte	0
 3920 0040 1E000000 		.4byte	.LBB43
 3921 0044 24000000 		.4byte	.LBE43
 3922 0048 9E000000 		.4byte	.LBB51
 3923 004c B4000000 		.4byte	.LBE51
 3924 0050 8C010000 		.4byte	.LBB52
 3925 0054 98010000 		.4byte	.LBE52
 3926 0058 00000000 		.4byte	0
 3927 005c 00000000 		.4byte	0
 3928 0060 42000000 		.4byte	.LBB47
 3929 0064 6E000000 		.4byte	.LBE47
ARM GAS  /tmp/cck4mDbc.s 			page 70


 3930 0068 70000000 		.4byte	.LBB50
 3931 006c 72000000 		.4byte	.LBE50
 3932 0070 00000000 		.4byte	0
 3933 0074 00000000 		.4byte	0
 3934 0078 E6000000 		.4byte	.LBB62
 3935 007c 1E010000 		.4byte	.LBE62
 3936 0080 26010000 		.4byte	.LBB70
 3937 0084 8C010000 		.4byte	.LBE70
 3938 0088 00000000 		.4byte	0
 3939 008c 00000000 		.4byte	0
 3940 0090 4A010000 		.4byte	.LBB66
 3941 0094 4E010000 		.4byte	.LBE66
 3942 0098 54010000 		.4byte	.LBB69
 3943 009c 7C010000 		.4byte	.LBE69
 3944 00a0 00000000 		.4byte	0
 3945 00a4 00000000 		.4byte	0
 3946 00a8 58000000 		.4byte	.LBB77
 3947 00ac 5A000000 		.4byte	.LBE77
 3948 00b0 5C000000 		.4byte	.LBB87
 3949 00b4 6C000000 		.4byte	.LBE87
 3950 00b8 70000000 		.4byte	.LBB88
 3951 00bc 74000000 		.4byte	.LBE88
 3952 00c0 78000000 		.4byte	.LBB89
 3953 00c4 C2000000 		.4byte	.LBE89
 3954 00c8 00000000 		.4byte	0
 3955 00cc 00000000 		.4byte	0
 3956 00d0 58000000 		.4byte	.LBB79
 3957 00d4 5A000000 		.4byte	.LBE79
 3958 00d8 8C000000 		.4byte	.LBB83
 3959 00dc C2000000 		.4byte	.LBE83
 3960 00e0 00000000 		.4byte	0
 3961 00e4 00000000 		.4byte	0
 3962 00e8 00000000 		.4byte	.LFB112
 3963 00ec 6C000000 		.4byte	.LFE112
 3964 00f0 00000000 		.4byte	.LFB122
 3965 00f4 38000000 		.4byte	.LFE122
 3966 00f8 00000000 		.4byte	.LFB117
 3967 00fc 98010000 		.4byte	.LFE117
 3968 0100 00000000 		.4byte	.LFB120
 3969 0104 CA000000 		.4byte	.LFE120
 3970 0108 00000000 		.4byte	.LFB121
 3971 010c 18000000 		.4byte	.LFE121
 3972 0110 00000000 		.4byte	0
 3973 0114 00000000 		.4byte	0
 3974              		.section	.debug_line,"",%progbits
 3975              	.Ldebug_line0:
 3976 0000 84020000 		.section	.debug_str,"MS",%progbits,1
 3976      02001D01 
 3976      00000201 
 3976      FB0E0D00 
 3976      01010101 
 3977              	.LASF43:
 3978 0000 76657273 		.ascii	"version\000"
 3978      696F6E00 
 3979              	.LASF37:
 3980 0008 66697273 		.ascii	"first_char\000"
 3980      745F6368 
ARM GAS  /tmp/cck4mDbc.s 			page 71


 3980      617200
 3981              	.LASF38:
 3982 0013 63686172 		.ascii	"char_count\000"
 3982      5F636F75 
 3982      6E7400
 3983              	.LASF62:
 3984 001e 736B6970 		.ascii	"skip_pixels\000"
 3984      5F706978 
 3984      656C7300 
 3985              	.LASF55:
 3986 002a 73746174 		.ascii	"state\000"
 3986      6500
 3987              	.LASF57:
 3988 0030 696E6465 		.ascii	"index\000"
 3988      7800
 3989              	.LASF5:
 3990 0036 73686F72 		.ascii	"short int\000"
 3990      7420696E 
 3990      7400
 3991              	.LASF78:
 3992 0040 6D665F72 		.ascii	"mf_rlefont_character_width\000"
 3992      6C65666F 
 3992      6E745F63 
 3992      68617261 
 3992      63746572 
 3993              	.LASF18:
 3994 005b 73697A65 		.ascii	"sizetype\000"
 3994      74797065 
 3994      00
 3995              	.LASF69:
 3996 0064 77726974 		.ascii	"write_bin_codeword\000"
 3996      655F6269 
 3996      6E5F636F 
 3996      6465776F 
 3996      726400
 3997              	.LASF42:
 3998 0077 666F6E74 		.ascii	"font\000"
 3998      00
 3999              	.LASF6:
 4000 007c 5F5F7569 		.ascii	"__uint16_t\000"
 4000      6E743136 
 4000      5F7400
 4001              	.LASF47:
 4002 0087 64696374 		.ascii	"dict_entry_count\000"
 4002      5F656E74 
 4002      72795F63 
 4002      6F756E74 
 4002      00
 4003              	.LASF32:
 4004 0098 72656E64 		.ascii	"render_character\000"
 4004      65725F63 
 4004      68617261 
 4004      63746572 
 4004      00
 4005              	.LASF45:
 4006 00a9 64696374 		.ascii	"dictionary_offsets\000"
 4006      696F6E61 
ARM GAS  /tmp/cck4mDbc.s 			page 72


 4006      72795F6F 
 4006      66667365 
 4006      747300
 4007              	.LASF4:
 4008 00bc 5F5F696E 		.ascii	"__int16_t\000"
 4008      7431365F 
 4008      7400
 4009              	.LASF66:
 4010 00c6 616C7068 		.ascii	"alpha\000"
 4010      6100
 4011              	.LASF33:
 4012 00cc 6D665F63 		.ascii	"mf_char\000"
 4012      68617200 
 4013              	.LASF61:
 4014 00d4 636F756E 		.ascii	"count\000"
 4014      7400
 4015              	.LASF35:
 4016 00da 6D665F66 		.ascii	"mf_font_s\000"
 4016      6F6E745F 
 4016      7300
 4017              	.LASF24:
 4018 00e4 6D696E5F 		.ascii	"min_x_advance\000"
 4018      785F6164 
 4018      76616E63 
 4018      6500
 4019              	.LASF68:
 4020 00f2 66696C6C 		.ascii	"fillentry_bitcount\000"
 4020      656E7472 
 4020      795F6269 
 4020      74636F75 
 4020      6E7400
 4021              	.LASF70:
 4022 0105 62697463 		.ascii	"bitcount\000"
 4022      6F756E74 
 4022      00
 4023              	.LASF49:
 4024 010e 63686172 		.ascii	"char_ranges\000"
 4024      5F72616E 
 4024      67657300 
 4025              	.LASF67:
 4026 011a 66696E64 		.ascii	"find_glyph\000"
 4026      5F676C79 
 4026      706800
 4027              	.LASF79:
 4028 0125 474E5520 		.ascii	"GNU C 4.8.4 20140526 (release) [ARM/embedded-4_8-br"
 4028      4320342E 
 4028      382E3420 
 4028      32303134 
 4028      30353236 
 4029 0158 616E6368 		.ascii	"anch revision 211358] -mcpu=cortex-m4 -mfloat-abi=h"
 4029      20726576 
 4029      6973696F 
 4029      6E203231 
 4029      31333538 
 4030 018b 61726420 		.ascii	"ard -mfpu=fpv4-sp-d16 -mno-thumb-interwork -mthumb "
 4030      2D6D6670 
 4030      753D6670 
ARM GAS  /tmp/cck4mDbc.s 			page 73


 4030      76342D73 
 4030      702D6431 
 4031 01be 2D676764 		.ascii	"-ggdb -O2 -fomit-frame-pointer -falign-functions=16"
 4031      62202D4F 
 4031      32202D66 
 4031      6F6D6974 
 4031      2D667261 
 4032 01f1 202D6666 		.ascii	" -ffunction-sections -fdata-sections -fno-common -f"
 4032      756E6374 
 4032      696F6E2D 
 4032      73656374 
 4032      696F6E73 
 4033 0224 73696E67 		.ascii	"single-precision-constant\000"
 4033      6C652D70 
 4033      72656369 
 4033      73696F6E 
 4033      2D636F6E 
 4034              	.LASF52:
 4035 023e 785F656E 		.ascii	"x_end\000"
 4035      6400
 4036              	.LASF11:
 4037 0244 6C6F6E67 		.ascii	"long long int\000"
 4037      206C6F6E 
 4037      6720696E 
 4037      7400
 4038              	.LASF46:
 4039 0252 726C655F 		.ascii	"rle_entry_count\000"
 4039      656E7472 
 4039      795F636F 
 4039      756E7400 
 4040              	.LASF9:
 4041 0262 6C6F6E67 		.ascii	"long int\000"
 4041      20696E74 
 4041      00
 4042              	.LASF59:
 4043 026b 6F666673 		.ascii	"offset\000"
 4043      657400
 4044              	.LASF3:
 4045 0272 5F5F7569 		.ascii	"__uint8_t\000"
 4045      6E74385F 
 4045      7400
 4046              	.LASF36:
 4047 027c 6D665F72 		.ascii	"mf_rlefont_char_range_s\000"
 4047      6C65666F 
 4047      6E745F63 
 4047      6861725F 
 4047      72616E67 
 4048              	.LASF75:
 4049 0294 77726974 		.ascii	"write_ref_dictentry\000"
 4049      655F7265 
 4049      665F6469 
 4049      6374656E 
 4049      74727900 
 4050              	.LASF71:
 4051 02a8 62797465 		.ascii	"byte\000"
 4051      00
 4052              	.LASF20:
ARM GAS  /tmp/cck4mDbc.s 			page 74


 4053 02ad 66756C6C 		.ascii	"full_name\000"
 4053      5F6E616D 
 4053      6500
 4054              	.LASF21:
 4055 02b7 73686F72 		.ascii	"short_name\000"
 4055      745F6E61 
 4055      6D6500
 4056              	.LASF41:
 4057 02c2 6D665F72 		.ascii	"mf_rlefont_s\000"
 4057      6C65666F 
 4057      6E745F73 
 4057      00
 4058              	.LASF64:
 4059 02cf 6C656E67 		.ascii	"length\000"
 4059      746800
 4060              	.LASF40:
 4061 02d6 676C7970 		.ascii	"glyph_data\000"
 4061      685F6461 
 4061      746100
 4062              	.LASF72:
 4063 02e1 72756E6C 		.ascii	"runlen\000"
 4063      656E00
 4064              	.LASF2:
 4065 02e8 756E7369 		.ascii	"unsigned char\000"
 4065      676E6564 
 4065      20636861 
 4065      7200
 4066              	.LASF1:
 4067 02f6 7369676E 		.ascii	"signed char\000"
 4067      65642063 
 4067      68617200 
 4068              	.LASF29:
 4069 0302 666C6167 		.ascii	"flags\000"
 4069      7300
 4070              	.LASF12:
 4071 0308 6C6F6E67 		.ascii	"long long unsigned int\000"
 4071      206C6F6E 
 4071      6720756E 
 4071      7369676E 
 4071      65642069 
 4072              	.LASF81:
 4073 031f 2F686F6D 		.ascii	"/home/makkmarci/devel/ChibiOS_2.6.5/projects/STM32F"
 4073      652F6D61 
 4073      6B6B6D61 
 4073      7263692F 
 4073      64657665 
 4074 0352 345F4368 		.ascii	"4_ChibiOS_uGFX_gwin_2/\000"
 4074      6962694F 
 4074      535F7547 
 4074      46585F67 
 4074      77696E5F 
 4075              	.LASF0:
 4076 0369 756E7369 		.ascii	"unsigned int\000"
 4076      676E6564 
 4076      20696E74 
 4076      00
 4077              	.LASF51:
ARM GAS  /tmp/cck4mDbc.s 			page 75


 4078 0376 785F6265 		.ascii	"x_begin\000"
 4078      67696E00 
 4079              	.LASF15:
 4080 037e 75696E74 		.ascii	"uint16_t\000"
 4080      31365F74 
 4080      00
 4081              	.LASF60:
 4082 0387 72737461 		.ascii	"rstate\000"
 4082      746500
 4083              	.LASF65:
 4084 038e 636F6465 		.ascii	"code\000"
 4084      00
 4085              	.LASF77:
 4086 0393 6D665F72 		.ascii	"mf_rlefont_render_character\000"
 4086      6C65666F 
 4086      6E745F72 
 4086      656E6465 
 4086      725F6368 
 4087              	.LASF82:
 4088 03af 77726974 		.ascii	"write_pixels\000"
 4088      655F7069 
 4088      78656C73 
 4088      00
 4089              	.LASF25:
 4090 03bc 6D61785F 		.ascii	"max_x_advance\000"
 4090      785F6164 
 4090      76616E63 
 4090      6500
 4091              	.LASF19:
 4092 03ca 63686172 		.ascii	"char\000"
 4092      00
 4093              	.LASF26:
 4094 03cf 62617365 		.ascii	"baseline_x\000"
 4094      6C696E65 
 4094      5F7800
 4095              	.LASF27:
 4096 03da 62617365 		.ascii	"baseline_y\000"
 4096      6C696E65 
 4096      5F7900
 4097              	.LASF16:
 4098 03e5 696E7433 		.ascii	"int32_t\000"
 4098      325F7400 
 4099              	.LASF8:
 4100 03ed 5F5F696E 		.ascii	"__int32_t\000"
 4100      7433325F 
 4100      7400
 4101              	.LASF7:
 4102 03f7 73686F72 		.ascii	"short unsigned int\000"
 4102      7420756E 
 4102      7369676E 
 4102      65642069 
 4102      6E7400
 4103              	.LASF34:
 4104 040a 6D665F70 		.ascii	"mf_pixel_callback_t\000"
 4104      6978656C 
 4104      5F63616C 
 4104      6C626163 
ARM GAS  /tmp/cck4mDbc.s 			page 76


 4104      6B5F7400 
 4105              	.LASF53:
 4106 041e 795F656E 		.ascii	"y_end\000"
 4106      6400
 4107              	.LASF17:
 4108 0424 5F426F6F 		.ascii	"_Bool\000"
 4108      6C00
 4109              	.LASF23:
 4110 042a 68656967 		.ascii	"height\000"
 4110      687400
 4111              	.LASF76:
 4112 0431 726F776C 		.ascii	"rowlen\000"
 4112      656E00
 4113              	.LASF74:
 4114 0438 77726974 		.ascii	"write_glyph_codeword\000"
 4114      655F676C 
 4114      7970685F 
 4114      636F6465 
 4114      776F7264 
 4115              	.LASF63:
 4116 044d 77726974 		.ascii	"write_rle_dictentry\000"
 4116      655F726C 
 4116      655F6469 
 4116      6374656E 
 4116      74727900 
 4117              	.LASF10:
 4118 0461 6C6F6E67 		.ascii	"long unsigned int\000"
 4118      20756E73 
 4118      69676E65 
 4118      6420696E 
 4118      7400
 4119              	.LASF56:
 4120 0473 63686172 		.ascii	"character\000"
 4120      61637465 
 4120      7200
 4121              	.LASF48:
 4122 047d 63686172 		.ascii	"char_range_count\000"
 4122      5F72616E 
 4122      67655F63 
 4122      6F756E74 
 4122      00
 4123              	.LASF28:
 4124 048e 6C696E65 		.ascii	"line_height\000"
 4124      5F686569 
 4124      67687400 
 4125              	.LASF22:
 4126 049a 77696474 		.ascii	"width\000"
 4126      6800
 4127              	.LASF39:
 4128 04a0 676C7970 		.ascii	"glyph_offsets\000"
 4128      685F6F66 
 4128      66736574 
 4128      7300
 4129              	.LASF50:
 4130 04ae 72656E64 		.ascii	"renderstate_r\000"
 4130      65727374 
 4130      6174655F 
ARM GAS  /tmp/cck4mDbc.s 			page 77


 4130      7200
 4131              	.LASF58:
 4132 04bc 72616E67 		.ascii	"range\000"
 4132      6500
 4133              	.LASF73:
 4134 04c2 77726974 		.ascii	"write_ref_codeword\000"
 4134      655F7265 
 4134      665F636F 
 4134      6465776F 
 4134      726400
 4135              	.LASF13:
 4136 04d5 75696E74 		.ascii	"uint8_t\000"
 4136      385F7400 
 4137              	.LASF30:
 4138 04dd 66616C6C 		.ascii	"fallback_character\000"
 4138      6261636B 
 4138      5F636861 
 4138      72616374 
 4138      657200
 4139              	.LASF31:
 4140 04f0 63686172 		.ascii	"character_width\000"
 4140      61637465 
 4140      725F7769 
 4140      64746800 
 4141              	.LASF14:
 4142 0500 696E7431 		.ascii	"int16_t\000"
 4142      365F7400 
 4143              	.LASF83:
 4144 0508 49544D5F 		.ascii	"ITM_RxBuffer\000"
 4144      52784275 
 4144      66666572 
 4144      00
 4145              	.LASF80:
 4146 0515 2F686F6D 		.ascii	"/home/makkmarci/devel/ugfx/src/gdisp/mcufont/mf_rle"
 4146      652F6D61 
 4146      6B6B6D61 
 4146      7263692F 
 4146      64657665 
 4147 0548 666F6E74 		.ascii	"font.c\000"
 4147      2E6300
 4148              	.LASF44:
 4149 054f 64696374 		.ascii	"dictionary_data\000"
 4149      696F6E61 
 4149      72795F64 
 4149      61746100 
 4150              	.LASF54:
 4151 055f 63616C6C 		.ascii	"callback\000"
 4151      6261636B 
 4151      00
 4152              		.ident	"GCC: (GNU Tools for ARM Embedded Processors) 4.8.4 20140526 (release) [ARM/embedded-4_8-br
ARM GAS  /tmp/cck4mDbc.s 			page 78


DEFINED SYMBOLS
                            *ABS*:00000000 mf_rlefont.c
     /tmp/cck4mDbc.s:21     .text.write_pixels:00000000 $t
     /tmp/cck4mDbc.s:26     .text.write_pixels:00000000 write_pixels
     /tmp/cck4mDbc.s:138    .text.find_glyph.isra.0:00000000 $t
     /tmp/cck4mDbc.s:143    .text.find_glyph.isra.0:00000000 find_glyph.isra.0
     /tmp/cck4mDbc.s:214    .text.write_ref_codeword:00000000 $t
     /tmp/cck4mDbc.s:219    .text.write_ref_codeword:00000000 write_ref_codeword
     /tmp/cck4mDbc.s:628    .text.mf_rlefont_render_character:00000000 $t
     /tmp/cck4mDbc.s:634    .text.mf_rlefont_render_character:00000000 mf_rlefont_render_character
     /tmp/cck4mDbc.s:823    .text.mf_rlefont_character_width:00000000 $t
     /tmp/cck4mDbc.s:829    .text.mf_rlefont_character_width:00000000 mf_rlefont_character_width
                     .debug_frame:00000010 $d

NO UNDEFINED SYMBOLS
