ARM GAS  /tmp/ccSx0oYy.s 			page 1


   1              		.syntax unified
   2              		.cpu cortex-m4
   3              		.eabi_attribute 27, 1
   4              		.eabi_attribute 28, 1
   5              		.fpu fpv4-sp-d16
   6              		.eabi_attribute 20, 1
   7              		.eabi_attribute 21, 1
   8              		.eabi_attribute 23, 3
   9              		.eabi_attribute 24, 1
  10              		.eabi_attribute 25, 1
  11              		.eabi_attribute 26, 1
  12              		.eabi_attribute 30, 6
  13              		.eabi_attribute 34, 1
  14              		.eabi_attribute 18, 4
  15              		.thumb
  16              		.file	"mf_rlefont.c"
  17              		.text
  18              	.Ltext0:
  19              		.cfi_sections	.debug_frame
  20              		.section	.text.find_glyph,"ax",%progbits
  21              		.align	2
  22              		.p2align 4,,15
  23              		.thumb
  24              		.thumb_func
  25              		.type	find_glyph, %function
  26              	find_glyph:
  27              	.LFB111:
  28              		.file 1 "/home/makkmarci/workspace/ugfx/src/gdisp/mcufont/mf_rlefont.c"
  29              		.loc 1 40 0
  30              		.cfi_startproc
  31              		@ args = 0, pretend = 0, frame = 24
  32              		@ frame_needed = 0, uses_anonymous_args = 0
  33              		@ link register save eliminated.
  34 0000 86B0     		sub	sp, sp, #24
  35              		.cfi_def_cfa_offset 24
  36 0002 0190     		str	r0, [sp, #4]
  37 0004 0B46     		mov	r3, r1
  38 0006 ADF80230 		strh	r3, [sp, #2]	@ movhi
  39              		.loc 1 43 0
  40 000a 0023     		movs	r3, #0
  41 000c 0593     		str	r3, [sp, #20]
  42 000e 2BE0     		b	.L2
  43              	.L5:
  44              		.loc 1 45 0
  45 0010 019B     		ldr	r3, [sp, #4]
  46 0012 D96A     		ldr	r1, [r3, #44]
  47 0014 059A     		ldr	r2, [sp, #20]
  48 0016 1346     		mov	r3, r2
  49 0018 5B00     		lsls	r3, r3, #1
  50 001a 1344     		add	r3, r3, r2
  51 001c 9B00     		lsls	r3, r3, #2
  52 001e 0B44     		add	r3, r3, r1
  53 0020 0493     		str	r3, [sp, #16]
  54              		.loc 1 46 0
  55 0022 BDF80230 		ldrh	r3, [sp, #2]
  56 0026 049A     		ldr	r2, [sp, #16]
  57 0028 1288     		ldrh	r2, [r2]
ARM GAS  /tmp/ccSx0oYy.s 			page 2


  58 002a 9B1A     		subs	r3, r3, r2
  59 002c 0393     		str	r3, [sp, #12]
  60              		.loc 1 47 0
  61 002e 049B     		ldr	r3, [sp, #16]
  62 0030 1B88     		ldrh	r3, [r3]
  63 0032 BDF80220 		ldrh	r2, [sp, #2]
  64 0036 9A42     		cmp	r2, r3
  65 0038 13D3     		bcc	.L3
  66              		.loc 1 47 0 is_stmt 0 discriminator 1
  67 003a 049B     		ldr	r3, [sp, #16]
  68 003c 5B88     		ldrh	r3, [r3, #2]
  69 003e 1A46     		mov	r2, r3
  70 0040 039B     		ldr	r3, [sp, #12]
  71 0042 9A42     		cmp	r2, r3
  72 0044 0DD9     		bls	.L3
  73              	.LBB2:
  74              		.loc 1 49 0 is_stmt 1
  75 0046 049B     		ldr	r3, [sp, #16]
  76 0048 5A68     		ldr	r2, [r3, #4]
  77 004a 039B     		ldr	r3, [sp, #12]
  78 004c 5B00     		lsls	r3, r3, #1
  79 004e 1344     		add	r3, r3, r2
  80 0050 1B88     		ldrh	r3, [r3]	@ movhi
  81 0052 ADF80A30 		strh	r3, [sp, #10]	@ movhi
  82              		.loc 1 50 0
  83 0056 049B     		ldr	r3, [sp, #16]
  84 0058 9A68     		ldr	r2, [r3, #8]
  85 005a BDF80A30 		ldrh	r3, [sp, #10]
  86 005e 1344     		add	r3, r3, r2
  87 0060 0AE0     		b	.L4
  88              	.L3:
  89              	.LBE2:
  90              		.loc 1 43 0 discriminator 2
  91 0062 059B     		ldr	r3, [sp, #20]
  92 0064 0133     		adds	r3, r3, #1
  93 0066 0593     		str	r3, [sp, #20]
  94              	.L2:
  95              		.loc 1 43 0 is_stmt 0 discriminator 1
  96 0068 019B     		ldr	r3, [sp, #4]
  97 006a 93F82A30 		ldrb	r3, [r3, #42]	@ zero_extendqisi2
  98 006e 1A46     		mov	r2, r3
  99 0070 059B     		ldr	r3, [sp, #20]
 100 0072 9A42     		cmp	r2, r3
 101 0074 CCD8     		bhi	.L5
 102              		.loc 1 54 0 is_stmt 1
 103 0076 0023     		movs	r3, #0
 104              	.L4:
 105              		.loc 1 55 0
 106 0078 1846     		mov	r0, r3
 107 007a 06B0     		add	sp, sp, #24
 108              		.cfi_def_cfa_offset 0
 109              		@ sp needed
 110 007c 7047     		bx	lr
 111              		.cfi_endproc
 112              	.LFE111:
 113              		.size	find_glyph, .-find_glyph
 114 007e 00BF     		.section	.text.write_pixels,"ax",%progbits
ARM GAS  /tmp/ccSx0oYy.s 			page 3


 115              		.align	2
 116              		.p2align 4,,15
 117              		.thumb
 118              		.thumb_func
 119              		.type	write_pixels, %function
 120              	write_pixels:
 121              	.LFB112:
 122              		.loc 1 74 0
 123              		.cfi_startproc
 124              		@ args = 0, pretend = 0, frame = 16
 125              		@ frame_needed = 0, uses_anonymous_args = 0
 126 0000 30B5     		push	{r4, r5, lr}
 127              		.cfi_def_cfa_offset 12
 128              		.cfi_offset 4, -12
 129              		.cfi_offset 5, -8
 130              		.cfi_offset 14, -4
 131 0002 87B0     		sub	sp, sp, #28
 132              		.cfi_def_cfa_offset 40
 133 0004 0390     		str	r0, [sp, #12]
 134 0006 0B46     		mov	r3, r1
 135 0008 ADF80A30 		strh	r3, [sp, #10]	@ movhi
 136 000c 1346     		mov	r3, r2
 137 000e 8DF80930 		strb	r3, [sp, #9]
 138              		.loc 1 78 0
 139 0012 2EE0     		b	.L7
 140              	.L8:
 141              		.loc 1 80 0
 142 0014 039B     		ldr	r3, [sp, #12]
 143 0016 5B88     		ldrh	r3, [r3, #2]
 144 0018 DAB2     		uxtb	r2, r3
 145 001a 039B     		ldr	r3, [sp, #12]
 146 001c 9B88     		ldrh	r3, [r3, #4]
 147 001e DBB2     		uxtb	r3, r3
 148 0020 D31A     		subs	r3, r2, r3
 149 0022 8DF81730 		strb	r3, [sp, #23]
 150              		.loc 1 81 0
 151 0026 039B     		ldr	r3, [sp, #12]
 152 0028 DC68     		ldr	r4, [r3, #12]
 153 002a 039B     		ldr	r3, [sp, #12]
 154 002c 9988     		ldrh	r1, [r3, #4]
 155 002e 039B     		ldr	r3, [sp, #12]
 156 0030 DA88     		ldrh	r2, [r3, #6]
 157 0032 039B     		ldr	r3, [sp, #12]
 158 0034 1B69     		ldr	r3, [r3, #16]
 159 0036 08B2     		sxth	r0, r1
 160 0038 11B2     		sxth	r1, r2
 161 003a 9DF81720 		ldrb	r2, [sp, #23]	@ zero_extendqisi2
 162 003e 9DF80950 		ldrb	r5, [sp, #9]	@ zero_extendqisi2
 163 0042 0093     		str	r3, [sp]
 164 0044 2B46     		mov	r3, r5
 165 0046 A047     		blx	r4
 166              		.loc 1 82 0
 167 0048 9DF81730 		ldrb	r3, [sp, #23]	@ zero_extendqisi2
 168 004c 9BB2     		uxth	r3, r3
 169 004e BDF80A20 		ldrh	r2, [sp, #10]	@ movhi
 170 0052 D31A     		subs	r3, r2, r3
 171 0054 ADF80A30 		strh	r3, [sp, #10]	@ movhi
ARM GAS  /tmp/ccSx0oYy.s 			page 4


 172              		.loc 1 83 0
 173 0058 039B     		ldr	r3, [sp, #12]
 174 005a 1A88     		ldrh	r2, [r3]
 175 005c 039B     		ldr	r3, [sp, #12]
 176 005e 9A80     		strh	r2, [r3, #4]	@ movhi
 177              		.loc 1 84 0
 178 0060 039B     		ldr	r3, [sp, #12]
 179 0062 DB88     		ldrh	r3, [r3, #6]
 180 0064 9BB2     		uxth	r3, r3
 181 0066 9BB2     		uxth	r3, r3
 182 0068 0133     		adds	r3, r3, #1
 183 006a 9BB2     		uxth	r3, r3
 184 006c 9AB2     		uxth	r2, r3
 185 006e 039B     		ldr	r3, [sp, #12]
 186 0070 DA80     		strh	r2, [r3, #6]	@ movhi
 187              	.L7:
 188              		.loc 1 78 0
 189 0072 039B     		ldr	r3, [sp, #12]
 190 0074 9B88     		ldrh	r3, [r3, #4]
 191 0076 1AB2     		sxth	r2, r3
 192 0078 BDF80A30 		ldrh	r3, [sp, #10]
 193 007c 1A44     		add	r2, r2, r3
 194 007e 039B     		ldr	r3, [sp, #12]
 195 0080 5B88     		ldrh	r3, [r3, #2]
 196 0082 1BB2     		sxth	r3, r3
 197 0084 9A42     		cmp	r2, r3
 198 0086 C5DA     		bge	.L8
 199              		.loc 1 88 0
 200 0088 BDF80A30 		ldrh	r3, [sp, #10]
 201 008c 002B     		cmp	r3, #0
 202 008e 1BD0     		beq	.L6
 203              		.loc 1 90 0
 204 0090 039B     		ldr	r3, [sp, #12]
 205 0092 DC68     		ldr	r4, [r3, #12]
 206 0094 039B     		ldr	r3, [sp, #12]
 207 0096 9888     		ldrh	r0, [r3, #4]
 208 0098 039B     		ldr	r3, [sp, #12]
 209 009a D988     		ldrh	r1, [r3, #6]
 210 009c BDF80A30 		ldrh	r3, [sp, #10]	@ movhi
 211 00a0 DAB2     		uxtb	r2, r3
 212 00a2 039B     		ldr	r3, [sp, #12]
 213 00a4 1B69     		ldr	r3, [r3, #16]
 214 00a6 00B2     		sxth	r0, r0
 215 00a8 09B2     		sxth	r1, r1
 216 00aa 9DF80950 		ldrb	r5, [sp, #9]	@ zero_extendqisi2
 217 00ae 0093     		str	r3, [sp]
 218 00b0 2B46     		mov	r3, r5
 219 00b2 A047     		blx	r4
 220              		.loc 1 91 0
 221 00b4 039B     		ldr	r3, [sp, #12]
 222 00b6 9B88     		ldrh	r3, [r3, #4]
 223 00b8 9AB2     		uxth	r2, r3
 224 00ba BDF80A30 		ldrh	r3, [sp, #10]	@ movhi
 225 00be 1344     		add	r3, r3, r2
 226 00c0 9BB2     		uxth	r3, r3
 227 00c2 9AB2     		uxth	r2, r3
 228 00c4 039B     		ldr	r3, [sp, #12]
ARM GAS  /tmp/ccSx0oYy.s 			page 5


 229 00c6 9A80     		strh	r2, [r3, #4]	@ movhi
 230              	.L6:
 231              		.loc 1 93 0
 232 00c8 07B0     		add	sp, sp, #28
 233              		.cfi_def_cfa_offset 12
 234              		@ sp needed
 235 00ca 30BD     		pop	{r4, r5, pc}
 236              		.cfi_endproc
 237              	.LFE112:
 238              		.size	write_pixels, .-write_pixels
 239 00cc AFF30080 		.section	.text.skip_pixels,"ax",%progbits
 240              		.align	2
 241              		.p2align 4,,15
 242              		.thumb
 243              		.thumb_func
 244              		.type	skip_pixels, %function
 245              	skip_pixels:
 246              	.LFB113:
 247              		.loc 1 97 0
 248              		.cfi_startproc
 249              		@ args = 0, pretend = 0, frame = 8
 250              		@ frame_needed = 0, uses_anonymous_args = 0
 251              		@ link register save eliminated.
 252 0000 82B0     		sub	sp, sp, #8
 253              		.cfi_def_cfa_offset 8
 254 0002 0190     		str	r0, [sp, #4]
 255 0004 0B46     		mov	r3, r1
 256 0006 ADF80230 		strh	r3, [sp, #2]	@ movhi
 257              		.loc 1 98 0
 258 000a 019B     		ldr	r3, [sp, #4]
 259 000c 9B88     		ldrh	r3, [r3, #4]
 260 000e 9AB2     		uxth	r2, r3
 261 0010 BDF80230 		ldrh	r3, [sp, #2]	@ movhi
 262 0014 1344     		add	r3, r3, r2
 263 0016 9BB2     		uxth	r3, r3
 264 0018 9AB2     		uxth	r2, r3
 265 001a 019B     		ldr	r3, [sp, #4]
 266 001c 9A80     		strh	r2, [r3, #4]	@ movhi
 267              		.loc 1 99 0
 268 001e 18E0     		b	.L11
 269              	.L12:
 270              		.loc 1 101 0
 271 0020 019B     		ldr	r3, [sp, #4]
 272 0022 9B88     		ldrh	r3, [r3, #4]
 273 0024 9AB2     		uxth	r2, r3
 274 0026 019B     		ldr	r3, [sp, #4]
 275 0028 1B88     		ldrh	r3, [r3]
 276 002a 99B2     		uxth	r1, r3
 277 002c 019B     		ldr	r3, [sp, #4]
 278 002e 5B88     		ldrh	r3, [r3, #2]
 279 0030 9BB2     		uxth	r3, r3
 280 0032 CB1A     		subs	r3, r1, r3
 281 0034 9BB2     		uxth	r3, r3
 282 0036 1344     		add	r3, r3, r2
 283 0038 9BB2     		uxth	r3, r3
 284 003a 9AB2     		uxth	r2, r3
 285 003c 019B     		ldr	r3, [sp, #4]
ARM GAS  /tmp/ccSx0oYy.s 			page 6


 286 003e 9A80     		strh	r2, [r3, #4]	@ movhi
 287              		.loc 1 102 0
 288 0040 019B     		ldr	r3, [sp, #4]
 289 0042 DB88     		ldrh	r3, [r3, #6]
 290 0044 9BB2     		uxth	r3, r3
 291 0046 9BB2     		uxth	r3, r3
 292 0048 0133     		adds	r3, r3, #1
 293 004a 9BB2     		uxth	r3, r3
 294 004c 9AB2     		uxth	r2, r3
 295 004e 019B     		ldr	r3, [sp, #4]
 296 0050 DA80     		strh	r2, [r3, #6]	@ movhi
 297              	.L11:
 298              		.loc 1 99 0
 299 0052 019B     		ldr	r3, [sp, #4]
 300 0054 9A88     		ldrh	r2, [r3, #4]
 301 0056 019B     		ldr	r3, [sp, #4]
 302 0058 5B88     		ldrh	r3, [r3, #2]
 303 005a 12B2     		sxth	r2, r2
 304 005c 1BB2     		sxth	r3, r3
 305 005e 9A42     		cmp	r2, r3
 306 0060 DEDA     		bge	.L12
 307              		.loc 1 104 0
 308 0062 02B0     		add	sp, sp, #8
 309              		.cfi_def_cfa_offset 0
 310              		@ sp needed
 311 0064 7047     		bx	lr
 312              		.cfi_endproc
 313              	.LFE113:
 314              		.size	skip_pixels, .-skip_pixels
 315 0066 00BFAFF3 		.section	.text.write_rle_dictentry,"ax",%progbits
 315      0080AFF3 
 315      0080
 316              		.align	2
 317              		.p2align 4,,15
 318              		.thumb
 319              		.thumb_func
 320              		.type	write_rle_dictentry, %function
 321              	write_rle_dictentry:
 322              	.LFB114:
 323              		.loc 1 110 0
 324              		.cfi_startproc
 325              		@ args = 0, pretend = 0, frame = 32
 326              		@ frame_needed = 0, uses_anonymous_args = 0
 327 0000 00B5     		push	{lr}
 328              		.cfi_def_cfa_offset 4
 329              		.cfi_offset 14, -4
 330 0002 89B0     		sub	sp, sp, #36
 331              		.cfi_def_cfa_offset 40
 332 0004 0390     		str	r0, [sp, #12]
 333 0006 0291     		str	r1, [sp, #8]
 334 0008 1346     		mov	r3, r2
 335 000a 8DF80730 		strb	r3, [sp, #7]
 336              		.loc 1 111 0
 337 000e 039B     		ldr	r3, [sp, #12]
 338 0010 5A6A     		ldr	r2, [r3, #36]
 339 0012 9DF80730 		ldrb	r3, [sp, #7]	@ zero_extendqisi2
 340 0016 5B00     		lsls	r3, r3, #1
ARM GAS  /tmp/ccSx0oYy.s 			page 7


 341 0018 1344     		add	r3, r3, r2
 342 001a 1B88     		ldrh	r3, [r3]	@ movhi
 343 001c ADF81C30 		strh	r3, [sp, #28]	@ movhi
 344              		.loc 1 112 0
 345 0020 039B     		ldr	r3, [sp, #12]
 346 0022 5A6A     		ldr	r2, [r3, #36]
 347 0024 9DF80730 		ldrb	r3, [sp, #7]	@ zero_extendqisi2
 348 0028 0133     		adds	r3, r3, #1
 349 002a 5B00     		lsls	r3, r3, #1
 350 002c 1344     		add	r3, r3, r2
 351 002e 1A88     		ldrh	r2, [r3]
 352 0030 BDF81C30 		ldrh	r3, [sp, #28]	@ movhi
 353 0034 D31A     		subs	r3, r2, r3
 354 0036 ADF81A30 		strh	r3, [sp, #26]	@ movhi
 355              		.loc 1 115 0
 356 003a 0023     		movs	r3, #0
 357 003c ADF81E30 		strh	r3, [sp, #30]	@ movhi
 358 0040 6AE0     		b	.L14
 359              	.L19:
 360              	.LBB3:
 361              		.loc 1 117 0
 362 0042 039B     		ldr	r3, [sp, #12]
 363 0044 1B6A     		ldr	r3, [r3, #32]
 364 0046 BDF81C10 		ldrh	r1, [sp, #28]
 365 004a BDF81E20 		ldrh	r2, [sp, #30]
 366 004e 0A44     		add	r2, r2, r1
 367 0050 1344     		add	r3, r3, r2
 368 0052 1B78     		ldrb	r3, [r3]
 369 0054 8DF81930 		strb	r3, [sp, #25]
 370              		.loc 1 118 0
 371 0058 9DF81930 		ldrb	r3, [sp, #25]	@ zero_extendqisi2
 372 005c 03F0C003 		and	r3, r3, #192
 373 0060 002B     		cmp	r3, #0
 374 0062 0AD1     		bne	.L15
 375              		.loc 1 120 0
 376 0064 9DF81930 		ldrb	r3, [sp, #25]	@ zero_extendqisi2
 377 0068 9BB2     		uxth	r3, r3
 378 006a 03F03F03 		and	r3, r3, #63
 379 006e 9BB2     		uxth	r3, r3
 380 0070 0298     		ldr	r0, [sp, #8]
 381 0072 1946     		mov	r1, r3
 382 0074 FFF7FEFF 		bl	skip_pixels
 383 0078 49E0     		b	.L16
 384              	.L15:
 385              		.loc 1 122 0
 386 007a 9DF81930 		ldrb	r3, [sp, #25]	@ zero_extendqisi2
 387 007e 03F0C003 		and	r3, r3, #192
 388 0082 402B     		cmp	r3, #64
 389 0084 0CD1     		bne	.L17
 390              		.loc 1 124 0
 391 0086 9DF81930 		ldrb	r3, [sp, #25]	@ zero_extendqisi2
 392 008a 03F03F03 		and	r3, r3, #63
 393 008e 0133     		adds	r3, r3, #1
 394 0090 9BB2     		uxth	r3, r3
 395 0092 9B01     		lsls	r3, r3, #6
 396 0094 9BB2     		uxth	r3, r3
 397 0096 0298     		ldr	r0, [sp, #8]
ARM GAS  /tmp/ccSx0oYy.s 			page 8


 398 0098 1946     		mov	r1, r3
 399 009a FFF7FEFF 		bl	skip_pixels
 400 009e 36E0     		b	.L16
 401              	.L17:
 402              		.loc 1 126 0
 403 00a0 9DF81930 		ldrb	r3, [sp, #25]	@ zero_extendqisi2
 404 00a4 03F0C003 		and	r3, r3, #192
 405 00a8 802B     		cmp	r3, #128
 406 00aa 0DD1     		bne	.L18
 407              		.loc 1 128 0
 408 00ac 9DF81930 		ldrb	r3, [sp, #25]	@ zero_extendqisi2
 409 00b0 9BB2     		uxth	r3, r3
 410 00b2 03F03F03 		and	r3, r3, #63
 411 00b6 9BB2     		uxth	r3, r3
 412 00b8 0133     		adds	r3, r3, #1
 413 00ba 9BB2     		uxth	r3, r3
 414 00bc 0298     		ldr	r0, [sp, #8]
 415 00be 1946     		mov	r1, r3
 416 00c0 FF22     		movs	r2, #255
 417 00c2 FFF7FEFF 		bl	write_pixels
 418 00c6 22E0     		b	.L16
 419              	.L18:
 420              		.loc 1 130 0
 421 00c8 9DF81930 		ldrb	r3, [sp, #25]	@ zero_extendqisi2
 422 00cc 03F0C003 		and	r3, r3, #192
 423 00d0 C02B     		cmp	r3, #192
 424 00d2 1CD1     		bne	.L16
 425              	.LBB4:
 426              		.loc 1 133 0
 427 00d4 9DF81930 		ldrb	r3, [sp, #25]	@ zero_extendqisi2
 428 00d8 03F03F03 		and	r3, r3, #63
 429 00dc 1B11     		asrs	r3, r3, #4
 430 00de DBB2     		uxtb	r3, r3
 431 00e0 0133     		adds	r3, r3, #1
 432 00e2 8DF81830 		strb	r3, [sp, #24]
 433              		.loc 1 134 0
 434 00e6 9DF81930 		ldrb	r3, [sp, #25]
 435 00ea 03F00F03 		and	r3, r3, #15
 436 00ee DBB2     		uxtb	r3, r3
 437 00f0 1A46     		mov	r2, r3
 438 00f2 1201     		lsls	r2, r2, #4
 439 00f4 1344     		add	r3, r3, r2
 440 00f6 8DF81730 		strb	r3, [sp, #23]
 441              		.loc 1 135 0
 442 00fa 9DF81830 		ldrb	r3, [sp, #24]	@ zero_extendqisi2
 443 00fe 9AB2     		uxth	r2, r3
 444 0100 9DF81730 		ldrb	r3, [sp, #23]	@ zero_extendqisi2
 445 0104 0298     		ldr	r0, [sp, #8]
 446 0106 1146     		mov	r1, r2
 447 0108 1A46     		mov	r2, r3
 448 010a FFF7FEFF 		bl	write_pixels
 449              	.L16:
 450              	.LBE4:
 451              	.LBE3:
 452              		.loc 1 115 0 discriminator 2
 453 010e BDF81E30 		ldrh	r3, [sp, #30]
 454 0112 0133     		adds	r3, r3, #1
ARM GAS  /tmp/ccSx0oYy.s 			page 9


 455 0114 ADF81E30 		strh	r3, [sp, #30]	@ movhi
 456              	.L14:
 457              		.loc 1 115 0 is_stmt 0 discriminator 1
 458 0118 BDF81E20 		ldrh	r2, [sp, #30]
 459 011c BDF81A30 		ldrh	r3, [sp, #26]
 460 0120 9A42     		cmp	r2, r3
 461 0122 8ED3     		bcc	.L19
 462              		.loc 1 138 0 is_stmt 1
 463 0124 09B0     		add	sp, sp, #36
 464              		.cfi_def_cfa_offset 4
 465              		@ sp needed
 466 0126 5DF804FB 		ldr	pc, [sp], #4
 467              		.cfi_endproc
 468              	.LFE114:
 469              		.size	write_rle_dictentry, .-write_rle_dictentry
 470 012a 00BFAFF3 		.section	.text.fillentry_bitcount,"ax",%progbits
 470      0080
 471              		.align	2
 472              		.p2align 4,,15
 473              		.thumb
 474              		.thumb_func
 475              		.type	fillentry_bitcount, %function
 476              	fillentry_bitcount:
 477              	.LFB115:
 478              		.loc 1 142 0
 479              		.cfi_startproc
 480              		@ args = 0, pretend = 0, frame = 8
 481              		@ frame_needed = 0, uses_anonymous_args = 0
 482              		@ link register save eliminated.
 483 0000 82B0     		sub	sp, sp, #8
 484              		.cfi_def_cfa_offset 8
 485 0002 0346     		mov	r3, r0
 486 0004 8DF80730 		strb	r3, [sp, #7]
 487              		.loc 1 143 0
 488 0008 9DF80730 		ldrb	r3, [sp, #7]	@ zero_extendqisi2
 489 000c FB2B     		cmp	r3, #251
 490 000e 01D9     		bls	.L21
 491              		.loc 1 144 0
 492 0010 0223     		movs	r3, #2
 493 0012 18E0     		b	.L22
 494              	.L21:
 495              		.loc 1 145 0
 496 0014 9DF80730 		ldrb	r3, [sp, #7]	@ zero_extendqisi2
 497 0018 F32B     		cmp	r3, #243
 498 001a 01D9     		bls	.L23
 499              		.loc 1 146 0
 500 001c 0323     		movs	r3, #3
 501 001e 12E0     		b	.L22
 502              	.L23:
 503              		.loc 1 147 0
 504 0020 9DF80730 		ldrb	r3, [sp, #7]	@ zero_extendqisi2
 505 0024 E32B     		cmp	r3, #227
 506 0026 01D9     		bls	.L24
 507              		.loc 1 148 0
 508 0028 0423     		movs	r3, #4
 509 002a 0CE0     		b	.L22
 510              	.L24:
ARM GAS  /tmp/ccSx0oYy.s 			page 10


 511              		.loc 1 149 0
 512 002c 9DF80730 		ldrb	r3, [sp, #7]	@ zero_extendqisi2
 513 0030 C32B     		cmp	r3, #195
 514 0032 01D9     		bls	.L25
 515              		.loc 1 150 0
 516 0034 0523     		movs	r3, #5
 517 0036 06E0     		b	.L22
 518              	.L25:
 519              		.loc 1 151 0
 520 0038 9DF80730 		ldrb	r3, [sp, #7]	@ zero_extendqisi2
 521 003c 832B     		cmp	r3, #131
 522 003e 01D9     		bls	.L26
 523              		.loc 1 152 0
 524 0040 0623     		movs	r3, #6
 525 0042 00E0     		b	.L22
 526              	.L26:
 527              		.loc 1 154 0
 528 0044 0723     		movs	r3, #7
 529              	.L22:
 530              		.loc 1 155 0
 531 0046 1846     		mov	r0, r3
 532 0048 02B0     		add	sp, sp, #8
 533              		.cfi_def_cfa_offset 0
 534              		@ sp needed
 535 004a 7047     		bx	lr
 536              		.cfi_endproc
 537              	.LFE115:
 538              		.size	fillentry_bitcount, .-fillentry_bitcount
 539 004c AFF30080 		.section	.text.write_bin_codeword,"ax",%progbits
 540              		.align	2
 541              		.p2align 4,,15
 542              		.thumb
 543              		.thumb_func
 544              		.type	write_bin_codeword, %function
 545              	write_bin_codeword:
 546              	.LFB116:
 547              		.loc 1 161 0
 548              		.cfi_startproc
 549              		@ args = 0, pretend = 0, frame = 24
 550              		@ frame_needed = 0, uses_anonymous_args = 0
 551 0000 00B5     		push	{lr}
 552              		.cfi_def_cfa_offset 4
 553              		.cfi_offset 14, -4
 554 0002 87B0     		sub	sp, sp, #28
 555              		.cfi_def_cfa_offset 32
 556 0004 0390     		str	r0, [sp, #12]
 557 0006 0291     		str	r1, [sp, #8]
 558 0008 1346     		mov	r3, r2
 559 000a 8DF80730 		strb	r3, [sp, #7]
 560              		.loc 1 162 0
 561 000e 9DF80730 		ldrb	r3, [sp, #7]	@ zero_extendqisi2
 562 0012 1846     		mov	r0, r3
 563 0014 FFF7FEFF 		bl	fillentry_bitcount
 564 0018 0346     		mov	r3, r0
 565 001a 8DF81730 		strb	r3, [sp, #23]
 566              		.loc 1 163 0
 567 001e 9DF80730 		ldrb	r3, [sp, #7]
ARM GAS  /tmp/ccSx0oYy.s 			page 11


 568 0022 043B     		subs	r3, r3, #4
 569 0024 8DF81630 		strb	r3, [sp, #22]
 570              		.loc 1 164 0
 571 0028 0023     		movs	r3, #0
 572 002a 8DF81530 		strb	r3, [sp, #21]
 573              		.loc 1 167 0
 574 002e 23E0     		b	.L28
 575              	.L32:
 576              		.loc 1 169 0
 577 0030 9DF81630 		ldrb	r3, [sp, #22]	@ zero_extendqisi2
 578 0034 03F00103 		and	r3, r3, #1
 579 0038 002B     		cmp	r3, #0
 580 003a 05D0     		beq	.L29
 581              		.loc 1 171 0
 582 003c 9DF81530 		ldrb	r3, [sp, #21]	@ zero_extendqisi2
 583 0040 0133     		adds	r3, r3, #1
 584 0042 8DF81530 		strb	r3, [sp, #21]
 585 0046 12E0     		b	.L30
 586              	.L29:
 587              		.loc 1 175 0
 588 0048 9DF81530 		ldrb	r3, [sp, #21]	@ zero_extendqisi2
 589 004c 002B     		cmp	r3, #0
 590 004e 0AD0     		beq	.L31
 591              		.loc 1 177 0
 592 0050 9DF81530 		ldrb	r3, [sp, #21]	@ zero_extendqisi2
 593 0054 9BB2     		uxth	r3, r3
 594 0056 0298     		ldr	r0, [sp, #8]
 595 0058 1946     		mov	r1, r3
 596 005a FF22     		movs	r2, #255
 597 005c FFF7FEFF 		bl	write_pixels
 598              		.loc 1 178 0
 599 0060 0023     		movs	r3, #0
 600 0062 8DF81530 		strb	r3, [sp, #21]
 601              	.L31:
 602              		.loc 1 181 0
 603 0066 0298     		ldr	r0, [sp, #8]
 604 0068 0121     		movs	r1, #1
 605 006a FFF7FEFF 		bl	skip_pixels
 606              	.L30:
 607              		.loc 1 184 0
 608 006e 9DF81630 		ldrb	r3, [sp, #22]	@ zero_extendqisi2
 609 0072 5B08     		lsrs	r3, r3, #1
 610 0074 8DF81630 		strb	r3, [sp, #22]
 611              	.L28:
 612              		.loc 1 167 0
 613 0078 9DF81730 		ldrb	r3, [sp, #23]	@ zero_extendqisi2
 614 007c 5A1E     		subs	r2, r3, #1
 615 007e 8DF81720 		strb	r2, [sp, #23]
 616 0082 002B     		cmp	r3, #0
 617 0084 D4D1     		bne	.L32
 618              		.loc 1 187 0
 619 0086 9DF81530 		ldrb	r3, [sp, #21]	@ zero_extendqisi2
 620 008a 002B     		cmp	r3, #0
 621 008c 07D0     		beq	.L27
 622              		.loc 1 188 0
 623 008e 9DF81530 		ldrb	r3, [sp, #21]	@ zero_extendqisi2
 624 0092 9BB2     		uxth	r3, r3
ARM GAS  /tmp/ccSx0oYy.s 			page 12


 625 0094 0298     		ldr	r0, [sp, #8]
 626 0096 1946     		mov	r1, r3
 627 0098 FF22     		movs	r2, #255
 628 009a FFF7FEFF 		bl	write_pixels
 629              	.L27:
 630              		.loc 1 189 0
 631 009e 07B0     		add	sp, sp, #28
 632              		.cfi_def_cfa_offset 4
 633              		@ sp needed
 634 00a0 5DF804FB 		ldr	pc, [sp], #4
 635              		.cfi_endproc
 636              	.LFE116:
 637              		.size	write_bin_codeword, .-write_bin_codeword
 638 00a4 AFF30080 		.section	.text.write_ref_codeword,"ax",%progbits
 638      AFF30080 
 638      AFF30080 
 639              		.align	2
 640              		.p2align 4,,15
 641              		.thumb
 642              		.thumb_func
 643              		.type	write_ref_codeword, %function
 644              	write_ref_codeword:
 645              	.LFB117:
 646              		.loc 1 195 0
 647              		.cfi_startproc
 648              		@ args = 0, pretend = 0, frame = 16
 649              		@ frame_needed = 0, uses_anonymous_args = 0
 650 0000 00B5     		push	{lr}
 651              		.cfi_def_cfa_offset 4
 652              		.cfi_offset 14, -4
 653 0002 85B0     		sub	sp, sp, #20
 654              		.cfi_def_cfa_offset 24
 655 0004 0390     		str	r0, [sp, #12]
 656 0006 0291     		str	r1, [sp, #8]
 657 0008 1346     		mov	r3, r2
 658 000a 8DF80730 		strb	r3, [sp, #7]
 659              		.loc 1 196 0
 660 000e 9DF80730 		ldrb	r3, [sp, #7]	@ zero_extendqisi2
 661 0012 0F2B     		cmp	r3, #15
 662 0014 0BD8     		bhi	.L35
 663              		.loc 1 198 0
 664 0016 9DF80730 		ldrb	r3, [sp, #7]
 665 001a 1A46     		mov	r2, r3
 666 001c 1201     		lsls	r2, r2, #4
 667 001e 1344     		add	r3, r3, r2
 668 0020 DBB2     		uxtb	r3, r3
 669 0022 0298     		ldr	r0, [sp, #8]
 670 0024 0121     		movs	r1, #1
 671 0026 1A46     		mov	r2, r3
 672 0028 FFF7FEFF 		bl	write_pixels
 673 002c 25E0     		b	.L34
 674              	.L35:
 675              		.loc 1 200 0
 676 002e 9DF80730 		ldrb	r3, [sp, #7]	@ zero_extendqisi2
 677 0032 102B     		cmp	r3, #16
 678 0034 04D1     		bne	.L37
 679              		.loc 1 203 0
ARM GAS  /tmp/ccSx0oYy.s 			page 13


 680 0036 029B     		ldr	r3, [sp, #8]
 681 0038 1A89     		ldrh	r2, [r3, #8]
 682 003a 029B     		ldr	r3, [sp, #8]
 683 003c DA80     		strh	r2, [r3, #6]	@ movhi
 684 003e 1CE0     		b	.L34
 685              	.L37:
 686              		.loc 1 205 0
 687 0040 9DF80730 		ldrb	r3, [sp, #7]	@ zero_extendqisi2
 688 0044 172B     		cmp	r3, #23
 689 0046 18D9     		bls	.L34
 690              		.loc 1 209 0
 691 0048 9DF80720 		ldrb	r2, [sp, #7]	@ zero_extendqisi2
 692 004c 039B     		ldr	r3, [sp, #12]
 693 004e 93F82830 		ldrb	r3, [r3, #40]	@ zero_extendqisi2
 694 0052 1833     		adds	r3, r3, #24
 695 0054 9A42     		cmp	r2, r3
 696 0056 09DA     		bge	.L38
 697              		.loc 1 211 0
 698 0058 9DF80730 		ldrb	r3, [sp, #7]
 699 005c 183B     		subs	r3, r3, #24
 700 005e DBB2     		uxtb	r3, r3
 701 0060 0398     		ldr	r0, [sp, #12]
 702 0062 0299     		ldr	r1, [sp, #8]
 703 0064 1A46     		mov	r2, r3
 704 0066 FFF7FEFF 		bl	write_rle_dictentry
 705 006a 06E0     		b	.L34
 706              	.L38:
 707              		.loc 1 215 0
 708 006c 9DF80730 		ldrb	r3, [sp, #7]	@ zero_extendqisi2
 709 0070 0398     		ldr	r0, [sp, #12]
 710 0072 0299     		ldr	r1, [sp, #8]
 711 0074 1A46     		mov	r2, r3
 712 0076 FFF7FEFF 		bl	write_bin_codeword
 713              	.L34:
 714              		.loc 1 217 0
 715 007a 05B0     		add	sp, sp, #20
 716              		.cfi_def_cfa_offset 4
 717              		@ sp needed
 718 007c 5DF804FB 		ldr	pc, [sp], #4
 719              		.cfi_endproc
 720              	.LFE117:
 721              		.size	write_ref_codeword, .-write_ref_codeword
 722              		.section	.text.write_ref_dictentry,"ax",%progbits
 723              		.align	2
 724              		.p2align 4,,15
 725              		.thumb
 726              		.thumb_func
 727              		.type	write_ref_dictentry, %function
 728              	write_ref_dictentry:
 729              	.LFB118:
 730              		.loc 1 223 0
 731              		.cfi_startproc
 732              		@ args = 0, pretend = 0, frame = 24
 733              		@ frame_needed = 0, uses_anonymous_args = 0
 734 0000 00B5     		push	{lr}
 735              		.cfi_def_cfa_offset 4
 736              		.cfi_offset 14, -4
ARM GAS  /tmp/ccSx0oYy.s 			page 14


 737 0002 87B0     		sub	sp, sp, #28
 738              		.cfi_def_cfa_offset 32
 739 0004 0390     		str	r0, [sp, #12]
 740 0006 0291     		str	r1, [sp, #8]
 741 0008 1346     		mov	r3, r2
 742 000a 8DF80730 		strb	r3, [sp, #7]
 743              		.loc 1 224 0
 744 000e 039B     		ldr	r3, [sp, #12]
 745 0010 5A6A     		ldr	r2, [r3, #36]
 746 0012 9DF80730 		ldrb	r3, [sp, #7]	@ zero_extendqisi2
 747 0016 5B00     		lsls	r3, r3, #1
 748 0018 1344     		add	r3, r3, r2
 749 001a 1B88     		ldrh	r3, [r3]	@ movhi
 750 001c ADF81430 		strh	r3, [sp, #20]	@ movhi
 751              		.loc 1 225 0
 752 0020 039B     		ldr	r3, [sp, #12]
 753 0022 5A6A     		ldr	r2, [r3, #36]
 754 0024 9DF80730 		ldrb	r3, [sp, #7]	@ zero_extendqisi2
 755 0028 0133     		adds	r3, r3, #1
 756 002a 5B00     		lsls	r3, r3, #1
 757 002c 1344     		add	r3, r3, r2
 758 002e 1A88     		ldrh	r2, [r3]
 759 0030 BDF81430 		ldrh	r3, [sp, #20]	@ movhi
 760 0034 D31A     		subs	r3, r2, r3
 761 0036 ADF81230 		strh	r3, [sp, #18]	@ movhi
 762              		.loc 1 228 0
 763 003a 0023     		movs	r3, #0
 764 003c ADF81630 		strh	r3, [sp, #22]	@ movhi
 765 0040 16E0     		b	.L40
 766              	.L41:
 767              	.LBB5:
 768              		.loc 1 230 0 discriminator 3
 769 0042 039B     		ldr	r3, [sp, #12]
 770 0044 1B6A     		ldr	r3, [r3, #32]
 771 0046 BDF81410 		ldrh	r1, [sp, #20]
 772 004a BDF81620 		ldrh	r2, [sp, #22]
 773 004e 0A44     		add	r2, r2, r1
 774 0050 1344     		add	r3, r3, r2
 775 0052 1B78     		ldrb	r3, [r3]
 776 0054 8DF81130 		strb	r3, [sp, #17]
 777              		.loc 1 231 0 discriminator 3
 778 0058 9DF81130 		ldrb	r3, [sp, #17]	@ zero_extendqisi2
 779 005c 0398     		ldr	r0, [sp, #12]
 780 005e 0299     		ldr	r1, [sp, #8]
 781 0060 1A46     		mov	r2, r3
 782 0062 FFF7FEFF 		bl	write_ref_codeword
 783              	.LBE5:
 784              		.loc 1 228 0 discriminator 3
 785 0066 BDF81630 		ldrh	r3, [sp, #22]
 786 006a 0133     		adds	r3, r3, #1
 787 006c ADF81630 		strh	r3, [sp, #22]	@ movhi
 788              	.L40:
 789              		.loc 1 228 0 is_stmt 0 discriminator 1
 790 0070 BDF81620 		ldrh	r2, [sp, #22]
 791 0074 BDF81230 		ldrh	r3, [sp, #18]
 792 0078 9A42     		cmp	r2, r3
 793 007a E2D3     		bcc	.L41
ARM GAS  /tmp/ccSx0oYy.s 			page 15


 794              		.loc 1 233 0 is_stmt 1
 795 007c 07B0     		add	sp, sp, #28
 796              		.cfi_def_cfa_offset 4
 797              		@ sp needed
 798 007e 5DF804FB 		ldr	pc, [sp], #4
 799              		.cfi_endproc
 800              	.LFE118:
 801              		.size	write_ref_dictentry, .-write_ref_dictentry
 802 0082 00BFAFF3 		.section	.text.write_glyph_codeword,"ax",%progbits
 802      0080AFF3 
 802      0080AFF3 
 802      0080
 803              		.align	2
 804              		.p2align 4,,15
 805              		.thumb
 806              		.thumb_func
 807              		.type	write_glyph_codeword, %function
 808              	write_glyph_codeword:
 809              	.LFB119:
 810              		.loc 1 239 0
 811              		.cfi_startproc
 812              		@ args = 0, pretend = 0, frame = 16
 813              		@ frame_needed = 0, uses_anonymous_args = 0
 814 0000 00B5     		push	{lr}
 815              		.cfi_def_cfa_offset 4
 816              		.cfi_offset 14, -4
 817 0002 85B0     		sub	sp, sp, #20
 818              		.cfi_def_cfa_offset 24
 819 0004 0390     		str	r0, [sp, #12]
 820 0006 0291     		str	r1, [sp, #8]
 821 0008 1346     		mov	r3, r2
 822 000a 8DF80730 		strb	r3, [sp, #7]
 823              		.loc 1 240 0
 824 000e 9DF80720 		ldrb	r2, [sp, #7]	@ zero_extendqisi2
 825 0012 039B     		ldr	r3, [sp, #12]
 826 0014 93F82830 		ldrb	r3, [r3, #40]	@ zero_extendqisi2
 827 0018 1833     		adds	r3, r3, #24
 828 001a 9A42     		cmp	r2, r3
 829 001c 11DB     		blt	.L43
 830              		.loc 1 241 0 discriminator 1
 831 001e 9DF80720 		ldrb	r2, [sp, #7]	@ zero_extendqisi2
 832 0022 039B     		ldr	r3, [sp, #12]
 833 0024 93F82930 		ldrb	r3, [r3, #41]	@ zero_extendqisi2
 834 0028 1833     		adds	r3, r3, #24
 835              		.loc 1 240 0 discriminator 1
 836 002a 9A42     		cmp	r2, r3
 837 002c 09DA     		bge	.L43
 838              		.loc 1 243 0
 839 002e 9DF80730 		ldrb	r3, [sp, #7]
 840 0032 183B     		subs	r3, r3, #24
 841 0034 DBB2     		uxtb	r3, r3
 842 0036 0398     		ldr	r0, [sp, #12]
 843 0038 0299     		ldr	r1, [sp, #8]
 844 003a 1A46     		mov	r2, r3
 845 003c FFF7FEFF 		bl	write_ref_dictentry
 846 0040 06E0     		b	.L42
 847              	.L43:
ARM GAS  /tmp/ccSx0oYy.s 			page 16


 848              		.loc 1 247 0
 849 0042 9DF80730 		ldrb	r3, [sp, #7]	@ zero_extendqisi2
 850 0046 0398     		ldr	r0, [sp, #12]
 851 0048 0299     		ldr	r1, [sp, #8]
 852 004a 1A46     		mov	r2, r3
 853 004c FFF7FEFF 		bl	write_ref_codeword
 854              	.L42:
 855              		.loc 1 249 0
 856 0050 05B0     		add	sp, sp, #20
 857              		.cfi_def_cfa_offset 4
 858              		@ sp needed
 859 0052 5DF804FB 		ldr	pc, [sp], #4
 860              		.cfi_endproc
 861              	.LFE119:
 862              		.size	write_glyph_codeword, .-write_glyph_codeword
 863 0056 00BFAFF3 		.section	.text.mf_rlefont_render_character,"ax",%progbits
 863      0080AFF3 
 863      0080
 864              		.align	2
 865              		.p2align 4,,15
 866              		.global	mf_rlefont_render_character
 867              		.thumb
 868              		.thumb_func
 869              		.type	mf_rlefont_render_character, %function
 870              	mf_rlefont_render_character:
 871              	.LFB120:
 872              		.loc 1 257 0
 873              		.cfi_startproc
 874              		@ args = 8, pretend = 0, frame = 48
 875              		@ frame_needed = 0, uses_anonymous_args = 0
 876 0000 00B5     		push	{lr}
 877              		.cfi_def_cfa_offset 4
 878              		.cfi_offset 14, -4
 879 0002 8DB0     		sub	sp, sp, #52
 880              		.cfi_def_cfa_offset 56
 881 0004 0390     		str	r0, [sp, #12]
 882 0006 0846     		mov	r0, r1
 883 0008 1146     		mov	r1, r2
 884 000a 1A46     		mov	r2, r3
 885 000c 0346     		mov	r3, r0	@ movhi
 886 000e ADF80A30 		strh	r3, [sp, #10]	@ movhi
 887 0012 0B46     		mov	r3, r1	@ movhi
 888 0014 ADF80830 		strh	r3, [sp, #8]	@ movhi
 889 0018 1346     		mov	r3, r2	@ movhi
 890 001a ADF80630 		strh	r3, [sp, #6]	@ movhi
 891              		.loc 1 262 0
 892 001e BDF80A30 		ldrh	r3, [sp, #10]	@ movhi
 893 0022 ADF81430 		strh	r3, [sp, #20]	@ movhi
 894              		.loc 1 263 0
 895 0026 039B     		ldr	r3, [sp, #12]
 896 0028 1B7A     		ldrb	r3, [r3, #8]	@ zero_extendqisi2
 897 002a 9AB2     		uxth	r2, r3
 898 002c BDF80A30 		ldrh	r3, [sp, #10]
 899 0030 1344     		add	r3, r3, r2
 900 0032 9BB2     		uxth	r3, r3
 901 0034 9BB2     		uxth	r3, r3
 902 0036 ADF81630 		strh	r3, [sp, #22]	@ movhi
ARM GAS  /tmp/ccSx0oYy.s 			page 17


 903              		.loc 1 264 0
 904 003a BDF80A30 		ldrh	r3, [sp, #10]	@ movhi
 905 003e ADF81830 		strh	r3, [sp, #24]	@ movhi
 906              		.loc 1 265 0
 907 0042 BDF80830 		ldrh	r3, [sp, #8]	@ movhi
 908 0046 ADF81A30 		strh	r3, [sp, #26]	@ movhi
 909              		.loc 1 266 0
 910 004a 039B     		ldr	r3, [sp, #12]
 911 004c 5B7A     		ldrb	r3, [r3, #9]	@ zero_extendqisi2
 912 004e 9AB2     		uxth	r2, r3
 913 0050 BDF80830 		ldrh	r3, [sp, #8]
 914 0054 1344     		add	r3, r3, r2
 915 0056 9BB2     		uxth	r3, r3
 916 0058 9BB2     		uxth	r3, r3
 917 005a ADF81C30 		strh	r3, [sp, #28]	@ movhi
 918              		.loc 1 267 0
 919 005e 0E9B     		ldr	r3, [sp, #56]
 920 0060 0893     		str	r3, [sp, #32]
 921              		.loc 1 268 0
 922 0062 0F9B     		ldr	r3, [sp, #60]
 923 0064 0993     		str	r3, [sp, #36]
 924              		.loc 1 270 0
 925 0066 BDF80630 		ldrh	r3, [sp, #6]
 926 006a 0398     		ldr	r0, [sp, #12]
 927 006c 1946     		mov	r1, r3
 928 006e FFF7FEFF 		bl	find_glyph
 929 0072 0B90     		str	r0, [sp, #44]
 930              		.loc 1 271 0
 931 0074 0B9B     		ldr	r3, [sp, #44]
 932 0076 002B     		cmp	r3, #0
 933 0078 01D1     		bne	.L46
 934              		.loc 1 272 0
 935 007a 0023     		movs	r3, #0
 936 007c 1AE0     		b	.L50
 937              	.L46:
 938              		.loc 1 274 0
 939 007e 0B9B     		ldr	r3, [sp, #44]
 940 0080 5A1C     		adds	r2, r3, #1
 941 0082 0B92     		str	r2, [sp, #44]
 942 0084 1B78     		ldrb	r3, [r3]
 943 0086 8DF82B30 		strb	r3, [sp, #43]
 944              		.loc 1 275 0
 945 008a 09E0     		b	.L48
 946              	.L49:
 947              		.loc 1 277 0
 948 008c 0B9B     		ldr	r3, [sp, #44]
 949 008e 5A1C     		adds	r2, r3, #1
 950 0090 0B92     		str	r2, [sp, #44]
 951 0092 1B78     		ldrb	r3, [r3]	@ zero_extendqisi2
 952 0094 05AA     		add	r2, sp, #20
 953 0096 0398     		ldr	r0, [sp, #12]
 954 0098 1146     		mov	r1, r2
 955 009a 1A46     		mov	r2, r3
 956 009c FFF7FEFF 		bl	write_glyph_codeword
 957              	.L48:
 958              		.loc 1 275 0
 959 00a0 BDF81A20 		ldrh	r2, [sp, #26]
ARM GAS  /tmp/ccSx0oYy.s 			page 18


 960 00a4 BDF81C30 		ldrh	r3, [sp, #28]
 961 00a8 12B2     		sxth	r2, r2
 962 00aa 1BB2     		sxth	r3, r3
 963 00ac 9A42     		cmp	r2, r3
 964 00ae EDDB     		blt	.L49
 965              		.loc 1 280 0
 966 00b0 9DF82B30 		ldrb	r3, [sp, #43]	@ zero_extendqisi2
 967              	.L50:
 968              		.loc 1 281 0 discriminator 1
 969 00b4 1846     		mov	r0, r3
 970 00b6 0DB0     		add	sp, sp, #52
 971              		.cfi_def_cfa_offset 4
 972              		@ sp needed
 973 00b8 5DF804FB 		ldr	pc, [sp], #4
 974              		.cfi_endproc
 975              	.LFE120:
 976              		.size	mf_rlefont_render_character, .-mf_rlefont_render_character
 977 00bc AFF30080 		.section	.text.mf_rlefont_character_width,"ax",%progbits
 978              		.align	2
 979              		.p2align 4,,15
 980              		.global	mf_rlefont_character_width
 981              		.thumb
 982              		.thumb_func
 983              		.type	mf_rlefont_character_width, %function
 984              	mf_rlefont_character_width:
 985              	.LFB121:
 986              		.loc 1 285 0
 987              		.cfi_startproc
 988              		@ args = 0, pretend = 0, frame = 16
 989              		@ frame_needed = 0, uses_anonymous_args = 0
 990 0000 00B5     		push	{lr}
 991              		.cfi_def_cfa_offset 4
 992              		.cfi_offset 14, -4
 993 0002 85B0     		sub	sp, sp, #20
 994              		.cfi_def_cfa_offset 24
 995 0004 0190     		str	r0, [sp, #4]
 996 0006 0B46     		mov	r3, r1
 997 0008 ADF80230 		strh	r3, [sp, #2]	@ movhi
 998              		.loc 1 287 0
 999 000c BDF80230 		ldrh	r3, [sp, #2]
 1000 0010 0198     		ldr	r0, [sp, #4]
 1001 0012 1946     		mov	r1, r3
 1002 0014 FFF7FEFF 		bl	find_glyph
 1003 0018 0390     		str	r0, [sp, #12]
 1004              		.loc 1 288 0
 1005 001a 039B     		ldr	r3, [sp, #12]
 1006 001c 002B     		cmp	r3, #0
 1007 001e 01D1     		bne	.L52
 1008              		.loc 1 289 0
 1009 0020 0023     		movs	r3, #0
 1010 0022 01E0     		b	.L53
 1011              	.L52:
 1012              		.loc 1 291 0
 1013 0024 039B     		ldr	r3, [sp, #12]
 1014 0026 1B78     		ldrb	r3, [r3]	@ zero_extendqisi2
 1015              	.L53:
 1016              		.loc 1 292 0
ARM GAS  /tmp/ccSx0oYy.s 			page 19


 1017 0028 1846     		mov	r0, r3
 1018 002a 05B0     		add	sp, sp, #20
 1019              		.cfi_def_cfa_offset 4
 1020              		@ sp needed
 1021 002c 5DF804FB 		ldr	pc, [sp], #4
 1022              		.cfi_endproc
 1023              	.LFE121:
 1024              		.size	mf_rlefont_character_width, .-mf_rlefont_character_width
 1025              		.text
 1026              	.Letext0:
 1027              		.file 2 "/opt/gcc-arm-none-eabi/arm-none-eabi/include/machine/_default_types.h"
 1028              		.file 3 "/opt/gcc-arm-none-eabi/arm-none-eabi/include/stdint.h"
 1029              		.file 4 "/home/makkmarci/workspace/ugfx/src/gdisp/mcufont/mf_font.h"
 1030              		.file 5 "/home/makkmarci/workspace/ugfx/src/gdisp/mcufont/mf_encoding.h"
 1031              		.file 6 "/home/makkmarci/workspace/ugfx/src/gdisp/mcufont/mf_rlefont.h"
 1032              		.file 7 "/home/makkmarci/workspace/ChibiOS_2.6.8/os/ports/common/ARMCMx/CMSIS/include/core_cm4.h"