ARM GAS  /tmp/ccacBxLC.s 			page 1


   1              		.syntax unified
   2              		.cpu cortex-m4
   3              		.eabi_attribute 27, 3
   4              		.eabi_attribute 28, 1
   5              		.fpu fpv4-sp-d16
   6              		.eabi_attribute 20, 1
   7              		.eabi_attribute 21, 1
   8              		.eabi_attribute 23, 3
   9              		.eabi_attribute 24, 1
  10              		.eabi_attribute 25, 1
  11              		.eabi_attribute 26, 1
  12              		.eabi_attribute 30, 2
  13              		.eabi_attribute 34, 1
  14              		.eabi_attribute 18, 4
  15              		.thumb
  16              		.file	"mf_scaledfont.c"
  17              		.text
  18              	.Ltext0:
  19              		.cfi_sections	.debug_frame
  20              		.section	.text.scaled_pixel_callback,"ax",%progbits
  21              		.align	2
  22              		.p2align 4,,15
  23              		.thumb
  24              		.thumb_func
  25              		.type	scaled_pixel_callback, %function
  26              	scaled_pixel_callback:
  27              	.LFB111:
  28              		.file 1 "/home/makkmarci/devel/ugfx/src/gdisp/mcufont/mf_scaledfont.c"
  29              		.loc 1 24 0
  30              		.cfi_startproc
  31              		@ args = 4, pretend = 0, frame = 0
  32              		@ frame_needed = 0, uses_anonymous_args = 0
  33              	.LVL0:
  34 0000 2DE9F047 		push	{r4, r5, r6, r7, r8, r9, r10, lr}
  35              		.cfi_def_cfa_offset 32
  36              		.cfi_offset 4, -32
  37              		.cfi_offset 5, -28
  38              		.cfi_offset 6, -24
  39              		.cfi_offset 7, -20
  40              		.cfi_offset 8, -16
  41              		.cfi_offset 9, -12
  42              		.cfi_offset 10, -8
  43              		.cfi_offset 14, -4
  44 0004 82B0     		sub	sp, sp, #8
  45              		.cfi_def_cfa_offset 40
  46              		.loc 1 24 0
  47 0006 9A46     		mov	r10, r3
  48 0008 0A9D     		ldr	r5, [sp, #40]
  49              	.LVL1:
  50              		.loc 1 28 0
  51 000a 2E7A     		ldrb	r6, [r5, #8]	@ zero_extendqisi2
  52              		.loc 1 29 0
  53 000c B5F80A80 		ldrh	r8, [r5, #10]
  54              		.loc 1 30 0
  55 0010 B5F80C90 		ldrh	r9, [r5, #12]
  56 0014 6C7A     		ldrb	r4, [r5, #9]	@ zero_extendqisi2
  57              		.loc 1 28 0
ARM GAS  /tmp/ccacBxLC.s 			page 2


  58 0016 06FB02F2 		mul	r2, r6, r2
  59              	.LVL2:
  60              		.loc 1 29 0
  61 001a 00FB0680 		mla	r0, r0, r6, r8
  62              	.LVL3:
  63              		.loc 1 30 0
  64 001e 01FB0491 		mla	r1, r1, r4, r9
  65              	.LVL4:
  66              		.loc 1 28 0
  67 0022 D7B2     		uxtb	r7, r2
  68              	.LVL5:
  69              		.loc 1 29 0
  70 0024 0FFA80F8 		sxth	r8, r0
  71              	.LVL6:
  72              		.loc 1 30 0
  73 0028 1FFA81F9 		uxth	r9, r1
  74              	.LVL7:
  75              		.loc 1 32 0
  76 002c 7CB1     		cbz	r4, .L1
  77 002e 0024     		movs	r4, #0
  78              	.LVL8:
  79              	.L4:
  80              		.loc 1 34 0 discriminator 2
  81 0030 6E68     		ldr	r6, [r5, #4]
  82 0032 0096     		str	r6, [sp]
  83 0034 04EB0901 		add	r1, r4, r9
  84 0038 5346     		mov	r3, r10
  85 003a 09B2     		sxth	r1, r1
  86 003c 2E68     		ldr	r6, [r5]
  87 003e 4046     		mov	r0, r8
  88 0040 3A46     		mov	r2, r7
  89 0042 B047     		blx	r6
  90              	.LVL9:
  91              		.loc 1 32 0 discriminator 2
  92 0044 0134     		adds	r4, r4, #1
  93              	.LVL10:
  94 0046 6B7A     		ldrb	r3, [r5, #9]	@ zero_extendqisi2
  95 0048 E4B2     		uxtb	r4, r4
  96              	.LVL11:
  97 004a A342     		cmp	r3, r4
  98 004c F0D8     		bhi	.L4
  99              	.LVL12:
 100              	.L1:
 101              		.loc 1 36 0
 102 004e 02B0     		add	sp, sp, #8
 103              		@ sp needed
 104 0050 BDE8F087 		pop	{r4, r5, r6, r7, r8, r9, r10, pc}
 105              		.cfi_endproc
 106              	.LFE111:
 107              		.size	scaled_pixel_callback, .-scaled_pixel_callback
 108 0054 AFF30080 		.section	.text.mf_scaled_character_width,"ax",%progbits
 108      AFF30080 
 108      AFF30080 
 109              		.align	2
 110              		.p2align 4,,15
 111              		.global	mf_scaled_character_width
 112              		.thumb
ARM GAS  /tmp/ccacBxLC.s 			page 3


 113              		.thumb_func
 114              		.type	mf_scaled_character_width, %function
 115              	mf_scaled_character_width:
 116              	.LFB112:
 117              		.loc 1 40 0
 118              		.cfi_startproc
 119              		@ args = 0, pretend = 0, frame = 0
 120              		@ frame_needed = 0, uses_anonymous_args = 0
 121              	.LVL13:
 122 0000 10B5     		push	{r4, lr}
 123              		.cfi_def_cfa_offset 8
 124              		.cfi_offset 4, -8
 125              		.cfi_offset 14, -4
 126              		.loc 1 40 0
 127 0002 0446     		mov	r4, r0
 128              	.LVL14:
 129              		.loc 1 44 0
 130 0004 C069     		ldr	r0, [r0, #28]
 131              	.LVL15:
 132 0006 4369     		ldr	r3, [r0, #20]
 133 0008 9847     		blx	r3
 134              	.LVL16:
 135              		.loc 1 46 0
 136 000a 94F82030 		ldrb	r3, [r4, #32]	@ zero_extendqisi2
 137 000e 03FB00F0 		mul	r0, r3, r0
 138              	.LVL17:
 139              		.loc 1 47 0
 140 0012 C0B2     		uxtb	r0, r0
 141 0014 10BD     		pop	{r4, pc}
 142              		.cfi_endproc
 143              	.LFE112:
 144              		.size	mf_scaled_character_width, .-mf_scaled_character_width
 145 0016 00BFAFF3 		.section	.text.mf_scaled_render_character,"ax",%progbits
 145      0080AFF3 
 145      0080
 146              		.align	2
 147              		.p2align 4,,15
 148              		.global	mf_scaled_render_character
 149              		.thumb
 150              		.thumb_func
 151              		.type	mf_scaled_render_character, %function
 152              	mf_scaled_render_character:
 153              	.LFB113:
 154              		.loc 1 54 0
 155              		.cfi_startproc
 156              		@ args = 8, pretend = 0, frame = 16
 157              		@ frame_needed = 0, uses_anonymous_args = 0
 158              	.LVL18:
 159 0000 F0B5     		push	{r4, r5, r6, r7, lr}
 160              		.cfi_def_cfa_offset 20
 161              		.cfi_offset 4, -20
 162              		.cfi_offset 5, -16
 163              		.cfi_offset 6, -12
 164              		.cfi_offset 7, -8
 165              		.cfi_offset 14, -4
 166 0002 87B0     		sub	sp, sp, #28
 167              		.cfi_def_cfa_offset 48
ARM GAS  /tmp/ccacBxLC.s 			page 4


 168              		.loc 1 54 0
 169 0004 0446     		mov	r4, r0
 170              	.LVL19:
 171              		.loc 1 63 0
 172 0006 ADF81210 		strh	r1, [sp, #18]	@ movhi
 173              		.loc 1 66 0
 174 000a 0F4D     		ldr	r5, .L8
 175 000c C069     		ldr	r0, [r0, #28]
 176              	.LVL20:
 177 000e 0095     		str	r5, [sp]
 178 0010 02A9     		add	r1, sp, #8
 179              	.LVL21:
 180 0012 0191     		str	r1, [sp, #4]
 181              		.loc 1 61 0
 182 0014 94F820C0 		ldrb	ip, [r4, #32]	@ zero_extendqisi2
 183              		.loc 1 62 0
 184 0018 94F821E0 		ldrb	lr, [r4, #33]	@ zero_extendqisi2
 185              		.loc 1 54 0
 186 001c 0C9E     		ldr	r6, [sp, #48]
 187 001e 0D9D     		ldr	r5, [sp, #52]
 188              		.loc 1 64 0
 189 0020 ADF81420 		strh	r2, [sp, #20]	@ movhi
 190              		.loc 1 66 0
 191 0024 0021     		movs	r1, #0
 192 0026 8769     		ldr	r7, [r0, #24]
 193              		.loc 1 61 0
 194 0028 8DF810C0 		strb	ip, [sp, #16]
 195              		.loc 1 62 0
 196 002c 8DF811E0 		strb	lr, [sp, #17]
 197              		.loc 1 59 0
 198 0030 0296     		str	r6, [sp, #8]
 199              		.loc 1 60 0
 200 0032 0395     		str	r5, [sp, #12]
 201              		.loc 1 66 0
 202 0034 0A46     		mov	r2, r1
 203              	.LVL22:
 204 0036 B847     		blx	r7
 205              	.LVL23:
 206              		.loc 1 69 0
 207 0038 94F82030 		ldrb	r3, [r4, #32]	@ zero_extendqisi2
 208 003c 03FB00F0 		mul	r0, r3, r0
 209              	.LVL24:
 210              		.loc 1 70 0
 211 0040 C0B2     		uxtb	r0, r0
 212 0042 07B0     		add	sp, sp, #28
 213              		@ sp needed
 214 0044 F0BD     		pop	{r4, r5, r6, r7, pc}
 215              	.LVL25:
 216              	.L9:
 217 0046 00BF     		.align	2
 218              	.L8:
 219 0048 00000000 		.word	scaled_pixel_callback
 220              		.cfi_endproc
 221              	.LFE113:
 222              		.size	mf_scaled_render_character, .-mf_scaled_render_character
 223 004c AFF30080 		.section	.text.mf_scale_font,"ax",%progbits
 224              		.align	2
ARM GAS  /tmp/ccacBxLC.s 			page 5


 225              		.p2align 4,,15
 226              		.global	mf_scale_font
 227              		.thumb
 228              		.thumb_func
 229              		.type	mf_scale_font, %function
 230              	mf_scale_font:
 231              	.LFB114:
 232              		.loc 1 75 0
 233              		.cfi_startproc
 234              		@ args = 0, pretend = 0, frame = 0
 235              		@ frame_needed = 0, uses_anonymous_args = 0
 236              		@ link register save eliminated.
 237              	.LVL26:
 238 0000 2DE9F00F 		push	{r4, r5, r6, r7, r8, r9, r10, fp}
 239              		.cfi_def_cfa_offset 32
 240              		.cfi_offset 4, -32
 241              		.cfi_offset 5, -28
 242              		.cfi_offset 6, -24
 243              		.cfi_offset 7, -20
 244              		.cfi_offset 8, -16
 245              		.cfi_offset 9, -12
 246              		.cfi_offset 10, -8
 247              		.cfi_offset 11, -4
 248              		.loc 1 76 0
 249 0004 0E46     		mov	r6, r1
 250              		.loc 1 75 0
 251 0006 0446     		mov	r4, r0
 252 0008 1746     		mov	r7, r2
 253 000a 9C46     		mov	ip, r3
 254 000c 8846     		mov	r8, r1
 255              		.loc 1 76 0
 256 000e 0FCE     		ldmia	r6!, {r0, r1, r2, r3}
 257              	.LVL27:
 258 0010 2546     		mov	r5, r4
 259 0012 0FC5     		stmia	r5!, {r0, r1, r2, r3}
 260 0014 96E80700 		ldmia	r6, {r0, r1, r2}
 261 0018 85E80700 		stmia	r5, {r0, r1, r2}
 262              		.loc 1 79 0
 263 001c 94F808A0 		ldrb	r10, [r4, #8]	@ zero_extendqisi2
 264              		.loc 1 80 0
 265 0020 94F80990 		ldrb	r9, [r4, #9]	@ zero_extendqisi2
 266              		.loc 1 81 0
 267 0024 94F80CB0 		ldrb	fp, [r4, #12]	@ zero_extendqisi2
 268              		.loc 1 82 0
 269 0028 667B     		ldrb	r6, [r4, #13]	@ zero_extendqisi2
 270              		.loc 1 85 0
 271 002a A57B     		ldrb	r5, [r4, #14]	@ zero_extendqisi2
 272              		.loc 1 83 0
 273 002c A07A     		ldrb	r0, [r4, #10]	@ zero_extendqisi2
 274              		.loc 1 84 0
 275 002e E17A     		ldrb	r1, [r4, #11]	@ zero_extendqisi2
 276              		.loc 1 77 0
 277 0030 C4F81C80 		str	r8, [r4, #28]
 278              		.loc 1 79 0
 279 0034 0AFB07FA 		mul	r10, r10, r7
 280              		.loc 1 80 0
 281 0038 09FB0CF9 		mul	r9, r9, ip
ARM GAS  /tmp/ccacBxLC.s 			page 6


 282              		.loc 1 81 0
 283 003c 0BFB07F8 		mul	r8, fp, r7
 284              	.LVL28:
 285              		.loc 1 82 0
 286 0040 06FB0CF6 		mul	r6, r6, ip
 287              		.loc 1 85 0
 288 0044 05FB0CF5 		mul	r5, r5, ip
 289              		.loc 1 83 0
 290 0048 00FB07F0 		mul	r0, r0, r7
 291              		.loc 1 84 0
 292 004c 01FB07F1 		mul	r1, r1, r7
 293              		.loc 1 86 0
 294 0050 0A4A     		ldr	r2, .L11
 295              		.loc 1 87 0
 296 0052 0B4B     		ldr	r3, .L11+4
 297              		.loc 1 89 0
 298 0054 84F82070 		strb	r7, [r4, #32]
 299              		.loc 1 90 0
 300 0058 84F821C0 		strb	ip, [r4, #33]
 301              		.loc 1 79 0
 302 005c 84F808A0 		strb	r10, [r4, #8]
 303              		.loc 1 80 0
 304 0060 84F80990 		strb	r9, [r4, #9]
 305              		.loc 1 81 0
 306 0064 84F80C80 		strb	r8, [r4, #12]
 307              		.loc 1 82 0
 308 0068 6673     		strb	r6, [r4, #13]
 309              		.loc 1 85 0
 310 006a A573     		strb	r5, [r4, #14]
 311              		.loc 1 83 0
 312 006c A072     		strb	r0, [r4, #10]
 313              		.loc 1 84 0
 314 006e E172     		strb	r1, [r4, #11]
 315              		.loc 1 86 0
 316 0070 6261     		str	r2, [r4, #20]
 317              		.loc 1 87 0
 318 0072 A361     		str	r3, [r4, #24]
 319              		.loc 1 91 0
 320 0074 BDE8F00F 		pop	{r4, r5, r6, r7, r8, r9, r10, fp}
 321              	.LVL29:
 322 0078 7047     		bx	lr
 323              	.L12:
 324 007a 00BF     		.align	2
 325              	.L11:
 326 007c 00000000 		.word	mf_scaled_character_width
 327 0080 00000000 		.word	mf_scaled_render_character
 328              		.cfi_endproc
 329              	.LFE114:
 330              		.size	mf_scale_font, .-mf_scale_font
 331 0084 AFF30080 		.text
 331      AFF30080 
 331      AFF30080 
 332              	.Letext0:
 333              		.file 2 "/opt/ARM/arm-none-eabi/include/machine/_default_types.h"
 334              		.file 3 "/opt/ARM/arm-none-eabi/include/stdint.h"
 335              		.file 4 "/home/makkmarci/devel/ugfx/src/gdisp/mcufont/mf_font.h"
 336              		.file 5 "/home/makkmarci/devel/ugfx/src/gdisp/mcufont/mf_encoding.h"
ARM GAS  /tmp/ccacBxLC.s 			page 7


 337              		.file 6 "/home/makkmarci/devel/ugfx/src/gdisp/mcufont/mf_scaledfont.h"
 338              		.file 7 "../../os/ports/common/ARMCMx/CMSIS/include/core_cm4.h"
 339              		.section	.debug_info,"",%progbits
 340              	.Ldebug_info0:
 341 0000 CB040000 		.4byte	0x4cb
 342 0004 0400     		.2byte	0x4
 343 0006 00000000 		.4byte	.Ldebug_abbrev0
 344 000a 04       		.byte	0x4
 345 000b 01       		.uleb128 0x1
 346 000c F8010000 		.4byte	.LASF55
 347 0010 01       		.byte	0x1
 348 0011 EB030000 		.4byte	.LASF56
 349 0015 91010000 		.4byte	.LASF57
 350 0019 00000000 		.4byte	.Ldebug_ranges0+0
 351 001d 00000000 		.4byte	0
 352 0021 00000000 		.4byte	.Ldebug_line0
 353 0025 02       		.uleb128 0x2
 354 0026 04       		.byte	0x4
 355 0027 05       		.byte	0x5
 356 0028 696E7400 		.ascii	"int\000"
 357 002c 03       		.uleb128 0x3
 358 002d 04       		.byte	0x4
 359 002e 07       		.byte	0x7
 360 002f DB010000 		.4byte	.LASF0
 361 0033 03       		.uleb128 0x3
 362 0034 01       		.byte	0x1
 363 0035 06       		.byte	0x6
 364 0036 68010000 		.4byte	.LASF1
 365 003a 04       		.uleb128 0x4
 366 003b 03010000 		.4byte	.LASF3
 367 003f 02       		.byte	0x2
 368 0040 1C       		.byte	0x1c
 369 0041 45000000 		.4byte	0x45
 370 0045 03       		.uleb128 0x3
 371 0046 01       		.byte	0x1
 372 0047 08       		.byte	0x8
 373 0048 51010000 		.4byte	.LASF2
 374 004c 04       		.uleb128 0x4
 375 004d 00000000 		.4byte	.LASF4
 376 0051 02       		.byte	0x2
 377 0052 25       		.byte	0x25
 378 0053 57000000 		.4byte	0x57
 379 0057 03       		.uleb128 0x3
 380 0058 02       		.byte	0x2
 381 0059 05       		.byte	0x5
 382 005a 15000000 		.4byte	.LASF5
 383 005e 04       		.uleb128 0x4
 384 005f 4A000000 		.4byte	.LASF6
 385 0063 02       		.byte	0x2
 386 0064 26       		.byte	0x26
 387 0065 69000000 		.4byte	0x69
 388 0069 03       		.uleb128 0x3
 389 006a 02       		.byte	0x2
 390 006b 07       		.byte	0x7
 391 006c 50030000 		.4byte	.LASF7
 392 0070 04       		.uleb128 0x4
 393 0071 B6030000 		.4byte	.LASF8
ARM GAS  /tmp/ccacBxLC.s 			page 8


 394 0075 02       		.byte	0x2
 395 0076 37       		.byte	0x37
 396 0077 7B000000 		.4byte	0x7b
 397 007b 03       		.uleb128 0x3
 398 007c 04       		.byte	0x4
 399 007d 05       		.byte	0x5
 400 007e E4000000 		.4byte	.LASF9
 401 0082 03       		.uleb128 0x3
 402 0083 04       		.byte	0x4
 403 0084 07       		.byte	0x7
 404 0085 92030000 		.4byte	.LASF10
 405 0089 03       		.uleb128 0x3
 406 008a 08       		.byte	0x8
 407 008b 05       		.byte	0x5
 408 008c C0000000 		.4byte	.LASF11
 409 0090 03       		.uleb128 0x3
 410 0091 08       		.byte	0x8
 411 0092 07       		.byte	0x7
 412 0093 7A010000 		.4byte	.LASF12
 413 0097 04       		.uleb128 0x4
 414 0098 C0030000 		.4byte	.LASF13
 415 009c 03       		.byte	0x3
 416 009d 2A       		.byte	0x2a
 417 009e 3A000000 		.4byte	0x3a
 418 00a2 04       		.uleb128 0x4
 419 00a3 77030000 		.4byte	.LASF14
 420 00a7 03       		.byte	0x3
 421 00a8 35       		.byte	0x35
 422 00a9 4C000000 		.4byte	0x4c
 423 00ad 04       		.uleb128 0x4
 424 00ae E8010000 		.4byte	.LASF15
 425 00b2 03       		.byte	0x3
 426 00b3 36       		.byte	0x36
 427 00b4 5E000000 		.4byte	0x5e
 428 00b8 04       		.uleb128 0x4
 429 00b9 48030000 		.4byte	.LASF16
 430 00bd 03       		.byte	0x3
 431 00be 41       		.byte	0x41
 432 00bf 70000000 		.4byte	0x70
 433 00c3 03       		.uleb128 0x3
 434 00c4 01       		.byte	0x1
 435 00c5 02       		.byte	0x2
 436 00c6 7F030000 		.4byte	.LASF17
 437 00ca 05       		.uleb128 0x5
 438 00cb 04       		.byte	0x4
 439 00cc 03       		.uleb128 0x3
 440 00cd 04       		.byte	0x4
 441 00ce 07       		.byte	0x7
 442 00cf 1F000000 		.4byte	.LASF18
 443 00d3 06       		.uleb128 0x6
 444 00d4 04       		.byte	0x4
 445 00d5 D9000000 		.4byte	0xd9
 446 00d9 07       		.uleb128 0x7
 447 00da DE000000 		.4byte	0xde
 448 00de 03       		.uleb128 0x3
 449 00df 01       		.byte	0x1
 450 00e0 08       		.byte	0x8
ARM GAS  /tmp/ccacBxLC.s 			page 9


 451 00e1 2D030000 		.4byte	.LASF19
 452 00e5 08       		.uleb128 0x8
 453 00e6 B8000000 		.4byte	0xb8
 454 00ea 06       		.uleb128 0x6
 455 00eb 04       		.byte	0x4
 456 00ec F0000000 		.4byte	0xf0
 457 00f0 07       		.uleb128 0x7
 458 00f1 F5000000 		.4byte	0xf5
 459 00f5 09       		.uleb128 0x9
 460 00f6 8F000000 		.4byte	.LASF35
 461 00fa 1C       		.byte	0x1c
 462 00fb 04       		.byte	0x4
 463 00fc 1D       		.byte	0x1d
 464 00fd 9E010000 		.4byte	0x19e
 465 0101 0A       		.uleb128 0xa
 466 0102 3C010000 		.4byte	.LASF20
 467 0106 04       		.byte	0x4
 468 0107 20       		.byte	0x20
 469 0108 D3000000 		.4byte	0xd3
 470 010c 00       		.byte	0
 471 010d 0A       		.uleb128 0xa
 472 010e 46010000 		.4byte	.LASF21
 473 0112 04       		.byte	0x4
 474 0113 23       		.byte	0x23
 475 0114 D3000000 		.4byte	0xd3
 476 0118 04       		.byte	0x4
 477 0119 0A       		.uleb128 0xa
 478 011a B0030000 		.4byte	.LASF22
 479 011e 04       		.byte	0x4
 480 011f 26       		.byte	0x26
 481 0120 97000000 		.4byte	0x97
 482 0124 08       		.byte	0x8
 483 0125 0A       		.uleb128 0xa
 484 0126 8B030000 		.4byte	.LASF23
 485 012a 04       		.byte	0x4
 486 012b 27       		.byte	0x27
 487 012c 97000000 		.4byte	0x97
 488 0130 09       		.byte	0x9
 489 0131 0A       		.uleb128 0xa
 490 0132 D6000000 		.4byte	.LASF24
 491 0136 04       		.byte	0x4
 492 0137 2A       		.byte	0x2a
 493 0138 97000000 		.4byte	0x97
 494 013c 0A       		.byte	0xa
 495 013d 0A       		.uleb128 0xa
 496 013e 1F030000 		.4byte	.LASF25
 497 0142 04       		.byte	0x4
 498 0143 2B       		.byte	0x2b
 499 0144 97000000 		.4byte	0x97
 500 0148 0B       		.byte	0xb
 501 0149 0A       		.uleb128 0xa
 502 014a 32030000 		.4byte	.LASF26
 503 014e 04       		.byte	0x4
 504 014f 2E       		.byte	0x2e
 505 0150 97000000 		.4byte	0x97
 506 0154 0C       		.byte	0xc
 507 0155 0A       		.uleb128 0xa
ARM GAS  /tmp/ccacBxLC.s 			page 10


 508 0156 3D030000 		.4byte	.LASF27
 509 015a 04       		.byte	0x4
 510 015b 2F       		.byte	0x2f
 511 015c 97000000 		.4byte	0x97
 512 0160 0D       		.byte	0xd
 513 0161 0A       		.uleb128 0xa
 514 0162 A4030000 		.4byte	.LASF28
 515 0166 04       		.byte	0x4
 516 0167 32       		.byte	0x32
 517 0168 97000000 		.4byte	0x97
 518 016c 0E       		.byte	0xe
 519 016d 0A       		.uleb128 0xa
 520 016e 74010000 		.4byte	.LASF29
 521 0172 04       		.byte	0x4
 522 0173 35       		.byte	0x35
 523 0174 97000000 		.4byte	0x97
 524 0178 0F       		.byte	0xf
 525 0179 0A       		.uleb128 0xa
 526 017a C8030000 		.4byte	.LASF30
 527 017e 04       		.byte	0x4
 528 017f 38       		.byte	0x38
 529 0180 9E010000 		.4byte	0x19e
 530 0184 10       		.byte	0x10
 531 0185 0A       		.uleb128 0xa
 532 0186 55000000 		.4byte	.LASF31
 533 018a 04       		.byte	0x4
 534 018b 3C       		.byte	0x3c
 535 018c ED010000 		.4byte	0x1ed
 536 0190 14       		.byte	0x14
 537 0191 0A       		.uleb128 0xa
 538 0192 65000000 		.4byte	.LASF32
 539 0196 04       		.byte	0x4
 540 0197 40       		.byte	0x40
 541 0198 1B020000 		.4byte	0x21b
 542 019c 18       		.byte	0x18
 543 019d 00       		.byte	0
 544 019e 04       		.uleb128 0x4
 545 019f 7C000000 		.4byte	.LASF33
 546 01a3 05       		.byte	0x5
 547 01a4 18       		.byte	0x18
 548 01a5 AD000000 		.4byte	0xad
 549 01a9 04       		.uleb128 0x4
 550 01aa 63030000 		.4byte	.LASF34
 551 01ae 04       		.byte	0x4
 552 01af 19       		.byte	0x19
 553 01b0 B4010000 		.4byte	0x1b4
 554 01b4 06       		.uleb128 0x6
 555 01b5 04       		.byte	0x4
 556 01b6 BA010000 		.4byte	0x1ba
 557 01ba 0B       		.uleb128 0xb
 558 01bb D9010000 		.4byte	0x1d9
 559 01bf 0C       		.uleb128 0xc
 560 01c0 A2000000 		.4byte	0xa2
 561 01c4 0C       		.uleb128 0xc
 562 01c5 A2000000 		.4byte	0xa2
 563 01c9 0C       		.uleb128 0xc
 564 01ca 97000000 		.4byte	0x97
ARM GAS  /tmp/ccacBxLC.s 			page 11


 565 01ce 0C       		.uleb128 0xc
 566 01cf 97000000 		.4byte	0x97
 567 01d3 0C       		.uleb128 0xc
 568 01d4 CA000000 		.4byte	0xca
 569 01d8 00       		.byte	0
 570 01d9 0D       		.uleb128 0xd
 571 01da 97000000 		.4byte	0x97
 572 01de ED010000 		.4byte	0x1ed
 573 01e2 0C       		.uleb128 0xc
 574 01e3 EA000000 		.4byte	0xea
 575 01e7 0C       		.uleb128 0xc
 576 01e8 9E010000 		.4byte	0x19e
 577 01ec 00       		.byte	0
 578 01ed 06       		.uleb128 0x6
 579 01ee 04       		.byte	0x4
 580 01ef D9010000 		.4byte	0x1d9
 581 01f3 0D       		.uleb128 0xd
 582 01f4 97000000 		.4byte	0x97
 583 01f8 1B020000 		.4byte	0x21b
 584 01fc 0C       		.uleb128 0xc
 585 01fd EA000000 		.4byte	0xea
 586 0201 0C       		.uleb128 0xc
 587 0202 A2000000 		.4byte	0xa2
 588 0206 0C       		.uleb128 0xc
 589 0207 A2000000 		.4byte	0xa2
 590 020b 0C       		.uleb128 0xc
 591 020c 9E010000 		.4byte	0x19e
 592 0210 0C       		.uleb128 0xc
 593 0211 A9010000 		.4byte	0x1a9
 594 0215 0C       		.uleb128 0xc
 595 0216 CA000000 		.4byte	0xca
 596 021a 00       		.byte	0
 597 021b 06       		.uleb128 0x6
 598 021c 04       		.byte	0x4
 599 021d F3010000 		.4byte	0x1f3
 600 0221 09       		.uleb128 0x9
 601 0222 DB030000 		.4byte	.LASF36
 602 0226 24       		.byte	0x24
 603 0227 06       		.byte	0x6
 604 0228 11       		.byte	0x11
 605 0229 5E020000 		.4byte	0x25e
 606 022d 0A       		.uleb128 0xa
 607 022e 10000000 		.4byte	.LASF37
 608 0232 06       		.byte	0x6
 609 0233 13       		.byte	0x13
 610 0234 F5000000 		.4byte	0xf5
 611 0238 00       		.byte	0
 612 0239 0A       		.uleb128 0xa
 613 023a 5F010000 		.4byte	.LASF38
 614 023e 06       		.byte	0x6
 615 023f 15       		.byte	0x15
 616 0240 EA000000 		.4byte	0xea
 617 0244 1C       		.byte	0x1c
 618 0245 0A       		.uleb128 0xa
 619 0246 CE000000 		.4byte	.LASF39
 620 024a 06       		.byte	0x6
 621 024b 16       		.byte	0x16
ARM GAS  /tmp/ccacBxLC.s 			page 12


 622 024c 97000000 		.4byte	0x97
 623 0250 20       		.byte	0x20
 624 0251 0A       		.uleb128 0xa
 625 0252 3E040000 		.4byte	.LASF40
 626 0256 06       		.byte	0x6
 627 0257 17       		.byte	0x17
 628 0258 97000000 		.4byte	0x97
 629 025c 21       		.byte	0x21
 630 025d 00       		.byte	0
 631 025e 09       		.uleb128 0x9
 632 025f 9F000000 		.4byte	.LASF41
 633 0263 10       		.byte	0x10
 634 0264 01       		.byte	0x1
 635 0265 0C       		.byte	0xc
 636 0266 B1020000 		.4byte	0x2b1
 637 026a 0A       		.uleb128 0xa
 638 026b 11030000 		.4byte	.LASF42
 639 026f 01       		.byte	0x1
 640 0270 0E       		.byte	0xe
 641 0271 A9010000 		.4byte	0x1a9
 642 0275 00       		.byte	0
 643 0276 0A       		.uleb128 0xa
 644 0277 84000000 		.4byte	.LASF43
 645 027b 01       		.byte	0x1
 646 027c 0F       		.byte	0xf
 647 027d CA000000 		.4byte	0xca
 648 0281 04       		.byte	0x4
 649 0282 0A       		.uleb128 0xa
 650 0283 CE000000 		.4byte	.LASF39
 651 0287 01       		.byte	0x1
 652 0288 10       		.byte	0x10
 653 0289 97000000 		.4byte	0x97
 654 028d 08       		.byte	0x8
 655 028e 0A       		.uleb128 0xa
 656 028f 3E040000 		.4byte	.LASF40
 657 0293 01       		.byte	0x1
 658 0294 11       		.byte	0x11
 659 0295 97000000 		.4byte	0x97
 660 0299 09       		.byte	0x9
 661 029a 0E       		.uleb128 0xe
 662 029b 783000   		.ascii	"x0\000"
 663 029e 01       		.byte	0x1
 664 029f 12       		.byte	0x12
 665 02a0 A2000000 		.4byte	0xa2
 666 02a4 0A       		.byte	0xa
 667 02a5 0E       		.uleb128 0xe
 668 02a6 793000   		.ascii	"y0\000"
 669 02a9 01       		.byte	0x1
 670 02aa 13       		.byte	0x13
 671 02ab A2000000 		.4byte	0xa2
 672 02af 0C       		.byte	0xc
 673 02b0 00       		.byte	0
 674 02b1 0F       		.uleb128 0xf
 675 02b2 ED000000 		.4byte	.LASF58
 676 02b6 01       		.byte	0x1
 677 02b7 16       		.byte	0x16
 678 02b8 00000000 		.4byte	.LFB111
ARM GAS  /tmp/ccacBxLC.s 			page 13


 679 02bc 54000000 		.4byte	.LFE111-.LFB111
 680 02c0 01       		.uleb128 0x1
 681 02c1 9C       		.byte	0x9c
 682 02c2 4C030000 		.4byte	0x34c
 683 02c6 10       		.uleb128 0x10
 684 02c7 7800     		.ascii	"x\000"
 685 02c9 01       		.byte	0x1
 686 02ca 16       		.byte	0x16
 687 02cb A2000000 		.4byte	0xa2
 688 02cf 00000000 		.4byte	.LLST0
 689 02d3 10       		.uleb128 0x10
 690 02d4 7900     		.ascii	"y\000"
 691 02d6 01       		.byte	0x1
 692 02d7 16       		.byte	0x16
 693 02d8 A2000000 		.4byte	0xa2
 694 02dc 37000000 		.4byte	.LLST1
 695 02e0 11       		.uleb128 0x11
 696 02e1 85030000 		.4byte	.LASF44
 697 02e5 01       		.byte	0x1
 698 02e6 16       		.byte	0x16
 699 02e7 97000000 		.4byte	0x97
 700 02eb 6E000000 		.4byte	.LLST2
 701 02ef 11       		.uleb128 0x11
 702 02f0 76000000 		.4byte	.LASF45
 703 02f4 01       		.byte	0x1
 704 02f5 17       		.byte	0x17
 705 02f6 97000000 		.4byte	0x97
 706 02fa A5000000 		.4byte	.LLST3
 707 02fe 12       		.uleb128 0x12
 708 02ff 0A000000 		.4byte	.LASF46
 709 0303 01       		.byte	0x1
 710 0304 17       		.byte	0x17
 711 0305 CA000000 		.4byte	0xca
 712 0309 02       		.uleb128 0x2
 713 030a 91       		.byte	0x91
 714 030b 00       		.sleb128 0
 715 030c 13       		.uleb128 0x13
 716 030d F1010000 		.4byte	.LASF47
 717 0311 01       		.byte	0x1
 718 0312 19       		.byte	0x19
 719 0313 4C030000 		.4byte	0x34c
 720 0317 01       		.uleb128 0x1
 721 0318 55       		.byte	0x55
 722 0319 14       		.uleb128 0x14
 723 031a 647900   		.ascii	"dy\000"
 724 031d 01       		.byte	0x1
 725 031e 1A       		.byte	0x1a
 726 031f 97000000 		.4byte	0x97
 727 0323 C6000000 		.4byte	.LLST4
 728 0327 15       		.uleb128 0x15
 729 0328 44000000 		.4byte	.LVL9
 730 032c 02       		.uleb128 0x2
 731 032d 76       		.byte	0x76
 732 032e 00       		.sleb128 0
 733 032f 16       		.uleb128 0x16
 734 0330 01       		.uleb128 0x1
 735 0331 53       		.byte	0x53
ARM GAS  /tmp/ccacBxLC.s 			page 14


 736 0332 02       		.uleb128 0x2
 737 0333 7A       		.byte	0x7a
 738 0334 00       		.sleb128 0
 739 0335 16       		.uleb128 0x16
 740 0336 01       		.uleb128 0x1
 741 0337 52       		.byte	0x52
 742 0338 02       		.uleb128 0x2
 743 0339 77       		.byte	0x77
 744 033a 00       		.sleb128 0
 745 033b 16       		.uleb128 0x16
 746 033c 01       		.uleb128 0x1
 747 033d 51       		.byte	0x51
 748 033e 05       		.uleb128 0x5
 749 033f 74       		.byte	0x74
 750 0340 00       		.sleb128 0
 751 0341 79       		.byte	0x79
 752 0342 00       		.sleb128 0
 753 0343 22       		.byte	0x22
 754 0344 16       		.uleb128 0x16
 755 0345 01       		.uleb128 0x1
 756 0346 50       		.byte	0x50
 757 0347 02       		.uleb128 0x2
 758 0348 78       		.byte	0x78
 759 0349 00       		.sleb128 0
 760 034a 00       		.byte	0
 761 034b 00       		.byte	0
 762 034c 06       		.uleb128 0x6
 763 034d 04       		.byte	0x4
 764 034e 5E020000 		.4byte	0x25e
 765 0352 17       		.uleb128 0x17
 766 0353 30000000 		.4byte	.LASF51
 767 0357 01       		.byte	0x1
 768 0358 26       		.byte	0x26
 769 0359 97000000 		.4byte	0x97
 770 035d 00000000 		.4byte	.LFB112
 771 0361 16000000 		.4byte	.LFE112-.LFB112
 772 0365 01       		.uleb128 0x1
 773 0366 9C       		.byte	0x9c
 774 0367 A8030000 		.4byte	0x3a8
 775 036b 11       		.uleb128 0x11
 776 036c 10000000 		.4byte	.LASF37
 777 0370 01       		.byte	0x1
 778 0371 26       		.byte	0x26
 779 0372 EA000000 		.4byte	0xea
 780 0376 FD000000 		.4byte	.LLST5
 781 037a 11       		.uleb128 0x11
 782 037b 32010000 		.4byte	.LASF48
 783 037f 01       		.byte	0x1
 784 0380 27       		.byte	0x27
 785 0381 9E010000 		.4byte	0x19e
 786 0385 1B010000 		.4byte	.LLST6
 787 0389 18       		.uleb128 0x18
 788 038a 99000000 		.4byte	.LASF49
 789 038e 01       		.byte	0x1
 790 038f 29       		.byte	0x29
 791 0390 A8030000 		.4byte	0x3a8
 792 0394 3C010000 		.4byte	.LLST7
ARM GAS  /tmp/ccacBxLC.s 			page 15


 793 0398 18       		.uleb128 0x18
 794 0399 28010000 		.4byte	.LASF50
 795 039d 01       		.byte	0x1
 796 039e 2A       		.byte	0x2a
 797 039f 97000000 		.4byte	0x97
 798 03a3 5A010000 		.4byte	.LLST8
 799 03a7 00       		.byte	0
 800 03a8 06       		.uleb128 0x6
 801 03a9 04       		.byte	0x4
 802 03aa 21020000 		.4byte	0x221
 803 03ae 19       		.uleb128 0x19
 804 03af 0D010000 		.4byte	.LASF52
 805 03b3 01       		.byte	0x1
 806 03b4 31       		.byte	0x31
 807 03b5 97000000 		.4byte	0x97
 808 03b9 00000000 		.4byte	.LFB113
 809 03bd 4C000000 		.4byte	.LFE113-.LFB113
 810 03c1 01       		.uleb128 0x1
 811 03c2 9C       		.byte	0x9c
 812 03c3 70040000 		.4byte	0x470
 813 03c7 11       		.uleb128 0x11
 814 03c8 10000000 		.4byte	.LASF37
 815 03cc 01       		.byte	0x1
 816 03cd 31       		.byte	0x31
 817 03ce EA000000 		.4byte	0xea
 818 03d2 6D010000 		.4byte	.LLST9
 819 03d6 10       		.uleb128 0x10
 820 03d7 783000   		.ascii	"x0\000"
 821 03da 01       		.byte	0x1
 822 03db 32       		.byte	0x32
 823 03dc A2000000 		.4byte	0xa2
 824 03e0 99010000 		.4byte	.LLST10
 825 03e4 10       		.uleb128 0x10
 826 03e5 793000   		.ascii	"y0\000"
 827 03e8 01       		.byte	0x1
 828 03e9 32       		.byte	0x32
 829 03ea A2000000 		.4byte	0xa2
 830 03ee C6010000 		.4byte	.LLST11
 831 03f2 11       		.uleb128 0x11
 832 03f3 32010000 		.4byte	.LASF48
 833 03f7 01       		.byte	0x1
 834 03f8 33       		.byte	0x33
 835 03f9 9E010000 		.4byte	0x19e
 836 03fd F3010000 		.4byte	.LLST12
 837 0401 11       		.uleb128 0x11
 838 0402 35040000 		.4byte	.LASF53
 839 0406 01       		.byte	0x1
 840 0407 34       		.byte	0x34
 841 0408 A9010000 		.4byte	0x1a9
 842 040c 14020000 		.4byte	.LLST13
 843 0410 11       		.uleb128 0x11
 844 0411 0A000000 		.4byte	.LASF46
 845 0415 01       		.byte	0x1
 846 0416 35       		.byte	0x35
 847 0417 CA000000 		.4byte	0xca
 848 041b 34020000 		.4byte	.LLST14
 849 041f 18       		.uleb128 0x18
ARM GAS  /tmp/ccacBxLC.s 			page 16


 850 0420 99000000 		.4byte	.LASF49
 851 0424 01       		.byte	0x1
 852 0425 37       		.byte	0x37
 853 0426 A8030000 		.4byte	0x3a8
 854 042a 54020000 		.4byte	.LLST15
 855 042e 13       		.uleb128 0x13
 856 042f F1010000 		.4byte	.LASF47
 857 0433 01       		.byte	0x1
 858 0434 38       		.byte	0x38
 859 0435 5E020000 		.4byte	0x25e
 860 0439 02       		.uleb128 0x2
 861 043a 91       		.byte	0x91
 862 043b 58       		.sleb128 -40
 863 043c 18       		.uleb128 0x18
 864 043d 28010000 		.4byte	.LASF50
 865 0441 01       		.byte	0x1
 866 0442 39       		.byte	0x39
 867 0443 97000000 		.4byte	0x97
 868 0447 80020000 		.4byte	.LLST16
 869 044b 15       		.uleb128 0x15
 870 044c 38000000 		.4byte	.LVL23
 871 0450 02       		.uleb128 0x2
 872 0451 77       		.byte	0x77
 873 0452 00       		.sleb128 0
 874 0453 16       		.uleb128 0x16
 875 0454 01       		.uleb128 0x1
 876 0455 52       		.byte	0x52
 877 0456 01       		.uleb128 0x1
 878 0457 30       		.byte	0x30
 879 0458 16       		.uleb128 0x16
 880 0459 01       		.uleb128 0x1
 881 045a 51       		.byte	0x51
 882 045b 01       		.uleb128 0x1
 883 045c 30       		.byte	0x30
 884 045d 16       		.uleb128 0x16
 885 045e 02       		.uleb128 0x2
 886 045f 7D       		.byte	0x7d
 887 0460 04       		.sleb128 4
 888 0461 02       		.uleb128 0x2
 889 0462 91       		.byte	0x91
 890 0463 58       		.sleb128 -40
 891 0464 16       		.uleb128 0x16
 892 0465 02       		.uleb128 0x2
 893 0466 7D       		.byte	0x7d
 894 0467 00       		.sleb128 0
 895 0468 05       		.uleb128 0x5
 896 0469 03       		.byte	0x3
 897 046a 00000000 		.4byte	scaled_pixel_callback
 898 046e 00       		.byte	0
 899 046f 00       		.byte	0
 900 0470 1A       		.uleb128 0x1a
 901 0471 B2000000 		.4byte	.LASF59
 902 0475 01       		.byte	0x1
 903 0476 48       		.byte	0x48
 904 0477 00000000 		.4byte	.LFB114
 905 047b 84000000 		.4byte	.LFE114-.LFB114
 906 047f 01       		.uleb128 0x1
ARM GAS  /tmp/ccacBxLC.s 			page 17


 907 0480 9C       		.byte	0x9c
 908 0481 C2040000 		.4byte	0x4c2
 909 0485 11       		.uleb128 0x11
 910 0486 28000000 		.4byte	.LASF54
 911 048a 01       		.byte	0x1
 912 048b 48       		.byte	0x48
 913 048c A8030000 		.4byte	0x3a8
 914 0490 93020000 		.4byte	.LLST17
 915 0494 11       		.uleb128 0x11
 916 0495 5F010000 		.4byte	.LASF38
 917 0499 01       		.byte	0x1
 918 049a 49       		.byte	0x49
 919 049b EA000000 		.4byte	0xea
 920 049f BF020000 		.4byte	.LLST18
 921 04a3 11       		.uleb128 0x11
 922 04a4 CE000000 		.4byte	.LASF39
 923 04a8 01       		.byte	0x1
 924 04a9 4A       		.byte	0x4a
 925 04aa 97000000 		.4byte	0x97
 926 04ae F8020000 		.4byte	.LLST19
 927 04b2 11       		.uleb128 0x11
 928 04b3 3E040000 		.4byte	.LASF40
 929 04b7 01       		.byte	0x1
 930 04b8 4A       		.byte	0x4a
 931 04b9 97000000 		.4byte	0x97
 932 04bd 19030000 		.4byte	.LLST20
 933 04c1 00       		.byte	0
 934 04c2 1B       		.uleb128 0x1b
 935 04c3 28040000 		.4byte	.LASF60
 936 04c7 07       		.byte	0x7
 937 04c8 9806     		.2byte	0x698
 938 04ca E5000000 		.4byte	0xe5
 939 04ce 00       		.byte	0
 940              		.section	.debug_abbrev,"",%progbits
 941              	.Ldebug_abbrev0:
 942 0000 01       		.uleb128 0x1
 943 0001 11       		.uleb128 0x11
 944 0002 01       		.byte	0x1
 945 0003 25       		.uleb128 0x25
 946 0004 0E       		.uleb128 0xe
 947 0005 13       		.uleb128 0x13
 948 0006 0B       		.uleb128 0xb
 949 0007 03       		.uleb128 0x3
 950 0008 0E       		.uleb128 0xe
 951 0009 1B       		.uleb128 0x1b
 952 000a 0E       		.uleb128 0xe
 953 000b 55       		.uleb128 0x55
 954 000c 17       		.uleb128 0x17
 955 000d 11       		.uleb128 0x11
 956 000e 01       		.uleb128 0x1
 957 000f 10       		.uleb128 0x10
 958 0010 17       		.uleb128 0x17
 959 0011 00       		.byte	0
 960 0012 00       		.byte	0
 961 0013 02       		.uleb128 0x2
 962 0014 24       		.uleb128 0x24
 963 0015 00       		.byte	0
ARM GAS  /tmp/ccacBxLC.s 			page 18


 964 0016 0B       		.uleb128 0xb
 965 0017 0B       		.uleb128 0xb
 966 0018 3E       		.uleb128 0x3e
 967 0019 0B       		.uleb128 0xb
 968 001a 03       		.uleb128 0x3
 969 001b 08       		.uleb128 0x8
 970 001c 00       		.byte	0
 971 001d 00       		.byte	0
 972 001e 03       		.uleb128 0x3
 973 001f 24       		.uleb128 0x24
 974 0020 00       		.byte	0
 975 0021 0B       		.uleb128 0xb
 976 0022 0B       		.uleb128 0xb
 977 0023 3E       		.uleb128 0x3e
 978 0024 0B       		.uleb128 0xb
 979 0025 03       		.uleb128 0x3
 980 0026 0E       		.uleb128 0xe
 981 0027 00       		.byte	0
 982 0028 00       		.byte	0
 983 0029 04       		.uleb128 0x4
 984 002a 16       		.uleb128 0x16
 985 002b 00       		.byte	0
 986 002c 03       		.uleb128 0x3
 987 002d 0E       		.uleb128 0xe
 988 002e 3A       		.uleb128 0x3a
 989 002f 0B       		.uleb128 0xb
 990 0030 3B       		.uleb128 0x3b
 991 0031 0B       		.uleb128 0xb
 992 0032 49       		.uleb128 0x49
 993 0033 13       		.uleb128 0x13
 994 0034 00       		.byte	0
 995 0035 00       		.byte	0
 996 0036 05       		.uleb128 0x5
 997 0037 0F       		.uleb128 0xf
 998 0038 00       		.byte	0
 999 0039 0B       		.uleb128 0xb
 1000 003a 0B       		.uleb128 0xb
 1001 003b 00       		.byte	0
 1002 003c 00       		.byte	0
 1003 003d 06       		.uleb128 0x6
 1004 003e 0F       		.uleb128 0xf
 1005 003f 00       		.byte	0
 1006 0040 0B       		.uleb128 0xb
 1007 0041 0B       		.uleb128 0xb
 1008 0042 49       		.uleb128 0x49
 1009 0043 13       		.uleb128 0x13
 1010 0044 00       		.byte	0
 1011 0045 00       		.byte	0
 1012 0046 07       		.uleb128 0x7
 1013 0047 26       		.uleb128 0x26
 1014 0048 00       		.byte	0
 1015 0049 49       		.uleb128 0x49
 1016 004a 13       		.uleb128 0x13
 1017 004b 00       		.byte	0
 1018 004c 00       		.byte	0
 1019 004d 08       		.uleb128 0x8
 1020 004e 35       		.uleb128 0x35
ARM GAS  /tmp/ccacBxLC.s 			page 19


 1021 004f 00       		.byte	0
 1022 0050 49       		.uleb128 0x49
 1023 0051 13       		.uleb128 0x13
 1024 0052 00       		.byte	0
 1025 0053 00       		.byte	0
 1026 0054 09       		.uleb128 0x9
 1027 0055 13       		.uleb128 0x13
 1028 0056 01       		.byte	0x1
 1029 0057 03       		.uleb128 0x3
 1030 0058 0E       		.uleb128 0xe
 1031 0059 0B       		.uleb128 0xb
 1032 005a 0B       		.uleb128 0xb
 1033 005b 3A       		.uleb128 0x3a
 1034 005c 0B       		.uleb128 0xb
 1035 005d 3B       		.uleb128 0x3b
 1036 005e 0B       		.uleb128 0xb
 1037 005f 01       		.uleb128 0x1
 1038 0060 13       		.uleb128 0x13
 1039 0061 00       		.byte	0
 1040 0062 00       		.byte	0
 1041 0063 0A       		.uleb128 0xa
 1042 0064 0D       		.uleb128 0xd
 1043 0065 00       		.byte	0
 1044 0066 03       		.uleb128 0x3
 1045 0067 0E       		.uleb128 0xe
 1046 0068 3A       		.uleb128 0x3a
 1047 0069 0B       		.uleb128 0xb
 1048 006a 3B       		.uleb128 0x3b
 1049 006b 0B       		.uleb128 0xb
 1050 006c 49       		.uleb128 0x49
 1051 006d 13       		.uleb128 0x13
 1052 006e 38       		.uleb128 0x38
 1053 006f 0B       		.uleb128 0xb
 1054 0070 00       		.byte	0
 1055 0071 00       		.byte	0
 1056 0072 0B       		.uleb128 0xb
 1057 0073 15       		.uleb128 0x15
 1058 0074 01       		.byte	0x1
 1059 0075 27       		.uleb128 0x27
 1060 0076 19       		.uleb128 0x19
 1061 0077 01       		.uleb128 0x1
 1062 0078 13       		.uleb128 0x13
 1063 0079 00       		.byte	0
 1064 007a 00       		.byte	0
 1065 007b 0C       		.uleb128 0xc
 1066 007c 05       		.uleb128 0x5
 1067 007d 00       		.byte	0
 1068 007e 49       		.uleb128 0x49
 1069 007f 13       		.uleb128 0x13
 1070 0080 00       		.byte	0
 1071 0081 00       		.byte	0
 1072 0082 0D       		.uleb128 0xd
 1073 0083 15       		.uleb128 0x15
 1074 0084 01       		.byte	0x1
 1075 0085 27       		.uleb128 0x27
 1076 0086 19       		.uleb128 0x19
 1077 0087 49       		.uleb128 0x49
ARM GAS  /tmp/ccacBxLC.s 			page 20


 1078 0088 13       		.uleb128 0x13
 1079 0089 01       		.uleb128 0x1
 1080 008a 13       		.uleb128 0x13
 1081 008b 00       		.byte	0
 1082 008c 00       		.byte	0
 1083 008d 0E       		.uleb128 0xe
 1084 008e 0D       		.uleb128 0xd
 1085 008f 00       		.byte	0
 1086 0090 03       		.uleb128 0x3
 1087 0091 08       		.uleb128 0x8
 1088 0092 3A       		.uleb128 0x3a
 1089 0093 0B       		.uleb128 0xb
 1090 0094 3B       		.uleb128 0x3b
 1091 0095 0B       		.uleb128 0xb
 1092 0096 49       		.uleb128 0x49
 1093 0097 13       		.uleb128 0x13
 1094 0098 38       		.uleb128 0x38
 1095 0099 0B       		.uleb128 0xb
 1096 009a 00       		.byte	0
 1097 009b 00       		.byte	0
 1098 009c 0F       		.uleb128 0xf
 1099 009d 2E       		.uleb128 0x2e
 1100 009e 01       		.byte	0x1
 1101 009f 03       		.uleb128 0x3
 1102 00a0 0E       		.uleb128 0xe
 1103 00a1 3A       		.uleb128 0x3a
 1104 00a2 0B       		.uleb128 0xb
 1105 00a3 3B       		.uleb128 0x3b
 1106 00a4 0B       		.uleb128 0xb
 1107 00a5 27       		.uleb128 0x27
 1108 00a6 19       		.uleb128 0x19
 1109 00a7 11       		.uleb128 0x11
 1110 00a8 01       		.uleb128 0x1
 1111 00a9 12       		.uleb128 0x12
 1112 00aa 06       		.uleb128 0x6
 1113 00ab 40       		.uleb128 0x40
 1114 00ac 18       		.uleb128 0x18
 1115 00ad 9742     		.uleb128 0x2117
 1116 00af 19       		.uleb128 0x19
 1117 00b0 01       		.uleb128 0x1
 1118 00b1 13       		.uleb128 0x13
 1119 00b2 00       		.byte	0
 1120 00b3 00       		.byte	0
 1121 00b4 10       		.uleb128 0x10
 1122 00b5 05       		.uleb128 0x5
 1123 00b6 00       		.byte	0
 1124 00b7 03       		.uleb128 0x3
 1125 00b8 08       		.uleb128 0x8
 1126 00b9 3A       		.uleb128 0x3a
 1127 00ba 0B       		.uleb128 0xb
 1128 00bb 3B       		.uleb128 0x3b
 1129 00bc 0B       		.uleb128 0xb
 1130 00bd 49       		.uleb128 0x49
 1131 00be 13       		.uleb128 0x13
 1132 00bf 02       		.uleb128 0x2
 1133 00c0 17       		.uleb128 0x17
 1134 00c1 00       		.byte	0
ARM GAS  /tmp/ccacBxLC.s 			page 21


 1135 00c2 00       		.byte	0
 1136 00c3 11       		.uleb128 0x11
 1137 00c4 05       		.uleb128 0x5
 1138 00c5 00       		.byte	0
 1139 00c6 03       		.uleb128 0x3
 1140 00c7 0E       		.uleb128 0xe
 1141 00c8 3A       		.uleb128 0x3a
 1142 00c9 0B       		.uleb128 0xb
 1143 00ca 3B       		.uleb128 0x3b
 1144 00cb 0B       		.uleb128 0xb
 1145 00cc 49       		.uleb128 0x49
 1146 00cd 13       		.uleb128 0x13
 1147 00ce 02       		.uleb128 0x2
 1148 00cf 17       		.uleb128 0x17
 1149 00d0 00       		.byte	0
 1150 00d1 00       		.byte	0
 1151 00d2 12       		.uleb128 0x12
 1152 00d3 05       		.uleb128 0x5
 1153 00d4 00       		.byte	0
 1154 00d5 03       		.uleb128 0x3
 1155 00d6 0E       		.uleb128 0xe
 1156 00d7 3A       		.uleb128 0x3a
 1157 00d8 0B       		.uleb128 0xb
 1158 00d9 3B       		.uleb128 0x3b
 1159 00da 0B       		.uleb128 0xb
 1160 00db 49       		.uleb128 0x49
 1161 00dc 13       		.uleb128 0x13
 1162 00dd 02       		.uleb128 0x2
 1163 00de 18       		.uleb128 0x18
 1164 00df 00       		.byte	0
 1165 00e0 00       		.byte	0
 1166 00e1 13       		.uleb128 0x13
 1167 00e2 34       		.uleb128 0x34
 1168 00e3 00       		.byte	0
 1169 00e4 03       		.uleb128 0x3
 1170 00e5 0E       		.uleb128 0xe
 1171 00e6 3A       		.uleb128 0x3a
 1172 00e7 0B       		.uleb128 0xb
 1173 00e8 3B       		.uleb128 0x3b
 1174 00e9 0B       		.uleb128 0xb
 1175 00ea 49       		.uleb128 0x49
 1176 00eb 13       		.uleb128 0x13
 1177 00ec 02       		.uleb128 0x2
 1178 00ed 18       		.uleb128 0x18
 1179 00ee 00       		.byte	0
 1180 00ef 00       		.byte	0
 1181 00f0 14       		.uleb128 0x14
 1182 00f1 34       		.uleb128 0x34
 1183 00f2 00       		.byte	0
 1184 00f3 03       		.uleb128 0x3
 1185 00f4 08       		.uleb128 0x8
 1186 00f5 3A       		.uleb128 0x3a
 1187 00f6 0B       		.uleb128 0xb
 1188 00f7 3B       		.uleb128 0x3b
 1189 00f8 0B       		.uleb128 0xb
 1190 00f9 49       		.uleb128 0x49
 1191 00fa 13       		.uleb128 0x13
ARM GAS  /tmp/ccacBxLC.s 			page 22


 1192 00fb 02       		.uleb128 0x2
 1193 00fc 17       		.uleb128 0x17
 1194 00fd 00       		.byte	0
 1195 00fe 00       		.byte	0
 1196 00ff 15       		.uleb128 0x15
 1197 0100 898201   		.uleb128 0x4109
 1198 0103 01       		.byte	0x1
 1199 0104 11       		.uleb128 0x11
 1200 0105 01       		.uleb128 0x1
 1201 0106 9342     		.uleb128 0x2113
 1202 0108 18       		.uleb128 0x18
 1203 0109 00       		.byte	0
 1204 010a 00       		.byte	0
 1205 010b 16       		.uleb128 0x16
 1206 010c 8A8201   		.uleb128 0x410a
 1207 010f 00       		.byte	0
 1208 0110 02       		.uleb128 0x2
 1209 0111 18       		.uleb128 0x18
 1210 0112 9142     		.uleb128 0x2111
 1211 0114 18       		.uleb128 0x18
 1212 0115 00       		.byte	0
 1213 0116 00       		.byte	0
 1214 0117 17       		.uleb128 0x17
 1215 0118 2E       		.uleb128 0x2e
 1216 0119 01       		.byte	0x1
 1217 011a 3F       		.uleb128 0x3f
 1218 011b 19       		.uleb128 0x19
 1219 011c 03       		.uleb128 0x3
 1220 011d 0E       		.uleb128 0xe
 1221 011e 3A       		.uleb128 0x3a
 1222 011f 0B       		.uleb128 0xb
 1223 0120 3B       		.uleb128 0x3b
 1224 0121 0B       		.uleb128 0xb
 1225 0122 27       		.uleb128 0x27
 1226 0123 19       		.uleb128 0x19
 1227 0124 49       		.uleb128 0x49
 1228 0125 13       		.uleb128 0x13
 1229 0126 11       		.uleb128 0x11
 1230 0127 01       		.uleb128 0x1
 1231 0128 12       		.uleb128 0x12
 1232 0129 06       		.uleb128 0x6
 1233 012a 40       		.uleb128 0x40
 1234 012b 18       		.uleb128 0x18
 1235 012c 9642     		.uleb128 0x2116
 1236 012e 19       		.uleb128 0x19
 1237 012f 01       		.uleb128 0x1
 1238 0130 13       		.uleb128 0x13
 1239 0131 00       		.byte	0
 1240 0132 00       		.byte	0
 1241 0133 18       		.uleb128 0x18
 1242 0134 34       		.uleb128 0x34
 1243 0135 00       		.byte	0
 1244 0136 03       		.uleb128 0x3
 1245 0137 0E       		.uleb128 0xe
 1246 0138 3A       		.uleb128 0x3a
 1247 0139 0B       		.uleb128 0xb
 1248 013a 3B       		.uleb128 0x3b
ARM GAS  /tmp/ccacBxLC.s 			page 23


 1249 013b 0B       		.uleb128 0xb
 1250 013c 49       		.uleb128 0x49
 1251 013d 13       		.uleb128 0x13
 1252 013e 02       		.uleb128 0x2
 1253 013f 17       		.uleb128 0x17
 1254 0140 00       		.byte	0
 1255 0141 00       		.byte	0
 1256 0142 19       		.uleb128 0x19
 1257 0143 2E       		.uleb128 0x2e
 1258 0144 01       		.byte	0x1
 1259 0145 3F       		.uleb128 0x3f
 1260 0146 19       		.uleb128 0x19
 1261 0147 03       		.uleb128 0x3
 1262 0148 0E       		.uleb128 0xe
 1263 0149 3A       		.uleb128 0x3a
 1264 014a 0B       		.uleb128 0xb
 1265 014b 3B       		.uleb128 0x3b
 1266 014c 0B       		.uleb128 0xb
 1267 014d 27       		.uleb128 0x27
 1268 014e 19       		.uleb128 0x19
 1269 014f 49       		.uleb128 0x49
 1270 0150 13       		.uleb128 0x13
 1271 0151 11       		.uleb128 0x11
 1272 0152 01       		.uleb128 0x1
 1273 0153 12       		.uleb128 0x12
 1274 0154 06       		.uleb128 0x6
 1275 0155 40       		.uleb128 0x40
 1276 0156 18       		.uleb128 0x18
 1277 0157 9742     		.uleb128 0x2117
 1278 0159 19       		.uleb128 0x19
 1279 015a 01       		.uleb128 0x1
 1280 015b 13       		.uleb128 0x13
 1281 015c 00       		.byte	0
 1282 015d 00       		.byte	0
 1283 015e 1A       		.uleb128 0x1a
 1284 015f 2E       		.uleb128 0x2e
 1285 0160 01       		.byte	0x1
 1286 0161 3F       		.uleb128 0x3f
 1287 0162 19       		.uleb128 0x19
 1288 0163 03       		.uleb128 0x3
 1289 0164 0E       		.uleb128 0xe
 1290 0165 3A       		.uleb128 0x3a
 1291 0166 0B       		.uleb128 0xb
 1292 0167 3B       		.uleb128 0x3b
 1293 0168 0B       		.uleb128 0xb
 1294 0169 27       		.uleb128 0x27
 1295 016a 19       		.uleb128 0x19
 1296 016b 11       		.uleb128 0x11
 1297 016c 01       		.uleb128 0x1
 1298 016d 12       		.uleb128 0x12
 1299 016e 06       		.uleb128 0x6
 1300 016f 40       		.uleb128 0x40
 1301 0170 18       		.uleb128 0x18
 1302 0171 9742     		.uleb128 0x2117
 1303 0173 19       		.uleb128 0x19
 1304 0174 01       		.uleb128 0x1
 1305 0175 13       		.uleb128 0x13
ARM GAS  /tmp/ccacBxLC.s 			page 24


 1306 0176 00       		.byte	0
 1307 0177 00       		.byte	0
 1308 0178 1B       		.uleb128 0x1b
 1309 0179 34       		.uleb128 0x34
 1310 017a 00       		.byte	0
 1311 017b 03       		.uleb128 0x3
 1312 017c 0E       		.uleb128 0xe
 1313 017d 3A       		.uleb128 0x3a
 1314 017e 0B       		.uleb128 0xb
 1315 017f 3B       		.uleb128 0x3b
 1316 0180 05       		.uleb128 0x5
 1317 0181 49       		.uleb128 0x49
 1318 0182 13       		.uleb128 0x13
 1319 0183 3F       		.uleb128 0x3f
 1320 0184 19       		.uleb128 0x19
 1321 0185 3C       		.uleb128 0x3c
 1322 0186 19       		.uleb128 0x19
 1323 0187 00       		.byte	0
 1324 0188 00       		.byte	0
 1325 0189 00       		.byte	0
 1326              		.section	.debug_loc,"",%progbits
 1327              	.Ldebug_loc0:
 1328              	.LLST0:
 1329 0000 00000000 		.4byte	.LVL0
 1330 0004 1E000000 		.4byte	.LVL3
 1331 0008 0100     		.2byte	0x1
 1332 000a 50       		.byte	0x50
 1333 000b 1E000000 		.4byte	.LVL3
 1334 000f 28000000 		.4byte	.LVL6
 1335 0013 0400     		.2byte	0x4
 1336 0015 F3       		.byte	0xf3
 1337 0016 01       		.uleb128 0x1
 1338 0017 50       		.byte	0x50
 1339 0018 9F       		.byte	0x9f
 1340 0019 28000000 		.4byte	.LVL6
 1341 001d 30000000 		.4byte	.LVL8
 1342 0021 0100     		.2byte	0x1
 1343 0023 50       		.byte	0x50
 1344 0024 30000000 		.4byte	.LVL8
 1345 0028 54000000 		.4byte	.LFE111
 1346 002c 0100     		.2byte	0x1
 1347 002e 58       		.byte	0x58
 1348 002f 00000000 		.4byte	0
 1349 0033 00000000 		.4byte	0
 1350              	.LLST1:
 1351 0037 00000000 		.4byte	.LVL0
 1352 003b 22000000 		.4byte	.LVL4
 1353 003f 0100     		.2byte	0x1
 1354 0041 51       		.byte	0x51
 1355 0042 22000000 		.4byte	.LVL4
 1356 0046 2C000000 		.4byte	.LVL7
 1357 004a 0400     		.2byte	0x4
 1358 004c F3       		.byte	0xf3
 1359 004d 01       		.uleb128 0x1
 1360 004e 51       		.byte	0x51
 1361 004f 9F       		.byte	0x9f
 1362 0050 2C000000 		.4byte	.LVL7
ARM GAS  /tmp/ccacBxLC.s 			page 25


 1363 0054 30000000 		.4byte	.LVL8
 1364 0058 0100     		.2byte	0x1
 1365 005a 51       		.byte	0x51
 1366 005b 30000000 		.4byte	.LVL8
 1367 005f 54000000 		.4byte	.LFE111
 1368 0063 0100     		.2byte	0x1
 1369 0065 59       		.byte	0x59
 1370 0066 00000000 		.4byte	0
 1371 006a 00000000 		.4byte	0
 1372              	.LLST2:
 1373 006e 00000000 		.4byte	.LVL0
 1374 0072 1A000000 		.4byte	.LVL2
 1375 0076 0100     		.2byte	0x1
 1376 0078 52       		.byte	0x52
 1377 0079 1A000000 		.4byte	.LVL2
 1378 007d 24000000 		.4byte	.LVL5
 1379 0081 0400     		.2byte	0x4
 1380 0083 F3       		.byte	0xf3
 1381 0084 01       		.uleb128 0x1
 1382 0085 52       		.byte	0x52
 1383 0086 9F       		.byte	0x9f
 1384 0087 24000000 		.4byte	.LVL5
 1385 008b 30000000 		.4byte	.LVL8
 1386 008f 0100     		.2byte	0x1
 1387 0091 52       		.byte	0x52
 1388 0092 30000000 		.4byte	.LVL8
 1389 0096 54000000 		.4byte	.LFE111
 1390 009a 0100     		.2byte	0x1
 1391 009c 57       		.byte	0x57
 1392 009d 00000000 		.4byte	0
 1393 00a1 00000000 		.4byte	0
 1394              	.LLST3:
 1395 00a5 00000000 		.4byte	.LVL0
 1396 00a9 30000000 		.4byte	.LVL8
 1397 00ad 0100     		.2byte	0x1
 1398 00af 53       		.byte	0x53
 1399 00b0 30000000 		.4byte	.LVL8
 1400 00b4 54000000 		.4byte	.LFE111
 1401 00b8 0400     		.2byte	0x4
 1402 00ba F3       		.byte	0xf3
 1403 00bb 01       		.uleb128 0x1
 1404 00bc 53       		.byte	0x53
 1405 00bd 9F       		.byte	0x9f
 1406 00be 00000000 		.4byte	0
 1407 00c2 00000000 		.4byte	0
 1408              	.LLST4:
 1409 00c6 2C000000 		.4byte	.LVL7
 1410 00ca 30000000 		.4byte	.LVL8
 1411 00ce 0200     		.2byte	0x2
 1412 00d0 30       		.byte	0x30
 1413 00d1 9F       		.byte	0x9f
 1414 00d2 30000000 		.4byte	.LVL8
 1415 00d6 46000000 		.4byte	.LVL10
 1416 00da 0100     		.2byte	0x1
 1417 00dc 54       		.byte	0x54
 1418 00dd 46000000 		.4byte	.LVL10
 1419 00e1 4A000000 		.4byte	.LVL11
ARM GAS  /tmp/ccacBxLC.s 			page 26


 1420 00e5 0300     		.2byte	0x3
 1421 00e7 74       		.byte	0x74
 1422 00e8 7F       		.sleb128 -1
 1423 00e9 9F       		.byte	0x9f
 1424 00ea 4A000000 		.4byte	.LVL11
 1425 00ee 4E000000 		.4byte	.LVL12
 1426 00f2 0100     		.2byte	0x1
 1427 00f4 54       		.byte	0x54
 1428 00f5 00000000 		.4byte	0
 1429 00f9 00000000 		.4byte	0
 1430              	.LLST5:
 1431 00fd 00000000 		.4byte	.LVL13
 1432 0101 06000000 		.4byte	.LVL15
 1433 0105 0100     		.2byte	0x1
 1434 0107 50       		.byte	0x50
 1435 0108 06000000 		.4byte	.LVL15
 1436 010c 16000000 		.4byte	.LFE112
 1437 0110 0100     		.2byte	0x1
 1438 0112 54       		.byte	0x54
 1439 0113 00000000 		.4byte	0
 1440 0117 00000000 		.4byte	0
 1441              	.LLST6:
 1442 011b 00000000 		.4byte	.LVL13
 1443 011f 09000000 		.4byte	.LVL16-1
 1444 0123 0100     		.2byte	0x1
 1445 0125 51       		.byte	0x51
 1446 0126 09000000 		.4byte	.LVL16-1
 1447 012a 16000000 		.4byte	.LFE112
 1448 012e 0400     		.2byte	0x4
 1449 0130 F3       		.byte	0xf3
 1450 0131 01       		.uleb128 0x1
 1451 0132 51       		.byte	0x51
 1452 0133 9F       		.byte	0x9f
 1453 0134 00000000 		.4byte	0
 1454 0138 00000000 		.4byte	0
 1455              	.LLST7:
 1456 013c 04000000 		.4byte	.LVL14
 1457 0140 06000000 		.4byte	.LVL15
 1458 0144 0100     		.2byte	0x1
 1459 0146 50       		.byte	0x50
 1460 0147 06000000 		.4byte	.LVL15
 1461 014b 16000000 		.4byte	.LFE112
 1462 014f 0100     		.2byte	0x1
 1463 0151 54       		.byte	0x54
 1464 0152 00000000 		.4byte	0
 1465 0156 00000000 		.4byte	0
 1466              	.LLST8:
 1467 015a 0A000000 		.4byte	.LVL16
 1468 015e 12000000 		.4byte	.LVL17
 1469 0162 0100     		.2byte	0x1
 1470 0164 50       		.byte	0x50
 1471 0165 00000000 		.4byte	0
 1472 0169 00000000 		.4byte	0
 1473              	.LLST9:
 1474 016d 00000000 		.4byte	.LVL18
 1475 0171 0E000000 		.4byte	.LVL20
 1476 0175 0100     		.2byte	0x1
ARM GAS  /tmp/ccacBxLC.s 			page 27


 1477 0177 50       		.byte	0x50
 1478 0178 0E000000 		.4byte	.LVL20
 1479 017c 46000000 		.4byte	.LVL25
 1480 0180 0100     		.2byte	0x1
 1481 0182 54       		.byte	0x54
 1482 0183 46000000 		.4byte	.LVL25
 1483 0187 4C000000 		.4byte	.LFE113
 1484 018b 0400     		.2byte	0x4
 1485 018d F3       		.byte	0xf3
 1486 018e 01       		.uleb128 0x1
 1487 018f 50       		.byte	0x50
 1488 0190 9F       		.byte	0x9f
 1489 0191 00000000 		.4byte	0
 1490 0195 00000000 		.4byte	0
 1491              	.LLST10:
 1492 0199 00000000 		.4byte	.LVL18
 1493 019d 12000000 		.4byte	.LVL21
 1494 01a1 0100     		.2byte	0x1
 1495 01a3 51       		.byte	0x51
 1496 01a4 12000000 		.4byte	.LVL21
 1497 01a8 37000000 		.4byte	.LVL23-1
 1498 01ac 0200     		.2byte	0x2
 1499 01ae 91       		.byte	0x91
 1500 01af 62       		.sleb128 -30
 1501 01b0 37000000 		.4byte	.LVL23-1
 1502 01b4 4C000000 		.4byte	.LFE113
 1503 01b8 0400     		.2byte	0x4
 1504 01ba F3       		.byte	0xf3
 1505 01bb 01       		.uleb128 0x1
 1506 01bc 51       		.byte	0x51
 1507 01bd 9F       		.byte	0x9f
 1508 01be 00000000 		.4byte	0
 1509 01c2 00000000 		.4byte	0
 1510              	.LLST11:
 1511 01c6 00000000 		.4byte	.LVL18
 1512 01ca 36000000 		.4byte	.LVL22
 1513 01ce 0100     		.2byte	0x1
 1514 01d0 52       		.byte	0x52
 1515 01d1 36000000 		.4byte	.LVL22
 1516 01d5 37000000 		.4byte	.LVL23-1
 1517 01d9 0200     		.2byte	0x2
 1518 01db 91       		.byte	0x91
 1519 01dc 64       		.sleb128 -28
 1520 01dd 37000000 		.4byte	.LVL23-1
 1521 01e1 4C000000 		.4byte	.LFE113
 1522 01e5 0400     		.2byte	0x4
 1523 01e7 F3       		.byte	0xf3
 1524 01e8 01       		.uleb128 0x1
 1525 01e9 52       		.byte	0x52
 1526 01ea 9F       		.byte	0x9f
 1527 01eb 00000000 		.4byte	0
 1528 01ef 00000000 		.4byte	0
 1529              	.LLST12:
 1530 01f3 00000000 		.4byte	.LVL18
 1531 01f7 37000000 		.4byte	.LVL23-1
 1532 01fb 0100     		.2byte	0x1
 1533 01fd 53       		.byte	0x53
ARM GAS  /tmp/ccacBxLC.s 			page 28


 1534 01fe 37000000 		.4byte	.LVL23-1
 1535 0202 4C000000 		.4byte	.LFE113
 1536 0206 0400     		.2byte	0x4
 1537 0208 F3       		.byte	0xf3
 1538 0209 01       		.uleb128 0x1
 1539 020a 53       		.byte	0x53
 1540 020b 9F       		.byte	0x9f
 1541 020c 00000000 		.4byte	0
 1542 0210 00000000 		.4byte	0
 1543              	.LLST13:
 1544 0214 00000000 		.4byte	.LVL18
 1545 0218 46000000 		.4byte	.LVL25
 1546 021c 0200     		.2byte	0x2
 1547 021e 91       		.byte	0x91
 1548 021f 00       		.sleb128 0
 1549 0220 46000000 		.4byte	.LVL25
 1550 0224 4C000000 		.4byte	.LFE113
 1551 0228 0200     		.2byte	0x2
 1552 022a 7D       		.byte	0x7d
 1553 022b 00       		.sleb128 0
 1554 022c 00000000 		.4byte	0
 1555 0230 00000000 		.4byte	0
 1556              	.LLST14:
 1557 0234 00000000 		.4byte	.LVL18
 1558 0238 46000000 		.4byte	.LVL25
 1559 023c 0200     		.2byte	0x2
 1560 023e 91       		.byte	0x91
 1561 023f 04       		.sleb128 4
 1562 0240 46000000 		.4byte	.LVL25
 1563 0244 4C000000 		.4byte	.LFE113
 1564 0248 0200     		.2byte	0x2
 1565 024a 7D       		.byte	0x7d
 1566 024b 04       		.sleb128 4
 1567 024c 00000000 		.4byte	0
 1568 0250 00000000 		.4byte	0
 1569              	.LLST15:
 1570 0254 06000000 		.4byte	.LVL19
 1571 0258 0E000000 		.4byte	.LVL20
 1572 025c 0100     		.2byte	0x1
 1573 025e 50       		.byte	0x50
 1574 025f 0E000000 		.4byte	.LVL20
 1575 0263 46000000 		.4byte	.LVL25
 1576 0267 0100     		.2byte	0x1
 1577 0269 54       		.byte	0x54
 1578 026a 46000000 		.4byte	.LVL25
 1579 026e 4C000000 		.4byte	.LFE113
 1580 0272 0400     		.2byte	0x4
 1581 0274 F3       		.byte	0xf3
 1582 0275 01       		.uleb128 0x1
 1583 0276 50       		.byte	0x50
 1584 0277 9F       		.byte	0x9f
 1585 0278 00000000 		.4byte	0
 1586 027c 00000000 		.4byte	0
 1587              	.LLST16:
 1588 0280 38000000 		.4byte	.LVL23
 1589 0284 40000000 		.4byte	.LVL24
 1590 0288 0100     		.2byte	0x1
ARM GAS  /tmp/ccacBxLC.s 			page 29


 1591 028a 50       		.byte	0x50
 1592 028b 00000000 		.4byte	0
 1593 028f 00000000 		.4byte	0
 1594              	.LLST17:
 1595 0293 00000000 		.4byte	.LVL26
 1596 0297 10000000 		.4byte	.LVL27
 1597 029b 0100     		.2byte	0x1
 1598 029d 50       		.byte	0x50
 1599 029e 10000000 		.4byte	.LVL27
 1600 02a2 78000000 		.4byte	.LVL29
 1601 02a6 0100     		.2byte	0x1
 1602 02a8 54       		.byte	0x54
 1603 02a9 78000000 		.4byte	.LVL29
 1604 02ad 84000000 		.4byte	.LFE114
 1605 02b1 0400     		.2byte	0x4
 1606 02b3 F3       		.byte	0xf3
 1607 02b4 01       		.uleb128 0x1
 1608 02b5 50       		.byte	0x50
 1609 02b6 9F       		.byte	0x9f
 1610 02b7 00000000 		.4byte	0
 1611 02bb 00000000 		.4byte	0
 1612              	.LLST18:
 1613 02bf 00000000 		.4byte	.LVL26
 1614 02c3 10000000 		.4byte	.LVL27
 1615 02c7 0100     		.2byte	0x1
 1616 02c9 51       		.byte	0x51
 1617 02ca 10000000 		.4byte	.LVL27
 1618 02ce 40000000 		.4byte	.LVL28
 1619 02d2 0100     		.2byte	0x1
 1620 02d4 58       		.byte	0x58
 1621 02d5 40000000 		.4byte	.LVL28
 1622 02d9 78000000 		.4byte	.LVL29
 1623 02dd 0200     		.2byte	0x2
 1624 02df 74       		.byte	0x74
 1625 02e0 1C       		.sleb128 28
 1626 02e1 78000000 		.4byte	.LVL29
 1627 02e5 84000000 		.4byte	.LFE114
 1628 02e9 0500     		.2byte	0x5
 1629 02eb F3       		.byte	0xf3
 1630 02ec 01       		.uleb128 0x1
 1631 02ed 50       		.byte	0x50
 1632 02ee 23       		.byte	0x23
 1633 02ef 1C       		.uleb128 0x1c
 1634 02f0 00000000 		.4byte	0
 1635 02f4 00000000 		.4byte	0
 1636              	.LLST19:
 1637 02f8 00000000 		.4byte	.LVL26
 1638 02fc 10000000 		.4byte	.LVL27
 1639 0300 0100     		.2byte	0x1
 1640 0302 52       		.byte	0x52
 1641 0303 10000000 		.4byte	.LVL27
 1642 0307 84000000 		.4byte	.LFE114
 1643 030b 0400     		.2byte	0x4
 1644 030d F3       		.byte	0xf3
 1645 030e 01       		.uleb128 0x1
 1646 030f 52       		.byte	0x52
 1647 0310 9F       		.byte	0x9f
ARM GAS  /tmp/ccacBxLC.s 			page 30


 1648 0311 00000000 		.4byte	0
 1649 0315 00000000 		.4byte	0
 1650              	.LLST20:
 1651 0319 00000000 		.4byte	.LVL26
 1652 031d 10000000 		.4byte	.LVL27
 1653 0321 0100     		.2byte	0x1
 1654 0323 53       		.byte	0x53
 1655 0324 10000000 		.4byte	.LVL27
 1656 0328 84000000 		.4byte	.LFE114
 1657 032c 0400     		.2byte	0x4
 1658 032e F3       		.byte	0xf3
 1659 032f 01       		.uleb128 0x1
 1660 0330 53       		.byte	0x53
 1661 0331 9F       		.byte	0x9f
 1662 0332 00000000 		.4byte	0
 1663 0336 00000000 		.4byte	0
 1664              		.section	.debug_aranges,"",%progbits
 1665 0000 34000000 		.4byte	0x34
 1666 0004 0200     		.2byte	0x2
 1667 0006 00000000 		.4byte	.Ldebug_info0
 1668 000a 04       		.byte	0x4
 1669 000b 00       		.byte	0
 1670 000c 0000     		.2byte	0
 1671 000e 0000     		.2byte	0
 1672 0010 00000000 		.4byte	.LFB111
 1673 0014 54000000 		.4byte	.LFE111-.LFB111
 1674 0018 00000000 		.4byte	.LFB112
 1675 001c 16000000 		.4byte	.LFE112-.LFB112
 1676 0020 00000000 		.4byte	.LFB113
 1677 0024 4C000000 		.4byte	.LFE113-.LFB113
 1678 0028 00000000 		.4byte	.LFB114
 1679 002c 84000000 		.4byte	.LFE114-.LFB114
 1680 0030 00000000 		.4byte	0
 1681 0034 00000000 		.4byte	0
 1682              		.section	.debug_ranges,"",%progbits
 1683              	.Ldebug_ranges0:
 1684 0000 00000000 		.4byte	.LFB111
 1685 0004 54000000 		.4byte	.LFE111
 1686 0008 00000000 		.4byte	.LFB112
 1687 000c 16000000 		.4byte	.LFE112
 1688 0010 00000000 		.4byte	.LFB113
 1689 0014 4C000000 		.4byte	.LFE113
 1690 0018 00000000 		.4byte	.LFB114
 1691 001c 84000000 		.4byte	.LFE114
 1692 0020 00000000 		.4byte	0
 1693 0024 00000000 		.4byte	0
 1694              		.section	.debug_line,"",%progbits
 1695              	.Ldebug_line0:
 1696 0000 B9010000 		.section	.debug_str,"MS",%progbits,1
 1696      02002301 
 1696      00000201 
 1696      FB0E0D00 
 1696      01010101 
 1697              	.LASF4:
 1698 0000 5F5F696E 		.ascii	"__int16_t\000"
 1698      7431365F 
 1698      7400
ARM GAS  /tmp/ccacBxLC.s 			page 31


 1699              	.LASF46:
 1700 000a 73746174 		.ascii	"state\000"
 1700      6500
 1701              	.LASF37:
 1702 0010 666F6E74 		.ascii	"font\000"
 1702      00
 1703              	.LASF5:
 1704 0015 73686F72 		.ascii	"short int\000"
 1704      7420696E 
 1704      7400
 1705              	.LASF18:
 1706 001f 73697A65 		.ascii	"sizetype\000"
 1706      74797065 
 1706      00
 1707              	.LASF54:
 1708 0028 6E657766 		.ascii	"newfont\000"
 1708      6F6E7400 
 1709              	.LASF51:
 1710 0030 6D665F73 		.ascii	"mf_scaled_character_width\000"
 1710      63616C65 
 1710      645F6368 
 1710      61726163 
 1710      7465725F 
 1711              	.LASF6:
 1712 004a 5F5F7569 		.ascii	"__uint16_t\000"
 1712      6E743136 
 1712      5F7400
 1713              	.LASF31:
 1714 0055 63686172 		.ascii	"character_width\000"
 1714      61637465 
 1714      725F7769 
 1714      64746800 
 1715              	.LASF32:
 1716 0065 72656E64 		.ascii	"render_character\000"
 1716      65725F63 
 1716      68617261 
 1716      63746572 
 1716      00
 1717              	.LASF45:
 1718 0076 616C7068 		.ascii	"alpha\000"
 1718      6100
 1719              	.LASF33:
 1720 007c 6D665F63 		.ascii	"mf_char\000"
 1720      68617200 
 1721              	.LASF43:
 1722 0084 6F726967 		.ascii	"orig_state\000"
 1722      5F737461 
 1722      746500
 1723              	.LASF35:
 1724 008f 6D665F66 		.ascii	"mf_font_s\000"
 1724      6F6E745F 
 1724      7300
 1725              	.LASF49:
 1726 0099 73666F6E 		.ascii	"sfont\000"
 1726      7400
 1727              	.LASF41:
 1728 009f 7363616C 		.ascii	"scaled_renderstate\000"
ARM GAS  /tmp/ccacBxLC.s 			page 32


 1728      65645F72 
 1728      656E6465 
 1728      72737461 
 1728      746500
 1729              	.LASF59:
 1730 00b2 6D665F73 		.ascii	"mf_scale_font\000"
 1730      63616C65 
 1730      5F666F6E 
 1730      7400
 1731              	.LASF11:
 1732 00c0 6C6F6E67 		.ascii	"long long int\000"
 1732      206C6F6E 
 1732      6720696E 
 1732      7400
 1733              	.LASF39:
 1734 00ce 785F7363 		.ascii	"x_scale\000"
 1734      616C6500 
 1735              	.LASF24:
 1736 00d6 6D696E5F 		.ascii	"min_x_advance\000"
 1736      785F6164 
 1736      76616E63 
 1736      6500
 1737              	.LASF9:
 1738 00e4 6C6F6E67 		.ascii	"long int\000"
 1738      20696E74 
 1738      00
 1739              	.LASF58:
 1740 00ed 7363616C 		.ascii	"scaled_pixel_callback\000"
 1740      65645F70 
 1740      6978656C 
 1740      5F63616C 
 1740      6C626163 
 1741              	.LASF3:
 1742 0103 5F5F7569 		.ascii	"__uint8_t\000"
 1742      6E74385F 
 1742      7400
 1743              	.LASF52:
 1744 010d 6D665F73 		.ascii	"mf_scaled_render_character\000"
 1744      63616C65 
 1744      645F7265 
 1744      6E646572 
 1744      5F636861 
 1745              	.LASF50:
 1746 0128 62617365 		.ascii	"basewidth\000"
 1746      77696474 
 1746      6800
 1747              	.LASF48:
 1748 0132 63686172 		.ascii	"character\000"
 1748      61637465 
 1748      7200
 1749              	.LASF20:
 1750 013c 66756C6C 		.ascii	"full_name\000"
 1750      5F6E616D 
 1750      6500
 1751              	.LASF21:
 1752 0146 73686F72 		.ascii	"short_name\000"
 1752      745F6E61 
ARM GAS  /tmp/ccacBxLC.s 			page 33


 1752      6D6500
 1753              	.LASF2:
 1754 0151 756E7369 		.ascii	"unsigned char\000"
 1754      676E6564 
 1754      20636861 
 1754      7200
 1755              	.LASF38:
 1756 015f 62617365 		.ascii	"basefont\000"
 1756      666F6E74 
 1756      00
 1757              	.LASF1:
 1758 0168 7369676E 		.ascii	"signed char\000"
 1758      65642063 
 1758      68617200 
 1759              	.LASF29:
 1760 0174 666C6167 		.ascii	"flags\000"
 1760      7300
 1761              	.LASF12:
 1762 017a 6C6F6E67 		.ascii	"long long unsigned int\000"
 1762      206C6F6E 
 1762      6720756E 
 1762      7369676E 
 1762      65642069 
 1763              	.LASF57:
 1764 0191 2F686F6D 		.ascii	"/home/makkmarci/devel/ChibiOS_2.6.5/projects/STM32F"
 1764      652F6D61 
 1764      6B6B6D61 
 1764      7263692F 
 1764      64657665 
 1765 01c4 345F4368 		.ascii	"4_ChibiOS_uGFX_gwin_2/\000"
 1765      6962694F 
 1765      535F7547 
 1765      46585F67 
 1765      77696E5F 
 1766              	.LASF0:
 1767 01db 756E7369 		.ascii	"unsigned int\000"
 1767      676E6564 
 1767      20696E74 
 1767      00
 1768              	.LASF15:
 1769 01e8 75696E74 		.ascii	"uint16_t\000"
 1769      31365F74 
 1769      00
 1770              	.LASF47:
 1771 01f1 72737461 		.ascii	"rstate\000"
 1771      746500
 1772              	.LASF55:
 1773 01f8 474E5520 		.ascii	"GNU C 4.8.4 20140526 (release) [ARM/embedded-4_8-br"
 1773      4320342E 
 1773      382E3420 
 1773      32303134 
 1773      30353236 
 1774 022b 616E6368 		.ascii	"anch revision 211358] -mcpu=cortex-m4 -mfloat-abi=h"
 1774      20726576 
 1774      6973696F 
 1774      6E203231 
 1774      31333538 
ARM GAS  /tmp/ccacBxLC.s 			page 34


 1775 025e 61726420 		.ascii	"ard -mfpu=fpv4-sp-d16 -mno-thumb-interwork -mthumb "
 1775      2D6D6670 
 1775      753D6670 
 1775      76342D73 
 1775      702D6431 
 1776 0291 2D676764 		.ascii	"-ggdb -O2 -fomit-frame-pointer -falign-functions=16"
 1776      62202D4F 
 1776      32202D66 
 1776      6F6D6974 
 1776      2D667261 
 1777 02c4 202D6666 		.ascii	" -ffunction-sections -fdata-sections -fno-common -f"
 1777      756E6374 
 1777      696F6E2D 
 1777      73656374 
 1777      696F6E73 
 1778 02f7 73696E67 		.ascii	"single-precision-constant\000"
 1778      6C652D70 
 1778      72656369 
 1778      73696F6E 
 1778      2D636F6E 
 1779              	.LASF42:
 1780 0311 6F726967 		.ascii	"orig_callback\000"
 1780      5F63616C 
 1780      6C626163 
 1780      6B00
 1781              	.LASF25:
 1782 031f 6D61785F 		.ascii	"max_x_advance\000"
 1782      785F6164 
 1782      76616E63 
 1782      6500
 1783              	.LASF19:
 1784 032d 63686172 		.ascii	"char\000"
 1784      00
 1785              	.LASF26:
 1786 0332 62617365 		.ascii	"baseline_x\000"
 1786      6C696E65 
 1786      5F7800
 1787              	.LASF27:
 1788 033d 62617365 		.ascii	"baseline_y\000"
 1788      6C696E65 
 1788      5F7900
 1789              	.LASF16:
 1790 0348 696E7433 		.ascii	"int32_t\000"
 1790      325F7400 
 1791              	.LASF7:
 1792 0350 73686F72 		.ascii	"short unsigned int\000"
 1792      7420756E 
 1792      7369676E 
 1792      65642069 
 1792      6E7400
 1793              	.LASF34:
 1794 0363 6D665F70 		.ascii	"mf_pixel_callback_t\000"
 1794      6978656C 
 1794      5F63616C 
 1794      6C626163 
 1794      6B5F7400 
 1795              	.LASF14:
ARM GAS  /tmp/ccacBxLC.s 			page 35


 1796 0377 696E7431 		.ascii	"int16_t\000"
 1796      365F7400 
 1797              	.LASF17:
 1798 037f 5F426F6F 		.ascii	"_Bool\000"
 1798      6C00
 1799              	.LASF44:
 1800 0385 636F756E 		.ascii	"count\000"
 1800      7400
 1801              	.LASF23:
 1802 038b 68656967 		.ascii	"height\000"
 1802      687400
 1803              	.LASF10:
 1804 0392 6C6F6E67 		.ascii	"long unsigned int\000"
 1804      20756E73 
 1804      69676E65 
 1804      6420696E 
 1804      7400
 1805              	.LASF28:
 1806 03a4 6C696E65 		.ascii	"line_height\000"
 1806      5F686569 
 1806      67687400 
 1807              	.LASF22:
 1808 03b0 77696474 		.ascii	"width\000"
 1808      6800
 1809              	.LASF8:
 1810 03b6 5F5F696E 		.ascii	"__int32_t\000"
 1810      7433325F 
 1810      7400
 1811              	.LASF13:
 1812 03c0 75696E74 		.ascii	"uint8_t\000"
 1812      385F7400 
 1813              	.LASF30:
 1814 03c8 66616C6C 		.ascii	"fallback_character\000"
 1814      6261636B 
 1814      5F636861 
 1814      72616374 
 1814      657200
 1815              	.LASF36:
 1816 03db 6D665F73 		.ascii	"mf_scaledfont_s\000"
 1816      63616C65 
 1816      64666F6E 
 1816      745F7300 
 1817              	.LASF56:
 1818 03eb 2F686F6D 		.ascii	"/home/makkmarci/devel/ugfx/src/gdisp/mcufont/mf_sca"
 1818      652F6D61 
 1818      6B6B6D61 
 1818      7263692F 
 1818      64657665 
 1819 041e 6C656466 		.ascii	"ledfont.c\000"
 1819      6F6E742E 
 1819      6300
 1820              	.LASF60:
 1821 0428 49544D5F 		.ascii	"ITM_RxBuffer\000"
 1821      52784275 
 1821      66666572 
 1821      00
 1822              	.LASF53:
ARM GAS  /tmp/ccacBxLC.s 			page 36


 1823 0435 63616C6C 		.ascii	"callback\000"
 1823      6261636B 
 1823      00
 1824              	.LASF40:
 1825 043e 795F7363 		.ascii	"y_scale\000"
 1825      616C6500 
 1826              		.ident	"GCC: (GNU Tools for ARM Embedded Processors) 4.8.4 20140526 (release) [ARM/embedded-4_8-br
ARM GAS  /tmp/ccacBxLC.s 			page 37


DEFINED SYMBOLS
                            *ABS*:00000000 mf_scaledfont.c
     /tmp/ccacBxLC.s:21     .text.scaled_pixel_callback:00000000 $t
     /tmp/ccacBxLC.s:26     .text.scaled_pixel_callback:00000000 scaled_pixel_callback
     /tmp/ccacBxLC.s:109    .text.mf_scaled_character_width:00000000 $t
     /tmp/ccacBxLC.s:115    .text.mf_scaled_character_width:00000000 mf_scaled_character_width
     /tmp/ccacBxLC.s:146    .text.mf_scaled_render_character:00000000 $t
     /tmp/ccacBxLC.s:152    .text.mf_scaled_render_character:00000000 mf_scaled_render_character
     /tmp/ccacBxLC.s:219    .text.mf_scaled_render_character:00000048 $d
     /tmp/ccacBxLC.s:224    .text.mf_scale_font:00000000 $t
     /tmp/ccacBxLC.s:230    .text.mf_scale_font:00000000 mf_scale_font
     /tmp/ccacBxLC.s:326    .text.mf_scale_font:0000007c $d
                     .debug_frame:00000010 $d
     /tmp/ccacBxLC.s:223    .text.mf_scaled_render_character:0000004c $t
     /tmp/ccacBxLC.s:331    .text.mf_scale_font:00000084 $t

NO UNDEFINED SYMBOLS
