ARM GAS  /tmp/ccan2Z1K.s 			page 1


   1              		.syntax unified
   2              		.cpu cortex-m4
   3              		.eabi_attribute 27, 1
   4              		.eabi_attribute 28, 1
   5              		.fpu fpv4-sp-d16
   6              		.eabi_attribute 20, 1
   7              		.eabi_attribute 21, 1
   8              		.eabi_attribute 23, 3
   9              		.eabi_attribute 24, 1
  10              		.eabi_attribute 25, 1
  11              		.eabi_attribute 26, 1
  12              		.eabi_attribute 30, 6
  13              		.eabi_attribute 34, 1
  14              		.eabi_attribute 18, 4
  15              		.thumb
  16              		.file	"mf_scaledfont.c"
  17              		.text
  18              	.Ltext0:
  19              		.cfi_sections	.debug_frame
  20              		.section	.text.scaled_pixel_callback,"ax",%progbits
  21              		.align	2
  22              		.p2align 4,,15
  23              		.thumb
  24              		.thumb_func
  25              		.type	scaled_pixel_callback, %function
  26              	scaled_pixel_callback:
  27              	.LFB111:
  28              		.file 1 "/home/makkmarci/workspace/ugfx/src/gdisp/mcufont/mf_scaledfont.c"
  29              		.loc 1 24 0
  30              		.cfi_startproc
  31              		@ args = 4, pretend = 0, frame = 16
  32              		@ frame_needed = 0, uses_anonymous_args = 0
  33 0000 30B5     		push	{r4, r5, lr}
  34              		.cfi_def_cfa_offset 12
  35              		.cfi_offset 4, -12
  36              		.cfi_offset 5, -8
  37              		.cfi_offset 14, -4
  38 0002 87B0     		sub	sp, sp, #28
  39              		.cfi_def_cfa_offset 40
  40 0004 0446     		mov	r4, r0
  41 0006 0846     		mov	r0, r1
  42 0008 1146     		mov	r1, r2
  43 000a 1A46     		mov	r2, r3
  44 000c 2346     		mov	r3, r4	@ movhi
  45 000e ADF80E30 		strh	r3, [sp, #14]	@ movhi
  46 0012 0346     		mov	r3, r0	@ movhi
  47 0014 ADF80C30 		strh	r3, [sp, #12]	@ movhi
  48 0018 0B46     		mov	r3, r1
  49 001a 8DF80B30 		strb	r3, [sp, #11]
  50 001e 1346     		mov	r3, r2
  51 0020 8DF80A30 		strb	r3, [sp, #10]
  52              		.loc 1 25 0
  53 0024 0A9B     		ldr	r3, [sp, #40]
  54 0026 0493     		str	r3, [sp, #16]
  55              		.loc 1 28 0
  56 0028 049B     		ldr	r3, [sp, #16]
  57 002a 1A7A     		ldrb	r2, [r3, #8]	@ zero_extendqisi2
ARM GAS  /tmp/ccan2Z1K.s 			page 2


  58 002c 9DF80B30 		ldrb	r3, [sp, #11]
  59 0030 12FB03F3 		smulbb	r3, r2, r3
  60 0034 8DF80B30 		strb	r3, [sp, #11]
  61              		.loc 1 29 0
  62 0038 049B     		ldr	r3, [sp, #16]
  63 003a 5B89     		ldrh	r3, [r3, #10]
  64 003c 9AB2     		uxth	r2, r3
  65 003e 049B     		ldr	r3, [sp, #16]
  66 0040 1B7A     		ldrb	r3, [r3, #8]	@ zero_extendqisi2
  67 0042 99B2     		uxth	r1, r3
  68 0044 BDF80E30 		ldrh	r3, [sp, #14]
  69 0048 11FB03F3 		smulbb	r3, r1, r3
  70 004c 9BB2     		uxth	r3, r3
  71 004e 1344     		add	r3, r3, r2
  72 0050 9BB2     		uxth	r3, r3
  73 0052 ADF80E30 		strh	r3, [sp, #14]	@ movhi
  74              		.loc 1 30 0
  75 0056 049B     		ldr	r3, [sp, #16]
  76 0058 9B89     		ldrh	r3, [r3, #12]
  77 005a 9AB2     		uxth	r2, r3
  78 005c 049B     		ldr	r3, [sp, #16]
  79 005e 5B7A     		ldrb	r3, [r3, #9]	@ zero_extendqisi2
  80 0060 99B2     		uxth	r1, r3
  81 0062 BDF80C30 		ldrh	r3, [sp, #12]
  82 0066 11FB03F3 		smulbb	r3, r1, r3
  83 006a 9BB2     		uxth	r3, r3
  84 006c 1344     		add	r3, r3, r2
  85 006e 9BB2     		uxth	r3, r3
  86 0070 ADF80C30 		strh	r3, [sp, #12]	@ movhi
  87              		.loc 1 32 0
  88 0074 0023     		movs	r3, #0
  89 0076 8DF81730 		strb	r3, [sp, #23]
  90 007a 1AE0     		b	.L2
  91              	.L3:
  92              		.loc 1 34 0 discriminator 3
  93 007c 049B     		ldr	r3, [sp, #16]
  94 007e 1C68     		ldr	r4, [r3]
  95 0080 9DF81730 		ldrb	r3, [sp, #23]	@ zero_extendqisi2
  96 0084 9AB2     		uxth	r2, r3
  97 0086 BDF80C30 		ldrh	r3, [sp, #12]
  98 008a 1344     		add	r3, r3, r2
  99 008c 9BB2     		uxth	r3, r3
 100 008e 9AB2     		uxth	r2, r3
 101 0090 049B     		ldr	r3, [sp, #16]
 102 0092 5B68     		ldr	r3, [r3, #4]
 103 0094 BDF90E00 		ldrsh	r0, [sp, #14]
 104 0098 11B2     		sxth	r1, r2
 105 009a 9DF80B20 		ldrb	r2, [sp, #11]	@ zero_extendqisi2
 106 009e 9DF80A50 		ldrb	r5, [sp, #10]	@ zero_extendqisi2
 107 00a2 0093     		str	r3, [sp]
 108 00a4 2B46     		mov	r3, r5
 109 00a6 A047     		blx	r4
 110              		.loc 1 32 0 discriminator 3
 111 00a8 9DF81730 		ldrb	r3, [sp, #23]	@ zero_extendqisi2
 112 00ac 0133     		adds	r3, r3, #1
 113 00ae 8DF81730 		strb	r3, [sp, #23]
 114              	.L2:
ARM GAS  /tmp/ccan2Z1K.s 			page 3


 115              		.loc 1 32 0 is_stmt 0 discriminator 1
 116 00b2 049B     		ldr	r3, [sp, #16]
 117 00b4 5B7A     		ldrb	r3, [r3, #9]	@ zero_extendqisi2
 118 00b6 9DF81720 		ldrb	r2, [sp, #23]	@ zero_extendqisi2
 119 00ba 9A42     		cmp	r2, r3
 120 00bc DED3     		bcc	.L3
 121              		.loc 1 36 0 is_stmt 1
 122 00be 07B0     		add	sp, sp, #28
 123              		.cfi_def_cfa_offset 12
 124              		@ sp needed
 125 00c0 30BD     		pop	{r4, r5, pc}
 126              		.cfi_endproc
 127              	.LFE111:
 128              		.size	scaled_pixel_callback, .-scaled_pixel_callback
 129 00c2 00BFAFF3 		.section	.text.mf_scaled_character_width,"ax",%progbits
 129      0080AFF3 
 129      0080AFF3 
 129      0080
 130              		.align	2
 131              		.p2align 4,,15
 132              		.global	mf_scaled_character_width
 133              		.thumb
 134              		.thumb_func
 135              		.type	mf_scaled_character_width, %function
 136              	mf_scaled_character_width:
 137              	.LFB112:
 138              		.loc 1 40 0
 139              		.cfi_startproc
 140              		@ args = 0, pretend = 0, frame = 16
 141              		@ frame_needed = 0, uses_anonymous_args = 0
 142 0000 00B5     		push	{lr}
 143              		.cfi_def_cfa_offset 4
 144              		.cfi_offset 14, -4
 145 0002 85B0     		sub	sp, sp, #20
 146              		.cfi_def_cfa_offset 24
 147 0004 0190     		str	r0, [sp, #4]
 148 0006 0B46     		mov	r3, r1
 149 0008 ADF80230 		strh	r3, [sp, #2]	@ movhi
 150              		.loc 1 41 0
 151 000c 019B     		ldr	r3, [sp, #4]
 152 000e 0393     		str	r3, [sp, #12]
 153              		.loc 1 44 0
 154 0010 039B     		ldr	r3, [sp, #12]
 155 0012 DB69     		ldr	r3, [r3, #28]
 156 0014 5B69     		ldr	r3, [r3, #20]
 157 0016 039A     		ldr	r2, [sp, #12]
 158 0018 D169     		ldr	r1, [r2, #28]
 159 001a BDF80220 		ldrh	r2, [sp, #2]
 160 001e 0846     		mov	r0, r1
 161 0020 1146     		mov	r1, r2
 162 0022 9847     		blx	r3
 163 0024 0346     		mov	r3, r0
 164 0026 8DF80B30 		strb	r3, [sp, #11]
 165              		.loc 1 46 0
 166 002a 039B     		ldr	r3, [sp, #12]
 167 002c 93F82020 		ldrb	r2, [r3, #32]	@ zero_extendqisi2
 168 0030 9DF80B30 		ldrb	r3, [sp, #11]
ARM GAS  /tmp/ccan2Z1K.s 			page 4


 169 0034 12FB03F3 		smulbb	r3, r2, r3
 170 0038 DBB2     		uxtb	r3, r3
 171              		.loc 1 47 0
 172 003a 1846     		mov	r0, r3
 173 003c 05B0     		add	sp, sp, #20
 174              		.cfi_def_cfa_offset 4
 175              		@ sp needed
 176 003e 5DF804FB 		ldr	pc, [sp], #4
 177              		.cfi_endproc
 178              	.LFE112:
 179              		.size	mf_scaled_character_width, .-mf_scaled_character_width
 180 0042 00BFAFF3 		.section	.text.mf_scaled_render_character,"ax",%progbits
 180      0080AFF3 
 180      0080AFF3 
 180      0080
 181              		.align	2
 182              		.p2align 4,,15
 183              		.global	mf_scaled_render_character
 184              		.thumb
 185              		.thumb_func
 186              		.type	mf_scaled_render_character, %function
 187              	mf_scaled_render_character:
 188              	.LFB113:
 189              		.loc 1 54 0
 190              		.cfi_startproc
 191              		@ args = 8, pretend = 0, frame = 40
 192              		@ frame_needed = 0, uses_anonymous_args = 0
 193 0000 30B5     		push	{r4, r5, lr}
 194              		.cfi_def_cfa_offset 12
 195              		.cfi_offset 4, -12
 196              		.cfi_offset 5, -8
 197              		.cfi_offset 14, -4
 198 0002 8DB0     		sub	sp, sp, #52
 199              		.cfi_def_cfa_offset 64
 200 0004 0590     		str	r0, [sp, #20]
 201 0006 0846     		mov	r0, r1
 202 0008 1146     		mov	r1, r2
 203 000a 1A46     		mov	r2, r3
 204 000c 0346     		mov	r3, r0	@ movhi
 205 000e ADF81230 		strh	r3, [sp, #18]	@ movhi
 206 0012 0B46     		mov	r3, r1	@ movhi
 207 0014 ADF81030 		strh	r3, [sp, #16]	@ movhi
 208 0018 1346     		mov	r3, r2	@ movhi
 209 001a ADF80E30 		strh	r3, [sp, #14]	@ movhi
 210              		.loc 1 55 0
 211 001e 059B     		ldr	r3, [sp, #20]
 212 0020 0B93     		str	r3, [sp, #44]
 213              		.loc 1 59 0
 214 0022 109B     		ldr	r3, [sp, #64]
 215 0024 0693     		str	r3, [sp, #24]
 216              		.loc 1 60 0
 217 0026 119B     		ldr	r3, [sp, #68]
 218 0028 0793     		str	r3, [sp, #28]
 219              		.loc 1 61 0
 220 002a 0B9B     		ldr	r3, [sp, #44]
 221 002c 93F82030 		ldrb	r3, [r3, #32]	@ zero_extendqisi2
 222 0030 8DF82030 		strb	r3, [sp, #32]
ARM GAS  /tmp/ccan2Z1K.s 			page 5


 223              		.loc 1 62 0
 224 0034 0B9B     		ldr	r3, [sp, #44]
 225 0036 93F82130 		ldrb	r3, [r3, #33]	@ zero_extendqisi2
 226 003a 8DF82130 		strb	r3, [sp, #33]
 227              		.loc 1 63 0
 228 003e BDF81230 		ldrh	r3, [sp, #18]	@ movhi
 229 0042 ADF82230 		strh	r3, [sp, #34]	@ movhi
 230              		.loc 1 64 0
 231 0046 BDF81030 		ldrh	r3, [sp, #16]	@ movhi
 232 004a ADF82430 		strh	r3, [sp, #36]	@ movhi
 233              		.loc 1 66 0
 234 004e 0B9B     		ldr	r3, [sp, #44]
 235 0050 DB69     		ldr	r3, [r3, #28]
 236 0052 9C69     		ldr	r4, [r3, #24]
 237 0054 0B9B     		ldr	r3, [sp, #44]
 238 0056 DA69     		ldr	r2, [r3, #28]
 239 0058 BDF80E50 		ldrh	r5, [sp, #14]
 240 005c 0B4B     		ldr	r3, .L8
 241 005e 0093     		str	r3, [sp]
 242 0060 06AB     		add	r3, sp, #24
 243 0062 0193     		str	r3, [sp, #4]
 244 0064 1046     		mov	r0, r2
 245 0066 0021     		movs	r1, #0
 246 0068 0022     		movs	r2, #0
 247 006a 2B46     		mov	r3, r5
 248 006c A047     		blx	r4
 249 006e 0346     		mov	r3, r0
 250 0070 8DF82B30 		strb	r3, [sp, #43]
 251              		.loc 1 69 0
 252 0074 0B9B     		ldr	r3, [sp, #44]
 253 0076 93F82020 		ldrb	r2, [r3, #32]	@ zero_extendqisi2
 254 007a 9DF82B30 		ldrb	r3, [sp, #43]
 255 007e 12FB03F3 		smulbb	r3, r2, r3
 256 0082 DBB2     		uxtb	r3, r3
 257              		.loc 1 70 0
 258 0084 1846     		mov	r0, r3
 259 0086 0DB0     		add	sp, sp, #52
 260              		.cfi_def_cfa_offset 12
 261              		@ sp needed
 262 0088 30BD     		pop	{r4, r5, pc}
 263              	.L9:
 264 008a 00BF     		.align	2
 265              	.L8:
 266 008c 00000000 		.word	scaled_pixel_callback
 267              		.cfi_endproc
 268              	.LFE113:
 269              		.size	mf_scaled_render_character, .-mf_scaled_render_character
 270              		.section	.text.mf_scale_font,"ax",%progbits
 271              		.align	2
 272              		.p2align 4,,15
 273              		.global	mf_scale_font
 274              		.thumb
 275              		.thumb_func
 276              		.type	mf_scale_font, %function
 277              	mf_scale_font:
 278              	.LFB114:
 279              		.loc 1 75 0
ARM GAS  /tmp/ccan2Z1K.s 			page 6


 280              		.cfi_startproc
 281              		@ args = 0, pretend = 0, frame = 16
 282              		@ frame_needed = 0, uses_anonymous_args = 0
 283              		@ link register save eliminated.
 284 0000 30B4     		push	{r4, r5}
 285              		.cfi_def_cfa_offset 8
 286              		.cfi_offset 4, -8
 287              		.cfi_offset 5, -4
 288 0002 84B0     		sub	sp, sp, #16
 289              		.cfi_def_cfa_offset 24
 290 0004 0390     		str	r0, [sp, #12]
 291 0006 0291     		str	r1, [sp, #8]
 292 0008 1146     		mov	r1, r2
 293 000a 1A46     		mov	r2, r3
 294 000c 0B46     		mov	r3, r1
 295 000e 8DF80730 		strb	r3, [sp, #7]
 296 0012 1346     		mov	r3, r2
 297 0014 8DF80630 		strb	r3, [sp, #6]
 298              		.loc 1 76 0
 299 0018 039A     		ldr	r2, [sp, #12]
 300 001a 029B     		ldr	r3, [sp, #8]
 301 001c 1446     		mov	r4, r2
 302 001e 1D46     		mov	r5, r3
 303 0020 0FCD     		ldmia	r5!, {r0, r1, r2, r3}
 304 0022 0FC4     		stmia	r4!, {r0, r1, r2, r3}
 305 0024 95E80700 		ldmia	r5, {r0, r1, r2}
 306 0028 84E80700 		stmia	r4, {r0, r1, r2}
 307              		.loc 1 77 0
 308 002c 039B     		ldr	r3, [sp, #12]
 309 002e 029A     		ldr	r2, [sp, #8]
 310 0030 DA61     		str	r2, [r3, #28]
 311              		.loc 1 79 0
 312 0032 039B     		ldr	r3, [sp, #12]
 313 0034 1A7A     		ldrb	r2, [r3, #8]	@ zero_extendqisi2
 314 0036 9DF80730 		ldrb	r3, [sp, #7]
 315 003a 12FB03F3 		smulbb	r3, r2, r3
 316 003e DAB2     		uxtb	r2, r3
 317 0040 039B     		ldr	r3, [sp, #12]
 318 0042 1A72     		strb	r2, [r3, #8]
 319              		.loc 1 80 0
 320 0044 039B     		ldr	r3, [sp, #12]
 321 0046 5A7A     		ldrb	r2, [r3, #9]	@ zero_extendqisi2
 322 0048 9DF80630 		ldrb	r3, [sp, #6]
 323 004c 12FB03F3 		smulbb	r3, r2, r3
 324 0050 DAB2     		uxtb	r2, r3
 325 0052 039B     		ldr	r3, [sp, #12]
 326 0054 5A72     		strb	r2, [r3, #9]
 327              		.loc 1 81 0
 328 0056 039B     		ldr	r3, [sp, #12]
 329 0058 1A7B     		ldrb	r2, [r3, #12]	@ zero_extendqisi2
 330 005a 9DF80730 		ldrb	r3, [sp, #7]
 331 005e 12FB03F3 		smulbb	r3, r2, r3
 332 0062 DAB2     		uxtb	r2, r3
 333 0064 039B     		ldr	r3, [sp, #12]
 334 0066 1A73     		strb	r2, [r3, #12]
 335              		.loc 1 82 0
 336 0068 039B     		ldr	r3, [sp, #12]
ARM GAS  /tmp/ccan2Z1K.s 			page 7


 337 006a 5A7B     		ldrb	r2, [r3, #13]	@ zero_extendqisi2
 338 006c 9DF80630 		ldrb	r3, [sp, #6]
 339 0070 12FB03F3 		smulbb	r3, r2, r3
 340 0074 DAB2     		uxtb	r2, r3
 341 0076 039B     		ldr	r3, [sp, #12]
 342 0078 5A73     		strb	r2, [r3, #13]
 343              		.loc 1 83 0
 344 007a 039B     		ldr	r3, [sp, #12]
 345 007c 9A7A     		ldrb	r2, [r3, #10]	@ zero_extendqisi2
 346 007e 9DF80730 		ldrb	r3, [sp, #7]
 347 0082 12FB03F3 		smulbb	r3, r2, r3
 348 0086 DAB2     		uxtb	r2, r3
 349 0088 039B     		ldr	r3, [sp, #12]
 350 008a 9A72     		strb	r2, [r3, #10]
 351              		.loc 1 84 0
 352 008c 039B     		ldr	r3, [sp, #12]
 353 008e DA7A     		ldrb	r2, [r3, #11]	@ zero_extendqisi2
 354 0090 9DF80730 		ldrb	r3, [sp, #7]
 355 0094 12FB03F3 		smulbb	r3, r2, r3
 356 0098 DAB2     		uxtb	r2, r3
 357 009a 039B     		ldr	r3, [sp, #12]
 358 009c DA72     		strb	r2, [r3, #11]
 359              		.loc 1 85 0
 360 009e 039B     		ldr	r3, [sp, #12]
 361 00a0 9A7B     		ldrb	r2, [r3, #14]	@ zero_extendqisi2
 362 00a2 9DF80630 		ldrb	r3, [sp, #6]
 363 00a6 12FB03F3 		smulbb	r3, r2, r3
 364 00aa DAB2     		uxtb	r2, r3
 365 00ac 039B     		ldr	r3, [sp, #12]
 366 00ae 9A73     		strb	r2, [r3, #14]
 367              		.loc 1 86 0
 368 00b0 039B     		ldr	r3, [sp, #12]
 369 00b2 094A     		ldr	r2, .L11
 370 00b4 5A61     		str	r2, [r3, #20]
 371              		.loc 1 87 0
 372 00b6 039B     		ldr	r3, [sp, #12]
 373 00b8 084A     		ldr	r2, .L11+4
 374 00ba 9A61     		str	r2, [r3, #24]
 375              		.loc 1 89 0
 376 00bc 039B     		ldr	r3, [sp, #12]
 377 00be 9DF80720 		ldrb	r2, [sp, #7]
 378 00c2 83F82020 		strb	r2, [r3, #32]
 379              		.loc 1 90 0
 380 00c6 039B     		ldr	r3, [sp, #12]
 381 00c8 9DF80620 		ldrb	r2, [sp, #6]
 382 00cc 83F82120 		strb	r2, [r3, #33]
 383              		.loc 1 91 0
 384 00d0 04B0     		add	sp, sp, #16
 385              		.cfi_def_cfa_offset 8
 386              		@ sp needed
 387 00d2 30BC     		pop	{r4, r5}
 388              		.cfi_restore 5
 389              		.cfi_restore 4
 390              		.cfi_def_cfa_offset 0
 391 00d4 7047     		bx	lr
 392              	.L12:
 393 00d6 00BF     		.align	2
ARM GAS  /tmp/ccan2Z1K.s 			page 8


 394              	.L11:
 395 00d8 00000000 		.word	mf_scaled_character_width
 396 00dc 00000000 		.word	mf_scaled_render_character
 397              		.cfi_endproc
 398              	.LFE114:
 399              		.size	mf_scale_font, .-mf_scale_font
 400              		.text
 401              	.Letext0:
 402              		.file 2 "/opt/gcc-arm-none-eabi/arm-none-eabi/include/machine/_default_types.h"
 403              		.file 3 "/opt/gcc-arm-none-eabi/arm-none-eabi/include/stdint.h"
 404              		.file 4 "/home/makkmarci/workspace/ugfx/src/gdisp/mcufont/mf_font.h"
 405              		.file 5 "/home/makkmarci/workspace/ugfx/src/gdisp/mcufont/mf_encoding.h"
 406              		.file 6 "/home/makkmarci/workspace/ugfx/src/gdisp/mcufont/mf_scaledfont.h"
 407              		.file 7 "/home/makkmarci/workspace/ChibiOS_2.6.8/os/ports/common/ARMCMx/CMSIS/include/core_cm4.h"