ARM GAS  /tmp/cc3YqWb6.s 			page 1


   1              		.syntax unified
   2              		.cpu cortex-m4
   3              		.eabi_attribute 27, 3
   4              		.eabi_attribute 28, 1
   5              		.fpu fpv4-sp-d16
   6              		.eabi_attribute 20, 1
   7              		.eabi_attribute 21, 1
   8              		.eabi_attribute 23, 3
   9              		.eabi_attribute 24, 1
  10              		.eabi_attribute 25, 1
  11              		.eabi_attribute 26, 1
  12              		.eabi_attribute 30, 2
  13              		.eabi_attribute 34, 1
  14              		.eabi_attribute 18, 4
  15              		.thumb
  16              		.file	"mf_wordwrap.c"
  17              		.text
  18              	.Ltext0:
  19              		.cfi_sections	.debug_frame
  20              		.section	.text.mf_wordwrap,"ax",%progbits
  21              		.align	2
  22              		.p2align 4,,15
  23              		.global	mf_wordwrap
  24              		.thumb
  25              		.thumb_func
  26              		.type	mf_wordwrap, %function
  27              	mf_wordwrap:
  28              	.LFB112:
  29              		.file 1 "/home/makkmarci/devel/ugfx/src/gdisp/mcufont/mf_wordwrap.c"
  30              		.loc 1 231 0
  31              		.cfi_startproc
  32              		@ args = 4, pretend = 0, frame = 16
  33              		@ frame_needed = 0, uses_anonymous_args = 0
  34              	.LVL0:
  35 0000 2DE9F04F 		push	{r4, r5, r6, r7, r8, r9, r10, fp, lr}
  36              		.cfi_def_cfa_offset 36
  37              		.cfi_offset 4, -36
  38              		.cfi_offset 5, -32
  39              		.cfi_offset 6, -28
  40              		.cfi_offset 7, -24
  41              		.cfi_offset 8, -20
  42              		.cfi_offset 9, -16
  43              		.cfi_offset 10, -12
  44              		.cfi_offset 11, -8
  45              		.cfi_offset 14, -4
  46 0004 85B0     		sub	sp, sp, #20
  47              		.cfi_def_cfa_offset 56
  48              		.loc 1 231 0
  49 0006 0746     		mov	r7, r0
  50 0008 0392     		str	r2, [sp, #12]
  51              		.loc 1 241 0
  52 000a 0192     		str	r2, [sp, #4]
  53              	.LVL1:
  54              		.loc 1 243 0
  55 000c 1278     		ldrb	r2, [r2]	@ zero_extendqisi2
  56              	.LVL2:
  57              		.loc 1 231 0
ARM GAS  /tmp/cc3YqWb6.s 			page 2


  58 000e 0293     		str	r3, [sp, #8]
  59 0010 8846     		mov	r8, r1
  60              		.loc 1 243 0
  61 0012 002A     		cmp	r2, #0
  62 0014 41D0     		beq	.L1
  63 0016 1346     		mov	r3, r2
  64              	.LVL3:
  65              	.L3:
  66              	.LBB5:
  67              		.loc 1 276 0 discriminator 1
  68 0018 019C     		ldr	r4, [sp, #4]
  69 001a 0026     		movs	r6, #0
  70 001c B246     		mov	r10, r6
  71 001e B346     		mov	fp, r6
  72 0020 2546     		mov	r5, r4
  73 0022 06E0     		b	.L10
  74              	.LVL4:
  75              	.L33:
  76              	.LBB6:
  77              	.LBB7:
  78              		.loc 1 15 0
  79 0024 0929     		cmp	r1, #9
  80 0026 22D0     		beq	.L7
  81 0028 B9F12D0F 		cmp	r9, #45
  82 002c 1FD0     		beq	.L7
  83 002e 039C     		ldr	r4, [sp, #12]
  84              	.L11:
  85 0030 2378     		ldrb	r3, [r4]	@ zero_extendqisi2
  86              	.LVL5:
  87              	.L10:
  88              	.LBE7:
  89              	.LBE6:
  90              		.loc 1 255 0 discriminator 1
  91 0032 03A8     		add	r0, sp, #12
  92              	.LVL6:
  93              	.LBE5:
  94              		.loc 1 248 0 discriminator 1
  95 0034 0BB3     		cbz	r3, .L5
  96              	.LBB14:
  97              		.loc 1 255 0
  98 0036 FFF7FEFF 		bl	mf_getchar
  99              	.LVL7:
 100 003a 8146     		mov	r9, r0
 101              	.LVL8:
 102              		.loc 1 256 0
 103 003c 4946     		mov	r1, r9
 104 003e 3846     		mov	r0, r7
 105              	.LVL9:
 106 0040 FFF7FEFF 		bl	mf_character_width
 107              	.LVL10:
 108 0044 00EB0B02 		add	r2, r0, fp
 109              	.LBB11:
 110              	.LBB8:
 111              		.loc 1 15 0
 112 0048 29F00401 		bic	r1, r9, #4
 113              	.LBE8:
 114              	.LBE11:
ARM GAS  /tmp/cc3YqWb6.s 			page 3


 115              		.loc 1 256 0
 116 004c 1FFA82FB 		uxth	fp, r2
 117              	.LVL11:
 118              		.loc 1 258 0
 119 0050 B9F10A0F 		cmp	r9, #10
 120 0054 0AF10100 		add	r0, r10, #1
 121              	.LBB12:
 122              	.LBB9:
 123              		.loc 1 15 0
 124 0058 89B2     		uxth	r1, r1
 125              	.LBE9:
 126              	.LBE12:
 127              		.loc 1 265 0
 128 005a 0FFA8BFE 		sxth	lr, fp
 129              		.loc 1 258 0
 130 005e 0AD0     		beq	.L31
 131              		.loc 1 265 0
 132 0060 C645     		cmp	lr, r8
 133 0062 18DC     		bgt	.L32
 134              	.LBB13:
 135              	.LBB10:
 136              		.loc 1 15 0
 137 0064 B9F1200F 		cmp	r9, #32
 138 0068 1FFA80FA 		uxth	r10, r0
 139              	.LVL12:
 140 006c DAD1     		bne	.L33
 141              	.L7:
 142              	.LBE10:
 143              	.LBE13:
 144              		.loc 1 277 0
 145 006e 039D     		ldr	r5, [sp, #12]
 146              	.LVL13:
 147              		.loc 1 276 0
 148 0070 5646     		mov	r6, r10
 149              		.loc 1 277 0
 150 0072 2C46     		mov	r4, r5
 151 0074 DCE7     		b	.L11
 152              	.LVL14:
 153              	.L31:
 154              		.loc 1 261 0
 155 0076 039D     		ldr	r5, [sp, #12]
 156              		.loc 1 260 0
 157 0078 86B2     		uxth	r6, r0
 158              	.LVL15:
 159              	.L5:
 160              	.LBE14:
 161              		.loc 1 282 0
 162 007a 0EB9     		cbnz	r6, .L9
 163              	.LVL16:
 164              		.loc 1 285 0
 165 007c 039D     		ldr	r5, [sp, #12]
 166              	.LVL17:
 167 007e 5646     		mov	r6, r10
 168              	.LVL18:
 169              	.L9:
 170              		.loc 1 288 0
 171 0080 0198     		ldr	r0, [sp, #4]
ARM GAS  /tmp/cc3YqWb6.s 			page 4


 172 0082 0E9A     		ldr	r2, [sp, #56]
 173 0084 029B     		ldr	r3, [sp, #8]
 174 0086 B1B2     		uxth	r1, r6
 175 0088 9847     		blx	r3
 176              	.LVL19:
 177 008a 30B1     		cbz	r0, .L1
 178              	.LVL20:
 179              		.loc 1 292 0
 180 008c 0395     		str	r5, [sp, #12]
 181              	.LVL21:
 182              		.loc 1 243 0
 183 008e 2B78     		ldrb	r3, [r5]	@ zero_extendqisi2
 184 0090 1BB1     		cbz	r3, .L1
 185 0092 0195     		str	r5, [sp, #4]
 186 0094 C0E7     		b	.L3
 187              	.LVL22:
 188              	.L32:
 189              	.LBB15:
 190              		.loc 1 267 0
 191 0096 0394     		str	r4, [sp, #12]
 192              		.loc 1 268 0
 193 0098 EFE7     		b	.L5
 194              	.LVL23:
 195              	.L1:
 196              	.LBE15:
 197              		.loc 1 296 0
 198 009a 05B0     		add	sp, sp, #20
 199              		@ sp needed
 200 009c BDE8F08F 		pop	{r4, r5, r6, r7, r8, r9, r10, fp, pc}
 201              		.cfi_endproc
 202              	.LFE112:
 203              		.size	mf_wordwrap, .-mf_wordwrap
 204              		.text
 205              	.Letext0:
 206              		.file 2 "/opt/ARM/arm-none-eabi/include/machine/_default_types.h"
 207              		.file 3 "/opt/ARM/arm-none-eabi/include/stdint.h"
 208              		.file 4 "/home/makkmarci/devel/ugfx/src/gdisp/mcufont/mf_font.h"
 209              		.file 5 "/home/makkmarci/devel/ugfx/src/gdisp/mcufont/mf_encoding.h"
 210              		.file 6 "/home/makkmarci/devel/ugfx/src/gdisp/mcufont/mf_wordwrap.h"
 211              		.file 7 "../../os/ports/common/ARMCMx/CMSIS/include/core_cm4.h"