ARM GAS  /tmp/cctb2rpb.s 			page 1


   1              		.syntax unified
   2              		.cpu cortex-m4
   3              		.eabi_attribute 27, 3
   4              		.eabi_attribute 28, 1
   5              		.fpu fpv4-sp-d16
   6              		.eabi_attribute 20, 1
   7              		.eabi_attribute 21, 1
   8              		.eabi_attribute 23, 3
   9              		.eabi_attribute 24, 1
  10              		.eabi_attribute 25, 1
  11              		.eabi_attribute 26, 1
  12              		.eabi_attribute 30, 2
  13              		.eabi_attribute 34, 1
  14              		.eabi_attribute 18, 4
  15              		.thumb
  16              		.file	"mouse.c"
  17              		.text
  18              	.Ltext0:
  19              		.cfi_sections	.debug_frame
  20              		.section	.text.get_raw_reading.constprop.1,"ax",%progbits
  21              		.align	2
  22              		.p2align 4,,15
  23              		.thumb
  24              		.thumb_func
  25              		.type	get_raw_reading.constprop.1, %function
  26              	get_raw_reading.constprop.1:
  27              	.LFB131:
  28              		.file 1 "/home/makkmarci/devel/ugfx/src/ginput/mouse.c"
  29              		.loc 1 254 0
  30              		.cfi_startproc
  31              		@ args = 0, pretend = 0, frame = 0
  32              		@ frame_needed = 0, uses_anonymous_args = 0
  33              	.LVL0:
  34 0000 2DE9F843 		push	{r3, r4, r5, r6, r7, r8, r9, lr}
  35              		.cfi_def_cfa_offset 32
  36              		.cfi_offset 3, -32
  37              		.cfi_offset 4, -28
  38              		.cfi_offset 5, -24
  39              		.cfi_offset 6, -20
  40              		.cfi_offset 7, -16
  41              		.cfi_offset 8, -12
  42              		.cfi_offset 9, -8
  43              		.cfi_offset 14, -4
  44              		.loc 1 258 0
  45 0004 0024     		movs	r4, #0
  46 0006 154E     		ldr	r6, .L8
  47 0008 2746     		mov	r7, r4
  48 000a A046     		mov	r8, r4
  49              		.loc 1 254 0
  50 000c 0425     		movs	r5, #4
  51              	.LVL1:
  52              	.L3:
  53              		.loc 1 260 0
  54 000e DFF84C90 		ldr	r9, .L8
  55 0012 4846     		mov	r0, r9
  56 0014 FFF7FEFF 		bl	ginput_lld_mouse_get_reading
  57              	.LVL2:
ARM GAS  /tmp/cctb2rpb.s 			page 2


  58              		.loc 1 261 0
  59 0018 B6F90010 		ldrsh	r1, [r6]
  60              		.loc 1 262 0
  61 001c B6F90220 		ldrsh	r2, [r6, #2]
  62              		.loc 1 263 0
  63 0020 B6F90430 		ldrsh	r3, [r6, #4]
  64              		.loc 1 259 0
  65 0024 013D     		subs	r5, r5, #1
  66              	.LVL3:
  67              		.loc 1 261 0
  68 0026 8844     		add	r8, r8, r1
  69              	.LVL4:
  70              		.loc 1 262 0
  71 0028 1744     		add	r7, r7, r2
  72              	.LVL5:
  73              		.loc 1 263 0
  74 002a 1C44     		add	r4, r4, r3
  75              	.LVL6:
  76              		.loc 1 259 0
  77 002c EFD1     		bne	.L3
  78              		.loc 1 267 0
  79 002e B8F1000F 		cmp	r8, #0
  80 0032 B8BF     		it	lt
  81 0034 08F10308 		addlt	r8, r8, #3
  82              	.LVL7:
  83              		.loc 1 268 0
  84 0038 002F     		cmp	r7, #0
  85 003a 084B     		ldr	r3, .L8
  86 003c B8BF     		it	lt
  87 003e 0337     		addlt	r7, r7, #3
  88              	.LVL8:
  89 0040 BF10     		asrs	r7, r7, #2
  90              		.loc 1 269 0
  91 0042 002C     		cmp	r4, #0
  92              		.loc 1 268 0
  93 0044 5F80     		strh	r7, [r3, #2]	@ movhi
  94              		.loc 1 269 0
  95 0046 B8BF     		it	lt
  96 0048 0334     		addlt	r4, r4, #3
  97              	.LVL9:
  98 004a 044B     		ldr	r3, .L8
  99              		.loc 1 267 0
 100 004c 4FEAA808 		asr	r8, r8, #2
 101              		.loc 1 269 0
 102 0050 A410     		asrs	r4, r4, #2
 103              		.loc 1 267 0
 104 0052 A9F80080 		strh	r8, [r9]	@ movhi
 105              		.loc 1 269 0
 106 0056 9C80     		strh	r4, [r3, #4]	@ movhi
 107 0058 BDE8F883 		pop	{r3, r4, r5, r6, r7, r8, r9, pc}
 108              	.L9:
 109              		.align	2
 110              	.L8:
 111 005c 00000000 		.word	.LANCHOR0
 112              		.cfi_endproc
 113              	.LFE131:
 114              		.size	get_raw_reading.constprop.1, .-get_raw_reading.constprop.1
ARM GAS  /tmp/cctb2rpb.s 			page 3


 115              		.section	.text._tsOrientClip,"ax",%progbits
 116              		.align	2
 117              		.p2align 4,,15
 118              		.global	_tsOrientClip
 119              		.thumb
 120              		.thumb_func
 121              		.type	_tsOrientClip, %function
 122              	_tsOrientClip:
 123              	.LFB111:
 124              		.loc 1 79 0
 125              		.cfi_startproc
 126              		@ args = 0, pretend = 0, frame = 0
 127              		@ frame_needed = 0, uses_anonymous_args = 0
 128              		@ link register save eliminated.
 129              	.LVL10:
 130              		.loc 1 86 0
 131 0000 8B88     		ldrh	r3, [r1, #4]
 132 0002 B42B     		cmp	r3, #180
 133              		.loc 1 79 0
 134 0004 F0B4     		push	{r4, r5, r6, r7}
 135              		.cfi_def_cfa_offset 16
 136              		.cfi_offset 4, -16
 137              		.cfi_offset 5, -12
 138              		.cfi_offset 6, -8
 139              		.cfi_offset 7, -4
 140              		.loc 1 82 0
 141 0006 0C88     		ldrh	r4, [r1]
 142              	.LVL11:
 143              		.loc 1 83 0
 144 0008 4988     		ldrh	r1, [r1, #2]
 145              	.LVL12:
 146              		.loc 1 86 0
 147 000a 29D0     		beq	.L12
 148 000c B3F5877F 		cmp	r3, #270
 149 0010 1FD0     		beq	.L13
 150 0012 5A2B     		cmp	r3, #90
 151 0014 16D0     		beq	.L21
 152              	.L11:
 153              		.loc 1 112 0
 154 0016 9AB1     		cbz	r2, .L10
 155              		.loc 1 113 0
 156 0018 B0F90030 		ldrsh	r3, [r0]
 157 001c 002B     		cmp	r3, #0
 158 001e 28DB     		blt	.L22
 159              		.loc 1 114 0
 160 0020 22B2     		sxth	r2, r4
 161              	.LVL13:
 162 0022 9A42     		cmp	r2, r3
 163              		.loc 1 115 0
 164 0024 B0F90230 		ldrsh	r3, [r0, #2]
 165              		.loc 1 114 0
 166 0028 DCBF     		itt	le
 167 002a 04F1FF34 		addle	r4, r4, #-1
 168              	.LVL14:
 169 002e 0480     		strhle	r4, [r0]	@ movhi
 170              		.loc 1 115 0
 171 0030 002B     		cmp	r3, #0
ARM GAS  /tmp/cctb2rpb.s 			page 4


 172 0032 24DB     		blt	.L23
 173              	.L19:
 174              		.loc 1 116 0
 175 0034 0AB2     		sxth	r2, r1
 176 0036 9A42     		cmp	r2, r3
 177 0038 DCBF     		itt	le
 178 003a 01F1FF31 		addle	r1, r1, #-1
 179              	.LVL15:
 180 003e 4180     		strhle	r1, [r0, #2]	@ movhi
 181              	.L10:
 182              		.loc 1 118 0
 183 0040 F0BC     		pop	{r4, r5, r6, r7}
 184 0042 7047     		bx	lr
 185              	.LVL16:
 186              	.L21:
 187              	.LBB4:
 188              		.loc 1 91 0
 189 0044 0588     		ldrh	r5, [r0]
 190              	.LVL17:
 191              		.loc 1 92 0
 192 0046 4388     		ldrh	r3, [r0, #2]
 193              		.loc 1 93 0
 194 0048 4580     		strh	r5, [r0, #2]	@ movhi
 195              		.loc 1 92 0
 196 004a 651E     		subs	r5, r4, #1
 197 004c EB1A     		subs	r3, r5, r3
 198 004e 0380     		strh	r3, [r0]	@ movhi
 199              	.LVL18:
 200              	.LBE4:
 201              		.loc 1 95 0
 202 0050 E1E7     		b	.L11
 203              	.L13:
 204              	.LBB5:
 205              		.loc 1 102 0
 206 0052 4588     		ldrh	r5, [r0, #2]
 207              	.LVL19:
 208              		.loc 1 103 0
 209 0054 0388     		ldrh	r3, [r0]
 210              		.loc 1 104 0
 211 0056 0580     		strh	r5, [r0]	@ movhi
 212              		.loc 1 103 0
 213 0058 4D1E     		subs	r5, r1, #1
 214 005a EB1A     		subs	r3, r5, r3
 215 005c 4380     		strh	r3, [r0, #2]	@ movhi
 216              	.LVL20:
 217              	.LBE5:
 218              		.loc 1 106 0
 219 005e DAE7     		b	.L11
 220              	.L12:
 221              		.loc 1 97 0
 222 0060 0788     		ldrh	r7, [r0]
 223              		.loc 1 98 0
 224 0062 4688     		ldrh	r6, [r0, #2]
 225              		.loc 1 97 0
 226 0064 651E     		subs	r5, r4, #1
 227              		.loc 1 98 0
 228 0066 4B1E     		subs	r3, r1, #1
ARM GAS  /tmp/cctb2rpb.s 			page 5


 229              		.loc 1 97 0
 230 0068 ED1B     		subs	r5, r5, r7
 231              		.loc 1 98 0
 232 006a 9B1B     		subs	r3, r3, r6
 233              		.loc 1 97 0
 234 006c 0580     		strh	r5, [r0]	@ movhi
 235              		.loc 1 98 0
 236 006e 4380     		strh	r3, [r0, #2]	@ movhi
 237              		.loc 1 99 0
 238 0070 D1E7     		b	.L11
 239              	.L22:
 240              		.loc 1 113 0 discriminator 1
 241 0072 0023     		movs	r3, #0
 242 0074 0380     		strh	r3, [r0]	@ movhi
 243              		.loc 1 115 0 discriminator 1
 244 0076 B0F90230 		ldrsh	r3, [r0, #2]
 245 007a 002B     		cmp	r3, #0
 246 007c DADA     		bge	.L19
 247              	.LVL21:
 248              	.L23:
 249 007e 0023     		movs	r3, #0
 250 0080 4380     		strh	r3, [r0, #2]	@ movhi
 251              		.loc 1 118 0 discriminator 1
 252 0082 F0BC     		pop	{r4, r5, r6, r7}
 253 0084 7047     		bx	lr
 254              		.cfi_endproc
 255              	.LFE111:
 256              		.size	_tsOrientClip, .-_tsOrientClip
 257 0086 00BFAFF3 		.section	.text.get_calibrated_reading.constprop.0,"ax",%progbits
 257      0080AFF3 
 257      0080
 258              		.align	2
 259              		.p2align 4,,15
 260              		.thumb
 261              		.thumb_func
 262              		.type	get_calibrated_reading.constprop.0, %function
 263              	get_calibrated_reading.constprop.0:
 264              	.LFB132:
 265              		.loc 1 275 0
 266              		.cfi_startproc
 267              		@ args = 0, pretend = 0, frame = 0
 268              		@ frame_needed = 0, uses_anonymous_args = 0
 269              	.LVL22:
 270 0000 38B5     		push	{r3, r4, r5, lr}
 271              		.cfi_def_cfa_offset 16
 272              		.cfi_offset 3, -16
 273              		.cfi_offset 4, -12
 274              		.cfi_offset 5, -8
 275              		.cfi_offset 14, -4
 276              		.loc 1 276 0
 277 0002 FFF7FEFF 		bl	get_raw_reading.constprop.1
 278              	.LVL23:
 279              	.LBB8:
 280              	.LBB9:
 281              		.loc 1 154 0
 282 0006 204B     		ldr	r3, .L25
 283 0008 B3F90220 		ldrsh	r2, [r3, #2]
ARM GAS  /tmp/cctb2rpb.s 			page 6


 284 000c B3F90050 		ldrsh	r5, [r3]
 285 0010 93ED097A 		flds	s14, [r3, #36]
 286 0014 93ED084A 		flds	s8, [r3, #32]
 287 0018 93ED0A5A 		flds	s10, [r3, #40]
 288              		.loc 1 155 0
 289 001c D3ED0C3A 		flds	s7, [r3, #48]
 290 0020 D3ED0B5A 		flds	s11, [r3, #44]
 291 0024 93ED0D6A 		flds	s12, [r3, #52]
 292              	.LBE9:
 293              	.LBE8:
 294              		.loc 1 282 0
 295 0028 996B     		ldr	r1, [r3, #56]
 296              	.LBB14:
 297              	.LBB10:
 298              		.loc 1 154 0
 299 002a 06EE902A 		fmsr	s13, r2	@ int
 300 002e 04EE905A 		fmsr	s9, r5	@ int
 301 0032 F8EEE66A 		fsitos	s13, s13
 302 0036 F8EEE44A 		fsitos	s9, s9
 303 003a 26EE877A 		fmuls	s14, s13, s14
 304              		.loc 1 155 0
 305 003e 66EEA37A 		fmuls	s15, s13, s7
 306              		.loc 1 154 0
 307 0042 A4EE247A 		vfma.f32	s14, s8, s9
 308              	.LBE10:
 309              	.LBE14:
 310              		.loc 1 282 0
 311 0046 DA8A     		ldrh	r2, [r3, #22]
 312 0048 82F48072 		eor	r2, r2, #256
 313              	.LBB15:
 314              	.LBB11:
 315              		.loc 1 154 0
 316 004c 37EE057A 		fadds	s14, s14, s10
 317              	.LBE11:
 318              	.LBE15:
 319              		.loc 1 282 0
 320 0050 1846     		mov	r0, r3
 321              	.LBB16:
 322              	.LBB12:
 323              		.loc 1 154 0
 324 0052 BDEEC77A 		ftosizs	s14, s14
 325              	.LBE12:
 326              	.LBE16:
 327              		.loc 1 282 0
 328 0056 C2F30022 		ubfx	r2, r2, #8, #1
 329              	.LBB17:
 330              	.LBB13:
 331              		.loc 1 154 0
 332 005a 17EE104A 		fmrs	r4, s14	@ int
 333 005e A4B2     		uxth	r4, r4
 334              		.loc 1 155 0
 335 0060 25B2     		sxth	r5, r4
 336 0062 07EE105A 		fmsr	s14, r5	@ int
 337 0066 B8EEC77A 		fsitos	s14, s14
 338              		.loc 1 154 0
 339 006a 1C80     		strh	r4, [r3]	@ movhi
 340              		.loc 1 155 0
ARM GAS  /tmp/cctb2rpb.s 			page 7


 341 006c E5EE877A 		vfma.f32	s15, s11, s14
 342 0070 77EE867A 		fadds	s15, s15, s12
 343 0074 FDEEE77A 		ftosizs	s15, s15
 344 0078 17EE904A 		fmrs	r4, s15	@ int
 345 007c 5C80     		strh	r4, [r3, #2]	@ movhi
 346              	.LBE13:
 347              	.LBE17:
 348              		.loc 1 283 0
 349 007e BDE83840 		pop	{r3, r4, r5, lr}
 350              		.loc 1 282 0
 351 0082 FFF7FEBF 		b	_tsOrientClip
 352              	.LVL24:
 353              	.L26:
 354 0086 00BF     		.align	2
 355              	.L25:
 356 0088 00000000 		.word	.LANCHOR0
 357              		.cfi_endproc
 358              	.LFE132:
 359              		.size	get_calibrated_reading.constprop.0, .-get_calibrated_reading.constprop.0
 360 008c AFF30080 		.section	.text.MousePoll,"ax",%progbits
 361              		.align	2
 362              		.p2align 4,,15
 363              		.thumb
 364              		.thumb_func
 365              		.type	MousePoll, %function
 366              	MousePoll:
 367              	.LFB119:
 368              		.loc 1 285 0
 369              		.cfi_startproc
 370              		@ args = 0, pretend = 0, frame = 0
 371              		@ frame_needed = 0, uses_anonymous_args = 0
 372              	.LVL25:
 373 0000 2DE9F84F 		push	{r3, r4, r5, r6, r7, r8, r9, r10, fp, lr}
 374              		.cfi_def_cfa_offset 40
 375              		.cfi_offset 3, -40
 376              		.cfi_offset 4, -36
 377              		.cfi_offset 5, -32
 378              		.cfi_offset 6, -28
 379              		.cfi_offset 7, -24
 380              		.cfi_offset 8, -20
 381              		.cfi_offset 9, -16
 382              		.cfi_offset 10, -12
 383              		.cfi_offset 11, -8
 384              		.cfi_offset 14, -4
 385              		.loc 1 295 0
 386 0004 674D     		ldr	r5, .L78
 387 0006 EB88     		ldrh	r3, [r5, #6]
 388 0008 AB82     		strh	r3, [r5, #20]	@ movhi
 389              		.loc 1 298 0
 390 000a FFF7FEFF 		bl	get_calibrated_reading.constprop.0
 391              	.LVL26:
 392              		.loc 1 301 0
 393 000e EA88     		ldrh	r2, [r5, #6]
 394 0010 AE8A     		ldrh	r6, [r5, #20]
 395              		.loc 1 302 0
 396 0012 26EA0203 		bic	r3, r6, r2
 397              		.loc 1 307 0
ARM GAS  /tmp/cctb2rpb.s 			page 8


 398 0016 13F0010C 		ands	ip, r3, #1
 399              		.loc 1 301 0
 400 001a 22EA0602 		bic	r2, r2, r6
 401              	.LVL27:
 402              		.loc 1 307 0
 403 001e 40F09F80 		bne	.L28
 404 0022 6988     		ldrh	r1, [r5, #2]
 405 0024 B5F90A40 		ldrsh	r4, [r5, #10]
 406 0028 2888     		ldrh	r0, [r5]
 407 002a B5F90880 		ldrsh	r8, [r5, #8]
 408 002e 0FFA81FE 		sxth	lr, r1
 409 0032 C4EB0E04 		rsb	r4, r4, lr
 410 0036 07B2     		sxth	r7, r0
 411 0038 04FB04F4 		mul	r4, r4, r4
 412 003c C8EB0708 		rsb	r8, r8, r7
 413 0040 08FB0848 		mla	r8, r8, r8, r4
 414              	.LVL28:
 415              		.loc 1 315 0
 416 0044 B8F1040F 		cmp	r8, #4
 417 0048 01D9     		bls	.L30
 418              		.loc 1 316 0
 419 004a 2881     		strh	r0, [r5, #8]	@ movhi
 420              		.loc 1 317 0
 421 004c 6981     		strh	r1, [r5, #10]	@ movhi
 422              	.LVL29:
 423              	.L30:
 424              		.loc 1 321 0
 425 004e EE8A     		ldrh	r6, [r5, #22]
 426 0050 544C     		ldr	r4, .L78
 427 0052 16F0010F 		tst	r6, #1
 428 0056 10D0     		beq	.L31
 429              		.loc 1 323 0
 430 0058 B4F90EA0 		ldrsh	r10, [r4, #14]
 431              		.loc 1 322 0
 432 005c B4F90C90 		ldrsh	r9, [r4, #12]
 433              		.loc 1 323 0
 434 0060 CAEB0E0E 		rsb	lr, r10, lr
 435 0064 0EFB0EFE 		mul	lr, lr, lr
 436              		.loc 1 322 0
 437 0068 C9EB0707 		rsb	r7, r9, r7
 438              	.LVL30:
 439 006c 07FB07E7 		mla	r7, r7, r7, lr
 440              		.loc 1 324 0
 441 0070 642F     		cmp	r7, #100
 442              		.loc 1 325 0
 443 0072 84BF     		itt	hi
 444 0074 26F00106 		bichi	r6, r6, #1
 445 0078 E682     		strhhi	r6, [r4, #22]	@ movhi
 446              	.L31:
 447              		.loc 1 329 0
 448 007a 12F00306 		ands	r6, r2, #3
 449 007e 0AD0     		beq	.L32
 450              		.loc 1 333 0
 451 0080 EE8A     		ldrh	r6, [r5, #22]
 452              		.loc 1 332 0
 453 0082 494C     		ldr	r4, .L78+4
 454              		.loc 1 330 0
ARM GAS  /tmp/cctb2rpb.s 			page 9


 455 0084 A881     		strh	r0, [r5, #12]	@ movhi
 456              		.loc 1 332 0
 457 0086 E468     		ldr	r4, [r4, #12]
 458              		.loc 1 331 0
 459 0088 E981     		strh	r1, [r5, #14]	@ movhi
 460              		.loc 1 333 0
 461 008a 46F00100 		orr	r0, r6, #1
 462              		.loc 1 332 0
 463 008e 2C61     		str	r4, [r5, #16]
 464              		.loc 1 303 0
 465 0090 02F00106 		and	r6, r2, #1
 466              		.loc 1 333 0
 467 0094 E882     		strh	r0, [r5, #22]	@ movhi
 468              	.L32:
 469              	.LVL31:
 470              		.loc 1 339 0
 471 0096 9C07     		lsls	r4, r3, #30
 472 0098 0BD0     		beq	.L33
 473              		.loc 1 342 0
 474 009a EB8A     		ldrh	r3, [r5, #22]
 475              	.LVL32:
 476              		.loc 1 340 0
 477 009c BCF1000F 		cmp	ip, #0
 478 00a0 68D1     		bne	.L74
 479              		.loc 1 342 0
 480 00a2 DA07     		lsls	r2, r3, #31
 481              	.LVL33:
 482 00a4 05D5     		bpl	.L33
 483 00a6 3246     		mov	r2, r6
 484              	.LVL34:
 485              	.L35:
 486              		.loc 1 351 0
 487 00a8 23F00103 		bic	r3, r3, #1
 488              		.loc 1 350 0
 489 00ac 42F00806 		orr	r6, r2, #8
 490              	.LVL35:
 491              		.loc 1 351 0
 492 00b0 EB82     		strh	r3, [r5, #22]	@ movhi
 493              	.L33:
 494              	.LVL36:
 495              		.loc 1 356 0
 496 00b2 0024     		movs	r4, #0
 497              		.loc 1 357 0
 498 00b4 3B4F     		ldr	r7, .L78
 499              		.loc 1 374 0
 500 00b6 A146     		mov	r9, r4
 501              		.loc 1 373 0
 502 00b8 40F2011A 		movw	r10, #257
 503              	.LVL37:
 504              	.L37:
 505              		.loc 1 357 0 discriminator 1
 506 00bc 2146     		mov	r1, r4
 507 00be 3948     		ldr	r0, .L78
 508 00c0 FFF7FEFF 		bl	geventGetSourceListener
 509              	.LVL38:
 510 00c4 0446     		mov	r4, r0
 511 00c6 0028     		cmp	r0, #0
ARM GAS  /tmp/cctb2rpb.s 			page 10


 512 00c8 48D0     		beq	.L75
 513              		.loc 1 358 0
 514 00ca FFF7FEFF 		bl	geventGetEventBuffer
 515              	.LVL39:
 516 00ce 0028     		cmp	r0, #0
 517 00d0 40D0     		beq	.L76
 518              		.loc 1 365 0
 519 00d2 B8F1040F 		cmp	r8, #4
 520 00d6 3AD8     		bhi	.L73
 521              		.loc 1 365 0 is_stmt 0 discriminator 1
 522 00d8 E368     		ldr	r3, [r4, #12]
 523 00da 002B     		cmp	r3, #0
 524 00dc 37D1     		bne	.L73
 525              		.loc 1 366 0 is_stmt 1
 526 00de 002E     		cmp	r6, #0
 527 00e0 35D1     		bne	.L73
 528              		.loc 1 366 0 is_stmt 0 discriminator 1
 529 00e2 BA8A     		ldrh	r2, [r7, #20]
 530 00e4 FB88     		ldrh	r3, [r7, #6]
 531 00e6 9A42     		cmp	r2, r3
 532 00e8 A268     		ldr	r2, [r4, #8]
 533 00ea 55D0     		beq	.L44
 534              	.L41:
 535              		.loc 1 370 0 is_stmt 1
 536 00ec D907     		lsls	r1, r3, #31
 537 00ee 27D4     		bmi	.L77
 538              		.loc 1 371 0 discriminator 1
 539 00f0 5107     		lsls	r1, r2, #29
 540 00f2 27D5     		bpl	.L47
 541              	.L46:
 542              		.loc 1 381 0
 543 00f4 E268     		ldr	r2, [r4, #12]
 544              		.loc 1 375 0
 545 00f6 2988     		ldrh	r1, [r5]
 546              		.loc 1 379 0
 547 00f8 B5F814E0 		ldrh	lr, [r5, #20]
 548              		.loc 1 377 0
 549 00fc B5F804C0 		ldrh	ip, [r5, #4]
 550              		.loc 1 376 0
 551 0100 B5F802B0 		ldrh	fp, [r5, #2]
 552              		.loc 1 375 0
 553 0104 8180     		strh	r1, [r0, #4]	@ movhi
 554              		.loc 1 380 0
 555 0106 F1B2     		uxtb	r1, r6
 556              		.loc 1 373 0
 557 0108 A0F800A0 		strh	r10, [r0]	@ movhi
 558              		.loc 1 374 0
 559 010c A0F80290 		strh	r9, [r0, #2]	@ movhi
 560              		.loc 1 378 0
 561 0110 4381     		strh	r3, [r0, #10]	@ movhi
 562              		.loc 1 376 0
 563 0112 A0F806B0 		strh	fp, [r0, #6]	@ movhi
 564              		.loc 1 377 0
 565 0116 A0F808C0 		strh	ip, [r0, #8]	@ movhi
 566              		.loc 1 379 0
 567 011a A0F80CE0 		strh	lr, [r0, #12]	@ movhi
 568              		.loc 1 380 0
ARM GAS  /tmp/cctb2rpb.s 			page 11


 569 011e 8173     		strb	r1, [r0, #14]
 570              		.loc 1 381 0
 571 0120 42B1     		cbz	r2, .L48
 572              		.loc 1 382 0
 573 0122 6FEA4343 		mvn	r3, r3, lsl #17
 574 0126 6FEA5343 		mvn	r3, r3, lsr #17
 575              		.loc 1 383 0
 576 012a 0A43     		orrs	r2, r2, r1
 577              		.loc 1 382 0
 578 012c 4381     		strh	r3, [r0, #10]	@ movhi
 579              		.loc 1 383 0
 580 012e 8273     		strb	r2, [r0, #14]
 581              		.loc 1 384 0
 582 0130 C4F80C90 		str	r9, [r4, #12]
 583              	.L48:
 584              		.loc 1 386 0
 585 0134 AB6B     		ldr	r3, [r5, #56]
 586 0136 0361     		str	r3, [r0, #16]
 587              		.loc 1 387 0
 588 0138 2046     		mov	r0, r4
 589              	.LVL40:
 590 013a FFF7FEFF 		bl	geventSendEvent
 591              	.LVL41:
 592 013e BDE7     		b	.L37
 593              	.LVL42:
 594              	.L77:
 595              		.loc 1 370 0 discriminator 1
 596 0140 9107     		lsls	r1, r2, #30
 597 0142 D7D4     		bmi	.L46
 598              	.L47:
 599              		.loc 1 372 0
 600 0144 002E     		cmp	r6, #0
 601 0146 B9D0     		beq	.L37
 602              		.loc 1 372 0 is_stmt 0 discriminator 1
 603 0148 D107     		lsls	r1, r2, #31
 604 014a B7D5     		bpl	.L37
 605 014c D2E7     		b	.L46
 606              	.L73:
 607 014e A268     		ldr	r2, [r4, #8]
 608 0150 FB88     		ldrh	r3, [r7, #6]
 609 0152 CBE7     		b	.L41
 610              	.L76:
 611              		.loc 1 360 0 is_stmt 1
 612 0154 E368     		ldr	r3, [r4, #12]
 613 0156 3343     		orrs	r3, r3, r6
 614 0158 E360     		str	r3, [r4, #12]
 615              		.loc 1 361 0
 616 015a AFE7     		b	.L37
 617              	.LVL43:
 618              	.L75:
 619 015c BDE8F88F 		pop	{r3, r4, r5, r6, r7, r8, r9, r10, fp, pc}
 620              	.LVL44:
 621              	.L28:
 622              		.loc 1 308 0
 623 0160 2889     		ldrh	r0, [r5, #8]
 624              		.loc 1 309 0
 625 0162 6989     		ldrh	r1, [r5, #10]
ARM GAS  /tmp/cctb2rpb.s 			page 12


 626              		.loc 1 308 0
 627 0164 2880     		strh	r0, [r5]	@ movhi
 628 0166 07B2     		sxth	r7, r0
 629              		.loc 1 309 0
 630 0168 6980     		strh	r1, [r5, #2]	@ movhi
 631 016a 0FFA81FE 		sxth	lr, r1
 632              	.LVL45:
 633 016e 4FF00008 		mov	r8, #0
 634 0172 6CE7     		b	.L30
 635              	.LVL46:
 636              	.L74:
 637              		.loc 1 342 0
 638 0174 D807     		lsls	r0, r3, #31
 639 0176 0B49     		ldr	r1, .L78
 640              		.loc 1 341 0
 641 0178 46F00202 		orr	r2, r6, #2
 642              	.LVL47:
 643              		.loc 1 342 0
 644 017c 0FD5     		bpl	.L51
 645              		.loc 1 345 0
 646 017e 0A48     		ldr	r0, .L78+4
 647 0180 0969     		ldr	r1, [r1, #16]
 648 0182 C068     		ldr	r0, [r0, #12]
 649 0184 411A     		subs	r1, r0, r1
 650 0186 B1F5FA7F 		cmp	r1, #500
 651 018a 8DD2     		bcs	.L35
 652              		.loc 1 351 0
 653 018c 23F00103 		bic	r3, r3, #1
 654              		.loc 1 348 0
 655 0190 46F00606 		orr	r6, r6, #6
 656              	.LVL48:
 657              		.loc 1 351 0
 658 0194 EB82     		strh	r3, [r5, #22]	@ movhi
 659 0196 8CE7     		b	.L33
 660              	.LVL49:
 661              	.L44:
 662              		.loc 1 366 0 discriminator 1
 663 0198 1107     		lsls	r1, r2, #28
 664 019a 8FD5     		bpl	.L37
 665 019c A6E7     		b	.L41
 666              	.LVL50:
 667              	.L51:
 668              		.loc 1 341 0
 669 019e 1646     		mov	r6, r2
 670 01a0 87E7     		b	.L33
 671              	.L79:
 672 01a2 00BF     		.align	2
 673              	.L78:
 674 01a4 00000000 		.word	.LANCHOR0
 675 01a8 00000000 		.word	vtlist
 676              		.cfi_endproc
 677              	.LFE119:
 678              		.size	MousePoll, .-MousePoll
 679 01ac AFF30080 		.section	.text.ginputSetMouseDisplay,"ax",%progbits
 680              		.align	2
 681              		.p2align 4,,15
 682              		.global	ginputSetMouseDisplay
ARM GAS  /tmp/cctb2rpb.s 			page 13


 683              		.thumb
 684              		.thumb_func
 685              		.type	ginputSetMouseDisplay, %function
 686              	ginputSetMouseDisplay:
 687              	.LFB121:
 688              		.loc 1 445 0
 689              		.cfi_startproc
 690              		@ args = 0, pretend = 0, frame = 0
 691              		@ frame_needed = 0, uses_anonymous_args = 0
 692              		@ link register save eliminated.
 693              	.LVL51:
 694              		.loc 1 446 0
 695 0000 10B9     		cbnz	r0, .L80
 696              		.loc 1 449 0
 697 0002 11B1     		cbz	r1, .L84
 698              	.LVL52:
 699              	.L82:
 700              		.loc 1 449 0 is_stmt 0 discriminator 3
 701 0004 024B     		ldr	r3, .L85
 702 0006 9963     		str	r1, [r3, #56]
 703              	.L80:
 704 0008 7047     		bx	lr
 705              	.LVL53:
 706              	.L84:
 707              		.loc 1 449 0 discriminator 2
 708 000a 024B     		ldr	r3, .L85+4
 709 000c 1968     		ldr	r1, [r3]
 710              	.LVL54:
 711 000e F9E7     		b	.L82
 712              	.L86:
 713              		.align	2
 714              	.L85:
 715 0010 00000000 		.word	.LANCHOR0
 716 0014 00000000 		.word	GDISP
 717              		.cfi_endproc
 718              	.LFE121:
 719              		.size	ginputSetMouseDisplay, .-ginputSetMouseDisplay
 720 0018 AFF30080 		.section	.text.ginputGetMouseDisplay,"ax",%progbits
 720      AFF30080 
 721              		.align	2
 722              		.p2align 4,,15
 723              		.global	ginputGetMouseDisplay
 724              		.thumb
 725              		.thumb_func
 726              		.type	ginputGetMouseDisplay, %function
 727              	ginputGetMouseDisplay:
 728              	.LFB122:
 729              		.loc 1 452 0 is_stmt 1
 730              		.cfi_startproc
 731              		@ args = 0, pretend = 0, frame = 0
 732              		@ frame_needed = 0, uses_anonymous_args = 0
 733              		@ link register save eliminated.
 734              	.LVL55:
 735              		.loc 1 453 0
 736 0000 10B9     		cbnz	r0, .L89
 737              		.loc 1 456 0
 738 0002 024B     		ldr	r3, .L90
ARM GAS  /tmp/cctb2rpb.s 			page 14


 739 0004 986B     		ldr	r0, [r3, #56]
 740              	.LVL56:
 741 0006 7047     		bx	lr
 742              	.LVL57:
 743              	.L89:
 744              		.loc 1 454 0
 745 0008 0020     		movs	r0, #0
 746              	.LVL58:
 747              		.loc 1 457 0
 748 000a 7047     		bx	lr
 749              	.L91:
 750              		.align	2
 751              	.L90:
 752 000c 00000000 		.word	.LANCHOR0
 753              		.cfi_endproc
 754              	.LFE122:
 755              		.size	ginputGetMouseDisplay, .-ginputGetMouseDisplay
 756              		.section	.text.ginputGetMouseStatus,"ax",%progbits
 757              		.align	2
 758              		.p2align 4,,15
 759              		.global	ginputGetMouseStatus
 760              		.thumb
 761              		.thumb_func
 762              		.type	ginputGetMouseStatus, %function
 763              	ginputGetMouseStatus:
 764              	.LFB123:
 765              		.loc 1 459 0
 766              		.cfi_startproc
 767              		@ args = 0, pretend = 0, frame = 0
 768              		@ frame_needed = 0, uses_anonymous_args = 0
 769              	.LVL59:
 770 0000 F8B5     		push	{r3, r4, r5, r6, r7, lr}
 771              		.cfi_def_cfa_offset 24
 772              		.cfi_offset 3, -24
 773              		.cfi_offset 4, -20
 774              		.cfi_offset 5, -16
 775              		.cfi_offset 6, -12
 776              		.cfi_offset 7, -8
 777              		.cfi_offset 14, -4
 778              		.loc 1 459 0
 779 0002 0546     		mov	r5, r0
 780              		.loc 1 462 0
 781 0004 0120     		movs	r0, #1
 782              	.LVL60:
 783              		.loc 1 459 0
 784 0006 0C46     		mov	r4, r1
 785              		.loc 1 462 0
 786 0008 FFF7FEFF 		bl	gfxSleepMilliseconds
 787              	.LVL61:
 788              		.loc 1 464 0
 789 000c 4DB9     		cbnz	r5, .L96
 790              		.loc 1 464 0 is_stmt 0 discriminator 1
 791 000e 154A     		ldr	r2, .L100
 792 0010 D38A     		ldrh	r3, [r2, #22]
 793 0012 23F4FF43 		bic	r3, r3, #32640
 794 0016 23F06F03 		bic	r3, r3, #111
 795 001a 9BB2     		uxth	r3, r3
ARM GAS  /tmp/cctb2rpb.s 			page 15


 796 001c B3F5004F 		cmp	r3, #32768
 797 0020 01D0     		beq	.L98
 798              	.L96:
 799              		.loc 1 465 0 is_stmt 1
 800 0022 0020     		movs	r0, #0
 801 0024 F8BD     		pop	{r3, r4, r5, r6, r7, pc}
 802              	.LVL62:
 803              	.L98:
 804              		.loc 1 472 0
 805 0026 D388     		ldrh	r3, [r2, #6]
 806              		.loc 1 473 0
 807 0028 918A     		ldrh	r1, [r2, #20]
 808              		.loc 1 471 0
 809 002a 9088     		ldrh	r0, [r2, #4]
 810              		.loc 1 470 0
 811 002c 5688     		ldrh	r6, [r2, #2]
 812              		.loc 1 469 0
 813 002e 1788     		ldrh	r7, [r2]
 814              		.loc 1 468 0
 815 0030 6580     		strh	r5, [r4, #2]	@ movhi
 816              		.loc 1 474 0
 817 0032 03F00102 		and	r2, r3, #1
 818              		.loc 1 467 0
 819 0036 40F20115 		movw	r5, #257
 820              		.loc 1 474 0
 821 003a 8A43     		bics	r2, r2, r1
 822              		.loc 1 472 0
 823 003c 6381     		strh	r3, [r4, #10]	@ movhi
 824              		.loc 1 473 0
 825 003e A181     		strh	r1, [r4, #12]	@ movhi
 826              		.loc 1 467 0
 827 0040 2580     		strh	r5, [r4]	@ movhi
 828              		.loc 1 469 0
 829 0042 A780     		strh	r7, [r4, #4]	@ movhi
 830              		.loc 1 470 0
 831 0044 E680     		strh	r6, [r4, #6]	@ movhi
 832              		.loc 1 471 0
 833 0046 2081     		strh	r0, [r4, #8]	@ movhi
 834              		.loc 1 474 0
 835 0048 08D1     		bne	.L99
 836              		.loc 1 476 0
 837 004a 01F00101 		and	r1, r1, #1
 838 004e 9943     		bics	r1, r1, r3
 839              		.loc 1 477 0
 840 0050 1ABF     		itte	ne
 841 0052 0223     		movne	r3, #2
 842 0054 A373     		strbne	r3, [r4, #14]
 843              		.loc 1 479 0
 844 0056 A173     		strbeq	r1, [r4, #14]
 845              		.loc 1 480 0
 846 0058 0120     		movs	r0, #1
 847 005a F8BD     		pop	{r3, r4, r5, r6, r7, pc}
 848              	.LVL63:
 849              	.L99:
 850              		.loc 1 475 0
 851 005c 0120     		movs	r0, #1
 852 005e A073     		strb	r0, [r4, #14]
ARM GAS  /tmp/cctb2rpb.s 			page 16


 853 0060 F8BD     		pop	{r3, r4, r5, r6, r7, pc}
 854              	.LVL64:
 855              	.L101:
 856 0062 00BF     		.align	2
 857              	.L100:
 858 0064 00000000 		.word	.LANCHOR0
 859              		.cfi_endproc
 860              	.LFE123:
 861              		.size	ginputGetMouseStatus, .-ginputGetMouseStatus
 862 0068 AFF30080 		.section	.text.ginputCalibrateMouse,"ax",%progbits
 862      AFF30080 
 863              		.align	2
 864              		.p2align 4,,15
 865              		.global	ginputCalibrateMouse
 866              		.thumb
 867              		.thumb_func
 868              		.type	ginputCalibrateMouse, %function
 869              	ginputCalibrateMouse:
 870              	.LFB124:
 871              		.loc 1 483 0
 872              		.cfi_startproc
 873              		@ args = 0, pretend = 0, frame = 72
 874              		@ frame_needed = 0, uses_anonymous_args = 0
 875              	.LVL65:
 876 0000 2DE9F04F 		push	{r4, r5, r6, r7, r8, r9, r10, fp, lr}
 877              		.cfi_def_cfa_offset 36
 878              		.cfi_offset 4, -36
 879              		.cfi_offset 5, -32
 880              		.cfi_offset 6, -28
 881              		.cfi_offset 7, -24
 882              		.cfi_offset 8, -20
 883              		.cfi_offset 9, -16
 884              		.cfi_offset 10, -12
 885              		.cfi_offset 11, -8
 886              		.cfi_offset 14, -4
 887              		.loc 1 490 0
 888 0004 DFF840B3 		ldr	fp, .L150
 889 0008 DBF83830 		ldr	r3, [fp, #56]
 890              		.loc 1 491 0
 891 000c 1A88     		ldrh	r2, [r3]
 892              		.loc 1 490 0
 893 000e 5B88     		ldrh	r3, [r3, #2]
 894              	.LVL66:
 895              		.loc 1 483 0
 896 0010 99B0     		sub	sp, sp, #100
 897              		.cfi_def_cfa_offset 136
 898              		.loc 1 498 0
 899 0012 14B2     		sxth	r4, r2
 900 0014 0B94     		str	r4, [sp, #44]
 901 0016 1DB2     		sxth	r5, r3
 902 0018 0B99     		ldr	r1, [sp, #44]
 903 001a 002C     		cmp	r4, #0
 904 001c 2746     		mov	r7, r4
 905 001e B8BF     		it	lt
 906 0020 E71C     		addlt	r7, r4, #3
 907 0022 002D     		cmp	r5, #0
 908 0024 A846     		mov	r8, r5
ARM GAS  /tmp/cctb2rpb.s 			page 17


 909 0026 B8BF     		it	lt
 910 0028 05F10308 		addlt	r8, r5, #3
 911 002c 0029     		cmp	r1, #0
 912 002e B8BF     		it	lt
 913 0030 0331     		addlt	r1, r1, #3
 914 0032 A2EBA102 		sub	r2, r2, r1, asr #2
 915 0036 0B9C     		ldr	r4, [sp, #44]
 916 0038 92B2     		uxth	r2, r2
 917 003a 002D     		cmp	r5, #0
 918              		.loc 1 483 0
 919 003c 0646     		mov	r6, r0
 920              		.loc 1 498 0
 921 003e ADF84420 		strh	r2, [sp, #68]	@ movhi
 922 0042 04EBD470 		add	r0, r4, r4, lsr #31
 923              	.LVL67:
 924 0046 ADF84820 		strh	r2, [sp, #72]	@ movhi
 925 004a 2A46     		mov	r2, r5
 926 004c B8BF     		it	lt
 927 004e EA1C     		addlt	r2, r5, #3
 928 0050 A3EBA203 		sub	r3, r3, r2, asr #2
 929 0054 C0F34F02 		ubfx	r2, r0, #1, #16
 930 0058 0C92     		str	r2, [sp, #48]
 931 005a 05EBD571 		add	r1, r5, r5, lsr #31
 932 005e C8F38F08 		ubfx	r8, r8, #2, #16
 933 0062 C1F34F02 		ubfx	r2, r1, #1, #16
 934 0066 C7F38F07 		ubfx	r7, r7, #2, #16
 935 006a 0C9C     		ldr	r4, [sp, #48]
 936 006c ADF84070 		strh	r7, [sp, #64]	@ movhi
 937 0070 ADF84280 		strh	r8, [sp, #66]	@ movhi
 938 0074 ADF84680 		strh	r8, [sp, #70]	@ movhi
 939 0078 0D92     		str	r2, [sp, #52]
 940 007a ADF84A30 		strh	r3, [sp, #74]	@ movhi
 941 007e ADF84C40 		strh	r4, [sp, #76]	@ movhi
 942 0082 ADF84E20 		strh	r2, [sp, #78]	@ movhi
 943              		.loc 1 513 0
 944 0086 26B9     		cbnz	r6, .L131
 945              		.loc 1 513 0 is_stmt 0 discriminator 1
 946 0088 BBF81630 		ldrh	r3, [fp, #22]
 947 008c AE4C     		ldr	r4, .L150
 948 008e D906     		lsls	r1, r3, #27
 949 0090 03D5     		bpl	.L144
 950              	.L131:
 951              		.loc 1 514 0 is_stmt 1
 952 0092 0020     		movs	r0, #0
 953              		.loc 1 620 0
 954 0094 19B0     		add	sp, sp, #100
 955              		@ sp needed
 956 0096 BDE8F08F 		pop	{r4, r5, r6, r7, r8, r9, r10, fp, pc}
 957              	.L144:
 958              		.loc 1 516 0
 959 009a AC48     		ldr	r0, .L150+4
 960 009c FFF7FEFF 		bl	gdispOpenFont
 961              	.LVL68:
 962 00a0 0E90     		str	r0, [sp, #56]
 963              	.LVL69:
 964              		.loc 1 517 0
 965 00a2 AB48     		ldr	r0, .L150+8
ARM GAS  /tmp/cctb2rpb.s 			page 18


 966              	.LVL70:
 967 00a4 FFF7FEFF 		bl	gdispOpenFont
 968              	.LVL71:
 969              		.loc 1 519 0
 970 00a8 E38A     		ldrh	r3, [r4, #22]
 971              		.loc 1 517 0
 972 00aa 0F90     		str	r0, [sp, #60]
 973              	.LVL72:
 974              		.loc 1 519 0
 975 00ac 43F01003 		orr	r3, r3, #16
 976              		.loc 1 520 0
 977 00b0 A848     		ldr	r0, .L150+12
 978              	.LVL73:
 979              		.loc 1 519 0
 980 00b2 E382     		strh	r3, [r4, #22]	@ movhi
 981              		.loc 1 520 0
 982 00b4 FFF7FEFF 		bl	gtimerStop
 983              	.LVL74:
 984              		.loc 1 521 0
 985 00b8 E38A     		ldrh	r3, [r4, #22]
 986              		.loc 1 524 0
 987 00ba A06B     		ldr	r0, [r4, #56]
 988 00bc 0095     		str	r5, [sp]
 989              		.loc 1 521 0
 990 00be 23F4B073 		bic	r3, r3, #352
 991 00c2 E382     		strh	r3, [r4, #22]	@ movhi
 992              		.loc 1 524 0
 993 00c4 3146     		mov	r1, r6
 994 00c6 3246     		mov	r2, r6
 995 00c8 0B9B     		ldr	r3, [sp, #44]
 996 00ca FFF7FEFF 		bl	gdispGSetClip
 997              	.LVL75:
 998              		.loc 1 547 0
 999 00ce A246     		mov	r10, r4
 1000              	.L128:
 1001              		.loc 1 530 0
 1002 00d0 DBF83800 		ldr	r0, [fp, #56]
 1003              		.loc 1 532 0
 1004 00d4 A04D     		ldr	r5, .L150+16
 1005              		.loc 1 530 0
 1006 00d6 1F21     		movs	r1, #31
 1007 00d8 FFF7FEFF 		bl	gdispGClear
 1008              	.LVL76:
 1009              		.loc 1 532 0
 1010 00dc 0124     		movs	r4, #1
 1011 00de 1E21     		movs	r1, #30
 1012 00e0 4FF6FF72 		movw	r2, #65535
 1013 00e4 1F23     		movs	r3, #31
 1014 00e6 0E9E     		ldr	r6, [sp, #56]
 1015 00e8 0195     		str	r5, [sp, #4]
 1016 00ea 0091     		str	r1, [sp]
 1017 00ec 0392     		str	r2, [sp, #12]
 1018 00ee 0493     		str	r3, [sp, #16]
 1019 00f0 0594     		str	r4, [sp, #20]
 1020 00f2 0A94     		str	r4, [sp, #40]
 1021 00f4 DBF83800 		ldr	r0, [fp, #56]
 1022 00f8 0296     		str	r6, [sp, #8]
ARM GAS  /tmp/cctb2rpb.s 			page 19


 1023 00fa 0021     		movs	r1, #0
 1024 00fc 0522     		movs	r2, #5
 1025 00fe 0B9B     		ldr	r3, [sp, #44]
 1026              		.loc 1 534 0
 1027 0100 14AC     		add	r4, sp, #80
 1028 0102 10AD     		add	r5, sp, #64
 1029              		.loc 1 532 0
 1030 0104 FFF7FEFF 		bl	gdispGFillStringBox
 1031              	.LVL77:
 1032              		.loc 1 534 0
 1033 0108 0894     		str	r4, [sp, #32]
 1034 010a 0995     		str	r5, [sp, #36]
 1035              	.LVL78:
 1036              	.L108:
 1037              	.LBB26:
 1038              	.LBB27:
 1039              		.loc 1 131 0
 1040 010c 1FFA87F9 		uxth	r9, r7
 1041 0110 A9F10F03 		sub	r3, r9, #15
 1042 0114 1BB2     		sxth	r3, r3
 1043 0116 4FF6FF75 		movw	r5, #65535
 1044 011a 0FFA88F2 		sxth	r2, r8
 1045 011e 0793     		str	r3, [sp, #28]
 1046 0120 A9F10203 		sub	r3, r9, #2
 1047 0124 8DE82400 		stmia	sp, {r2, r5}
 1048 0128 DBF83800 		ldr	r0, [fp, #56]
 1049 012c 0799     		ldr	r1, [sp, #28]
 1050 012e 1BB2     		sxth	r3, r3
 1051 0130 FFF7FEFF 		bl	gdispGDrawLine
 1052              	.LVL79:
 1053              		.loc 1 132 0
 1054 0134 099E     		ldr	r6, [sp, #36]
 1055 0136 DBF83800 		ldr	r0, [fp, #56]
 1056 013a 3388     		ldrh	r3, [r6]
 1057 013c B6F90220 		ldrsh	r2, [r6, #2]
 1058 0140 0092     		str	r2, [sp]
 1059 0142 991C     		adds	r1, r3, #2
 1060 0144 0F33     		adds	r3, r3, #15
 1061              		.loc 1 133 0
 1062 0146 1FFA88F8 		uxth	r8, r8
 1063              		.loc 1 132 0
 1064 014a 0195     		str	r5, [sp, #4]
 1065 014c 09B2     		sxth	r1, r1
 1066 014e 1BB2     		sxth	r3, r3
 1067 0150 FFF7FEFF 		bl	gdispGDrawLine
 1068              	.LVL80:
 1069              		.loc 1 133 0
 1070 0154 A8F10F04 		sub	r4, r8, #15
 1071 0158 A8F10203 		sub	r3, r8, #2
 1072 015c 24B2     		sxth	r4, r4
 1073 015e 3FB2     		sxth	r7, r7
 1074 0160 1BB2     		sxth	r3, r3
 1075 0162 3946     		mov	r1, r7
 1076 0164 DBF83800 		ldr	r0, [fp, #56]
 1077 0168 0195     		str	r5, [sp, #4]
 1078 016a 2246     		mov	r2, r4
 1079 016c 0093     		str	r3, [sp]
ARM GAS  /tmp/cctb2rpb.s 			page 20


 1080              		.loc 1 134 0
 1081 016e 08F10F06 		add	r6, r8, #15
 1082              		.loc 1 133 0
 1083 0172 3B46     		mov	r3, r7
 1084 0174 FFF7FEFF 		bl	gdispGDrawLine
 1085              	.LVL81:
 1086              		.loc 1 134 0
 1087 0178 36B2     		sxth	r6, r6
 1088 017a 3946     		mov	r1, r7
 1089 017c 3B46     		mov	r3, r7
 1090 017e 08F10202 		add	r2, r8, #2
 1091              		.loc 1 136 0
 1092 0182 A9F10707 		sub	r7, r9, #7
 1093 0186 3FB2     		sxth	r7, r7
 1094              		.loc 1 134 0
 1095 0188 DBF83800 		ldr	r0, [fp, #56]
 1096 018c 0195     		str	r5, [sp, #4]
 1097 018e 12B2     		sxth	r2, r2
 1098              		.loc 1 136 0
 1099 0190 4BF6F045 		movw	r5, #48368
 1100              		.loc 1 134 0
 1101 0194 0096     		str	r6, [sp]
 1102 0196 FFF7FEFF 		bl	gdispGDrawLine
 1103              	.LVL82:
 1104              		.loc 1 136 0
 1105 019a 3B46     		mov	r3, r7
 1106 019c DBF83800 		ldr	r0, [fp, #56]
 1107 01a0 0799     		ldr	r1, [sp, #28]
 1108 01a2 0096     		str	r6, [sp]
 1109 01a4 3246     		mov	r2, r6
 1110 01a6 0195     		str	r5, [sp, #4]
 1111 01a8 FFF7FEFF 		bl	gdispGDrawLine
 1112              	.LVL83:
 1113              		.loc 1 137 0
 1114 01ac 0799     		ldr	r1, [sp, #28]
 1115 01ae DBF83800 		ldr	r0, [fp, #56]
 1116 01b2 0096     		str	r6, [sp]
 1117 01b4 08F1070C 		add	ip, r8, #7
 1118 01b8 0FFA8CFC 		sxth	ip, ip
 1119 01bc 6246     		mov	r2, ip
 1120 01be 0B46     		mov	r3, r1
 1121 01c0 0195     		str	r5, [sp, #4]
 1122 01c2 CDF818C0 		str	ip, [sp, #24]
 1123 01c6 FFF7FEFF 		bl	gdispGDrawLine
 1124              	.LVL84:
 1125              		.loc 1 139 0
 1126 01ca 3B46     		mov	r3, r7
 1127 01cc DBF83800 		ldr	r0, [fp, #56]
 1128 01d0 0799     		ldr	r1, [sp, #28]
 1129 01d2 0094     		str	r4, [sp]
 1130 01d4 2246     		mov	r2, r4
 1131 01d6 0195     		str	r5, [sp, #4]
 1132 01d8 FFF7FEFF 		bl	gdispGDrawLine
 1133              	.LVL85:
 1134              		.loc 1 140 0
 1135 01dc A8F10708 		sub	r8, r8, #7
 1136 01e0 0799     		ldr	r1, [sp, #28]
ARM GAS  /tmp/cctb2rpb.s 			page 21


 1137 01e2 DBF83800 		ldr	r0, [fp, #56]
 1138 01e6 0094     		str	r4, [sp]
 1139 01e8 0FFA88F8 		sxth	r8, r8
 1140 01ec 0B46     		mov	r3, r1
 1141 01ee 4246     		mov	r2, r8
 1142 01f0 0195     		str	r5, [sp, #4]
 1143 01f2 FFF7FEFF 		bl	gdispGDrawLine
 1144              	.LVL86:
 1145              		.loc 1 142 0
 1146 01f6 09F10F07 		add	r7, r9, #15
 1147 01fa 09F10703 		add	r3, r9, #7
 1148 01fe 3FB2     		sxth	r7, r7
 1149 0200 0FFA83F9 		sxth	r9, r3
 1150 0204 DBF83800 		ldr	r0, [fp, #56]
 1151 0208 0096     		str	r6, [sp]
 1152 020a 3246     		mov	r2, r6
 1153 020c 4946     		mov	r1, r9
 1154 020e 3B46     		mov	r3, r7
 1155 0210 0195     		str	r5, [sp, #4]
 1156 0212 FFF7FEFF 		bl	gdispGDrawLine
 1157              	.LVL87:
 1158              		.loc 1 143 0
 1159 0216 DDF818C0 		ldr	ip, [sp, #24]
 1160 021a DBF83800 		ldr	r0, [fp, #56]
 1161 021e 0096     		str	r6, [sp]
 1162 0220 6246     		mov	r2, ip
 1163 0222 3946     		mov	r1, r7
 1164 0224 3B46     		mov	r3, r7
 1165 0226 0195     		str	r5, [sp, #4]
 1166 0228 FFF7FEFF 		bl	gdispGDrawLine
 1167              	.LVL88:
 1168              		.loc 1 145 0
 1169 022c DBF83800 		ldr	r0, [fp, #56]
 1170 0230 0094     		str	r4, [sp]
 1171 0232 4946     		mov	r1, r9
 1172 0234 2246     		mov	r2, r4
 1173 0236 3B46     		mov	r3, r7
 1174 0238 0195     		str	r5, [sp, #4]
 1175 023a FFF7FEFF 		bl	gdispGDrawLine
 1176              	.LVL89:
 1177              		.loc 1 146 0
 1178 023e DBF83800 		ldr	r0, [fp, #56]
 1179 0242 CDF80080 		str	r8, [sp]
 1180 0246 3946     		mov	r1, r7
 1181 0248 0195     		str	r5, [sp, #4]
 1182 024a 3B46     		mov	r3, r7
 1183 024c 2246     		mov	r2, r4
 1184 024e FFF7FEFF 		bl	gdispGDrawLine
 1185              	.LVL90:
 1186              	.L109:
 1187              	.LBE27:
 1188              	.LBE26:
 1189              		.loc 1 540 0 discriminator 1
 1190 0252 FFF7FEFF 		bl	get_raw_reading.constprop.1
 1191              	.LVL91:
 1192 0256 BBF80630 		ldrh	r3, [fp, #6]
 1193 025a DA07     		lsls	r2, r3, #31
ARM GAS  /tmp/cctb2rpb.s 			page 22


 1194 025c 49D5     		bpl	.L110
 1195              		.loc 1 540 0 is_stmt 0
 1196 025e 0025     		movs	r5, #0
 1197 0260 A846     		mov	r8, r5
 1198 0262 2E46     		mov	r6, r5
 1199 0264 06E0     		b	.L111
 1200              	.LVL92:
 1201              	.L112:
 1202              		.loc 1 549 0 is_stmt 1
 1203 0266 BAF90020 		ldrsh	r2, [r10]
 1204              		.loc 1 550 0
 1205 026a BAF90230 		ldrsh	r3, [r10, #2]
 1206              		.loc 1 548 0
 1207 026e 0135     		adds	r5, r5, #1
 1208              	.LVL93:
 1209              		.loc 1 549 0
 1210 0270 1644     		add	r6, r6, r2
 1211              	.LVL94:
 1212              		.loc 1 550 0
 1213 0272 9844     		add	r8, r8, r3
 1214              	.LVL95:
 1215              	.L111:
 1216              		.loc 1 545 0 discriminator 1
 1217 0274 1420     		movs	r0, #20
 1218 0276 FFF7FEFF 		bl	gfxSleepMilliseconds
 1219              	.LVL96:
 1220              		.loc 1 546 0 discriminator 1
 1221 027a FFF7FEFF 		bl	get_raw_reading.constprop.1
 1222              	.LVL97:
 1223              		.loc 1 547 0 discriminator 1
 1224 027e BBF80630 		ldrh	r3, [fp, #6]
 1225              		.loc 1 544 0 discriminator 1
 1226 0282 13F00103 		ands	r3, r3, #1
 1227 0286 EED1     		bne	.L112
 1228              		.loc 1 553 0
 1229 0288 002D     		cmp	r5, #0
 1230 028a E2D0     		beq	.L109
 1231 028c 2A46     		mov	r2, r5
 1232 028e 4546     		mov	r5, r8
 1233              	.LVL98:
 1234              		.loc 1 556 0
 1235 0290 B5FBF2F8 		udiv	r8, r5, r2
 1236              	.LVL99:
 1237              	.LBB28:
 1238              	.LBB29:
 1239              		.loc 1 150 0
 1240 0294 2C49     		ldr	r1, .L150
 1241              	.LBE29:
 1242              	.LBE28:
 1243              		.loc 1 555 0
 1244 0296 B6FBF2F6 		udiv	r6, r6, r2
 1245              	.LVL100:
 1246              	.LBB34:
 1247              	.LBB30:
 1248              		.loc 1 150 0
 1249 029a 2246     		mov	r2, r4
 1250              	.LVL101:
ARM GAS  /tmp/cctb2rpb.s 			page 23


 1251              	.LBE30:
 1252              	.LBE34:
 1253              		.loc 1 555 0
 1254 029c 089C     		ldr	r4, [sp, #32]
 1255              	.LBB35:
 1256              	.LBB31:
 1257              		.loc 1 150 0
 1258 029e 886B     		ldr	r0, [r1, #56]
 1259 02a0 0799     		ldr	r1, [sp, #28]
 1260 02a2 1F46     		mov	r7, r3
 1261 02a4 1F25     		movs	r5, #31
 1262              	.LVL102:
 1263 02a6 2A23     		movs	r3, #42
 1264              	.LBE31:
 1265              	.LBE35:
 1266              		.loc 1 555 0
 1267 02a8 B6B2     		uxth	r6, r6
 1268              		.loc 1 556 0
 1269 02aa 1FFA88F8 		uxth	r8, r8
 1270              	.LBB36:
 1271              	.LBB32:
 1272              		.loc 1 150 0
 1273 02ae 8DE82800 		stmia	sp, {r3, r5}
 1274              	.LBE32:
 1275              	.LBE36:
 1276              		.loc 1 555 0
 1277 02b2 2680     		strh	r6, [r4]	@ movhi
 1278              		.loc 1 556 0
 1279 02b4 A4F80280 		strh	r8, [r4, #2]	@ movhi
 1280              	.LVL103:
 1281              	.LBB37:
 1282              	.LBB33:
 1283              		.loc 1 150 0
 1284 02b8 FFF7FEFF 		bl	gdispGFillArea
 1285              	.LVL104:
 1286              	.LBE33:
 1287              	.LBE37:
 1288              		.loc 1 560 0
 1289 02bc 0A9C     		ldr	r4, [sp, #40]
 1290 02be 012C     		cmp	r4, #1
 1291 02c0 00F0EB81 		beq	.L114
 1292              		.loc 1 560 0 is_stmt 0 discriminator 1
 1293 02c4 089C     		ldr	r4, [sp, #32]
 1294 02c6 34F8043C 		ldrh	r3, [r4, #-4]
 1295 02ca 9E42     		cmp	r6, r3
 1296 02cc 15D0     		beq	.L145
 1297              	.L115:
 1298              	.LVL105:
 1299              		.loc 1 534 0 is_stmt 1
 1300 02ce 089C     		ldr	r4, [sp, #32]
 1301 02d0 0A9E     		ldr	r6, [sp, #40]
 1302 02d2 099D     		ldr	r5, [sp, #36]
 1303 02d4 0434     		adds	r4, r4, #4
 1304 02d6 042E     		cmp	r6, #4
 1305 02d8 0894     		str	r4, [sp, #32]
 1306              	.LVL106:
 1307 02da 05F10403 		add	r3, r5, #4
ARM GAS  /tmp/cctb2rpb.s 			page 24


 1308              	.LVL107:
 1309 02de 3FD0     		beq	.L146
 1310              	.LVL108:
 1311              	.L116:
 1312 02e0 0A9E     		ldr	r6, [sp, #40]
 1313 02e2 099C     		ldr	r4, [sp, #36]
 1314              		.loc 1 592 0
 1315 02e4 0993     		str	r3, [sp, #36]
 1316              	.LVL109:
 1317 02e6 0136     		adds	r6, r6, #1
 1318 02e8 0A96     		str	r6, [sp, #40]
 1319 02ea A788     		ldrh	r7, [r4, #4]
 1320 02ec B4F80680 		ldrh	r8, [r4, #6]
 1321 02f0 0CE7     		b	.L108
 1322              	.LVL110:
 1323              	.L110:
 1324              		.loc 1 541 0
 1325 02f2 1420     		movs	r0, #20
 1326 02f4 FFF7FEFF 		bl	gfxSleepMilliseconds
 1327              	.LVL111:
 1328 02f8 ABE7     		b	.L109
 1329              	.LVL112:
 1330              	.L145:
 1331              		.loc 1 560 0 discriminator 1
 1332 02fa 34F8023C 		ldrh	r3, [r4, #-2]
 1333 02fe 9845     		cmp	r8, r3
 1334 0300 E5D1     		bne	.L115
 1335              		.loc 1 561 0
 1336 0302 114E     		ldr	r6, .L150
 1337 0304 1549     		ldr	r1, .L150+20
 1338 0306 B06B     		ldr	r0, [r6, #56]
 1339 0308 0191     		str	r1, [sp, #4]
 1340 030a 2824     		movs	r4, #40
 1341 030c 0F9E     		ldr	r6, [sp, #60]
 1342 030e 0296     		str	r6, [sp, #8]
 1343 0310 4FF47841 		mov	r1, #63488
 1344 0314 4FF6E072 		movw	r2, #65504
 1345 0318 0123     		movs	r3, #1
 1346 031a 0391     		str	r1, [sp, #12]
 1347 031c 0492     		str	r2, [sp, #16]
 1348 031e 3946     		mov	r1, r7
 1349 0320 0593     		str	r3, [sp, #20]
 1350 0322 2322     		movs	r2, #35
 1351 0324 0B9B     		ldr	r3, [sp, #44]
 1352 0326 0094     		str	r4, [sp]
 1353 0328 FFF7FEFF 		bl	gdispGFillStringBox
 1354              	.LVL113:
 1355              		.loc 1 562 0
 1356 032c 41F28830 		movw	r0, #5000
 1357 0330 FFF7FEFF 		bl	gfxSleepMilliseconds
 1358              	.LVL114:
 1359              		.loc 1 563 0
 1360 0334 0449     		ldr	r1, .L150
 1361 0336 0B9B     		ldr	r3, [sp, #44]
 1362 0338 886B     		ldr	r0, [r1, #56]
 1363 033a 2322     		movs	r2, #35
 1364 033c 8DE83000 		stmia	sp, {r4, r5}
ARM GAS  /tmp/cctb2rpb.s 			page 25


 1365 0340 3946     		mov	r1, r7
 1366 0342 FFF7FEFF 		bl	gdispGFillArea
 1367              	.LVL115:
 1368 0346 C2E7     		b	.L115
 1369              	.L151:
 1370              		.align	2
 1371              	.L150:
 1372 0348 00000000 		.word	.LANCHOR0
 1373 034c 00000000 		.word	.LC0
 1374 0350 0C000000 		.word	.LC1
 1375 0354 00000000 		.word	.LANCHOR1
 1376 0358 18000000 		.word	.LC2
 1377 035c 24000000 		.word	.LC3
 1378              	.LVL116:
 1379              	.L146:
 1380              		.loc 1 569 0
 1381 0360 DBF83810 		ldr	r1, [fp, #56]
 1382              	.LVL117:
 1383              	.LBB38:
 1384              	.LBB39:
 1385              		.loc 1 166 0
 1386 0364 8B88     		ldrh	r3, [r1, #4]
 1387              	.LVL118:
 1388 0366 B42B     		cmp	r3, #180
 1389 0368 00F02B81 		beq	.L118
 1390 036c B3F5877F 		cmp	r3, #270
 1391 0370 00F05D81 		beq	.L119
 1392 0374 5A2B     		cmp	r3, #90
 1393 0376 00F05381 		beq	.L147
 1394              		.loc 1 186 0
 1395 037a BDF84050 		ldrh	r5, [sp, #64]
 1396              	.LVL119:
 1397              		.loc 1 187 0
 1398 037e BDF84460 		ldrh	r6, [sp, #68]
 1399              	.LVL120:
 1400              		.loc 1 188 0
 1401 0382 BDF84820 		ldrh	r2, [sp, #72]
 1402              	.LVL121:
 1403              	.L121:
 1404              		.loc 1 200 0
 1405 0386 BDF95840 		ldrsh	r4, [sp, #88]
 1406              	.LVL122:
 1407              		.loc 1 201 0
 1408 038a BDF95280 		ldrsh	r8, [sp, #82]
 1409              		.loc 1 200 0
 1410 038e BDF95A00 		ldrsh	r0, [sp, #90]
 1411 0392 BDF950E0 		ldrsh	lr, [sp, #80]
 1412 0396 BDF95670 		ldrsh	r7, [sp, #86]
 1413              		.loc 1 201 0
 1414 039a BDF954C0 		ldrsh	ip, [sp, #84]
 1415              		.loc 1 207 0
 1416 039e 00EE904A 		fmsr	s1, r4	@ int
 1417              		.loc 1 208 0
 1418 03a2 03EE908A 		fmsr	s7, r8	@ int
 1419              		.loc 1 207 0
 1420 03a6 F8EEE05A 		fsitos	s11, s1
 1421              		.loc 1 208 0
ARM GAS  /tmp/cctb2rpb.s 			page 26


 1422 03aa F8EEE32A 		fsitos	s5, s7
 1423              		.loc 1 207 0
 1424 03ae 04EE900A 		fmsr	s9, r0	@ int
 1425              		.loc 1 208 0
 1426 03b2 04EE10EA 		fmsr	s8, lr	@ int
 1427              		.loc 1 207 0
 1428 03b6 06EE907A 		fmsr	s13, r7	@ int
 1429              		.loc 1 208 0
 1430 03ba F8EEC47A 		fsitos	s15, s8
 1431              		.loc 1 207 0
 1432 03be B8EEE41A 		fsitos	s2, s9
 1433 03c2 B8EEE67A 		fsitos	s14, s13
 1434 03c6 22EEE55A 		fnmuls	s10, s5, s11
 1435 03ca 00EE90CA 		fmsr	s1, ip	@ int
 1436              		.loc 1 204 0
 1437 03ce 36B2     		sxth	r6, r6
 1438              	.LVL123:
 1439              		.loc 1 208 0
 1440 03d0 A1EE275A 		vfma.f32	s10, s2, s15
 1441              		.loc 1 203 0
 1442 03d4 2DB2     		sxth	r5, r5
 1443              	.LVL124:
 1444 03d6 12B2     		sxth	r2, r2
 1445              	.LVL125:
 1446              		.loc 1 207 0
 1447 03d8 B8EEE06A 		fsitos	s12, s1
 1448              		.loc 1 208 0
 1449 03dc 03EE906A 		fmsr	s7, r6	@ int
 1450 03e0 67EE655A 		fnmuls	s11, s14, s11
 1451              		.loc 1 207 0
 1452 03e4 04EE105A 		fmsr	s8, r5	@ int
 1453 03e8 E6EE015A 		vfma.f32	s11, s12, s2
 1454              		.loc 1 201 0
 1455 03ec C0EB0808 		rsb	r8, r0, r8
 1456 03f0 C4EB0C0C 		rsb	ip, r4, ip
 1457              		.loc 1 208 0
 1458 03f4 F8EEE36A 		fsitos	s13, s7
 1459 03f8 22EEC66A 		fnmuls	s12, s5, s12
 1460              		.loc 1 204 0
 1461 03fc B61A     		subs	r6, r6, r2
 1462              		.loc 1 203 0
 1463 03fe AD1A     		subs	r5, r5, r2
 1464              		.loc 1 207 0
 1465 0400 F8EEC42A 		fsitos	s5, s8
 1466              		.loc 1 209 0
 1467 0404 A7EE276A 		vfma.f32	s12, s14, s15
 1468              		.loc 1 200 0
 1469 0408 C4EB0E04 		rsb	r4, r4, lr
 1470 040c 381A     		subs	r0, r7, r0
 1471              		.loc 1 204 0
 1472 040e 07EE106A 		fmsr	s14, r6	@ int
 1473              		.loc 1 203 0
 1474 0412 07EE905A 		fmsr	s15, r5	@ int
 1475              		.loc 1 201 0
 1476 0416 04EE908A 		fmsr	s9, r8	@ int
 1477 041a 65EE666A 		fnmuls	s13, s10, s13
 1478 041e 04EE10CA 		fmsr	s8, ip	@ int
ARM GAS  /tmp/cctb2rpb.s 			page 27


 1479              		.loc 1 204 0
 1480 0422 B8EEC72A 		fsitos	s4, s14
 1481              		.loc 1 203 0
 1482 0426 F8EEE71A 		fsitos	s3, s15
 1483              		.loc 1 208 0
 1484 042a E2EEA56A 		vfma.f32	s13, s5, s11
 1485              		.loc 1 212 0
 1486 042e B42B     		cmp	r3, #180
 1487              		.loc 1 201 0
 1488 0430 B8EEC44A 		fsitos	s8, s8
 1489 0434 F8EEE44A 		fsitos	s9, s9
 1490              		.loc 1 200 0
 1491 0438 03EE904A 		fmsr	s7, r4	@ int
 1492 043c 07EE100A 		fmsr	s14, r0	@ int
 1493              		.loc 1 209 0
 1494 0440 00EE902A 		fmsr	s1, r2	@ int
 1495              		.loc 1 200 0
 1496 0444 B8EEE33A 		fsitos	s6, s7
 1497 0448 62EE642A 		fnmuls	s5, s4, s9
 1498 044c F8EEC73A 		fsitos	s7, s14
 1499              		.loc 1 209 0
 1500 0450 B8EEE01A 		fsitos	s2, s1
 1501 0454 64EEC47A 		fnmuls	s15, s9, s8
 1502 0458 21EEC47A 		fnmuls	s14, s3, s8
 1503              		.loc 1 200 0
 1504 045c E3EE237A 		vfma.f32	s15, s6, s7
 1505              	.LVL126:
 1506              		.loc 1 209 0
 1507 0460 E1EE066A 		vfma.f32	s13, s2, s12
 1508              		.loc 1 204 0
 1509 0464 E3EEA12A 		vfma.f32	s5, s7, s3
 1510              		.loc 1 206 0
 1511 0468 A3EE027A 		vfma.f32	s14, s6, s4
 1512              		.loc 1 209 0
 1513 046c C6EEA76A 		fdivs	s13, s13, s15
 1514              		.loc 1 204 0
 1515 0470 C2EEA72A 		fdivs	s5, s5, s15
 1516              		.loc 1 206 0
 1517 0474 87EE272A 		fdivs	s4, s14, s15
 1518              		.loc 1 207 0
 1519 0478 CBED0A6A 		fsts	s13, [fp, #40]
 1520              		.loc 1 203 0
 1521 047c CBED082A 		fsts	s5, [fp, #32]
 1522              		.loc 1 205 0
 1523 0480 8BED092A 		fsts	s4, [fp, #36]
 1524              		.loc 1 212 0
 1525 0484 00F0C480 		beq	.L123
 1526 0488 B3F5877F 		cmp	r3, #270
 1527 048c 00F0B980 		beq	.L124
 1528 0490 5A2B     		cmp	r3, #90
 1529 0492 00F0A680 		beq	.L148
 1530              		.loc 1 232 0
 1531 0496 BDF84200 		ldrh	r0, [sp, #66]
 1532              	.LVL127:
 1533              		.loc 1 233 0
 1534 049a BDF84620 		ldrh	r2, [sp, #70]
 1535              	.LVL128:
ARM GAS  /tmp/cctb2rpb.s 			page 28


 1536              		.loc 1 234 0
 1537 049e BDF84A30 		ldrh	r3, [sp, #74]
 1538              	.LVL129:
 1539              	.L126:
 1540              		.loc 1 243 0
 1541 04a2 1BB2     		sxth	r3, r3
 1542              	.LVL130:
 1543 04a4 00B2     		sxth	r0, r0
 1544              	.LVL131:
 1545 04a6 C41A     		subs	r4, r0, r3
 1546              		.loc 1 244 0
 1547 04a8 12B2     		sxth	r2, r2
 1548              	.LVL132:
 1549              		.loc 1 248 0
 1550 04aa 00EE902A 		fmsr	s1, r2	@ int
 1551              		.loc 1 243 0
 1552 04ae 01EE904A 		fmsr	s3, r4	@ int
 1553              		.loc 1 244 0
 1554 04b2 D51A     		subs	r5, r2, r3
 1555              		.loc 1 243 0
 1556 04b4 F8EEE11A 		fsitos	s3, s3
 1557              		.loc 1 244 0
 1558 04b8 01EE105A 		fmsr	s2, r5	@ int
 1559              		.loc 1 248 0
 1560 04bc B8EEE07A 		fsitos	s14, s1
 1561              		.loc 1 244 0
 1562 04c0 B8EEC11A 		fsitos	s2, s2
 1563 04c4 21EEC44A 		fnmuls	s8, s3, s8
 1564 04c8 27EE457A 		fnmuls	s14, s14, s10
 1565              		.loc 1 247 0
 1566 04cc 05EE100A 		fmsr	s10, r0	@ int
 1567              		.loc 1 246 0
 1568 04d0 A3EE014A 		vfma.f32	s8, s6, s2
 1569              	.LBE39:
 1570              	.LBE38:
 1571              	.LBB51:
 1572              	.LBB52:
 1573              		.loc 1 154 0
 1574 04d4 BDF95E20 		ldrsh	r2, [sp, #94]
 1575 04d8 BDF95C50 		ldrsh	r5, [sp, #92]
 1576              	.LBE52:
 1577              	.LBE51:
 1578              	.LBB62:
 1579              	.LBB40:
 1580              		.loc 1 243 0
 1581 04dc 764C     		ldr	r4, .L152
 1582              		.loc 1 247 0
 1583 04de B8EEC53A 		fsitos	s6, s10
 1584 04e2 61EE644A 		fnmuls	s9, s2, s9
 1585              		.loc 1 248 0
 1586 04e6 A5EE837A 		vfma.f32	s14, s11, s6
 1587              	.LBE40:
 1588              	.LBE62:
 1589              		.loc 1 581 0
 1590 04ea 2046     		mov	r0, r4
 1591              	.LBB63:
 1592              	.LBB41:
ARM GAS  /tmp/cctb2rpb.s 			page 29


 1593              		.loc 1 244 0
 1594 04ec E3EEA14A 		vfma.f32	s9, s7, s3
 1595              		.loc 1 249 0
 1596 04f0 00EE903A 		fmsr	s1, r3	@ int
 1597              	.LBE41:
 1598              	.LBE63:
 1599              	.LBB64:
 1600              	.LBB53:
 1601              		.loc 1 154 0
 1602 04f4 03EE902A 		fmsr	s7, r2	@ int
 1603              	.LBE53:
 1604              	.LBE64:
 1605              	.LBB65:
 1606              	.LBB42:
 1607              		.loc 1 249 0
 1608 04f8 F8EEE05A 		fsitos	s11, s1
 1609              	.LBE42:
 1610              	.LBE65:
 1611              	.LBB66:
 1612              	.LBB54:
 1613              		.loc 1 154 0
 1614 04fc B8EEE35A 		fsitos	s10, s7
 1615 0500 00EE905A 		fmsr	s1, r5	@ int
 1616              	.LBE54:
 1617              	.LBE66:
 1618              	.LBB67:
 1619              	.LBB43:
 1620              		.loc 1 249 0
 1621 0504 A6EE257A 		vfma.f32	s14, s12, s11
 1622              	.LBE43:
 1623              	.LBE67:
 1624              		.loc 1 581 0
 1625 0508 0022     		movs	r2, #0
 1626              	.LBB68:
 1627              	.LBB55:
 1628              		.loc 1 154 0
 1629 050a B8EEE06A 		fsitos	s12, s1
 1630 050e 62EE055A 		fmuls	s11, s4, s10
 1631              	.LBE55:
 1632              	.LBE68:
 1633              	.LBB69:
 1634              	.LBB44:
 1635              		.loc 1 246 0
 1636 0512 84EE274A 		fdivs	s8, s8, s15
 1637              	.LBE44:
 1638              	.LBE69:
 1639              	.LBB70:
 1640              	.LBB56:
 1641              		.loc 1 154 0
 1642 0516 E2EE865A 		vfma.f32	s11, s5, s12
 1643              	.LBE56:
 1644              	.LBE70:
 1645              	.LBB71:
 1646              	.LBB45:
 1647              		.loc 1 244 0
 1648 051a C4EEA74A 		fdivs	s9, s9, s15
 1649              	.LBE45:
ARM GAS  /tmp/cctb2rpb.s 			page 30


 1650              	.LBE71:
 1651              	.LBB72:
 1652              	.LBB57:
 1653              		.loc 1 154 0
 1654 051e 76EEA56A 		fadds	s13, s13, s11
 1655              	.LBE57:
 1656              	.LBE72:
 1657              	.LBB73:
 1658              	.LBB46:
 1659              		.loc 1 249 0
 1660 0522 C7EE277A 		fdivs	s15, s14, s15
 1661              	.LVL133:
 1662              	.LBE46:
 1663              	.LBE73:
 1664              	.LBB74:
 1665              	.LBB58:
 1666              		.loc 1 154 0
 1667 0526 FDEEE66A 		ftosizs	s13, s13
 1668              		.loc 1 155 0
 1669 052a 24EE056A 		fmuls	s12, s8, s10
 1670              		.loc 1 154 0
 1671 052e 16EE903A 		fmrs	r3, s13	@ int
 1672 0532 9BB2     		uxth	r3, r3
 1673              		.loc 1 155 0
 1674 0534 1DB2     		sxth	r5, r3
 1675 0536 07EE105A 		fmsr	s14, r5	@ int
 1676 053a B8EEC77A 		fsitos	s14, s14
 1677              	.LBE58:
 1678              	.LBE74:
 1679              	.LBB75:
 1680              	.LBB47:
 1681              		.loc 1 247 0
 1682 053e CBED0D7A 		fsts	s15, [fp, #52]
 1683              	.LVL134:
 1684              	.LBE47:
 1685              	.LBE75:
 1686              	.LBB76:
 1687              	.LBB59:
 1688              		.loc 1 155 0
 1689 0542 A4EE876A 		vfma.f32	s12, s9, s14
 1690              		.loc 1 154 0
 1691 0546 ABF80030 		strh	r3, [fp]	@ movhi
 1692              	.LBE59:
 1693              	.LBE76:
 1694              	.LBB77:
 1695              	.LBB48:
 1696              		.loc 1 243 0
 1697 054a CBED0B4A 		fsts	s9, [fp, #44]
 1698              	.LBE48:
 1699              	.LBE77:
 1700              	.LBB78:
 1701              	.LBB60:
 1702              		.loc 1 155 0
 1703 054e 77EE867A 		fadds	s15, s15, s12
 1704              	.LBE60:
 1705              	.LBE78:
 1706              	.LBB79:
ARM GAS  /tmp/cctb2rpb.s 			page 31


 1707              	.LBB49:
 1708              		.loc 1 245 0
 1709 0552 8BED0C4A 		fsts	s8, [fp, #48]
 1710              	.LBE49:
 1711              	.LBE79:
 1712              	.LBB80:
 1713              	.LBB61:
 1714              		.loc 1 155 0
 1715 0556 FDEEE77A 		ftosizs	s15, s15
 1716 055a 17EE903A 		fmrs	r3, s15	@ int
 1717 055e ABF80230 		strh	r3, [fp, #2]	@ movhi
 1718              	.LBE61:
 1719              	.LBE80:
 1720              		.loc 1 581 0
 1721 0562 FFF7FEFF 		bl	_tsOrientClip
 1722              	.LVL135:
 1723              		.loc 1 585 0
 1724 0566 0D9E     		ldr	r6, [sp, #52]
 1725 0568 BBF90220 		ldrsh	r2, [fp, #2]
 1726              		.loc 1 584 0
 1727 056c 0C9D     		ldr	r5, [sp, #48]
 1728 056e BBF90010 		ldrsh	r1, [fp]
 1729              		.loc 1 585 0
 1730 0572 33B2     		sxth	r3, r6
 1731 0574 D21A     		subs	r2, r2, r3
 1732              		.loc 1 584 0
 1733 0576 2BB2     		sxth	r3, r5
 1734              		.loc 1 585 0
 1735 0578 02FB02F2 		mul	r2, r2, r2
 1736              		.loc 1 584 0
 1737 057c CB1A     		subs	r3, r1, r3
 1738              	.LVL136:
 1739 057e 03FB0323 		mla	r3, r3, r3, r2
 1740              	.LVL137:
 1741              		.loc 1 587 0
 1742 0582 192B     		cmp	r3, #25
 1743 0584 5BD9     		bls	.L127
 1744              		.loc 1 590 0
 1745 0586 4FF47841 		mov	r1, #63488
 1746              	.LVL138:
 1747 058a 4FF6E072 		movw	r2, #65504
 1748 058e 0123     		movs	r3, #1
 1749 0590 0F9D     		ldr	r5, [sp, #60]
 1750              	.LVL139:
 1751 0592 4A4E     		ldr	r6, .L152+4
 1752              	.LVL140:
 1753 0594 DAF83800 		ldr	r0, [r10, #56]
 1754 0598 0391     		str	r1, [sp, #12]
 1755 059a 2824     		movs	r4, #40
 1756 059c 0492     		str	r2, [sp, #16]
 1757 059e 0593     		str	r3, [sp, #20]
 1758 05a0 0021     		movs	r1, #0
 1759 05a2 2322     		movs	r2, #35
 1760 05a4 0B9B     		ldr	r3, [sp, #44]
 1761 05a6 0196     		str	r6, [sp, #4]
 1762 05a8 0295     		str	r5, [sp, #8]
 1763 05aa 0094     		str	r4, [sp]
ARM GAS  /tmp/cctb2rpb.s 			page 32


 1764 05ac FFF7FEFF 		bl	gdispGFillStringBox
 1765              	.LVL141:
 1766              		.loc 1 591 0
 1767 05b0 41F28830 		movw	r0, #5000
 1768 05b4 FFF7FEFF 		bl	gfxSleepMilliseconds
 1769              	.LVL142:
 1770 05b8 BDF84070 		ldrh	r7, [sp, #64]
 1771 05bc BDF84280 		ldrh	r8, [sp, #66]
 1772              		.loc 1 592 0
 1773 05c0 86E5     		b	.L128
 1774              	.LVL143:
 1775              	.L118:
 1776              	.LBB81:
 1777              	.LBB50:
 1778              		.loc 1 173 0
 1779 05c2 0A88     		ldrh	r2, [r1]
 1780              		.loc 1 174 0
 1781 05c4 BDF84050 		ldrh	r5, [sp, #64]
 1782              	.LVL144:
 1783              		.loc 1 175 0
 1784 05c8 BDF84460 		ldrh	r6, [sp, #68]
 1785              	.LVL145:
 1786              		.loc 1 176 0
 1787 05cc BDF84800 		ldrh	r0, [sp, #72]
 1788              	.L142:
 1789              		.loc 1 179 0
 1790 05d0 013A     		subs	r2, r2, #1
 1791 05d2 92B2     		uxth	r2, r2
 1792              	.LVL146:
 1793              		.loc 1 180 0
 1794 05d4 551B     		subs	r5, r2, r5
 1795              		.loc 1 181 0
 1796 05d6 961B     		subs	r6, r2, r6
 1797              		.loc 1 182 0
 1798 05d8 121A     		subs	r2, r2, r0
 1799              	.LVL147:
 1800              		.loc 1 180 0
 1801 05da ADB2     		uxth	r5, r5
 1802              	.LVL148:
 1803              		.loc 1 181 0
 1804 05dc B6B2     		uxth	r6, r6
 1805              	.LVL149:
 1806              		.loc 1 182 0
 1807 05de 92B2     		uxth	r2, r2
 1808              	.LVL150:
 1809 05e0 D1E6     		b	.L121
 1810              	.LVL151:
 1811              	.L148:
 1812              		.loc 1 214 0
 1813 05e2 0B88     		ldrh	r3, [r1]
 1814              		.loc 1 215 0
 1815 05e4 BDF84000 		ldrh	r0, [sp, #64]
 1816              		.loc 1 216 0
 1817 05e8 BDF84420 		ldrh	r2, [sp, #68]
 1818              		.loc 1 217 0
 1819 05ec BDF84840 		ldrh	r4, [sp, #72]
 1820              	.L143:
ARM GAS  /tmp/cctb2rpb.s 			page 33


 1821              		.loc 1 220 0
 1822 05f0 013B     		subs	r3, r3, #1
 1823 05f2 9BB2     		uxth	r3, r3
 1824              	.LVL152:
 1825              		.loc 1 221 0
 1826 05f4 181A     		subs	r0, r3, r0
 1827              		.loc 1 222 0
 1828 05f6 9A1A     		subs	r2, r3, r2
 1829              		.loc 1 223 0
 1830 05f8 1B1B     		subs	r3, r3, r4
 1831              	.LVL153:
 1832              		.loc 1 221 0
 1833 05fa 80B2     		uxth	r0, r0
 1834              	.LVL154:
 1835              		.loc 1 222 0
 1836 05fc 92B2     		uxth	r2, r2
 1837              	.LVL155:
 1838              		.loc 1 223 0
 1839 05fe 9BB2     		uxth	r3, r3
 1840              	.LVL156:
 1841 0600 4FE7     		b	.L126
 1842              	.LVL157:
 1843              	.L124:
 1844              		.loc 1 226 0
 1845 0602 BDF84000 		ldrh	r0, [sp, #64]
 1846              	.LVL158:
 1847              		.loc 1 227 0
 1848 0606 BDF84420 		ldrh	r2, [sp, #68]
 1849              	.LVL159:
 1850              		.loc 1 228 0
 1851 060a BDF84830 		ldrh	r3, [sp, #72]
 1852              	.LVL160:
 1853 060e 48E7     		b	.L126
 1854              	.LVL161:
 1855              	.L123:
 1856              		.loc 1 220 0
 1857 0610 4B88     		ldrh	r3, [r1, #2]
 1858              		.loc 1 221 0
 1859 0612 BDF84200 		ldrh	r0, [sp, #66]
 1860              		.loc 1 222 0
 1861 0616 BDF84620 		ldrh	r2, [sp, #70]
 1862              		.loc 1 223 0
 1863 061a BDF84A40 		ldrh	r4, [sp, #74]
 1864 061e E7E7     		b	.L143
 1865              	.LVL162:
 1866              	.L147:
 1867              		.loc 1 168 0
 1868 0620 BDF84250 		ldrh	r5, [sp, #66]
 1869              	.LVL163:
 1870              		.loc 1 169 0
 1871 0624 BDF84660 		ldrh	r6, [sp, #70]
 1872              	.LVL164:
 1873              		.loc 1 170 0
 1874 0628 BDF84A20 		ldrh	r2, [sp, #74]
 1875              	.LVL165:
 1876 062c ABE6     		b	.L121
 1877              	.LVL166:
ARM GAS  /tmp/cctb2rpb.s 			page 34


 1878              	.L119:
 1879              		.loc 1 179 0
 1880 062e 4A88     		ldrh	r2, [r1, #2]
 1881              		.loc 1 180 0
 1882 0630 BDF84250 		ldrh	r5, [sp, #66]
 1883              	.LVL167:
 1884              		.loc 1 181 0
 1885 0634 BDF84660 		ldrh	r6, [sp, #70]
 1886              	.LVL168:
 1887              		.loc 1 182 0
 1888 0638 BDF84A00 		ldrh	r0, [sp, #74]
 1889 063c C8E7     		b	.L142
 1890              	.LVL169:
 1891              	.L127:
 1892              	.LBE50:
 1893              	.LBE81:
 1894              		.loc 1 596 0
 1895 063e 0E98     		ldr	r0, [sp, #56]
 1896 0640 FFF7FEFF 		bl	gdispCloseFont
 1897              	.LVL170:
 1898              		.loc 1 597 0
 1899 0644 0F98     		ldr	r0, [sp, #60]
 1900 0646 FFF7FEFF 		bl	gdispCloseFont
 1901              	.LVL171:
 1902              		.loc 1 598 0
 1903 064a E38A     		ldrh	r3, [r4, #22]
 1904              		.loc 1 599 0
 1905 064c 0025     		movs	r5, #0
 1906              		.loc 1 598 0
 1907 064e 43F02003 		orr	r3, r3, #32
 1908 0652 E382     		strh	r3, [r4, #22]	@ movhi
 1909              		.loc 1 599 0
 1910 0654 A582     		strh	r5, [r4, #20]	@ movhi
 1911              		.loc 1 600 0
 1912 0656 FFF7FEFF 		bl	get_calibrated_reading.constprop.0
 1913              	.LVL172:
 1914              		.loc 1 601 0
 1915 065a E38A     		ldrh	r3, [r4, #22]
 1916 065c 23F01003 		bic	r3, r3, #16
 1917 0660 9BB2     		uxth	r3, r3
 1918 0662 E382     		strh	r3, [r4, #22]	@ movhi
 1919              		.loc 1 602 0
 1920 0664 1B04     		lsls	r3, r3, #16
 1921 0666 1ED4     		bmi	.L149
 1922              	.L129:
 1923              		.loc 1 606 0
 1924 0668 DBF81830 		ldr	r3, [fp, #24]
 1925 066c 124C     		ldr	r4, .L152
 1926 066e 43B1     		cbz	r3, .L130
 1927              		.loc 1 607 0
 1928 0670 0020     		movs	r0, #0
 1929 0672 04F12001 		add	r1, r4, #32
 1930 0676 1822     		movs	r2, #24
 1931 0678 9847     		blx	r3
 1932              	.LVL173:
 1933              		.loc 1 608 0
 1934 067a E38A     		ldrh	r3, [r4, #22]
ARM GAS  /tmp/cctb2rpb.s 			page 35


 1935 067c 43F04003 		orr	r3, r3, #64
 1936 0680 E382     		strh	r3, [r4, #22]	@ movhi
 1937              	.L130:
 1938              		.loc 1 613 0
 1939 0682 DBF83840 		ldr	r4, [fp, #56]
 1940 0686 FFF7FEFF 		bl	gwinGetDefaultBgColor
 1941              	.LVL174:
 1942 068a 0146     		mov	r1, r0
 1943 068c 2046     		mov	r0, r4
 1944 068e FFF7FEFF 		bl	gdispGClear
 1945              	.LVL175:
 1946              		.loc 1 618 0
 1947 0692 0120     		movs	r0, #1
 1948              		.loc 1 620 0
 1949 0694 19B0     		add	sp, sp, #100
 1950              		@ sp needed
 1951 0696 BDE8F08F 		pop	{r4, r5, r6, r7, r8, r9, r10, fp, pc}
 1952              	.LVL176:
 1953              	.L114:
 1954              		.loc 1 534 0
 1955 069a 089E     		ldr	r6, [sp, #32]
 1956 069c 099C     		ldr	r4, [sp, #36]
 1957 069e 0436     		adds	r6, r6, #4
 1958 06a0 0896     		str	r6, [sp, #32]
 1959              	.LVL177:
 1960 06a2 231D     		adds	r3, r4, #4
 1961              	.LVL178:
 1962 06a4 1CE6     		b	.L116
 1963              	.LVL179:
 1964              	.L149:
 1965              		.loc 1 603 0
 1966 06a6 1923     		movs	r3, #25
 1967 06a8 0093     		str	r3, [sp]
 1968 06aa 2A46     		mov	r2, r5
 1969 06ac 0448     		ldr	r0, .L152+8
 1970 06ae 0549     		ldr	r1, .L152+12
 1971 06b0 0123     		movs	r3, #1
 1972 06b2 FFF7FEFF 		bl	gtimerStart
 1973              	.LVL180:
 1974 06b6 D7E7     		b	.L129
 1975              	.L153:
 1976              		.align	2
 1977              	.L152:
 1978 06b8 00000000 		.word	.LANCHOR0
 1979 06bc 48000000 		.word	.LC4
 1980 06c0 00000000 		.word	.LANCHOR1
 1981 06c4 00000000 		.word	MousePoll
 1982              		.cfi_endproc
 1983              	.LFE124:
 1984              		.size	ginputCalibrateMouse, .-ginputCalibrateMouse
 1985 06c8 AFF30080 		.section	.text.ginputGetMouse,"ax",%progbits
 1985      AFF30080 
 1986              		.align	2
 1987              		.p2align 4,,15
 1988              		.global	ginputGetMouse
 1989              		.thumb
 1990              		.thumb_func
ARM GAS  /tmp/cctb2rpb.s 			page 36


 1991              		.type	ginputGetMouse, %function
 1992              	ginputGetMouse:
 1993              	.LFB120:
 1994              		.loc 1 392 0
 1995              		.cfi_startproc
 1996              		@ args = 0, pretend = 0, frame = 0
 1997              		@ frame_needed = 0, uses_anonymous_args = 0
 1998              	.LVL181:
 1999 0000 F0B5     		push	{r4, r5, r6, r7, lr}
 2000              		.cfi_def_cfa_offset 20
 2001              		.cfi_offset 4, -20
 2002              		.cfi_offset 5, -16
 2003              		.cfi_offset 6, -12
 2004              		.cfi_offset 7, -8
 2005              		.cfi_offset 14, -4
 2006              		.loc 1 400 0
 2007 0002 0546     		mov	r5, r0
 2008              		.loc 1 392 0
 2009 0004 83B0     		sub	sp, sp, #12
 2010              		.cfi_def_cfa_offset 32
 2011              		.loc 1 400 0
 2012 0006 18B1     		cbz	r0, .L155
 2013              		.loc 1 400 0 is_stmt 0 discriminator 1
 2014 0008 42F20F73 		movw	r3, #9999
 2015 000c 9842     		cmp	r0, r3
 2016 000e 50D1     		bne	.L161
 2017              	.L155:
 2018              		.loc 1 404 0 is_stmt 1
 2019 0010 2D4C     		ldr	r4, .L178
 2020 0012 A36B     		ldr	r3, [r4, #56]
 2021 0014 002B     		cmp	r3, #0
 2022 0016 53D0     		beq	.L175
 2023              	.L157:
 2024              		.loc 1 408 0
 2025 0018 B4F91630 		ldrsh	r3, [r4, #22]
 2026 001c 2A4E     		ldr	r6, .L178
 2027 001e 002B     		cmp	r3, #0
 2028 0020 36DB     		blt	.L162
 2029              		.loc 1 409 0
 2030 0022 FFF7FEFF 		bl	ginput_lld_mouse_init
 2031              	.LVL182:
 2032              		.loc 1 420 0
 2033 0026 F369     		ldr	r3, [r6, #28]
 2034 0028 53B3     		cbz	r3, .L158
 2035              		.loc 1 420 0 is_stmt 0 discriminator 1
 2036 002a 2846     		mov	r0, r5
 2037 002c 9847     		blx	r3
 2038              	.LVL183:
 2039 002e 0746     		mov	r7, r0
 2040 0030 30B3     		cbz	r0, .L158
 2041              		.loc 1 421 0 is_stmt 1
 2042 0032 0068     		ldr	r0, [r0]	@ unaligned
 2043              	.LVL184:
 2044 0034 7968     		ldr	r1, [r7, #4]	@ unaligned
 2045 0036 FB68     		ldr	r3, [r7, #12]	@ unaligned
 2046 0038 BA68     		ldr	r2, [r7, #8]	@ unaligned
 2047              		.loc 1 422 0
ARM GAS  /tmp/cctb2rpb.s 			page 37


 2048 003a B6F816E0 		ldrh	lr, [r6, #22]
 2049              		.loc 1 421 0
 2050 003e 06F12005 		add	r5, r6, #32
 2051 0042 0FC5     		stmia	r5!, {r0, r1, r2, r3}
 2052 0044 3869     		ldr	r0, [r7, #16]	@ unaligned
 2053 0046 7969     		ldr	r1, [r7, #20]	@ unaligned
 2054              		.loc 1 422 0
 2055 0048 4EF06003 		orr	r3, lr, #96
 2056              		.loc 1 423 0
 2057 004c 1EF0800F 		tst	lr, #128
 2058              		.loc 1 421 0
 2059 0050 03C5     		stmia	r5!, {r0, r1}
 2060              		.loc 1 422 0
 2061 0052 F382     		strh	r3, [r6, #22]	@ movhi
 2062              		.loc 1 423 0
 2063 0054 30D1     		bne	.L176
 2064              	.LVL185:
 2065              	.L159:
 2066              		.loc 1 433 0
 2067 0056 0026     		movs	r6, #0
 2068 0058 A682     		strh	r6, [r4, #20]	@ movhi
 2069              		.loc 1 434 0
 2070 005a FFF7FEFF 		bl	get_calibrated_reading.constprop.0
 2071              	.LVL186:
 2072              		.loc 1 437 0
 2073 005e E58A     		ldrh	r5, [r4, #22]
 2074              		.loc 1 438 0
 2075 0060 1A48     		ldr	r0, .L178+4
 2076 0062 1B49     		ldr	r1, .L178+8
 2077 0064 1923     		movs	r3, #25
 2078              		.loc 1 437 0
 2079 0066 6FEA4545 		mvn	r5, r5, lsl #17
 2080              		.loc 1 438 0
 2081 006a 0093     		str	r3, [sp]
 2082 006c 3246     		mov	r2, r6
 2083              		.loc 1 437 0
 2084 006e 6FEA5545 		mvn	r5, r5, lsr #17
 2085              		.loc 1 438 0
 2086 0072 0123     		movs	r3, #1
 2087              		.loc 1 437 0
 2088 0074 E582     		strh	r5, [r4, #22]	@ movhi
 2089              		.loc 1 438 0
 2090 0076 FFF7FEFF 		bl	gtimerStart
 2091              	.LVL187:
 2092              		.loc 1 442 0
 2093 007a 1348     		ldr	r0, .L178
 2094              		.loc 1 443 0
 2095 007c 03B0     		add	sp, sp, #12
 2096              		@ sp needed
 2097 007e F0BD     		pop	{r4, r5, r6, r7, pc}
 2098              	.L158:
 2099              		.loc 1 425 0
 2100 0080 42F20F73 		movw	r3, #9999
 2101 0084 9D42     		cmp	r5, r3
 2102 0086 06D0     		beq	.L177
 2103              		.loc 1 429 0
 2104 0088 2846     		mov	r0, r5
ARM GAS  /tmp/cctb2rpb.s 			page 38


 2105 008a FFF7FEFF 		bl	ginputCalibrateMouse
 2106              	.LVL188:
 2107 008e E2E7     		b	.L159
 2108              	.LVL189:
 2109              	.L162:
 2110              		.loc 1 442 0
 2111 0090 3046     		mov	r0, r6
 2112              	.LVL190:
 2113              		.loc 1 443 0
 2114 0092 03B0     		add	sp, sp, #12
 2115              		@ sp needed
 2116 0094 F0BD     		pop	{r4, r5, r6, r7, pc}
 2117              	.L177:
 2118              	.LVL191:
 2119              		.loc 1 427 0
 2120 0096 E18A     		ldrh	r1, [r4, #22]
 2121              	.LBB82:
 2122              	.LBB83:
 2123              		.loc 1 123 0
 2124 0098 0023     		movs	r3, #0
 2125              		.loc 1 122 0
 2126 009a 4FF07E52 		mov	r2, #1065353216
 2127              	.LBE83:
 2128              	.LBE82:
 2129              		.loc 1 427 0
 2130 009e 41F4B071 		orr	r1, r1, #352
 2131 00a2 E182     		strh	r1, [r4, #22]	@ movhi
 2132              	.LBB85:
 2133              	.LBB84:
 2134              		.loc 1 123 0
 2135 00a4 6362     		str	r3, [r4, #36]	@ float
 2136              		.loc 1 124 0
 2137 00a6 A362     		str	r3, [r4, #40]	@ float
 2138              		.loc 1 125 0
 2139 00a8 E362     		str	r3, [r4, #44]	@ float
 2140              		.loc 1 127 0
 2141 00aa 6363     		str	r3, [r4, #52]	@ float
 2142              		.loc 1 122 0
 2143 00ac 2262     		str	r2, [r4, #32]	@ float
 2144              		.loc 1 126 0
 2145 00ae 2263     		str	r2, [r4, #48]	@ float
 2146              	.LBE84:
 2147              	.LBE85:
 2148 00b0 D1E7     		b	.L159
 2149              	.LVL192:
 2150              	.L161:
 2151              		.loc 1 401 0
 2152 00b2 0020     		movs	r0, #0
 2153              	.LVL193:
 2154              		.loc 1 443 0
 2155 00b4 03B0     		add	sp, sp, #12
 2156              		@ sp needed
 2157 00b6 F0BD     		pop	{r4, r5, r6, r7, pc}
 2158              	.LVL194:
 2159              	.L176:
 2160              		.loc 1 424 0
 2161 00b8 3846     		mov	r0, r7
ARM GAS  /tmp/cctb2rpb.s 			page 39


 2162 00ba FFF7FEFF 		bl	chHeapFree
 2163              	.LVL195:
 2164 00be CAE7     		b	.L159
 2165              	.LVL196:
 2166              	.L175:
 2167              		.loc 1 405 0
 2168 00c0 044B     		ldr	r3, .L178+12
 2169 00c2 1B68     		ldr	r3, [r3]
 2170 00c4 A363     		str	r3, [r4, #56]
 2171 00c6 A7E7     		b	.L157
 2172              	.L179:
 2173              		.align	2
 2174              	.L178:
 2175 00c8 00000000 		.word	.LANCHOR0
 2176 00cc 00000000 		.word	.LANCHOR1
 2177 00d0 00000000 		.word	MousePoll
 2178 00d4 00000000 		.word	GDISP
 2179              		.cfi_endproc
 2180              	.LFE120:
 2181              		.size	ginputGetMouse, .-ginputGetMouse
 2182 00d8 AFF30080 		.section	.text.ginputSetMouseCalibrationRoutines,"ax",%progbits
 2182      AFF30080 
 2183              		.align	2
 2184              		.p2align 4,,15
 2185              		.global	ginputSetMouseCalibrationRoutines
 2186              		.thumb
 2187              		.thumb_func
 2188              		.type	ginputSetMouseCalibrationRoutines, %function
 2189              	ginputSetMouseCalibrationRoutines:
 2190              	.LFB125:
 2191              		.loc 1 628 0
 2192              		.cfi_startproc
 2193              		@ args = 0, pretend = 0, frame = 0
 2194              		@ frame_needed = 0, uses_anonymous_args = 0
 2195              	.LVL197:
 2196 0000 38B5     		push	{r3, r4, r5, lr}
 2197              		.cfi_def_cfa_offset 16
 2198              		.cfi_offset 3, -16
 2199              		.cfi_offset 4, -12
 2200              		.cfi_offset 5, -8
 2201              		.cfi_offset 14, -4
 2202              		.loc 1 628 0
 2203 0002 0C46     		mov	r4, r1
 2204              		.loc 1 630 0
 2205 0004 70B9     		cbnz	r0, .L180
 2206              		.loc 1 633 0
 2207 0006 0F48     		ldr	r0, .L190
 2208              	.LVL198:
 2209 0008 C261     		str	r2, [r0, #28]
 2210              		.loc 1 634 0
 2211 000a 8161     		str	r1, [r0, #24]
 2212              		.loc 1 635 0
 2213 000c 5BB1     		cbz	r3, .L183
 2214              		.loc 1 636 0
 2215 000e C38A     		ldrh	r3, [r0, #22]
 2216              	.LVL199:
 2217 0010 43F08003 		orr	r3, r3, #128
ARM GAS  /tmp/cctb2rpb.s 			page 40


 2218 0014 C382     		strh	r3, [r0, #22]	@ movhi
 2219              	.L184:
 2220              		.loc 1 647 0
 2221 0016 2CB1     		cbz	r4, .L180
 2222              		.loc 1 647 0 is_stmt 0 discriminator 1
 2223 0018 C38A     		ldrh	r3, [r0, #22]
 2224 001a 0A4D     		ldr	r5, .L190
 2225 001c 03F06003 		and	r3, r3, #96
 2226 0020 202B     		cmp	r3, #32
 2227 0022 05D0     		beq	.L189
 2228              	.L180:
 2229 0024 38BD     		pop	{r3, r4, r5, pc}
 2230              	.LVL200:
 2231              	.L183:
 2232              		.loc 1 638 0 is_stmt 1
 2233 0026 C38A     		ldrh	r3, [r0, #22]
 2234              	.LVL201:
 2235 0028 23F08003 		bic	r3, r3, #128
 2236 002c C382     		strh	r3, [r0, #22]	@ movhi
 2237 002e F2E7     		b	.L184
 2238              	.L189:
 2239              		.loc 1 648 0
 2240 0030 0020     		movs	r0, #0
 2241 0032 05F12001 		add	r1, r5, #32
 2242              	.LVL202:
 2243 0036 1822     		movs	r2, #24
 2244              	.LVL203:
 2245 0038 A047     		blx	r4
 2246              	.LVL204:
 2247              		.loc 1 649 0
 2248 003a EB8A     		ldrh	r3, [r5, #22]
 2249 003c 43F04003 		orr	r3, r3, #64
 2250 0040 EB82     		strh	r3, [r5, #22]	@ movhi
 2251 0042 38BD     		pop	{r3, r4, r5, pc}
 2252              	.LVL205:
 2253              	.L191:
 2254              		.align	2
 2255              	.L190:
 2256 0044 00000000 		.word	.LANCHOR0
 2257              		.cfi_endproc
 2258              	.LFE125:
 2259              		.size	ginputSetMouseCalibrationRoutines, .-ginputSetMouseCalibrationRoutines
 2260 0048 AFF30080 		.section	.text.ginputRequireMouseCalibrationStorage,"ax",%progbits
 2260      AFF30080 
 2261              		.align	2
 2262              		.p2align 4,,15
 2263              		.global	ginputRequireMouseCalibrationStorage
 2264              		.thumb
 2265              		.thumb_func
 2266              		.type	ginputRequireMouseCalibrationStorage, %function
 2267              	ginputRequireMouseCalibrationStorage:
 2268              	.LFB126:
 2269              		.loc 1 657 0
 2270              		.cfi_startproc
 2271              		@ args = 0, pretend = 0, frame = 0
 2272              		@ frame_needed = 0, uses_anonymous_args = 0
 2273              		@ link register save eliminated.
ARM GAS  /tmp/cctb2rpb.s 			page 41


 2274              	.LVL206:
 2275              		.loc 1 666 0
 2276 0000 D0F10100 		rsbs	r0, r0, #1
 2277              	.LVL207:
 2278 0004 38BF     		it	cc
 2279 0006 0020     		movcc	r0, #0
 2280 0008 7047     		bx	lr
 2281              		.cfi_endproc
 2282              	.LFE126:
 2283              		.size	ginputRequireMouseCalibrationStorage, .-ginputRequireMouseCalibrationStorage
 2284 000a 00BFAFF3 		.section	.text.ginputMouseWakeup,"ax",%progbits
 2284      0080
 2285              		.align	2
 2286              		.p2align 4,,15
 2287              		.global	ginputMouseWakeup
 2288              		.thumb
 2289              		.thumb_func
 2290              		.type	ginputMouseWakeup, %function
 2291              	ginputMouseWakeup:
 2292              	.LFB127:
 2293              		.loc 1 669 0
 2294              		.cfi_startproc
 2295              		@ args = 0, pretend = 0, frame = 0
 2296              		@ frame_needed = 0, uses_anonymous_args = 0
 2297              		@ link register save eliminated.
 2298              		.loc 1 670 0
 2299 0000 0148     		ldr	r0, .L194
 2300 0002 FFF7FEBF 		b	gtimerJab
 2301              	.LVL208:
 2302              	.L195:
 2303 0006 00BF     		.align	2
 2304              	.L194:
 2305 0008 00000000 		.word	.LANCHOR1
 2306              		.cfi_endproc
 2307              	.LFE127:
 2308              		.size	ginputMouseWakeup, .-ginputMouseWakeup
 2309 000c AFF30080 		.section	.text.ginputMouseWakeupI,"ax",%progbits
 2310              		.align	2
 2311              		.p2align 4,,15
 2312              		.global	ginputMouseWakeupI
 2313              		.thumb
 2314              		.thumb_func
 2315              		.type	ginputMouseWakeupI, %function
 2316              	ginputMouseWakeupI:
 2317              	.LFB128:
 2318              		.loc 1 674 0
 2319              		.cfi_startproc
 2320              		@ args = 0, pretend = 0, frame = 0
 2321              		@ frame_needed = 0, uses_anonymous_args = 0
 2322              		@ link register save eliminated.
 2323              		.loc 1 675 0
 2324 0000 0148     		ldr	r0, .L197
 2325 0002 FFF7FEBF 		b	gtimerJabI
 2326              	.LVL209:
 2327              	.L198:
 2328 0006 00BF     		.align	2
 2329              	.L197:
ARM GAS  /tmp/cctb2rpb.s 			page 42


 2330 0008 00000000 		.word	.LANCHOR1
 2331              		.cfi_endproc
 2332              	.LFE128:
 2333              		.size	ginputMouseWakeupI, .-ginputMouseWakeupI
 2334 000c AFF30080 		.section	.bss.MouseTimer,"aw",%nobits
 2335              		.align	2
 2336              		.set	.LANCHOR1,. + 0
 2337              		.type	MouseTimer, %object
 2338              		.size	MouseTimer, 28
 2339              	MouseTimer:
 2340 0000 00000000 		.space	28
 2340      00000000 
 2340      00000000 
 2340      00000000 
 2340      00000000 
 2341              		.section	.bss.MouseConfig,"aw",%nobits
 2342              		.align	2
 2343              		.set	.LANCHOR0,. + 0
 2344              		.type	MouseConfig, %object
 2345              		.size	MouseConfig, 60
 2346              	MouseConfig:
 2347 0000 00000000 		.space	60
 2347      00000000 
 2347      00000000 
 2347      00000000 
 2347      00000000 
 2348              		.section	.rodata.str1.4,"aMS",%progbits,1
 2349              		.align	2
 2350              	.LC0:
 2351 0000 2A20446F 		.ascii	"* Double\000"
 2351      75626C65 
 2351      00
 2352 0009 000000   		.space	3
 2353              	.LC1:
 2354 000c 2A204E61 		.ascii	"* Narrow\000"
 2354      72726F77 
 2354      00
 2355 0015 000000   		.space	3
 2356              	.LC2:
 2357 0018 43616C69 		.ascii	"Calibration\000"
 2357      62726174 
 2357      696F6E00 
 2358              	.LC3:
 2359 0024 4572726F 		.ascii	"Error: Same Reading - Check Driver!\000"
 2359      723A2053 
 2359      616D6520 
 2359      52656164 
 2359      696E6720 
 2360              	.LC4:
 2361 0048 4661696C 		.ascii	"Failed - Please try again!\000"
 2361      6564202D 
 2361      20506C65 
 2361      61736520 
 2361      74727920 
 2362 0063 00       		.text
 2363              	.Letext0:
 2364              		.file 2 "/opt/ARM/lib/gcc/arm-none-eabi/4.8.4/include/stddef.h"
ARM GAS  /tmp/cctb2rpb.s 			page 43


 2365              		.file 3 "/opt/ARM/arm-none-eabi/include/machine/_default_types.h"
 2366              		.file 4 "/opt/ARM/arm-none-eabi/include/stdint.h"
 2367              		.file 5 "../../os/ports/GCC/ARMCMx/chtypes.h"
 2368              		.file 6 "../../os/kernel/include/chlists.h"
 2369              		.file 7 "../../os/kernel/include/chthreads.h"
 2370              		.file 8 "../../os/ports/GCC/ARMCMx/chcore_v7m.h"
 2371              		.file 9 "../../os/kernel/include/chvt.h"
 2372              		.file 10 "../../os/kernel/include/chsem.h"
 2373              		.file 11 "../../os/kernel/include/chmtx.h"
 2374              		.file 12 "/home/makkmarci/devel/ugfx/src/gos/chibios.h"
 2375              		.file 13 "/home/makkmarci/devel/ugfx/src/gevent/sys_defs.h"
 2376              		.file 14 "/home/makkmarci/devel/ugfx/src/gtimer/sys_defs.h"
 2377              		.file 15 "/home/makkmarci/devel/ugfx/src/gdisp/sys_defs.h"
 2378              		.file 16 "/home/makkmarci/devel/ugfx/src/gdisp/colors.h"
 2379              		.file 17 "/home/makkmarci/devel/ugfx/src/ginput/mouse.h"
 2380              		.file 18 "/home/makkmarci/devel/ugfx/src/ginput/driver_mouse.h"
 2381              		.file 19 "../../os/ports/common/ARMCMx/CMSIS/include/core_cm4.h"
 2382              		.file 20 "../../os/kernel/include/chheap.h"
 2383              		.file 21 "/home/makkmarci/devel/ugfx/src/gwin/sys_defs.h"