ARM GAS  /tmp/ccNXVJJE.s 			page 1


   1              		.syntax unified
   2              		.cpu cortex-m4
   3              		.eabi_attribute 27, 3
   4              		.eabi_attribute 28, 1
   5              		.fpu fpv4-sp-d16
   6              		.eabi_attribute 20, 1
   7              		.eabi_attribute 21, 1
   8              		.eabi_attribute 23, 3
   9              		.eabi_attribute 24, 1
  10              		.eabi_attribute 25, 1
  11              		.eabi_attribute 26, 1
  12              		.eabi_attribute 30, 2
  13              		.eabi_attribute 34, 1
  14              		.eabi_attribute 18, 4
  15              		.thumb
  16              		.file	"myFunc.c"
  17              		.text
  18              	.Ltext0:
  19              		.cfi_sections	.debug_frame
  20              		.section	.text.Thread1,"ax",%progbits
  21              		.align	2
  22              		.p2align 4,,15
  23              		.thumb
  24              		.thumb_func
  25              		.type	Thread1, %function
  26              	Thread1:
  27              	.LFB111:
  28              		.file 1 "myFunc.c"
  29              		.loc 1 19 0
  30              		.cfi_startproc
  31              		@ Volatile: function does not return.
  32              		@ args = 0, pretend = 0, frame = 0
  33              		@ frame_needed = 0, uses_anonymous_args = 0
  34              	.LVL0:
  35 0000 08B5     		push	{r3, lr}
  36              		.cfi_def_cfa_offset 8
  37              		.cfi_offset 3, -8
  38              		.cfi_offset 14, -4
  39              		.loc 1 22 0
  40 0002 094B     		ldr	r3, .L4
  41 0004 094A     		ldr	r2, .L4+4
  42 0006 9B69     		ldr	r3, [r3, #24]
  43              		.loc 1 24 0
  44 0008 094C     		ldr	r4, .L4+8
  45              		.loc 1 22 0
  46 000a 9A61     		str	r2, [r3, #24]
  47              		.loc 1 24 0
  48 000c 4FF40055 		mov	r5, #8192
  49 0010 2E46     		mov	r6, r5	@ movhi
  50              	.LVL1:
  51              	.L2:
  52              		.loc 1 24 0 is_stmt 0 discriminator 1
  53 0012 2683     		strh	r6, [r4, #24]	@ movhi
  54              		.loc 1 25 0 is_stmt 1 discriminator 1
  55 0014 4FF4FA70 		mov	r0, #500
  56 0018 FFF7FEFF 		bl	chThdSleep
  57              	.LVL2:
ARM GAS  /tmp/ccNXVJJE.s 			page 2


  58              		.loc 1 26 0 discriminator 1
  59 001c 6583     		strh	r5, [r4, #26]	@ movhi
  60              		.loc 1 27 0 discriminator 1
  61 001e 4FF4FA70 		mov	r0, #500
  62 0022 FFF7FEFF 		bl	chThdSleep
  63              	.LVL3:
  64 0026 F4E7     		b	.L2
  65              	.L5:
  66              		.align	2
  67              	.L4:
  68 0028 00000000 		.word	rlist
  69 002c 00000000 		.word	.LC0
  70 0030 000C0240 		.word	1073875968
  71              		.cfi_endproc
  72              	.LFE111:
  73              		.size	Thread1, .-Thread1
  74 0034 AFF30080 		.section	.text.startBlinker,"ax",%progbits
  74      AFF30080 
  74      AFF30080 
  75              		.align	2
  76              		.p2align 4,,15
  77              		.global	startBlinker
  78              		.thumb
  79              		.thumb_func
  80              		.type	startBlinker, %function
  81              	startBlinker:
  82              	.LFB112:
  83              		.loc 1 32 0
  84              		.cfi_startproc
  85              		@ args = 0, pretend = 0, frame = 0
  86              		@ frame_needed = 0, uses_anonymous_args = 0
  87 0000 00B5     		push	{lr}
  88              		.cfi_def_cfa_offset 4
  89              		.cfi_offset 14, -4
  90 0002 83B0     		sub	sp, sp, #12
  91              		.cfi_def_cfa_offset 16
  92              		.loc 1 33 0
  93 0004 0023     		movs	r3, #0
  94 0006 0093     		str	r3, [sp]
  95 0008 4FF4AB61 		mov	r1, #1368
  96 000c 034B     		ldr	r3, .L7
  97 000e 0448     		ldr	r0, .L7+4
  98 0010 4022     		movs	r2, #64
  99 0012 FFF7FEFF 		bl	chThdCreateStatic
 100              	.LVL4:
 101              		.loc 1 34 0
 102 0016 03B0     		add	sp, sp, #12
 103              		@ sp needed
 104 0018 5DF804FB 		ldr	pc, [sp], #4
 105              	.L8:
 106              		.align	2
 107              	.L7:
 108 001c 00000000 		.word	Thread1
 109 0020 00000000 		.word	.LANCHOR0
 110              		.cfi_endproc
 111              	.LFE112:
 112              		.size	startBlinker, .-startBlinker
ARM GAS  /tmp/ccNXVJJE.s 			page 3


 113 0024 AFF30080 		.section	.bss.waThread1,"aw",%nobits
 113      AFF30080 
 113      AFF30080 
 114              		.align	3
 115              		.set	.LANCHOR0,. + 0
 116              		.type	waThread1, %object
 117              		.size	waThread1, 1368
 118              	waThread1:
 119 0000 00000000 		.space	1368
 119      00000000 
 119      00000000 
 119      00000000 
 119      00000000 
 120              		.section	.rodata.str1.4,"aMS",%progbits,1
 121              		.align	2
 122              	.LC0:
 123 0000 626C696E 		.ascii	"blinker\000"
 123      6B657200 
 124              		.text
 125              	.Letext0:
 126              		.file 2 "/opt/ARM/lib/gcc/arm-none-eabi/4.8.4/include/stddef.h"
 127              		.file 3 "/opt/ARM/arm-none-eabi/include/machine/_default_types.h"
 128              		.file 4 "/opt/ARM/arm-none-eabi/include/stdint.h"
 129              		.file 5 "../../os/ports/GCC/ARMCMx/chtypes.h"
 130              		.file 6 "../../os/kernel/include/chlists.h"
 131              		.file 7 "../../os/kernel/include/chthreads.h"
 132              		.file 8 "../../os/ports/GCC/ARMCMx/chcore_v7m.h"
 133              		.file 9 "../../os/kernel/include/chschd.h"
 134              		.file 10 "../../os/kernel/include/chmtx.h"
 135              		.file 11 "../../os/hal/platforms/STM32/GPIOv2/pal_lld.h"
 136              		.file 12 "../../os/ports/common/ARMCMx/CMSIS/include/core_cm4.h"