ARM GAS  /tmp/ccLqp2Za.s 			page 1


   1              		.syntax unified
   2              		.cpu cortex-m4
   3              		.eabi_attribute 27, 3
   4              		.eabi_attribute 28, 1
   5              		.fpu fpv4-sp-d16
   6              		.eabi_attribute 20, 1
   7              		.eabi_attribute 21, 1
   8              		.eabi_attribute 23, 3
   9              		.eabi_attribute 24, 1
  10              		.eabi_attribute 25, 1
  11              		.eabi_attribute 26, 1
  12              		.eabi_attribute 30, 2
  13              		.eabi_attribute 34, 1
  14              		.eabi_attribute 18, 4
  15              		.thumb
  16              		.file	"pal.c"
  17              		.text
  18              	.Ltext0:
  19              		.cfi_sections	.debug_frame
  20              		.section	.text.palReadBus,"ax",%progbits
  21              		.align	2
  22              		.p2align 4,,15
  23              		.global	palReadBus
  24              		.thumb
  25              		.thumb_func
  26              		.type	palReadBus, %function
  27              	palReadBus:
  28              	.LFB118:
  29              		.file 1 "../../os/hal/src/pal.c"
  30              		.loc 1 77 0
  31              		.cfi_startproc
  32              		@ args = 0, pretend = 0, frame = 0
  33              		@ frame_needed = 0, uses_anonymous_args = 0
  34              	.LVL0:
  35 0000 10B5     		push	{r4, lr}
  36              		.cfi_def_cfa_offset 8
  37              		.cfi_offset 4, -8
  38              		.cfi_offset 14, -4
  39              		.loc 1 79 0
  40 0002 0446     		mov	r4, r0
  41 0004 10B1     		cbz	r0, .L2
  42              		.loc 1 79 0 is_stmt 0 discriminator 2
  43 0006 8368     		ldr	r3, [r0, #8]
  44 0008 0F2B     		cmp	r3, #15
  45 000a 03D9     		bls	.L3
  46              	.L2:
  47              		.loc 1 79 0 discriminator 1
  48 000c 0548     		ldr	r0, .L8
  49              	.LVL1:
  50 000e FFF7FEFF 		bl	chDbgPanic
  51              	.LVL2:
  52 0012 A368     		ldr	r3, [r4, #8]
  53              	.L3:
  54              		.loc 1 82 0 is_stmt 1
  55 0014 2168     		ldr	r1, [r4]
  56 0016 6068     		ldr	r0, [r4, #4]
  57 0018 0969     		ldr	r1, [r1, #16]
ARM GAS  /tmp/ccLqp2Za.s 			page 2


  58 001a 21FA03F3 		lsr	r3, r1, r3
  59              		.loc 1 83 0
  60 001e 1840     		ands	r0, r0, r3
  61 0020 10BD     		pop	{r4, pc}
  62              	.LVL3:
  63              	.L9:
  64 0022 00BF     		.align	2
  65              	.L8:
  66 0024 00000000 		.word	.LC0
  67              		.cfi_endproc
  68              	.LFE118:
  69              		.size	palReadBus, .-palReadBus
  70 0028 AFF30080 		.section	.text.palWriteBus,"ax",%progbits
  70      AFF30080 
  71              		.align	2
  72              		.p2align 4,,15
  73              		.global	palWriteBus
  74              		.thumb
  75              		.thumb_func
  76              		.type	palWriteBus, %function
  77              	palWriteBus:
  78              	.LFB119:
  79              		.loc 1 103 0
  80              		.cfi_startproc
  81              		@ args = 0, pretend = 0, frame = 0
  82              		@ frame_needed = 0, uses_anonymous_args = 0
  83              	.LVL4:
  84 0000 38B5     		push	{r3, r4, r5, lr}
  85              		.cfi_def_cfa_offset 16
  86              		.cfi_offset 3, -16
  87              		.cfi_offset 4, -12
  88              		.cfi_offset 5, -8
  89              		.cfi_offset 14, -4
  90              		.loc 1 105 0
  91 0002 0446     		mov	r4, r0
  92              		.loc 1 103 0
  93 0004 0D46     		mov	r5, r1
  94              		.loc 1 105 0
  95 0006 10B1     		cbz	r0, .L11
  96              		.loc 1 105 0 is_stmt 0 discriminator 2
  97 0008 8368     		ldr	r3, [r0, #8]
  98 000a 0F2B     		cmp	r3, #15
  99 000c 03D9     		bls	.L12
 100              	.L11:
 101              		.loc 1 105 0 discriminator 1
 102 000e 0948     		ldr	r0, .L16
 103              	.LVL5:
 104 0010 FFF7FEFF 		bl	chDbgPanic
 105              	.LVL6:
 106 0014 A368     		ldr	r3, [r4, #8]
 107              	.L12:
 108              		.loc 1 108 0 is_stmt 1
 109 0016 94E80600 		ldmia	r4, {r1, r2}
 110 001a 03F11000 		add	r0, r3, #16
 111 001e 22EA0504 		bic	r4, r2, r5
 112              	.LVL7:
 113 0022 1540     		ands	r5, r5, r2
ARM GAS  /tmp/ccLqp2Za.s 			page 3


 114              	.LVL8:
 115 0024 05FA03F3 		lsl	r3, r5, r3
 116 0028 04FA00F2 		lsl	r2, r4, r0
 117 002c 1343     		orrs	r3, r3, r2
 118 002e 8B61     		str	r3, [r1, #24]
 119 0030 38BD     		pop	{r3, r4, r5, pc}
 120              	.L17:
 121 0032 00BF     		.align	2
 122              	.L16:
 123 0034 10000000 		.word	.LC1
 124              		.cfi_endproc
 125              	.LFE119:
 126              		.size	palWriteBus, .-palWriteBus
 127 0038 AFF30080 		.section	.text.palSetBusMode,"ax",%progbits
 127      AFF30080 
 128              		.align	2
 129              		.p2align 4,,15
 130              		.global	palSetBusMode
 131              		.thumb
 132              		.thumb_func
 133              		.type	palSetBusMode, %function
 134              	palSetBusMode:
 135              	.LFB120:
 136              		.loc 1 127 0
 137              		.cfi_startproc
 138              		@ args = 0, pretend = 0, frame = 0
 139              		@ frame_needed = 0, uses_anonymous_args = 0
 140              	.LVL9:
 141 0000 70B5     		push	{r4, r5, r6, lr}
 142              		.cfi_def_cfa_offset 16
 143              		.cfi_offset 4, -16
 144              		.cfi_offset 5, -12
 145              		.cfi_offset 6, -8
 146              		.cfi_offset 14, -4
 147              		.loc 1 129 0
 148 0002 0446     		mov	r4, r0
 149              		.loc 1 127 0
 150 0004 0E46     		mov	r6, r1
 151              		.loc 1 129 0
 152 0006 10B1     		cbz	r0, .L19
 153              		.loc 1 129 0 is_stmt 0 discriminator 2
 154 0008 8168     		ldr	r1, [r0, #8]
 155              	.LVL10:
 156 000a 0F29     		cmp	r1, #15
 157 000c 03D9     		bls	.L20
 158              	.L19:
 159              		.loc 1 129 0 discriminator 1
 160 000e 0648     		ldr	r0, .L24
 161              	.LVL11:
 162 0010 FFF7FEFF 		bl	chDbgPanic
 163              	.LVL12:
 164 0014 A168     		ldr	r1, [r4, #8]
 165              	.L20:
 166              		.loc 1 132 0 is_stmt 1
 167 0016 94E82100 		ldmia	r4, {r0, r5}
 168 001a 3246     		mov	r2, r6
 169 001c 05FA01F1 		lsl	r1, r5, r1
ARM GAS  /tmp/ccLqp2Za.s 			page 4


 170              		.loc 1 133 0
 171 0020 BDE87040 		pop	{r4, r5, r6, lr}
 172              	.LVL13:
 173              		.loc 1 132 0
 174 0024 FFF7FEBF 		b	_pal_lld_setgroupmode
 175              	.LVL14:
 176              	.L25:
 177              		.align	2
 178              	.L24:
 179 0028 20000000 		.word	.LC2
 180              		.cfi_endproc
 181              	.LFE120:
 182              		.size	palSetBusMode, .-palSetBusMode
 183 002c AFF30080 		.section	.rodata.str1.4,"aMS",%progbits,1
 184              		.align	2
 185              	.LC0:
 186 0000 2270616C 		.ascii	"\"palReadBus\"()\000"
 186      52656164 
 186      42757322 
 186      282900
 187 000f 00       		.space	1
 188              	.LC1:
 189 0010 2270616C 		.ascii	"\"palWriteBus\"()\000"
 189      57726974 
 189      65427573 
 189      22282900 
 190              	.LC2:
 191 0020 2270616C 		.ascii	"\"palSetBusMode\"()\000"
 191      53657442 
 191      75734D6F 
 191      64652228 
 191      2900
 192 0032 0000     		.text
 193              	.Letext0:
 194              		.file 2 "/opt/ARM/arm-none-eabi/include/machine/_default_types.h"
 195              		.file 3 "/opt/ARM/arm-none-eabi/include/stdint.h"
 196              		.file 4 "../../os/hal/platforms/STM32/GPIOv2/pal_lld.h"
 197              		.file 5 "../../os/hal/include/pal.h"
 198              		.file 6 "../../os/ports/common/ARMCMx/CMSIS/include/core_cm4.h"
 199              		.file 7 "../../os/kernel/include/chdebug.h"