ARM GAS  /tmp/ccQpDTAl.s 			page 1


   1              		.syntax unified
   2              		.cpu cortex-m4
   3              		.eabi_attribute 27, 1
   4              		.eabi_attribute 28, 1
   5              		.fpu fpv4-sp-d16
   6              		.eabi_attribute 20, 1
   7              		.eabi_attribute 21, 1
   8              		.eabi_attribute 23, 3
   9              		.eabi_attribute 24, 1
  10              		.eabi_attribute 25, 1
  11              		.eabi_attribute 26, 1
  12              		.eabi_attribute 30, 6
  13              		.eabi_attribute 34, 1
  14              		.eabi_attribute 18, 4
  15              		.thumb
  16              		.file	"pwm.c"
  17              		.text
  18              	.Ltext0:
  19              		.cfi_sections	.debug_frame
  20              		.section	.text.pwmInit,"ax",%progbits
  21              		.align	2
  22              		.p2align 4,,15
  23              		.global	pwmInit
  24              		.thumb
  25              		.thumb_func
  26              		.type	pwmInit, %function
  27              	pwmInit:
  28              	.LFB111:
  29              		.file 1 "/home/makkmarci/workspace/ChibiOS_2.6.8/os/hal/src/pwm.c"
  30              		.loc 1 68 0
  31              		.cfi_startproc
  32              		@ args = 0, pretend = 0, frame = 0
  33              		@ frame_needed = 0, uses_anonymous_args = 0
  34 0000 08B5     		push	{r3, lr}
  35              		.cfi_def_cfa_offset 8
  36              		.cfi_offset 3, -8
  37              		.cfi_offset 14, -4
  38              		.loc 1 70 0
  39 0002 FFF7FEFF 		bl	pwm_lld_init
  40              		.loc 1 71 0
  41 0006 08BD     		pop	{r3, pc}
  42              		.cfi_endproc
  43              	.LFE111:
  44              		.size	pwmInit, .-pwmInit
  45 0008 AFF30080 		.section	.text.pwmObjectInit,"ax",%progbits
  45      AFF30080 
  46              		.align	2
  47              		.p2align 4,,15
  48              		.global	pwmObjectInit
  49              		.thumb
  50              		.thumb_func
  51              		.type	pwmObjectInit, %function
  52              	pwmObjectInit:
  53              	.LFB112:
  54              		.loc 1 80 0
  55              		.cfi_startproc
  56              		@ args = 0, pretend = 0, frame = 8
ARM GAS  /tmp/ccQpDTAl.s 			page 2


  57              		@ frame_needed = 0, uses_anonymous_args = 0
  58              		@ link register save eliminated.
  59 0000 82B0     		sub	sp, sp, #8
  60              		.cfi_def_cfa_offset 8
  61 0002 0190     		str	r0, [sp, #4]
  62              		.loc 1 82 0
  63 0004 019B     		ldr	r3, [sp, #4]
  64 0006 0122     		movs	r2, #1
  65 0008 1A70     		strb	r2, [r3]
  66              		.loc 1 83 0
  67 000a 019B     		ldr	r3, [sp, #4]
  68 000c 0022     		movs	r2, #0
  69 000e 5A60     		str	r2, [r3, #4]
  70              		.loc 1 87 0
  71 0010 02B0     		add	sp, sp, #8
  72              		.cfi_def_cfa_offset 0
  73              		@ sp needed
  74 0012 7047     		bx	lr
  75              		.cfi_endproc
  76              	.LFE112:
  77              		.size	pwmObjectInit, .-pwmObjectInit
  78 0014 AFF30080 		.section	.rodata
  78      AFF30080 
  78      AFF30080 
  79              		.align	2
  80              	.LC0:
  81 0000 2270776D 		.ascii	"\"pwmStart\"()\000"
  81      53746172 
  81      74222829 
  81      00
  82 000d 000000   		.align	2
  83              	.LC1:
  84 0010 70776D53 		.ascii	"pwmStart(), #1\000"
  84      74617274 
  84      28292C20 
  84      233100
  85              		.section	.text.pwmStart,"ax",%progbits
  86              		.align	2
  87              		.p2align 4,,15
  88              		.global	pwmStart
  89              		.thumb
  90              		.thumb_func
  91              		.type	pwmStart, %function
  92              	pwmStart:
  93              	.LFB113:
  94              		.loc 1 99 0
  95              		.cfi_startproc
  96              		@ args = 0, pretend = 0, frame = 8
  97              		@ frame_needed = 0, uses_anonymous_args = 0
  98 0000 00B5     		push	{lr}
  99              		.cfi_def_cfa_offset 4
 100              		.cfi_offset 14, -4
 101 0002 83B0     		sub	sp, sp, #12
 102              		.cfi_def_cfa_offset 16
 103 0004 0190     		str	r0, [sp, #4]
 104 0006 0091     		str	r1, [sp]
 105              		.loc 1 101 0
ARM GAS  /tmp/ccQpDTAl.s 			page 3


 106 0008 019B     		ldr	r3, [sp, #4]
 107 000a 002B     		cmp	r3, #0
 108 000c 02D0     		beq	.L4
 109              		.loc 1 101 0 is_stmt 0 discriminator 2
 110 000e 009B     		ldr	r3, [sp]
 111 0010 002B     		cmp	r3, #0
 112 0012 02D1     		bne	.L5
 113              	.L4:
 114              		.loc 1 101 0 discriminator 3
 115 0014 1048     		ldr	r0, .L7
 116 0016 FFF7FEFF 		bl	chDbgPanic
 117              	.L5:
 118              		.loc 1 103 0 is_stmt 1
 119              	@ 103 "/home/makkmarci/workspace/ChibiOS_2.6.8/os/hal/src/pwm.c" 1
 120 001a FFF7FEFF 		bl      _port_lock
 121              	@ 0 "" 2
 122              		.loc 1 104 0
 123              		.thumb
 124 001e 019B     		ldr	r3, [sp, #4]
 125 0020 1B78     		ldrb	r3, [r3]	@ zero_extendqisi2
 126 0022 012B     		cmp	r3, #1
 127 0024 06D0     		beq	.L6
 128              		.loc 1 104 0 is_stmt 0 discriminator 1
 129 0026 019B     		ldr	r3, [sp, #4]
 130 0028 1B78     		ldrb	r3, [r3]	@ zero_extendqisi2
 131 002a 022B     		cmp	r3, #2
 132 002c 02D0     		beq	.L6
 133              		.loc 1 104 0 discriminator 2
 134 002e 0B48     		ldr	r0, .L7+4
 135 0030 FFF7FEFF 		bl	chDbgPanic
 136              	.L6:
 137              		.loc 1 106 0 is_stmt 1
 138 0034 019B     		ldr	r3, [sp, #4]
 139 0036 009A     		ldr	r2, [sp]
 140 0038 5A60     		str	r2, [r3, #4]
 141              		.loc 1 107 0
 142 003a 009B     		ldr	r3, [sp]
 143 003c 9A88     		ldrh	r2, [r3, #4]
 144 003e 019B     		ldr	r3, [sp, #4]
 145 0040 1A81     		strh	r2, [r3, #8]	@ movhi
 146              		.loc 1 108 0
 147 0042 0198     		ldr	r0, [sp, #4]
 148 0044 FFF7FEFF 		bl	pwm_lld_start
 149              		.loc 1 109 0
 150 0048 019B     		ldr	r3, [sp, #4]
 151 004a 0222     		movs	r2, #2
 152 004c 1A70     		strb	r2, [r3]
 153              		.loc 1 110 0
 154              	@ 110 "/home/makkmarci/workspace/ChibiOS_2.6.8/os/hal/src/pwm.c" 1
 155 004e FFF7FEFF 		bl      _port_unlock
 156              	@ 0 "" 2
 157              		.loc 1 111 0
 158              		.thumb
 159 0052 03B0     		add	sp, sp, #12
 160              		.cfi_def_cfa_offset 4
 161              		@ sp needed
 162 0054 5DF804FB 		ldr	pc, [sp], #4
ARM GAS  /tmp/ccQpDTAl.s 			page 4


 163              	.L8:
 164              		.align	2
 165              	.L7:
 166 0058 00000000 		.word	.LC0
 167 005c 10000000 		.word	.LC1
 168              		.cfi_endproc
 169              	.LFE113:
 170              		.size	pwmStart, .-pwmStart
 171              		.section	.rodata
 172 001f 00       		.align	2
 173              	.LC2:
 174 0020 2270776D 		.ascii	"\"pwmStop\"()\000"
 174      53746F70 
 174      22282900 
 175              		.align	2
 176              	.LC3:
 177 002c 70776D53 		.ascii	"pwmStop(), #1\000"
 177      746F7028 
 177      292C2023 
 177      3100
 178              		.section	.text.pwmStop,"ax",%progbits
 179              		.align	2
 180              		.p2align 4,,15
 181              		.global	pwmStop
 182              		.thumb
 183              		.thumb_func
 184              		.type	pwmStop, %function
 185              	pwmStop:
 186              	.LFB114:
 187              		.loc 1 120 0
 188              		.cfi_startproc
 189              		@ args = 0, pretend = 0, frame = 8
 190              		@ frame_needed = 0, uses_anonymous_args = 0
 191 0000 00B5     		push	{lr}
 192              		.cfi_def_cfa_offset 4
 193              		.cfi_offset 14, -4
 194 0002 83B0     		sub	sp, sp, #12
 195              		.cfi_def_cfa_offset 16
 196 0004 0190     		str	r0, [sp, #4]
 197              		.loc 1 122 0
 198 0006 019B     		ldr	r3, [sp, #4]
 199 0008 002B     		cmp	r3, #0
 200 000a 02D1     		bne	.L10
 201              		.loc 1 122 0 is_stmt 0 discriminator 1
 202 000c 0D48     		ldr	r0, .L12
 203 000e FFF7FEFF 		bl	chDbgPanic
 204              	.L10:
 205              		.loc 1 124 0 is_stmt 1
 206              	@ 124 "/home/makkmarci/workspace/ChibiOS_2.6.8/os/hal/src/pwm.c" 1
 207 0012 FFF7FEFF 		bl      _port_lock
 208              	@ 0 "" 2
 209              		.loc 1 125 0
 210              		.thumb
 211 0016 019B     		ldr	r3, [sp, #4]
 212 0018 1B78     		ldrb	r3, [r3]	@ zero_extendqisi2
 213 001a 012B     		cmp	r3, #1
 214 001c 06D0     		beq	.L11
ARM GAS  /tmp/ccQpDTAl.s 			page 5


 215              		.loc 1 125 0 is_stmt 0 discriminator 1
 216 001e 019B     		ldr	r3, [sp, #4]
 217 0020 1B78     		ldrb	r3, [r3]	@ zero_extendqisi2
 218 0022 022B     		cmp	r3, #2
 219 0024 02D0     		beq	.L11
 220              		.loc 1 125 0 discriminator 2
 221 0026 0848     		ldr	r0, .L12+4
 222 0028 FFF7FEFF 		bl	chDbgPanic
 223              	.L11:
 224              		.loc 1 127 0 is_stmt 1
 225 002c 0198     		ldr	r0, [sp, #4]
 226 002e FFF7FEFF 		bl	pwm_lld_stop
 227              		.loc 1 128 0
 228 0032 019B     		ldr	r3, [sp, #4]
 229 0034 0122     		movs	r2, #1
 230 0036 1A70     		strb	r2, [r3]
 231              		.loc 1 129 0
 232              	@ 129 "/home/makkmarci/workspace/ChibiOS_2.6.8/os/hal/src/pwm.c" 1
 233 0038 FFF7FEFF 		bl      _port_unlock
 234              	@ 0 "" 2
 235              		.loc 1 130 0
 236              		.thumb
 237 003c 03B0     		add	sp, sp, #12
 238              		.cfi_def_cfa_offset 4
 239              		@ sp needed
 240 003e 5DF804FB 		ldr	pc, [sp], #4
 241              	.L13:
 242 0042 00BF     		.align	2
 243              	.L12:
 244 0044 20000000 		.word	.LC2
 245 0048 2C000000 		.word	.LC3
 246              		.cfi_endproc
 247              	.LFE114:
 248              		.size	pwmStop, .-pwmStop
 249 004c AFF30080 		.section	.rodata
 250 003a 0000     		.align	2
 251              	.LC4:
 252 003c 2270776D 		.ascii	"\"pwmChangePeriod\"()\000"
 252      4368616E 
 252      67655065 
 252      72696F64 
 252      22282900 
 253              		.align	2
 254              	.LC5:
 255 0050 70776D43 		.ascii	"pwmChangePeriod(), #1\000"
 255      68616E67 
 255      65506572 
 255      696F6428 
 255      292C2023 
 256              		.section	.text.pwmChangePeriod,"ax",%progbits
 257              		.align	2
 258              		.p2align 4,,15
 259              		.global	pwmChangePeriod
 260              		.thumb
 261              		.thumb_func
 262              		.type	pwmChangePeriod, %function
 263              	pwmChangePeriod:
ARM GAS  /tmp/ccQpDTAl.s 			page 6


 264              	.LFB115:
 265              		.loc 1 147 0
 266              		.cfi_startproc
 267              		@ args = 0, pretend = 0, frame = 8
 268              		@ frame_needed = 0, uses_anonymous_args = 0
 269 0000 00B5     		push	{lr}
 270              		.cfi_def_cfa_offset 4
 271              		.cfi_offset 14, -4
 272 0002 83B0     		sub	sp, sp, #12
 273              		.cfi_def_cfa_offset 16
 274 0004 0190     		str	r0, [sp, #4]
 275 0006 0B46     		mov	r3, r1
 276 0008 ADF80230 		strh	r3, [sp, #2]	@ movhi
 277              		.loc 1 149 0
 278 000c 019B     		ldr	r3, [sp, #4]
 279 000e 002B     		cmp	r3, #0
 280 0010 02D1     		bne	.L15
 281              		.loc 1 149 0 is_stmt 0 discriminator 1
 282 0012 0E48     		ldr	r0, .L17
 283 0014 FFF7FEFF 		bl	chDbgPanic
 284              	.L15:
 285              		.loc 1 151 0 is_stmt 1
 286              	@ 151 "/home/makkmarci/workspace/ChibiOS_2.6.8/os/hal/src/pwm.c" 1
 287 0018 FFF7FEFF 		bl      _port_lock
 288              	@ 0 "" 2
 289              		.loc 1 152 0
 290              		.thumb
 291 001c 019B     		ldr	r3, [sp, #4]
 292 001e 1B78     		ldrb	r3, [r3]	@ zero_extendqisi2
 293 0020 022B     		cmp	r3, #2
 294 0022 02D0     		beq	.L16
 295              		.loc 1 152 0 is_stmt 0 discriminator 1
 296 0024 0A48     		ldr	r0, .L17+4
 297 0026 FFF7FEFF 		bl	chDbgPanic
 298              	.L16:
 299              		.loc 1 154 0 is_stmt 1
 300 002a 019B     		ldr	r3, [sp, #4]
 301 002c BDF80220 		ldrh	r2, [sp, #2]	@ movhi
 302 0030 1A81     		strh	r2, [r3, #8]	@ movhi
 303 0032 019B     		ldr	r3, [sp, #4]
 304 0034 1B69     		ldr	r3, [r3, #16]
 305 0036 BDF80220 		ldrh	r2, [sp, #2]	@ movhi
 306 003a 013A     		subs	r2, r2, #1
 307 003c 92B2     		uxth	r2, r2
 308 003e DA62     		str	r2, [r3, #44]
 309              		.loc 1 155 0
 310              	@ 155 "/home/makkmarci/workspace/ChibiOS_2.6.8/os/hal/src/pwm.c" 1
 311 0040 FFF7FEFF 		bl      _port_unlock
 312              	@ 0 "" 2
 313              		.loc 1 156 0
 314              		.thumb
 315 0044 03B0     		add	sp, sp, #12
 316              		.cfi_def_cfa_offset 4
 317              		@ sp needed
 318 0046 5DF804FB 		ldr	pc, [sp], #4
 319              	.L18:
 320 004a 00BF     		.align	2
ARM GAS  /tmp/ccQpDTAl.s 			page 7


 321              	.L17:
 322 004c 3C000000 		.word	.LC4
 323 0050 50000000 		.word	.LC5
 324              		.cfi_endproc
 325              	.LFE115:
 326              		.size	pwmChangePeriod, .-pwmChangePeriod
 327 0054 AFF30080 		.section	.rodata
 327      AFF30080 
 327      AFF30080 
 328 0066 0000     		.align	2
 329              	.LC6:
 330 0068 2270776D 		.ascii	"\"pwmEnableChannel\"()\000"
 330      456E6162 
 330      6C654368 
 330      616E6E65 
 330      6C222829 
 331 007d 000000   		.align	2
 332              	.LC7:
 333 0080 70776D45 		.ascii	"pwmEnableChannel(), #1\000"
 333      6E61626C 
 333      65436861 
 333      6E6E656C 
 333      28292C20 
 334              		.section	.text.pwmEnableChannel,"ax",%progbits
 335              		.align	2
 336              		.p2align 4,,15
 337              		.global	pwmEnableChannel
 338              		.thumb
 339              		.thumb_func
 340              		.type	pwmEnableChannel, %function
 341              	pwmEnableChannel:
 342              	.LFB116:
 343              		.loc 1 174 0
 344              		.cfi_startproc
 345              		@ args = 0, pretend = 0, frame = 8
 346              		@ frame_needed = 0, uses_anonymous_args = 0
 347 0000 00B5     		push	{lr}
 348              		.cfi_def_cfa_offset 4
 349              		.cfi_offset 14, -4
 350 0002 83B0     		sub	sp, sp, #12
 351              		.cfi_def_cfa_offset 16
 352 0004 0190     		str	r0, [sp, #4]
 353 0006 0B46     		mov	r3, r1
 354 0008 8DF80330 		strb	r3, [sp, #3]
 355 000c 1346     		mov	r3, r2	@ movhi
 356 000e ADF80030 		strh	r3, [sp]	@ movhi
 357              		.loc 1 176 0
 358 0012 019B     		ldr	r3, [sp, #4]
 359 0014 002B     		cmp	r3, #0
 360 0016 03D0     		beq	.L20
 361              		.loc 1 176 0 is_stmt 0 discriminator 2
 362 0018 9DF80330 		ldrb	r3, [sp, #3]	@ zero_extendqisi2
 363 001c 032B     		cmp	r3, #3
 364 001e 02D9     		bls	.L21
 365              	.L20:
 366              		.loc 1 176 0 discriminator 3
 367 0020 0C48     		ldr	r0, .L23
ARM GAS  /tmp/ccQpDTAl.s 			page 8


 368 0022 FFF7FEFF 		bl	chDbgPanic
 369              	.L21:
 370              		.loc 1 179 0 is_stmt 1
 371              	@ 179 "/home/makkmarci/workspace/ChibiOS_2.6.8/os/hal/src/pwm.c" 1
 372 0026 FFF7FEFF 		bl      _port_lock
 373              	@ 0 "" 2
 374              		.loc 1 180 0
 375              		.thumb
 376 002a 019B     		ldr	r3, [sp, #4]
 377 002c 1B78     		ldrb	r3, [r3]	@ zero_extendqisi2
 378 002e 022B     		cmp	r3, #2
 379 0030 02D0     		beq	.L22
 380              		.loc 1 180 0 is_stmt 0 discriminator 1
 381 0032 0948     		ldr	r0, .L23+4
 382 0034 FFF7FEFF 		bl	chDbgPanic
 383              	.L22:
 384              		.loc 1 182 0 is_stmt 1
 385 0038 9DF80320 		ldrb	r2, [sp, #3]	@ zero_extendqisi2
 386 003c BDF80030 		ldrh	r3, [sp]
 387 0040 0198     		ldr	r0, [sp, #4]
 388 0042 1146     		mov	r1, r2
 389 0044 1A46     		mov	r2, r3
 390 0046 FFF7FEFF 		bl	pwm_lld_enable_channel
 391              		.loc 1 183 0
 392              	@ 183 "/home/makkmarci/workspace/ChibiOS_2.6.8/os/hal/src/pwm.c" 1
 393 004a FFF7FEFF 		bl      _port_unlock
 394              	@ 0 "" 2
 395              		.loc 1 184 0
 396              		.thumb
 397 004e 03B0     		add	sp, sp, #12
 398              		.cfi_def_cfa_offset 4
 399              		@ sp needed
 400 0050 5DF804FB 		ldr	pc, [sp], #4
 401              	.L24:
 402              		.align	2
 403              	.L23:
 404 0054 68000000 		.word	.LC6
 405 0058 80000000 		.word	.LC7
 406              		.cfi_endproc
 407              	.LFE116:
 408              		.size	pwmEnableChannel, .-pwmEnableChannel
 409 005c AFF30080 		.section	.rodata
 410 0097 00       		.align	2
 411              	.LC8:
 412 0098 70776D44 		.ascii	"pwmDisableChannel(), #1\000"
 412      69736162 
 412      6C654368 
 412      616E6E65 
 412      6C28292C 
 413              		.section	.text.pwmDisableChannel,"ax",%progbits
 414              		.align	2
 415              		.p2align 4,,15
 416              		.global	pwmDisableChannel
 417              		.thumb
 418              		.thumb_func
 419              		.type	pwmDisableChannel, %function
 420              	pwmDisableChannel:
ARM GAS  /tmp/ccQpDTAl.s 			page 9


 421              	.LFB117:
 422              		.loc 1 200 0
 423              		.cfi_startproc
 424              		@ args = 0, pretend = 0, frame = 8
 425              		@ frame_needed = 0, uses_anonymous_args = 0
 426 0000 00B5     		push	{lr}
 427              		.cfi_def_cfa_offset 4
 428              		.cfi_offset 14, -4
 429 0002 83B0     		sub	sp, sp, #12
 430              		.cfi_def_cfa_offset 16
 431 0004 0190     		str	r0, [sp, #4]
 432 0006 0B46     		mov	r3, r1
 433 0008 8DF80330 		strb	r3, [sp, #3]
 434              		.loc 1 202 0
 435 000c 019B     		ldr	r3, [sp, #4]
 436 000e 002B     		cmp	r3, #0
 437 0010 03D0     		beq	.L26
 438              		.loc 1 202 0 is_stmt 0 discriminator 2
 439 0012 9DF80330 		ldrb	r3, [sp, #3]	@ zero_extendqisi2
 440 0016 032B     		cmp	r3, #3
 441 0018 02D9     		bls	.L27
 442              	.L26:
 443              		.loc 1 202 0 discriminator 3
 444 001a 0B48     		ldr	r0, .L29
 445 001c FFF7FEFF 		bl	chDbgPanic
 446              	.L27:
 447              		.loc 1 205 0 is_stmt 1
 448              	@ 205 "/home/makkmarci/workspace/ChibiOS_2.6.8/os/hal/src/pwm.c" 1
 449 0020 FFF7FEFF 		bl      _port_lock
 450              	@ 0 "" 2
 451              		.loc 1 206 0
 452              		.thumb
 453 0024 019B     		ldr	r3, [sp, #4]
 454 0026 1B78     		ldrb	r3, [r3]	@ zero_extendqisi2
 455 0028 022B     		cmp	r3, #2
 456 002a 02D0     		beq	.L28
 457              		.loc 1 206 0 is_stmt 0 discriminator 1
 458 002c 0748     		ldr	r0, .L29+4
 459 002e FFF7FEFF 		bl	chDbgPanic
 460              	.L28:
 461              		.loc 1 208 0 is_stmt 1
 462 0032 9DF80330 		ldrb	r3, [sp, #3]	@ zero_extendqisi2
 463 0036 0198     		ldr	r0, [sp, #4]
 464 0038 1946     		mov	r1, r3
 465 003a FFF7FEFF 		bl	pwm_lld_disable_channel
 466              		.loc 1 209 0
 467              	@ 209 "/home/makkmarci/workspace/ChibiOS_2.6.8/os/hal/src/pwm.c" 1
 468 003e FFF7FEFF 		bl      _port_unlock
 469              	@ 0 "" 2
 470              		.loc 1 210 0
 471              		.thumb
 472 0042 03B0     		add	sp, sp, #12
 473              		.cfi_def_cfa_offset 4
 474              		@ sp needed
 475 0044 5DF804FB 		ldr	pc, [sp], #4
 476              	.L30:
 477              		.align	2
ARM GAS  /tmp/ccQpDTAl.s 			page 10


 478              	.L29:
 479 0048 68000000 		.word	.LC6
 480 004c 98000000 		.word	.LC8
 481              		.cfi_endproc
 482              	.LFE117:
 483              		.size	pwmDisableChannel, .-pwmDisableChannel
 484              		.text
 485              	.Letext0:
 486              		.file 2 "/opt/gcc-arm-none-eabi/arm-none-eabi/include/machine/_default_types.h"
 487              		.file 3 "/opt/gcc-arm-none-eabi/arm-none-eabi/include/stdint.h"
 488              		.file 4 "/home/makkmarci/workspace/ChibiOS_2.6.8/os/hal/platforms/STM32/TIMv1/stm32_tim.h"
 489              		.file 5 "/home/makkmarci/workspace/ChibiOS_2.6.8/os/hal/include/pwm.h"
 490              		.file 6 "/home/makkmarci/workspace/ChibiOS_2.6.8/os/hal/platforms/STM32/TIMv1/pwm_lld.h"
 491              		.file 7 "/home/makkmarci/workspace/ChibiOS_2.6.8/os/ports/common/ARMCMx/CMSIS/include/core_cm4.h"
 492              		.section	.debug_info,"",%progbits
 493              	.Ldebug_info0:
 494 0000 CB040000 		.4byte	0x4cb
 495 0004 0400     		.2byte	0x4
 496 0006 00000000 		.4byte	.Ldebug_abbrev0
 497 000a 04       		.byte	0x4
 498 000b 01       		.uleb128 0x1
 499 000c B4000000 		.4byte	.LASF60
 500 0010 01       		.byte	0x1
 501 0011 C9010000 		.4byte	.LASF61
 502 0015 00000000 		.4byte	.Ldebug_ranges0+0
 503 0019 00000000 		.4byte	0
 504 001d 00000000 		.4byte	.Ldebug_line0
 505 0021 02       		.uleb128 0x2
 506 0022 04       		.byte	0x4
 507 0023 05       		.byte	0x5
 508 0024 696E7400 		.ascii	"int\000"
 509 0028 03       		.uleb128 0x3
 510 0029 04       		.byte	0x4
 511 002a 07       		.byte	0x7
 512 002b 9F020000 		.4byte	.LASF0
 513 002f 03       		.uleb128 0x3
 514 0030 01       		.byte	0x1
 515 0031 06       		.byte	0x6
 516 0032 73020000 		.4byte	.LASF1
 517 0036 04       		.uleb128 0x4
 518 0037 24020000 		.4byte	.LASF4
 519 003b 02       		.byte	0x2
 520 003c 1D       		.byte	0x1d
 521 003d 41000000 		.4byte	0x41
 522 0041 03       		.uleb128 0x3
 523 0042 01       		.byte	0x1
 524 0043 08       		.byte	0x8
 525 0044 53020000 		.4byte	.LASF2
 526 0048 03       		.uleb128 0x3
 527 0049 02       		.byte	0x2
 528 004a 05       		.byte	0x5
 529 004b 1C000000 		.4byte	.LASF3
 530 004f 04       		.uleb128 0x4
 531 0050 55000000 		.4byte	.LASF5
 532 0054 02       		.byte	0x2
 533 0055 2B       		.byte	0x2b
 534 0056 5A000000 		.4byte	0x5a
ARM GAS  /tmp/ccQpDTAl.s 			page 11


 535 005a 03       		.uleb128 0x3
 536 005b 02       		.byte	0x2
 537 005c 07       		.byte	0x7
 538 005d BF020000 		.4byte	.LASF6
 539 0061 04       		.uleb128 0x4
 540 0062 2B030000 		.4byte	.LASF7
 541 0066 02       		.byte	0x2
 542 0067 3F       		.byte	0x3f
 543 0068 6C000000 		.4byte	0x6c
 544 006c 03       		.uleb128 0x3
 545 006d 04       		.byte	0x4
 546 006e 05       		.byte	0x5
 547 006f 02020000 		.4byte	.LASF8
 548 0073 04       		.uleb128 0x4
 549 0074 45000000 		.4byte	.LASF9
 550 0078 02       		.byte	0x2
 551 0079 41       		.byte	0x41
 552 007a 7E000000 		.4byte	0x7e
 553 007e 03       		.uleb128 0x3
 554 007f 04       		.byte	0x4
 555 0080 07       		.byte	0x7
 556 0081 13030000 		.4byte	.LASF10
 557 0085 03       		.uleb128 0x3
 558 0086 08       		.byte	0x8
 559 0087 05       		.byte	0x5
 560 0088 A6000000 		.4byte	.LASF11
 561 008c 03       		.uleb128 0x3
 562 008d 08       		.byte	0x8
 563 008e 07       		.byte	0x7
 564 008f 7F020000 		.4byte	.LASF12
 565 0093 04       		.uleb128 0x4
 566 0094 7E000000 		.4byte	.LASF13
 567 0098 03       		.byte	0x3
 568 0099 15       		.byte	0x15
 569 009a 36000000 		.4byte	0x36
 570 009e 04       		.uleb128 0x4
 571 009f AC020000 		.4byte	.LASF14
 572 00a3 03       		.byte	0x3
 573 00a4 21       		.byte	0x21
 574 00a5 4F000000 		.4byte	0x4f
 575 00a9 04       		.uleb128 0x4
 576 00aa ED020000 		.4byte	.LASF15
 577 00ae 03       		.byte	0x3
 578 00af 2C       		.byte	0x2c
 579 00b0 61000000 		.4byte	0x61
 580 00b4 04       		.uleb128 0x4
 581 00b5 96020000 		.4byte	.LASF16
 582 00b9 03       		.byte	0x3
 583 00ba 2D       		.byte	0x2d
 584 00bb 73000000 		.4byte	0x73
 585 00bf 03       		.uleb128 0x3
 586 00c0 01       		.byte	0x1
 587 00c1 02       		.byte	0x2
 588 00c2 F5020000 		.4byte	.LASF17
 589 00c6 05       		.uleb128 0x5
 590 00c7 B4000000 		.4byte	0xb4
 591 00cb 03       		.uleb128 0x3
ARM GAS  /tmp/ccQpDTAl.s 			page 12


 592 00cc 04       		.byte	0x4
 593 00cd 07       		.byte	0x7
 594 00ce 2F000000 		.4byte	.LASF18
 595 00d2 03       		.uleb128 0x3
 596 00d3 01       		.byte	0x1
 597 00d4 08       		.byte	0x8
 598 00d5 D2020000 		.4byte	.LASF19
 599 00d9 06       		.uleb128 0x6
 600 00da B4000000 		.4byte	0xb4
 601 00de E9000000 		.4byte	0xe9
 602 00e2 07       		.uleb128 0x7
 603 00e3 CB000000 		.4byte	0xcb
 604 00e7 03       		.byte	0x3
 605 00e8 00       		.byte	0
 606 00e9 05       		.uleb128 0x5
 607 00ea A9000000 		.4byte	0xa9
 608 00ee 08       		.uleb128 0x8
 609 00ef 60       		.byte	0x60
 610 00f0 04       		.byte	0x4
 611 00f1 9E01     		.2byte	0x19e
 612 00f3 07020000 		.4byte	0x207
 613 00f7 09       		.uleb128 0x9
 614 00f8 43523100 		.ascii	"CR1\000"
 615 00fc 04       		.byte	0x4
 616 00fd 9F01     		.2byte	0x19f
 617 00ff C6000000 		.4byte	0xc6
 618 0103 00       		.byte	0
 619 0104 09       		.uleb128 0x9
 620 0105 43523200 		.ascii	"CR2\000"
 621 0109 04       		.byte	0x4
 622 010a A001     		.2byte	0x1a0
 623 010c C6000000 		.4byte	0xc6
 624 0110 04       		.byte	0x4
 625 0111 0A       		.uleb128 0xa
 626 0112 43020000 		.4byte	.LASF20
 627 0116 04       		.byte	0x4
 628 0117 A101     		.2byte	0x1a1
 629 0119 C6000000 		.4byte	0xc6
 630 011d 08       		.byte	0x8
 631 011e 0A       		.uleb128 0xa
 632 011f BA020000 		.4byte	.LASF21
 633 0123 04       		.byte	0x4
 634 0124 A201     		.2byte	0x1a2
 635 0126 C6000000 		.4byte	0xc6
 636 012a 0C       		.byte	0xc
 637 012b 09       		.uleb128 0x9
 638 012c 535200   		.ascii	"SR\000"
 639 012f 04       		.byte	0x4
 640 0130 A301     		.2byte	0x1a3
 641 0132 C6000000 		.4byte	0xc6
 642 0136 10       		.byte	0x10
 643 0137 09       		.uleb128 0x9
 644 0138 45475200 		.ascii	"EGR\000"
 645 013c 04       		.byte	0x4
 646 013d A401     		.2byte	0x1a4
 647 013f C6000000 		.4byte	0xc6
 648 0143 14       		.byte	0x14
ARM GAS  /tmp/ccQpDTAl.s 			page 13


 649 0144 0A       		.uleb128 0xa
 650 0145 2E020000 		.4byte	.LASF22
 651 0149 04       		.byte	0x4
 652 014a A501     		.2byte	0x1a5
 653 014c C6000000 		.4byte	0xc6
 654 0150 18       		.byte	0x18
 655 0151 0A       		.uleb128 0xa
 656 0152 10000000 		.4byte	.LASF23
 657 0156 04       		.byte	0x4
 658 0157 A601     		.2byte	0x1a6
 659 0159 C6000000 		.4byte	0xc6
 660 015d 1C       		.byte	0x1c
 661 015e 0A       		.uleb128 0xa
 662 015f 00000000 		.4byte	.LASF24
 663 0163 04       		.byte	0x4
 664 0164 A701     		.2byte	0x1a7
 665 0166 C6000000 		.4byte	0xc6
 666 016a 20       		.byte	0x20
 667 016b 09       		.uleb128 0x9
 668 016c 434E5400 		.ascii	"CNT\000"
 669 0170 04       		.byte	0x4
 670 0171 A801     		.2byte	0x1a8
 671 0173 C6000000 		.4byte	0xc6
 672 0177 24       		.byte	0x24
 673 0178 09       		.uleb128 0x9
 674 0179 50534300 		.ascii	"PSC\000"
 675 017d 04       		.byte	0x4
 676 017e A901     		.2byte	0x1a9
 677 0180 C6000000 		.4byte	0xc6
 678 0184 28       		.byte	0x28
 679 0185 09       		.uleb128 0x9
 680 0186 41525200 		.ascii	"ARR\000"
 681 018a 04       		.byte	0x4
 682 018b AA01     		.2byte	0x1aa
 683 018d C6000000 		.4byte	0xc6
 684 0191 2C       		.byte	0x2c
 685 0192 09       		.uleb128 0x9
 686 0193 52435200 		.ascii	"RCR\000"
 687 0197 04       		.byte	0x4
 688 0198 AB01     		.2byte	0x1ab
 689 019a C6000000 		.4byte	0xc6
 690 019e 30       		.byte	0x30
 691 019f 09       		.uleb128 0x9
 692 01a0 43435200 		.ascii	"CCR\000"
 693 01a4 04       		.byte	0x4
 694 01a5 AC01     		.2byte	0x1ac
 695 01a7 07020000 		.4byte	0x207
 696 01ab 34       		.byte	0x34
 697 01ac 0A       		.uleb128 0xa
 698 01ad B5020000 		.4byte	.LASF25
 699 01b1 04       		.byte	0x4
 700 01b2 AD01     		.2byte	0x1ad
 701 01b4 C6000000 		.4byte	0xc6
 702 01b8 44       		.byte	0x44
 703 01b9 09       		.uleb128 0x9
 704 01ba 44435200 		.ascii	"DCR\000"
 705 01be 04       		.byte	0x4
ARM GAS  /tmp/ccQpDTAl.s 			page 14


 706 01bf AE01     		.2byte	0x1ae
 707 01c1 C6000000 		.4byte	0xc6
 708 01c5 48       		.byte	0x48
 709 01c6 0A       		.uleb128 0xa
 710 01c7 05000000 		.4byte	.LASF26
 711 01cb 04       		.byte	0x4
 712 01cc AF01     		.2byte	0x1af
 713 01ce C6000000 		.4byte	0xc6
 714 01d2 4C       		.byte	0x4c
 715 01d3 09       		.uleb128 0x9
 716 01d4 4F5200   		.ascii	"OR\000"
 717 01d7 04       		.byte	0x4
 718 01d8 B001     		.2byte	0x1b0
 719 01da C6000000 		.4byte	0xc6
 720 01de 50       		.byte	0x50
 721 01df 0A       		.uleb128 0xa
 722 01e0 16000000 		.4byte	.LASF27
 723 01e4 04       		.byte	0x4
 724 01e5 B101     		.2byte	0x1b1
 725 01e7 C6000000 		.4byte	0xc6
 726 01eb 54       		.byte	0x54
 727 01ec 0A       		.uleb128 0xa
 728 01ed 13020000 		.4byte	.LASF28
 729 01f1 04       		.byte	0x4
 730 01f2 B201     		.2byte	0x1b2
 731 01f4 C6000000 		.4byte	0xc6
 732 01f8 58       		.byte	0x58
 733 01f9 0A       		.uleb128 0xa
 734 01fa 18020000 		.4byte	.LASF29
 735 01fe 04       		.byte	0x4
 736 01ff B301     		.2byte	0x1b3
 737 0201 C6000000 		.4byte	0xc6
 738 0205 5C       		.byte	0x5c
 739 0206 00       		.byte	0
 740 0207 05       		.uleb128 0x5
 741 0208 D9000000 		.4byte	0xd9
 742 020c 0B       		.uleb128 0xb
 743 020d D7020000 		.4byte	.LASF30
 744 0211 04       		.byte	0x4
 745 0212 B401     		.2byte	0x1b4
 746 0214 EE000000 		.4byte	0xee
 747 0218 0C       		.uleb128 0xc
 748 0219 04       		.byte	0x4
 749 021a 0C020000 		.4byte	0x20c
 750 021e 0D       		.uleb128 0xd
 751 021f 01       		.byte	0x1
 752 0220 05       		.byte	0x5
 753 0221 55       		.byte	0x55
 754 0222 39020000 		.4byte	0x239
 755 0226 0E       		.uleb128 0xe
 756 0227 48020000 		.4byte	.LASF31
 757 022b 00       		.sleb128 0
 758 022c 0E       		.uleb128 0xe
 759 022d 3F030000 		.4byte	.LASF32
 760 0231 01       		.sleb128 1
 761 0232 0E       		.uleb128 0xe
 762 0233 35030000 		.4byte	.LASF33
ARM GAS  /tmp/ccQpDTAl.s 			page 15


 763 0237 02       		.sleb128 2
 764 0238 00       		.byte	0
 765 0239 04       		.uleb128 0x4
 766 023a 87030000 		.4byte	.LASF34
 767 023e 05       		.byte	0x5
 768 023f 59       		.byte	0x59
 769 0240 1E020000 		.4byte	0x21e
 770 0244 04       		.uleb128 0x4
 771 0245 E3020000 		.4byte	.LASF35
 772 0249 05       		.byte	0x5
 773 024a 5E       		.byte	0x5e
 774 024b 4F020000 		.4byte	0x24f
 775 024f 0F       		.uleb128 0xf
 776 0250 E3020000 		.4byte	.LASF35
 777 0254 14       		.byte	0x14
 778 0255 06       		.byte	0x6
 779 0256 6F01     		.2byte	0x16f
 780 0258 9E020000 		.4byte	0x29e
 781 025c 0A       		.uleb128 0xa
 782 025d 0A000000 		.4byte	.LASF36
 783 0261 06       		.byte	0x6
 784 0262 7301     		.2byte	0x173
 785 0264 39020000 		.4byte	0x239
 786 0268 00       		.byte	0
 787 0269 0A       		.uleb128 0xa
 788 026a 69000000 		.4byte	.LASF37
 789 026e 06       		.byte	0x6
 790 026f 7701     		.2byte	0x177
 791 0271 88030000 		.4byte	0x388
 792 0275 04       		.byte	0x4
 793 0276 0A       		.uleb128 0xa
 794 0277 1D020000 		.4byte	.LASF38
 795 027b 06       		.byte	0x6
 796 027c 7B01     		.2byte	0x17b
 797 027e D8020000 		.4byte	0x2d8
 798 0282 08       		.byte	0x8
 799 0283 0A       		.uleb128 0xa
 800 0284 25030000 		.4byte	.LASF39
 801 0288 06       		.byte	0x6
 802 0289 8301     		.2byte	0x183
 803 028b B4000000 		.4byte	0xb4
 804 028f 0C       		.byte	0xc
 805 0290 09       		.uleb128 0x9
 806 0291 74696D00 		.ascii	"tim\000"
 807 0295 06       		.byte	0x6
 808 0296 8701     		.2byte	0x187
 809 0298 18020000 		.4byte	0x218
 810 029c 10       		.byte	0x10
 811 029d 00       		.byte	0
 812 029e 04       		.uleb128 0x4
 813 029f 92030000 		.4byte	.LASF40
 814 02a3 05       		.byte	0x5
 815 02a4 65       		.byte	0x65
 816 02a5 A9020000 		.4byte	0x2a9
 817 02a9 0C       		.uleb128 0xc
 818 02aa 04       		.byte	0x4
 819 02ab AF020000 		.4byte	0x2af
ARM GAS  /tmp/ccQpDTAl.s 			page 16


 820 02af 10       		.uleb128 0x10
 821 02b0 BA020000 		.4byte	0x2ba
 822 02b4 11       		.uleb128 0x11
 823 02b5 BA020000 		.4byte	0x2ba
 824 02b9 00       		.byte	0
 825 02ba 0C       		.uleb128 0xc
 826 02bb 04       		.byte	0x4
 827 02bc 44020000 		.4byte	0x244
 828 02c0 0B       		.uleb128 0xb
 829 02c1 70030000 		.4byte	.LASF41
 830 02c5 06       		.byte	0x6
 831 02c6 2001     		.2byte	0x120
 832 02c8 B4000000 		.4byte	0xb4
 833 02cc 0B       		.uleb128 0xb
 834 02cd 38000000 		.4byte	.LASF42
 835 02d1 06       		.byte	0x6
 836 02d2 2501     		.2byte	0x125
 837 02d4 93000000 		.4byte	0x93
 838 02d8 0B       		.uleb128 0xb
 839 02d9 26000000 		.4byte	.LASF43
 840 02dd 06       		.byte	0x6
 841 02de 2A01     		.2byte	0x12a
 842 02e0 9E000000 		.4byte	0x9e
 843 02e4 08       		.uleb128 0x8
 844 02e5 08       		.byte	0x8
 845 02e6 06       		.byte	0x6
 846 02e7 2F01     		.2byte	0x12f
 847 02e9 08030000 		.4byte	0x308
 848 02ed 0A       		.uleb128 0xa
 849 02ee 50000000 		.4byte	.LASF44
 850 02f2 06       		.byte	0x6
 851 02f3 3301     		.2byte	0x133
 852 02f5 C0020000 		.4byte	0x2c0
 853 02f9 00       		.byte	0
 854 02fa 0A       		.uleb128 0xa
 855 02fb A0030000 		.4byte	.LASF45
 856 02ff 06       		.byte	0x6
 857 0300 3901     		.2byte	0x139
 858 0302 9E020000 		.4byte	0x29e
 859 0306 04       		.byte	0x4
 860 0307 00       		.byte	0
 861 0308 0B       		.uleb128 0xb
 862 0309 5F030000 		.4byte	.LASF46
 863 030d 06       		.byte	0x6
 864 030e 3B01     		.2byte	0x13b
 865 0310 E4020000 		.4byte	0x2e4
 866 0314 08       		.uleb128 0x8
 867 0315 34       		.byte	0x34
 868 0316 06       		.byte	0x6
 869 0317 4001     		.2byte	0x140
 870 0319 6C030000 		.4byte	0x36c
 871 031d 0A       		.uleb128 0xa
 872 031e 55030000 		.4byte	.LASF47
 873 0322 06       		.byte	0x6
 874 0323 4601     		.2byte	0x146
 875 0325 B4000000 		.4byte	0xb4
 876 0329 00       		.byte	0
ARM GAS  /tmp/ccQpDTAl.s 			page 17


 877 032a 0A       		.uleb128 0xa
 878 032b 1D020000 		.4byte	.LASF38
 879 032f 06       		.byte	0x6
 880 0330 4C01     		.2byte	0x14c
 881 0332 D8020000 		.4byte	0x2d8
 882 0336 04       		.byte	0x4
 883 0337 0A       		.uleb128 0xa
 884 0338 A0030000 		.4byte	.LASF45
 885 033c 06       		.byte	0x6
 886 033d 5201     		.2byte	0x152
 887 033f 9E020000 		.4byte	0x29e
 888 0343 08       		.byte	0x8
 889 0344 0A       		.uleb128 0xa
 890 0345 60000000 		.4byte	.LASF48
 891 0349 06       		.byte	0x6
 892 034a 5601     		.2byte	0x156
 893 034c 6C030000 		.4byte	0x36c
 894 0350 0C       		.byte	0xc
 895 0351 09       		.uleb128 0x9
 896 0352 63723200 		.ascii	"cr2\000"
 897 0356 06       		.byte	0x6
 898 0357 5C01     		.2byte	0x15c
 899 0359 B4000000 		.4byte	0xb4
 900 035d 2C       		.byte	0x2c
 901 035e 0A       		.uleb128 0xa
 902 035f 48030000 		.4byte	.LASF49
 903 0363 06       		.byte	0x6
 904 0364 6901     		.2byte	0x169
 905 0366 B4000000 		.4byte	0xb4
 906 036a 30       		.byte	0x30
 907 036b 00       		.byte	0
 908 036c 06       		.uleb128 0x6
 909 036d 08030000 		.4byte	0x308
 910 0371 7C030000 		.4byte	0x37c
 911 0375 07       		.uleb128 0x7
 912 0376 CB000000 		.4byte	0xcb
 913 037a 03       		.byte	0x3
 914 037b 00       		.byte	0
 915 037c 0B       		.uleb128 0xb
 916 037d 34020000 		.4byte	.LASF50
 917 0381 06       		.byte	0x6
 918 0382 6A01     		.2byte	0x16a
 919 0384 14030000 		.4byte	0x314
 920 0388 0C       		.uleb128 0xc
 921 0389 04       		.byte	0x4
 922 038a 8E030000 		.4byte	0x38e
 923 038e 12       		.uleb128 0x12
 924 038f 7C030000 		.4byte	0x37c
 925 0393 13       		.uleb128 0x13
 926 0394 0B020000 		.4byte	.LASF62
 927 0398 01       		.byte	0x1
 928 0399 44       		.byte	0x44
 929 039a 00000000 		.4byte	.LFB111
 930 039e 08000000 		.4byte	.LFE111-.LFB111
 931 03a2 01       		.uleb128 0x1
 932 03a3 9C       		.byte	0x9c
 933 03a4 14       		.uleb128 0x14
ARM GAS  /tmp/ccQpDTAl.s 			page 18


 934 03a5 70000000 		.4byte	.LASF51
 935 03a9 01       		.byte	0x1
 936 03aa 50       		.byte	0x50
 937 03ab 00000000 		.4byte	.LFB112
 938 03af 14000000 		.4byte	.LFE112-.LFB112
 939 03b3 01       		.uleb128 0x1
 940 03b4 9C       		.byte	0x9c
 941 03b5 C8030000 		.4byte	0x3c8
 942 03b9 15       		.uleb128 0x15
 943 03ba 3E020000 		.4byte	.LASF53
 944 03be 01       		.byte	0x1
 945 03bf 50       		.byte	0x50
 946 03c0 BA020000 		.4byte	0x2ba
 947 03c4 02       		.uleb128 0x2
 948 03c5 91       		.byte	0x91
 949 03c6 7C       		.sleb128 -4
 950 03c7 00       		.byte	0
 951 03c8 16       		.uleb128 0x16
 952 03c9 9D000000 		.4byte	.LASF52
 953 03cd 01       		.byte	0x1
 954 03ce 63       		.byte	0x63
 955 03cf 00000000 		.4byte	.LFB113
 956 03d3 60000000 		.4byte	.LFE113-.LFB113
 957 03d7 01       		.uleb128 0x1
 958 03d8 9C       		.byte	0x9c
 959 03d9 FA030000 		.4byte	0x3fa
 960 03dd 15       		.uleb128 0x15
 961 03de 3E020000 		.4byte	.LASF53
 962 03e2 01       		.byte	0x1
 963 03e3 63       		.byte	0x63
 964 03e4 BA020000 		.4byte	0x2ba
 965 03e8 02       		.uleb128 0x2
 966 03e9 91       		.byte	0x91
 967 03ea 74       		.sleb128 -12
 968 03eb 15       		.uleb128 0x15
 969 03ec 69000000 		.4byte	.LASF37
 970 03f0 01       		.byte	0x1
 971 03f1 63       		.byte	0x63
 972 03f2 88030000 		.4byte	0x388
 973 03f6 02       		.uleb128 0x2
 974 03f7 91       		.byte	0x91
 975 03f8 70       		.sleb128 -16
 976 03f9 00       		.byte	0
 977 03fa 16       		.uleb128 0x16
 978 03fb 4D030000 		.4byte	.LASF54
 979 03ff 01       		.byte	0x1
 980 0400 78       		.byte	0x78
 981 0401 00000000 		.4byte	.LFB114
 982 0405 4C000000 		.4byte	.LFE114-.LFB114
 983 0409 01       		.uleb128 0x1
 984 040a 9C       		.byte	0x9c
 985 040b 1E040000 		.4byte	0x41e
 986 040f 15       		.uleb128 0x15
 987 0410 3E020000 		.4byte	.LASF53
 988 0414 01       		.byte	0x1
 989 0415 78       		.byte	0x78
 990 0416 BA020000 		.4byte	0x2ba
ARM GAS  /tmp/ccQpDTAl.s 			page 19


 991 041a 02       		.uleb128 0x2
 992 041b 91       		.byte	0x91
 993 041c 74       		.sleb128 -12
 994 041d 00       		.byte	0
 995 041e 16       		.uleb128 0x16
 996 041f 03030000 		.4byte	.LASF55
 997 0423 01       		.byte	0x1
 998 0424 93       		.byte	0x93
 999 0425 00000000 		.4byte	.LFB115
 1000 0429 54000000 		.4byte	.LFE115-.LFB115
 1001 042d 01       		.uleb128 0x1
 1002 042e 9C       		.byte	0x9c
 1003 042f 50040000 		.4byte	0x450
 1004 0433 15       		.uleb128 0x15
 1005 0434 3E020000 		.4byte	.LASF53
 1006 0438 01       		.byte	0x1
 1007 0439 93       		.byte	0x93
 1008 043a BA020000 		.4byte	0x2ba
 1009 043e 02       		.uleb128 0x2
 1010 043f 91       		.byte	0x91
 1011 0440 74       		.sleb128 -12
 1012 0441 15       		.uleb128 0x15
 1013 0442 1D020000 		.4byte	.LASF38
 1014 0446 01       		.byte	0x1
 1015 0447 93       		.byte	0x93
 1016 0448 D8020000 		.4byte	0x2d8
 1017 044c 02       		.uleb128 0x2
 1018 044d 91       		.byte	0x91
 1019 044e 72       		.sleb128 -14
 1020 044f 00       		.byte	0
 1021 0450 16       		.uleb128 0x16
 1022 0451 86000000 		.4byte	.LASF56
 1023 0455 01       		.byte	0x1
 1024 0456 AC       		.byte	0xac
 1025 0457 00000000 		.4byte	.LFB116
 1026 045b 5C000000 		.4byte	.LFE116-.LFB116
 1027 045f 01       		.uleb128 0x1
 1028 0460 9C       		.byte	0x9c
 1029 0461 90040000 		.4byte	0x490
 1030 0465 15       		.uleb128 0x15
 1031 0466 3E020000 		.4byte	.LASF53
 1032 046a 01       		.byte	0x1
 1033 046b AC       		.byte	0xac
 1034 046c BA020000 		.4byte	0x2ba
 1035 0470 02       		.uleb128 0x2
 1036 0471 91       		.byte	0x91
 1037 0472 74       		.sleb128 -12
 1038 0473 15       		.uleb128 0x15
 1039 0474 FB020000 		.4byte	.LASF57
 1040 0478 01       		.byte	0x1
 1041 0479 AD       		.byte	0xad
 1042 047a CC020000 		.4byte	0x2cc
 1043 047e 02       		.uleb128 0x2
 1044 047f 91       		.byte	0x91
 1045 0480 73       		.sleb128 -13
 1046 0481 15       		.uleb128 0x15
 1047 0482 97000000 		.4byte	.LASF58
ARM GAS  /tmp/ccQpDTAl.s 			page 20


 1048 0486 01       		.byte	0x1
 1049 0487 AE       		.byte	0xae
 1050 0488 D8020000 		.4byte	0x2d8
 1051 048c 02       		.uleb128 0x2
 1052 048d 91       		.byte	0x91
 1053 048e 70       		.sleb128 -16
 1054 048f 00       		.byte	0
 1055 0490 16       		.uleb128 0x16
 1056 0491 61020000 		.4byte	.LASF59
 1057 0495 01       		.byte	0x1
 1058 0496 C8       		.byte	0xc8
 1059 0497 00000000 		.4byte	.LFB117
 1060 049b 50000000 		.4byte	.LFE117-.LFB117
 1061 049f 01       		.uleb128 0x1
 1062 04a0 9C       		.byte	0x9c
 1063 04a1 C2040000 		.4byte	0x4c2
 1064 04a5 15       		.uleb128 0x15
 1065 04a6 3E020000 		.4byte	.LASF53
 1066 04aa 01       		.byte	0x1
 1067 04ab C8       		.byte	0xc8
 1068 04ac BA020000 		.4byte	0x2ba
 1069 04b0 02       		.uleb128 0x2
 1070 04b1 91       		.byte	0x91
 1071 04b2 74       		.sleb128 -12
 1072 04b3 15       		.uleb128 0x15
 1073 04b4 FB020000 		.4byte	.LASF57
 1074 04b8 01       		.byte	0x1
 1075 04b9 C8       		.byte	0xc8
 1076 04ba CC020000 		.4byte	0x2cc
 1077 04be 02       		.uleb128 0x2
 1078 04bf 91       		.byte	0x91
 1079 04c0 73       		.sleb128 -13
 1080 04c1 00       		.byte	0
 1081 04c2 17       		.uleb128 0x17
 1082 04c3 7A030000 		.4byte	.LASF63
 1083 04c7 07       		.byte	0x7
 1084 04c8 9806     		.2byte	0x698
 1085 04ca E9000000 		.4byte	0xe9
 1086 04ce 00       		.byte	0
 1087              		.section	.debug_abbrev,"",%progbits
 1088              	.Ldebug_abbrev0:
 1089 0000 01       		.uleb128 0x1
 1090 0001 11       		.uleb128 0x11
 1091 0002 01       		.byte	0x1
 1092 0003 25       		.uleb128 0x25
 1093 0004 0E       		.uleb128 0xe
 1094 0005 13       		.uleb128 0x13
 1095 0006 0B       		.uleb128 0xb
 1096 0007 03       		.uleb128 0x3
 1097 0008 0E       		.uleb128 0xe
 1098 0009 55       		.uleb128 0x55
 1099 000a 17       		.uleb128 0x17
 1100 000b 11       		.uleb128 0x11
 1101 000c 01       		.uleb128 0x1
 1102 000d 10       		.uleb128 0x10
 1103 000e 17       		.uleb128 0x17
 1104 000f 00       		.byte	0
ARM GAS  /tmp/ccQpDTAl.s 			page 21


 1105 0010 00       		.byte	0
 1106 0011 02       		.uleb128 0x2
 1107 0012 24       		.uleb128 0x24
 1108 0013 00       		.byte	0
 1109 0014 0B       		.uleb128 0xb
 1110 0015 0B       		.uleb128 0xb
 1111 0016 3E       		.uleb128 0x3e
 1112 0017 0B       		.uleb128 0xb
 1113 0018 03       		.uleb128 0x3
 1114 0019 08       		.uleb128 0x8
 1115 001a 00       		.byte	0
 1116 001b 00       		.byte	0
 1117 001c 03       		.uleb128 0x3
 1118 001d 24       		.uleb128 0x24
 1119 001e 00       		.byte	0
 1120 001f 0B       		.uleb128 0xb
 1121 0020 0B       		.uleb128 0xb
 1122 0021 3E       		.uleb128 0x3e
 1123 0022 0B       		.uleb128 0xb
 1124 0023 03       		.uleb128 0x3
 1125 0024 0E       		.uleb128 0xe
 1126 0025 00       		.byte	0
 1127 0026 00       		.byte	0
 1128 0027 04       		.uleb128 0x4
 1129 0028 16       		.uleb128 0x16
 1130 0029 00       		.byte	0
 1131 002a 03       		.uleb128 0x3
 1132 002b 0E       		.uleb128 0xe
 1133 002c 3A       		.uleb128 0x3a
 1134 002d 0B       		.uleb128 0xb
 1135 002e 3B       		.uleb128 0x3b
 1136 002f 0B       		.uleb128 0xb
 1137 0030 49       		.uleb128 0x49
 1138 0031 13       		.uleb128 0x13
 1139 0032 00       		.byte	0
 1140 0033 00       		.byte	0
 1141 0034 05       		.uleb128 0x5
 1142 0035 35       		.uleb128 0x35
 1143 0036 00       		.byte	0
 1144 0037 49       		.uleb128 0x49
 1145 0038 13       		.uleb128 0x13
 1146 0039 00       		.byte	0
 1147 003a 00       		.byte	0
 1148 003b 06       		.uleb128 0x6
 1149 003c 01       		.uleb128 0x1
 1150 003d 01       		.byte	0x1
 1151 003e 49       		.uleb128 0x49
 1152 003f 13       		.uleb128 0x13
 1153 0040 01       		.uleb128 0x1
 1154 0041 13       		.uleb128 0x13
 1155 0042 00       		.byte	0
 1156 0043 00       		.byte	0
 1157 0044 07       		.uleb128 0x7
 1158 0045 21       		.uleb128 0x21
 1159 0046 00       		.byte	0
 1160 0047 49       		.uleb128 0x49
 1161 0048 13       		.uleb128 0x13
ARM GAS  /tmp/ccQpDTAl.s 			page 22


 1162 0049 2F       		.uleb128 0x2f
 1163 004a 0B       		.uleb128 0xb
 1164 004b 00       		.byte	0
 1165 004c 00       		.byte	0
 1166 004d 08       		.uleb128 0x8
 1167 004e 13       		.uleb128 0x13
 1168 004f 01       		.byte	0x1
 1169 0050 0B       		.uleb128 0xb
 1170 0051 0B       		.uleb128 0xb
 1171 0052 3A       		.uleb128 0x3a
 1172 0053 0B       		.uleb128 0xb
 1173 0054 3B       		.uleb128 0x3b
 1174 0055 05       		.uleb128 0x5
 1175 0056 01       		.uleb128 0x1
 1176 0057 13       		.uleb128 0x13
 1177 0058 00       		.byte	0
 1178 0059 00       		.byte	0
 1179 005a 09       		.uleb128 0x9
 1180 005b 0D       		.uleb128 0xd
 1181 005c 00       		.byte	0
 1182 005d 03       		.uleb128 0x3
 1183 005e 08       		.uleb128 0x8
 1184 005f 3A       		.uleb128 0x3a
 1185 0060 0B       		.uleb128 0xb
 1186 0061 3B       		.uleb128 0x3b
 1187 0062 05       		.uleb128 0x5
 1188 0063 49       		.uleb128 0x49
 1189 0064 13       		.uleb128 0x13
 1190 0065 38       		.uleb128 0x38
 1191 0066 0B       		.uleb128 0xb
 1192 0067 00       		.byte	0
 1193 0068 00       		.byte	0
 1194 0069 0A       		.uleb128 0xa
 1195 006a 0D       		.uleb128 0xd
 1196 006b 00       		.byte	0
 1197 006c 03       		.uleb128 0x3
 1198 006d 0E       		.uleb128 0xe
 1199 006e 3A       		.uleb128 0x3a
 1200 006f 0B       		.uleb128 0xb
 1201 0070 3B       		.uleb128 0x3b
 1202 0071 05       		.uleb128 0x5
 1203 0072 49       		.uleb128 0x49
 1204 0073 13       		.uleb128 0x13
 1205 0074 38       		.uleb128 0x38
 1206 0075 0B       		.uleb128 0xb
 1207 0076 00       		.byte	0
 1208 0077 00       		.byte	0
 1209 0078 0B       		.uleb128 0xb
 1210 0079 16       		.uleb128 0x16
 1211 007a 00       		.byte	0
 1212 007b 03       		.uleb128 0x3
 1213 007c 0E       		.uleb128 0xe
 1214 007d 3A       		.uleb128 0x3a
 1215 007e 0B       		.uleb128 0xb
 1216 007f 3B       		.uleb128 0x3b
 1217 0080 05       		.uleb128 0x5
 1218 0081 49       		.uleb128 0x49
ARM GAS  /tmp/ccQpDTAl.s 			page 23


 1219 0082 13       		.uleb128 0x13
 1220 0083 00       		.byte	0
 1221 0084 00       		.byte	0
 1222 0085 0C       		.uleb128 0xc
 1223 0086 0F       		.uleb128 0xf
 1224 0087 00       		.byte	0
 1225 0088 0B       		.uleb128 0xb
 1226 0089 0B       		.uleb128 0xb
 1227 008a 49       		.uleb128 0x49
 1228 008b 13       		.uleb128 0x13
 1229 008c 00       		.byte	0
 1230 008d 00       		.byte	0
 1231 008e 0D       		.uleb128 0xd
 1232 008f 04       		.uleb128 0x4
 1233 0090 01       		.byte	0x1
 1234 0091 0B       		.uleb128 0xb
 1235 0092 0B       		.uleb128 0xb
 1236 0093 3A       		.uleb128 0x3a
 1237 0094 0B       		.uleb128 0xb
 1238 0095 3B       		.uleb128 0x3b
 1239 0096 0B       		.uleb128 0xb
 1240 0097 01       		.uleb128 0x1
 1241 0098 13       		.uleb128 0x13
 1242 0099 00       		.byte	0
 1243 009a 00       		.byte	0
 1244 009b 0E       		.uleb128 0xe
 1245 009c 28       		.uleb128 0x28
 1246 009d 00       		.byte	0
 1247 009e 03       		.uleb128 0x3
 1248 009f 0E       		.uleb128 0xe
 1249 00a0 1C       		.uleb128 0x1c
 1250 00a1 0D       		.uleb128 0xd
 1251 00a2 00       		.byte	0
 1252 00a3 00       		.byte	0
 1253 00a4 0F       		.uleb128 0xf
 1254 00a5 13       		.uleb128 0x13
 1255 00a6 01       		.byte	0x1
 1256 00a7 03       		.uleb128 0x3
 1257 00a8 0E       		.uleb128 0xe
 1258 00a9 0B       		.uleb128 0xb
 1259 00aa 0B       		.uleb128 0xb
 1260 00ab 3A       		.uleb128 0x3a
 1261 00ac 0B       		.uleb128 0xb
 1262 00ad 3B       		.uleb128 0x3b
 1263 00ae 05       		.uleb128 0x5
 1264 00af 01       		.uleb128 0x1
 1265 00b0 13       		.uleb128 0x13
 1266 00b1 00       		.byte	0
 1267 00b2 00       		.byte	0
 1268 00b3 10       		.uleb128 0x10
 1269 00b4 15       		.uleb128 0x15
 1270 00b5 01       		.byte	0x1
 1271 00b6 27       		.uleb128 0x27
 1272 00b7 19       		.uleb128 0x19
 1273 00b8 01       		.uleb128 0x1
 1274 00b9 13       		.uleb128 0x13
 1275 00ba 00       		.byte	0
ARM GAS  /tmp/ccQpDTAl.s 			page 24


 1276 00bb 00       		.byte	0
 1277 00bc 11       		.uleb128 0x11
 1278 00bd 05       		.uleb128 0x5
 1279 00be 00       		.byte	0
 1280 00bf 49       		.uleb128 0x49
 1281 00c0 13       		.uleb128 0x13
 1282 00c1 00       		.byte	0
 1283 00c2 00       		.byte	0
 1284 00c3 12       		.uleb128 0x12
 1285 00c4 26       		.uleb128 0x26
 1286 00c5 00       		.byte	0
 1287 00c6 49       		.uleb128 0x49
 1288 00c7 13       		.uleb128 0x13
 1289 00c8 00       		.byte	0
 1290 00c9 00       		.byte	0
 1291 00ca 13       		.uleb128 0x13
 1292 00cb 2E       		.uleb128 0x2e
 1293 00cc 00       		.byte	0
 1294 00cd 3F       		.uleb128 0x3f
 1295 00ce 19       		.uleb128 0x19
 1296 00cf 03       		.uleb128 0x3
 1297 00d0 0E       		.uleb128 0xe
 1298 00d1 3A       		.uleb128 0x3a
 1299 00d2 0B       		.uleb128 0xb
 1300 00d3 3B       		.uleb128 0x3b
 1301 00d4 0B       		.uleb128 0xb
 1302 00d5 27       		.uleb128 0x27
 1303 00d6 19       		.uleb128 0x19
 1304 00d7 11       		.uleb128 0x11
 1305 00d8 01       		.uleb128 0x1
 1306 00d9 12       		.uleb128 0x12
 1307 00da 06       		.uleb128 0x6
 1308 00db 40       		.uleb128 0x40
 1309 00dc 18       		.uleb128 0x18
 1310 00dd 9642     		.uleb128 0x2116
 1311 00df 19       		.uleb128 0x19
 1312 00e0 00       		.byte	0
 1313 00e1 00       		.byte	0
 1314 00e2 14       		.uleb128 0x14
 1315 00e3 2E       		.uleb128 0x2e
 1316 00e4 01       		.byte	0x1
 1317 00e5 3F       		.uleb128 0x3f
 1318 00e6 19       		.uleb128 0x19
 1319 00e7 03       		.uleb128 0x3
 1320 00e8 0E       		.uleb128 0xe
 1321 00e9 3A       		.uleb128 0x3a
 1322 00ea 0B       		.uleb128 0xb
 1323 00eb 3B       		.uleb128 0x3b
 1324 00ec 0B       		.uleb128 0xb
 1325 00ed 27       		.uleb128 0x27
 1326 00ee 19       		.uleb128 0x19
 1327 00ef 11       		.uleb128 0x11
 1328 00f0 01       		.uleb128 0x1
 1329 00f1 12       		.uleb128 0x12
 1330 00f2 06       		.uleb128 0x6
 1331 00f3 40       		.uleb128 0x40
 1332 00f4 18       		.uleb128 0x18
ARM GAS  /tmp/ccQpDTAl.s 			page 25


 1333 00f5 9742     		.uleb128 0x2117
 1334 00f7 19       		.uleb128 0x19
 1335 00f8 01       		.uleb128 0x1
 1336 00f9 13       		.uleb128 0x13
 1337 00fa 00       		.byte	0
 1338 00fb 00       		.byte	0
 1339 00fc 15       		.uleb128 0x15
 1340 00fd 05       		.uleb128 0x5
 1341 00fe 00       		.byte	0
 1342 00ff 03       		.uleb128 0x3
 1343 0100 0E       		.uleb128 0xe
 1344 0101 3A       		.uleb128 0x3a
 1345 0102 0B       		.uleb128 0xb
 1346 0103 3B       		.uleb128 0x3b
 1347 0104 0B       		.uleb128 0xb
 1348 0105 49       		.uleb128 0x49
 1349 0106 13       		.uleb128 0x13
 1350 0107 02       		.uleb128 0x2
 1351 0108 18       		.uleb128 0x18
 1352 0109 00       		.byte	0
 1353 010a 00       		.byte	0
 1354 010b 16       		.uleb128 0x16
 1355 010c 2E       		.uleb128 0x2e
 1356 010d 01       		.byte	0x1
 1357 010e 3F       		.uleb128 0x3f
 1358 010f 19       		.uleb128 0x19
 1359 0110 03       		.uleb128 0x3
 1360 0111 0E       		.uleb128 0xe
 1361 0112 3A       		.uleb128 0x3a
 1362 0113 0B       		.uleb128 0xb
 1363 0114 3B       		.uleb128 0x3b
 1364 0115 0B       		.uleb128 0xb
 1365 0116 27       		.uleb128 0x27
 1366 0117 19       		.uleb128 0x19
 1367 0118 11       		.uleb128 0x11
 1368 0119 01       		.uleb128 0x1
 1369 011a 12       		.uleb128 0x12
 1370 011b 06       		.uleb128 0x6
 1371 011c 40       		.uleb128 0x40
 1372 011d 18       		.uleb128 0x18
 1373 011e 9642     		.uleb128 0x2116
 1374 0120 19       		.uleb128 0x19
 1375 0121 01       		.uleb128 0x1
 1376 0122 13       		.uleb128 0x13
 1377 0123 00       		.byte	0
 1378 0124 00       		.byte	0
 1379 0125 17       		.uleb128 0x17
 1380 0126 34       		.uleb128 0x34
 1381 0127 00       		.byte	0
 1382 0128 03       		.uleb128 0x3
 1383 0129 0E       		.uleb128 0xe
 1384 012a 3A       		.uleb128 0x3a
 1385 012b 0B       		.uleb128 0xb
 1386 012c 3B       		.uleb128 0x3b
 1387 012d 05       		.uleb128 0x5
 1388 012e 49       		.uleb128 0x49
 1389 012f 13       		.uleb128 0x13
ARM GAS  /tmp/ccQpDTAl.s 			page 26


 1390 0130 3F       		.uleb128 0x3f
 1391 0131 19       		.uleb128 0x19
 1392 0132 3C       		.uleb128 0x3c
 1393 0133 19       		.uleb128 0x19
 1394 0134 00       		.byte	0
 1395 0135 00       		.byte	0
 1396 0136 00       		.byte	0
 1397              		.section	.debug_aranges,"",%progbits
 1398 0000 4C000000 		.4byte	0x4c
 1399 0004 0200     		.2byte	0x2
 1400 0006 00000000 		.4byte	.Ldebug_info0
 1401 000a 04       		.byte	0x4
 1402 000b 00       		.byte	0
 1403 000c 0000     		.2byte	0
 1404 000e 0000     		.2byte	0
 1405 0010 00000000 		.4byte	.LFB111
 1406 0014 08000000 		.4byte	.LFE111-.LFB111
 1407 0018 00000000 		.4byte	.LFB112
 1408 001c 14000000 		.4byte	.LFE112-.LFB112
 1409 0020 00000000 		.4byte	.LFB113
 1410 0024 60000000 		.4byte	.LFE113-.LFB113
 1411 0028 00000000 		.4byte	.LFB114
 1412 002c 4C000000 		.4byte	.LFE114-.LFB114
 1413 0030 00000000 		.4byte	.LFB115
 1414 0034 54000000 		.4byte	.LFE115-.LFB115
 1415 0038 00000000 		.4byte	.LFB116
 1416 003c 5C000000 		.4byte	.LFE116-.LFB116
 1417 0040 00000000 		.4byte	.LFB117
 1418 0044 50000000 		.4byte	.LFE117-.LFB117
 1419 0048 00000000 		.4byte	0
 1420 004c 00000000 		.4byte	0
 1421              		.section	.debug_ranges,"",%progbits
 1422              	.Ldebug_ranges0:
 1423 0000 00000000 		.4byte	.LFB111
 1424 0004 08000000 		.4byte	.LFE111
 1425 0008 00000000 		.4byte	.LFB112
 1426 000c 14000000 		.4byte	.LFE112
 1427 0010 00000000 		.4byte	.LFB113
 1428 0014 60000000 		.4byte	.LFE113
 1429 0018 00000000 		.4byte	.LFB114
 1430 001c 4C000000 		.4byte	.LFE114
 1431 0020 00000000 		.4byte	.LFB115
 1432 0024 54000000 		.4byte	.LFE115
 1433 0028 00000000 		.4byte	.LFB116
 1434 002c 5C000000 		.4byte	.LFE116
 1435 0030 00000000 		.4byte	.LFB117
 1436 0034 50000000 		.4byte	.LFE117
 1437 0038 00000000 		.4byte	0
 1438 003c 00000000 		.4byte	0
 1439              		.section	.debug_line,"",%progbits
 1440              	.Ldebug_line0:
 1441 0000 C9020000 		.section	.debug_str,"MS",%progbits,1
 1441      0200CD01 
 1441      00000201 
 1441      FB0E0D00 
 1441      01010101 
 1442              	.LASF24:
ARM GAS  /tmp/ccQpDTAl.s 			page 27


 1443 0000 43434552 		.ascii	"CCER\000"
 1443      00
 1444              	.LASF26:
 1445 0005 444D4152 		.ascii	"DMAR\000"
 1445      00
 1446              	.LASF36:
 1447 000a 73746174 		.ascii	"state\000"
 1447      6500
 1448              	.LASF23:
 1449 0010 43434D52 		.ascii	"CCMR2\000"
 1449      3200
 1450              	.LASF27:
 1451 0016 43434D52 		.ascii	"CCMR3\000"
 1451      3300
 1452              	.LASF3:
 1453 001c 73686F72 		.ascii	"short int\000"
 1453      7420696E 
 1453      7400
 1454              	.LASF43:
 1455 0026 70776D63 		.ascii	"pwmcnt_t\000"
 1455      6E745F74 
 1455      00
 1456              	.LASF18:
 1457 002f 73697A65 		.ascii	"sizetype\000"
 1457      74797065 
 1457      00
 1458              	.LASF42:
 1459 0038 70776D63 		.ascii	"pwmchannel_t\000"
 1459      68616E6E 
 1459      656C5F74 
 1459      00
 1460              	.LASF9:
 1461 0045 5F5F7569 		.ascii	"__uint32_t\000"
 1461      6E743332 
 1461      5F7400
 1462              	.LASF44:
 1463 0050 6D6F6465 		.ascii	"mode\000"
 1463      00
 1464              	.LASF5:
 1465 0055 5F5F7569 		.ascii	"__uint16_t\000"
 1465      6E743136 
 1465      5F7400
 1466              	.LASF48:
 1467 0060 6368616E 		.ascii	"channels\000"
 1467      6E656C73 
 1467      00
 1468              	.LASF37:
 1469 0069 636F6E66 		.ascii	"config\000"
 1469      696700
 1470              	.LASF51:
 1471 0070 70776D4F 		.ascii	"pwmObjectInit\000"
 1471      626A6563 
 1471      74496E69 
 1471      7400
 1472              	.LASF13:
 1473 007e 75696E74 		.ascii	"uint8_t\000"
 1473      385F7400 
ARM GAS  /tmp/ccQpDTAl.s 			page 28


 1474              	.LASF56:
 1475 0086 70776D45 		.ascii	"pwmEnableChannel\000"
 1475      6E61626C 
 1475      65436861 
 1475      6E6E656C 
 1475      00
 1476              	.LASF58:
 1477 0097 77696474 		.ascii	"width\000"
 1477      6800
 1478              	.LASF52:
 1479 009d 70776D53 		.ascii	"pwmStart\000"
 1479      74617274 
 1479      00
 1480              	.LASF11:
 1481 00a6 6C6F6E67 		.ascii	"long long int\000"
 1481      206C6F6E 
 1481      6720696E 
 1481      7400
 1482              	.LASF60:
 1483 00b4 474E5520 		.ascii	"GNU C 4.9.3 20150303 (release) [ARM/embedded-4_9-br"
 1483      4320342E 
 1483      392E3320 
 1483      32303135 
 1483      30333033 
 1484 00e7 616E6368 		.ascii	"anch revision 221220] -mcpu=cortex-m4 -mfloat-abi=h"
 1484      20726576 
 1484      6973696F 
 1484      6E203232 
 1484      31323230 
 1485 011a 61726420 		.ascii	"ard -mfpu=fpv4-sp-d16 -mno-thumb-interwork -mthumb "
 1485      2D6D6670 
 1485      753D6670 
 1485      76342D73 
 1485      702D6431 
 1486 014d 2D676764 		.ascii	"-ggdb -fomit-frame-pointer -falign-functions=16 -ff"
 1486      62202D66 
 1486      6F6D6974 
 1486      2D667261 
 1486      6D652D70 
 1487 0180 756E6374 		.ascii	"unction-sections -fdata-sections -fno-common -fsing"
 1487      696F6E2D 
 1487      73656374 
 1487      696F6E73 
 1487      202D6664 
 1488 01b3 6C652D70 		.ascii	"le-precision-constant\000"
 1488      72656369 
 1488      73696F6E 
 1488      2D636F6E 
 1488      7374616E 
 1489              	.LASF61:
 1490 01c9 2F686F6D 		.ascii	"/home/makkmarci/workspace/ChibiOS_2.6.8/os/hal/src/"
 1490      652F6D61 
 1490      6B6B6D61 
 1490      7263692F 
 1490      776F726B 
 1491 01fc 70776D2E 		.ascii	"pwm.c\000"
 1491      6300
ARM GAS  /tmp/ccQpDTAl.s 			page 29


 1492              	.LASF8:
 1493 0202 6C6F6E67 		.ascii	"long int\000"
 1493      20696E74 
 1493      00
 1494              	.LASF62:
 1495 020b 70776D49 		.ascii	"pwmInit\000"
 1495      6E697400 
 1496              	.LASF28:
 1497 0213 43435235 		.ascii	"CCR5\000"
 1497      00
 1498              	.LASF29:
 1499 0218 43435236 		.ascii	"CCR6\000"
 1499      00
 1500              	.LASF38:
 1501 021d 70657269 		.ascii	"period\000"
 1501      6F6400
 1502              	.LASF4:
 1503 0224 5F5F7569 		.ascii	"__uint8_t\000"
 1503      6E74385F 
 1503      7400
 1504              	.LASF22:
 1505 022e 43434D52 		.ascii	"CCMR1\000"
 1505      3100
 1506              	.LASF50:
 1507 0234 50574D43 		.ascii	"PWMConfig\000"
 1507      6F6E6669 
 1507      6700
 1508              	.LASF53:
 1509 023e 70776D70 		.ascii	"pwmp\000"
 1509      00
 1510              	.LASF20:
 1511 0243 534D4352 		.ascii	"SMCR\000"
 1511      00
 1512              	.LASF31:
 1513 0248 50574D5F 		.ascii	"PWM_UNINIT\000"
 1513      554E494E 
 1513      495400
 1514              	.LASF2:
 1515 0253 756E7369 		.ascii	"unsigned char\000"
 1515      676E6564 
 1515      20636861 
 1515      7200
 1516              	.LASF59:
 1517 0261 70776D44 		.ascii	"pwmDisableChannel\000"
 1517      69736162 
 1517      6C654368 
 1517      616E6E65 
 1517      6C00
 1518              	.LASF1:
 1519 0273 7369676E 		.ascii	"signed char\000"
 1519      65642063 
 1519      68617200 
 1520              	.LASF12:
 1521 027f 6C6F6E67 		.ascii	"long long unsigned int\000"
 1521      206C6F6E 
 1521      6720756E 
 1521      7369676E 
ARM GAS  /tmp/ccQpDTAl.s 			page 30


 1521      65642069 
 1522              	.LASF16:
 1523 0296 75696E74 		.ascii	"uint32_t\000"
 1523      33325F74 
 1523      00
 1524              	.LASF0:
 1525 029f 756E7369 		.ascii	"unsigned int\000"
 1525      676E6564 
 1525      20696E74 
 1525      00
 1526              	.LASF14:
 1527 02ac 75696E74 		.ascii	"uint16_t\000"
 1527      31365F74 
 1527      00
 1528              	.LASF25:
 1529 02b5 42445452 		.ascii	"BDTR\000"
 1529      00
 1530              	.LASF21:
 1531 02ba 44494552 		.ascii	"DIER\000"
 1531      00
 1532              	.LASF6:
 1533 02bf 73686F72 		.ascii	"short unsigned int\000"
 1533      7420756E 
 1533      7369676E 
 1533      65642069 
 1533      6E7400
 1534              	.LASF19:
 1535 02d2 63686172 		.ascii	"char\000"
 1535      00
 1536              	.LASF30:
 1537 02d7 73746D33 		.ascii	"stm32_tim_t\000"
 1537      325F7469 
 1537      6D5F7400 
 1538              	.LASF35:
 1539 02e3 50574D44 		.ascii	"PWMDriver\000"
 1539      72697665 
 1539      7200
 1540              	.LASF15:
 1541 02ed 696E7433 		.ascii	"int32_t\000"
 1541      325F7400 
 1542              	.LASF17:
 1543 02f5 5F426F6F 		.ascii	"_Bool\000"
 1543      6C00
 1544              	.LASF57:
 1545 02fb 6368616E 		.ascii	"channel\000"
 1545      6E656C00 
 1546              	.LASF55:
 1547 0303 70776D43 		.ascii	"pwmChangePeriod\000"
 1547      68616E67 
 1547      65506572 
 1547      696F6400 
 1548              	.LASF10:
 1549 0313 6C6F6E67 		.ascii	"long unsigned int\000"
 1549      20756E73 
 1549      69676E65 
 1549      6420696E 
 1549      7400
ARM GAS  /tmp/ccQpDTAl.s 			page 31


 1550              	.LASF39:
 1551 0325 636C6F63 		.ascii	"clock\000"
 1551      6B00
 1552              	.LASF7:
 1553 032b 5F5F696E 		.ascii	"__int32_t\000"
 1553      7433325F 
 1553      7400
 1554              	.LASF33:
 1555 0335 50574D5F 		.ascii	"PWM_READY\000"
 1555      52454144 
 1555      5900
 1556              	.LASF32:
 1557 033f 50574D5F 		.ascii	"PWM_STOP\000"
 1557      53544F50 
 1557      00
 1558              	.LASF49:
 1559 0348 64696572 		.ascii	"dier\000"
 1559      00
 1560              	.LASF54:
 1561 034d 70776D53 		.ascii	"pwmStop\000"
 1561      746F7000 
 1562              	.LASF47:
 1563 0355 66726571 		.ascii	"frequency\000"
 1563      75656E63 
 1563      7900
 1564              	.LASF46:
 1565 035f 50574D43 		.ascii	"PWMChannelConfig\000"
 1565      68616E6E 
 1565      656C436F 
 1565      6E666967 
 1565      00
 1566              	.LASF41:
 1567 0370 70776D6D 		.ascii	"pwmmode_t\000"
 1567      6F64655F 
 1567      7400
 1568              	.LASF63:
 1569 037a 49544D5F 		.ascii	"ITM_RxBuffer\000"
 1569      52784275 
 1569      66666572 
 1569      00
 1570              	.LASF34:
 1571 0387 70776D73 		.ascii	"pwmstate_t\000"
 1571      74617465 
 1571      5F7400
 1572              	.LASF40:
 1573 0392 70776D63 		.ascii	"pwmcallback_t\000"
 1573      616C6C62 
 1573      61636B5F 
 1573      7400
 1574              	.LASF45:
 1575 03a0 63616C6C 		.ascii	"callback\000"
 1575      6261636B 
 1575      00
 1576              		.ident	"GCC: (GNU Tools for ARM Embedded Processors) 4.9.3 20150303 (release) [ARM/embedded-4_9-br
ARM GAS  /tmp/ccQpDTAl.s 			page 32


DEFINED SYMBOLS
                            *ABS*:00000000 pwm.c
     /tmp/ccQpDTAl.s:21     .text.pwmInit:00000000 $t
     /tmp/ccQpDTAl.s:27     .text.pwmInit:00000000 pwmInit
     /tmp/ccQpDTAl.s:46     .text.pwmObjectInit:00000000 $t
     /tmp/ccQpDTAl.s:52     .text.pwmObjectInit:00000000 pwmObjectInit
     /tmp/ccQpDTAl.s:79     .rodata:00000000 $d
     /tmp/ccQpDTAl.s:86     .text.pwmStart:00000000 $t
     /tmp/ccQpDTAl.s:92     .text.pwmStart:00000000 pwmStart
     /tmp/ccQpDTAl.s:166    .text.pwmStart:00000058 $d
     /tmp/ccQpDTAl.s:179    .text.pwmStop:00000000 $t
     /tmp/ccQpDTAl.s:185    .text.pwmStop:00000000 pwmStop
     /tmp/ccQpDTAl.s:244    .text.pwmStop:00000044 $d
     /tmp/ccQpDTAl.s:257    .text.pwmChangePeriod:00000000 $t
     /tmp/ccQpDTAl.s:263    .text.pwmChangePeriod:00000000 pwmChangePeriod
     /tmp/ccQpDTAl.s:322    .text.pwmChangePeriod:0000004c $d
     /tmp/ccQpDTAl.s:335    .text.pwmEnableChannel:00000000 $t
     /tmp/ccQpDTAl.s:341    .text.pwmEnableChannel:00000000 pwmEnableChannel
     /tmp/ccQpDTAl.s:404    .text.pwmEnableChannel:00000054 $d
     /tmp/ccQpDTAl.s:414    .text.pwmDisableChannel:00000000 $t
     /tmp/ccQpDTAl.s:420    .text.pwmDisableChannel:00000000 pwmDisableChannel
     /tmp/ccQpDTAl.s:479    .text.pwmDisableChannel:00000048 $d
                     .debug_frame:00000010 $d
     /tmp/ccQpDTAl.s:249    .text.pwmStop:0000004c $t
     /tmp/ccQpDTAl.s:327    .text.pwmChangePeriod:00000054 $t
     /tmp/ccQpDTAl.s:409    .text.pwmEnableChannel:0000005c $t

UNDEFINED SYMBOLS
pwm_lld_init
chDbgPanic
_port_lock
pwm_lld_start
_port_unlock
pwm_lld_stop
pwm_lld_enable_channel
pwm_lld_disable_channel
