ARM GAS  /tmp/ccQpDTAl.s 			page 1


   1              		.syntax unified
   2              		.cpu cortex-m4
   3              		.eabi_attribute 27, 1
   4              		.eabi_attribute 28, 1
   5              		.fpu fpv4-sp-d16
   6              		.eabi_attribute 20, 1
   7              		.eabi_attribute 21, 1
   8              		.eabi_attribute 23, 3
   9              		.eabi_attribute 24, 1
  10              		.eabi_attribute 25, 1
  11              		.eabi_attribute 26, 1
  12              		.eabi_attribute 30, 6
  13              		.eabi_attribute 34, 1
  14              		.eabi_attribute 18, 4
  15              		.thumb
  16              		.file	"pwm.c"
  17              		.text
  18              	.Ltext0:
  19              		.cfi_sections	.debug_frame
  20              		.section	.text.pwmInit,"ax",%progbits
  21              		.align	2
  22              		.p2align 4,,15
  23              		.global	pwmInit
  24              		.thumb
  25              		.thumb_func
  26              		.type	pwmInit, %function
  27              	pwmInit:
  28              	.LFB111:
  29              		.file 1 "/home/makkmarci/workspace/ChibiOS_2.6.8/os/hal/src/pwm.c"
  30              		.loc 1 68 0
  31              		.cfi_startproc
  32              		@ args = 0, pretend = 0, frame = 0
  33              		@ frame_needed = 0, uses_anonymous_args = 0
  34 0000 08B5     		push	{r3, lr}
  35              		.cfi_def_cfa_offset 8
  36              		.cfi_offset 3, -8
  37              		.cfi_offset 14, -4
  38              		.loc 1 70 0
  39 0002 FFF7FEFF 		bl	pwm_lld_init
  40              		.loc 1 71 0
  41 0006 08BD     		pop	{r3, pc}
  42              		.cfi_endproc
  43              	.LFE111:
  44              		.size	pwmInit, .-pwmInit
  45 0008 AFF30080 		.section	.text.pwmObjectInit,"ax",%progbits
  45      AFF30080 
  46              		.align	2
  47              		.p2align 4,,15
  48              		.global	pwmObjectInit
  49              		.thumb
  50              		.thumb_func
  51              		.type	pwmObjectInit, %function
  52              	pwmObjectInit:
  53              	.LFB112:
  54              		.loc 1 80 0
  55              		.cfi_startproc
  56              		@ args = 0, pretend = 0, frame = 8
ARM GAS  /tmp/ccQpDTAl.s 			page 2


  57              		@ frame_needed = 0, uses_anonymous_args = 0
  58              		@ link register save eliminated.
  59 0000 82B0     		sub	sp, sp, #8
  60              		.cfi_def_cfa_offset 8
  61 0002 0190     		str	r0, [sp, #4]
  62              		.loc 1 82 0
  63 0004 019B     		ldr	r3, [sp, #4]
  64 0006 0122     		movs	r2, #1
  65 0008 1A70     		strb	r2, [r3]
  66              		.loc 1 83 0
  67 000a 019B     		ldr	r3, [sp, #4]
  68 000c 0022     		movs	r2, #0
  69 000e 5A60     		str	r2, [r3, #4]
  70              		.loc 1 87 0
  71 0010 02B0     		add	sp, sp, #8
  72              		.cfi_def_cfa_offset 0
  73              		@ sp needed
  74 0012 7047     		bx	lr
  75              		.cfi_endproc
  76              	.LFE112:
  77              		.size	pwmObjectInit, .-pwmObjectInit
  78 0014 AFF30080 		.section	.rodata
  78      AFF30080 
  78      AFF30080 
  79              		.align	2
  80              	.LC0:
  81 0000 2270776D 		.ascii	"\"pwmStart\"()\000"
  81      53746172 
  81      74222829 
  81      00
  82 000d 000000   		.align	2
  83              	.LC1:
  84 0010 70776D53 		.ascii	"pwmStart(), #1\000"
  84      74617274 
  84      28292C20 
  84      233100
  85              		.section	.text.pwmStart,"ax",%progbits
  86              		.align	2
  87              		.p2align 4,,15
  88              		.global	pwmStart
  89              		.thumb
  90              		.thumb_func
  91              		.type	pwmStart, %function
  92              	pwmStart:
  93              	.LFB113:
  94              		.loc 1 99 0
  95              		.cfi_startproc
  96              		@ args = 0, pretend = 0, frame = 8
  97              		@ frame_needed = 0, uses_anonymous_args = 0
  98 0000 00B5     		push	{lr}
  99              		.cfi_def_cfa_offset 4
 100              		.cfi_offset 14, -4
 101 0002 83B0     		sub	sp, sp, #12
 102              		.cfi_def_cfa_offset 16
 103 0004 0190     		str	r0, [sp, #4]
 104 0006 0091     		str	r1, [sp]
 105              		.loc 1 101 0
ARM GAS  /tmp/ccQpDTAl.s 			page 3


 106 0008 019B     		ldr	r3, [sp, #4]
 107 000a 002B     		cmp	r3, #0
 108 000c 02D0     		beq	.L4
 109              		.loc 1 101 0 is_stmt 0 discriminator 2
 110 000e 009B     		ldr	r3, [sp]
 111 0010 002B     		cmp	r3, #0
 112 0012 02D1     		bne	.L5
 113              	.L4:
 114              		.loc 1 101 0 discriminator 3
 115 0014 1048     		ldr	r0, .L7
 116 0016 FFF7FEFF 		bl	chDbgPanic
 117              	.L5:
 118              		.loc 1 103 0 is_stmt 1
 119              	@ 103 "/home/makkmarci/workspace/ChibiOS_2.6.8/os/hal/src/pwm.c" 1
 120 001a FFF7FEFF 		bl      _port_lock
 121              	@ 0 "" 2
 122              		.loc 1 104 0
 123              		.thumb
 124 001e 019B     		ldr	r3, [sp, #4]
 125 0020 1B78     		ldrb	r3, [r3]	@ zero_extendqisi2
 126 0022 012B     		cmp	r3, #1
 127 0024 06D0     		beq	.L6
 128              		.loc 1 104 0 is_stmt 0 discriminator 1
 129 0026 019B     		ldr	r3, [sp, #4]
 130 0028 1B78     		ldrb	r3, [r3]	@ zero_extendqisi2
 131 002a 022B     		cmp	r3, #2
 132 002c 02D0     		beq	.L6
 133              		.loc 1 104 0 discriminator 2
 134 002e 0B48     		ldr	r0, .L7+4
 135 0030 FFF7FEFF 		bl	chDbgPanic
 136              	.L6:
 137              		.loc 1 106 0 is_stmt 1
 138 0034 019B     		ldr	r3, [sp, #4]
 139 0036 009A     		ldr	r2, [sp]
 140 0038 5A60     		str	r2, [r3, #4]
 141              		.loc 1 107 0
 142 003a 009B     		ldr	r3, [sp]
 143 003c 9A88     		ldrh	r2, [r3, #4]
 144 003e 019B     		ldr	r3, [sp, #4]
 145 0040 1A81     		strh	r2, [r3, #8]	@ movhi
 146              		.loc 1 108 0
 147 0042 0198     		ldr	r0, [sp, #4]
 148 0044 FFF7FEFF 		bl	pwm_lld_start
 149              		.loc 1 109 0
 150 0048 019B     		ldr	r3, [sp, #4]
 151 004a 0222     		movs	r2, #2
 152 004c 1A70     		strb	r2, [r3]
 153              		.loc 1 110 0
 154              	@ 110 "/home/makkmarci/workspace/ChibiOS_2.6.8/os/hal/src/pwm.c" 1
 155 004e FFF7FEFF 		bl      _port_unlock
 156              	@ 0 "" 2
 157              		.loc 1 111 0
 158              		.thumb
 159 0052 03B0     		add	sp, sp, #12
 160              		.cfi_def_cfa_offset 4
 161              		@ sp needed
 162 0054 5DF804FB 		ldr	pc, [sp], #4
ARM GAS  /tmp/ccQpDTAl.s 			page 4


 163              	.L8:
 164              		.align	2
 165              	.L7:
 166 0058 00000000 		.word	.LC0
 167 005c 10000000 		.word	.LC1
 168              		.cfi_endproc
 169              	.LFE113:
 170              		.size	pwmStart, .-pwmStart
 171              		.section	.rodata
 172 001f 00       		.align	2
 173              	.LC2:
 174 0020 2270776D 		.ascii	"\"pwmStop\"()\000"
 174      53746F70 
 174      22282900 
 175              		.align	2
 176              	.LC3:
 177 002c 70776D53 		.ascii	"pwmStop(), #1\000"
 177      746F7028 
 177      292C2023 
 177      3100
 178              		.section	.text.pwmStop,"ax",%progbits
 179              		.align	2
 180              		.p2align 4,,15
 181              		.global	pwmStop
 182              		.thumb
 183              		.thumb_func
 184              		.type	pwmStop, %function
 185              	pwmStop:
 186              	.LFB114:
 187              		.loc 1 120 0
 188              		.cfi_startproc
 189              		@ args = 0, pretend = 0, frame = 8
 190              		@ frame_needed = 0, uses_anonymous_args = 0
 191 0000 00B5     		push	{lr}
 192              		.cfi_def_cfa_offset 4
 193              		.cfi_offset 14, -4
 194 0002 83B0     		sub	sp, sp, #12
 195              		.cfi_def_cfa_offset 16
 196 0004 0190     		str	r0, [sp, #4]
 197              		.loc 1 122 0
 198 0006 019B     		ldr	r3, [sp, #4]
 199 0008 002B     		cmp	r3, #0
 200 000a 02D1     		bne	.L10
 201              		.loc 1 122 0 is_stmt 0 discriminator 1
 202 000c 0D48     		ldr	r0, .L12
 203 000e FFF7FEFF 		bl	chDbgPanic
 204              	.L10:
 205              		.loc 1 124 0 is_stmt 1
 206              	@ 124 "/home/makkmarci/workspace/ChibiOS_2.6.8/os/hal/src/pwm.c" 1
 207 0012 FFF7FEFF 		bl      _port_lock
 208              	@ 0 "" 2
 209              		.loc 1 125 0
 210              		.thumb
 211 0016 019B     		ldr	r3, [sp, #4]
 212 0018 1B78     		ldrb	r3, [r3]	@ zero_extendqisi2
 213 001a 012B     		cmp	r3, #1
 214 001c 06D0     		beq	.L11
ARM GAS  /tmp/ccQpDTAl.s 			page 5


 215              		.loc 1 125 0 is_stmt 0 discriminator 1
 216 001e 019B     		ldr	r3, [sp, #4]
 217 0020 1B78     		ldrb	r3, [r3]	@ zero_extendqisi2
 218 0022 022B     		cmp	r3, #2
 219 0024 02D0     		beq	.L11
 220              		.loc 1 125 0 discriminator 2
 221 0026 0848     		ldr	r0, .L12+4
 222 0028 FFF7FEFF 		bl	chDbgPanic
 223              	.L11:
 224              		.loc 1 127 0 is_stmt 1
 225 002c 0198     		ldr	r0, [sp, #4]
 226 002e FFF7FEFF 		bl	pwm_lld_stop
 227              		.loc 1 128 0
 228 0032 019B     		ldr	r3, [sp, #4]
 229 0034 0122     		movs	r2, #1
 230 0036 1A70     		strb	r2, [r3]
 231              		.loc 1 129 0
 232              	@ 129 "/home/makkmarci/workspace/ChibiOS_2.6.8/os/hal/src/pwm.c" 1
 233 0038 FFF7FEFF 		bl      _port_unlock
 234              	@ 0 "" 2
 235              		.loc 1 130 0
 236              		.thumb
 237 003c 03B0     		add	sp, sp, #12
 238              		.cfi_def_cfa_offset 4
 239              		@ sp needed
 240 003e 5DF804FB 		ldr	pc, [sp], #4
 241              	.L13:
 242 0042 00BF     		.align	2
 243              	.L12:
 244 0044 20000000 		.word	.LC2
 245 0048 2C000000 		.word	.LC3
 246              		.cfi_endproc
 247              	.LFE114:
 248              		.size	pwmStop, .-pwmStop
 249 004c AFF30080 		.section	.rodata
 250 003a 0000     		.align	2
 251              	.LC4:
 252 003c 2270776D 		.ascii	"\"pwmChangePeriod\"()\000"
 252      4368616E 
 252      67655065 
 252      72696F64 
 252      22282900 
 253              		.align	2
 254              	.LC5:
 255 0050 70776D43 		.ascii	"pwmChangePeriod(), #1\000"
 255      68616E67 
 255      65506572 
 255      696F6428 
 255      292C2023 
 256              		.section	.text.pwmChangePeriod,"ax",%progbits
 257              		.align	2
 258              		.p2align 4,,15
 259              		.global	pwmChangePeriod
 260              		.thumb
 261              		.thumb_func
 262              		.type	pwmChangePeriod, %function
 263              	pwmChangePeriod:
ARM GAS  /tmp/ccQpDTAl.s 			page 6


 264              	.LFB115:
 265              		.loc 1 147 0
 266              		.cfi_startproc
 267              		@ args = 0, pretend = 0, frame = 8
 268              		@ frame_needed = 0, uses_anonymous_args = 0
 269 0000 00B5     		push	{lr}
 270              		.cfi_def_cfa_offset 4
 271              		.cfi_offset 14, -4
 272 0002 83B0     		sub	sp, sp, #12
 273              		.cfi_def_cfa_offset 16
 274 0004 0190     		str	r0, [sp, #4]
 275 0006 0B46     		mov	r3, r1
 276 0008 ADF80230 		strh	r3, [sp, #2]	@ movhi
 277              		.loc 1 149 0
 278 000c 019B     		ldr	r3, [sp, #4]
 279 000e 002B     		cmp	r3, #0
 280 0010 02D1     		bne	.L15
 281              		.loc 1 149 0 is_stmt 0 discriminator 1
 282 0012 0E48     		ldr	r0, .L17
 283 0014 FFF7FEFF 		bl	chDbgPanic
 284              	.L15:
 285              		.loc 1 151 0 is_stmt 1
 286              	@ 151 "/home/makkmarci/workspace/ChibiOS_2.6.8/os/hal/src/pwm.c" 1
 287 0018 FFF7FEFF 		bl      _port_lock
 288              	@ 0 "" 2
 289              		.loc 1 152 0
 290              		.thumb
 291 001c 019B     		ldr	r3, [sp, #4]
 292 001e 1B78     		ldrb	r3, [r3]	@ zero_extendqisi2
 293 0020 022B     		cmp	r3, #2
 294 0022 02D0     		beq	.L16
 295              		.loc 1 152 0 is_stmt 0 discriminator 1
 296 0024 0A48     		ldr	r0, .L17+4
 297 0026 FFF7FEFF 		bl	chDbgPanic
 298              	.L16:
 299              		.loc 1 154 0 is_stmt 1
 300 002a 019B     		ldr	r3, [sp, #4]
 301 002c BDF80220 		ldrh	r2, [sp, #2]	@ movhi
 302 0030 1A81     		strh	r2, [r3, #8]	@ movhi
 303 0032 019B     		ldr	r3, [sp, #4]
 304 0034 1B69     		ldr	r3, [r3, #16]
 305 0036 BDF80220 		ldrh	r2, [sp, #2]	@ movhi
 306 003a 013A     		subs	r2, r2, #1
 307 003c 92B2     		uxth	r2, r2
 308 003e DA62     		str	r2, [r3, #44]
 309              		.loc 1 155 0
 310              	@ 155 "/home/makkmarci/workspace/ChibiOS_2.6.8/os/hal/src/pwm.c" 1
 311 0040 FFF7FEFF 		bl      _port_unlock
 312              	@ 0 "" 2
 313              		.loc 1 156 0
 314              		.thumb
 315 0044 03B0     		add	sp, sp, #12
 316              		.cfi_def_cfa_offset 4
 317              		@ sp needed
 318 0046 5DF804FB 		ldr	pc, [sp], #4
 319              	.L18:
 320 004a 00BF     		.align	2
ARM GAS  /tmp/ccQpDTAl.s 			page 7


 321              	.L17:
 322 004c 3C000000 		.word	.LC4
 323 0050 50000000 		.word	.LC5
 324              		.cfi_endproc
 325              	.LFE115:
 326              		.size	pwmChangePeriod, .-pwmChangePeriod
 327 0054 AFF30080 		.section	.rodata
 327      AFF30080 
 327      AFF30080 
 328 0066 0000     		.align	2
 329              	.LC6:
 330 0068 2270776D 		.ascii	"\"pwmEnableChannel\"()\000"
 330      456E6162 
 330      6C654368 
 330      616E6E65 
 330      6C222829 
 331 007d 000000   		.align	2
 332              	.LC7:
 333 0080 70776D45 		.ascii	"pwmEnableChannel(), #1\000"
 333      6E61626C 
 333      65436861 
 333      6E6E656C 
 333      28292C20 
 334              		.section	.text.pwmEnableChannel,"ax",%progbits
 335              		.align	2
 336              		.p2align 4,,15
 337              		.global	pwmEnableChannel
 338              		.thumb
 339              		.thumb_func
 340              		.type	pwmEnableChannel, %function
 341              	pwmEnableChannel:
 342              	.LFB116:
 343              		.loc 1 174 0
 344              		.cfi_startproc
 345              		@ args = 0, pretend = 0, frame = 8
 346              		@ frame_needed = 0, uses_anonymous_args = 0
 347 0000 00B5     		push	{lr}
 348              		.cfi_def_cfa_offset 4
 349              		.cfi_offset 14, -4
 350 0002 83B0     		sub	sp, sp, #12
 351              		.cfi_def_cfa_offset 16
 352 0004 0190     		str	r0, [sp, #4]
 353 0006 0B46     		mov	r3, r1
 354 0008 8DF80330 		strb	r3, [sp, #3]
 355 000c 1346     		mov	r3, r2	@ movhi
 356 000e ADF80030 		strh	r3, [sp]	@ movhi
 357              		.loc 1 176 0
 358 0012 019B     		ldr	r3, [sp, #4]
 359 0014 002B     		cmp	r3, #0
 360 0016 03D0     		beq	.L20
 361              		.loc 1 176 0 is_stmt 0 discriminator 2
 362 0018 9DF80330 		ldrb	r3, [sp, #3]	@ zero_extendqisi2
 363 001c 032B     		cmp	r3, #3
 364 001e 02D9     		bls	.L21
 365              	.L20:
 366              		.loc 1 176 0 discriminator 3
 367 0020 0C48     		ldr	r0, .L23
ARM GAS  /tmp/ccQpDTAl.s 			page 8


 368 0022 FFF7FEFF 		bl	chDbgPanic
 369              	.L21:
 370              		.loc 1 179 0 is_stmt 1
 371              	@ 179 "/home/makkmarci/workspace/ChibiOS_2.6.8/os/hal/src/pwm.c" 1
 372 0026 FFF7FEFF 		bl      _port_lock
 373              	@ 0 "" 2
 374              		.loc 1 180 0
 375              		.thumb
 376 002a 019B     		ldr	r3, [sp, #4]
 377 002c 1B78     		ldrb	r3, [r3]	@ zero_extendqisi2
 378 002e 022B     		cmp	r3, #2
 379 0030 02D0     		beq	.L22
 380              		.loc 1 180 0 is_stmt 0 discriminator 1
 381 0032 0948     		ldr	r0, .L23+4
 382 0034 FFF7FEFF 		bl	chDbgPanic
 383              	.L22:
 384              		.loc 1 182 0 is_stmt 1
 385 0038 9DF80320 		ldrb	r2, [sp, #3]	@ zero_extendqisi2
 386 003c BDF80030 		ldrh	r3, [sp]
 387 0040 0198     		ldr	r0, [sp, #4]
 388 0042 1146     		mov	r1, r2
 389 0044 1A46     		mov	r2, r3
 390 0046 FFF7FEFF 		bl	pwm_lld_enable_channel
 391              		.loc 1 183 0
 392              	@ 183 "/home/makkmarci/workspace/ChibiOS_2.6.8/os/hal/src/pwm.c" 1
 393 004a FFF7FEFF 		bl      _port_unlock
 394              	@ 0 "" 2
 395              		.loc 1 184 0
 396              		.thumb
 397 004e 03B0     		add	sp, sp, #12
 398              		.cfi_def_cfa_offset 4
 399              		@ sp needed
 400 0050 5DF804FB 		ldr	pc, [sp], #4
 401              	.L24:
 402              		.align	2
 403              	.L23:
 404 0054 68000000 		.word	.LC6
 405 0058 80000000 		.word	.LC7
 406              		.cfi_endproc
 407              	.LFE116:
 408              		.size	pwmEnableChannel, .-pwmEnableChannel
 409 005c AFF30080 		.section	.rodata
 410 0097 00       		.align	2
 411              	.LC8:
 412 0098 70776D44 		.ascii	"pwmDisableChannel(), #1\000"
 412      69736162 
 412      6C654368 
 412      616E6E65 
 412      6C28292C 
 413              		.section	.text.pwmDisableChannel,"ax",%progbits
 414              		.align	2
 415              		.p2align 4,,15
 416              		.global	pwmDisableChannel
 417              		.thumb
 418              		.thumb_func
 419              		.type	pwmDisableChannel, %function
 420              	pwmDisableChannel:
ARM GAS  /tmp/ccQpDTAl.s 			page 9


 421              	.LFB117:
 422              		.loc 1 200 0
 423              		.cfi_startproc
 424              		@ args = 0, pretend = 0, frame = 8
 425              		@ frame_needed = 0, uses_anonymous_args = 0
 426 0000 00B5     		push	{lr}
 427              		.cfi_def_cfa_offset 4
 428              		.cfi_offset 14, -4
 429 0002 83B0     		sub	sp, sp, #12
 430              		.cfi_def_cfa_offset 16
 431 0004 0190     		str	r0, [sp, #4]
 432 0006 0B46     		mov	r3, r1
 433 0008 8DF80330 		strb	r3, [sp, #3]
 434              		.loc 1 202 0
 435 000c 019B     		ldr	r3, [sp, #4]
 436 000e 002B     		cmp	r3, #0
 437 0010 03D0     		beq	.L26
 438              		.loc 1 202 0 is_stmt 0 discriminator 2
 439 0012 9DF80330 		ldrb	r3, [sp, #3]	@ zero_extendqisi2
 440 0016 032B     		cmp	r3, #3
 441 0018 02D9     		bls	.L27
 442              	.L26:
 443              		.loc 1 202 0 discriminator 3
 444 001a 0B48     		ldr	r0, .L29
 445 001c FFF7FEFF 		bl	chDbgPanic
 446              	.L27:
 447              		.loc 1 205 0 is_stmt 1
 448              	@ 205 "/home/makkmarci/workspace/ChibiOS_2.6.8/os/hal/src/pwm.c" 1
 449 0020 FFF7FEFF 		bl      _port_lock
 450              	@ 0 "" 2
 451              		.loc 1 206 0
 452              		.thumb
 453 0024 019B     		ldr	r3, [sp, #4]
 454 0026 1B78     		ldrb	r3, [r3]	@ zero_extendqisi2
 455 0028 022B     		cmp	r3, #2
 456 002a 02D0     		beq	.L28
 457              		.loc 1 206 0 is_stmt 0 discriminator 1
 458 002c 0748     		ldr	r0, .L29+4
 459 002e FFF7FEFF 		bl	chDbgPanic
 460              	.L28:
 461              		.loc 1 208 0 is_stmt 1
 462 0032 9DF80330 		ldrb	r3, [sp, #3]	@ zero_extendqisi2
 463 0036 0198     		ldr	r0, [sp, #4]
 464 0038 1946     		mov	r1, r3
 465 003a FFF7FEFF 		bl	pwm_lld_disable_channel
 466              		.loc 1 209 0
 467              	@ 209 "/home/makkmarci/workspace/ChibiOS_2.6.8/os/hal/src/pwm.c" 1
 468 003e FFF7FEFF 		bl      _port_unlock
 469              	@ 0 "" 2
 470              		.loc 1 210 0
 471              		.thumb
 472 0042 03B0     		add	sp, sp, #12
 473              		.cfi_def_cfa_offset 4
 474              		@ sp needed
 475 0044 5DF804FB 		ldr	pc, [sp], #4
 476              	.L30:
 477              		.align	2
ARM GAS  /tmp/ccQpDTAl.s 			page 10


 478              	.L29:
 479 0048 68000000 		.word	.LC6
 480 004c 98000000 		.word	.LC8
 481              		.cfi_endproc
 482              	.LFE117:
 483              		.size	pwmDisableChannel, .-pwmDisableChannel
 484              		.text
 485              	.Letext0:
 486              		.file 2 "/opt/gcc-arm-none-eabi/arm-none-eabi/include/machine/_default_types.h"
 487              		.file 3 "/opt/gcc-arm-none-eabi/arm-none-eabi/include/stdint.h"
 488              		.file 4 "/home/makkmarci/workspace/ChibiOS_2.6.8/os/hal/platforms/STM32/TIMv1/stm32_tim.h"
 489              		.file 5 "/home/makkmarci/workspace/ChibiOS_2.6.8/os/hal/include/pwm.h"
 490              		.file 6 "/home/makkmarci/workspace/ChibiOS_2.6.8/os/hal/platforms/STM32/TIMv1/pwm_lld.h"
 491              		.file 7 "/home/makkmarci/workspace/ChibiOS_2.6.8/os/ports/common/ARMCMx/CMSIS/include/core_cm4.h"