ARM GAS  /tmp/ccdv8COJ.s 			page 1


   1              		.syntax unified
   2              		.cpu cortex-m4
   3              		.eabi_attribute 27, 3
   4              		.eabi_attribute 28, 1
   5              		.fpu fpv4-sp-d16
   6              		.eabi_attribute 20, 1
   7              		.eabi_attribute 21, 1
   8              		.eabi_attribute 23, 3
   9              		.eabi_attribute 24, 1
  10              		.eabi_attribute 25, 1
  11              		.eabi_attribute 26, 1
  12              		.eabi_attribute 30, 2
  13              		.eabi_attribute 34, 1
  14              		.eabi_attribute 18, 4
  15              		.thumb
  16              		.file	"pwm.c"
  17              		.text
  18              	.Ltext0:
  19              		.cfi_sections	.debug_frame
  20              		.section	.text.pwmInit,"ax",%progbits
  21              		.align	2
  22              		.p2align 4,,15
  23              		.global	pwmInit
  24              		.thumb
  25              		.thumb_func
  26              		.type	pwmInit, %function
  27              	pwmInit:
  28              	.LFB111:
  29              		.file 1 "../../os/hal/src/pwm.c"
  30              		.loc 1 68 0
  31              		.cfi_startproc
  32              		@ args = 0, pretend = 0, frame = 0
  33              		@ frame_needed = 0, uses_anonymous_args = 0
  34              		@ link register save eliminated.
  35              		.loc 1 70 0
  36 0000 FFF7FEBF 		b	pwm_lld_init
  37              	.LVL0:
  38              		.cfi_endproc
  39              	.LFE111:
  40              		.size	pwmInit, .-pwmInit
  41 0004 AFF30080 		.section	.text.pwmObjectInit,"ax",%progbits
  41      AFF30080 
  41      AFF30080 
  42              		.align	2
  43              		.p2align 4,,15
  44              		.global	pwmObjectInit
  45              		.thumb
  46              		.thumb_func
  47              		.type	pwmObjectInit, %function
  48              	pwmObjectInit:
  49              	.LFB112:
  50              		.loc 1 80 0
  51              		.cfi_startproc
  52              		@ args = 0, pretend = 0, frame = 0
  53              		@ frame_needed = 0, uses_anonymous_args = 0
  54              		@ link register save eliminated.
  55              	.LVL1:
ARM GAS  /tmp/ccdv8COJ.s 			page 2


  56              		.loc 1 82 0
  57 0000 0122     		movs	r2, #1
  58              		.loc 1 83 0
  59 0002 0023     		movs	r3, #0
  60              		.loc 1 82 0
  61 0004 0270     		strb	r2, [r0]
  62              		.loc 1 83 0
  63 0006 4360     		str	r3, [r0, #4]
  64 0008 7047     		bx	lr
  65              		.cfi_endproc
  66              	.LFE112:
  67              		.size	pwmObjectInit, .-pwmObjectInit
  68 000a 00BFAFF3 		.section	.text.pwmStart,"ax",%progbits
  68      0080
  69              		.align	2
  70              		.p2align 4,,15
  71              		.global	pwmStart
  72              		.thumb
  73              		.thumb_func
  74              		.type	pwmStart, %function
  75              	pwmStart:
  76              	.LFB113:
  77              		.loc 1 99 0
  78              		.cfi_startproc
  79              		@ args = 0, pretend = 0, frame = 0
  80              		@ frame_needed = 0, uses_anonymous_args = 0
  81              	.LVL2:
  82 0000 38B5     		push	{r3, r4, r5, lr}
  83              		.cfi_def_cfa_offset 16
  84              		.cfi_offset 3, -16
  85              		.cfi_offset 4, -12
  86              		.cfi_offset 5, -8
  87              		.cfi_offset 14, -4
  88              		.loc 1 101 0
  89 0002 0446     		mov	r4, r0
  90              		.loc 1 99 0
  91 0004 0D46     		mov	r5, r1
  92              		.loc 1 101 0
  93 0006 A0B1     		cbz	r0, .L4
  94              		.loc 1 101 0 is_stmt 0 discriminator 2
  95 0008 99B1     		cbz	r1, .L4
  96              	.LVL3:
  97              	.L5:
  98              		.loc 1 103 0 is_stmt 1
  99              	@ 103 "../../os/hal/src/pwm.c" 1
 100 000a FFF7FEFF 		bl      _port_lock
 101              	@ 0 "" 2
 102              		.loc 1 104 0
 103              		.thumb
 104 000e 2378     		ldrb	r3, [r4]	@ zero_extendqisi2
 105 0010 013B     		subs	r3, r3, #1
 106 0012 012B     		cmp	r3, #1
 107 0014 02D9     		bls	.L6
 108              		.loc 1 104 0 is_stmt 0 discriminator 1
 109 0016 0948     		ldr	r0, .L11
 110 0018 FFF7FEFF 		bl	chDbgPanic
 111              	.LVL4:
ARM GAS  /tmp/ccdv8COJ.s 			page 3


 112              	.L6:
 113              		.loc 1 107 0 is_stmt 1
 114 001c AB88     		ldrh	r3, [r5, #4]
 115 001e 2381     		strh	r3, [r4, #8]	@ movhi
 116              		.loc 1 106 0
 117 0020 6560     		str	r5, [r4, #4]
 118              		.loc 1 108 0
 119 0022 2046     		mov	r0, r4
 120 0024 FFF7FEFF 		bl	pwm_lld_start
 121              	.LVL5:
 122              		.loc 1 109 0
 123 0028 0223     		movs	r3, #2
 124 002a 2370     		strb	r3, [r4]
 125              		.loc 1 110 0
 126              	@ 110 "../../os/hal/src/pwm.c" 1
 127 002c FFF7FEFF 		bl      _port_unlock
 128              	@ 0 "" 2
 129              		.thumb
 130 0030 38BD     		pop	{r3, r4, r5, pc}
 131              	.LVL6:
 132              	.L4:
 133              		.loc 1 101 0 discriminator 1
 134 0032 0348     		ldr	r0, .L11+4
 135              	.LVL7:
 136 0034 FFF7FEFF 		bl	chDbgPanic
 137              	.LVL8:
 138 0038 E7E7     		b	.L5
 139              	.L12:
 140 003a 00BF     		.align	2
 141              	.L11:
 142 003c 10000000 		.word	.LC1
 143 0040 00000000 		.word	.LC0
 144              		.cfi_endproc
 145              	.LFE113:
 146              		.size	pwmStart, .-pwmStart
 147 0044 AFF30080 		.section	.text.pwmStop,"ax",%progbits
 147      AFF30080 
 147      AFF30080 
 148              		.align	2
 149              		.p2align 4,,15
 150              		.global	pwmStop
 151              		.thumb
 152              		.thumb_func
 153              		.type	pwmStop, %function
 154              	pwmStop:
 155              	.LFB114:
 156              		.loc 1 120 0
 157              		.cfi_startproc
 158              		@ args = 0, pretend = 0, frame = 0
 159              		@ frame_needed = 0, uses_anonymous_args = 0
 160              	.LVL9:
 161 0000 10B5     		push	{r4, lr}
 162              		.cfi_def_cfa_offset 8
 163              		.cfi_offset 4, -8
 164              		.cfi_offset 14, -4
 165              		.loc 1 122 0
 166 0002 0446     		mov	r4, r0
ARM GAS  /tmp/ccdv8COJ.s 			page 4


 167 0004 80B1     		cbz	r0, .L16
 168              	.LVL10:
 169              	.L14:
 170              		.loc 1 124 0
 171              	@ 124 "../../os/hal/src/pwm.c" 1
 172 0006 FFF7FEFF 		bl      _port_lock
 173              	@ 0 "" 2
 174              		.loc 1 125 0
 175              		.thumb
 176 000a 2378     		ldrb	r3, [r4]	@ zero_extendqisi2
 177 000c 013B     		subs	r3, r3, #1
 178 000e 012B     		cmp	r3, #1
 179 0010 02D9     		bls	.L15
 180              		.loc 1 125 0 is_stmt 0 discriminator 1
 181 0012 0748     		ldr	r0, .L17
 182 0014 FFF7FEFF 		bl	chDbgPanic
 183              	.LVL11:
 184              	.L15:
 185              		.loc 1 127 0 is_stmt 1
 186 0018 2046     		mov	r0, r4
 187 001a FFF7FEFF 		bl	pwm_lld_stop
 188              	.LVL12:
 189              		.loc 1 128 0
 190 001e 0123     		movs	r3, #1
 191 0020 2370     		strb	r3, [r4]
 192              		.loc 1 129 0
 193              	@ 129 "../../os/hal/src/pwm.c" 1
 194 0022 FFF7FEFF 		bl      _port_unlock
 195              	@ 0 "" 2
 196              		.thumb
 197 0026 10BD     		pop	{r4, pc}
 198              	.LVL13:
 199              	.L16:
 200              		.loc 1 122 0 discriminator 1
 201 0028 0248     		ldr	r0, .L17+4
 202              	.LVL14:
 203 002a FFF7FEFF 		bl	chDbgPanic
 204              	.LVL15:
 205 002e EAE7     		b	.L14
 206              	.L18:
 207              		.align	2
 208              	.L17:
 209 0030 2C000000 		.word	.LC3
 210 0034 20000000 		.word	.LC2
 211              		.cfi_endproc
 212              	.LFE114:
 213              		.size	pwmStop, .-pwmStop
 214 0038 AFF30080 		.section	.text.pwmChangePeriod,"ax",%progbits
 214      AFF30080 
 215              		.align	2
 216              		.p2align 4,,15
 217              		.global	pwmChangePeriod
 218              		.thumb
 219              		.thumb_func
 220              		.type	pwmChangePeriod, %function
 221              	pwmChangePeriod:
 222              	.LFB115:
ARM GAS  /tmp/ccdv8COJ.s 			page 5


 223              		.loc 1 147 0
 224              		.cfi_startproc
 225              		@ args = 0, pretend = 0, frame = 0
 226              		@ frame_needed = 0, uses_anonymous_args = 0
 227              	.LVL16:
 228 0000 38B5     		push	{r3, r4, r5, lr}
 229              		.cfi_def_cfa_offset 16
 230              		.cfi_offset 3, -16
 231              		.cfi_offset 4, -12
 232              		.cfi_offset 5, -8
 233              		.cfi_offset 14, -4
 234              		.loc 1 149 0
 235 0002 0446     		mov	r4, r0
 236              		.loc 1 147 0
 237 0004 0D46     		mov	r5, r1
 238              		.loc 1 149 0
 239 0006 78B1     		cbz	r0, .L25
 240              	.LVL17:
 241              	.L20:
 242              		.loc 1 151 0
 243              	@ 151 "../../os/hal/src/pwm.c" 1
 244 0008 FFF7FEFF 		bl      _port_lock
 245              	@ 0 "" 2
 246              		.loc 1 152 0
 247              		.thumb
 248 000c 2378     		ldrb	r3, [r4]	@ zero_extendqisi2
 249 000e 022B     		cmp	r3, #2
 250 0010 02D0     		beq	.L21
 251              		.loc 1 152 0 is_stmt 0 discriminator 1
 252 0012 0748     		ldr	r0, .L26
 253 0014 FFF7FEFF 		bl	chDbgPanic
 254              	.LVL18:
 255              	.L21:
 256              		.loc 1 154 0 is_stmt 1
 257 0018 6A1E     		subs	r2, r5, #1
 258 001a 2369     		ldr	r3, [r4, #16]
 259 001c 2581     		strh	r5, [r4, #8]	@ movhi
 260 001e 92B2     		uxth	r2, r2
 261 0020 DA62     		str	r2, [r3, #44]
 262              		.loc 1 155 0
 263              	@ 155 "../../os/hal/src/pwm.c" 1
 264 0022 FFF7FEFF 		bl      _port_unlock
 265              	@ 0 "" 2
 266              		.thumb
 267 0026 38BD     		pop	{r3, r4, r5, pc}
 268              	.LVL19:
 269              	.L25:
 270              		.loc 1 149 0 discriminator 1
 271 0028 0248     		ldr	r0, .L26+4
 272              	.LVL20:
 273 002a FFF7FEFF 		bl	chDbgPanic
 274              	.LVL21:
 275 002e EBE7     		b	.L20
 276              	.L27:
 277              		.align	2
 278              	.L26:
 279 0030 50000000 		.word	.LC5
ARM GAS  /tmp/ccdv8COJ.s 			page 6


 280 0034 3C000000 		.word	.LC4
 281              		.cfi_endproc
 282              	.LFE115:
 283              		.size	pwmChangePeriod, .-pwmChangePeriod
 284              		.section	.text.pwmEnableChannel,"ax",%progbits
 285              		.align	2
 286              		.p2align 4,,15
 287              		.global	pwmEnableChannel
 288              		.thumb
 289              		.thumb_func
 290              		.type	pwmEnableChannel, %function
 291              	pwmEnableChannel:
 292              	.LFB116:
 293              		.loc 1 174 0
 294              		.cfi_startproc
 295              		@ args = 0, pretend = 0, frame = 0
 296              		@ frame_needed = 0, uses_anonymous_args = 0
 297              	.LVL22:
 298 0000 70B5     		push	{r4, r5, r6, lr}
 299              		.cfi_def_cfa_offset 16
 300              		.cfi_offset 4, -16
 301              		.cfi_offset 5, -12
 302              		.cfi_offset 6, -8
 303              		.cfi_offset 14, -4
 304              		.loc 1 176 0
 305 0002 0446     		mov	r4, r0
 306              		.loc 1 174 0
 307 0004 0D46     		mov	r5, r1
 308 0006 1646     		mov	r6, r2
 309              		.loc 1 176 0
 310 0008 88B1     		cbz	r0, .L29
 311              		.loc 1 176 0 is_stmt 0 discriminator 2
 312 000a 0329     		cmp	r1, #3
 313 000c 0FD8     		bhi	.L29
 314              	.LVL23:
 315              	.L30:
 316              		.loc 1 179 0 is_stmt 1
 317              	@ 179 "../../os/hal/src/pwm.c" 1
 318 000e FFF7FEFF 		bl      _port_lock
 319              	@ 0 "" 2
 320              		.loc 1 180 0
 321              		.thumb
 322 0012 2378     		ldrb	r3, [r4]	@ zero_extendqisi2
 323 0014 022B     		cmp	r3, #2
 324 0016 02D0     		beq	.L31
 325              		.loc 1 180 0 is_stmt 0 discriminator 1
 326 0018 0748     		ldr	r0, .L38
 327 001a FFF7FEFF 		bl	chDbgPanic
 328              	.LVL24:
 329              	.L31:
 330              		.loc 1 182 0 is_stmt 1
 331 001e 2046     		mov	r0, r4
 332 0020 2946     		mov	r1, r5
 333 0022 3246     		mov	r2, r6
 334 0024 FFF7FEFF 		bl	pwm_lld_enable_channel
 335              	.LVL25:
 336              		.loc 1 183 0
ARM GAS  /tmp/ccdv8COJ.s 			page 7


 337              	@ 183 "../../os/hal/src/pwm.c" 1
 338 0028 FFF7FEFF 		bl      _port_unlock
 339              	@ 0 "" 2
 340              		.thumb
 341 002c 70BD     		pop	{r4, r5, r6, pc}
 342              	.LVL26:
 343              	.L29:
 344              		.loc 1 176 0 discriminator 1
 345 002e 0348     		ldr	r0, .L38+4
 346              	.LVL27:
 347 0030 FFF7FEFF 		bl	chDbgPanic
 348              	.LVL28:
 349 0034 EBE7     		b	.L30
 350              	.L39:
 351 0036 00BF     		.align	2
 352              	.L38:
 353 0038 80000000 		.word	.LC7
 354 003c 68000000 		.word	.LC6
 355              		.cfi_endproc
 356              	.LFE116:
 357              		.size	pwmEnableChannel, .-pwmEnableChannel
 358              		.section	.text.pwmDisableChannel,"ax",%progbits
 359              		.align	2
 360              		.p2align 4,,15
 361              		.global	pwmDisableChannel
 362              		.thumb
 363              		.thumb_func
 364              		.type	pwmDisableChannel, %function
 365              	pwmDisableChannel:
 366              	.LFB117:
 367              		.loc 1 200 0
 368              		.cfi_startproc
 369              		@ args = 0, pretend = 0, frame = 0
 370              		@ frame_needed = 0, uses_anonymous_args = 0
 371              	.LVL29:
 372 0000 38B5     		push	{r3, r4, r5, lr}
 373              		.cfi_def_cfa_offset 16
 374              		.cfi_offset 3, -16
 375              		.cfi_offset 4, -12
 376              		.cfi_offset 5, -8
 377              		.cfi_offset 14, -4
 378              		.loc 1 202 0
 379 0002 0446     		mov	r4, r0
 380              		.loc 1 200 0
 381 0004 0D46     		mov	r5, r1
 382              		.loc 1 202 0
 383 0006 80B1     		cbz	r0, .L41
 384              		.loc 1 202 0 is_stmt 0 discriminator 2
 385 0008 0329     		cmp	r1, #3
 386 000a 0ED8     		bhi	.L41
 387              	.LVL30:
 388              	.L42:
 389              		.loc 1 205 0 is_stmt 1
 390              	@ 205 "../../os/hal/src/pwm.c" 1
 391 000c FFF7FEFF 		bl      _port_lock
 392              	@ 0 "" 2
 393              		.loc 1 206 0
ARM GAS  /tmp/ccdv8COJ.s 			page 8


 394              		.thumb
 395 0010 2378     		ldrb	r3, [r4]	@ zero_extendqisi2
 396 0012 022B     		cmp	r3, #2
 397 0014 02D0     		beq	.L43
 398              		.loc 1 206 0 is_stmt 0 discriminator 1
 399 0016 0748     		ldr	r0, .L50
 400 0018 FFF7FEFF 		bl	chDbgPanic
 401              	.LVL31:
 402              	.L43:
 403              		.loc 1 208 0 is_stmt 1
 404 001c 2046     		mov	r0, r4
 405 001e 2946     		mov	r1, r5
 406 0020 FFF7FEFF 		bl	pwm_lld_disable_channel
 407              	.LVL32:
 408              		.loc 1 209 0
 409              	@ 209 "../../os/hal/src/pwm.c" 1
 410 0024 FFF7FEFF 		bl      _port_unlock
 411              	@ 0 "" 2
 412              		.thumb
 413 0028 38BD     		pop	{r3, r4, r5, pc}
 414              	.LVL33:
 415              	.L41:
 416              		.loc 1 202 0 discriminator 1
 417 002a 0348     		ldr	r0, .L50+4
 418              	.LVL34:
 419 002c FFF7FEFF 		bl	chDbgPanic
 420              	.LVL35:
 421 0030 ECE7     		b	.L42
 422              	.L51:
 423 0032 00BF     		.align	2
 424              	.L50:
 425 0034 98000000 		.word	.LC8
 426 0038 68000000 		.word	.LC6
 427              		.cfi_endproc
 428              	.LFE117:
 429              		.size	pwmDisableChannel, .-pwmDisableChannel
 430 003c AFF30080 		.section	.rodata.str1.4,"aMS",%progbits,1
 431              		.align	2
 432              	.LC0:
 433 0000 2270776D 		.ascii	"\"pwmStart\"()\000"
 433      53746172 
 433      74222829 
 433      00
 434 000d 000000   		.space	3
 435              	.LC1:
 436 0010 70776D53 		.ascii	"pwmStart(), #1\000"
 436      74617274 
 436      28292C20 
 436      233100
 437 001f 00       		.space	1
 438              	.LC2:
 439 0020 2270776D 		.ascii	"\"pwmStop\"()\000"
 439      53746F70 
 439      22282900 
 440              	.LC3:
 441 002c 70776D53 		.ascii	"pwmStop(), #1\000"
 441      746F7028 
ARM GAS  /tmp/ccdv8COJ.s 			page 9


 441      292C2023 
 441      3100
 442 003a 0000     		.space	2
 443              	.LC4:
 444 003c 2270776D 		.ascii	"\"pwmChangePeriod\"()\000"
 444      4368616E 
 444      67655065 
 444      72696F64 
 444      22282900 
 445              	.LC5:
 446 0050 70776D43 		.ascii	"pwmChangePeriod(), #1\000"
 446      68616E67 
 446      65506572 
 446      696F6428 
 446      292C2023 
 447 0066 0000     		.space	2
 448              	.LC6:
 449 0068 2270776D 		.ascii	"\"pwmEnableChannel\"()\000"
 449      456E6162 
 449      6C654368 
 449      616E6E65 
 449      6C222829 
 450 007d 000000   		.space	3
 451              	.LC7:
 452 0080 70776D45 		.ascii	"pwmEnableChannel(), #1\000"
 452      6E61626C 
 452      65436861 
 452      6E6E656C 
 452      28292C20 
 453 0097 00       		.space	1
 454              	.LC8:
 455 0098 70776D44 		.ascii	"pwmDisableChannel(), #1\000"
 455      69736162 
 455      6C654368 
 455      616E6E65 
 455      6C28292C 
 456              		.text
 457              	.Letext0:
 458              		.file 2 "/opt/ARM/arm-none-eabi/include/machine/_default_types.h"
 459              		.file 3 "/opt/ARM/arm-none-eabi/include/stdint.h"
 460              		.file 4 "../../os/hal/include/pwm.h"
 461              		.file 5 "../../os/hal/platforms/STM32/TIMv1/pwm_lld.h"
 462              		.file 6 "../../os/hal/platforms/STM32/TIMv1/stm32_tim.h"
 463              		.file 7 "../../os/kernel/include/chdebug.h"
 464              		.file 8 "../../os/ports/common/ARMCMx/CMSIS/include/core_cm4.h"
 465              		.section	.debug_info,"",%progbits
 466              	.Ldebug_info0:
 467 0000 91060000 		.4byte	0x691
 468 0004 0400     		.2byte	0x4
 469 0006 00000000 		.4byte	.Ldebug_abbrev0
 470 000a 04       		.byte	0x4
 471 000b 01       		.uleb128 0x1
 472 000c BD020000 		.4byte	.LASF65
 473 0010 01       		.byte	0x1
 474 0011 89020000 		.4byte	.LASF66
 475 0015 A6010000 		.4byte	.LASF67
 476 0019 00000000 		.4byte	.Ldebug_ranges0+0
ARM GAS  /tmp/ccdv8COJ.s 			page 10


 477 001d 00000000 		.4byte	0
 478 0021 00000000 		.4byte	.Ldebug_line0
 479 0025 02       		.uleb128 0x2
 480 0026 04       		.byte	0x4
 481 0027 05       		.byte	0x5
 482 0028 696E7400 		.ascii	"int\000"
 483 002c 03       		.uleb128 0x3
 484 002d 04       		.byte	0x4
 485 002e 07       		.byte	0x7
 486 002f F0010000 		.4byte	.LASF0
 487 0033 03       		.uleb128 0x3
 488 0034 01       		.byte	0x1
 489 0035 06       		.byte	0x6
 490 0036 7A010000 		.4byte	.LASF1
 491 003a 04       		.uleb128 0x4
 492 003b FB000000 		.4byte	.LASF4
 493 003f 02       		.byte	0x2
 494 0040 1C       		.byte	0x1c
 495 0041 45000000 		.4byte	0x45
 496 0045 03       		.uleb128 0x3
 497 0046 01       		.byte	0x1
 498 0047 08       		.byte	0x8
 499 0048 43010000 		.4byte	.LASF2
 500 004c 03       		.uleb128 0x3
 501 004d 02       		.byte	0x2
 502 004e 05       		.byte	0x5
 503 004f 29000000 		.4byte	.LASF3
 504 0053 04       		.uleb128 0x4
 505 0054 7A000000 		.4byte	.LASF5
 506 0058 02       		.byte	0x2
 507 0059 26       		.byte	0x26
 508 005a 5E000000 		.4byte	0x5e
 509 005e 03       		.uleb128 0x3
 510 005f 02       		.byte	0x2
 511 0060 07       		.byte	0x7
 512 0061 10020000 		.4byte	.LASF6
 513 0065 04       		.uleb128 0x4
 514 0066 A0020000 		.4byte	.LASF7
 515 006a 02       		.byte	0x2
 516 006b 37       		.byte	0x37
 517 006c 70000000 		.4byte	0x70
 518 0070 03       		.uleb128 0x3
 519 0071 04       		.byte	0x4
 520 0072 05       		.byte	0x5
 521 0073 D9000000 		.4byte	.LASF8
 522 0077 04       		.uleb128 0x4
 523 0078 6A000000 		.4byte	.LASF9
 524 007c 02       		.byte	0x2
 525 007d 38       		.byte	0x38
 526 007e 82000000 		.4byte	0x82
 527 0082 03       		.uleb128 0x3
 528 0083 04       		.byte	0x4
 529 0084 07       		.byte	0x7
 530 0085 71020000 		.4byte	.LASF10
 531 0089 03       		.uleb128 0x3
 532 008a 08       		.byte	0x8
 533 008b 05       		.byte	0x5
ARM GAS  /tmp/ccdv8COJ.s 			page 11


 534 008c CB000000 		.4byte	.LASF11
 535 0090 03       		.uleb128 0x3
 536 0091 08       		.byte	0x8
 537 0092 07       		.byte	0x7
 538 0093 86010000 		.4byte	.LASF12
 539 0097 04       		.uleb128 0x4
 540 0098 A3000000 		.4byte	.LASF13
 541 009c 03       		.byte	0x3
 542 009d 2A       		.byte	0x2a
 543 009e 3A000000 		.4byte	0x3a
 544 00a2 04       		.uleb128 0x4
 545 00a3 FD010000 		.4byte	.LASF14
 546 00a7 03       		.byte	0x3
 547 00a8 36       		.byte	0x36
 548 00a9 53000000 		.4byte	0x53
 549 00ad 04       		.uleb128 0x4
 550 00ae 4B020000 		.4byte	.LASF15
 551 00b2 03       		.byte	0x3
 552 00b3 41       		.byte	0x41
 553 00b4 65000000 		.4byte	0x65
 554 00b8 04       		.uleb128 0x4
 555 00b9 9D010000 		.4byte	.LASF16
 556 00bd 03       		.byte	0x3
 557 00be 42       		.byte	0x42
 558 00bf 77000000 		.4byte	0x77
 559 00c3 03       		.uleb128 0x3
 560 00c4 01       		.byte	0x1
 561 00c5 02       		.byte	0x2
 562 00c6 53020000 		.4byte	.LASF17
 563 00ca 05       		.uleb128 0x5
 564 00cb B8000000 		.4byte	0xb8
 565 00cf 03       		.uleb128 0x3
 566 00d0 04       		.byte	0x4
 567 00d1 07       		.byte	0x7
 568 00d2 3C000000 		.4byte	.LASF18
 569 00d6 06       		.uleb128 0x6
 570 00d7 04       		.byte	0x4
 571 00d8 DC000000 		.4byte	0xdc
 572 00dc 07       		.uleb128 0x7
 573 00dd E1000000 		.4byte	0xe1
 574 00e1 03       		.uleb128 0x3
 575 00e2 01       		.byte	0x1
 576 00e3 08       		.byte	0x8
 577 00e4 30020000 		.4byte	.LASF19
 578 00e8 08       		.uleb128 0x8
 579 00e9 B8000000 		.4byte	0xb8
 580 00ed F8000000 		.4byte	0xf8
 581 00f1 09       		.uleb128 0x9
 582 00f2 CF000000 		.4byte	0xcf
 583 00f6 03       		.byte	0x3
 584 00f7 00       		.byte	0
 585 00f8 05       		.uleb128 0x5
 586 00f9 AD000000 		.4byte	0xad
 587 00fd 0A       		.uleb128 0xa
 588 00fe 01       		.byte	0x1
 589 00ff 04       		.byte	0x4
 590 0100 55       		.byte	0x55
ARM GAS  /tmp/ccdv8COJ.s 			page 12


 591 0101 18010000 		.4byte	0x118
 592 0105 0B       		.uleb128 0xb
 593 0106 38010000 		.4byte	.LASF20
 594 010a 00       		.sleb128 0
 595 010b 0B       		.uleb128 0xb
 596 010c B4020000 		.4byte	.LASF21
 597 0110 01       		.sleb128 1
 598 0111 0B       		.uleb128 0xb
 599 0112 AA020000 		.4byte	.LASF22
 600 0116 02       		.sleb128 2
 601 0117 00       		.byte	0
 602 0118 04       		.uleb128 0x4
 603 0119 15040000 		.4byte	.LASF23
 604 011d 04       		.byte	0x4
 605 011e 59       		.byte	0x59
 606 011f FD000000 		.4byte	0xfd
 607 0123 04       		.uleb128 0x4
 608 0124 41020000 		.4byte	.LASF24
 609 0128 04       		.byte	0x4
 610 0129 5E       		.byte	0x5e
 611 012a 2E010000 		.4byte	0x12e
 612 012e 0C       		.uleb128 0xc
 613 012f 41020000 		.4byte	.LASF24
 614 0133 14       		.byte	0x14
 615 0134 05       		.byte	0x5
 616 0135 6F01     		.2byte	0x16f
 617 0137 7D010000 		.4byte	0x17d
 618 013b 0D       		.uleb128 0xd
 619 013c 17000000 		.4byte	.LASF25
 620 0140 05       		.byte	0x5
 621 0141 7301     		.2byte	0x173
 622 0143 18010000 		.4byte	0x118
 623 0147 00       		.byte	0
 624 0148 0D       		.uleb128 0xd
 625 0149 8E000000 		.4byte	.LASF26
 626 014d 05       		.byte	0x5
 627 014e 7701     		.2byte	0x177
 628 0150 91030000 		.4byte	0x391
 629 0154 04       		.byte	0x4
 630 0155 0D       		.uleb128 0xd
 631 0156 F4000000 		.4byte	.LASF27
 632 015a 05       		.byte	0x5
 633 015b 7B01     		.2byte	0x17b
 634 015d E1020000 		.4byte	0x2e1
 635 0161 08       		.byte	0x8
 636 0162 0D       		.uleb128 0xd
 637 0163 83020000 		.4byte	.LASF28
 638 0167 05       		.byte	0x5
 639 0168 8301     		.2byte	0x183
 640 016a B8000000 		.4byte	0xb8
 641 016e 0C       		.byte	0xc
 642 016f 0E       		.uleb128 0xe
 643 0170 74696D00 		.ascii	"tim\000"
 644 0174 05       		.byte	0x5
 645 0175 8701     		.2byte	0x187
 646 0177 9C030000 		.4byte	0x39c
 647 017b 10       		.byte	0x10
ARM GAS  /tmp/ccdv8COJ.s 			page 13


 648 017c 00       		.byte	0
 649 017d 04       		.uleb128 0x4
 650 017e 20040000 		.4byte	.LASF29
 651 0182 04       		.byte	0x4
 652 0183 65       		.byte	0x65
 653 0184 88010000 		.4byte	0x188
 654 0188 06       		.uleb128 0x6
 655 0189 04       		.byte	0x4
 656 018a 8E010000 		.4byte	0x18e
 657 018e 0F       		.uleb128 0xf
 658 018f 99010000 		.4byte	0x199
 659 0193 10       		.uleb128 0x10
 660 0194 99010000 		.4byte	0x199
 661 0198 00       		.byte	0
 662 0199 06       		.uleb128 0x6
 663 019a 04       		.byte	0x4
 664 019b 23010000 		.4byte	0x123
 665 019f 11       		.uleb128 0x11
 666 01a0 60       		.byte	0x60
 667 01a1 06       		.byte	0x6
 668 01a2 9E01     		.2byte	0x19e
 669 01a4 B8020000 		.4byte	0x2b8
 670 01a8 0E       		.uleb128 0xe
 671 01a9 43523100 		.ascii	"CR1\000"
 672 01ad 06       		.byte	0x6
 673 01ae 9F01     		.2byte	0x19f
 674 01b0 CA000000 		.4byte	0xca
 675 01b4 00       		.byte	0
 676 01b5 0E       		.uleb128 0xe
 677 01b6 43523200 		.ascii	"CR2\000"
 678 01ba 06       		.byte	0x6
 679 01bb A001     		.2byte	0x1a0
 680 01bd CA000000 		.4byte	0xca
 681 01c1 04       		.byte	0x4
 682 01c2 0D       		.uleb128 0xd
 683 01c3 33010000 		.4byte	.LASF30
 684 01c7 06       		.byte	0x6
 685 01c8 A101     		.2byte	0x1a1
 686 01ca CA000000 		.4byte	0xca
 687 01ce 08       		.byte	0x8
 688 01cf 0D       		.uleb128 0xd
 689 01d0 0B020000 		.4byte	.LASF31
 690 01d4 06       		.byte	0x6
 691 01d5 A201     		.2byte	0x1a2
 692 01d7 CA000000 		.4byte	0xca
 693 01db 0C       		.byte	0xc
 694 01dc 0E       		.uleb128 0xe
 695 01dd 535200   		.ascii	"SR\000"
 696 01e0 06       		.byte	0x6
 697 01e1 A301     		.2byte	0x1a3
 698 01e3 CA000000 		.4byte	0xca
 699 01e7 10       		.byte	0x10
 700 01e8 0E       		.uleb128 0xe
 701 01e9 45475200 		.ascii	"EGR\000"
 702 01ed 06       		.byte	0x6
 703 01ee A401     		.2byte	0x1a4
 704 01f0 CA000000 		.4byte	0xca
ARM GAS  /tmp/ccdv8COJ.s 			page 14


 705 01f4 14       		.byte	0x14
 706 01f5 0D       		.uleb128 0xd
 707 01f6 05010000 		.4byte	.LASF32
 708 01fa 06       		.byte	0x6
 709 01fb A501     		.2byte	0x1a5
 710 01fd CA000000 		.4byte	0xca
 711 0201 18       		.byte	0x18
 712 0202 0D       		.uleb128 0xd
 713 0203 1D000000 		.4byte	.LASF33
 714 0207 06       		.byte	0x6
 715 0208 A601     		.2byte	0x1a6
 716 020a CA000000 		.4byte	0xca
 717 020e 1C       		.byte	0x1c
 718 020f 0D       		.uleb128 0xd
 719 0210 00000000 		.4byte	.LASF34
 720 0214 06       		.byte	0x6
 721 0215 A701     		.2byte	0x1a7
 722 0217 CA000000 		.4byte	0xca
 723 021b 20       		.byte	0x20
 724 021c 0E       		.uleb128 0xe
 725 021d 434E5400 		.ascii	"CNT\000"
 726 0221 06       		.byte	0x6
 727 0222 A801     		.2byte	0x1a8
 728 0224 CA000000 		.4byte	0xca
 729 0228 24       		.byte	0x24
 730 0229 0E       		.uleb128 0xe
 731 022a 50534300 		.ascii	"PSC\000"
 732 022e 06       		.byte	0x6
 733 022f A901     		.2byte	0x1a9
 734 0231 CA000000 		.4byte	0xca
 735 0235 28       		.byte	0x28
 736 0236 0E       		.uleb128 0xe
 737 0237 41525200 		.ascii	"ARR\000"
 738 023b 06       		.byte	0x6
 739 023c AA01     		.2byte	0x1aa
 740 023e CA000000 		.4byte	0xca
 741 0242 2C       		.byte	0x2c
 742 0243 0E       		.uleb128 0xe
 743 0244 52435200 		.ascii	"RCR\000"
 744 0248 06       		.byte	0x6
 745 0249 AB01     		.2byte	0x1ab
 746 024b CA000000 		.4byte	0xca
 747 024f 30       		.byte	0x30
 748 0250 0E       		.uleb128 0xe
 749 0251 43435200 		.ascii	"CCR\000"
 750 0255 06       		.byte	0x6
 751 0256 AC01     		.2byte	0x1ac
 752 0258 B8020000 		.4byte	0x2b8
 753 025c 34       		.byte	0x34
 754 025d 0D       		.uleb128 0xd
 755 025e 06020000 		.4byte	.LASF35
 756 0262 06       		.byte	0x6
 757 0263 AD01     		.2byte	0x1ad
 758 0265 CA000000 		.4byte	0xca
 759 0269 44       		.byte	0x44
 760 026a 0E       		.uleb128 0xe
 761 026b 44435200 		.ascii	"DCR\000"
ARM GAS  /tmp/ccdv8COJ.s 			page 15


 762 026f 06       		.byte	0x6
 763 0270 AE01     		.2byte	0x1ae
 764 0272 CA000000 		.4byte	0xca
 765 0276 48       		.byte	0x48
 766 0277 0D       		.uleb128 0xd
 767 0278 12000000 		.4byte	.LASF36
 768 027c 06       		.byte	0x6
 769 027d AF01     		.2byte	0x1af
 770 027f CA000000 		.4byte	0xca
 771 0283 4C       		.byte	0x4c
 772 0284 0E       		.uleb128 0xe
 773 0285 4F5200   		.ascii	"OR\000"
 774 0288 06       		.byte	0x6
 775 0289 B001     		.2byte	0x1b0
 776 028b CA000000 		.4byte	0xca
 777 028f 50       		.byte	0x50
 778 0290 0D       		.uleb128 0xd
 779 0291 23000000 		.4byte	.LASF37
 780 0295 06       		.byte	0x6
 781 0296 B101     		.2byte	0x1b1
 782 0298 CA000000 		.4byte	0xca
 783 029c 54       		.byte	0x54
 784 029d 0D       		.uleb128 0xd
 785 029e EA000000 		.4byte	.LASF38
 786 02a2 06       		.byte	0x6
 787 02a3 B201     		.2byte	0x1b2
 788 02a5 CA000000 		.4byte	0xca
 789 02a9 58       		.byte	0x58
 790 02aa 0D       		.uleb128 0xd
 791 02ab EF000000 		.4byte	.LASF39
 792 02af 06       		.byte	0x6
 793 02b0 B301     		.2byte	0x1b3
 794 02b2 CA000000 		.4byte	0xca
 795 02b6 5C       		.byte	0x5c
 796 02b7 00       		.byte	0
 797 02b8 05       		.uleb128 0x5
 798 02b9 E8000000 		.4byte	0xe8
 799 02bd 12       		.uleb128 0x12
 800 02be 35020000 		.4byte	.LASF40
 801 02c2 06       		.byte	0x6
 802 02c3 B401     		.2byte	0x1b4
 803 02c5 9F010000 		.4byte	0x19f
 804 02c9 12       		.uleb128 0x12
 805 02ca FE030000 		.4byte	.LASF41
 806 02ce 05       		.byte	0x5
 807 02cf 2001     		.2byte	0x120
 808 02d1 B8000000 		.4byte	0xb8
 809 02d5 12       		.uleb128 0x12
 810 02d6 5D000000 		.4byte	.LASF42
 811 02da 05       		.byte	0x5
 812 02db 2501     		.2byte	0x125
 813 02dd 97000000 		.4byte	0x97
 814 02e1 12       		.uleb128 0x12
 815 02e2 33000000 		.4byte	.LASF43
 816 02e6 05       		.byte	0x5
 817 02e7 2A01     		.2byte	0x12a
 818 02e9 A2000000 		.4byte	0xa2
ARM GAS  /tmp/ccdv8COJ.s 			page 16


 819 02ed 11       		.uleb128 0x11
 820 02ee 08       		.byte	0x8
 821 02ef 05       		.byte	0x5
 822 02f0 2F01     		.2byte	0x12f
 823 02f2 11030000 		.4byte	0x311
 824 02f6 0D       		.uleb128 0xd
 825 02f7 75000000 		.4byte	.LASF44
 826 02fb 05       		.byte	0x5
 827 02fc 3301     		.2byte	0x133
 828 02fe C9020000 		.4byte	0x2c9
 829 0302 00       		.byte	0
 830 0303 0D       		.uleb128 0xd
 831 0304 2E040000 		.4byte	.LASF45
 832 0308 05       		.byte	0x5
 833 0309 3901     		.2byte	0x139
 834 030b 7D010000 		.4byte	0x17d
 835 030f 04       		.byte	0x4
 836 0310 00       		.byte	0
 837 0311 12       		.uleb128 0x12
 838 0312 ED030000 		.4byte	.LASF46
 839 0316 05       		.byte	0x5
 840 0317 3B01     		.2byte	0x13b
 841 0319 ED020000 		.4byte	0x2ed
 842 031d 11       		.uleb128 0x11
 843 031e 34       		.byte	0x34
 844 031f 05       		.byte	0x5
 845 0320 4001     		.2byte	0x140
 846 0322 75030000 		.4byte	0x375
 847 0326 0D       		.uleb128 0xd
 848 0327 E3030000 		.4byte	.LASF47
 849 032b 05       		.byte	0x5
 850 032c 4601     		.2byte	0x146
 851 032e B8000000 		.4byte	0xb8
 852 0332 00       		.byte	0
 853 0333 0D       		.uleb128 0xd
 854 0334 F4000000 		.4byte	.LASF27
 855 0338 05       		.byte	0x5
 856 0339 4C01     		.2byte	0x14c
 857 033b E1020000 		.4byte	0x2e1
 858 033f 04       		.byte	0x4
 859 0340 0D       		.uleb128 0xd
 860 0341 2E040000 		.4byte	.LASF45
 861 0345 05       		.byte	0x5
 862 0346 5201     		.2byte	0x152
 863 0348 7D010000 		.4byte	0x17d
 864 034c 08       		.byte	0x8
 865 034d 0D       		.uleb128 0xd
 866 034e 85000000 		.4byte	.LASF48
 867 0352 05       		.byte	0x5
 868 0353 5601     		.2byte	0x156
 869 0355 75030000 		.4byte	0x375
 870 0359 0C       		.byte	0xc
 871 035a 0E       		.uleb128 0xe
 872 035b 63723200 		.ascii	"cr2\000"
 873 035f 05       		.byte	0x5
 874 0360 5C01     		.2byte	0x15c
 875 0362 B8000000 		.4byte	0xb8
ARM GAS  /tmp/ccdv8COJ.s 			page 17


 876 0366 2C       		.byte	0x2c
 877 0367 0D       		.uleb128 0xd
 878 0368 D6030000 		.4byte	.LASF49
 879 036c 05       		.byte	0x5
 880 036d 6901     		.2byte	0x169
 881 036f B8000000 		.4byte	0xb8
 882 0373 30       		.byte	0x30
 883 0374 00       		.byte	0
 884 0375 08       		.uleb128 0x8
 885 0376 11030000 		.4byte	0x311
 886 037a 85030000 		.4byte	0x385
 887 037e 09       		.uleb128 0x9
 888 037f CF000000 		.4byte	0xcf
 889 0383 03       		.byte	0x3
 890 0384 00       		.byte	0
 891 0385 12       		.uleb128 0x12
 892 0386 19010000 		.4byte	.LASF50
 893 038a 05       		.byte	0x5
 894 038b 6A01     		.2byte	0x16a
 895 038d 1D030000 		.4byte	0x31d
 896 0391 06       		.uleb128 0x6
 897 0392 04       		.byte	0x4
 898 0393 97030000 		.4byte	0x397
 899 0397 07       		.uleb128 0x7
 900 0398 85030000 		.4byte	0x385
 901 039c 06       		.uleb128 0x6
 902 039d 04       		.byte	0x4
 903 039e BD020000 		.4byte	0x2bd
 904 03a2 13       		.uleb128 0x13
 905 03a3 E2000000 		.4byte	.LASF51
 906 03a7 01       		.byte	0x1
 907 03a8 44       		.byte	0x44
 908 03a9 00000000 		.4byte	.LFB111
 909 03ad 04000000 		.4byte	.LFE111-.LFB111
 910 03b1 01       		.uleb128 0x1
 911 03b2 9C       		.byte	0x9c
 912 03b3 C1030000 		.4byte	0x3c1
 913 03b7 14       		.uleb128 0x14
 914 03b8 04000000 		.4byte	.LVL0
 915 03bc 28060000 		.4byte	0x628
 916 03c0 00       		.byte	0
 917 03c1 13       		.uleb128 0x13
 918 03c2 95000000 		.4byte	.LASF52
 919 03c6 01       		.byte	0x1
 920 03c7 50       		.byte	0x50
 921 03c8 00000000 		.4byte	.LFB112
 922 03cc 0A000000 		.4byte	.LFE112-.LFB112
 923 03d0 01       		.uleb128 0x1
 924 03d1 9C       		.byte	0x9c
 925 03d2 E4030000 		.4byte	0x3e4
 926 03d6 15       		.uleb128 0x15
 927 03d7 2E010000 		.4byte	.LASF54
 928 03db 01       		.byte	0x1
 929 03dc 50       		.byte	0x50
 930 03dd 99010000 		.4byte	0x199
 931 03e1 01       		.uleb128 0x1
 932 03e2 50       		.byte	0x50
ARM GAS  /tmp/ccdv8COJ.s 			page 18


 933 03e3 00       		.byte	0
 934 03e4 13       		.uleb128 0x13
 935 03e5 C2000000 		.4byte	.LASF53
 936 03e9 01       		.byte	0x1
 937 03ea 63       		.byte	0x63
 938 03eb 00000000 		.4byte	.LFB113
 939 03ef 44000000 		.4byte	.LFE113-.LFB113
 940 03f3 01       		.uleb128 0x1
 941 03f4 9C       		.byte	0x9c
 942 03f5 56040000 		.4byte	0x456
 943 03f9 16       		.uleb128 0x16
 944 03fa 2E010000 		.4byte	.LASF54
 945 03fe 01       		.byte	0x1
 946 03ff 63       		.byte	0x63
 947 0400 99010000 		.4byte	0x199
 948 0404 00000000 		.4byte	.LLST0
 949 0408 16       		.uleb128 0x16
 950 0409 8E000000 		.4byte	.LASF26
 951 040d 01       		.byte	0x1
 952 040e 63       		.byte	0x63
 953 040f 91030000 		.4byte	0x391
 954 0413 34000000 		.4byte	.LLST1
 955 0417 17       		.uleb128 0x17
 956 0418 1C000000 		.4byte	.LVL4
 957 041c 30060000 		.4byte	0x630
 958 0420 2E040000 		.4byte	0x42e
 959 0424 18       		.uleb128 0x18
 960 0425 01       		.uleb128 0x1
 961 0426 50       		.byte	0x50
 962 0427 05       		.uleb128 0x5
 963 0428 03       		.byte	0x3
 964 0429 10000000 		.4byte	.LC1
 965 042d 00       		.byte	0
 966 042e 17       		.uleb128 0x17
 967 042f 28000000 		.4byte	.LVL5
 968 0433 41060000 		.4byte	0x641
 969 0437 42040000 		.4byte	0x442
 970 043b 18       		.uleb128 0x18
 971 043c 01       		.uleb128 0x1
 972 043d 50       		.byte	0x50
 973 043e 02       		.uleb128 0x2
 974 043f 74       		.byte	0x74
 975 0440 00       		.sleb128 0
 976 0441 00       		.byte	0
 977 0442 19       		.uleb128 0x19
 978 0443 38000000 		.4byte	.LVL8
 979 0447 30060000 		.4byte	0x630
 980 044b 18       		.uleb128 0x18
 981 044c 01       		.uleb128 0x1
 982 044d 50       		.byte	0x50
 983 044e 05       		.uleb128 0x5
 984 044f 03       		.byte	0x3
 985 0450 00000000 		.4byte	.LC0
 986 0454 00       		.byte	0
 987 0455 00       		.byte	0
 988 0456 13       		.uleb128 0x13
 989 0457 DB030000 		.4byte	.LASF55
ARM GAS  /tmp/ccdv8COJ.s 			page 19


 990 045b 01       		.byte	0x1
 991 045c 78       		.byte	0x78
 992 045d 00000000 		.4byte	.LFB114
 993 0461 38000000 		.4byte	.LFE114-.LFB114
 994 0465 01       		.uleb128 0x1
 995 0466 9C       		.byte	0x9c
 996 0467 B9040000 		.4byte	0x4b9
 997 046b 16       		.uleb128 0x16
 998 046c 2E010000 		.4byte	.LASF54
 999 0470 01       		.byte	0x1
 1000 0471 78       		.byte	0x78
 1001 0472 99010000 		.4byte	0x199
 1002 0476 68000000 		.4byte	.LLST2
 1003 047a 17       		.uleb128 0x17
 1004 047b 18000000 		.4byte	.LVL11
 1005 047f 30060000 		.4byte	0x630
 1006 0483 91040000 		.4byte	0x491
 1007 0487 18       		.uleb128 0x18
 1008 0488 01       		.uleb128 0x1
 1009 0489 50       		.byte	0x50
 1010 048a 05       		.uleb128 0x5
 1011 048b 03       		.byte	0x3
 1012 048c 2C000000 		.4byte	.LC3
 1013 0490 00       		.byte	0
 1014 0491 17       		.uleb128 0x17
 1015 0492 1E000000 		.4byte	.LVL12
 1016 0496 53060000 		.4byte	0x653
 1017 049a A5040000 		.4byte	0x4a5
 1018 049e 18       		.uleb128 0x18
 1019 049f 01       		.uleb128 0x1
 1020 04a0 50       		.byte	0x50
 1021 04a1 02       		.uleb128 0x2
 1022 04a2 74       		.byte	0x74
 1023 04a3 00       		.sleb128 0
 1024 04a4 00       		.byte	0
 1025 04a5 19       		.uleb128 0x19
 1026 04a6 2E000000 		.4byte	.LVL15
 1027 04aa 30060000 		.4byte	0x630
 1028 04ae 18       		.uleb128 0x18
 1029 04af 01       		.uleb128 0x1
 1030 04b0 50       		.byte	0x50
 1031 04b1 05       		.uleb128 0x5
 1032 04b2 03       		.byte	0x3
 1033 04b3 20000000 		.4byte	.LC2
 1034 04b7 00       		.byte	0
 1035 04b8 00       		.byte	0
 1036 04b9 13       		.uleb128 0x13
 1037 04ba 61020000 		.4byte	.LASF56
 1038 04be 01       		.byte	0x1
 1039 04bf 93       		.byte	0x93
 1040 04c0 00000000 		.4byte	.LFB115
 1041 04c4 38000000 		.4byte	.LFE115-.LFB115
 1042 04c8 01       		.uleb128 0x1
 1043 04c9 9C       		.byte	0x9c
 1044 04ca 17050000 		.4byte	0x517
 1045 04ce 16       		.uleb128 0x16
 1046 04cf 2E010000 		.4byte	.LASF54
ARM GAS  /tmp/ccdv8COJ.s 			page 20


 1047 04d3 01       		.byte	0x1
 1048 04d4 93       		.byte	0x93
 1049 04d5 99010000 		.4byte	0x199
 1050 04d9 9C000000 		.4byte	.LLST3
 1051 04dd 16       		.uleb128 0x16
 1052 04de F4000000 		.4byte	.LASF27
 1053 04e2 01       		.byte	0x1
 1054 04e3 93       		.byte	0x93
 1055 04e4 E1020000 		.4byte	0x2e1
 1056 04e8 D0000000 		.4byte	.LLST4
 1057 04ec 17       		.uleb128 0x17
 1058 04ed 18000000 		.4byte	.LVL18
 1059 04f1 30060000 		.4byte	0x630
 1060 04f5 03050000 		.4byte	0x503
 1061 04f9 18       		.uleb128 0x18
 1062 04fa 01       		.uleb128 0x1
 1063 04fb 50       		.byte	0x50
 1064 04fc 05       		.uleb128 0x5
 1065 04fd 03       		.byte	0x3
 1066 04fe 50000000 		.4byte	.LC5
 1067 0502 00       		.byte	0
 1068 0503 19       		.uleb128 0x19
 1069 0504 2E000000 		.4byte	.LVL21
 1070 0508 30060000 		.4byte	0x630
 1071 050c 18       		.uleb128 0x18
 1072 050d 01       		.uleb128 0x1
 1073 050e 50       		.byte	0x50
 1074 050f 05       		.uleb128 0x5
 1075 0510 03       		.byte	0x3
 1076 0511 3C000000 		.4byte	.LC4
 1077 0515 00       		.byte	0
 1078 0516 00       		.byte	0
 1079 0517 13       		.uleb128 0x13
 1080 0518 AB000000 		.4byte	.LASF57
 1081 051c 01       		.byte	0x1
 1082 051d AC       		.byte	0xac
 1083 051e 00000000 		.4byte	.LFB116
 1084 0522 40000000 		.4byte	.LFE116-.LFB116
 1085 0526 01       		.uleb128 0x1
 1086 0527 9C       		.byte	0x9c
 1087 0528 A4050000 		.4byte	0x5a4
 1088 052c 16       		.uleb128 0x16
 1089 052d 2E010000 		.4byte	.LASF54
 1090 0531 01       		.byte	0x1
 1091 0532 AC       		.byte	0xac
 1092 0533 99010000 		.4byte	0x199
 1093 0537 0A010000 		.4byte	.LLST5
 1094 053b 16       		.uleb128 0x16
 1095 053c 59020000 		.4byte	.LASF58
 1096 0540 01       		.byte	0x1
 1097 0541 AD       		.byte	0xad
 1098 0542 D5020000 		.4byte	0x2d5
 1099 0546 3E010000 		.4byte	.LLST6
 1100 054a 16       		.uleb128 0x16
 1101 054b BC000000 		.4byte	.LASF59
 1102 054f 01       		.byte	0x1
 1103 0550 AE       		.byte	0xae
ARM GAS  /tmp/ccdv8COJ.s 			page 21


 1104 0551 E1020000 		.4byte	0x2e1
 1105 0555 78010000 		.4byte	.LLST7
 1106 0559 17       		.uleb128 0x17
 1107 055a 1E000000 		.4byte	.LVL24
 1108 055e 30060000 		.4byte	0x630
 1109 0562 70050000 		.4byte	0x570
 1110 0566 18       		.uleb128 0x18
 1111 0567 01       		.uleb128 0x1
 1112 0568 50       		.byte	0x50
 1113 0569 05       		.uleb128 0x5
 1114 056a 03       		.byte	0x3
 1115 056b 80000000 		.4byte	.LC7
 1116 056f 00       		.byte	0
 1117 0570 17       		.uleb128 0x17
 1118 0571 28000000 		.4byte	.LVL25
 1119 0575 65060000 		.4byte	0x665
 1120 0579 90050000 		.4byte	0x590
 1121 057d 18       		.uleb128 0x18
 1122 057e 01       		.uleb128 0x1
 1123 057f 52       		.byte	0x52
 1124 0580 02       		.uleb128 0x2
 1125 0581 76       		.byte	0x76
 1126 0582 00       		.sleb128 0
 1127 0583 18       		.uleb128 0x18
 1128 0584 01       		.uleb128 0x1
 1129 0585 51       		.byte	0x51
 1130 0586 02       		.uleb128 0x2
 1131 0587 75       		.byte	0x75
 1132 0588 00       		.sleb128 0
 1133 0589 18       		.uleb128 0x18
 1134 058a 01       		.uleb128 0x1
 1135 058b 50       		.byte	0x50
 1136 058c 02       		.uleb128 0x2
 1137 058d 74       		.byte	0x74
 1138 058e 00       		.sleb128 0
 1139 058f 00       		.byte	0
 1140 0590 19       		.uleb128 0x19
 1141 0591 34000000 		.4byte	.LVL28
 1142 0595 30060000 		.4byte	0x630
 1143 0599 18       		.uleb128 0x18
 1144 059a 01       		.uleb128 0x1
 1145 059b 50       		.byte	0x50
 1146 059c 05       		.uleb128 0x5
 1147 059d 03       		.byte	0x3
 1148 059e 68000000 		.4byte	.LC6
 1149 05a2 00       		.byte	0
 1150 05a3 00       		.byte	0
 1151 05a4 13       		.uleb128 0x13
 1152 05a5 68010000 		.4byte	.LASF60
 1153 05a9 01       		.byte	0x1
 1154 05aa C8       		.byte	0xc8
 1155 05ab 00000000 		.4byte	.LFB117
 1156 05af 3C000000 		.4byte	.LFE117-.LFB117
 1157 05b3 01       		.uleb128 0x1
 1158 05b4 9C       		.byte	0x9c
 1159 05b5 1C060000 		.4byte	0x61c
 1160 05b9 16       		.uleb128 0x16
ARM GAS  /tmp/ccdv8COJ.s 			page 22


 1161 05ba 2E010000 		.4byte	.LASF54
 1162 05be 01       		.byte	0x1
 1163 05bf C8       		.byte	0xc8
 1164 05c0 99010000 		.4byte	0x199
 1165 05c4 B2010000 		.4byte	.LLST8
 1166 05c8 16       		.uleb128 0x16
 1167 05c9 59020000 		.4byte	.LASF58
 1168 05cd 01       		.byte	0x1
 1169 05ce C8       		.byte	0xc8
 1170 05cf D5020000 		.4byte	0x2d5
 1171 05d3 E6010000 		.4byte	.LLST9
 1172 05d7 17       		.uleb128 0x17
 1173 05d8 1C000000 		.4byte	.LVL31
 1174 05dc 30060000 		.4byte	0x630
 1175 05e0 EE050000 		.4byte	0x5ee
 1176 05e4 18       		.uleb128 0x18
 1177 05e5 01       		.uleb128 0x1
 1178 05e6 50       		.byte	0x50
 1179 05e7 05       		.uleb128 0x5
 1180 05e8 03       		.byte	0x3
 1181 05e9 98000000 		.4byte	.LC8
 1182 05ed 00       		.byte	0
 1183 05ee 17       		.uleb128 0x17
 1184 05ef 24000000 		.4byte	.LVL32
 1185 05f3 81060000 		.4byte	0x681
 1186 05f7 08060000 		.4byte	0x608
 1187 05fb 18       		.uleb128 0x18
 1188 05fc 01       		.uleb128 0x1
 1189 05fd 51       		.byte	0x51
 1190 05fe 02       		.uleb128 0x2
 1191 05ff 75       		.byte	0x75
 1192 0600 00       		.sleb128 0
 1193 0601 18       		.uleb128 0x18
 1194 0602 01       		.uleb128 0x1
 1195 0603 50       		.byte	0x50
 1196 0604 02       		.uleb128 0x2
 1197 0605 74       		.byte	0x74
 1198 0606 00       		.sleb128 0
 1199 0607 00       		.byte	0
 1200 0608 19       		.uleb128 0x19
 1201 0609 30000000 		.4byte	.LVL35
 1202 060d 30060000 		.4byte	0x630
 1203 0611 18       		.uleb128 0x18
 1204 0612 01       		.uleb128 0x1
 1205 0613 50       		.byte	0x50
 1206 0614 05       		.uleb128 0x5
 1207 0615 03       		.byte	0x3
 1208 0616 68000000 		.4byte	.LC6
 1209 061a 00       		.byte	0
 1210 061b 00       		.byte	0
 1211 061c 1A       		.uleb128 0x1a
 1212 061d 08040000 		.4byte	.LASF68
 1213 0621 08       		.byte	0x8
 1214 0622 9806     		.2byte	0x698
 1215 0624 F8000000 		.4byte	0xf8
 1216 0628 1B       		.uleb128 0x1b
 1217 0629 23020000 		.4byte	.LASF69
ARM GAS  /tmp/ccdv8COJ.s 			page 23


 1218 062d 05       		.byte	0x5
 1219 062e D101     		.2byte	0x1d1
 1220 0630 1C       		.uleb128 0x1c
 1221 0631 23010000 		.4byte	.LASF61
 1222 0635 07       		.byte	0x7
 1223 0636 F6       		.byte	0xf6
 1224 0637 41060000 		.4byte	0x641
 1225 063b 10       		.uleb128 0x10
 1226 063c D6000000 		.4byte	0xd6
 1227 0640 00       		.byte	0
 1228 0641 1D       		.uleb128 0x1d
 1229 0642 0B010000 		.4byte	.LASF62
 1230 0646 05       		.byte	0x5
 1231 0647 D201     		.2byte	0x1d2
 1232 0649 53060000 		.4byte	0x653
 1233 064d 10       		.uleb128 0x10
 1234 064e 99010000 		.4byte	0x199
 1235 0652 00       		.byte	0
 1236 0653 1D       		.uleb128 0x1d
 1237 0654 05000000 		.4byte	.LASF63
 1238 0658 05       		.byte	0x5
 1239 0659 D301     		.2byte	0x1d3
 1240 065b 65060000 		.4byte	0x665
 1241 065f 10       		.uleb128 0x10
 1242 0660 99010000 		.4byte	0x199
 1243 0664 00       		.byte	0
 1244 0665 1D       		.uleb128 0x1d
 1245 0666 51010000 		.4byte	.LASF64
 1246 066a 05       		.byte	0x5
 1247 066b D401     		.2byte	0x1d4
 1248 066d 81060000 		.4byte	0x681
 1249 0671 10       		.uleb128 0x10
 1250 0672 99010000 		.4byte	0x199
 1251 0676 10       		.uleb128 0x10
 1252 0677 D5020000 		.4byte	0x2d5
 1253 067b 10       		.uleb128 0x10
 1254 067c E1020000 		.4byte	0x2e1
 1255 0680 00       		.byte	0
 1256 0681 1E       		.uleb128 0x1e
 1257 0682 45000000 		.4byte	.LASF70
 1258 0686 05       		.byte	0x5
 1259 0687 D701     		.2byte	0x1d7
 1260 0689 10       		.uleb128 0x10
 1261 068a 99010000 		.4byte	0x199
 1262 068e 10       		.uleb128 0x10
 1263 068f D5020000 		.4byte	0x2d5
 1264 0693 00       		.byte	0
 1265 0694 00       		.byte	0
 1266              		.section	.debug_abbrev,"",%progbits
 1267              	.Ldebug_abbrev0:
 1268 0000 01       		.uleb128 0x1
 1269 0001 11       		.uleb128 0x11
 1270 0002 01       		.byte	0x1
 1271 0003 25       		.uleb128 0x25
 1272 0004 0E       		.uleb128 0xe
 1273 0005 13       		.uleb128 0x13
 1274 0006 0B       		.uleb128 0xb
ARM GAS  /tmp/ccdv8COJ.s 			page 24


 1275 0007 03       		.uleb128 0x3
 1276 0008 0E       		.uleb128 0xe
 1277 0009 1B       		.uleb128 0x1b
 1278 000a 0E       		.uleb128 0xe
 1279 000b 55       		.uleb128 0x55
 1280 000c 17       		.uleb128 0x17
 1281 000d 11       		.uleb128 0x11
 1282 000e 01       		.uleb128 0x1
 1283 000f 10       		.uleb128 0x10
 1284 0010 17       		.uleb128 0x17
 1285 0011 00       		.byte	0
 1286 0012 00       		.byte	0
 1287 0013 02       		.uleb128 0x2
 1288 0014 24       		.uleb128 0x24
 1289 0015 00       		.byte	0
 1290 0016 0B       		.uleb128 0xb
 1291 0017 0B       		.uleb128 0xb
 1292 0018 3E       		.uleb128 0x3e
 1293 0019 0B       		.uleb128 0xb
 1294 001a 03       		.uleb128 0x3
 1295 001b 08       		.uleb128 0x8
 1296 001c 00       		.byte	0
 1297 001d 00       		.byte	0
 1298 001e 03       		.uleb128 0x3
 1299 001f 24       		.uleb128 0x24
 1300 0020 00       		.byte	0
 1301 0021 0B       		.uleb128 0xb
 1302 0022 0B       		.uleb128 0xb
 1303 0023 3E       		.uleb128 0x3e
 1304 0024 0B       		.uleb128 0xb
 1305 0025 03       		.uleb128 0x3
 1306 0026 0E       		.uleb128 0xe
 1307 0027 00       		.byte	0
 1308 0028 00       		.byte	0
 1309 0029 04       		.uleb128 0x4
 1310 002a 16       		.uleb128 0x16
 1311 002b 00       		.byte	0
 1312 002c 03       		.uleb128 0x3
 1313 002d 0E       		.uleb128 0xe
 1314 002e 3A       		.uleb128 0x3a
 1315 002f 0B       		.uleb128 0xb
 1316 0030 3B       		.uleb128 0x3b
 1317 0031 0B       		.uleb128 0xb
 1318 0032 49       		.uleb128 0x49
 1319 0033 13       		.uleb128 0x13
 1320 0034 00       		.byte	0
 1321 0035 00       		.byte	0
 1322 0036 05       		.uleb128 0x5
 1323 0037 35       		.uleb128 0x35
 1324 0038 00       		.byte	0
 1325 0039 49       		.uleb128 0x49
 1326 003a 13       		.uleb128 0x13
 1327 003b 00       		.byte	0
 1328 003c 00       		.byte	0
 1329 003d 06       		.uleb128 0x6
 1330 003e 0F       		.uleb128 0xf
 1331 003f 00       		.byte	0
ARM GAS  /tmp/ccdv8COJ.s 			page 25


 1332 0040 0B       		.uleb128 0xb
 1333 0041 0B       		.uleb128 0xb
 1334 0042 49       		.uleb128 0x49
 1335 0043 13       		.uleb128 0x13
 1336 0044 00       		.byte	0
 1337 0045 00       		.byte	0
 1338 0046 07       		.uleb128 0x7
 1339 0047 26       		.uleb128 0x26
 1340 0048 00       		.byte	0
 1341 0049 49       		.uleb128 0x49
 1342 004a 13       		.uleb128 0x13
 1343 004b 00       		.byte	0
 1344 004c 00       		.byte	0
 1345 004d 08       		.uleb128 0x8
 1346 004e 01       		.uleb128 0x1
 1347 004f 01       		.byte	0x1
 1348 0050 49       		.uleb128 0x49
 1349 0051 13       		.uleb128 0x13
 1350 0052 01       		.uleb128 0x1
 1351 0053 13       		.uleb128 0x13
 1352 0054 00       		.byte	0
 1353 0055 00       		.byte	0
 1354 0056 09       		.uleb128 0x9
 1355 0057 21       		.uleb128 0x21
 1356 0058 00       		.byte	0
 1357 0059 49       		.uleb128 0x49
 1358 005a 13       		.uleb128 0x13
 1359 005b 2F       		.uleb128 0x2f
 1360 005c 0B       		.uleb128 0xb
 1361 005d 00       		.byte	0
 1362 005e 00       		.byte	0
 1363 005f 0A       		.uleb128 0xa
 1364 0060 04       		.uleb128 0x4
 1365 0061 01       		.byte	0x1
 1366 0062 0B       		.uleb128 0xb
 1367 0063 0B       		.uleb128 0xb
 1368 0064 3A       		.uleb128 0x3a
 1369 0065 0B       		.uleb128 0xb
 1370 0066 3B       		.uleb128 0x3b
 1371 0067 0B       		.uleb128 0xb
 1372 0068 01       		.uleb128 0x1
 1373 0069 13       		.uleb128 0x13
 1374 006a 00       		.byte	0
 1375 006b 00       		.byte	0
 1376 006c 0B       		.uleb128 0xb
 1377 006d 28       		.uleb128 0x28
 1378 006e 00       		.byte	0
 1379 006f 03       		.uleb128 0x3
 1380 0070 0E       		.uleb128 0xe
 1381 0071 1C       		.uleb128 0x1c
 1382 0072 0D       		.uleb128 0xd
 1383 0073 00       		.byte	0
 1384 0074 00       		.byte	0
 1385 0075 0C       		.uleb128 0xc
 1386 0076 13       		.uleb128 0x13
 1387 0077 01       		.byte	0x1
 1388 0078 03       		.uleb128 0x3
ARM GAS  /tmp/ccdv8COJ.s 			page 26


 1389 0079 0E       		.uleb128 0xe
 1390 007a 0B       		.uleb128 0xb
 1391 007b 0B       		.uleb128 0xb
 1392 007c 3A       		.uleb128 0x3a
 1393 007d 0B       		.uleb128 0xb
 1394 007e 3B       		.uleb128 0x3b
 1395 007f 05       		.uleb128 0x5
 1396 0080 01       		.uleb128 0x1
 1397 0081 13       		.uleb128 0x13
 1398 0082 00       		.byte	0
 1399 0083 00       		.byte	0
 1400 0084 0D       		.uleb128 0xd
 1401 0085 0D       		.uleb128 0xd
 1402 0086 00       		.byte	0
 1403 0087 03       		.uleb128 0x3
 1404 0088 0E       		.uleb128 0xe
 1405 0089 3A       		.uleb128 0x3a
 1406 008a 0B       		.uleb128 0xb
 1407 008b 3B       		.uleb128 0x3b
 1408 008c 05       		.uleb128 0x5
 1409 008d 49       		.uleb128 0x49
 1410 008e 13       		.uleb128 0x13
 1411 008f 38       		.uleb128 0x38
 1412 0090 0B       		.uleb128 0xb
 1413 0091 00       		.byte	0
 1414 0092 00       		.byte	0
 1415 0093 0E       		.uleb128 0xe
 1416 0094 0D       		.uleb128 0xd
 1417 0095 00       		.byte	0
 1418 0096 03       		.uleb128 0x3
 1419 0097 08       		.uleb128 0x8
 1420 0098 3A       		.uleb128 0x3a
 1421 0099 0B       		.uleb128 0xb
 1422 009a 3B       		.uleb128 0x3b
 1423 009b 05       		.uleb128 0x5
 1424 009c 49       		.uleb128 0x49
 1425 009d 13       		.uleb128 0x13
 1426 009e 38       		.uleb128 0x38
 1427 009f 0B       		.uleb128 0xb
 1428 00a0 00       		.byte	0
 1429 00a1 00       		.byte	0
 1430 00a2 0F       		.uleb128 0xf
 1431 00a3 15       		.uleb128 0x15
 1432 00a4 01       		.byte	0x1
 1433 00a5 27       		.uleb128 0x27
 1434 00a6 19       		.uleb128 0x19
 1435 00a7 01       		.uleb128 0x1
 1436 00a8 13       		.uleb128 0x13
 1437 00a9 00       		.byte	0
 1438 00aa 00       		.byte	0
 1439 00ab 10       		.uleb128 0x10
 1440 00ac 05       		.uleb128 0x5
 1441 00ad 00       		.byte	0
 1442 00ae 49       		.uleb128 0x49
 1443 00af 13       		.uleb128 0x13
 1444 00b0 00       		.byte	0
 1445 00b1 00       		.byte	0
ARM GAS  /tmp/ccdv8COJ.s 			page 27


 1446 00b2 11       		.uleb128 0x11
 1447 00b3 13       		.uleb128 0x13
 1448 00b4 01       		.byte	0x1
 1449 00b5 0B       		.uleb128 0xb
 1450 00b6 0B       		.uleb128 0xb
 1451 00b7 3A       		.uleb128 0x3a
 1452 00b8 0B       		.uleb128 0xb
 1453 00b9 3B       		.uleb128 0x3b
 1454 00ba 05       		.uleb128 0x5
 1455 00bb 01       		.uleb128 0x1
 1456 00bc 13       		.uleb128 0x13
 1457 00bd 00       		.byte	0
 1458 00be 00       		.byte	0
 1459 00bf 12       		.uleb128 0x12
 1460 00c0 16       		.uleb128 0x16
 1461 00c1 00       		.byte	0
 1462 00c2 03       		.uleb128 0x3
 1463 00c3 0E       		.uleb128 0xe
 1464 00c4 3A       		.uleb128 0x3a
 1465 00c5 0B       		.uleb128 0xb
 1466 00c6 3B       		.uleb128 0x3b
 1467 00c7 05       		.uleb128 0x5
 1468 00c8 49       		.uleb128 0x49
 1469 00c9 13       		.uleb128 0x13
 1470 00ca 00       		.byte	0
 1471 00cb 00       		.byte	0
 1472 00cc 13       		.uleb128 0x13
 1473 00cd 2E       		.uleb128 0x2e
 1474 00ce 01       		.byte	0x1
 1475 00cf 3F       		.uleb128 0x3f
 1476 00d0 19       		.uleb128 0x19
 1477 00d1 03       		.uleb128 0x3
 1478 00d2 0E       		.uleb128 0xe
 1479 00d3 3A       		.uleb128 0x3a
 1480 00d4 0B       		.uleb128 0xb
 1481 00d5 3B       		.uleb128 0x3b
 1482 00d6 0B       		.uleb128 0xb
 1483 00d7 27       		.uleb128 0x27
 1484 00d8 19       		.uleb128 0x19
 1485 00d9 11       		.uleb128 0x11
 1486 00da 01       		.uleb128 0x1
 1487 00db 12       		.uleb128 0x12
 1488 00dc 06       		.uleb128 0x6
 1489 00dd 40       		.uleb128 0x40
 1490 00de 18       		.uleb128 0x18
 1491 00df 9742     		.uleb128 0x2117
 1492 00e1 19       		.uleb128 0x19
 1493 00e2 01       		.uleb128 0x1
 1494 00e3 13       		.uleb128 0x13
 1495 00e4 00       		.byte	0
 1496 00e5 00       		.byte	0
 1497 00e6 14       		.uleb128 0x14
 1498 00e7 898201   		.uleb128 0x4109
 1499 00ea 00       		.byte	0
 1500 00eb 11       		.uleb128 0x11
 1501 00ec 01       		.uleb128 0x1
 1502 00ed 9542     		.uleb128 0x2115
ARM GAS  /tmp/ccdv8COJ.s 			page 28


 1503 00ef 19       		.uleb128 0x19
 1504 00f0 31       		.uleb128 0x31
 1505 00f1 13       		.uleb128 0x13
 1506 00f2 00       		.byte	0
 1507 00f3 00       		.byte	0
 1508 00f4 15       		.uleb128 0x15
 1509 00f5 05       		.uleb128 0x5
 1510 00f6 00       		.byte	0
 1511 00f7 03       		.uleb128 0x3
 1512 00f8 0E       		.uleb128 0xe
 1513 00f9 3A       		.uleb128 0x3a
 1514 00fa 0B       		.uleb128 0xb
 1515 00fb 3B       		.uleb128 0x3b
 1516 00fc 0B       		.uleb128 0xb
 1517 00fd 49       		.uleb128 0x49
 1518 00fe 13       		.uleb128 0x13
 1519 00ff 02       		.uleb128 0x2
 1520 0100 18       		.uleb128 0x18
 1521 0101 00       		.byte	0
 1522 0102 00       		.byte	0
 1523 0103 16       		.uleb128 0x16
 1524 0104 05       		.uleb128 0x5
 1525 0105 00       		.byte	0
 1526 0106 03       		.uleb128 0x3
 1527 0107 0E       		.uleb128 0xe
 1528 0108 3A       		.uleb128 0x3a
 1529 0109 0B       		.uleb128 0xb
 1530 010a 3B       		.uleb128 0x3b
 1531 010b 0B       		.uleb128 0xb
 1532 010c 49       		.uleb128 0x49
 1533 010d 13       		.uleb128 0x13
 1534 010e 02       		.uleb128 0x2
 1535 010f 17       		.uleb128 0x17
 1536 0110 00       		.byte	0
 1537 0111 00       		.byte	0
 1538 0112 17       		.uleb128 0x17
 1539 0113 898201   		.uleb128 0x4109
 1540 0116 01       		.byte	0x1
 1541 0117 11       		.uleb128 0x11
 1542 0118 01       		.uleb128 0x1
 1543 0119 31       		.uleb128 0x31
 1544 011a 13       		.uleb128 0x13
 1545 011b 01       		.uleb128 0x1
 1546 011c 13       		.uleb128 0x13
 1547 011d 00       		.byte	0
 1548 011e 00       		.byte	0
 1549 011f 18       		.uleb128 0x18
 1550 0120 8A8201   		.uleb128 0x410a
 1551 0123 00       		.byte	0
 1552 0124 02       		.uleb128 0x2
 1553 0125 18       		.uleb128 0x18
 1554 0126 9142     		.uleb128 0x2111
 1555 0128 18       		.uleb128 0x18
 1556 0129 00       		.byte	0
 1557 012a 00       		.byte	0
 1558 012b 19       		.uleb128 0x19
 1559 012c 898201   		.uleb128 0x4109
ARM GAS  /tmp/ccdv8COJ.s 			page 29


 1560 012f 01       		.byte	0x1
 1561 0130 11       		.uleb128 0x11
 1562 0131 01       		.uleb128 0x1
 1563 0132 31       		.uleb128 0x31
 1564 0133 13       		.uleb128 0x13
 1565 0134 00       		.byte	0
 1566 0135 00       		.byte	0
 1567 0136 1A       		.uleb128 0x1a
 1568 0137 34       		.uleb128 0x34
 1569 0138 00       		.byte	0
 1570 0139 03       		.uleb128 0x3
 1571 013a 0E       		.uleb128 0xe
 1572 013b 3A       		.uleb128 0x3a
 1573 013c 0B       		.uleb128 0xb
 1574 013d 3B       		.uleb128 0x3b
 1575 013e 05       		.uleb128 0x5
 1576 013f 49       		.uleb128 0x49
 1577 0140 13       		.uleb128 0x13
 1578 0141 3F       		.uleb128 0x3f
 1579 0142 19       		.uleb128 0x19
 1580 0143 3C       		.uleb128 0x3c
 1581 0144 19       		.uleb128 0x19
 1582 0145 00       		.byte	0
 1583 0146 00       		.byte	0
 1584 0147 1B       		.uleb128 0x1b
 1585 0148 2E       		.uleb128 0x2e
 1586 0149 00       		.byte	0
 1587 014a 3F       		.uleb128 0x3f
 1588 014b 19       		.uleb128 0x19
 1589 014c 03       		.uleb128 0x3
 1590 014d 0E       		.uleb128 0xe
 1591 014e 3A       		.uleb128 0x3a
 1592 014f 0B       		.uleb128 0xb
 1593 0150 3B       		.uleb128 0x3b
 1594 0151 05       		.uleb128 0x5
 1595 0152 27       		.uleb128 0x27
 1596 0153 19       		.uleb128 0x19
 1597 0154 3C       		.uleb128 0x3c
 1598 0155 19       		.uleb128 0x19
 1599 0156 00       		.byte	0
 1600 0157 00       		.byte	0
 1601 0158 1C       		.uleb128 0x1c
 1602 0159 2E       		.uleb128 0x2e
 1603 015a 01       		.byte	0x1
 1604 015b 3F       		.uleb128 0x3f
 1605 015c 19       		.uleb128 0x19
 1606 015d 03       		.uleb128 0x3
 1607 015e 0E       		.uleb128 0xe
 1608 015f 3A       		.uleb128 0x3a
 1609 0160 0B       		.uleb128 0xb
 1610 0161 3B       		.uleb128 0x3b
 1611 0162 0B       		.uleb128 0xb
 1612 0163 27       		.uleb128 0x27
 1613 0164 19       		.uleb128 0x19
 1614 0165 3C       		.uleb128 0x3c
 1615 0166 19       		.uleb128 0x19
 1616 0167 01       		.uleb128 0x1
ARM GAS  /tmp/ccdv8COJ.s 			page 30


 1617 0168 13       		.uleb128 0x13
 1618 0169 00       		.byte	0
 1619 016a 00       		.byte	0
 1620 016b 1D       		.uleb128 0x1d
 1621 016c 2E       		.uleb128 0x2e
 1622 016d 01       		.byte	0x1
 1623 016e 3F       		.uleb128 0x3f
 1624 016f 19       		.uleb128 0x19
 1625 0170 03       		.uleb128 0x3
 1626 0171 0E       		.uleb128 0xe
 1627 0172 3A       		.uleb128 0x3a
 1628 0173 0B       		.uleb128 0xb
 1629 0174 3B       		.uleb128 0x3b
 1630 0175 05       		.uleb128 0x5
 1631 0176 27       		.uleb128 0x27
 1632 0177 19       		.uleb128 0x19
 1633 0178 3C       		.uleb128 0x3c
 1634 0179 19       		.uleb128 0x19
 1635 017a 01       		.uleb128 0x1
 1636 017b 13       		.uleb128 0x13
 1637 017c 00       		.byte	0
 1638 017d 00       		.byte	0
 1639 017e 1E       		.uleb128 0x1e
 1640 017f 2E       		.uleb128 0x2e
 1641 0180 01       		.byte	0x1
 1642 0181 3F       		.uleb128 0x3f
 1643 0182 19       		.uleb128 0x19
 1644 0183 03       		.uleb128 0x3
 1645 0184 0E       		.uleb128 0xe
 1646 0185 3A       		.uleb128 0x3a
 1647 0186 0B       		.uleb128 0xb
 1648 0187 3B       		.uleb128 0x3b
 1649 0188 05       		.uleb128 0x5
 1650 0189 27       		.uleb128 0x27
 1651 018a 19       		.uleb128 0x19
 1652 018b 3C       		.uleb128 0x3c
 1653 018c 19       		.uleb128 0x19
 1654 018d 00       		.byte	0
 1655 018e 00       		.byte	0
 1656 018f 00       		.byte	0
 1657              		.section	.debug_loc,"",%progbits
 1658              	.Ldebug_loc0:
 1659              	.LLST0:
 1660 0000 00000000 		.4byte	.LVL2
 1661 0004 0A000000 		.4byte	.LVL3
 1662 0008 0100     		.2byte	0x1
 1663 000a 50       		.byte	0x50
 1664 000b 0A000000 		.4byte	.LVL3
 1665 000f 32000000 		.4byte	.LVL6
 1666 0013 0100     		.2byte	0x1
 1667 0015 54       		.byte	0x54
 1668 0016 32000000 		.4byte	.LVL6
 1669 001a 34000000 		.4byte	.LVL7
 1670 001e 0100     		.2byte	0x1
 1671 0020 50       		.byte	0x50
 1672 0021 34000000 		.4byte	.LVL7
 1673 0025 44000000 		.4byte	.LFE113
ARM GAS  /tmp/ccdv8COJ.s 			page 31


 1674 0029 0100     		.2byte	0x1
 1675 002b 54       		.byte	0x54
 1676 002c 00000000 		.4byte	0
 1677 0030 00000000 		.4byte	0
 1678              	.LLST1:
 1679 0034 00000000 		.4byte	.LVL2
 1680 0038 0A000000 		.4byte	.LVL3
 1681 003c 0100     		.2byte	0x1
 1682 003e 51       		.byte	0x51
 1683 003f 0A000000 		.4byte	.LVL3
 1684 0043 32000000 		.4byte	.LVL6
 1685 0047 0100     		.2byte	0x1
 1686 0049 55       		.byte	0x55
 1687 004a 32000000 		.4byte	.LVL6
 1688 004e 37000000 		.4byte	.LVL8-1
 1689 0052 0100     		.2byte	0x1
 1690 0054 51       		.byte	0x51
 1691 0055 37000000 		.4byte	.LVL8-1
 1692 0059 44000000 		.4byte	.LFE113
 1693 005d 0100     		.2byte	0x1
 1694 005f 55       		.byte	0x55
 1695 0060 00000000 		.4byte	0
 1696 0064 00000000 		.4byte	0
 1697              	.LLST2:
 1698 0068 00000000 		.4byte	.LVL9
 1699 006c 06000000 		.4byte	.LVL10
 1700 0070 0100     		.2byte	0x1
 1701 0072 50       		.byte	0x50
 1702 0073 06000000 		.4byte	.LVL10
 1703 0077 28000000 		.4byte	.LVL13
 1704 007b 0100     		.2byte	0x1
 1705 007d 54       		.byte	0x54
 1706 007e 28000000 		.4byte	.LVL13
 1707 0082 2A000000 		.4byte	.LVL14
 1708 0086 0100     		.2byte	0x1
 1709 0088 50       		.byte	0x50
 1710 0089 2A000000 		.4byte	.LVL14
 1711 008d 38000000 		.4byte	.LFE114
 1712 0091 0100     		.2byte	0x1
 1713 0093 54       		.byte	0x54
 1714 0094 00000000 		.4byte	0
 1715 0098 00000000 		.4byte	0
 1716              	.LLST3:
 1717 009c 00000000 		.4byte	.LVL16
 1718 00a0 08000000 		.4byte	.LVL17
 1719 00a4 0100     		.2byte	0x1
 1720 00a6 50       		.byte	0x50
 1721 00a7 08000000 		.4byte	.LVL17
 1722 00ab 28000000 		.4byte	.LVL19
 1723 00af 0100     		.2byte	0x1
 1724 00b1 54       		.byte	0x54
 1725 00b2 28000000 		.4byte	.LVL19
 1726 00b6 2A000000 		.4byte	.LVL20
 1727 00ba 0100     		.2byte	0x1
 1728 00bc 50       		.byte	0x50
 1729 00bd 2A000000 		.4byte	.LVL20
 1730 00c1 38000000 		.4byte	.LFE115
ARM GAS  /tmp/ccdv8COJ.s 			page 32


 1731 00c5 0100     		.2byte	0x1
 1732 00c7 54       		.byte	0x54
 1733 00c8 00000000 		.4byte	0
 1734 00cc 00000000 		.4byte	0
 1735              	.LLST4:
 1736 00d0 00000000 		.4byte	.LVL16
 1737 00d4 08000000 		.4byte	.LVL17
 1738 00d8 0100     		.2byte	0x1
 1739 00da 51       		.byte	0x51
 1740 00db 08000000 		.4byte	.LVL17
 1741 00df 28000000 		.4byte	.LVL19
 1742 00e3 0400     		.2byte	0x4
 1743 00e5 F3       		.byte	0xf3
 1744 00e6 01       		.uleb128 0x1
 1745 00e7 51       		.byte	0x51
 1746 00e8 9F       		.byte	0x9f
 1747 00e9 28000000 		.4byte	.LVL19
 1748 00ed 2D000000 		.4byte	.LVL21-1
 1749 00f1 0100     		.2byte	0x1
 1750 00f3 51       		.byte	0x51
 1751 00f4 2D000000 		.4byte	.LVL21-1
 1752 00f8 38000000 		.4byte	.LFE115
 1753 00fc 0400     		.2byte	0x4
 1754 00fe F3       		.byte	0xf3
 1755 00ff 01       		.uleb128 0x1
 1756 0100 51       		.byte	0x51
 1757 0101 9F       		.byte	0x9f
 1758 0102 00000000 		.4byte	0
 1759 0106 00000000 		.4byte	0
 1760              	.LLST5:
 1761 010a 00000000 		.4byte	.LVL22
 1762 010e 0E000000 		.4byte	.LVL23
 1763 0112 0100     		.2byte	0x1
 1764 0114 50       		.byte	0x50
 1765 0115 0E000000 		.4byte	.LVL23
 1766 0119 2E000000 		.4byte	.LVL26
 1767 011d 0100     		.2byte	0x1
 1768 011f 54       		.byte	0x54
 1769 0120 2E000000 		.4byte	.LVL26
 1770 0124 30000000 		.4byte	.LVL27
 1771 0128 0100     		.2byte	0x1
 1772 012a 50       		.byte	0x50
 1773 012b 30000000 		.4byte	.LVL27
 1774 012f 40000000 		.4byte	.LFE116
 1775 0133 0100     		.2byte	0x1
 1776 0135 54       		.byte	0x54
 1777 0136 00000000 		.4byte	0
 1778 013a 00000000 		.4byte	0
 1779              	.LLST6:
 1780 013e 00000000 		.4byte	.LVL22
 1781 0142 0E000000 		.4byte	.LVL23
 1782 0146 0100     		.2byte	0x1
 1783 0148 51       		.byte	0x51
 1784 0149 0E000000 		.4byte	.LVL23
 1785 014d 2E000000 		.4byte	.LVL26
 1786 0151 0400     		.2byte	0x4
 1787 0153 F3       		.byte	0xf3
ARM GAS  /tmp/ccdv8COJ.s 			page 33


 1788 0154 01       		.uleb128 0x1
 1789 0155 51       		.byte	0x51
 1790 0156 9F       		.byte	0x9f
 1791 0157 2E000000 		.4byte	.LVL26
 1792 015b 33000000 		.4byte	.LVL28-1
 1793 015f 0100     		.2byte	0x1
 1794 0161 51       		.byte	0x51
 1795 0162 33000000 		.4byte	.LVL28-1
 1796 0166 40000000 		.4byte	.LFE116
 1797 016a 0400     		.2byte	0x4
 1798 016c F3       		.byte	0xf3
 1799 016d 01       		.uleb128 0x1
 1800 016e 51       		.byte	0x51
 1801 016f 9F       		.byte	0x9f
 1802 0170 00000000 		.4byte	0
 1803 0174 00000000 		.4byte	0
 1804              	.LLST7:
 1805 0178 00000000 		.4byte	.LVL22
 1806 017c 0E000000 		.4byte	.LVL23
 1807 0180 0100     		.2byte	0x1
 1808 0182 52       		.byte	0x52
 1809 0183 0E000000 		.4byte	.LVL23
 1810 0187 2E000000 		.4byte	.LVL26
 1811 018b 0400     		.2byte	0x4
 1812 018d F3       		.byte	0xf3
 1813 018e 01       		.uleb128 0x1
 1814 018f 52       		.byte	0x52
 1815 0190 9F       		.byte	0x9f
 1816 0191 2E000000 		.4byte	.LVL26
 1817 0195 33000000 		.4byte	.LVL28-1
 1818 0199 0100     		.2byte	0x1
 1819 019b 52       		.byte	0x52
 1820 019c 33000000 		.4byte	.LVL28-1
 1821 01a0 40000000 		.4byte	.LFE116
 1822 01a4 0400     		.2byte	0x4
 1823 01a6 F3       		.byte	0xf3
 1824 01a7 01       		.uleb128 0x1
 1825 01a8 52       		.byte	0x52
 1826 01a9 9F       		.byte	0x9f
 1827 01aa 00000000 		.4byte	0
 1828 01ae 00000000 		.4byte	0
 1829              	.LLST8:
 1830 01b2 00000000 		.4byte	.LVL29
 1831 01b6 0C000000 		.4byte	.LVL30
 1832 01ba 0100     		.2byte	0x1
 1833 01bc 50       		.byte	0x50
 1834 01bd 0C000000 		.4byte	.LVL30
 1835 01c1 2A000000 		.4byte	.LVL33
 1836 01c5 0100     		.2byte	0x1
 1837 01c7 54       		.byte	0x54
 1838 01c8 2A000000 		.4byte	.LVL33
 1839 01cc 2C000000 		.4byte	.LVL34
 1840 01d0 0100     		.2byte	0x1
 1841 01d2 50       		.byte	0x50
 1842 01d3 2C000000 		.4byte	.LVL34
 1843 01d7 3C000000 		.4byte	.LFE117
 1844 01db 0100     		.2byte	0x1
ARM GAS  /tmp/ccdv8COJ.s 			page 34


 1845 01dd 54       		.byte	0x54
 1846 01de 00000000 		.4byte	0
 1847 01e2 00000000 		.4byte	0
 1848              	.LLST9:
 1849 01e6 00000000 		.4byte	.LVL29
 1850 01ea 0C000000 		.4byte	.LVL30
 1851 01ee 0100     		.2byte	0x1
 1852 01f0 51       		.byte	0x51
 1853 01f1 0C000000 		.4byte	.LVL30
 1854 01f5 2A000000 		.4byte	.LVL33
 1855 01f9 0400     		.2byte	0x4
 1856 01fb F3       		.byte	0xf3
 1857 01fc 01       		.uleb128 0x1
 1858 01fd 51       		.byte	0x51
 1859 01fe 9F       		.byte	0x9f
 1860 01ff 2A000000 		.4byte	.LVL33
 1861 0203 2F000000 		.4byte	.LVL35-1
 1862 0207 0100     		.2byte	0x1
 1863 0209 51       		.byte	0x51
 1864 020a 2F000000 		.4byte	.LVL35-1
 1865 020e 3C000000 		.4byte	.LFE117
 1866 0212 0400     		.2byte	0x4
 1867 0214 F3       		.byte	0xf3
 1868 0215 01       		.uleb128 0x1
 1869 0216 51       		.byte	0x51
 1870 0217 9F       		.byte	0x9f
 1871 0218 00000000 		.4byte	0
 1872 021c 00000000 		.4byte	0
 1873              		.section	.debug_aranges,"",%progbits
 1874 0000 4C000000 		.4byte	0x4c
 1875 0004 0200     		.2byte	0x2
 1876 0006 00000000 		.4byte	.Ldebug_info0
 1877 000a 04       		.byte	0x4
 1878 000b 00       		.byte	0
 1879 000c 0000     		.2byte	0
 1880 000e 0000     		.2byte	0
 1881 0010 00000000 		.4byte	.LFB111
 1882 0014 04000000 		.4byte	.LFE111-.LFB111
 1883 0018 00000000 		.4byte	.LFB112
 1884 001c 0A000000 		.4byte	.LFE112-.LFB112
 1885 0020 00000000 		.4byte	.LFB113
 1886 0024 44000000 		.4byte	.LFE113-.LFB113
 1887 0028 00000000 		.4byte	.LFB114
 1888 002c 38000000 		.4byte	.LFE114-.LFB114
 1889 0030 00000000 		.4byte	.LFB115
 1890 0034 38000000 		.4byte	.LFE115-.LFB115
 1891 0038 00000000 		.4byte	.LFB116
 1892 003c 40000000 		.4byte	.LFE116-.LFB116
 1893 0040 00000000 		.4byte	.LFB117
 1894 0044 3C000000 		.4byte	.LFE117-.LFB117
 1895 0048 00000000 		.4byte	0
 1896 004c 00000000 		.4byte	0
 1897              		.section	.debug_ranges,"",%progbits
 1898              	.Ldebug_ranges0:
 1899 0000 00000000 		.4byte	.LFB111
 1900 0004 04000000 		.4byte	.LFE111
 1901 0008 00000000 		.4byte	.LFB112
ARM GAS  /tmp/ccdv8COJ.s 			page 35


 1902 000c 0A000000 		.4byte	.LFE112
 1903 0010 00000000 		.4byte	.LFB113
 1904 0014 44000000 		.4byte	.LFE113
 1905 0018 00000000 		.4byte	.LFB114
 1906 001c 38000000 		.4byte	.LFE114
 1907 0020 00000000 		.4byte	.LFB115
 1908 0024 38000000 		.4byte	.LFE115
 1909 0028 00000000 		.4byte	.LFB116
 1910 002c 40000000 		.4byte	.LFE116
 1911 0030 00000000 		.4byte	.LFB117
 1912 0034 3C000000 		.4byte	.LFE117
 1913 0038 00000000 		.4byte	0
 1914 003c 00000000 		.4byte	0
 1915              		.section	.debug_line,"",%progbits
 1916              	.Ldebug_line0:
 1917 0000 49020000 		.section	.debug_str,"MS",%progbits,1
 1917      02004E01 
 1917      00000201 
 1917      FB0E0D00 
 1917      01010101 
 1918              	.LASF34:
 1919 0000 43434552 		.ascii	"CCER\000"
 1919      00
 1920              	.LASF63:
 1921 0005 70776D5F 		.ascii	"pwm_lld_stop\000"
 1921      6C6C645F 
 1921      73746F70 
 1921      00
 1922              	.LASF36:
 1923 0012 444D4152 		.ascii	"DMAR\000"
 1923      00
 1924              	.LASF25:
 1925 0017 73746174 		.ascii	"state\000"
 1925      6500
 1926              	.LASF33:
 1927 001d 43434D52 		.ascii	"CCMR2\000"
 1927      3200
 1928              	.LASF37:
 1929 0023 43434D52 		.ascii	"CCMR3\000"
 1929      3300
 1930              	.LASF3:
 1931 0029 73686F72 		.ascii	"short int\000"
 1931      7420696E 
 1931      7400
 1932              	.LASF43:
 1933 0033 70776D63 		.ascii	"pwmcnt_t\000"
 1933      6E745F74 
 1933      00
 1934              	.LASF18:
 1935 003c 73697A65 		.ascii	"sizetype\000"
 1935      74797065 
 1935      00
 1936              	.LASF70:
 1937 0045 70776D5F 		.ascii	"pwm_lld_disable_channel\000"
 1937      6C6C645F 
 1937      64697361 
 1937      626C655F 
ARM GAS  /tmp/ccdv8COJ.s 			page 36


 1937      6368616E 
 1938              	.LASF42:
 1939 005d 70776D63 		.ascii	"pwmchannel_t\000"
 1939      68616E6E 
 1939      656C5F74 
 1939      00
 1940              	.LASF9:
 1941 006a 5F5F7569 		.ascii	"__uint32_t\000"
 1941      6E743332 
 1941      5F7400
 1942              	.LASF44:
 1943 0075 6D6F6465 		.ascii	"mode\000"
 1943      00
 1944              	.LASF5:
 1945 007a 5F5F7569 		.ascii	"__uint16_t\000"
 1945      6E743136 
 1945      5F7400
 1946              	.LASF48:
 1947 0085 6368616E 		.ascii	"channels\000"
 1947      6E656C73 
 1947      00
 1948              	.LASF26:
 1949 008e 636F6E66 		.ascii	"config\000"
 1949      696700
 1950              	.LASF52:
 1951 0095 70776D4F 		.ascii	"pwmObjectInit\000"
 1951      626A6563 
 1951      74496E69 
 1951      7400
 1952              	.LASF13:
 1953 00a3 75696E74 		.ascii	"uint8_t\000"
 1953      385F7400 
 1954              	.LASF57:
 1955 00ab 70776D45 		.ascii	"pwmEnableChannel\000"
 1955      6E61626C 
 1955      65436861 
 1955      6E6E656C 
 1955      00
 1956              	.LASF59:
 1957 00bc 77696474 		.ascii	"width\000"
 1957      6800
 1958              	.LASF53:
 1959 00c2 70776D53 		.ascii	"pwmStart\000"
 1959      74617274 
 1959      00
 1960              	.LASF11:
 1961 00cb 6C6F6E67 		.ascii	"long long int\000"
 1961      206C6F6E 
 1961      6720696E 
 1961      7400
 1962              	.LASF8:
 1963 00d9 6C6F6E67 		.ascii	"long int\000"
 1963      20696E74 
 1963      00
 1964              	.LASF51:
 1965 00e2 70776D49 		.ascii	"pwmInit\000"
 1965      6E697400 
ARM GAS  /tmp/ccdv8COJ.s 			page 37


 1966              	.LASF38:
 1967 00ea 43435235 		.ascii	"CCR5\000"
 1967      00
 1968              	.LASF39:
 1969 00ef 43435236 		.ascii	"CCR6\000"
 1969      00
 1970              	.LASF27:
 1971 00f4 70657269 		.ascii	"period\000"
 1971      6F6400
 1972              	.LASF4:
 1973 00fb 5F5F7569 		.ascii	"__uint8_t\000"
 1973      6E74385F 
 1973      7400
 1974              	.LASF32:
 1975 0105 43434D52 		.ascii	"CCMR1\000"
 1975      3100
 1976              	.LASF62:
 1977 010b 70776D5F 		.ascii	"pwm_lld_start\000"
 1977      6C6C645F 
 1977      73746172 
 1977      7400
 1978              	.LASF50:
 1979 0119 50574D43 		.ascii	"PWMConfig\000"
 1979      6F6E6669 
 1979      6700
 1980              	.LASF61:
 1981 0123 63684462 		.ascii	"chDbgPanic\000"
 1981      6750616E 
 1981      696300
 1982              	.LASF54:
 1983 012e 70776D70 		.ascii	"pwmp\000"
 1983      00
 1984              	.LASF30:
 1985 0133 534D4352 		.ascii	"SMCR\000"
 1985      00
 1986              	.LASF20:
 1987 0138 50574D5F 		.ascii	"PWM_UNINIT\000"
 1987      554E494E 
 1987      495400
 1988              	.LASF2:
 1989 0143 756E7369 		.ascii	"unsigned char\000"
 1989      676E6564 
 1989      20636861 
 1989      7200
 1990              	.LASF64:
 1991 0151 70776D5F 		.ascii	"pwm_lld_enable_channel\000"
 1991      6C6C645F 
 1991      656E6162 
 1991      6C655F63 
 1991      68616E6E 
 1992              	.LASF60:
 1993 0168 70776D44 		.ascii	"pwmDisableChannel\000"
 1993      69736162 
 1993      6C654368 
 1993      616E6E65 
 1993      6C00
 1994              	.LASF1:
ARM GAS  /tmp/ccdv8COJ.s 			page 38


 1995 017a 7369676E 		.ascii	"signed char\000"
 1995      65642063 
 1995      68617200 
 1996              	.LASF12:
 1997 0186 6C6F6E67 		.ascii	"long long unsigned int\000"
 1997      206C6F6E 
 1997      6720756E 
 1997      7369676E 
 1997      65642069 
 1998              	.LASF16:
 1999 019d 75696E74 		.ascii	"uint32_t\000"
 1999      33325F74 
 1999      00
 2000              	.LASF67:
 2001 01a6 2F686F6D 		.ascii	"/home/makkmarci/devel/ChibiOS_2.6.5/projects/STM32F"
 2001      652F6D61 
 2001      6B6B6D61 
 2001      7263692F 
 2001      64657665 
 2002 01d9 345F4368 		.ascii	"4_ChibiOS_uGFX_gwin_2/\000"
 2002      6962694F 
 2002      535F7547 
 2002      46585F67 
 2002      77696E5F 
 2003              	.LASF0:
 2004 01f0 756E7369 		.ascii	"unsigned int\000"
 2004      676E6564 
 2004      20696E74 
 2004      00
 2005              	.LASF14:
 2006 01fd 75696E74 		.ascii	"uint16_t\000"
 2006      31365F74 
 2006      00
 2007              	.LASF35:
 2008 0206 42445452 		.ascii	"BDTR\000"
 2008      00
 2009              	.LASF31:
 2010 020b 44494552 		.ascii	"DIER\000"
 2010      00
 2011              	.LASF6:
 2012 0210 73686F72 		.ascii	"short unsigned int\000"
 2012      7420756E 
 2012      7369676E 
 2012      65642069 
 2012      6E7400
 2013              	.LASF69:
 2014 0223 70776D5F 		.ascii	"pwm_lld_init\000"
 2014      6C6C645F 
 2014      696E6974 
 2014      00
 2015              	.LASF19:
 2016 0230 63686172 		.ascii	"char\000"
 2016      00
 2017              	.LASF40:
 2018 0235 73746D33 		.ascii	"stm32_tim_t\000"
 2018      325F7469 
 2018      6D5F7400 
ARM GAS  /tmp/ccdv8COJ.s 			page 39


 2019              	.LASF24:
 2020 0241 50574D44 		.ascii	"PWMDriver\000"
 2020      72697665 
 2020      7200
 2021              	.LASF15:
 2022 024b 696E7433 		.ascii	"int32_t\000"
 2022      325F7400 
 2023              	.LASF17:
 2024 0253 5F426F6F 		.ascii	"_Bool\000"
 2024      6C00
 2025              	.LASF58:
 2026 0259 6368616E 		.ascii	"channel\000"
 2026      6E656C00 
 2027              	.LASF56:
 2028 0261 70776D43 		.ascii	"pwmChangePeriod\000"
 2028      68616E67 
 2028      65506572 
 2028      696F6400 
 2029              	.LASF10:
 2030 0271 6C6F6E67 		.ascii	"long unsigned int\000"
 2030      20756E73 
 2030      69676E65 
 2030      6420696E 
 2030      7400
 2031              	.LASF28:
 2032 0283 636C6F63 		.ascii	"clock\000"
 2032      6B00
 2033              	.LASF66:
 2034 0289 2E2E2F2E 		.ascii	"../../os/hal/src/pwm.c\000"
 2034      2E2F6F73 
 2034      2F68616C 
 2034      2F737263 
 2034      2F70776D 
 2035              	.LASF7:
 2036 02a0 5F5F696E 		.ascii	"__int32_t\000"
 2036      7433325F 
 2036      7400
 2037              	.LASF22:
 2038 02aa 50574D5F 		.ascii	"PWM_READY\000"
 2038      52454144 
 2038      5900
 2039              	.LASF21:
 2040 02b4 50574D5F 		.ascii	"PWM_STOP\000"
 2040      53544F50 
 2040      00
 2041              	.LASF65:
 2042 02bd 474E5520 		.ascii	"GNU C 4.8.4 20140526 (release) [ARM/embedded-4_8-br"
 2042      4320342E 
 2042      382E3420 
 2042      32303134 
 2042      30353236 
 2043 02f0 616E6368 		.ascii	"anch revision 211358] -mcpu=cortex-m4 -mfloat-abi=h"
 2043      20726576 
 2043      6973696F 
 2043      6E203231 
 2043      31333538 
 2044 0323 61726420 		.ascii	"ard -mfpu=fpv4-sp-d16 -mno-thumb-interwork -mthumb "
ARM GAS  /tmp/ccdv8COJ.s 			page 40


 2044      2D6D6670 
 2044      753D6670 
 2044      76342D73 
 2044      702D6431 
 2045 0356 2D676764 		.ascii	"-ggdb -O2 -fomit-frame-pointer -falign-functions=16"
 2045      62202D4F 
 2045      32202D66 
 2045      6F6D6974 
 2045      2D667261 
 2046 0389 202D6666 		.ascii	" -ffunction-sections -fdata-sections -fno-common -f"
 2046      756E6374 
 2046      696F6E2D 
 2046      73656374 
 2046      696F6E73 
 2047 03bc 73696E67 		.ascii	"single-precision-constant\000"
 2047      6C652D70 
 2047      72656369 
 2047      73696F6E 
 2047      2D636F6E 
 2048              	.LASF49:
 2049 03d6 64696572 		.ascii	"dier\000"
 2049      00
 2050              	.LASF55:
 2051 03db 70776D53 		.ascii	"pwmStop\000"
 2051      746F7000 
 2052              	.LASF47:
 2053 03e3 66726571 		.ascii	"frequency\000"
 2053      75656E63 
 2053      7900
 2054              	.LASF46:
 2055 03ed 50574D43 		.ascii	"PWMChannelConfig\000"
 2055      68616E6E 
 2055      656C436F 
 2055      6E666967 
 2055      00
 2056              	.LASF41:
 2057 03fe 70776D6D 		.ascii	"pwmmode_t\000"
 2057      6F64655F 
 2057      7400
 2058              	.LASF68:
 2059 0408 49544D5F 		.ascii	"ITM_RxBuffer\000"
 2059      52784275 
 2059      66666572 
 2059      00
 2060              	.LASF23:
 2061 0415 70776D73 		.ascii	"pwmstate_t\000"
 2061      74617465 
 2061      5F7400
 2062              	.LASF29:
 2063 0420 70776D63 		.ascii	"pwmcallback_t\000"
 2063      616C6C62 
 2063      61636B5F 
 2063      7400
 2064              	.LASF45:
 2065 042e 63616C6C 		.ascii	"callback\000"
 2065      6261636B 
 2065      00
ARM GAS  /tmp/ccdv8COJ.s 			page 41


 2066              		.ident	"GCC: (GNU Tools for ARM Embedded Processors) 4.8.4 20140526 (release) [ARM/embedded-4_8-br
ARM GAS  /tmp/ccdv8COJ.s 			page 42


DEFINED SYMBOLS
                            *ABS*:00000000 pwm.c
     /tmp/ccdv8COJ.s:21     .text.pwmInit:00000000 $t
     /tmp/ccdv8COJ.s:27     .text.pwmInit:00000000 pwmInit
     /tmp/ccdv8COJ.s:42     .text.pwmObjectInit:00000000 $t
     /tmp/ccdv8COJ.s:48     .text.pwmObjectInit:00000000 pwmObjectInit
     /tmp/ccdv8COJ.s:69     .text.pwmStart:00000000 $t
     /tmp/ccdv8COJ.s:75     .text.pwmStart:00000000 pwmStart
     /tmp/ccdv8COJ.s:142    .text.pwmStart:0000003c $d
     /tmp/ccdv8COJ.s:148    .text.pwmStop:00000000 $t
     /tmp/ccdv8COJ.s:154    .text.pwmStop:00000000 pwmStop
     /tmp/ccdv8COJ.s:209    .text.pwmStop:00000030 $d
     /tmp/ccdv8COJ.s:215    .text.pwmChangePeriod:00000000 $t
     /tmp/ccdv8COJ.s:221    .text.pwmChangePeriod:00000000 pwmChangePeriod
     /tmp/ccdv8COJ.s:279    .text.pwmChangePeriod:00000030 $d
     /tmp/ccdv8COJ.s:285    .text.pwmEnableChannel:00000000 $t
     /tmp/ccdv8COJ.s:291    .text.pwmEnableChannel:00000000 pwmEnableChannel
     /tmp/ccdv8COJ.s:353    .text.pwmEnableChannel:00000038 $d
     /tmp/ccdv8COJ.s:359    .text.pwmDisableChannel:00000000 $t
     /tmp/ccdv8COJ.s:365    .text.pwmDisableChannel:00000000 pwmDisableChannel
     /tmp/ccdv8COJ.s:425    .text.pwmDisableChannel:00000034 $d
     /tmp/ccdv8COJ.s:431    .rodata.str1.4:00000000 $d
                     .debug_frame:00000010 $d
     /tmp/ccdv8COJ.s:147    .text.pwmStart:00000044 $t
     /tmp/ccdv8COJ.s:214    .text.pwmStop:00000038 $t
     /tmp/ccdv8COJ.s:2066   .text.pwmChangePeriod:00000038 $t
     /tmp/ccdv8COJ.s:430    .text.pwmDisableChannel:0000003c $t

UNDEFINED SYMBOLS
pwm_lld_init
_port_lock
chDbgPanic
pwm_lld_start
_port_unlock
pwm_lld_stop
pwm_lld_enable_channel
pwm_lld_disable_channel
