ARM GAS  /tmp/ccmDnA3i.s 			page 1


   1              		.syntax unified
   2              		.cpu cortex-m4
   3              		.eabi_attribute 27, 3
   4              		.eabi_attribute 28, 1
   5              		.fpu fpv4-sp-d16
   6              		.eabi_attribute 20, 1
   7              		.eabi_attribute 21, 1
   8              		.eabi_attribute 23, 3
   9              		.eabi_attribute 24, 1
  10              		.eabi_attribute 25, 1
  11              		.eabi_attribute 26, 1
  12              		.eabi_attribute 30, 2
  13              		.eabi_attribute 34, 1
  14              		.eabi_attribute 18, 4
  15              		.thumb
  16              		.file	"pwm_lld.c"
  17              		.text
  18              	.Ltext0:
  19              		.cfi_sections	.debug_frame
  20              		.section	.text.VectorB4,"ax",%progbits
  21              		.align	2
  22              		.p2align 4,,15
  23              		.global	VectorB4
  24              		.thumb
  25              		.thumb_func
  26              		.type	VectorB4, %function
  27              	VectorB4:
  28              	.LFB112:
  29              		.file 1 "../../os/hal/platforms/STM32/TIMv1/pwm_lld.c"
  30              		.loc 1 216 0
  31              		.cfi_startproc
  32              		@ args = 0, pretend = 0, frame = 0
  33              		@ frame_needed = 0, uses_anonymous_args = 0
  34              	.LVL0:
  35 0000 38B5     		push	{r3, r4, r5, lr}
  36              		.cfi_def_cfa_offset 16
  37              		.cfi_offset 3, -16
  38              		.cfi_offset 4, -12
  39              		.cfi_offset 5, -8
  40              		.cfi_offset 14, -4
  41              	.LBB4:
  42              	.LBB5:
  43              		.loc 1 115 0
  44 0002 174D     		ldr	r5, .L27
  45 0004 2B69     		ldr	r3, [r5, #16]
  46 0006 1A69     		ldr	r2, [r3, #16]
  47              	.LVL1:
  48              		.loc 1 116 0
  49 0008 DC68     		ldr	r4, [r3, #12]
  50 000a 1440     		ands	r4, r4, r2
  51 000c A4B2     		uxth	r4, r4
  52              	.LVL2:
  53              		.loc 1 117 0
  54 000e E2B2     		uxtb	r2, r4
  55 0010 D243     		mvns	r2, r2
  56 0012 1A61     		str	r2, [r3, #16]
  57              		.loc 1 118 0
ARM GAS  /tmp/ccmDnA3i.s 			page 2


  58 0014 A307     		lsls	r3, r4, #30
  59 0016 1ED4     		bmi	.L23
  60              	.L2:
  61              		.loc 1 120 0
  62 0018 6007     		lsls	r0, r4, #29
  63 001a 17D4     		bmi	.L24
  64              	.L3:
  65              		.loc 1 122 0
  66 001c 2107     		lsls	r1, r4, #28
  67 001e 10D4     		bmi	.L25
  68              	.L4:
  69              		.loc 1 124 0
  70 0020 E206     		lsls	r2, r4, #27
  71 0022 09D4     		bmi	.L26
  72              	.L5:
  73              		.loc 1 126 0
  74 0024 E307     		lsls	r3, r4, #31
  75 0026 03D5     		bpl	.L6
  76              		.loc 1 127 0
  77 0028 6B68     		ldr	r3, [r5, #4]
  78 002a 0D48     		ldr	r0, .L27
  79 002c 9B68     		ldr	r3, [r3, #8]
  80 002e 9847     		blx	r3
  81              	.LVL3:
  82              	.L6:
  83              	.LBE5:
  84              	.LBE4:
  85              		.loc 1 223 0
  86 0030 BDE83840 		pop	{r3, r4, r5, lr}
  87              	.LVL4:
  88              		.loc 1 222 0
  89 0034 FFF7FEBF 		b	_port_irq_epilogue
  90              	.LVL5:
  91              	.L26:
  92              	.LBB7:
  93              	.LBB6:
  94              		.loc 1 125 0
  95 0038 6B68     		ldr	r3, [r5, #4]
  96 003a 0948     		ldr	r0, .L27
  97 003c 9B6A     		ldr	r3, [r3, #40]
  98 003e 9847     		blx	r3
  99              	.LVL6:
 100 0040 F0E7     		b	.L5
 101              	.L25:
 102              		.loc 1 123 0
 103 0042 6B68     		ldr	r3, [r5, #4]
 104 0044 0648     		ldr	r0, .L27
 105 0046 1B6A     		ldr	r3, [r3, #32]
 106 0048 9847     		blx	r3
 107              	.LVL7:
 108 004a E9E7     		b	.L4
 109              	.L24:
 110              		.loc 1 121 0
 111 004c 6B68     		ldr	r3, [r5, #4]
 112 004e 0448     		ldr	r0, .L27
 113 0050 9B69     		ldr	r3, [r3, #24]
 114 0052 9847     		blx	r3
ARM GAS  /tmp/ccmDnA3i.s 			page 3


 115              	.LVL8:
 116 0054 E2E7     		b	.L3
 117              	.L23:
 118              		.loc 1 119 0
 119 0056 6B68     		ldr	r3, [r5, #4]
 120 0058 2846     		mov	r0, r5
 121 005a 1B69     		ldr	r3, [r3, #16]
 122 005c 9847     		blx	r3
 123              	.LVL9:
 124 005e DBE7     		b	.L2
 125              	.L28:
 126              		.align	2
 127              	.L27:
 128 0060 00000000 		.word	.LANCHOR0
 129              	.LBE6:
 130              	.LBE7:
 131              		.cfi_endproc
 132              	.LFE112:
 133              		.size	VectorB4, .-VectorB4
 134 0064 AFF30080 		.section	.text.pwm_lld_init,"ax",%progbits
 134      AFF30080 
 134      AFF30080 
 135              		.align	2
 136              		.p2align 4,,15
 137              		.global	pwm_lld_init
 138              		.thumb
 139              		.thumb_func
 140              		.type	pwm_lld_init, %function
 141              	pwm_lld_init:
 142              	.LFB113:
 143              		.loc 1 345 0
 144              		.cfi_startproc
 145              		@ args = 0, pretend = 0, frame = 0
 146              		@ frame_needed = 0, uses_anonymous_args = 0
 147 0000 10B5     		push	{r4, lr}
 148              		.cfi_def_cfa_offset 8
 149              		.cfi_offset 4, -8
 150              		.cfi_offset 14, -4
 151              		.loc 1 361 0
 152 0002 034C     		ldr	r4, .L30
 153 0004 2046     		mov	r0, r4
 154 0006 FFF7FEFF 		bl	pwmObjectInit
 155              	.LVL10:
 156              		.loc 1 362 0
 157 000a 024B     		ldr	r3, .L30+4
 158 000c 2361     		str	r3, [r4, #16]
 159 000e 10BD     		pop	{r4, pc}
 160              	.L31:
 161              		.align	2
 162              	.L30:
 163 0010 00000000 		.word	.LANCHOR0
 164 0014 00040040 		.word	1073742848
 165              		.cfi_endproc
 166              	.LFE113:
 167              		.size	pwm_lld_init, .-pwm_lld_init
 168 0018 AFF30080 		.section	.text.pwm_lld_start,"ax",%progbits
 168      AFF30080 
ARM GAS  /tmp/ccmDnA3i.s 			page 4


 169              		.align	2
 170              		.p2align 4,,15
 171              		.global	pwm_lld_start
 172              		.thumb
 173              		.thumb_func
 174              		.type	pwm_lld_start, %function
 175              	pwm_lld_start:
 176              	.LFB114:
 177              		.loc 1 399 0
 178              		.cfi_startproc
 179              		@ args = 0, pretend = 0, frame = 0
 180              		@ frame_needed = 0, uses_anonymous_args = 0
 181              	.LVL11:
 182              		.loc 1 403 0
 183 0000 0378     		ldrb	r3, [r0]	@ zero_extendqisi2
 184 0002 012B     		cmp	r3, #1
 185              		.loc 1 399 0
 186 0004 70B5     		push	{r4, r5, r6, lr}
 187              		.cfi_def_cfa_offset 16
 188              		.cfi_offset 4, -16
 189              		.cfi_offset 5, -12
 190              		.cfi_offset 6, -8
 191              		.cfi_offset 14, -4
 192              		.loc 1 399 0
 193 0006 0446     		mov	r4, r0
 194              		.loc 1 403 0
 195 0008 62D0     		beq	.L61
 196              		.loc 1 492 0
 197 000a 4268     		ldr	r2, [r0, #4]
 198              		.loc 1 491 0
 199 000c 0369     		ldr	r3, [r0, #16]
 200              		.loc 1 492 0
 201 000e 106B     		ldr	r0, [r2, #48]
 202              	.LVL12:
 203              		.loc 1 491 0
 204 0010 0021     		movs	r1, #0
 205              		.loc 1 492 0
 206 0012 20F0FF00 		bic	r0, r0, #255
 207              		.loc 1 491 0
 208 0016 1960     		str	r1, [r3]
 209              		.loc 1 492 0
 210 0018 D860     		str	r0, [r3, #12]
 211              		.loc 1 494 0
 212 001a 1961     		str	r1, [r3, #16]
 213              		.loc 1 495 0
 214 001c 5963     		str	r1, [r3, #52]
 215              		.loc 1 496 0
 216 001e 9963     		str	r1, [r3, #56]
 217              		.loc 1 497 0
 218 0020 D963     		str	r1, [r3, #60]
 219              		.loc 1 498 0
 220 0022 1964     		str	r1, [r3, #64]
 221              		.loc 1 499 0
 222 0024 5962     		str	r1, [r3, #36]
 223              	.L35:
 224              		.loc 1 503 0
 225 0026 E168     		ldr	r1, [r4, #12]
ARM GAS  /tmp/ccmDnA3i.s 			page 5


 226 0028 1668     		ldr	r6, [r2]
 227 002a B1FBF6F0 		udiv	r0, r1, r6
 228 002e 451E     		subs	r5, r0, #1
 229              	.LVL13:
 230              		.loc 1 504 0
 231 0030 B5F5803F 		cmp	r5, #65536
 232 0034 03D2     		bcs	.L36
 233              		.loc 1 504 0 is_stmt 0 discriminator 2
 234 0036 06FB00F0 		mul	r0, r6, r0
 235 003a 8142     		cmp	r1, r0
 236 003c 04D0     		beq	.L37
 237              	.L36:
 238              		.loc 1 504 0 discriminator 1
 239 003e 3248     		ldr	r0, .L65
 240 0040 FFF7FEFF 		bl	chDbgPanic
 241              	.LVL14:
 242 0044 6268     		ldr	r2, [r4, #4]
 243 0046 2369     		ldr	r3, [r4, #16]
 244              	.L37:
 245              		.loc 1 508 0 is_stmt 1
 246 0048 2489     		ldrh	r4, [r4, #8]
 247              	.LVL15:
 248              		.loc 1 513 0
 249 004a D168     		ldr	r1, [r2, #12]
 250              		.loc 1 509 0
 251 004c D06A     		ldr	r0, [r2, #44]
 252              		.loc 1 508 0
 253 004e 013C     		subs	r4, r4, #1
 254              		.loc 1 513 0
 255 0050 01F00F01 		and	r1, r1, #15
 256              		.loc 1 508 0
 257 0054 A4B2     		uxth	r4, r4
 258              		.loc 1 507 0
 259 0056 ADB2     		uxth	r5, r5
 260              	.LVL16:
 261              		.loc 1 513 0
 262 0058 0129     		cmp	r1, #1
 263              		.loc 1 507 0
 264 005a 9D62     		str	r5, [r3, #40]
 265              		.loc 1 508 0
 266 005c DC62     		str	r4, [r3, #44]
 267              		.loc 1 509 0
 268 005e 5860     		str	r0, [r3, #4]
 269              	.LVL17:
 270              		.loc 1 513 0
 271 0060 03D0     		beq	.L38
 272              		.loc 1 512 0
 273 0062 0229     		cmp	r1, #2
 274 0064 0CBF     		ite	eq
 275 0066 0321     		moveq	r1, #3
 276 0068 0021     		movne	r1, #0
 277              	.L38:
 278              	.LVL18:
 279              		.loc 1 521 0
 280 006a 5069     		ldr	r0, [r2, #20]
 281 006c 00F00F00 		and	r0, r0, #15
 282 0070 0128     		cmp	r0, #1
ARM GAS  /tmp/ccmDnA3i.s 			page 6


 283 0072 2AD0     		beq	.L42
 284 0074 0228     		cmp	r0, #2
 285 0076 26D0     		beq	.L62
 286              	.LVL19:
 287              	.L41:
 288              		.loc 1 529 0
 289 0078 D069     		ldr	r0, [r2, #28]
 290 007a 00F00F00 		and	r0, r0, #15
 291 007e 0128     		cmp	r0, #1
 292 0080 1ED0     		beq	.L45
 293 0082 0228     		cmp	r0, #2
 294 0084 1AD0     		beq	.L63
 295              	.LVL20:
 296              	.L44:
 297              		.loc 1 537 0
 298 0086 506A     		ldr	r0, [r2, #36]
 299 0088 00F00F00 		and	r0, r0, #15
 300 008c 0128     		cmp	r0, #1
 301 008e 03D0     		beq	.L48
 302 0090 0228     		cmp	r0, #2
 303 0092 03D1     		bne	.L47
 304              		.loc 1 539 0
 305 0094 41F40051 		orr	r1, r1, #8192
 306              	.LVL21:
 307              	.L48:
 308              		.loc 1 541 0
 309 0098 41F48051 		orr	r1, r1, #4096
 310              	.LVL22:
 311              	.L47:
 312              		.loc 1 583 0
 313 009c 0120     		movs	r0, #1
 314              		.loc 1 582 0
 315 009e 1962     		str	r1, [r3, #32]
 316              		.loc 1 583 0
 317 00a0 5861     		str	r0, [r3, #20]
 318              		.loc 1 584 0
 319 00a2 9068     		ldr	r0, [r2, #8]
 320 00a4 DA68     		ldr	r2, [r3, #12]
 321              		.loc 1 585 0
 322 00a6 0021     		movs	r1, #0
 323              	.LVL23:
 324              		.loc 1 584 0
 325 00a8 8842     		cmp	r0, r1
 326 00aa 0CBF     		ite	eq
 327 00ac 1046     		moveq	r0, r2
 328 00ae 42F00100 		orrne	r0, r2, #1
 329              		.loc 1 594 0
 330 00b2 8522     		movs	r2, #133
 331              		.loc 1 584 0
 332 00b4 D860     		str	r0, [r3, #12]
 333              		.loc 1 585 0
 334 00b6 1961     		str	r1, [r3, #16]
 335              		.loc 1 594 0
 336 00b8 1A60     		str	r2, [r3]
 337 00ba 70BD     		pop	{r4, r5, r6, pc}
 338              	.LVL24:
 339              	.L63:
ARM GAS  /tmp/ccmDnA3i.s 			page 7


 340              		.loc 1 531 0
 341 00bc 41F40071 		orr	r1, r1, #512
 342              	.LVL25:
 343              	.L45:
 344              		.loc 1 533 0
 345 00c0 41F48071 		orr	r1, r1, #256
 346              	.LVL26:
 347 00c4 DFE7     		b	.L44
 348              	.L62:
 349              		.loc 1 523 0
 350 00c6 41F02001 		orr	r1, r1, #32
 351              	.LVL27:
 352              	.L42:
 353              		.loc 1 525 0
 354 00ca 41F01001 		orr	r1, r1, #16
 355              	.LVL28:
 356 00ce D3E7     		b	.L41
 357              	.LVL29:
 358              	.L61:
 359              		.loc 1 430 0
 360 00d0 0E4B     		ldr	r3, .L65+4
 361 00d2 9842     		cmp	r0, r3
 362 00d4 06D0     		beq	.L64
 363              	.LVL30:
 364              	.L34:
 365              		.loc 1 484 0
 366 00d6 2369     		ldr	r3, [r4, #16]
 367 00d8 6268     		ldr	r2, [r4, #4]
 368 00da 46F66801 		movw	r1, #26728
 369 00de 9961     		str	r1, [r3, #24]
 370              		.loc 1 486 0
 371 00e0 D961     		str	r1, [r3, #28]
 372 00e2 A0E7     		b	.L35
 373              	.LVL31:
 374              	.L64:
 375              		.loc 1 431 0
 376 00e4 0A4B     		ldr	r3, .L65+8
 377 00e6 1A6C     		ldr	r2, [r3, #64]
 378 00e8 42F00202 		orr	r2, r2, #2
 379 00ec 1A64     		str	r2, [r3, #64]
 380              		.loc 1 432 0
 381 00ee 196A     		ldr	r1, [r3, #32]
 382 00f0 0022     		movs	r2, #0
 383 00f2 41F00201 		orr	r1, r1, #2
 384 00f6 1962     		str	r1, [r3, #32]
 385              		.loc 1 433 0
 386 00f8 1D20     		movs	r0, #29
 387              	.LVL32:
 388              		.loc 1 432 0
 389 00fa 1A62     		str	r2, [r3, #32]
 390              		.loc 1 433 0
 391 00fc 7021     		movs	r1, #112
 392 00fe FFF7FEFF 		bl	nvicEnableVector
 393              	.LVL33:
 394              		.loc 1 435 0
 395 0102 044B     		ldr	r3, .L65+12
 396 0104 E360     		str	r3, [r4, #12]
ARM GAS  /tmp/ccmDnA3i.s 			page 8


 397 0106 E6E7     		b	.L34
 398              	.L66:
 399              		.align	2
 400              	.L65:
 401 0108 00000000 		.word	.LC0
 402 010c 00000000 		.word	.LANCHOR0
 403 0110 00380240 		.word	1073887232
 404 0114 00BD0105 		.word	84000000
 405              		.cfi_endproc
 406              	.LFE114:
 407              		.size	pwm_lld_start, .-pwm_lld_start
 408 0118 AFF30080 		.section	.text.pwm_lld_stop,"ax",%progbits
 408      AFF30080 
 409              		.align	2
 410              		.p2align 4,,15
 411              		.global	pwm_lld_stop
 412              		.thumb
 413              		.thumb_func
 414              		.type	pwm_lld_stop, %function
 415              	pwm_lld_stop:
 416              	.LFB115:
 417              		.loc 1 605 0
 418              		.cfi_startproc
 419              		@ args = 0, pretend = 0, frame = 0
 420              		@ frame_needed = 0, uses_anonymous_args = 0
 421              	.LVL34:
 422 0000 08B5     		push	{r3, lr}
 423              		.cfi_def_cfa_offset 8
 424              		.cfi_offset 3, -8
 425              		.cfi_offset 14, -4
 426              		.loc 1 608 0
 427 0002 0378     		ldrb	r3, [r0]	@ zero_extendqisi2
 428 0004 022B     		cmp	r3, #2
 429 0006 00D0     		beq	.L71
 430              	.LVL35:
 431              	.L67:
 432 0008 08BD     		pop	{r3, pc}
 433              	.LVL36:
 434              	.L71:
 435              		.loc 1 630 0
 436 000a 0849     		ldr	r1, .L72
 437              		.loc 1 609 0
 438 000c 0369     		ldr	r3, [r0, #16]
 439 000e 0022     		movs	r2, #0
 440              		.loc 1 630 0
 441 0010 8842     		cmp	r0, r1
 442              		.loc 1 609 0
 443 0012 1A60     		str	r2, [r3]
 444              		.loc 1 610 0
 445 0014 DA60     		str	r2, [r3, #12]
 446              		.loc 1 611 0
 447 0016 1A61     		str	r2, [r3, #16]
 448              		.loc 1 630 0
 449 0018 F6D1     		bne	.L67
 450              		.loc 1 631 0
 451 001a 1D20     		movs	r0, #29
 452              	.LVL37:
ARM GAS  /tmp/ccmDnA3i.s 			page 9


 453 001c FFF7FEFF 		bl	nvicDisableVector
 454              	.LVL38:
 455              		.loc 1 632 0
 456 0020 034B     		ldr	r3, .L72+4
 457 0022 1A6C     		ldr	r2, [r3, #64]
 458 0024 22F00202 		bic	r2, r2, #2
 459 0028 1A64     		str	r2, [r3, #64]
 460 002a EDE7     		b	.L67
 461              	.L73:
 462              		.align	2
 463              	.L72:
 464 002c 00000000 		.word	.LANCHOR0
 465 0030 00380240 		.word	1073887232
 466              		.cfi_endproc
 467              	.LFE115:
 468              		.size	pwm_lld_stop, .-pwm_lld_stop
 469 0034 AFF30080 		.section	.text.pwm_lld_enable_channel,"ax",%progbits
 469      AFF30080 
 469      AFF30080 
 470              		.align	2
 471              		.p2align 4,,15
 472              		.global	pwm_lld_enable_channel
 473              		.thumb
 474              		.thumb_func
 475              		.type	pwm_lld_enable_channel, %function
 476              	pwm_lld_enable_channel:
 477              	.LFB116:
 478              		.loc 1 677 0
 479              		.cfi_startproc
 480              		@ args = 0, pretend = 0, frame = 0
 481              		@ frame_needed = 0, uses_anonymous_args = 0
 482              		@ link register save eliminated.
 483              	.LVL39:
 484 0000 10B4     		push	{r4}
 485              		.cfi_def_cfa_offset 4
 486              		.cfi_offset 4, -4
 487              		.loc 1 682 0
 488 0002 4468     		ldr	r4, [r0, #4]
 489              		.loc 1 679 0
 490 0004 0369     		ldr	r3, [r0, #16]
 491              		.loc 1 682 0
 492 0006 04EBC100 		add	r0, r4, r1, lsl #3
 493              	.LVL40:
 494              		.loc 1 679 0
 495 000a 01F10C04 		add	r4, r1, #12
 496              		.loc 1 682 0
 497 000e 0069     		ldr	r0, [r0, #16]
 498              		.loc 1 679 0
 499 0010 03EB8404 		add	r4, r3, r4, lsl #2
 500 0014 6260     		str	r2, [r4, #4]
 501              		.loc 1 682 0
 502 0016 48B1     		cbz	r0, .L74
 503              	.LBB8:
 504              		.loc 1 686 0
 505 0018 0220     		movs	r0, #2
 506              		.loc 1 683 0
 507 001a DA68     		ldr	r2, [r3, #12]
ARM GAS  /tmp/ccmDnA3i.s 			page 10


 508              	.LVL41:
 509              		.loc 1 686 0
 510 001c 00FA01F1 		lsl	r1, r0, r1
 511              	.LVL42:
 512 0020 1142     		tst	r1, r2
 513 0022 03D1     		bne	.L74
 514              		.loc 1 687 0
 515 0024 0A43     		orrs	r2, r2, r1
 516              	.LVL43:
 517              		.loc 1 688 0
 518 0026 C943     		mvns	r1, r1
 519              		.loc 1 687 0
 520 0028 DA60     		str	r2, [r3, #12]
 521              		.loc 1 688 0
 522 002a 1961     		str	r1, [r3, #16]
 523              	.L74:
 524              	.LBE8:
 525              		.loc 1 691 0
 526 002c 5DF8044B 		ldr	r4, [sp], #4
 527 0030 7047     		bx	lr
 528              		.cfi_endproc
 529              	.LFE116:
 530              		.size	pwm_lld_enable_channel, .-pwm_lld_enable_channel
 531 0032 00BFAFF3 		.section	.text.pwm_lld_disable_channel,"ax",%progbits
 531      0080AFF3 
 531      0080AFF3 
 531      0080
 532              		.align	2
 533              		.p2align 4,,15
 534              		.global	pwm_lld_disable_channel
 535              		.thumb
 536              		.thumb_func
 537              		.type	pwm_lld_disable_channel, %function
 538              	pwm_lld_disable_channel:
 539              	.LFB117:
 540              		.loc 1 705 0
 541              		.cfi_startproc
 542              		@ args = 0, pretend = 0, frame = 0
 543              		@ frame_needed = 0, uses_anonymous_args = 0
 544              		@ link register save eliminated.
 545              	.LVL44:
 546              		.loc 1 707 0
 547 0000 0369     		ldr	r3, [r0, #16]
 548 0002 01F10C02 		add	r2, r1, #12
 549 0006 03EB8202 		add	r2, r3, r2, lsl #2
 550 000a 0020     		movs	r0, #0
 551              	.LVL45:
 552 000c 5060     		str	r0, [r2, #4]
 553              		.loc 1 708 0
 554 000e DA68     		ldr	r2, [r3, #12]
 555 0010 0220     		movs	r0, #2
 556 0012 00FA01F1 		lsl	r1, r0, r1
 557              	.LVL46:
 558 0016 22EA0101 		bic	r1, r2, r1
 559 001a D960     		str	r1, [r3, #12]
 560 001c 7047     		bx	lr
 561              		.cfi_endproc
ARM GAS  /tmp/ccmDnA3i.s 			page 11


 562              	.LFE117:
 563              		.size	pwm_lld_disable_channel, .-pwm_lld_disable_channel
 564              		.global	PWMD3
 565 001e 00BF     		.section	.bss.PWMD3,"aw",%nobits
 566              		.align	2
 567              		.set	.LANCHOR0,. + 0
 568              		.type	PWMD3, %object
 569              		.size	PWMD3, 20
 570              	PWMD3:
 571 0000 00000000 		.space	20
 571      00000000 
 571      00000000 
 571      00000000 
 571      00000000 
 572              		.section	.rodata.str1.4,"aMS",%progbits,1
 573              		.align	2
 574              	.LC0:
 575 0000 70776D5F 		.ascii	"pwm_lld_start(), #1\000"
 575      6C6C645F 
 575      73746172 
 575      7428292C 
 575      20233100 
 576              		.text
 577              	.Letext0:
 578              		.file 2 "/opt/ARM/arm-none-eabi/include/machine/_default_types.h"
 579              		.file 3 "/opt/ARM/arm-none-eabi/include/stdint.h"
 580              		.file 4 "../../os/hal/platforms/STM32F4xx/stm32f4xx.h"
 581              		.file 5 "../../os/hal/platforms/STM32/TIMv1/stm32_tim.h"
 582              		.file 6 "../../os/hal/include/pwm.h"
 583              		.file 7 "../../os/hal/platforms/STM32/TIMv1/pwm_lld.h"
 584              		.file 8 "../../os/ports/common/ARMCMx/CMSIS/include/core_cm4.h"
 585              		.file 9 "../../os/kernel/include/chdebug.h"
 586              		.file 10 "../../os/ports/common/ARMCMx/nvic.h"
 587              		.file 11 "../../os/ports/GCC/ARMCMx/chcore_v7m.h"
 588              		.section	.debug_info,"",%progbits
 589              	.Ldebug_info0:
 590 0000 F4070000 		.4byte	0x7f4
 591 0004 0400     		.2byte	0x4
 592 0006 00000000 		.4byte	.Ldebug_abbrev0
 593 000a 04       		.byte	0x4
 594 000b 01       		.uleb128 0x1
 595 000c DC030000 		.4byte	.LASF96
 596 0010 01       		.byte	0x1
 597 0011 B0000000 		.4byte	.LASF97
 598 0015 65020000 		.4byte	.LASF98
 599 0019 18000000 		.4byte	.Ldebug_ranges0+0x18
 600 001d 00000000 		.4byte	0
 601 0021 00000000 		.4byte	.Ldebug_line0
 602 0025 02       		.uleb128 0x2
 603 0026 04       		.byte	0x4
 604 0027 05       		.byte	0x5
 605 0028 696E7400 		.ascii	"int\000"
 606 002c 03       		.uleb128 0x3
 607 002d 04       		.byte	0x4
 608 002e 07       		.byte	0x7
 609 002f AF020000 		.4byte	.LASF0
 610 0033 03       		.uleb128 0x3
ARM GAS  /tmp/ccmDnA3i.s 			page 12


 611 0034 01       		.byte	0x1
 612 0035 06       		.byte	0x6
 613 0036 42020000 		.4byte	.LASF1
 614 003a 04       		.uleb128 0x4
 615 003b B2010000 		.4byte	.LASF4
 616 003f 02       		.byte	0x2
 617 0040 1C       		.byte	0x1c
 618 0041 45000000 		.4byte	0x45
 619 0045 03       		.uleb128 0x3
 620 0046 01       		.byte	0x1
 621 0047 08       		.byte	0x8
 622 0048 FF010000 		.4byte	.LASF2
 623 004c 03       		.uleb128 0x3
 624 004d 02       		.byte	0x2
 625 004e 05       		.byte	0x5
 626 004f 3E000000 		.4byte	.LASF3
 627 0053 04       		.uleb128 0x4
 628 0054 9F000000 		.4byte	.LASF5
 629 0058 02       		.byte	0x2
 630 0059 26       		.byte	0x26
 631 005a 5E000000 		.4byte	0x5e
 632 005e 03       		.uleb128 0x3
 633 005f 02       		.byte	0x2
 634 0060 07       		.byte	0x7
 635 0061 E5020000 		.4byte	.LASF6
 636 0065 04       		.uleb128 0x4
 637 0066 BF030000 		.4byte	.LASF7
 638 006a 02       		.byte	0x2
 639 006b 37       		.byte	0x37
 640 006c 70000000 		.4byte	0x70
 641 0070 03       		.uleb128 0x3
 642 0071 04       		.byte	0x4
 643 0072 05       		.byte	0x5
 644 0073 6B010000 		.4byte	.LASF8
 645 0077 04       		.uleb128 0x4
 646 0078 8F000000 		.4byte	.LASF9
 647 007c 02       		.byte	0x2
 648 007d 38       		.byte	0x38
 649 007e 82000000 		.4byte	0x82
 650 0082 03       		.uleb128 0x3
 651 0083 04       		.byte	0x4
 652 0084 07       		.byte	0x7
 653 0085 90010000 		.4byte	.LASF10
 654 0089 03       		.uleb128 0x3
 655 008a 08       		.byte	0x8
 656 008b 05       		.byte	0x5
 657 008c 5D010000 		.4byte	.LASF11
 658 0090 03       		.uleb128 0x3
 659 0091 08       		.byte	0x8
 660 0092 07       		.byte	0x7
 661 0093 4E020000 		.4byte	.LASF12
 662 0097 04       		.uleb128 0x4
 663 0098 0A010000 		.4byte	.LASF13
 664 009c 03       		.byte	0x3
 665 009d 2A       		.byte	0x2a
 666 009e 3A000000 		.4byte	0x3a
 667 00a2 04       		.uleb128 0x4
ARM GAS  /tmp/ccmDnA3i.s 			page 13


 668 00a3 C5020000 		.4byte	.LASF14
 669 00a7 03       		.byte	0x3
 670 00a8 36       		.byte	0x36
 671 00a9 53000000 		.4byte	0x53
 672 00ad 04       		.uleb128 0x4
 673 00ae 2A030000 		.4byte	.LASF15
 674 00b2 03       		.byte	0x3
 675 00b3 41       		.byte	0x41
 676 00b4 65000000 		.4byte	0x65
 677 00b8 04       		.uleb128 0x4
 678 00b9 1A010000 		.4byte	.LASF16
 679 00bd 03       		.byte	0x3
 680 00be 42       		.byte	0x42
 681 00bf 77000000 		.4byte	0x77
 682 00c3 03       		.uleb128 0x3
 683 00c4 01       		.byte	0x1
 684 00c5 02       		.byte	0x2
 685 00c6 32030000 		.4byte	.LASF17
 686 00ca 05       		.uleb128 0x5
 687 00cb B8000000 		.4byte	0xb8
 688 00cf 03       		.uleb128 0x3
 689 00d0 04       		.byte	0x4
 690 00d1 07       		.byte	0x7
 691 00d2 51000000 		.4byte	.LASF18
 692 00d6 06       		.uleb128 0x6
 693 00d7 04       		.byte	0x4
 694 00d8 DC000000 		.4byte	0xdc
 695 00dc 07       		.uleb128 0x7
 696 00dd E1000000 		.4byte	0xe1
 697 00e1 03       		.uleb128 0x3
 698 00e2 01       		.byte	0x1
 699 00e3 08       		.byte	0x8
 700 00e4 0F030000 		.4byte	.LASF19
 701 00e8 08       		.uleb128 0x8
 702 00e9 B8000000 		.4byte	0xb8
 703 00ed F8000000 		.4byte	0xf8
 704 00f1 09       		.uleb128 0x9
 705 00f2 CF000000 		.4byte	0xcf
 706 00f6 01       		.byte	0x1
 707 00f7 00       		.byte	0
 708 00f8 08       		.uleb128 0x8
 709 00f9 B8000000 		.4byte	0xb8
 710 00fd 08010000 		.4byte	0x108
 711 0101 09       		.uleb128 0x9
 712 0102 CF000000 		.4byte	0xcf
 713 0106 03       		.byte	0x3
 714 0107 00       		.byte	0
 715 0108 05       		.uleb128 0x5
 716 0109 AD000000 		.4byte	0xad
 717 010d 0A       		.uleb128 0xa
 718 010e 90       		.byte	0x90
 719 010f 04       		.byte	0x4
 720 0110 5804     		.2byte	0x458
 721 0112 B6020000 		.4byte	0x2b6
 722 0116 0B       		.uleb128 0xb
 723 0117 435200   		.ascii	"CR\000"
 724 011a 04       		.byte	0x4
ARM GAS  /tmp/ccmDnA3i.s 			page 14


 725 011b 5A04     		.2byte	0x45a
 726 011d CA000000 		.4byte	0xca
 727 0121 00       		.byte	0
 728 0122 0C       		.uleb128 0xc
 729 0123 DD020000 		.4byte	.LASF20
 730 0127 04       		.byte	0x4
 731 0128 5B04     		.2byte	0x45b
 732 012a CA000000 		.4byte	0xca
 733 012e 04       		.byte	0x4
 734 012f 0C       		.uleb128 0xc
 735 0130 ED000000 		.4byte	.LASF21
 736 0134 04       		.byte	0x4
 737 0135 5C04     		.2byte	0x45c
 738 0137 CA000000 		.4byte	0xca
 739 013b 08       		.byte	0x8
 740 013c 0B       		.uleb128 0xb
 741 013d 43495200 		.ascii	"CIR\000"
 742 0141 04       		.byte	0x4
 743 0142 5D04     		.2byte	0x45d
 744 0144 CA000000 		.4byte	0xca
 745 0148 0C       		.byte	0xc
 746 0149 0C       		.uleb128 0xc
 747 014a DD000000 		.4byte	.LASF22
 748 014e 04       		.byte	0x4
 749 014f 5E04     		.2byte	0x45e
 750 0151 CA000000 		.4byte	0xca
 751 0155 10       		.byte	0x10
 752 0156 0C       		.uleb128 0xc
 753 0157 BC020000 		.4byte	.LASF23
 754 015b 04       		.byte	0x4
 755 015c 5F04     		.2byte	0x45f
 756 015e CA000000 		.4byte	0xca
 757 0162 14       		.byte	0x14
 758 0163 0C       		.uleb128 0xc
 759 0164 1B050000 		.4byte	.LASF24
 760 0168 04       		.byte	0x4
 761 0169 6004     		.2byte	0x460
 762 016b CA000000 		.4byte	0xca
 763 016f 18       		.byte	0x18
 764 0170 0C       		.uleb128 0xc
 765 0171 4A030000 		.4byte	.LASF25
 766 0175 04       		.byte	0x4
 767 0176 6104     		.2byte	0x461
 768 0178 B8000000 		.4byte	0xb8
 769 017c 1C       		.byte	0x1c
 770 017d 0C       		.uleb128 0xc
 771 017e 1C000000 		.4byte	.LASF26
 772 0182 04       		.byte	0x4
 773 0183 6204     		.2byte	0x462
 774 0185 CA000000 		.4byte	0xca
 775 0189 20       		.byte	0x20
 776 018a 0C       		.uleb128 0xc
 777 018b A9010000 		.4byte	.LASF27
 778 018f 04       		.byte	0x4
 779 0190 6304     		.2byte	0x463
 780 0192 CA000000 		.4byte	0xca
 781 0196 24       		.byte	0x24
ARM GAS  /tmp/ccmDnA3i.s 			page 15


 782 0197 0C       		.uleb128 0xc
 783 0198 54030000 		.4byte	.LASF28
 784 019c 04       		.byte	0x4
 785 019d 6404     		.2byte	0x464
 786 019f E8000000 		.4byte	0xe8
 787 01a3 28       		.byte	0x28
 788 01a4 0C       		.uleb128 0xc
 789 01a5 96030000 		.4byte	.LASF29
 790 01a9 04       		.byte	0x4
 791 01aa 6504     		.2byte	0x465
 792 01ac CA000000 		.4byte	0xca
 793 01b0 30       		.byte	0x30
 794 01b1 0C       		.uleb128 0xc
 795 01b2 25000000 		.4byte	.LASF30
 796 01b6 04       		.byte	0x4
 797 01b7 6604     		.2byte	0x466
 798 01b9 CA000000 		.4byte	0xca
 799 01bd 34       		.byte	0x34
 800 01be 0C       		.uleb128 0xc
 801 01bf 36010000 		.4byte	.LASF31
 802 01c3 04       		.byte	0x4
 803 01c4 6704     		.2byte	0x467
 804 01c6 CA000000 		.4byte	0xca
 805 01ca 38       		.byte	0x38
 806 01cb 0C       		.uleb128 0xc
 807 01cc 5E030000 		.4byte	.LASF32
 808 01d0 04       		.byte	0x4
 809 01d1 6804     		.2byte	0x468
 810 01d3 B8000000 		.4byte	0xb8
 811 01d7 3C       		.byte	0x3c
 812 01d8 0C       		.uleb128 0xc
 813 01d9 12010000 		.4byte	.LASF33
 814 01dd 04       		.byte	0x4
 815 01de 6904     		.2byte	0x469
 816 01e0 CA000000 		.4byte	0xca
 817 01e4 40       		.byte	0x40
 818 01e5 0C       		.uleb128 0xc
 819 01e6 29020000 		.4byte	.LASF34
 820 01ea 04       		.byte	0x4
 821 01eb 6A04     		.2byte	0x46a
 822 01ed CA000000 		.4byte	0xca
 823 01f1 44       		.byte	0x44
 824 01f2 0C       		.uleb128 0xc
 825 01f3 68030000 		.4byte	.LASF35
 826 01f7 04       		.byte	0x4
 827 01f8 6B04     		.2byte	0x46b
 828 01fa E8000000 		.4byte	0xe8
 829 01fe 48       		.byte	0x48
 830 01ff 0C       		.uleb128 0xc
 831 0200 00000000 		.4byte	.LASF36
 832 0204 04       		.byte	0x4
 833 0205 6C04     		.2byte	0x46c
 834 0207 CA000000 		.4byte	0xca
 835 020b 50       		.byte	0x50
 836 020c 0C       		.uleb128 0xc
 837 020d 40030000 		.4byte	.LASF37
 838 0211 04       		.byte	0x4
ARM GAS  /tmp/ccmDnA3i.s 			page 16


 839 0212 6D04     		.2byte	0x46d
 840 0214 CA000000 		.4byte	0xca
 841 0218 54       		.byte	0x54
 842 0219 0C       		.uleb128 0xc
 843 021a F2000000 		.4byte	.LASF38
 844 021e 04       		.byte	0x4
 845 021f 6E04     		.2byte	0x46e
 846 0221 CA000000 		.4byte	0xca
 847 0225 58       		.byte	0x58
 848 0226 0C       		.uleb128 0xc
 849 0227 72030000 		.4byte	.LASF39
 850 022b 04       		.byte	0x4
 851 022c 6F04     		.2byte	0x46f
 852 022e B8000000 		.4byte	0xb8
 853 0232 5C       		.byte	0x5c
 854 0233 0C       		.uleb128 0xc
 855 0234 F8020000 		.4byte	.LASF40
 856 0238 04       		.byte	0x4
 857 0239 7004     		.2byte	0x470
 858 023b CA000000 		.4byte	0xca
 859 023f 60       		.byte	0x60
 860 0240 0C       		.uleb128 0xc
 861 0241 5F050000 		.4byte	.LASF41
 862 0245 04       		.byte	0x4
 863 0246 7104     		.2byte	0x471
 864 0248 CA000000 		.4byte	0xca
 865 024c 64       		.byte	0x64
 866 024d 0C       		.uleb128 0xc
 867 024e 7C030000 		.4byte	.LASF42
 868 0252 04       		.byte	0x4
 869 0253 7204     		.2byte	0x472
 870 0255 E8000000 		.4byte	0xe8
 871 0259 68       		.byte	0x68
 872 025a 0C       		.uleb128 0xc
 873 025b 5A000000 		.4byte	.LASF43
 874 025f 04       		.byte	0x4
 875 0260 7304     		.2byte	0x473
 876 0262 CA000000 		.4byte	0xca
 877 0266 70       		.byte	0x70
 878 0267 0B       		.uleb128 0xb
 879 0268 43535200 		.ascii	"CSR\000"
 880 026c 04       		.byte	0x4
 881 026d 7404     		.2byte	0x474
 882 026f CA000000 		.4byte	0xca
 883 0273 74       		.byte	0x74
 884 0274 0C       		.uleb128 0xc
 885 0275 86030000 		.4byte	.LASF44
 886 0279 04       		.byte	0x4
 887 027a 7504     		.2byte	0x475
 888 027c E8000000 		.4byte	0xe8
 889 0280 78       		.byte	0x78
 890 0281 0C       		.uleb128 0xc
 891 0282 AA000000 		.4byte	.LASF45
 892 0286 04       		.byte	0x4
 893 0287 7604     		.2byte	0x476
 894 0289 CA000000 		.4byte	0xca
 895 028d 80       		.byte	0x80
ARM GAS  /tmp/ccmDnA3i.s 			page 17


 896 028e 0C       		.uleb128 0xc
 897 028f 5F000000 		.4byte	.LASF46
 898 0293 04       		.byte	0x4
 899 0294 7704     		.2byte	0x477
 900 0296 CA000000 		.4byte	0xca
 901 029a 84       		.byte	0x84
 902 029b 0C       		.uleb128 0xc
 903 029c 3B050000 		.4byte	.LASF47
 904 02a0 04       		.byte	0x4
 905 02a1 7804     		.2byte	0x478
 906 02a3 CA000000 		.4byte	0xca
 907 02a7 88       		.byte	0x88
 908 02a8 0C       		.uleb128 0xc
 909 02a9 28010000 		.4byte	.LASF48
 910 02ad 04       		.byte	0x4
 911 02ae 7904     		.2byte	0x479
 912 02b0 CA000000 		.4byte	0xca
 913 02b4 8C       		.byte	0x8c
 914 02b5 00       		.byte	0
 915 02b6 0D       		.uleb128 0xd
 916 02b7 3E010000 		.4byte	.LASF49
 917 02bb 04       		.byte	0x4
 918 02bc 7B04     		.2byte	0x47b
 919 02be 0D010000 		.4byte	0x10d
 920 02c2 0A       		.uleb128 0xa
 921 02c3 60       		.byte	0x60
 922 02c4 05       		.byte	0x5
 923 02c5 9E01     		.2byte	0x19e
 924 02c7 DB030000 		.4byte	0x3db
 925 02cb 0B       		.uleb128 0xb
 926 02cc 43523100 		.ascii	"CR1\000"
 927 02d0 05       		.byte	0x5
 928 02d1 9F01     		.2byte	0x19f
 929 02d3 CA000000 		.4byte	0xca
 930 02d7 00       		.byte	0
 931 02d8 0B       		.uleb128 0xb
 932 02d9 43523200 		.ascii	"CR2\000"
 933 02dd 05       		.byte	0x5
 934 02de A001     		.2byte	0x1a0
 935 02e0 CA000000 		.4byte	0xca
 936 02e4 04       		.byte	0x4
 937 02e5 0C       		.uleb128 0xc
 938 02e6 EF010000 		.4byte	.LASF50
 939 02ea 05       		.byte	0x5
 940 02eb A101     		.2byte	0x1a1
 941 02ed CA000000 		.4byte	0xca
 942 02f1 08       		.byte	0x8
 943 02f2 0C       		.uleb128 0xc
 944 02f3 D8020000 		.4byte	.LASF51
 945 02f7 05       		.byte	0x5
 946 02f8 A201     		.2byte	0x1a2
 947 02fa CA000000 		.4byte	0xca
 948 02fe 0C       		.byte	0xc
 949 02ff 0B       		.uleb128 0xb
 950 0300 535200   		.ascii	"SR\000"
 951 0303 05       		.byte	0x5
 952 0304 A301     		.2byte	0x1a3
ARM GAS  /tmp/ccmDnA3i.s 			page 18


 953 0306 CA000000 		.4byte	0xca
 954 030a 10       		.byte	0x10
 955 030b 0B       		.uleb128 0xb
 956 030c 45475200 		.ascii	"EGR\000"
 957 0310 05       		.byte	0x5
 958 0311 A401     		.2byte	0x1a4
 959 0313 CA000000 		.4byte	0xca
 960 0317 14       		.byte	0x14
 961 0318 0C       		.uleb128 0xc
 962 0319 BC010000 		.4byte	.LASF52
 963 031d 05       		.byte	0x5
 964 031e A501     		.2byte	0x1a5
 965 0320 CA000000 		.4byte	0xca
 966 0324 18       		.byte	0x18
 967 0325 0C       		.uleb128 0xc
 968 0326 38000000 		.4byte	.LASF53
 969 032a 05       		.byte	0x5
 970 032b A601     		.2byte	0x1a6
 971 032d CA000000 		.4byte	0xca
 972 0331 1C       		.byte	0x1c
 973 0332 0C       		.uleb128 0xc
 974 0333 0A000000 		.4byte	.LASF54
 975 0337 05       		.byte	0x5
 976 0338 A701     		.2byte	0x1a7
 977 033a CA000000 		.4byte	0xca
 978 033e 20       		.byte	0x20
 979 033f 0B       		.uleb128 0xb
 980 0340 434E5400 		.ascii	"CNT\000"
 981 0344 05       		.byte	0x5
 982 0345 A801     		.2byte	0x1a8
 983 0347 CA000000 		.4byte	0xca
 984 034b 24       		.byte	0x24
 985 034c 0B       		.uleb128 0xb
 986 034d 50534300 		.ascii	"PSC\000"
 987 0351 05       		.byte	0x5
 988 0352 A901     		.2byte	0x1a9
 989 0354 CA000000 		.4byte	0xca
 990 0358 28       		.byte	0x28
 991 0359 0B       		.uleb128 0xb
 992 035a 41525200 		.ascii	"ARR\000"
 993 035e 05       		.byte	0x5
 994 035f AA01     		.2byte	0x1aa
 995 0361 CA000000 		.4byte	0xca
 996 0365 2C       		.byte	0x2c
 997 0366 0B       		.uleb128 0xb
 998 0367 52435200 		.ascii	"RCR\000"
 999 036b 05       		.byte	0x5
 1000 036c AB01     		.2byte	0x1ab
 1001 036e CA000000 		.4byte	0xca
 1002 0372 30       		.byte	0x30
 1003 0373 0B       		.uleb128 0xb
 1004 0374 43435200 		.ascii	"CCR\000"
 1005 0378 05       		.byte	0x5
 1006 0379 AC01     		.2byte	0x1ac
 1007 037b DB030000 		.4byte	0x3db
 1008 037f 34       		.byte	0x34
 1009 0380 0C       		.uleb128 0xc
ARM GAS  /tmp/ccmDnA3i.s 			page 19


 1010 0381 24020000 		.4byte	.LASF55
 1011 0385 05       		.byte	0x5
 1012 0386 AD01     		.2byte	0x1ad
 1013 0388 CA000000 		.4byte	0xca
 1014 038c 44       		.byte	0x44
 1015 038d 0B       		.uleb128 0xb
 1016 038e 44435200 		.ascii	"DCR\000"
 1017 0392 05       		.byte	0x5
 1018 0393 AE01     		.2byte	0x1ae
 1019 0395 CA000000 		.4byte	0xca
 1020 0399 48       		.byte	0x48
 1021 039a 0C       		.uleb128 0xc
 1022 039b 2D000000 		.4byte	.LASF56
 1023 039f 05       		.byte	0x5
 1024 03a0 AF01     		.2byte	0x1af
 1025 03a2 CA000000 		.4byte	0xca
 1026 03a6 4C       		.byte	0x4c
 1027 03a7 0B       		.uleb128 0xb
 1028 03a8 4F5200   		.ascii	"OR\000"
 1029 03ab 05       		.byte	0x5
 1030 03ac B001     		.2byte	0x1b0
 1031 03ae CA000000 		.4byte	0xca
 1032 03b2 50       		.byte	0x50
 1033 03b3 0C       		.uleb128 0xc
 1034 03b4 D9010000 		.4byte	.LASF57
 1035 03b8 05       		.byte	0x5
 1036 03b9 B101     		.2byte	0x1b1
 1037 03bb CA000000 		.4byte	0xca
 1038 03bf 54       		.byte	0x54
 1039 03c0 0C       		.uleb128 0xc
 1040 03c1 86010000 		.4byte	.LASF58
 1041 03c5 05       		.byte	0x5
 1042 03c6 B201     		.2byte	0x1b2
 1043 03c8 CA000000 		.4byte	0xca
 1044 03cc 58       		.byte	0x58
 1045 03cd 0C       		.uleb128 0xc
 1046 03ce 8B010000 		.4byte	.LASF59
 1047 03d2 05       		.byte	0x5
 1048 03d3 B301     		.2byte	0x1b3
 1049 03d5 CA000000 		.4byte	0xca
 1050 03d9 5C       		.byte	0x5c
 1051 03da 00       		.byte	0
 1052 03db 05       		.uleb128 0x5
 1053 03dc F8000000 		.4byte	0xf8
 1054 03e0 0D       		.uleb128 0xd
 1055 03e1 14030000 		.4byte	.LASF60
 1056 03e5 05       		.byte	0x5
 1057 03e6 B401     		.2byte	0x1b4
 1058 03e8 C2020000 		.4byte	0x2c2
 1059 03ec 06       		.uleb128 0x6
 1060 03ed 04       		.byte	0x4
 1061 03ee E0030000 		.4byte	0x3e0
 1062 03f2 0E       		.uleb128 0xe
 1063 03f3 01       		.byte	0x1
 1064 03f4 06       		.byte	0x6
 1065 03f5 55       		.byte	0x55
 1066 03f6 0D040000 		.4byte	0x40d
ARM GAS  /tmp/ccmDnA3i.s 			page 20


 1067 03fa 0F       		.uleb128 0xf
 1068 03fb F4010000 		.4byte	.LASF61
 1069 03ff 00       		.sleb128 0
 1070 0400 0F       		.uleb128 0xf
 1071 0401 D3030000 		.4byte	.LASF62
 1072 0405 01       		.sleb128 1
 1073 0406 0F       		.uleb128 0xf
 1074 0407 C9030000 		.4byte	.LASF63
 1075 040b 02       		.sleb128 2
 1076 040c 00       		.byte	0
 1077 040d 04       		.uleb128 0x4
 1078 040e 46050000 		.4byte	.LASF64
 1079 0412 06       		.byte	0x6
 1080 0413 59       		.byte	0x59
 1081 0414 F2030000 		.4byte	0x3f2
 1082 0418 04       		.uleb128 0x4
 1083 0419 20030000 		.4byte	.LASF65
 1084 041d 06       		.byte	0x6
 1085 041e 5E       		.byte	0x5e
 1086 041f 23040000 		.4byte	0x423
 1087 0423 10       		.uleb128 0x10
 1088 0424 20030000 		.4byte	.LASF65
 1089 0428 14       		.byte	0x14
 1090 0429 07       		.byte	0x7
 1091 042a 6F01     		.2byte	0x16f
 1092 042c 72040000 		.4byte	0x472
 1093 0430 0C       		.uleb128 0xc
 1094 0431 32000000 		.4byte	.LASF66
 1095 0435 07       		.byte	0x7
 1096 0436 7301     		.2byte	0x173
 1097 0438 0D040000 		.4byte	0x40d
 1098 043c 00       		.byte	0
 1099 043d 0C       		.uleb128 0xc
 1100 043e E6000000 		.4byte	.LASF67
 1101 0442 07       		.byte	0x7
 1102 0443 7701     		.2byte	0x177
 1103 0445 5C050000 		.4byte	0x55c
 1104 0449 04       		.byte	0x4
 1105 044a 0C       		.uleb128 0xc
 1106 044b A2010000 		.4byte	.LASF68
 1107 044f 07       		.byte	0x7
 1108 0450 7B01     		.2byte	0x17b
 1109 0452 AC040000 		.4byte	0x4ac
 1110 0456 08       		.byte	0x8
 1111 0457 0C       		.uleb128 0xc
 1112 0458 90030000 		.4byte	.LASF69
 1113 045c 07       		.byte	0x7
 1114 045d 8301     		.2byte	0x183
 1115 045f B8000000 		.4byte	0xb8
 1116 0463 0C       		.byte	0xc
 1117 0464 0B       		.uleb128 0xb
 1118 0465 74696D00 		.ascii	"tim\000"
 1119 0469 07       		.byte	0x7
 1120 046a 8701     		.2byte	0x187
 1121 046c EC030000 		.4byte	0x3ec
 1122 0470 10       		.byte	0x10
 1123 0471 00       		.byte	0
ARM GAS  /tmp/ccmDnA3i.s 			page 21


 1124 0472 04       		.uleb128 0x4
 1125 0473 51050000 		.4byte	.LASF70
 1126 0477 06       		.byte	0x6
 1127 0478 65       		.byte	0x65
 1128 0479 7D040000 		.4byte	0x47d
 1129 047d 06       		.uleb128 0x6
 1130 047e 04       		.byte	0x4
 1131 047f 83040000 		.4byte	0x483
 1132 0483 11       		.uleb128 0x11
 1133 0484 8E040000 		.4byte	0x48e
 1134 0488 12       		.uleb128 0x12
 1135 0489 8E040000 		.4byte	0x48e
 1136 048d 00       		.byte	0
 1137 048e 06       		.uleb128 0x6
 1138 048f 04       		.byte	0x4
 1139 0490 18040000 		.4byte	0x418
 1140 0494 0D       		.uleb128 0xd
 1141 0495 24050000 		.4byte	.LASF71
 1142 0499 07       		.byte	0x7
 1143 049a 2001     		.2byte	0x120
 1144 049c B8000000 		.4byte	0xb8
 1145 04a0 0D       		.uleb128 0xd
 1146 04a1 82000000 		.4byte	.LASF72
 1147 04a5 07       		.byte	0x7
 1148 04a6 2501     		.2byte	0x125
 1149 04a8 97000000 		.4byte	0x97
 1150 04ac 0D       		.uleb128 0xd
 1151 04ad 48000000 		.4byte	.LASF73
 1152 04b1 07       		.byte	0x7
 1153 04b2 2A01     		.2byte	0x12a
 1154 04b4 A2000000 		.4byte	0xa2
 1155 04b8 0A       		.uleb128 0xa
 1156 04b9 08       		.byte	0x8
 1157 04ba 07       		.byte	0x7
 1158 04bb 2F01     		.2byte	0x12f
 1159 04bd DC040000 		.4byte	0x4dc
 1160 04c1 0C       		.uleb128 0xc
 1161 04c2 9A000000 		.4byte	.LASF74
 1162 04c6 07       		.byte	0x7
 1163 04c7 3301     		.2byte	0x133
 1164 04c9 94040000 		.4byte	0x494
 1165 04cd 00       		.byte	0
 1166 04ce 0C       		.uleb128 0xc
 1167 04cf 69050000 		.4byte	.LASF75
 1168 04d3 07       		.byte	0x7
 1169 04d4 3901     		.2byte	0x139
 1170 04d6 72040000 		.4byte	0x472
 1171 04da 04       		.byte	0x4
 1172 04db 00       		.byte	0
 1173 04dc 0D       		.uleb128 0xd
 1174 04dd 04050000 		.4byte	.LASF76
 1175 04e1 07       		.byte	0x7
 1176 04e2 3B01     		.2byte	0x13b
 1177 04e4 B8040000 		.4byte	0x4b8
 1178 04e8 0A       		.uleb128 0xa
 1179 04e9 34       		.byte	0x34
 1180 04ea 07       		.byte	0x7
ARM GAS  /tmp/ccmDnA3i.s 			page 22


 1181 04eb 4001     		.2byte	0x140
 1182 04ed 40050000 		.4byte	0x540
 1183 04f1 0C       		.uleb128 0xc
 1184 04f2 FA040000 		.4byte	.LASF77
 1185 04f6 07       		.byte	0x7
 1186 04f7 4601     		.2byte	0x146
 1187 04f9 B8000000 		.4byte	0xb8
 1188 04fd 00       		.byte	0
 1189 04fe 0C       		.uleb128 0xc
 1190 04ff A2010000 		.4byte	.LASF68
 1191 0503 07       		.byte	0x7
 1192 0504 4C01     		.2byte	0x14c
 1193 0506 AC040000 		.4byte	0x4ac
 1194 050a 04       		.byte	0x4
 1195 050b 0C       		.uleb128 0xc
 1196 050c 69050000 		.4byte	.LASF75
 1197 0510 07       		.byte	0x7
 1198 0511 5201     		.2byte	0x152
 1199 0513 72040000 		.4byte	0x472
 1200 0517 08       		.byte	0x8
 1201 0518 0C       		.uleb128 0xc
 1202 0519 B6030000 		.4byte	.LASF78
 1203 051d 07       		.byte	0x7
 1204 051e 5601     		.2byte	0x156
 1205 0520 40050000 		.4byte	0x540
 1206 0524 0C       		.byte	0xc
 1207 0525 0B       		.uleb128 0xb
 1208 0526 63723200 		.ascii	"cr2\000"
 1209 052a 07       		.byte	0x7
 1210 052b 5C01     		.2byte	0x15c
 1211 052d B8000000 		.4byte	0xb8
 1212 0531 2C       		.byte	0x2c
 1213 0532 0C       		.uleb128 0xc
 1214 0533 F5040000 		.4byte	.LASF79
 1215 0537 07       		.byte	0x7
 1216 0538 6901     		.2byte	0x169
 1217 053a B8000000 		.4byte	0xb8
 1218 053e 30       		.byte	0x30
 1219 053f 00       		.byte	0
 1220 0540 08       		.uleb128 0x8
 1221 0541 DC040000 		.4byte	0x4dc
 1222 0545 50050000 		.4byte	0x550
 1223 0549 09       		.uleb128 0x9
 1224 054a CF000000 		.4byte	0xcf
 1225 054e 03       		.byte	0x3
 1226 054f 00       		.byte	0
 1227 0550 0D       		.uleb128 0xd
 1228 0551 CE020000 		.4byte	.LASF80
 1229 0555 07       		.byte	0x7
 1230 0556 6A01     		.2byte	0x16a
 1231 0558 E8040000 		.4byte	0x4e8
 1232 055c 06       		.uleb128 0x6
 1233 055d 04       		.byte	0x4
 1234 055e 62050000 		.4byte	0x562
 1235 0562 07       		.uleb128 0x7
 1236 0563 50050000 		.4byte	0x550
 1237 0567 13       		.uleb128 0x13
ARM GAS  /tmp/ccmDnA3i.s 			page 23


 1238 0568 6A000000 		.4byte	.LASF99
 1239 056c 01       		.byte	0x1
 1240 056d 70       		.byte	0x70
 1241 056e 01       		.byte	0x1
 1242 056f 89050000 		.4byte	0x589
 1243 0573 14       		.uleb128 0x14
 1244 0574 EA010000 		.4byte	.LASF86
 1245 0578 01       		.byte	0x1
 1246 0579 70       		.byte	0x70
 1247 057a 8E040000 		.4byte	0x48e
 1248 057e 15       		.uleb128 0x15
 1249 057f 737200   		.ascii	"sr\000"
 1250 0582 01       		.byte	0x1
 1251 0583 71       		.byte	0x71
 1252 0584 A2000000 		.4byte	0xa2
 1253 0588 00       		.byte	0
 1254 0589 16       		.uleb128 0x16
 1255 058a D0010000 		.4byte	.LASF81
 1256 058e 01       		.byte	0x1
 1257 058f D8       		.byte	0xd8
 1258 0590 00000000 		.4byte	.LFB112
 1259 0594 64000000 		.4byte	.LFE112-.LFB112
 1260 0598 01       		.uleb128 0x1
 1261 0599 9C       		.byte	0x9c
 1262 059a 23060000 		.4byte	0x623
 1263 059e 17       		.uleb128 0x17
 1264 059f 67050000 		.4byte	0x567
 1265 05a3 02000000 		.4byte	.LBB4
 1266 05a7 00000000 		.4byte	.Ldebug_ranges0+0
 1267 05ab 01       		.byte	0x1
 1268 05ac DC       		.byte	0xdc
 1269 05ad 19060000 		.4byte	0x619
 1270 05b1 18       		.uleb128 0x18
 1271 05b2 73050000 		.4byte	0x573
 1272 05b6 06       		.uleb128 0x6
 1273 05b7 03       		.byte	0x3
 1274 05b8 00000000 		.4byte	PWMD3
 1275 05bc 9F       		.byte	0x9f
 1276 05bd 19       		.uleb128 0x19
 1277 05be 00000000 		.4byte	.Ldebug_ranges0+0
 1278 05c2 1A       		.uleb128 0x1a
 1279 05c3 7E050000 		.4byte	0x57e
 1280 05c7 00000000 		.4byte	.LLST0
 1281 05cb 1B       		.uleb128 0x1b
 1282 05cc 30000000 		.4byte	.LVL3
 1283 05d0 DB050000 		.4byte	0x5db
 1284 05d4 1C       		.uleb128 0x1c
 1285 05d5 01       		.uleb128 0x1
 1286 05d6 50       		.byte	0x50
 1287 05d7 02       		.uleb128 0x2
 1288 05d8 75       		.byte	0x75
 1289 05d9 00       		.sleb128 0
 1290 05da 00       		.byte	0
 1291 05db 1B       		.uleb128 0x1b
 1292 05dc 40000000 		.4byte	.LVL6
 1293 05e0 EB050000 		.4byte	0x5eb
 1294 05e4 1C       		.uleb128 0x1c
ARM GAS  /tmp/ccmDnA3i.s 			page 24


 1295 05e5 01       		.uleb128 0x1
 1296 05e6 50       		.byte	0x50
 1297 05e7 02       		.uleb128 0x2
 1298 05e8 75       		.byte	0x75
 1299 05e9 00       		.sleb128 0
 1300 05ea 00       		.byte	0
 1301 05eb 1B       		.uleb128 0x1b
 1302 05ec 4A000000 		.4byte	.LVL7
 1303 05f0 FB050000 		.4byte	0x5fb
 1304 05f4 1C       		.uleb128 0x1c
 1305 05f5 01       		.uleb128 0x1
 1306 05f6 50       		.byte	0x50
 1307 05f7 02       		.uleb128 0x2
 1308 05f8 75       		.byte	0x75
 1309 05f9 00       		.sleb128 0
 1310 05fa 00       		.byte	0
 1311 05fb 1B       		.uleb128 0x1b
 1312 05fc 54000000 		.4byte	.LVL8
 1313 0600 0B060000 		.4byte	0x60b
 1314 0604 1C       		.uleb128 0x1c
 1315 0605 01       		.uleb128 0x1
 1316 0606 50       		.byte	0x50
 1317 0607 02       		.uleb128 0x2
 1318 0608 75       		.byte	0x75
 1319 0609 00       		.sleb128 0
 1320 060a 00       		.byte	0
 1321 060b 1D       		.uleb128 0x1d
 1322 060c 5E000000 		.4byte	.LVL9
 1323 0610 1C       		.uleb128 0x1c
 1324 0611 01       		.uleb128 0x1
 1325 0612 50       		.byte	0x50
 1326 0613 02       		.uleb128 0x2
 1327 0614 75       		.byte	0x75
 1328 0615 00       		.sleb128 0
 1329 0616 00       		.byte	0
 1330 0617 00       		.byte	0
 1331 0618 00       		.byte	0
 1332 0619 1E       		.uleb128 0x1e
 1333 061a 38000000 		.4byte	.LVL5
 1334 061e A8070000 		.4byte	0x7a8
 1335 0622 00       		.byte	0
 1336 0623 1F       		.uleb128 0x1f
 1337 0624 02030000 		.4byte	.LASF82
 1338 0628 01       		.byte	0x1
 1339 0629 5901     		.2byte	0x159
 1340 062b 00000000 		.4byte	.LFB113
 1341 062f 18000000 		.4byte	.LFE113-.LFB113
 1342 0633 01       		.uleb128 0x1
 1343 0634 9C       		.byte	0x9c
 1344 0635 4A060000 		.4byte	0x64a
 1345 0639 20       		.uleb128 0x20
 1346 063a 0A000000 		.4byte	.LVL10
 1347 063e B0070000 		.4byte	0x7b0
 1348 0642 1C       		.uleb128 0x1c
 1349 0643 01       		.uleb128 0x1
 1350 0644 50       		.byte	0x50
 1351 0645 02       		.uleb128 0x2
ARM GAS  /tmp/ccmDnA3i.s 			page 25


 1352 0646 74       		.byte	0x74
 1353 0647 00       		.sleb128 0
 1354 0648 00       		.byte	0
 1355 0649 00       		.byte	0
 1356 064a 1F       		.uleb128 0x1f
 1357 064b C2010000 		.4byte	.LASF83
 1358 064f 01       		.byte	0x1
 1359 0650 8F01     		.2byte	0x18f
 1360 0652 00000000 		.4byte	.LFB114
 1361 0656 18010000 		.4byte	.LFE114-.LFB114
 1362 065a 01       		.uleb128 0x1
 1363 065b 9C       		.byte	0x9c
 1364 065c BD060000 		.4byte	0x6bd
 1365 0660 21       		.uleb128 0x21
 1366 0661 EA010000 		.4byte	.LASF86
 1367 0665 01       		.byte	0x1
 1368 0666 8F01     		.2byte	0x18f
 1369 0668 8E040000 		.4byte	0x48e
 1370 066c 33000000 		.4byte	.LLST1
 1371 0670 22       		.uleb128 0x22
 1372 0671 70736300 		.ascii	"psc\000"
 1373 0675 01       		.byte	0x1
 1374 0676 9001     		.2byte	0x190
 1375 0678 B8000000 		.4byte	0xb8
 1376 067c 8B000000 		.4byte	.LLST2
 1377 0680 23       		.uleb128 0x23
 1378 0681 23010000 		.4byte	.LASF84
 1379 0685 01       		.byte	0x1
 1380 0686 9101     		.2byte	0x191
 1381 0688 A2000000 		.4byte	0xa2
 1382 068c 9E000000 		.4byte	.LLST3
 1383 0690 24       		.uleb128 0x24
 1384 0691 44000000 		.4byte	.LVL14
 1385 0695 C1070000 		.4byte	0x7c1
 1386 0699 A7060000 		.4byte	0x6a7
 1387 069d 1C       		.uleb128 0x1c
 1388 069e 01       		.uleb128 0x1
 1389 069f 50       		.byte	0x50
 1390 06a0 05       		.uleb128 0x5
 1391 06a1 03       		.byte	0x3
 1392 06a2 00000000 		.4byte	.LC0
 1393 06a6 00       		.byte	0
 1394 06a7 20       		.uleb128 0x20
 1395 06a8 02010000 		.4byte	.LVL33
 1396 06ac D2070000 		.4byte	0x7d2
 1397 06b0 1C       		.uleb128 0x1c
 1398 06b1 01       		.uleb128 0x1
 1399 06b2 51       		.byte	0x51
 1400 06b3 02       		.uleb128 0x2
 1401 06b4 08       		.byte	0x8
 1402 06b5 70       		.byte	0x70
 1403 06b6 1C       		.uleb128 0x1c
 1404 06b7 01       		.uleb128 0x1
 1405 06b8 50       		.byte	0x50
 1406 06b9 01       		.uleb128 0x1
 1407 06ba 4D       		.byte	0x4d
 1408 06bb 00       		.byte	0
ARM GAS  /tmp/ccmDnA3i.s 			page 26


 1409 06bc 00       		.byte	0
 1410 06bd 1F       		.uleb128 0x1f
 1411 06be 0F000000 		.4byte	.LASF85
 1412 06c2 01       		.byte	0x1
 1413 06c3 5D02     		.2byte	0x25d
 1414 06c5 00000000 		.4byte	.LFB115
 1415 06c9 34000000 		.4byte	.LFE115-.LFB115
 1416 06cd 01       		.uleb128 0x1
 1417 06ce 9C       		.byte	0x9c
 1418 06cf F3060000 		.4byte	0x6f3
 1419 06d3 21       		.uleb128 0x21
 1420 06d4 EA010000 		.4byte	.LASF86
 1421 06d8 01       		.byte	0x1
 1422 06d9 5D02     		.2byte	0x25d
 1423 06db 8E040000 		.4byte	0x48e
 1424 06df C8000000 		.4byte	.LLST4
 1425 06e3 20       		.uleb128 0x20
 1426 06e4 20000000 		.4byte	.LVL38
 1427 06e8 E9070000 		.4byte	0x7e9
 1428 06ec 1C       		.uleb128 0x1c
 1429 06ed 01       		.uleb128 0x1
 1430 06ee 50       		.byte	0x50
 1431 06ef 01       		.uleb128 0x1
 1432 06f0 4D       		.byte	0x4d
 1433 06f1 00       		.byte	0
 1434 06f2 00       		.byte	0
 1435 06f3 1F       		.uleb128 0x1f
 1436 06f4 0D020000 		.4byte	.LASF87
 1437 06f8 01       		.byte	0x1
 1438 06f9 A302     		.2byte	0x2a3
 1439 06fb 00000000 		.4byte	.LFB116
 1440 06ff 32000000 		.4byte	.LFE116-.LFB116
 1441 0703 01       		.uleb128 0x1
 1442 0704 9C       		.byte	0x9c
 1443 0705 54070000 		.4byte	0x754
 1444 0709 21       		.uleb128 0x21
 1445 070a EA010000 		.4byte	.LASF86
 1446 070e 01       		.byte	0x1
 1447 070f A302     		.2byte	0x2a3
 1448 0711 8E040000 		.4byte	0x48e
 1449 0715 02010000 		.4byte	.LLST5
 1450 0719 21       		.uleb128 0x21
 1451 071a 38030000 		.4byte	.LASF88
 1452 071e 01       		.byte	0x1
 1453 071f A402     		.2byte	0x2a4
 1454 0721 A0040000 		.4byte	0x4a0
 1455 0725 23010000 		.4byte	.LLST6
 1456 0729 21       		.uleb128 0x21
 1457 072a 30010000 		.4byte	.LASF89
 1458 072e 01       		.byte	0x1
 1459 072f A502     		.2byte	0x2a5
 1460 0731 AC040000 		.4byte	0x4ac
 1461 0735 44010000 		.4byte	.LLST7
 1462 0739 25       		.uleb128 0x25
 1463 073a 18000000 		.4byte	.LBB8
 1464 073e 14000000 		.4byte	.LBE8-.LBB8
 1465 0742 23       		.uleb128 0x23
ARM GAS  /tmp/ccmDnA3i.s 			page 27


 1466 0743 F5040000 		.4byte	.LASF79
 1467 0747 01       		.byte	0x1
 1468 0748 AB02     		.2byte	0x2ab
 1469 074a B8000000 		.4byte	0xb8
 1470 074e 65010000 		.4byte	.LLST8
 1471 0752 00       		.byte	0
 1472 0753 00       		.byte	0
 1473 0754 1F       		.uleb128 0x1f
 1474 0755 9E030000 		.4byte	.LASF90
 1475 0759 01       		.byte	0x1
 1476 075a C102     		.2byte	0x2c1
 1477 075c 00000000 		.4byte	.LFB117
 1478 0760 1E000000 		.4byte	.LFE117-.LFB117
 1479 0764 01       		.uleb128 0x1
 1480 0765 9C       		.byte	0x9c
 1481 0766 8B070000 		.4byte	0x78b
 1482 076a 21       		.uleb128 0x21
 1483 076b EA010000 		.4byte	.LASF86
 1484 076f 01       		.byte	0x1
 1485 0770 C102     		.2byte	0x2c1
 1486 0772 8E040000 		.4byte	0x48e
 1487 0776 78010000 		.4byte	.LLST9
 1488 077a 21       		.uleb128 0x21
 1489 077b 38030000 		.4byte	.LASF88
 1490 077f 01       		.byte	0x1
 1491 0780 C102     		.2byte	0x2c1
 1492 0782 A0040000 		.4byte	0x4a0
 1493 0786 99010000 		.4byte	.LLST10
 1494 078a 00       		.byte	0
 1495 078b 26       		.uleb128 0x26
 1496 078c 2E050000 		.4byte	.LASF91
 1497 0790 08       		.byte	0x8
 1498 0791 9806     		.2byte	0x698
 1499 0793 08010000 		.4byte	0x108
 1500 0797 27       		.uleb128 0x27
 1501 0798 15050000 		.4byte	.LASF92
 1502 079c 01       		.byte	0x1
 1503 079d 3B       		.byte	0x3b
 1504 079e 18040000 		.4byte	0x418
 1505 07a2 05       		.uleb128 0x5
 1506 07a3 03       		.byte	0x3
 1507 07a4 00000000 		.4byte	PWMD3
 1508 07a8 28       		.uleb128 0x28
 1509 07a9 4A010000 		.4byte	.LASF100
 1510 07ad 0B       		.byte	0xb
 1511 07ae 0302     		.2byte	0x203
 1512 07b0 29       		.uleb128 0x29
 1513 07b1 FC000000 		.4byte	.LASF93
 1514 07b5 06       		.byte	0x6
 1515 07b6 F3       		.byte	0xf3
 1516 07b7 C1070000 		.4byte	0x7c1
 1517 07bb 12       		.uleb128 0x12
 1518 07bc 8E040000 		.4byte	0x48e
 1519 07c0 00       		.byte	0
 1520 07c1 29       		.uleb128 0x29
 1521 07c2 DF010000 		.4byte	.LASF94
 1522 07c6 09       		.byte	0x9
ARM GAS  /tmp/ccmDnA3i.s 			page 28


 1523 07c7 F6       		.byte	0xf6
 1524 07c8 D2070000 		.4byte	0x7d2
 1525 07cc 12       		.uleb128 0x12
 1526 07cd D6000000 		.4byte	0xd6
 1527 07d1 00       		.byte	0
 1528 07d2 2A       		.uleb128 0x2a
 1529 07d3 31020000 		.4byte	.LASF95
 1530 07d7 0A       		.byte	0xa
 1531 07d8 2301     		.2byte	0x123
 1532 07da E9070000 		.4byte	0x7e9
 1533 07de 12       		.uleb128 0x12
 1534 07df B8000000 		.4byte	0xb8
 1535 07e3 12       		.uleb128 0x12
 1536 07e4 B8000000 		.4byte	0xb8
 1537 07e8 00       		.byte	0
 1538 07e9 2B       		.uleb128 0x2b
 1539 07ea 74010000 		.4byte	.LASF101
 1540 07ee 0A       		.byte	0xa
 1541 07ef 2401     		.2byte	0x124
 1542 07f1 12       		.uleb128 0x12
 1543 07f2 B8000000 		.4byte	0xb8
 1544 07f6 00       		.byte	0
 1545 07f7 00       		.byte	0
 1546              		.section	.debug_abbrev,"",%progbits
 1547              	.Ldebug_abbrev0:
 1548 0000 01       		.uleb128 0x1
 1549 0001 11       		.uleb128 0x11
 1550 0002 01       		.byte	0x1
 1551 0003 25       		.uleb128 0x25
 1552 0004 0E       		.uleb128 0xe
 1553 0005 13       		.uleb128 0x13
 1554 0006 0B       		.uleb128 0xb
 1555 0007 03       		.uleb128 0x3
 1556 0008 0E       		.uleb128 0xe
 1557 0009 1B       		.uleb128 0x1b
 1558 000a 0E       		.uleb128 0xe
 1559 000b 55       		.uleb128 0x55
 1560 000c 17       		.uleb128 0x17
 1561 000d 11       		.uleb128 0x11
 1562 000e 01       		.uleb128 0x1
 1563 000f 10       		.uleb128 0x10
 1564 0010 17       		.uleb128 0x17
 1565 0011 00       		.byte	0
 1566 0012 00       		.byte	0
 1567 0013 02       		.uleb128 0x2
 1568 0014 24       		.uleb128 0x24
 1569 0015 00       		.byte	0
 1570 0016 0B       		.uleb128 0xb
 1571 0017 0B       		.uleb128 0xb
 1572 0018 3E       		.uleb128 0x3e
 1573 0019 0B       		.uleb128 0xb
 1574 001a 03       		.uleb128 0x3
 1575 001b 08       		.uleb128 0x8
 1576 001c 00       		.byte	0
 1577 001d 00       		.byte	0
 1578 001e 03       		.uleb128 0x3
 1579 001f 24       		.uleb128 0x24
ARM GAS  /tmp/ccmDnA3i.s 			page 29


 1580 0020 00       		.byte	0
 1581 0021 0B       		.uleb128 0xb
 1582 0022 0B       		.uleb128 0xb
 1583 0023 3E       		.uleb128 0x3e
 1584 0024 0B       		.uleb128 0xb
 1585 0025 03       		.uleb128 0x3
 1586 0026 0E       		.uleb128 0xe
 1587 0027 00       		.byte	0
 1588 0028 00       		.byte	0
 1589 0029 04       		.uleb128 0x4
 1590 002a 16       		.uleb128 0x16
 1591 002b 00       		.byte	0
 1592 002c 03       		.uleb128 0x3
 1593 002d 0E       		.uleb128 0xe
 1594 002e 3A       		.uleb128 0x3a
 1595 002f 0B       		.uleb128 0xb
 1596 0030 3B       		.uleb128 0x3b
 1597 0031 0B       		.uleb128 0xb
 1598 0032 49       		.uleb128 0x49
 1599 0033 13       		.uleb128 0x13
 1600 0034 00       		.byte	0
 1601 0035 00       		.byte	0
 1602 0036 05       		.uleb128 0x5
 1603 0037 35       		.uleb128 0x35
 1604 0038 00       		.byte	0
 1605 0039 49       		.uleb128 0x49
 1606 003a 13       		.uleb128 0x13
 1607 003b 00       		.byte	0
 1608 003c 00       		.byte	0
 1609 003d 06       		.uleb128 0x6
 1610 003e 0F       		.uleb128 0xf
 1611 003f 00       		.byte	0
 1612 0040 0B       		.uleb128 0xb
 1613 0041 0B       		.uleb128 0xb
 1614 0042 49       		.uleb128 0x49
 1615 0043 13       		.uleb128 0x13
 1616 0044 00       		.byte	0
 1617 0045 00       		.byte	0
 1618 0046 07       		.uleb128 0x7
 1619 0047 26       		.uleb128 0x26
 1620 0048 00       		.byte	0
 1621 0049 49       		.uleb128 0x49
 1622 004a 13       		.uleb128 0x13
 1623 004b 00       		.byte	0
 1624 004c 00       		.byte	0
 1625 004d 08       		.uleb128 0x8
 1626 004e 01       		.uleb128 0x1
 1627 004f 01       		.byte	0x1
 1628 0050 49       		.uleb128 0x49
 1629 0051 13       		.uleb128 0x13
 1630 0052 01       		.uleb128 0x1
 1631 0053 13       		.uleb128 0x13
 1632 0054 00       		.byte	0
 1633 0055 00       		.byte	0
 1634 0056 09       		.uleb128 0x9
 1635 0057 21       		.uleb128 0x21
 1636 0058 00       		.byte	0
ARM GAS  /tmp/ccmDnA3i.s 			page 30


 1637 0059 49       		.uleb128 0x49
 1638 005a 13       		.uleb128 0x13
 1639 005b 2F       		.uleb128 0x2f
 1640 005c 0B       		.uleb128 0xb
 1641 005d 00       		.byte	0
 1642 005e 00       		.byte	0
 1643 005f 0A       		.uleb128 0xa
 1644 0060 13       		.uleb128 0x13
 1645 0061 01       		.byte	0x1
 1646 0062 0B       		.uleb128 0xb
 1647 0063 0B       		.uleb128 0xb
 1648 0064 3A       		.uleb128 0x3a
 1649 0065 0B       		.uleb128 0xb
 1650 0066 3B       		.uleb128 0x3b
 1651 0067 05       		.uleb128 0x5
 1652 0068 01       		.uleb128 0x1
 1653 0069 13       		.uleb128 0x13
 1654 006a 00       		.byte	0
 1655 006b 00       		.byte	0
 1656 006c 0B       		.uleb128 0xb
 1657 006d 0D       		.uleb128 0xd
 1658 006e 00       		.byte	0
 1659 006f 03       		.uleb128 0x3
 1660 0070 08       		.uleb128 0x8
 1661 0071 3A       		.uleb128 0x3a
 1662 0072 0B       		.uleb128 0xb
 1663 0073 3B       		.uleb128 0x3b
 1664 0074 05       		.uleb128 0x5
 1665 0075 49       		.uleb128 0x49
 1666 0076 13       		.uleb128 0x13
 1667 0077 38       		.uleb128 0x38
 1668 0078 0B       		.uleb128 0xb
 1669 0079 00       		.byte	0
 1670 007a 00       		.byte	0
 1671 007b 0C       		.uleb128 0xc
 1672 007c 0D       		.uleb128 0xd
 1673 007d 00       		.byte	0
 1674 007e 03       		.uleb128 0x3
 1675 007f 0E       		.uleb128 0xe
 1676 0080 3A       		.uleb128 0x3a
 1677 0081 0B       		.uleb128 0xb
 1678 0082 3B       		.uleb128 0x3b
 1679 0083 05       		.uleb128 0x5
 1680 0084 49       		.uleb128 0x49
 1681 0085 13       		.uleb128 0x13
 1682 0086 38       		.uleb128 0x38
 1683 0087 0B       		.uleb128 0xb
 1684 0088 00       		.byte	0
 1685 0089 00       		.byte	0
 1686 008a 0D       		.uleb128 0xd
 1687 008b 16       		.uleb128 0x16
 1688 008c 00       		.byte	0
 1689 008d 03       		.uleb128 0x3
 1690 008e 0E       		.uleb128 0xe
 1691 008f 3A       		.uleb128 0x3a
 1692 0090 0B       		.uleb128 0xb
 1693 0091 3B       		.uleb128 0x3b
ARM GAS  /tmp/ccmDnA3i.s 			page 31


 1694 0092 05       		.uleb128 0x5
 1695 0093 49       		.uleb128 0x49
 1696 0094 13       		.uleb128 0x13
 1697 0095 00       		.byte	0
 1698 0096 00       		.byte	0
 1699 0097 0E       		.uleb128 0xe
 1700 0098 04       		.uleb128 0x4
 1701 0099 01       		.byte	0x1
 1702 009a 0B       		.uleb128 0xb
 1703 009b 0B       		.uleb128 0xb
 1704 009c 3A       		.uleb128 0x3a
 1705 009d 0B       		.uleb128 0xb
 1706 009e 3B       		.uleb128 0x3b
 1707 009f 0B       		.uleb128 0xb
 1708 00a0 01       		.uleb128 0x1
 1709 00a1 13       		.uleb128 0x13
 1710 00a2 00       		.byte	0
 1711 00a3 00       		.byte	0
 1712 00a4 0F       		.uleb128 0xf
 1713 00a5 28       		.uleb128 0x28
 1714 00a6 00       		.byte	0
 1715 00a7 03       		.uleb128 0x3
 1716 00a8 0E       		.uleb128 0xe
 1717 00a9 1C       		.uleb128 0x1c
 1718 00aa 0D       		.uleb128 0xd
 1719 00ab 00       		.byte	0
 1720 00ac 00       		.byte	0
 1721 00ad 10       		.uleb128 0x10
 1722 00ae 13       		.uleb128 0x13
 1723 00af 01       		.byte	0x1
 1724 00b0 03       		.uleb128 0x3
 1725 00b1 0E       		.uleb128 0xe
 1726 00b2 0B       		.uleb128 0xb
 1727 00b3 0B       		.uleb128 0xb
 1728 00b4 3A       		.uleb128 0x3a
 1729 00b5 0B       		.uleb128 0xb
 1730 00b6 3B       		.uleb128 0x3b
 1731 00b7 05       		.uleb128 0x5
 1732 00b8 01       		.uleb128 0x1
 1733 00b9 13       		.uleb128 0x13
 1734 00ba 00       		.byte	0
 1735 00bb 00       		.byte	0
 1736 00bc 11       		.uleb128 0x11
 1737 00bd 15       		.uleb128 0x15
 1738 00be 01       		.byte	0x1
 1739 00bf 27       		.uleb128 0x27
 1740 00c0 19       		.uleb128 0x19
 1741 00c1 01       		.uleb128 0x1
 1742 00c2 13       		.uleb128 0x13
 1743 00c3 00       		.byte	0
 1744 00c4 00       		.byte	0
 1745 00c5 12       		.uleb128 0x12
 1746 00c6 05       		.uleb128 0x5
 1747 00c7 00       		.byte	0
 1748 00c8 49       		.uleb128 0x49
 1749 00c9 13       		.uleb128 0x13
 1750 00ca 00       		.byte	0
ARM GAS  /tmp/ccmDnA3i.s 			page 32


 1751 00cb 00       		.byte	0
 1752 00cc 13       		.uleb128 0x13
 1753 00cd 2E       		.uleb128 0x2e
 1754 00ce 01       		.byte	0x1
 1755 00cf 03       		.uleb128 0x3
 1756 00d0 0E       		.uleb128 0xe
 1757 00d1 3A       		.uleb128 0x3a
 1758 00d2 0B       		.uleb128 0xb
 1759 00d3 3B       		.uleb128 0x3b
 1760 00d4 0B       		.uleb128 0xb
 1761 00d5 27       		.uleb128 0x27
 1762 00d6 19       		.uleb128 0x19
 1763 00d7 20       		.uleb128 0x20
 1764 00d8 0B       		.uleb128 0xb
 1765 00d9 01       		.uleb128 0x1
 1766 00da 13       		.uleb128 0x13
 1767 00db 00       		.byte	0
 1768 00dc 00       		.byte	0
 1769 00dd 14       		.uleb128 0x14
 1770 00de 05       		.uleb128 0x5
 1771 00df 00       		.byte	0
 1772 00e0 03       		.uleb128 0x3
 1773 00e1 0E       		.uleb128 0xe
 1774 00e2 3A       		.uleb128 0x3a
 1775 00e3 0B       		.uleb128 0xb
 1776 00e4 3B       		.uleb128 0x3b
 1777 00e5 0B       		.uleb128 0xb
 1778 00e6 49       		.uleb128 0x49
 1779 00e7 13       		.uleb128 0x13
 1780 00e8 00       		.byte	0
 1781 00e9 00       		.byte	0
 1782 00ea 15       		.uleb128 0x15
 1783 00eb 34       		.uleb128 0x34
 1784 00ec 00       		.byte	0
 1785 00ed 03       		.uleb128 0x3
 1786 00ee 08       		.uleb128 0x8
 1787 00ef 3A       		.uleb128 0x3a
 1788 00f0 0B       		.uleb128 0xb
 1789 00f1 3B       		.uleb128 0x3b
 1790 00f2 0B       		.uleb128 0xb
 1791 00f3 49       		.uleb128 0x49
 1792 00f4 13       		.uleb128 0x13
 1793 00f5 00       		.byte	0
 1794 00f6 00       		.byte	0
 1795 00f7 16       		.uleb128 0x16
 1796 00f8 2E       		.uleb128 0x2e
 1797 00f9 01       		.byte	0x1
 1798 00fa 3F       		.uleb128 0x3f
 1799 00fb 19       		.uleb128 0x19
 1800 00fc 03       		.uleb128 0x3
 1801 00fd 0E       		.uleb128 0xe
 1802 00fe 3A       		.uleb128 0x3a
 1803 00ff 0B       		.uleb128 0xb
 1804 0100 3B       		.uleb128 0x3b
 1805 0101 0B       		.uleb128 0xb
 1806 0102 27       		.uleb128 0x27
 1807 0103 19       		.uleb128 0x19
ARM GAS  /tmp/ccmDnA3i.s 			page 33


 1808 0104 11       		.uleb128 0x11
 1809 0105 01       		.uleb128 0x1
 1810 0106 12       		.uleb128 0x12
 1811 0107 06       		.uleb128 0x6
 1812 0108 40       		.uleb128 0x40
 1813 0109 18       		.uleb128 0x18
 1814 010a 9742     		.uleb128 0x2117
 1815 010c 19       		.uleb128 0x19
 1816 010d 01       		.uleb128 0x1
 1817 010e 13       		.uleb128 0x13
 1818 010f 00       		.byte	0
 1819 0110 00       		.byte	0
 1820 0111 17       		.uleb128 0x17
 1821 0112 1D       		.uleb128 0x1d
 1822 0113 01       		.byte	0x1
 1823 0114 31       		.uleb128 0x31
 1824 0115 13       		.uleb128 0x13
 1825 0116 52       		.uleb128 0x52
 1826 0117 01       		.uleb128 0x1
 1827 0118 55       		.uleb128 0x55
 1828 0119 17       		.uleb128 0x17
 1829 011a 58       		.uleb128 0x58
 1830 011b 0B       		.uleb128 0xb
 1831 011c 59       		.uleb128 0x59
 1832 011d 0B       		.uleb128 0xb
 1833 011e 01       		.uleb128 0x1
 1834 011f 13       		.uleb128 0x13
 1835 0120 00       		.byte	0
 1836 0121 00       		.byte	0
 1837 0122 18       		.uleb128 0x18
 1838 0123 05       		.uleb128 0x5
 1839 0124 00       		.byte	0
 1840 0125 31       		.uleb128 0x31
 1841 0126 13       		.uleb128 0x13
 1842 0127 02       		.uleb128 0x2
 1843 0128 18       		.uleb128 0x18
 1844 0129 00       		.byte	0
 1845 012a 00       		.byte	0
 1846 012b 19       		.uleb128 0x19
 1847 012c 0B       		.uleb128 0xb
 1848 012d 01       		.byte	0x1
 1849 012e 55       		.uleb128 0x55
 1850 012f 17       		.uleb128 0x17
 1851 0130 00       		.byte	0
 1852 0131 00       		.byte	0
 1853 0132 1A       		.uleb128 0x1a
 1854 0133 34       		.uleb128 0x34
 1855 0134 00       		.byte	0
 1856 0135 31       		.uleb128 0x31
 1857 0136 13       		.uleb128 0x13
 1858 0137 02       		.uleb128 0x2
 1859 0138 17       		.uleb128 0x17
 1860 0139 00       		.byte	0
 1861 013a 00       		.byte	0
 1862 013b 1B       		.uleb128 0x1b
 1863 013c 898201   		.uleb128 0x4109
 1864 013f 01       		.byte	0x1
ARM GAS  /tmp/ccmDnA3i.s 			page 34


 1865 0140 11       		.uleb128 0x11
 1866 0141 01       		.uleb128 0x1
 1867 0142 01       		.uleb128 0x1
 1868 0143 13       		.uleb128 0x13
 1869 0144 00       		.byte	0
 1870 0145 00       		.byte	0
 1871 0146 1C       		.uleb128 0x1c
 1872 0147 8A8201   		.uleb128 0x410a
 1873 014a 00       		.byte	0
 1874 014b 02       		.uleb128 0x2
 1875 014c 18       		.uleb128 0x18
 1876 014d 9142     		.uleb128 0x2111
 1877 014f 18       		.uleb128 0x18
 1878 0150 00       		.byte	0
 1879 0151 00       		.byte	0
 1880 0152 1D       		.uleb128 0x1d
 1881 0153 898201   		.uleb128 0x4109
 1882 0156 01       		.byte	0x1
 1883 0157 11       		.uleb128 0x11
 1884 0158 01       		.uleb128 0x1
 1885 0159 00       		.byte	0
 1886 015a 00       		.byte	0
 1887 015b 1E       		.uleb128 0x1e
 1888 015c 898201   		.uleb128 0x4109
 1889 015f 00       		.byte	0
 1890 0160 11       		.uleb128 0x11
 1891 0161 01       		.uleb128 0x1
 1892 0162 9542     		.uleb128 0x2115
 1893 0164 19       		.uleb128 0x19
 1894 0165 31       		.uleb128 0x31
 1895 0166 13       		.uleb128 0x13
 1896 0167 00       		.byte	0
 1897 0168 00       		.byte	0
 1898 0169 1F       		.uleb128 0x1f
 1899 016a 2E       		.uleb128 0x2e
 1900 016b 01       		.byte	0x1
 1901 016c 3F       		.uleb128 0x3f
 1902 016d 19       		.uleb128 0x19
 1903 016e 03       		.uleb128 0x3
 1904 016f 0E       		.uleb128 0xe
 1905 0170 3A       		.uleb128 0x3a
 1906 0171 0B       		.uleb128 0xb
 1907 0172 3B       		.uleb128 0x3b
 1908 0173 05       		.uleb128 0x5
 1909 0174 27       		.uleb128 0x27
 1910 0175 19       		.uleb128 0x19
 1911 0176 11       		.uleb128 0x11
 1912 0177 01       		.uleb128 0x1
 1913 0178 12       		.uleb128 0x12
 1914 0179 06       		.uleb128 0x6
 1915 017a 40       		.uleb128 0x40
 1916 017b 18       		.uleb128 0x18
 1917 017c 9742     		.uleb128 0x2117
 1918 017e 19       		.uleb128 0x19
 1919 017f 01       		.uleb128 0x1
 1920 0180 13       		.uleb128 0x13
 1921 0181 00       		.byte	0
ARM GAS  /tmp/ccmDnA3i.s 			page 35


 1922 0182 00       		.byte	0
 1923 0183 20       		.uleb128 0x20
 1924 0184 898201   		.uleb128 0x4109
 1925 0187 01       		.byte	0x1
 1926 0188 11       		.uleb128 0x11
 1927 0189 01       		.uleb128 0x1
 1928 018a 31       		.uleb128 0x31
 1929 018b 13       		.uleb128 0x13
 1930 018c 00       		.byte	0
 1931 018d 00       		.byte	0
 1932 018e 21       		.uleb128 0x21
 1933 018f 05       		.uleb128 0x5
 1934 0190 00       		.byte	0
 1935 0191 03       		.uleb128 0x3
 1936 0192 0E       		.uleb128 0xe
 1937 0193 3A       		.uleb128 0x3a
 1938 0194 0B       		.uleb128 0xb
 1939 0195 3B       		.uleb128 0x3b
 1940 0196 05       		.uleb128 0x5
 1941 0197 49       		.uleb128 0x49
 1942 0198 13       		.uleb128 0x13
 1943 0199 02       		.uleb128 0x2
 1944 019a 17       		.uleb128 0x17
 1945 019b 00       		.byte	0
 1946 019c 00       		.byte	0
 1947 019d 22       		.uleb128 0x22
 1948 019e 34       		.uleb128 0x34
 1949 019f 00       		.byte	0
 1950 01a0 03       		.uleb128 0x3
 1951 01a1 08       		.uleb128 0x8
 1952 01a2 3A       		.uleb128 0x3a
 1953 01a3 0B       		.uleb128 0xb
 1954 01a4 3B       		.uleb128 0x3b
 1955 01a5 05       		.uleb128 0x5
 1956 01a6 49       		.uleb128 0x49
 1957 01a7 13       		.uleb128 0x13
 1958 01a8 02       		.uleb128 0x2
 1959 01a9 17       		.uleb128 0x17
 1960 01aa 00       		.byte	0
 1961 01ab 00       		.byte	0
 1962 01ac 23       		.uleb128 0x23
 1963 01ad 34       		.uleb128 0x34
 1964 01ae 00       		.byte	0
 1965 01af 03       		.uleb128 0x3
 1966 01b0 0E       		.uleb128 0xe
 1967 01b1 3A       		.uleb128 0x3a
 1968 01b2 0B       		.uleb128 0xb
 1969 01b3 3B       		.uleb128 0x3b
 1970 01b4 05       		.uleb128 0x5
 1971 01b5 49       		.uleb128 0x49
 1972 01b6 13       		.uleb128 0x13
 1973 01b7 02       		.uleb128 0x2
 1974 01b8 17       		.uleb128 0x17
 1975 01b9 00       		.byte	0
 1976 01ba 00       		.byte	0
 1977 01bb 24       		.uleb128 0x24
 1978 01bc 898201   		.uleb128 0x4109
ARM GAS  /tmp/ccmDnA3i.s 			page 36


 1979 01bf 01       		.byte	0x1
 1980 01c0 11       		.uleb128 0x11
 1981 01c1 01       		.uleb128 0x1
 1982 01c2 31       		.uleb128 0x31
 1983 01c3 13       		.uleb128 0x13
 1984 01c4 01       		.uleb128 0x1
 1985 01c5 13       		.uleb128 0x13
 1986 01c6 00       		.byte	0
 1987 01c7 00       		.byte	0
 1988 01c8 25       		.uleb128 0x25
 1989 01c9 0B       		.uleb128 0xb
 1990 01ca 01       		.byte	0x1
 1991 01cb 11       		.uleb128 0x11
 1992 01cc 01       		.uleb128 0x1
 1993 01cd 12       		.uleb128 0x12
 1994 01ce 06       		.uleb128 0x6
 1995 01cf 00       		.byte	0
 1996 01d0 00       		.byte	0
 1997 01d1 26       		.uleb128 0x26
 1998 01d2 34       		.uleb128 0x34
 1999 01d3 00       		.byte	0
 2000 01d4 03       		.uleb128 0x3
 2001 01d5 0E       		.uleb128 0xe
 2002 01d6 3A       		.uleb128 0x3a
 2003 01d7 0B       		.uleb128 0xb
 2004 01d8 3B       		.uleb128 0x3b
 2005 01d9 05       		.uleb128 0x5
 2006 01da 49       		.uleb128 0x49
 2007 01db 13       		.uleb128 0x13
 2008 01dc 3F       		.uleb128 0x3f
 2009 01dd 19       		.uleb128 0x19
 2010 01de 3C       		.uleb128 0x3c
 2011 01df 19       		.uleb128 0x19
 2012 01e0 00       		.byte	0
 2013 01e1 00       		.byte	0
 2014 01e2 27       		.uleb128 0x27
 2015 01e3 34       		.uleb128 0x34
 2016 01e4 00       		.byte	0
 2017 01e5 03       		.uleb128 0x3
 2018 01e6 0E       		.uleb128 0xe
 2019 01e7 3A       		.uleb128 0x3a
 2020 01e8 0B       		.uleb128 0xb
 2021 01e9 3B       		.uleb128 0x3b
 2022 01ea 0B       		.uleb128 0xb
 2023 01eb 49       		.uleb128 0x49
 2024 01ec 13       		.uleb128 0x13
 2025 01ed 3F       		.uleb128 0x3f
 2026 01ee 19       		.uleb128 0x19
 2027 01ef 02       		.uleb128 0x2
 2028 01f0 18       		.uleb128 0x18
 2029 01f1 00       		.byte	0
 2030 01f2 00       		.byte	0
 2031 01f3 28       		.uleb128 0x28
 2032 01f4 2E       		.uleb128 0x2e
 2033 01f5 00       		.byte	0
 2034 01f6 3F       		.uleb128 0x3f
 2035 01f7 19       		.uleb128 0x19
ARM GAS  /tmp/ccmDnA3i.s 			page 37


 2036 01f8 03       		.uleb128 0x3
 2037 01f9 0E       		.uleb128 0xe
 2038 01fa 3A       		.uleb128 0x3a
 2039 01fb 0B       		.uleb128 0xb
 2040 01fc 3B       		.uleb128 0x3b
 2041 01fd 05       		.uleb128 0x5
 2042 01fe 27       		.uleb128 0x27
 2043 01ff 19       		.uleb128 0x19
 2044 0200 3C       		.uleb128 0x3c
 2045 0201 19       		.uleb128 0x19
 2046 0202 00       		.byte	0
 2047 0203 00       		.byte	0
 2048 0204 29       		.uleb128 0x29
 2049 0205 2E       		.uleb128 0x2e
 2050 0206 01       		.byte	0x1
 2051 0207 3F       		.uleb128 0x3f
 2052 0208 19       		.uleb128 0x19
 2053 0209 03       		.uleb128 0x3
 2054 020a 0E       		.uleb128 0xe
 2055 020b 3A       		.uleb128 0x3a
 2056 020c 0B       		.uleb128 0xb
 2057 020d 3B       		.uleb128 0x3b
 2058 020e 0B       		.uleb128 0xb
 2059 020f 27       		.uleb128 0x27
 2060 0210 19       		.uleb128 0x19
 2061 0211 3C       		.uleb128 0x3c
 2062 0212 19       		.uleb128 0x19
 2063 0213 01       		.uleb128 0x1
 2064 0214 13       		.uleb128 0x13
 2065 0215 00       		.byte	0
 2066 0216 00       		.byte	0
 2067 0217 2A       		.uleb128 0x2a
 2068 0218 2E       		.uleb128 0x2e
 2069 0219 01       		.byte	0x1
 2070 021a 3F       		.uleb128 0x3f
 2071 021b 19       		.uleb128 0x19
 2072 021c 03       		.uleb128 0x3
 2073 021d 0E       		.uleb128 0xe
 2074 021e 3A       		.uleb128 0x3a
 2075 021f 0B       		.uleb128 0xb
 2076 0220 3B       		.uleb128 0x3b
 2077 0221 05       		.uleb128 0x5
 2078 0222 27       		.uleb128 0x27
 2079 0223 19       		.uleb128 0x19
 2080 0224 3C       		.uleb128 0x3c
 2081 0225 19       		.uleb128 0x19
 2082 0226 01       		.uleb128 0x1
 2083 0227 13       		.uleb128 0x13
 2084 0228 00       		.byte	0
 2085 0229 00       		.byte	0
 2086 022a 2B       		.uleb128 0x2b
 2087 022b 2E       		.uleb128 0x2e
 2088 022c 01       		.byte	0x1
 2089 022d 3F       		.uleb128 0x3f
 2090 022e 19       		.uleb128 0x19
 2091 022f 03       		.uleb128 0x3
 2092 0230 0E       		.uleb128 0xe
ARM GAS  /tmp/ccmDnA3i.s 			page 38


 2093 0231 3A       		.uleb128 0x3a
 2094 0232 0B       		.uleb128 0xb
 2095 0233 3B       		.uleb128 0x3b
 2096 0234 05       		.uleb128 0x5
 2097 0235 27       		.uleb128 0x27
 2098 0236 19       		.uleb128 0x19
 2099 0237 3C       		.uleb128 0x3c
 2100 0238 19       		.uleb128 0x19
 2101 0239 00       		.byte	0
 2102 023a 00       		.byte	0
 2103 023b 00       		.byte	0
 2104              		.section	.debug_loc,"",%progbits
 2105              	.Ldebug_loc0:
 2106              	.LLST0:
 2107 0000 08000000 		.4byte	.LVL1
 2108 0004 0E000000 		.4byte	.LVL2
 2109 0008 0100     		.2byte	0x1
 2110 000a 52       		.byte	0x52
 2111 000b 0E000000 		.4byte	.LVL2
 2112 000f 34000000 		.4byte	.LVL4
 2113 0013 0600     		.2byte	0x6
 2114 0015 74       		.byte	0x74
 2115 0016 00       		.sleb128 0
 2116 0017 08       		.byte	0x8
 2117 0018 FF       		.byte	0xff
 2118 0019 1A       		.byte	0x1a
 2119 001a 9F       		.byte	0x9f
 2120 001b 38000000 		.4byte	.LVL5
 2121 001f 64000000 		.4byte	.LFE112
 2122 0023 0600     		.2byte	0x6
 2123 0025 74       		.byte	0x74
 2124 0026 00       		.sleb128 0
 2125 0027 08       		.byte	0x8
 2126 0028 FF       		.byte	0xff
 2127 0029 1A       		.byte	0x1a
 2128 002a 9F       		.byte	0x9f
 2129 002b 00000000 		.4byte	0
 2130 002f 00000000 		.4byte	0
 2131              	.LLST1:
 2132 0033 00000000 		.4byte	.LVL11
 2133 0037 10000000 		.4byte	.LVL12
 2134 003b 0100     		.2byte	0x1
 2135 003d 50       		.byte	0x50
 2136 003e 10000000 		.4byte	.LVL12
 2137 0042 4A000000 		.4byte	.LVL15
 2138 0046 0100     		.2byte	0x1
 2139 0048 54       		.byte	0x54
 2140 0049 4A000000 		.4byte	.LVL15
 2141 004d D0000000 		.4byte	.LVL29
 2142 0051 0400     		.2byte	0x4
 2143 0053 F3       		.byte	0xf3
 2144 0054 01       		.uleb128 0x1
 2145 0055 50       		.byte	0x50
 2146 0056 9F       		.byte	0x9f
 2147 0057 D0000000 		.4byte	.LVL29
 2148 005b D6000000 		.4byte	.LVL30
 2149 005f 0100     		.2byte	0x1
ARM GAS  /tmp/ccmDnA3i.s 			page 39


 2150 0061 50       		.byte	0x50
 2151 0062 D6000000 		.4byte	.LVL30
 2152 0066 E4000000 		.4byte	.LVL31
 2153 006a 0100     		.2byte	0x1
 2154 006c 54       		.byte	0x54
 2155 006d E4000000 		.4byte	.LVL31
 2156 0071 FA000000 		.4byte	.LVL32
 2157 0075 0100     		.2byte	0x1
 2158 0077 50       		.byte	0x50
 2159 0078 FA000000 		.4byte	.LVL32
 2160 007c 18010000 		.4byte	.LFE114
 2161 0080 0100     		.2byte	0x1
 2162 0082 54       		.byte	0x54
 2163 0083 00000000 		.4byte	0
 2164 0087 00000000 		.4byte	0
 2165              	.LLST2:
 2166 008b 30000000 		.4byte	.LVL13
 2167 008f 58000000 		.4byte	.LVL16
 2168 0093 0100     		.2byte	0x1
 2169 0095 55       		.byte	0x55
 2170 0096 00000000 		.4byte	0
 2171 009a 00000000 		.4byte	0
 2172              	.LLST3:
 2173 009e 60000000 		.4byte	.LVL17
 2174 00a2 6A000000 		.4byte	.LVL18
 2175 00a6 0200     		.2byte	0x2
 2176 00a8 30       		.byte	0x30
 2177 00a9 9F       		.byte	0x9f
 2178 00aa 6A000000 		.4byte	.LVL18
 2179 00ae A8000000 		.4byte	.LVL23
 2180 00b2 0100     		.2byte	0x1
 2181 00b4 51       		.byte	0x51
 2182 00b5 BC000000 		.4byte	.LVL24
 2183 00b9 D0000000 		.4byte	.LVL29
 2184 00bd 0100     		.2byte	0x1
 2185 00bf 51       		.byte	0x51
 2186 00c0 00000000 		.4byte	0
 2187 00c4 00000000 		.4byte	0
 2188              	.LLST4:
 2189 00c8 00000000 		.4byte	.LVL34
 2190 00cc 08000000 		.4byte	.LVL35
 2191 00d0 0100     		.2byte	0x1
 2192 00d2 50       		.byte	0x50
 2193 00d3 08000000 		.4byte	.LVL35
 2194 00d7 0A000000 		.4byte	.LVL36
 2195 00db 0400     		.2byte	0x4
 2196 00dd F3       		.byte	0xf3
 2197 00de 01       		.uleb128 0x1
 2198 00df 50       		.byte	0x50
 2199 00e0 9F       		.byte	0x9f
 2200 00e1 0A000000 		.4byte	.LVL36
 2201 00e5 1C000000 		.4byte	.LVL37
 2202 00e9 0100     		.2byte	0x1
 2203 00eb 50       		.byte	0x50
 2204 00ec 1C000000 		.4byte	.LVL37
 2205 00f0 34000000 		.4byte	.LFE115
 2206 00f4 0400     		.2byte	0x4
ARM GAS  /tmp/ccmDnA3i.s 			page 40


 2207 00f6 F3       		.byte	0xf3
 2208 00f7 01       		.uleb128 0x1
 2209 00f8 50       		.byte	0x50
 2210 00f9 9F       		.byte	0x9f
 2211 00fa 00000000 		.4byte	0
 2212 00fe 00000000 		.4byte	0
 2213              	.LLST5:
 2214 0102 00000000 		.4byte	.LVL39
 2215 0106 0A000000 		.4byte	.LVL40
 2216 010a 0100     		.2byte	0x1
 2217 010c 50       		.byte	0x50
 2218 010d 0A000000 		.4byte	.LVL40
 2219 0111 32000000 		.4byte	.LFE116
 2220 0115 0400     		.2byte	0x4
 2221 0117 F3       		.byte	0xf3
 2222 0118 01       		.uleb128 0x1
 2223 0119 50       		.byte	0x50
 2224 011a 9F       		.byte	0x9f
 2225 011b 00000000 		.4byte	0
 2226 011f 00000000 		.4byte	0
 2227              	.LLST6:
 2228 0123 00000000 		.4byte	.LVL39
 2229 0127 20000000 		.4byte	.LVL42
 2230 012b 0100     		.2byte	0x1
 2231 012d 51       		.byte	0x51
 2232 012e 20000000 		.4byte	.LVL42
 2233 0132 32000000 		.4byte	.LFE116
 2234 0136 0400     		.2byte	0x4
 2235 0138 F3       		.byte	0xf3
 2236 0139 01       		.uleb128 0x1
 2237 013a 51       		.byte	0x51
 2238 013b 9F       		.byte	0x9f
 2239 013c 00000000 		.4byte	0
 2240 0140 00000000 		.4byte	0
 2241              	.LLST7:
 2242 0144 00000000 		.4byte	.LVL39
 2243 0148 1C000000 		.4byte	.LVL41
 2244 014c 0100     		.2byte	0x1
 2245 014e 52       		.byte	0x52
 2246 014f 1C000000 		.4byte	.LVL41
 2247 0153 32000000 		.4byte	.LFE116
 2248 0157 0400     		.2byte	0x4
 2249 0159 F3       		.byte	0xf3
 2250 015a 01       		.uleb128 0x1
 2251 015b 52       		.byte	0x52
 2252 015c 9F       		.byte	0x9f
 2253 015d 00000000 		.4byte	0
 2254 0161 00000000 		.4byte	0
 2255              	.LLST8:
 2256 0165 1C000000 		.4byte	.LVL41
 2257 0169 26000000 		.4byte	.LVL43
 2258 016d 0100     		.2byte	0x1
 2259 016f 52       		.byte	0x52
 2260 0170 00000000 		.4byte	0
 2261 0174 00000000 		.4byte	0
 2262              	.LLST9:
 2263 0178 00000000 		.4byte	.LVL44
ARM GAS  /tmp/ccmDnA3i.s 			page 41


 2264 017c 0C000000 		.4byte	.LVL45
 2265 0180 0100     		.2byte	0x1
 2266 0182 50       		.byte	0x50
 2267 0183 0C000000 		.4byte	.LVL45
 2268 0187 1E000000 		.4byte	.LFE117
 2269 018b 0400     		.2byte	0x4
 2270 018d F3       		.byte	0xf3
 2271 018e 01       		.uleb128 0x1
 2272 018f 50       		.byte	0x50
 2273 0190 9F       		.byte	0x9f
 2274 0191 00000000 		.4byte	0
 2275 0195 00000000 		.4byte	0
 2276              	.LLST10:
 2277 0199 00000000 		.4byte	.LVL44
 2278 019d 16000000 		.4byte	.LVL46
 2279 01a1 0100     		.2byte	0x1
 2280 01a3 51       		.byte	0x51
 2281 01a4 16000000 		.4byte	.LVL46
 2282 01a8 1E000000 		.4byte	.LFE117
 2283 01ac 0400     		.2byte	0x4
 2284 01ae F3       		.byte	0xf3
 2285 01af 01       		.uleb128 0x1
 2286 01b0 51       		.byte	0x51
 2287 01b1 9F       		.byte	0x9f
 2288 01b2 00000000 		.4byte	0
 2289 01b6 00000000 		.4byte	0
 2290              		.section	.debug_aranges,"",%progbits
 2291 0000 44000000 		.4byte	0x44
 2292 0004 0200     		.2byte	0x2
 2293 0006 00000000 		.4byte	.Ldebug_info0
 2294 000a 04       		.byte	0x4
 2295 000b 00       		.byte	0
 2296 000c 0000     		.2byte	0
 2297 000e 0000     		.2byte	0
 2298 0010 00000000 		.4byte	.LFB112
 2299 0014 64000000 		.4byte	.LFE112-.LFB112
 2300 0018 00000000 		.4byte	.LFB113
 2301 001c 18000000 		.4byte	.LFE113-.LFB113
 2302 0020 00000000 		.4byte	.LFB114
 2303 0024 18010000 		.4byte	.LFE114-.LFB114
 2304 0028 00000000 		.4byte	.LFB115
 2305 002c 34000000 		.4byte	.LFE115-.LFB115
 2306 0030 00000000 		.4byte	.LFB116
 2307 0034 32000000 		.4byte	.LFE116-.LFB116
 2308 0038 00000000 		.4byte	.LFB117
 2309 003c 1E000000 		.4byte	.LFE117-.LFB117
 2310 0040 00000000 		.4byte	0
 2311 0044 00000000 		.4byte	0
 2312              		.section	.debug_ranges,"",%progbits
 2313              	.Ldebug_ranges0:
 2314 0000 02000000 		.4byte	.LBB4
 2315 0004 30000000 		.4byte	.LBE4
 2316 0008 38000000 		.4byte	.LBB7
 2317 000c 64000000 		.4byte	.LBE7
 2318 0010 00000000 		.4byte	0
 2319 0014 00000000 		.4byte	0
 2320 0018 00000000 		.4byte	.LFB112
ARM GAS  /tmp/ccmDnA3i.s 			page 42


 2321 001c 64000000 		.4byte	.LFE112
 2322 0020 00000000 		.4byte	.LFB113
 2323 0024 18000000 		.4byte	.LFE113
 2324 0028 00000000 		.4byte	.LFB114
 2325 002c 18010000 		.4byte	.LFE114
 2326 0030 00000000 		.4byte	.LFB115
 2327 0034 34000000 		.4byte	.LFE115
 2328 0038 00000000 		.4byte	.LFB116
 2329 003c 32000000 		.4byte	.LFE116
 2330 0040 00000000 		.4byte	.LFB117
 2331 0044 1E000000 		.4byte	.LFE117
 2332 0048 00000000 		.4byte	0
 2333 004c 00000000 		.4byte	0
 2334              		.section	.debug_line,"",%progbits
 2335              	.Ldebug_line0:
 2336 0000 CB020000 		.section	.debug_str,"MS",%progbits,1
 2336      0200C201 
 2336      00000201 
 2336      FB0E0D00 
 2336      01010101 
 2337              	.LASF36:
 2338 0000 41484231 		.ascii	"AHB1LPENR\000"
 2338      4C50454E 
 2338      5200
 2339              	.LASF54:
 2340 000a 43434552 		.ascii	"CCER\000"
 2340      00
 2341              	.LASF85:
 2342 000f 70776D5F 		.ascii	"pwm_lld_stop\000"
 2342      6C6C645F 
 2342      73746F70 
 2342      00
 2343              	.LASF26:
 2344 001c 41504231 		.ascii	"APB1RSTR\000"
 2344      52535452 
 2344      00
 2345              	.LASF30:
 2346 0025 41484232 		.ascii	"AHB2ENR\000"
 2346      454E5200 
 2347              	.LASF56:
 2348 002d 444D4152 		.ascii	"DMAR\000"
 2348      00
 2349              	.LASF66:
 2350 0032 73746174 		.ascii	"state\000"
 2350      6500
 2351              	.LASF53:
 2352 0038 43434D52 		.ascii	"CCMR2\000"
 2352      3200
 2353              	.LASF3:
 2354 003e 73686F72 		.ascii	"short int\000"
 2354      7420696E 
 2354      7400
 2355              	.LASF73:
 2356 0048 70776D63 		.ascii	"pwmcnt_t\000"
 2356      6E745F74 
 2356      00
 2357              	.LASF18:
ARM GAS  /tmp/ccmDnA3i.s 			page 43


 2358 0051 73697A65 		.ascii	"sizetype\000"
 2358      74797065 
 2358      00
 2359              	.LASF43:
 2360 005a 42444352 		.ascii	"BDCR\000"
 2360      00
 2361              	.LASF46:
 2362 005f 504C4C49 		.ascii	"PLLI2SCFGR\000"
 2362      32534346 
 2362      475200
 2363              	.LASF99:
 2364 006a 70776D5F 		.ascii	"pwm_lld_serve_interrupt\000"
 2364      6C6C645F 
 2364      73657276 
 2364      655F696E 
 2364      74657272 
 2365              	.LASF72:
 2366 0082 70776D63 		.ascii	"pwmchannel_t\000"
 2366      68616E6E 
 2366      656C5F74 
 2366      00
 2367              	.LASF9:
 2368 008f 5F5F7569 		.ascii	"__uint32_t\000"
 2368      6E743332 
 2368      5F7400
 2369              	.LASF74:
 2370 009a 6D6F6465 		.ascii	"mode\000"
 2370      00
 2371              	.LASF5:
 2372 009f 5F5F7569 		.ascii	"__uint16_t\000"
 2372      6E743136 
 2372      5F7400
 2373              	.LASF45:
 2374 00aa 53534347 		.ascii	"SSCGR\000"
 2374      5200
 2375              	.LASF97:
 2376 00b0 2E2E2F2E 		.ascii	"../../os/hal/platforms/STM32/TIMv1/pwm_lld.c\000"
 2376      2E2F6F73 
 2376      2F68616C 
 2376      2F706C61 
 2376      74666F72 
 2377              	.LASF22:
 2378 00dd 41484231 		.ascii	"AHB1RSTR\000"
 2378      52535452 
 2378      00
 2379              	.LASF67:
 2380 00e6 636F6E66 		.ascii	"config\000"
 2380      696700
 2381              	.LASF21:
 2382 00ed 43464752 		.ascii	"CFGR\000"
 2382      00
 2383              	.LASF38:
 2384 00f2 41484233 		.ascii	"AHB3LPENR\000"
 2384      4C50454E 
 2384      5200
 2385              	.LASF93:
 2386 00fc 70776D4F 		.ascii	"pwmObjectInit\000"
ARM GAS  /tmp/ccmDnA3i.s 			page 44


 2386      626A6563 
 2386      74496E69 
 2386      7400
 2387              	.LASF13:
 2388 010a 75696E74 		.ascii	"uint8_t\000"
 2388      385F7400 
 2389              	.LASF33:
 2390 0112 41504231 		.ascii	"APB1ENR\000"
 2390      454E5200 
 2391              	.LASF16:
 2392 011a 75696E74 		.ascii	"uint32_t\000"
 2392      33325F74 
 2392      00
 2393              	.LASF84:
 2394 0123 63636572 		.ascii	"ccer\000"
 2394      00
 2395              	.LASF48:
 2396 0128 44434B43 		.ascii	"DCKCFGR\000"
 2396      46475200 
 2397              	.LASF89:
 2398 0130 77696474 		.ascii	"width\000"
 2398      6800
 2399              	.LASF31:
 2400 0136 41484233 		.ascii	"AHB3ENR\000"
 2400      454E5200 
 2401              	.LASF49:
 2402 013e 5243435F 		.ascii	"RCC_TypeDef\000"
 2402      54797065 
 2402      44656600 
 2403              	.LASF100:
 2404 014a 5F706F72 		.ascii	"_port_irq_epilogue\000"
 2404      745F6972 
 2404      715F6570 
 2404      696C6F67 
 2404      756500
 2405              	.LASF11:
 2406 015d 6C6F6E67 		.ascii	"long long int\000"
 2406      206C6F6E 
 2406      6720696E 
 2406      7400
 2407              	.LASF8:
 2408 016b 6C6F6E67 		.ascii	"long int\000"
 2408      20696E74 
 2408      00
 2409              	.LASF101:
 2410 0174 6E766963 		.ascii	"nvicDisableVector\000"
 2410      44697361 
 2410      626C6556 
 2410      6563746F 
 2410      7200
 2411              	.LASF58:
 2412 0186 43435235 		.ascii	"CCR5\000"
 2412      00
 2413              	.LASF59:
 2414 018b 43435236 		.ascii	"CCR6\000"
 2414      00
 2415              	.LASF10:
ARM GAS  /tmp/ccmDnA3i.s 			page 45


 2416 0190 6C6F6E67 		.ascii	"long unsigned int\000"
 2416      20756E73 
 2416      69676E65 
 2416      6420696E 
 2416      7400
 2417              	.LASF68:
 2418 01a2 70657269 		.ascii	"period\000"
 2418      6F6400
 2419              	.LASF27:
 2420 01a9 41504232 		.ascii	"APB2RSTR\000"
 2420      52535452 
 2420      00
 2421              	.LASF4:
 2422 01b2 5F5F7569 		.ascii	"__uint8_t\000"
 2422      6E74385F 
 2422      7400
 2423              	.LASF52:
 2424 01bc 43434D52 		.ascii	"CCMR1\000"
 2424      3100
 2425              	.LASF83:
 2426 01c2 70776D5F 		.ascii	"pwm_lld_start\000"
 2426      6C6C645F 
 2426      73746172 
 2426      7400
 2427              	.LASF81:
 2428 01d0 56656374 		.ascii	"VectorB4\000"
 2428      6F724234 
 2428      00
 2429              	.LASF57:
 2430 01d9 43434D52 		.ascii	"CCMR3\000"
 2430      3300
 2431              	.LASF94:
 2432 01df 63684462 		.ascii	"chDbgPanic\000"
 2432      6750616E 
 2432      696300
 2433              	.LASF86:
 2434 01ea 70776D70 		.ascii	"pwmp\000"
 2434      00
 2435              	.LASF50:
 2436 01ef 534D4352 		.ascii	"SMCR\000"
 2436      00
 2437              	.LASF61:
 2438 01f4 50574D5F 		.ascii	"PWM_UNINIT\000"
 2438      554E494E 
 2438      495400
 2439              	.LASF2:
 2440 01ff 756E7369 		.ascii	"unsigned char\000"
 2440      676E6564 
 2440      20636861 
 2440      7200
 2441              	.LASF87:
 2442 020d 70776D5F 		.ascii	"pwm_lld_enable_channel\000"
 2442      6C6C645F 
 2442      656E6162 
 2442      6C655F63 
 2442      68616E6E 
 2443              	.LASF55:
ARM GAS  /tmp/ccmDnA3i.s 			page 46


 2444 0224 42445452 		.ascii	"BDTR\000"
 2444      00
 2445              	.LASF34:
 2446 0229 41504232 		.ascii	"APB2ENR\000"
 2446      454E5200 
 2447              	.LASF95:
 2448 0231 6E766963 		.ascii	"nvicEnableVector\000"
 2448      456E6162 
 2448      6C655665 
 2448      63746F72 
 2448      00
 2449              	.LASF1:
 2450 0242 7369676E 		.ascii	"signed char\000"
 2450      65642063 
 2450      68617200 
 2451              	.LASF12:
 2452 024e 6C6F6E67 		.ascii	"long long unsigned int\000"
 2452      206C6F6E 
 2452      6720756E 
 2452      7369676E 
 2452      65642069 
 2453              	.LASF98:
 2454 0265 2F686F6D 		.ascii	"/home/makkmarci/devel/ChibiOS_2.6.5/projects/STM32F"
 2454      652F6D61 
 2454      6B6B6D61 
 2454      7263692F 
 2454      64657665 
 2455 0298 345F4368 		.ascii	"4_ChibiOS_uGFX_gwin_2/\000"
 2455      6962694F 
 2455      535F7547 
 2455      46585F67 
 2455      77696E5F 
 2456              	.LASF0:
 2457 02af 756E7369 		.ascii	"unsigned int\000"
 2457      676E6564 
 2457      20696E74 
 2457      00
 2458              	.LASF23:
 2459 02bc 41484232 		.ascii	"AHB2RSTR\000"
 2459      52535452 
 2459      00
 2460              	.LASF14:
 2461 02c5 75696E74 		.ascii	"uint16_t\000"
 2461      31365F74 
 2461      00
 2462              	.LASF80:
 2463 02ce 50574D43 		.ascii	"PWMConfig\000"
 2463      6F6E6669 
 2463      6700
 2464              	.LASF51:
 2465 02d8 44494552 		.ascii	"DIER\000"
 2465      00
 2466              	.LASF20:
 2467 02dd 504C4C43 		.ascii	"PLLCFGR\000"
 2467      46475200 
 2468              	.LASF6:
 2469 02e5 73686F72 		.ascii	"short unsigned int\000"
ARM GAS  /tmp/ccmDnA3i.s 			page 47


 2469      7420756E 
 2469      7369676E 
 2469      65642069 
 2469      6E7400
 2470              	.LASF40:
 2471 02f8 41504231 		.ascii	"APB1LPENR\000"
 2471      4C50454E 
 2471      5200
 2472              	.LASF82:
 2473 0302 70776D5F 		.ascii	"pwm_lld_init\000"
 2473      6C6C645F 
 2473      696E6974 
 2473      00
 2474              	.LASF19:
 2475 030f 63686172 		.ascii	"char\000"
 2475      00
 2476              	.LASF60:
 2477 0314 73746D33 		.ascii	"stm32_tim_t\000"
 2477      325F7469 
 2477      6D5F7400 
 2478              	.LASF65:
 2479 0320 50574D44 		.ascii	"PWMDriver\000"
 2479      72697665 
 2479      7200
 2480              	.LASF15:
 2481 032a 696E7433 		.ascii	"int32_t\000"
 2481      325F7400 
 2482              	.LASF17:
 2483 0332 5F426F6F 		.ascii	"_Bool\000"
 2483      6C00
 2484              	.LASF88:
 2485 0338 6368616E 		.ascii	"channel\000"
 2485      6E656C00 
 2486              	.LASF37:
 2487 0340 41484232 		.ascii	"AHB2LPENR\000"
 2487      4C50454E 
 2487      5200
 2488              	.LASF25:
 2489 034a 52455345 		.ascii	"RESERVED0\000"
 2489      52564544 
 2489      3000
 2490              	.LASF28:
 2491 0354 52455345 		.ascii	"RESERVED1\000"
 2491      52564544 
 2491      3100
 2492              	.LASF32:
 2493 035e 52455345 		.ascii	"RESERVED2\000"
 2493      52564544 
 2493      3200
 2494              	.LASF35:
 2495 0368 52455345 		.ascii	"RESERVED3\000"
 2495      52564544 
 2495      3300
 2496              	.LASF39:
 2497 0372 52455345 		.ascii	"RESERVED4\000"
 2497      52564544 
 2497      3400
ARM GAS  /tmp/ccmDnA3i.s 			page 48


 2498              	.LASF42:
 2499 037c 52455345 		.ascii	"RESERVED5\000"
 2499      52564544 
 2499      3500
 2500              	.LASF44:
 2501 0386 52455345 		.ascii	"RESERVED6\000"
 2501      52564544 
 2501      3600
 2502              	.LASF69:
 2503 0390 636C6F63 		.ascii	"clock\000"
 2503      6B00
 2504              	.LASF29:
 2505 0396 41484231 		.ascii	"AHB1ENR\000"
 2505      454E5200 
 2506              	.LASF90:
 2507 039e 70776D5F 		.ascii	"pwm_lld_disable_channel\000"
 2507      6C6C645F 
 2507      64697361 
 2507      626C655F 
 2507      6368616E 
 2508              	.LASF78:
 2509 03b6 6368616E 		.ascii	"channels\000"
 2509      6E656C73 
 2509      00
 2510              	.LASF7:
 2511 03bf 5F5F696E 		.ascii	"__int32_t\000"
 2511      7433325F 
 2511      7400
 2512              	.LASF63:
 2513 03c9 50574D5F 		.ascii	"PWM_READY\000"
 2513      52454144 
 2513      5900
 2514              	.LASF62:
 2515 03d3 50574D5F 		.ascii	"PWM_STOP\000"
 2515      53544F50 
 2515      00
 2516              	.LASF96:
 2517 03dc 474E5520 		.ascii	"GNU C 4.8.4 20140526 (release) [ARM/embedded-4_8-br"
 2517      4320342E 
 2517      382E3420 
 2517      32303134 
 2517      30353236 
 2518 040f 616E6368 		.ascii	"anch revision 211358] -mcpu=cortex-m4 -mfloat-abi=h"
 2518      20726576 
 2518      6973696F 
 2518      6E203231 
 2518      31333538 
 2519 0442 61726420 		.ascii	"ard -mfpu=fpv4-sp-d16 -mno-thumb-interwork -mthumb "
 2519      2D6D6670 
 2519      753D6670 
 2519      76342D73 
 2519      702D6431 
 2520 0475 2D676764 		.ascii	"-ggdb -O2 -fomit-frame-pointer -falign-functions=16"
 2520      62202D4F 
 2520      32202D66 
 2520      6F6D6974 
 2520      2D667261 
ARM GAS  /tmp/ccmDnA3i.s 			page 49


 2521 04a8 202D6666 		.ascii	" -ffunction-sections -fdata-sections -fno-common -f"
 2521      756E6374 
 2521      696F6E2D 
 2521      73656374 
 2521      696F6E73 
 2522 04db 73696E67 		.ascii	"single-precision-constant\000"
 2522      6C652D70 
 2522      72656369 
 2522      73696F6E 
 2522      2D636F6E 
 2523              	.LASF79:
 2524 04f5 64696572 		.ascii	"dier\000"
 2524      00
 2525              	.LASF77:
 2526 04fa 66726571 		.ascii	"frequency\000"
 2526      75656E63 
 2526      7900
 2527              	.LASF76:
 2528 0504 50574D43 		.ascii	"PWMChannelConfig\000"
 2528      68616E6E 
 2528      656C436F 
 2528      6E666967 
 2528      00
 2529              	.LASF92:
 2530 0515 50574D44 		.ascii	"PWMD3\000"
 2530      3300
 2531              	.LASF24:
 2532 051b 41484233 		.ascii	"AHB3RSTR\000"
 2532      52535452 
 2532      00
 2533              	.LASF71:
 2534 0524 70776D6D 		.ascii	"pwmmode_t\000"
 2534      6F64655F 
 2534      7400
 2535              	.LASF91:
 2536 052e 49544D5F 		.ascii	"ITM_RxBuffer\000"
 2536      52784275 
 2536      66666572 
 2536      00
 2537              	.LASF47:
 2538 053b 504C4C53 		.ascii	"PLLSAICFGR\000"
 2538      41494346 
 2538      475200
 2539              	.LASF64:
 2540 0546 70776D73 		.ascii	"pwmstate_t\000"
 2540      74617465 
 2540      5F7400
 2541              	.LASF70:
 2542 0551 70776D63 		.ascii	"pwmcallback_t\000"
 2542      616C6C62 
 2542      61636B5F 
 2542      7400
 2543              	.LASF41:
 2544 055f 41504232 		.ascii	"APB2LPENR\000"
 2544      4C50454E 
 2544      5200
 2545              	.LASF75:
ARM GAS  /tmp/ccmDnA3i.s 			page 50


 2546 0569 63616C6C 		.ascii	"callback\000"
 2546      6261636B 
 2546      00
 2547              		.ident	"GCC: (GNU Tools for ARM Embedded Processors) 4.8.4 20140526 (release) [ARM/embedded-4_8-br
ARM GAS  /tmp/ccmDnA3i.s 			page 51


DEFINED SYMBOLS
                            *ABS*:00000000 pwm_lld.c
     /tmp/ccmDnA3i.s:21     .text.VectorB4:00000000 $t
     /tmp/ccmDnA3i.s:27     .text.VectorB4:00000000 VectorB4
     /tmp/ccmDnA3i.s:128    .text.VectorB4:00000060 $d
     /tmp/ccmDnA3i.s:135    .text.pwm_lld_init:00000000 $t
     /tmp/ccmDnA3i.s:141    .text.pwm_lld_init:00000000 pwm_lld_init
     /tmp/ccmDnA3i.s:163    .text.pwm_lld_init:00000010 $d
     /tmp/ccmDnA3i.s:169    .text.pwm_lld_start:00000000 $t
     /tmp/ccmDnA3i.s:175    .text.pwm_lld_start:00000000 pwm_lld_start
     /tmp/ccmDnA3i.s:401    .text.pwm_lld_start:00000108 $d
     /tmp/ccmDnA3i.s:409    .text.pwm_lld_stop:00000000 $t
     /tmp/ccmDnA3i.s:415    .text.pwm_lld_stop:00000000 pwm_lld_stop
     /tmp/ccmDnA3i.s:464    .text.pwm_lld_stop:0000002c $d
     /tmp/ccmDnA3i.s:470    .text.pwm_lld_enable_channel:00000000 $t
     /tmp/ccmDnA3i.s:476    .text.pwm_lld_enable_channel:00000000 pwm_lld_enable_channel
     /tmp/ccmDnA3i.s:532    .text.pwm_lld_disable_channel:00000000 $t
     /tmp/ccmDnA3i.s:538    .text.pwm_lld_disable_channel:00000000 pwm_lld_disable_channel
     /tmp/ccmDnA3i.s:570    .bss.PWMD3:00000000 PWMD3
     /tmp/ccmDnA3i.s:566    .bss.PWMD3:00000000 $d
     /tmp/ccmDnA3i.s:573    .rodata.str1.4:00000000 $d
                     .debug_frame:00000010 $d
     /tmp/ccmDnA3i.s:134    .text.VectorB4:00000064 $t
     /tmp/ccmDnA3i.s:168    .text.pwm_lld_init:00000018 $t
     /tmp/ccmDnA3i.s:408    .text.pwm_lld_start:00000118 $t
     /tmp/ccmDnA3i.s:469    .text.pwm_lld_stop:00000034 $t

UNDEFINED SYMBOLS
_port_irq_epilogue
pwmObjectInit
chDbgPanic
nvicEnableVector
nvicDisableVector
