ARM GAS  /tmp/ccJkDL6M.s 			page 1


   1              		.syntax unified
   2              		.cpu cortex-m4
   3              		.eabi_attribute 27, 1
   4              		.eabi_attribute 28, 1
   5              		.fpu fpv4-sp-d16
   6              		.eabi_attribute 20, 1
   7              		.eabi_attribute 21, 1
   8              		.eabi_attribute 23, 3
   9              		.eabi_attribute 24, 1
  10              		.eabi_attribute 25, 1
  11              		.eabi_attribute 26, 1
  12              		.eabi_attribute 30, 6
  13              		.eabi_attribute 34, 1
  14              		.eabi_attribute 18, 4
  15              		.thumb
  16              		.file	"pwm_lld.c"
  17              		.text
  18              	.Ltext0:
  19              		.cfi_sections	.debug_frame
  20              		.global	PWMD3
  21              		.section	.bss.PWMD3,"aw",%nobits
  22              		.align	2
  23              		.type	PWMD3, %object
  24              		.size	PWMD3, 20
  25              	PWMD3:
  26 0000 00000000 		.space	20
  26      00000000 
  26      00000000 
  26      00000000 
  26      00000000 
  27              		.section	.text.pwm_lld_serve_interrupt,"ax",%progbits
  28              		.align	2
  29              		.p2align 4,,15
  30              		.thumb
  31              		.thumb_func
  32              		.type	pwm_lld_serve_interrupt, %function
  33              	pwm_lld_serve_interrupt:
  34              	.LFB111:
  35              		.file 1 "/home/makkmarci/workspace/ChibiOS_2.6.8/os/hal/platforms/STM32/TIMv1/pwm_lld.c"
  36              		.loc 1 112 0
  37              		.cfi_startproc
  38              		@ args = 0, pretend = 0, frame = 16
  39              		@ frame_needed = 0, uses_anonymous_args = 0
  40 0000 00B5     		push	{lr}
  41              		.cfi_def_cfa_offset 4
  42              		.cfi_offset 14, -4
  43 0002 85B0     		sub	sp, sp, #20
  44              		.cfi_def_cfa_offset 24
  45 0004 0190     		str	r0, [sp, #4]
  46              		.loc 1 115 0
  47 0006 019B     		ldr	r3, [sp, #4]
  48 0008 1B69     		ldr	r3, [r3, #16]
  49 000a 1B69     		ldr	r3, [r3, #16]
  50 000c ADF80E30 		strh	r3, [sp, #14]	@ movhi
  51              		.loc 1 116 0
  52 0010 019B     		ldr	r3, [sp, #4]
  53 0012 1B69     		ldr	r3, [r3, #16]
ARM GAS  /tmp/ccJkDL6M.s 			page 2


  54 0014 DB68     		ldr	r3, [r3, #12]
  55 0016 DBB2     		uxtb	r3, r3
  56 0018 9AB2     		uxth	r2, r3
  57 001a BDF80E30 		ldrh	r3, [sp, #14]	@ movhi
  58 001e 1340     		ands	r3, r3, r2
  59 0020 ADF80E30 		strh	r3, [sp, #14]	@ movhi
  60              		.loc 1 117 0
  61 0024 019B     		ldr	r3, [sp, #4]
  62 0026 1B69     		ldr	r3, [r3, #16]
  63 0028 BDF80E20 		ldrh	r2, [sp, #14]
  64 002c D243     		mvns	r2, r2
  65 002e 1A61     		str	r2, [r3, #16]
  66              		.loc 1 118 0
  67 0030 BDF80E30 		ldrh	r3, [sp, #14]
  68 0034 03F00203 		and	r3, r3, #2
  69 0038 002B     		cmp	r3, #0
  70 003a 04D0     		beq	.L2
  71              		.loc 1 119 0
  72 003c 019B     		ldr	r3, [sp, #4]
  73 003e 5B68     		ldr	r3, [r3, #4]
  74 0040 1B69     		ldr	r3, [r3, #16]
  75 0042 0198     		ldr	r0, [sp, #4]
  76 0044 9847     		blx	r3
  77              	.L2:
  78              		.loc 1 120 0
  79 0046 BDF80E30 		ldrh	r3, [sp, #14]
  80 004a 03F00403 		and	r3, r3, #4
  81 004e 002B     		cmp	r3, #0
  82 0050 04D0     		beq	.L3
  83              		.loc 1 121 0
  84 0052 019B     		ldr	r3, [sp, #4]
  85 0054 5B68     		ldr	r3, [r3, #4]
  86 0056 9B69     		ldr	r3, [r3, #24]
  87 0058 0198     		ldr	r0, [sp, #4]
  88 005a 9847     		blx	r3
  89              	.L3:
  90              		.loc 1 122 0
  91 005c BDF80E30 		ldrh	r3, [sp, #14]
  92 0060 03F00803 		and	r3, r3, #8
  93 0064 002B     		cmp	r3, #0
  94 0066 04D0     		beq	.L4
  95              		.loc 1 123 0
  96 0068 019B     		ldr	r3, [sp, #4]
  97 006a 5B68     		ldr	r3, [r3, #4]
  98 006c 1B6A     		ldr	r3, [r3, #32]
  99 006e 0198     		ldr	r0, [sp, #4]
 100 0070 9847     		blx	r3
 101              	.L4:
 102              		.loc 1 124 0
 103 0072 BDF80E30 		ldrh	r3, [sp, #14]
 104 0076 03F01003 		and	r3, r3, #16
 105 007a 002B     		cmp	r3, #0
 106 007c 04D0     		beq	.L5
 107              		.loc 1 125 0
 108 007e 019B     		ldr	r3, [sp, #4]
 109 0080 5B68     		ldr	r3, [r3, #4]
 110 0082 9B6A     		ldr	r3, [r3, #40]
ARM GAS  /tmp/ccJkDL6M.s 			page 3


 111 0084 0198     		ldr	r0, [sp, #4]
 112 0086 9847     		blx	r3
 113              	.L5:
 114              		.loc 1 126 0
 115 0088 BDF80E30 		ldrh	r3, [sp, #14]
 116 008c 03F00103 		and	r3, r3, #1
 117 0090 002B     		cmp	r3, #0
 118 0092 04D0     		beq	.L1
 119              		.loc 1 127 0
 120 0094 019B     		ldr	r3, [sp, #4]
 121 0096 5B68     		ldr	r3, [r3, #4]
 122 0098 9B68     		ldr	r3, [r3, #8]
 123 009a 0198     		ldr	r0, [sp, #4]
 124 009c 9847     		blx	r3
 125              	.L1:
 126              		.loc 1 128 0
 127 009e 05B0     		add	sp, sp, #20
 128              		.cfi_def_cfa_offset 4
 129              		@ sp needed
 130 00a0 5DF804FB 		ldr	pc, [sp], #4
 131              		.cfi_endproc
 132              	.LFE111:
 133              		.size	pwm_lld_serve_interrupt, .-pwm_lld_serve_interrupt
 134 00a4 AFF30080 		.section	.text.VectorB4,"ax",%progbits
 134      AFF30080 
 134      AFF30080 
 135              		.align	2
 136              		.p2align 4,,15
 137              		.global	VectorB4
 138              		.thumb
 139              		.thumb_func
 140              		.type	VectorB4, %function
 141              	VectorB4:
 142              	.LFB112:
 143              		.loc 1 216 0
 144              		.cfi_startproc
 145              		@ args = 0, pretend = 0, frame = 0
 146              		@ frame_needed = 0, uses_anonymous_args = 0
 147 0000 08B5     		push	{r3, lr}
 148              		.cfi_def_cfa_offset 8
 149              		.cfi_offset 3, -8
 150              		.cfi_offset 14, -4
 151              		.loc 1 220 0
 152 0002 0348     		ldr	r0, .L8
 153 0004 FFF7FEFF 		bl	pwm_lld_serve_interrupt
 154              		.loc 1 222 0
 155 0008 FFF7FEFF 		bl	_port_irq_epilogue
 156              		.loc 1 223 0
 157 000c 08BD     		pop	{r3, pc}
 158              	.L9:
 159 000e 00BF     		.align	2
 160              	.L8:
 161 0010 00000000 		.word	PWMD3
 162              		.cfi_endproc
 163              	.LFE112:
 164              		.size	VectorB4, .-VectorB4
 165 0014 AFF30080 		.section	.text.pwm_lld_init,"ax",%progbits
ARM GAS  /tmp/ccJkDL6M.s 			page 4


 165      AFF30080 
 165      AFF30080 
 166              		.align	2
 167              		.p2align 4,,15
 168              		.global	pwm_lld_init
 169              		.thumb
 170              		.thumb_func
 171              		.type	pwm_lld_init, %function
 172              	pwm_lld_init:
 173              	.LFB113:
 174              		.loc 1 345 0
 175              		.cfi_startproc
 176              		@ args = 0, pretend = 0, frame = 0
 177              		@ frame_needed = 0, uses_anonymous_args = 0
 178 0000 08B5     		push	{r3, lr}
 179              		.cfi_def_cfa_offset 8
 180              		.cfi_offset 3, -8
 181              		.cfi_offset 14, -4
 182              		.loc 1 361 0
 183 0002 0348     		ldr	r0, .L11
 184 0004 FFF7FEFF 		bl	pwmObjectInit
 185              		.loc 1 362 0
 186 0008 014B     		ldr	r3, .L11
 187 000a 024A     		ldr	r2, .L11+4
 188 000c 1A61     		str	r2, [r3, #16]
 189              		.loc 1 388 0
 190 000e 08BD     		pop	{r3, pc}
 191              	.L12:
 192              		.align	2
 193              	.L11:
 194 0010 00000000 		.word	PWMD3
 195 0014 00040040 		.word	1073742848
 196              		.cfi_endproc
 197              	.LFE113:
 198              		.size	pwm_lld_init, .-pwm_lld_init
 199 0018 AFF30080 		.section	.rodata
 199      AFF30080 
 200              		.align	2
 201              	.LC0:
 202 0000 70776D5F 		.ascii	"pwm_lld_start(), #1\000"
 202      6C6C645F 
 202      73746172 
 202      7428292C 
 202      20233100 
 203              		.section	.text.pwm_lld_start,"ax",%progbits
 204              		.align	2
 205              		.p2align 4,,15
 206              		.global	pwm_lld_start
 207              		.thumb
 208              		.thumb_func
 209              		.type	pwm_lld_start, %function
 210              	pwm_lld_start:
 211              	.LFB114:
 212              		.loc 1 399 0
 213              		.cfi_startproc
 214              		@ args = 0, pretend = 0, frame = 16
 215              		@ frame_needed = 0, uses_anonymous_args = 0
ARM GAS  /tmp/ccJkDL6M.s 			page 5


 216 0000 00B5     		push	{lr}
 217              		.cfi_def_cfa_offset 4
 218              		.cfi_offset 14, -4
 219 0002 85B0     		sub	sp, sp, #20
 220              		.cfi_def_cfa_offset 24
 221 0004 0190     		str	r0, [sp, #4]
 222              		.loc 1 403 0
 223 0006 019B     		ldr	r3, [sp, #4]
 224 0008 1B78     		ldrb	r3, [r3]	@ zero_extendqisi2
 225 000a 012B     		cmp	r3, #1
 226 000c 24D1     		bne	.L14
 227              		.loc 1 430 0
 228 000e 019B     		ldr	r3, [sp, #4]
 229 0010 694A     		ldr	r2, .L31
 230 0012 9342     		cmp	r3, r2
 231 0014 15D1     		bne	.L15
 232              		.loc 1 431 0
 233 0016 694A     		ldr	r2, .L31+4
 234 0018 684B     		ldr	r3, .L31+4
 235 001a 1B6C     		ldr	r3, [r3, #64]
 236 001c 43F00203 		orr	r3, r3, #2
 237 0020 1364     		str	r3, [r2, #64]
 238              		.loc 1 432 0
 239 0022 664A     		ldr	r2, .L31+4
 240 0024 654B     		ldr	r3, .L31+4
 241 0026 1B6A     		ldr	r3, [r3, #32]
 242 0028 43F00203 		orr	r3, r3, #2
 243 002c 1362     		str	r3, [r2, #32]
 244 002e 634B     		ldr	r3, .L31+4
 245 0030 0022     		movs	r2, #0
 246 0032 1A62     		str	r2, [r3, #32]
 247              		.loc 1 433 0
 248 0034 1D20     		movs	r0, #29
 249 0036 7021     		movs	r1, #112
 250 0038 FFF7FEFF 		bl	nvicEnableVector
 251              		.loc 1 435 0
 252 003c 019B     		ldr	r3, [sp, #4]
 253 003e 604A     		ldr	r2, .L31+8
 254 0040 DA60     		str	r2, [r3, #12]
 255              	.L15:
 256              		.loc 1 484 0
 257 0042 019B     		ldr	r3, [sp, #4]
 258 0044 1B69     		ldr	r3, [r3, #16]
 259 0046 46F66802 		movw	r2, #26728
 260 004a 9A61     		str	r2, [r3, #24]
 261              		.loc 1 486 0
 262 004c 019B     		ldr	r3, [sp, #4]
 263 004e 1B69     		ldr	r3, [r3, #16]
 264 0050 46F66802 		movw	r2, #26728
 265 0054 DA61     		str	r2, [r3, #28]
 266 0056 17E0     		b	.L16
 267              	.L14:
 268              		.loc 1 491 0
 269 0058 019B     		ldr	r3, [sp, #4]
 270 005a 1B69     		ldr	r3, [r3, #16]
 271 005c 0022     		movs	r2, #0
 272 005e 1A60     		str	r2, [r3]
ARM GAS  /tmp/ccJkDL6M.s 			page 6


 273              		.loc 1 492 0
 274 0060 019B     		ldr	r3, [sp, #4]
 275 0062 1B69     		ldr	r3, [r3, #16]
 276 0064 0022     		movs	r2, #0
 277 0066 5A63     		str	r2, [r3, #52]
 278              		.loc 1 493 0
 279 0068 019B     		ldr	r3, [sp, #4]
 280 006a 1B69     		ldr	r3, [r3, #16]
 281 006c 0022     		movs	r2, #0
 282 006e 9A63     		str	r2, [r3, #56]
 283              		.loc 1 494 0
 284 0070 019B     		ldr	r3, [sp, #4]
 285 0072 1B69     		ldr	r3, [r3, #16]
 286 0074 0022     		movs	r2, #0
 287 0076 DA63     		str	r2, [r3, #60]
 288              		.loc 1 495 0
 289 0078 019B     		ldr	r3, [sp, #4]
 290 007a 1B69     		ldr	r3, [r3, #16]
 291 007c 0022     		movs	r2, #0
 292 007e 1A64     		str	r2, [r3, #64]
 293              		.loc 1 496 0
 294 0080 019B     		ldr	r3, [sp, #4]
 295 0082 1B69     		ldr	r3, [r3, #16]
 296 0084 0022     		movs	r2, #0
 297 0086 5A62     		str	r2, [r3, #36]
 298              	.L16:
 299              		.loc 1 500 0
 300 0088 019B     		ldr	r3, [sp, #4]
 301 008a DA68     		ldr	r2, [r3, #12]
 302 008c 019B     		ldr	r3, [sp, #4]
 303 008e 5B68     		ldr	r3, [r3, #4]
 304 0090 1B68     		ldr	r3, [r3]
 305 0092 B2FBF3F3 		udiv	r3, r2, r3
 306 0096 013B     		subs	r3, r3, #1
 307 0098 0293     		str	r3, [sp, #8]
 308              		.loc 1 501 0
 309 009a 029B     		ldr	r3, [sp, #8]
 310 009c B3F5803F 		cmp	r3, #65536
 311 00a0 0AD2     		bcs	.L17
 312              		.loc 1 501 0 is_stmt 0 discriminator 2
 313 00a2 029B     		ldr	r3, [sp, #8]
 314 00a4 0133     		adds	r3, r3, #1
 315 00a6 019A     		ldr	r2, [sp, #4]
 316 00a8 5268     		ldr	r2, [r2, #4]
 317 00aa 1268     		ldr	r2, [r2]
 318 00ac 02FB03F2 		mul	r2, r2, r3
 319 00b0 019B     		ldr	r3, [sp, #4]
 320 00b2 DB68     		ldr	r3, [r3, #12]
 321 00b4 9A42     		cmp	r2, r3
 322 00b6 02D0     		beq	.L18
 323              	.L17:
 324              		.loc 1 501 0 discriminator 3
 325 00b8 4248     		ldr	r0, .L31+12
 326 00ba FFF7FEFF 		bl	chDbgPanic
 327              	.L18:
 328              		.loc 1 504 0 is_stmt 1
 329 00be 019B     		ldr	r3, [sp, #4]
ARM GAS  /tmp/ccJkDL6M.s 			page 7


 330 00c0 1B69     		ldr	r3, [r3, #16]
 331 00c2 029A     		ldr	r2, [sp, #8]
 332 00c4 92B2     		uxth	r2, r2
 333 00c6 9A62     		str	r2, [r3, #40]
 334              		.loc 1 505 0
 335 00c8 019B     		ldr	r3, [sp, #4]
 336 00ca 1B69     		ldr	r3, [r3, #16]
 337 00cc 019A     		ldr	r2, [sp, #4]
 338 00ce 1289     		ldrh	r2, [r2, #8]
 339 00d0 013A     		subs	r2, r2, #1
 340 00d2 92B2     		uxth	r2, r2
 341 00d4 DA62     		str	r2, [r3, #44]
 342              		.loc 1 506 0
 343 00d6 019B     		ldr	r3, [sp, #4]
 344 00d8 1B69     		ldr	r3, [r3, #16]
 345 00da 019A     		ldr	r2, [sp, #4]
 346 00dc 5268     		ldr	r2, [r2, #4]
 347 00de D26A     		ldr	r2, [r2, #44]
 348 00e0 5A60     		str	r2, [r3, #4]
 349              		.loc 1 509 0
 350 00e2 0023     		movs	r3, #0
 351 00e4 0393     		str	r3, [sp, #12]
 352              		.loc 1 510 0
 353 00e6 019B     		ldr	r3, [sp, #4]
 354 00e8 5B68     		ldr	r3, [r3, #4]
 355 00ea DB68     		ldr	r3, [r3, #12]
 356 00ec 03F00F03 		and	r3, r3, #15
 357 00f0 012B     		cmp	r3, #1
 358 00f2 05D0     		beq	.L20
 359 00f4 022B     		cmp	r3, #2
 360 00f6 07D1     		bne	.L19
 361              		.loc 1 512 0
 362 00f8 039B     		ldr	r3, [sp, #12]
 363 00fa 43F00203 		orr	r3, r3, #2
 364 00fe 0393     		str	r3, [sp, #12]
 365              	.L20:
 366              		.loc 1 514 0
 367 0100 039B     		ldr	r3, [sp, #12]
 368 0102 43F00103 		orr	r3, r3, #1
 369 0106 0393     		str	r3, [sp, #12]
 370              	.L19:
 371              		.loc 1 518 0
 372 0108 019B     		ldr	r3, [sp, #4]
 373 010a 5B68     		ldr	r3, [r3, #4]
 374 010c 5B69     		ldr	r3, [r3, #20]
 375 010e 03F00F03 		and	r3, r3, #15
 376 0112 012B     		cmp	r3, #1
 377 0114 05D0     		beq	.L23
 378 0116 022B     		cmp	r3, #2
 379 0118 07D1     		bne	.L22
 380              		.loc 1 520 0
 381 011a 039B     		ldr	r3, [sp, #12]
 382 011c 43F02003 		orr	r3, r3, #32
 383 0120 0393     		str	r3, [sp, #12]
 384              	.L23:
 385              		.loc 1 522 0
 386 0122 039B     		ldr	r3, [sp, #12]
ARM GAS  /tmp/ccJkDL6M.s 			page 8


 387 0124 43F01003 		orr	r3, r3, #16
 388 0128 0393     		str	r3, [sp, #12]
 389              	.L22:
 390              		.loc 1 526 0
 391 012a 019B     		ldr	r3, [sp, #4]
 392 012c 5B68     		ldr	r3, [r3, #4]
 393 012e DB69     		ldr	r3, [r3, #28]
 394 0130 03F00F03 		and	r3, r3, #15
 395 0134 012B     		cmp	r3, #1
 396 0136 05D0     		beq	.L26
 397 0138 022B     		cmp	r3, #2
 398 013a 07D1     		bne	.L25
 399              		.loc 1 528 0
 400 013c 039B     		ldr	r3, [sp, #12]
 401 013e 43F40073 		orr	r3, r3, #512
 402 0142 0393     		str	r3, [sp, #12]
 403              	.L26:
 404              		.loc 1 530 0
 405 0144 039B     		ldr	r3, [sp, #12]
 406 0146 43F48073 		orr	r3, r3, #256
 407 014a 0393     		str	r3, [sp, #12]
 408              	.L25:
 409              		.loc 1 534 0
 410 014c 019B     		ldr	r3, [sp, #4]
 411 014e 5B68     		ldr	r3, [r3, #4]
 412 0150 5B6A     		ldr	r3, [r3, #36]
 413 0152 03F00F03 		and	r3, r3, #15
 414 0156 012B     		cmp	r3, #1
 415 0158 05D0     		beq	.L29
 416 015a 022B     		cmp	r3, #2
 417 015c 07D1     		bne	.L28
 418              		.loc 1 536 0
 419 015e 039B     		ldr	r3, [sp, #12]
 420 0160 43F40053 		orr	r3, r3, #8192
 421 0164 0393     		str	r3, [sp, #12]
 422              	.L29:
 423              		.loc 1 538 0
 424 0166 039B     		ldr	r3, [sp, #12]
 425 0168 43F48053 		orr	r3, r3, #4096
 426 016c 0393     		str	r3, [sp, #12]
 427              	.L28:
 428              		.loc 1 579 0
 429 016e 019B     		ldr	r3, [sp, #4]
 430 0170 1B69     		ldr	r3, [r3, #16]
 431 0172 039A     		ldr	r2, [sp, #12]
 432 0174 1A62     		str	r2, [r3, #32]
 433              		.loc 1 580 0
 434 0176 019B     		ldr	r3, [sp, #4]
 435 0178 1B69     		ldr	r3, [r3, #16]
 436 017a 0122     		movs	r2, #1
 437 017c 5A61     		str	r2, [r3, #20]
 438              		.loc 1 581 0
 439 017e 019B     		ldr	r3, [sp, #4]
 440 0180 1B69     		ldr	r3, [r3, #16]
 441 0182 0022     		movs	r2, #0
 442 0184 1A61     		str	r2, [r3, #16]
 443              		.loc 1 582 0
ARM GAS  /tmp/ccJkDL6M.s 			page 9


 444 0186 019B     		ldr	r3, [sp, #4]
 445 0188 1B69     		ldr	r3, [r3, #16]
 446 018a 019A     		ldr	r2, [sp, #4]
 447 018c 5268     		ldr	r2, [r2, #4]
 448 018e 9268     		ldr	r2, [r2, #8]
 449 0190 002A     		cmp	r2, #0
 450 0192 14BF     		ite	ne
 451 0194 0122     		movne	r2, #1
 452 0196 0022     		moveq	r2, #0
 453 0198 D2B2     		uxtb	r2, r2
 454 019a 1146     		mov	r1, r2
 455              		.loc 1 583 0
 456 019c 019A     		ldr	r2, [sp, #4]
 457 019e 5268     		ldr	r2, [r2, #4]
 458 01a0 126B     		ldr	r2, [r2, #48]
 459 01a2 22F0FF02 		bic	r2, r2, #255
 460              		.loc 1 582 0
 461 01a6 0A43     		orrs	r2, r2, r1
 462 01a8 DA60     		str	r2, [r3, #12]
 463              		.loc 1 592 0
 464 01aa 019B     		ldr	r3, [sp, #4]
 465 01ac 1B69     		ldr	r3, [r3, #16]
 466 01ae 8522     		movs	r2, #133
 467 01b0 1A60     		str	r2, [r3]
 468              		.loc 1 594 0
 469 01b2 05B0     		add	sp, sp, #20
 470              		.cfi_def_cfa_offset 4
 471              		@ sp needed
 472 01b4 5DF804FB 		ldr	pc, [sp], #4
 473              	.L32:
 474              		.align	2
 475              	.L31:
 476 01b8 00000000 		.word	PWMD3
 477 01bc 00380240 		.word	1073887232
 478 01c0 00BD0105 		.word	84000000
 479 01c4 00000000 		.word	.LC0
 480              		.cfi_endproc
 481              	.LFE114:
 482              		.size	pwm_lld_start, .-pwm_lld_start
 483 01c8 AFF30080 		.section	.text.pwm_lld_stop,"ax",%progbits
 483      AFF30080 
 484              		.align	2
 485              		.p2align 4,,15
 486              		.global	pwm_lld_stop
 487              		.thumb
 488              		.thumb_func
 489              		.type	pwm_lld_stop, %function
 490              	pwm_lld_stop:
 491              	.LFB115:
 492              		.loc 1 603 0
 493              		.cfi_startproc
 494              		@ args = 0, pretend = 0, frame = 8
 495              		@ frame_needed = 0, uses_anonymous_args = 0
 496 0000 00B5     		push	{lr}
 497              		.cfi_def_cfa_offset 4
 498              		.cfi_offset 14, -4
 499 0002 83B0     		sub	sp, sp, #12
ARM GAS  /tmp/ccJkDL6M.s 			page 10


 500              		.cfi_def_cfa_offset 16
 501 0004 0190     		str	r0, [sp, #4]
 502              		.loc 1 606 0
 503 0006 019B     		ldr	r3, [sp, #4]
 504 0008 1B78     		ldrb	r3, [r3]	@ zero_extendqisi2
 505 000a 022B     		cmp	r3, #2
 506 000c 18D1     		bne	.L33
 507              		.loc 1 607 0
 508 000e 019B     		ldr	r3, [sp, #4]
 509 0010 1B69     		ldr	r3, [r3, #16]
 510 0012 0022     		movs	r2, #0
 511 0014 1A60     		str	r2, [r3]
 512              		.loc 1 608 0
 513 0016 019B     		ldr	r3, [sp, #4]
 514 0018 1B69     		ldr	r3, [r3, #16]
 515 001a 0022     		movs	r2, #0
 516 001c DA60     		str	r2, [r3, #12]
 517              		.loc 1 609 0
 518 001e 019B     		ldr	r3, [sp, #4]
 519 0020 1B69     		ldr	r3, [r3, #16]
 520 0022 0022     		movs	r2, #0
 521 0024 1A61     		str	r2, [r3, #16]
 522              		.loc 1 628 0
 523 0026 019B     		ldr	r3, [sp, #4]
 524 0028 074A     		ldr	r2, .L35
 525 002a 9342     		cmp	r3, r2
 526 002c 08D1     		bne	.L33
 527              		.loc 1 629 0
 528 002e 1D20     		movs	r0, #29
 529 0030 FFF7FEFF 		bl	nvicDisableVector
 530              		.loc 1 630 0
 531 0034 054A     		ldr	r2, .L35+4
 532 0036 054B     		ldr	r3, .L35+4
 533 0038 1B6C     		ldr	r3, [r3, #64]
 534 003a 23F00203 		bic	r3, r3, #2
 535 003e 1364     		str	r3, [r2, #64]
 536              	.L33:
 537              		.loc 1 659 0
 538 0040 03B0     		add	sp, sp, #12
 539              		.cfi_def_cfa_offset 4
 540              		@ sp needed
 541 0042 5DF804FB 		ldr	pc, [sp], #4
 542              	.L36:
 543 0046 00BF     		.align	2
 544              	.L35:
 545 0048 00000000 		.word	PWMD3
 546 004c 00380240 		.word	1073887232
 547              		.cfi_endproc
 548              	.LFE115:
 549              		.size	pwm_lld_stop, .-pwm_lld_stop
 550              		.section	.text.pwm_lld_enable_channel,"ax",%progbits
 551              		.align	2
 552              		.p2align 4,,15
 553              		.global	pwm_lld_enable_channel
 554              		.thumb
 555              		.thumb_func
 556              		.type	pwm_lld_enable_channel, %function
ARM GAS  /tmp/ccJkDL6M.s 			page 11


 557              	pwm_lld_enable_channel:
 558              	.LFB116:
 559              		.loc 1 675 0
 560              		.cfi_startproc
 561              		@ args = 0, pretend = 0, frame = 16
 562              		@ frame_needed = 0, uses_anonymous_args = 0
 563              		@ link register save eliminated.
 564 0000 84B0     		sub	sp, sp, #16
 565              		.cfi_def_cfa_offset 16
 566 0002 0190     		str	r0, [sp, #4]
 567 0004 0B46     		mov	r3, r1
 568 0006 8DF80330 		strb	r3, [sp, #3]
 569 000a 1346     		mov	r3, r2	@ movhi
 570 000c ADF80030 		strh	r3, [sp]	@ movhi
 571              		.loc 1 677 0
 572 0010 019B     		ldr	r3, [sp, #4]
 573 0012 1969     		ldr	r1, [r3, #16]
 574 0014 9DF80330 		ldrb	r3, [sp, #3]	@ zero_extendqisi2
 575 0018 BDF80020 		ldrh	r2, [sp]
 576 001c 0C33     		adds	r3, r3, #12
 577 001e 9B00     		lsls	r3, r3, #2
 578 0020 0B44     		add	r3, r3, r1
 579 0022 5A60     		str	r2, [r3, #4]
 580              		.loc 1 680 0
 581 0024 019B     		ldr	r3, [sp, #4]
 582 0026 5A68     		ldr	r2, [r3, #4]
 583 0028 9DF80330 		ldrb	r3, [sp, #3]	@ zero_extendqisi2
 584 002c 0133     		adds	r3, r3, #1
 585 002e DB00     		lsls	r3, r3, #3
 586 0030 1344     		add	r3, r3, r2
 587 0032 9B68     		ldr	r3, [r3, #8]
 588 0034 002B     		cmp	r3, #0
 589 0036 21D0     		beq	.L37
 590              	.LBB2:
 591              		.loc 1 681 0
 592 0038 019B     		ldr	r3, [sp, #4]
 593 003a 1B69     		ldr	r3, [r3, #16]
 594 003c DB68     		ldr	r3, [r3, #12]
 595 003e 0393     		str	r3, [sp, #12]
 596              		.loc 1 684 0
 597 0040 9DF80330 		ldrb	r3, [sp, #3]	@ zero_extendqisi2
 598 0044 0222     		movs	r2, #2
 599 0046 02FA03F3 		lsl	r3, r2, r3
 600 004a 1A46     		mov	r2, r3
 601 004c 039B     		ldr	r3, [sp, #12]
 602 004e 1340     		ands	r3, r3, r2
 603 0050 002B     		cmp	r3, #0
 604 0052 13D1     		bne	.L37
 605              		.loc 1 685 0
 606 0054 019B     		ldr	r3, [sp, #4]
 607 0056 1B69     		ldr	r3, [r3, #16]
 608 0058 9DF80320 		ldrb	r2, [sp, #3]	@ zero_extendqisi2
 609 005c 0221     		movs	r1, #2
 610 005e 01FA02F2 		lsl	r2, r1, r2
 611 0062 1146     		mov	r1, r2
 612 0064 039A     		ldr	r2, [sp, #12]
 613 0066 0A43     		orrs	r2, r2, r1
ARM GAS  /tmp/ccJkDL6M.s 			page 12


 614 0068 DA60     		str	r2, [r3, #12]
 615              		.loc 1 686 0
 616 006a 019B     		ldr	r3, [sp, #4]
 617 006c 1B69     		ldr	r3, [r3, #16]
 618 006e 9DF80320 		ldrb	r2, [sp, #3]	@ zero_extendqisi2
 619 0072 0221     		movs	r1, #2
 620 0074 01FA02F2 		lsl	r2, r1, r2
 621 0078 D243     		mvns	r2, r2
 622 007a 1A61     		str	r2, [r3, #16]
 623              	.L37:
 624              	.LBE2:
 625              		.loc 1 689 0
 626 007c 04B0     		add	sp, sp, #16
 627              		.cfi_def_cfa_offset 0
 628              		@ sp needed
 629 007e 7047     		bx	lr
 630              		.cfi_endproc
 631              	.LFE116:
 632              		.size	pwm_lld_enable_channel, .-pwm_lld_enable_channel
 633              		.section	.text.pwm_lld_disable_channel,"ax",%progbits
 634              		.align	2
 635              		.p2align 4,,15
 636              		.global	pwm_lld_disable_channel
 637              		.thumb
 638              		.thumb_func
 639              		.type	pwm_lld_disable_channel, %function
 640              	pwm_lld_disable_channel:
 641              	.LFB117:
 642              		.loc 1 703 0
 643              		.cfi_startproc
 644              		@ args = 0, pretend = 0, frame = 8
 645              		@ frame_needed = 0, uses_anonymous_args = 0
 646              		@ link register save eliminated.
 647 0000 82B0     		sub	sp, sp, #8
 648              		.cfi_def_cfa_offset 8
 649 0002 0190     		str	r0, [sp, #4]
 650 0004 0B46     		mov	r3, r1
 651 0006 8DF80330 		strb	r3, [sp, #3]
 652              		.loc 1 705 0
 653 000a 019B     		ldr	r3, [sp, #4]
 654 000c 1A69     		ldr	r2, [r3, #16]
 655 000e 9DF80330 		ldrb	r3, [sp, #3]	@ zero_extendqisi2
 656 0012 0C33     		adds	r3, r3, #12
 657 0014 9B00     		lsls	r3, r3, #2
 658 0016 1344     		add	r3, r3, r2
 659 0018 0022     		movs	r2, #0
 660 001a 5A60     		str	r2, [r3, #4]
 661              		.loc 1 706 0
 662 001c 019B     		ldr	r3, [sp, #4]
 663 001e 1B69     		ldr	r3, [r3, #16]
 664 0020 019A     		ldr	r2, [sp, #4]
 665 0022 1269     		ldr	r2, [r2, #16]
 666 0024 D268     		ldr	r2, [r2, #12]
 667 0026 9DF80310 		ldrb	r1, [sp, #3]	@ zero_extendqisi2
 668 002a 0220     		movs	r0, #2
 669 002c 00FA01F1 		lsl	r1, r0, r1
 670 0030 C943     		mvns	r1, r1
ARM GAS  /tmp/ccJkDL6M.s 			page 13


 671 0032 0A40     		ands	r2, r2, r1
 672 0034 DA60     		str	r2, [r3, #12]
 673              		.loc 1 707 0
 674 0036 02B0     		add	sp, sp, #8
 675              		.cfi_def_cfa_offset 0
 676              		@ sp needed
 677 0038 7047     		bx	lr
 678              		.cfi_endproc
 679              	.LFE117:
 680              		.size	pwm_lld_disable_channel, .-pwm_lld_disable_channel
 681 003a 00BFAFF3 		.text
 681      0080
 682              	.Letext0:
 683              		.file 2 "/opt/gcc-arm-none-eabi/arm-none-eabi/include/machine/_default_types.h"
 684              		.file 3 "/opt/gcc-arm-none-eabi/arm-none-eabi/include/stdint.h"
 685              		.file 4 "/home/makkmarci/workspace/ChibiOS_2.6.8/os/hal/platforms/STM32F4xx/stm32f4xx.h"
 686              		.file 5 "/home/makkmarci/workspace/ChibiOS_2.6.8/os/hal/platforms/STM32/TIMv1/stm32_tim.h"
 687              		.file 6 "/home/makkmarci/workspace/ChibiOS_2.6.8/os/hal/include/pwm.h"
 688              		.file 7 "/home/makkmarci/workspace/ChibiOS_2.6.8/os/hal/platforms/STM32/TIMv1/pwm_lld.h"
 689              		.file 8 "/home/makkmarci/workspace/ChibiOS_2.6.8/os/ports/common/ARMCMx/CMSIS/include/core_cm4.h"
 690              		.section	.debug_info,"",%progbits
 691              	.Ldebug_info0:
 692 0000 C2060000 		.4byte	0x6c2
 693 0004 0400     		.2byte	0x4
 694 0006 00000000 		.4byte	.Ldebug_abbrev0
 695 000a 04       		.byte	0x4
 696 000b 01       		.uleb128 0x1
 697 000c 6C010000 		.4byte	.LASF93
 698 0010 01       		.byte	0x1
 699 0011 DF000000 		.4byte	.LASF94
 700 0015 00000000 		.4byte	.Ldebug_ranges0+0
 701 0019 00000000 		.4byte	0
 702 001d 00000000 		.4byte	.Ldebug_line0
 703 0021 02       		.uleb128 0x2
 704 0022 04       		.byte	0x4
 705 0023 05       		.byte	0x5
 706 0024 696E7400 		.ascii	"int\000"
 707 0028 03       		.uleb128 0x3
 708 0029 04       		.byte	0x4
 709 002a 07       		.byte	0x7
 710 002b 4D030000 		.4byte	.LASF0
 711 002f 03       		.uleb128 0x3
 712 0030 01       		.byte	0x1
 713 0031 06       		.byte	0x6
 714 0032 2A030000 		.4byte	.LASF1
 715 0036 04       		.uleb128 0x4
 716 0037 B6020000 		.4byte	.LASF4
 717 003b 02       		.byte	0x2
 718 003c 1D       		.byte	0x1d
 719 003d 41000000 		.4byte	0x41
 720 0041 03       		.uleb128 0x3
 721 0042 01       		.byte	0x1
 722 0043 08       		.byte	0x8
 723 0044 F8020000 		.4byte	.LASF2
 724 0048 03       		.uleb128 0x3
 725 0049 02       		.byte	0x2
 726 004a 05       		.byte	0x5
ARM GAS  /tmp/ccJkDL6M.s 			page 14


 727 004b 3E000000 		.4byte	.LASF3
 728 004f 04       		.uleb128 0x4
 729 0050 9F000000 		.4byte	.LASF5
 730 0054 02       		.byte	0x2
 731 0055 2B       		.byte	0x2b
 732 0056 5A000000 		.4byte	0x5a
 733 005a 03       		.uleb128 0x3
 734 005b 02       		.byte	0x2
 735 005c 07       		.byte	0x7
 736 005d 83030000 		.4byte	.LASF6
 737 0061 04       		.uleb128 0x4
 738 0062 5D040000 		.4byte	.LASF7
 739 0066 02       		.byte	0x2
 740 0067 3F       		.byte	0x3f
 741 0068 6C000000 		.4byte	0x6c
 742 006c 03       		.uleb128 0x3
 743 006d 04       		.byte	0x4
 744 006e 05       		.byte	0x5
 745 006f 81020000 		.4byte	.LASF8
 746 0073 04       		.uleb128 0x4
 747 0074 8F000000 		.4byte	.LASF9
 748 0078 02       		.byte	0x2
 749 0079 41       		.byte	0x41
 750 007a 7E000000 		.4byte	0x7e
 751 007e 03       		.uleb128 0x3
 752 007f 04       		.byte	0x4
 753 0080 07       		.byte	0x7
 754 0081 94020000 		.4byte	.LASF10
 755 0085 03       		.uleb128 0x3
 756 0086 08       		.byte	0x8
 757 0087 05       		.byte	0x5
 758 0088 5E010000 		.4byte	.LASF11
 759 008c 03       		.uleb128 0x3
 760 008d 08       		.byte	0x8
 761 008e 07       		.byte	0x7
 762 008f 36030000 		.4byte	.LASF12
 763 0093 04       		.uleb128 0x4
 764 0094 CF000000 		.4byte	.LASF13
 765 0098 03       		.byte	0x3
 766 0099 15       		.byte	0x15
 767 009a 36000000 		.4byte	0x36
 768 009e 04       		.uleb128 0x4
 769 009f 63030000 		.4byte	.LASF14
 770 00a3 03       		.byte	0x3
 771 00a4 21       		.byte	0x21
 772 00a5 4F000000 		.4byte	0x4f
 773 00a9 04       		.uleb128 0x4
 774 00aa C8030000 		.4byte	.LASF15
 775 00ae 03       		.byte	0x3
 776 00af 2C       		.byte	0x2c
 777 00b0 61000000 		.4byte	0x61
 778 00b4 04       		.uleb128 0x4
 779 00b5 2E010000 		.4byte	.LASF16
 780 00b9 03       		.byte	0x3
 781 00ba 2D       		.byte	0x2d
 782 00bb 73000000 		.4byte	0x73
 783 00bf 03       		.uleb128 0x3
ARM GAS  /tmp/ccJkDL6M.s 			page 15


 784 00c0 01       		.byte	0x1
 785 00c1 02       		.byte	0x2
 786 00c2 D0030000 		.4byte	.LASF17
 787 00c6 05       		.uleb128 0x5
 788 00c7 B4000000 		.4byte	0xb4
 789 00cb 03       		.uleb128 0x3
 790 00cc 04       		.byte	0x4
 791 00cd 07       		.byte	0x7
 792 00ce 51000000 		.4byte	.LASF18
 793 00d2 03       		.uleb128 0x3
 794 00d3 01       		.byte	0x1
 795 00d4 08       		.byte	0x8
 796 00d5 AD030000 		.4byte	.LASF19
 797 00d9 06       		.uleb128 0x6
 798 00da B4000000 		.4byte	0xb4
 799 00de E9000000 		.4byte	0xe9
 800 00e2 07       		.uleb128 0x7
 801 00e3 CB000000 		.4byte	0xcb
 802 00e7 01       		.byte	0x1
 803 00e8 00       		.byte	0
 804 00e9 06       		.uleb128 0x6
 805 00ea B4000000 		.4byte	0xb4
 806 00ee F9000000 		.4byte	0xf9
 807 00f2 07       		.uleb128 0x7
 808 00f3 CB000000 		.4byte	0xcb
 809 00f7 03       		.byte	0x3
 810 00f8 00       		.byte	0
 811 00f9 05       		.uleb128 0x5
 812 00fa A9000000 		.4byte	0xa9
 813 00fe 08       		.uleb128 0x8
 814 00ff 90       		.byte	0x90
 815 0100 04       		.byte	0x4
 816 0101 5804     		.2byte	0x458
 817 0103 A7020000 		.4byte	0x2a7
 818 0107 09       		.uleb128 0x9
 819 0108 435200   		.ascii	"CR\000"
 820 010b 04       		.byte	0x4
 821 010c 5A04     		.2byte	0x45a
 822 010e C6000000 		.4byte	0xc6
 823 0112 00       		.byte	0
 824 0113 0A       		.uleb128 0xa
 825 0114 7B030000 		.4byte	.LASF20
 826 0118 04       		.byte	0x4
 827 0119 5B04     		.2byte	0x45b
 828 011b C6000000 		.4byte	0xc6
 829 011f 04       		.byte	0x4
 830 0120 0A       		.uleb128 0xa
 831 0121 C0000000 		.4byte	.LASF21
 832 0125 04       		.byte	0x4
 833 0126 5C04     		.2byte	0x45c
 834 0128 C6000000 		.4byte	0xc6
 835 012c 08       		.byte	0x8
 836 012d 09       		.uleb128 0x9
 837 012e 43495200 		.ascii	"CIR\000"
 838 0132 04       		.byte	0x4
 839 0133 5D04     		.2byte	0x45d
 840 0135 C6000000 		.4byte	0xc6
ARM GAS  /tmp/ccJkDL6M.s 			page 16


 841 0139 0C       		.byte	0xc
 842 013a 0A       		.uleb128 0xa
 843 013b B0000000 		.4byte	.LASF22
 844 013f 04       		.byte	0x4
 845 0140 5E04     		.2byte	0x45e
 846 0142 C6000000 		.4byte	0xc6
 847 0146 10       		.byte	0x10
 848 0147 0A       		.uleb128 0xa
 849 0148 5A030000 		.4byte	.LASF23
 850 014c 04       		.byte	0x4
 851 014d 5F04     		.2byte	0x45f
 852 014f C6000000 		.4byte	0xc6
 853 0153 14       		.byte	0x14
 854 0154 0A       		.uleb128 0xa
 855 0155 A0040000 		.4byte	.LASF24
 856 0159 04       		.byte	0x4
 857 015a 6004     		.2byte	0x460
 858 015c C6000000 		.4byte	0xc6
 859 0160 18       		.byte	0x18
 860 0161 0A       		.uleb128 0xa
 861 0162 E8030000 		.4byte	.LASF25
 862 0166 04       		.byte	0x4
 863 0167 6104     		.2byte	0x461
 864 0169 B4000000 		.4byte	0xb4
 865 016d 1C       		.byte	0x1c
 866 016e 0A       		.uleb128 0xa
 867 016f 1C000000 		.4byte	.LASF26
 868 0173 04       		.byte	0x4
 869 0174 6204     		.2byte	0x462
 870 0176 C6000000 		.4byte	0xc6
 871 017a 20       		.byte	0x20
 872 017b 0A       		.uleb128 0xa
 873 017c AD020000 		.4byte	.LASF27
 874 0180 04       		.byte	0x4
 875 0181 6304     		.2byte	0x463
 876 0183 C6000000 		.4byte	0xc6
 877 0187 24       		.byte	0x24
 878 0188 0A       		.uleb128 0xa
 879 0189 F2030000 		.4byte	.LASF28
 880 018d 04       		.byte	0x4
 881 018e 6404     		.2byte	0x464
 882 0190 D9000000 		.4byte	0xd9
 883 0194 28       		.byte	0x28
 884 0195 0A       		.uleb128 0xa
 885 0196 34040000 		.4byte	.LASF29
 886 019a 04       		.byte	0x4
 887 019b 6504     		.2byte	0x465
 888 019d C6000000 		.4byte	0xc6
 889 01a1 30       		.byte	0x30
 890 01a2 0A       		.uleb128 0xa
 891 01a3 25000000 		.4byte	.LASF30
 892 01a7 04       		.byte	0x4
 893 01a8 6604     		.2byte	0x466
 894 01aa C6000000 		.4byte	0xc6
 895 01ae 34       		.byte	0x34
 896 01af 0A       		.uleb128 0xa
 897 01b0 4A010000 		.4byte	.LASF31
ARM GAS  /tmp/ccJkDL6M.s 			page 17


 898 01b4 04       		.byte	0x4
 899 01b5 6704     		.2byte	0x467
 900 01b7 C6000000 		.4byte	0xc6
 901 01bb 38       		.byte	0x38
 902 01bc 0A       		.uleb128 0xa
 903 01bd FC030000 		.4byte	.LASF32
 904 01c1 04       		.byte	0x4
 905 01c2 6804     		.2byte	0x468
 906 01c4 B4000000 		.4byte	0xb4
 907 01c8 3C       		.byte	0x3c
 908 01c9 0A       		.uleb128 0xa
 909 01ca D7000000 		.4byte	.LASF33
 910 01ce 04       		.byte	0x4
 911 01cf 6904     		.2byte	0x469
 912 01d1 C6000000 		.4byte	0xc6
 913 01d5 40       		.byte	0x40
 914 01d6 0A       		.uleb128 0xa
 915 01d7 22030000 		.4byte	.LASF34
 916 01db 04       		.byte	0x4
 917 01dc 6A04     		.2byte	0x46a
 918 01de C6000000 		.4byte	0xc6
 919 01e2 44       		.byte	0x44
 920 01e3 0A       		.uleb128 0xa
 921 01e4 06040000 		.4byte	.LASF35
 922 01e8 04       		.byte	0x4
 923 01e9 6B04     		.2byte	0x46b
 924 01eb D9000000 		.4byte	0xd9
 925 01ef 48       		.byte	0x48
 926 01f0 0A       		.uleb128 0xa
 927 01f1 00000000 		.4byte	.LASF36
 928 01f5 04       		.byte	0x4
 929 01f6 6C04     		.2byte	0x46c
 930 01f8 C6000000 		.4byte	0xc6
 931 01fc 50       		.byte	0x50
 932 01fd 0A       		.uleb128 0xa
 933 01fe DE030000 		.4byte	.LASF37
 934 0202 04       		.byte	0x4
 935 0203 6D04     		.2byte	0x46d
 936 0205 C6000000 		.4byte	0xc6
 937 0209 54       		.byte	0x54
 938 020a 0A       		.uleb128 0xa
 939 020b C5000000 		.4byte	.LASF38
 940 020f 04       		.byte	0x4
 941 0210 6E04     		.2byte	0x46e
 942 0212 C6000000 		.4byte	0xc6
 943 0216 58       		.byte	0x58
 944 0217 0A       		.uleb128 0xa
 945 0218 10040000 		.4byte	.LASF39
 946 021c 04       		.byte	0x4
 947 021d 6F04     		.2byte	0x46f
 948 021f B4000000 		.4byte	0xb4
 949 0223 5C       		.byte	0x5c
 950 0224 0A       		.uleb128 0xa
 951 0225 96030000 		.4byte	.LASF40
 952 0229 04       		.byte	0x4
 953 022a 7004     		.2byte	0x470
 954 022c C6000000 		.4byte	0xc6
ARM GAS  /tmp/ccJkDL6M.s 			page 18


 955 0230 60       		.byte	0x60
 956 0231 0A       		.uleb128 0xa
 957 0232 E4040000 		.4byte	.LASF41
 958 0236 04       		.byte	0x4
 959 0237 7104     		.2byte	0x471
 960 0239 C6000000 		.4byte	0xc6
 961 023d 64       		.byte	0x64
 962 023e 0A       		.uleb128 0xa
 963 023f 1A040000 		.4byte	.LASF42
 964 0243 04       		.byte	0x4
 965 0244 7204     		.2byte	0x472
 966 0246 D9000000 		.4byte	0xd9
 967 024a 68       		.byte	0x68
 968 024b 0A       		.uleb128 0xa
 969 024c 5A000000 		.4byte	.LASF43
 970 0250 04       		.byte	0x4
 971 0251 7304     		.2byte	0x473
 972 0253 C6000000 		.4byte	0xc6
 973 0257 70       		.byte	0x70
 974 0258 09       		.uleb128 0x9
 975 0259 43535200 		.ascii	"CSR\000"
 976 025d 04       		.byte	0x4
 977 025e 7404     		.2byte	0x474
 978 0260 C6000000 		.4byte	0xc6
 979 0264 74       		.byte	0x74
 980 0265 0A       		.uleb128 0xa
 981 0266 24040000 		.4byte	.LASF44
 982 026a 04       		.byte	0x4
 983 026b 7504     		.2byte	0x475
 984 026d D9000000 		.4byte	0xd9
 985 0271 78       		.byte	0x78
 986 0272 0A       		.uleb128 0xa
 987 0273 AA000000 		.4byte	.LASF45
 988 0277 04       		.byte	0x4
 989 0278 7604     		.2byte	0x476
 990 027a C6000000 		.4byte	0xc6
 991 027e 80       		.byte	0x80
 992 027f 0A       		.uleb128 0xa
 993 0280 5F000000 		.4byte	.LASF46
 994 0284 04       		.byte	0x4
 995 0285 7704     		.2byte	0x477
 996 0287 C6000000 		.4byte	0xc6
 997 028b 84       		.byte	0x84
 998 028c 0A       		.uleb128 0xa
 999 028d C0040000 		.4byte	.LASF47
 1000 0291 04       		.byte	0x4
 1001 0292 7804     		.2byte	0x478
 1002 0294 C6000000 		.4byte	0xc6
 1003 0298 88       		.byte	0x88
 1004 0299 0A       		.uleb128 0xa
 1005 029a 3C010000 		.4byte	.LASF48
 1006 029e 04       		.byte	0x4
 1007 029f 7904     		.2byte	0x479
 1008 02a1 C6000000 		.4byte	0xc6
 1009 02a5 8C       		.byte	0x8c
 1010 02a6 00       		.byte	0
 1011 02a7 0B       		.uleb128 0xb
ARM GAS  /tmp/ccJkDL6M.s 			page 19


 1012 02a8 52010000 		.4byte	.LASF49
 1013 02ac 04       		.byte	0x4
 1014 02ad 7B04     		.2byte	0x47b
 1015 02af FE000000 		.4byte	0xfe
 1016 02b3 08       		.uleb128 0x8
 1017 02b4 60       		.byte	0x60
 1018 02b5 05       		.byte	0x5
 1019 02b6 9E01     		.2byte	0x19e
 1020 02b8 CC030000 		.4byte	0x3cc
 1021 02bc 09       		.uleb128 0x9
 1022 02bd 43523100 		.ascii	"CR1\000"
 1023 02c1 05       		.byte	0x5
 1024 02c2 9F01     		.2byte	0x19f
 1025 02c4 C6000000 		.4byte	0xc6
 1026 02c8 00       		.byte	0
 1027 02c9 09       		.uleb128 0x9
 1028 02ca 43523200 		.ascii	"CR2\000"
 1029 02ce 05       		.byte	0x5
 1030 02cf A001     		.2byte	0x1a0
 1031 02d1 C6000000 		.4byte	0xc6
 1032 02d5 04       		.byte	0x4
 1033 02d6 0A       		.uleb128 0xa
 1034 02d7 E8020000 		.4byte	.LASF50
 1035 02db 05       		.byte	0x5
 1036 02dc A101     		.2byte	0x1a1
 1037 02de C6000000 		.4byte	0xc6
 1038 02e2 08       		.byte	0x8
 1039 02e3 0A       		.uleb128 0xa
 1040 02e4 76030000 		.4byte	.LASF51
 1041 02e8 05       		.byte	0x5
 1042 02e9 A201     		.2byte	0x1a2
 1043 02eb C6000000 		.4byte	0xc6
 1044 02ef 0C       		.byte	0xc
 1045 02f0 09       		.uleb128 0x9
 1046 02f1 535200   		.ascii	"SR\000"
 1047 02f4 05       		.byte	0x5
 1048 02f5 A301     		.2byte	0x1a3
 1049 02f7 C6000000 		.4byte	0xc6
 1050 02fb 10       		.byte	0x10
 1051 02fc 09       		.uleb128 0x9
 1052 02fd 45475200 		.ascii	"EGR\000"
 1053 0301 05       		.byte	0x5
 1054 0302 A401     		.2byte	0x1a4
 1055 0304 C6000000 		.4byte	0xc6
 1056 0308 14       		.byte	0x14
 1057 0309 0A       		.uleb128 0xa
 1058 030a C0020000 		.4byte	.LASF52
 1059 030e 05       		.byte	0x5
 1060 030f A501     		.2byte	0x1a5
 1061 0311 C6000000 		.4byte	0xc6
 1062 0315 18       		.byte	0x18
 1063 0316 0A       		.uleb128 0xa
 1064 0317 38000000 		.4byte	.LASF53
 1065 031b 05       		.byte	0x5
 1066 031c A601     		.2byte	0x1a6
 1067 031e C6000000 		.4byte	0xc6
 1068 0322 1C       		.byte	0x1c
ARM GAS  /tmp/ccJkDL6M.s 			page 20


 1069 0323 0A       		.uleb128 0xa
 1070 0324 0A000000 		.4byte	.LASF54
 1071 0328 05       		.byte	0x5
 1072 0329 A701     		.2byte	0x1a7
 1073 032b C6000000 		.4byte	0xc6
 1074 032f 20       		.byte	0x20
 1075 0330 09       		.uleb128 0x9
 1076 0331 434E5400 		.ascii	"CNT\000"
 1077 0335 05       		.byte	0x5
 1078 0336 A801     		.2byte	0x1a8
 1079 0338 C6000000 		.4byte	0xc6
 1080 033c 24       		.byte	0x24
 1081 033d 09       		.uleb128 0x9
 1082 033e 50534300 		.ascii	"PSC\000"
 1083 0342 05       		.byte	0x5
 1084 0343 A901     		.2byte	0x1a9
 1085 0345 C6000000 		.4byte	0xc6
 1086 0349 28       		.byte	0x28
 1087 034a 09       		.uleb128 0x9
 1088 034b 41525200 		.ascii	"ARR\000"
 1089 034f 05       		.byte	0x5
 1090 0350 AA01     		.2byte	0x1aa
 1091 0352 C6000000 		.4byte	0xc6
 1092 0356 2C       		.byte	0x2c
 1093 0357 09       		.uleb128 0x9
 1094 0358 52435200 		.ascii	"RCR\000"
 1095 035c 05       		.byte	0x5
 1096 035d AB01     		.2byte	0x1ab
 1097 035f C6000000 		.4byte	0xc6
 1098 0363 30       		.byte	0x30
 1099 0364 09       		.uleb128 0x9
 1100 0365 43435200 		.ascii	"CCR\000"
 1101 0369 05       		.byte	0x5
 1102 036a AC01     		.2byte	0x1ac
 1103 036c CC030000 		.4byte	0x3cc
 1104 0370 34       		.byte	0x34
 1105 0371 0A       		.uleb128 0xa
 1106 0372 1D030000 		.4byte	.LASF55
 1107 0376 05       		.byte	0x5
 1108 0377 AD01     		.2byte	0x1ad
 1109 0379 C6000000 		.4byte	0xc6
 1110 037d 44       		.byte	0x44
 1111 037e 09       		.uleb128 0x9
 1112 037f 44435200 		.ascii	"DCR\000"
 1113 0383 05       		.byte	0x5
 1114 0384 AE01     		.2byte	0x1ae
 1115 0386 C6000000 		.4byte	0xc6
 1116 038a 48       		.byte	0x48
 1117 038b 0A       		.uleb128 0xa
 1118 038c 2D000000 		.4byte	.LASF56
 1119 0390 05       		.byte	0x5
 1120 0391 AF01     		.2byte	0x1af
 1121 0393 C6000000 		.4byte	0xc6
 1122 0397 4C       		.byte	0x4c
 1123 0398 09       		.uleb128 0x9
 1124 0399 4F5200   		.ascii	"OR\000"
 1125 039c 05       		.byte	0x5
ARM GAS  /tmp/ccJkDL6M.s 			page 21


 1126 039d B001     		.2byte	0x1b0
 1127 039f C6000000 		.4byte	0xc6
 1128 03a3 50       		.byte	0x50
 1129 03a4 0A       		.uleb128 0xa
 1130 03a5 DD020000 		.4byte	.LASF57
 1131 03a9 05       		.byte	0x5
 1132 03aa B101     		.2byte	0x1b1
 1133 03ac C6000000 		.4byte	0xc6
 1134 03b0 54       		.byte	0x54
 1135 03b1 0A       		.uleb128 0xa
 1136 03b2 8A020000 		.4byte	.LASF58
 1137 03b6 05       		.byte	0x5
 1138 03b7 B201     		.2byte	0x1b2
 1139 03b9 C6000000 		.4byte	0xc6
 1140 03bd 58       		.byte	0x58
 1141 03be 0A       		.uleb128 0xa
 1142 03bf 8F020000 		.4byte	.LASF59
 1143 03c3 05       		.byte	0x5
 1144 03c4 B301     		.2byte	0x1b3
 1145 03c6 C6000000 		.4byte	0xc6
 1146 03ca 5C       		.byte	0x5c
 1147 03cb 00       		.byte	0
 1148 03cc 05       		.uleb128 0x5
 1149 03cd E9000000 		.4byte	0xe9
 1150 03d1 0B       		.uleb128 0xb
 1151 03d2 B2030000 		.4byte	.LASF60
 1152 03d6 05       		.byte	0x5
 1153 03d7 B401     		.2byte	0x1b4
 1154 03d9 B3020000 		.4byte	0x2b3
 1155 03dd 0C       		.uleb128 0xc
 1156 03de 04       		.byte	0x4
 1157 03df D1030000 		.4byte	0x3d1
 1158 03e3 0D       		.uleb128 0xd
 1159 03e4 01       		.byte	0x1
 1160 03e5 06       		.byte	0x6
 1161 03e6 55       		.byte	0x55
 1162 03e7 FE030000 		.4byte	0x3fe
 1163 03eb 0E       		.uleb128 0xe
 1164 03ec ED020000 		.4byte	.LASF61
 1165 03f0 00       		.sleb128 0
 1166 03f1 0E       		.uleb128 0xe
 1167 03f2 71040000 		.4byte	.LASF62
 1168 03f6 01       		.sleb128 1
 1169 03f7 0E       		.uleb128 0xe
 1170 03f8 67040000 		.4byte	.LASF63
 1171 03fc 02       		.sleb128 2
 1172 03fd 00       		.byte	0
 1173 03fe 04       		.uleb128 0x4
 1174 03ff CB040000 		.4byte	.LASF64
 1175 0403 06       		.byte	0x6
 1176 0404 59       		.byte	0x59
 1177 0405 E3030000 		.4byte	0x3e3
 1178 0409 04       		.uleb128 0x4
 1179 040a BE030000 		.4byte	.LASF65
 1180 040e 06       		.byte	0x6
 1181 040f 5E       		.byte	0x5e
 1182 0410 14040000 		.4byte	0x414
ARM GAS  /tmp/ccJkDL6M.s 			page 22


 1183 0414 0F       		.uleb128 0xf
 1184 0415 BE030000 		.4byte	.LASF65
 1185 0419 14       		.byte	0x14
 1186 041a 07       		.byte	0x7
 1187 041b 6F01     		.2byte	0x16f
 1188 041d 63040000 		.4byte	0x463
 1189 0421 0A       		.uleb128 0xa
 1190 0422 32000000 		.4byte	.LASF66
 1191 0426 07       		.byte	0x7
 1192 0427 7301     		.2byte	0x173
 1193 0429 FE030000 		.4byte	0x3fe
 1194 042d 00       		.byte	0
 1195 042e 0A       		.uleb128 0xa
 1196 042f B9000000 		.4byte	.LASF67
 1197 0433 07       		.byte	0x7
 1198 0434 7701     		.2byte	0x177
 1199 0436 4D050000 		.4byte	0x54d
 1200 043a 04       		.byte	0x4
 1201 043b 0A       		.uleb128 0xa
 1202 043c A6020000 		.4byte	.LASF68
 1203 0440 07       		.byte	0x7
 1204 0441 7B01     		.2byte	0x17b
 1205 0443 9D040000 		.4byte	0x49d
 1206 0447 08       		.byte	0x8
 1207 0448 0A       		.uleb128 0xa
 1208 0449 2E040000 		.4byte	.LASF69
 1209 044d 07       		.byte	0x7
 1210 044e 8301     		.2byte	0x183
 1211 0450 B4000000 		.4byte	0xb4
 1212 0454 0C       		.byte	0xc
 1213 0455 09       		.uleb128 0x9
 1214 0456 74696D00 		.ascii	"tim\000"
 1215 045a 07       		.byte	0x7
 1216 045b 8701     		.2byte	0x187
 1217 045d DD030000 		.4byte	0x3dd
 1218 0461 10       		.byte	0x10
 1219 0462 00       		.byte	0
 1220 0463 04       		.uleb128 0x4
 1221 0464 D6040000 		.4byte	.LASF70
 1222 0468 06       		.byte	0x6
 1223 0469 65       		.byte	0x65
 1224 046a 6E040000 		.4byte	0x46e
 1225 046e 0C       		.uleb128 0xc
 1226 046f 04       		.byte	0x4
 1227 0470 74040000 		.4byte	0x474
 1228 0474 10       		.uleb128 0x10
 1229 0475 7F040000 		.4byte	0x47f
 1230 0479 11       		.uleb128 0x11
 1231 047a 7F040000 		.4byte	0x47f
 1232 047e 00       		.byte	0
 1233 047f 0C       		.uleb128 0xc
 1234 0480 04       		.byte	0x4
 1235 0481 09040000 		.4byte	0x409
 1236 0485 0B       		.uleb128 0xb
 1237 0486 A9040000 		.4byte	.LASF71
 1238 048a 07       		.byte	0x7
 1239 048b 2001     		.2byte	0x120
ARM GAS  /tmp/ccJkDL6M.s 			page 23


 1240 048d B4000000 		.4byte	0xb4
 1241 0491 0B       		.uleb128 0xb
 1242 0492 82000000 		.4byte	.LASF72
 1243 0496 07       		.byte	0x7
 1244 0497 2501     		.2byte	0x125
 1245 0499 93000000 		.4byte	0x93
 1246 049d 0B       		.uleb128 0xb
 1247 049e 48000000 		.4byte	.LASF73
 1248 04a2 07       		.byte	0x7
 1249 04a3 2A01     		.2byte	0x12a
 1250 04a5 9E000000 		.4byte	0x9e
 1251 04a9 08       		.uleb128 0x8
 1252 04aa 08       		.byte	0x8
 1253 04ab 07       		.byte	0x7
 1254 04ac 2F01     		.2byte	0x12f
 1255 04ae CD040000 		.4byte	0x4cd
 1256 04b2 0A       		.uleb128 0xa
 1257 04b3 9A000000 		.4byte	.LASF74
 1258 04b7 07       		.byte	0x7
 1259 04b8 3301     		.2byte	0x133
 1260 04ba 85040000 		.4byte	0x485
 1261 04be 00       		.byte	0
 1262 04bf 0A       		.uleb128 0xa
 1263 04c0 EE040000 		.4byte	.LASF75
 1264 04c4 07       		.byte	0x7
 1265 04c5 3901     		.2byte	0x139
 1266 04c7 63040000 		.4byte	0x463
 1267 04cb 04       		.byte	0x4
 1268 04cc 00       		.byte	0
 1269 04cd 0B       		.uleb128 0xb
 1270 04ce 89040000 		.4byte	.LASF76
 1271 04d2 07       		.byte	0x7
 1272 04d3 3B01     		.2byte	0x13b
 1273 04d5 A9040000 		.4byte	0x4a9
 1274 04d9 08       		.uleb128 0x8
 1275 04da 34       		.byte	0x34
 1276 04db 07       		.byte	0x7
 1277 04dc 4001     		.2byte	0x140
 1278 04de 31050000 		.4byte	0x531
 1279 04e2 0A       		.uleb128 0xa
 1280 04e3 7F040000 		.4byte	.LASF77
 1281 04e7 07       		.byte	0x7
 1282 04e8 4601     		.2byte	0x146
 1283 04ea B4000000 		.4byte	0xb4
 1284 04ee 00       		.byte	0
 1285 04ef 0A       		.uleb128 0xa
 1286 04f0 A6020000 		.4byte	.LASF68
 1287 04f4 07       		.byte	0x7
 1288 04f5 4C01     		.2byte	0x14c
 1289 04f7 9D040000 		.4byte	0x49d
 1290 04fb 04       		.byte	0x4
 1291 04fc 0A       		.uleb128 0xa
 1292 04fd EE040000 		.4byte	.LASF75
 1293 0501 07       		.byte	0x7
 1294 0502 5201     		.2byte	0x152
 1295 0504 63040000 		.4byte	0x463
 1296 0508 08       		.byte	0x8
ARM GAS  /tmp/ccJkDL6M.s 			page 24


 1297 0509 0A       		.uleb128 0xa
 1298 050a 54040000 		.4byte	.LASF78
 1299 050e 07       		.byte	0x7
 1300 050f 5601     		.2byte	0x156
 1301 0511 31050000 		.4byte	0x531
 1302 0515 0C       		.byte	0xc
 1303 0516 09       		.uleb128 0x9
 1304 0517 63723200 		.ascii	"cr2\000"
 1305 051b 07       		.byte	0x7
 1306 051c 5C01     		.2byte	0x15c
 1307 051e B4000000 		.4byte	0xb4
 1308 0522 2C       		.byte	0x2c
 1309 0523 0A       		.uleb128 0xa
 1310 0524 7A040000 		.4byte	.LASF79
 1311 0528 07       		.byte	0x7
 1312 0529 6901     		.2byte	0x169
 1313 052b B4000000 		.4byte	0xb4
 1314 052f 30       		.byte	0x30
 1315 0530 00       		.byte	0
 1316 0531 06       		.uleb128 0x6
 1317 0532 CD040000 		.4byte	0x4cd
 1318 0536 41050000 		.4byte	0x541
 1319 053a 07       		.uleb128 0x7
 1320 053b CB000000 		.4byte	0xcb
 1321 053f 03       		.byte	0x3
 1322 0540 00       		.byte	0
 1323 0541 0B       		.uleb128 0xb
 1324 0542 6C030000 		.4byte	.LASF80
 1325 0546 07       		.byte	0x7
 1326 0547 6A01     		.2byte	0x16a
 1327 0549 D9040000 		.4byte	0x4d9
 1328 054d 0C       		.uleb128 0xc
 1329 054e 04       		.byte	0x4
 1330 054f 53050000 		.4byte	0x553
 1331 0553 12       		.uleb128 0x12
 1332 0554 41050000 		.4byte	0x541
 1333 0558 13       		.uleb128 0x13
 1334 0559 6A000000 		.4byte	.LASF95
 1335 055d 01       		.byte	0x1
 1336 055e 70       		.byte	0x70
 1337 055f 00000000 		.4byte	.LFB111
 1338 0563 A4000000 		.4byte	.LFE111-.LFB111
 1339 0567 01       		.uleb128 0x1
 1340 0568 9C       		.byte	0x9c
 1341 0569 89050000 		.4byte	0x589
 1342 056d 14       		.uleb128 0x14
 1343 056e E3020000 		.4byte	.LASF83
 1344 0572 01       		.byte	0x1
 1345 0573 70       		.byte	0x70
 1346 0574 7F040000 		.4byte	0x47f
 1347 0578 02       		.uleb128 0x2
 1348 0579 91       		.byte	0x91
 1349 057a 6C       		.sleb128 -20
 1350 057b 15       		.uleb128 0x15
 1351 057c 737200   		.ascii	"sr\000"
 1352 057f 01       		.byte	0x1
 1353 0580 71       		.byte	0x71
ARM GAS  /tmp/ccJkDL6M.s 			page 25


 1354 0581 9E000000 		.4byte	0x9e
 1355 0585 02       		.uleb128 0x2
 1356 0586 91       		.byte	0x91
 1357 0587 76       		.sleb128 -10
 1358 0588 00       		.byte	0
 1359 0589 16       		.uleb128 0x16
 1360 058a D4020000 		.4byte	.LASF81
 1361 058e 01       		.byte	0x1
 1362 058f D8       		.byte	0xd8
 1363 0590 00000000 		.4byte	.LFB112
 1364 0594 14000000 		.4byte	.LFE112-.LFB112
 1365 0598 01       		.uleb128 0x1
 1366 0599 9C       		.byte	0x9c
 1367 059a 17       		.uleb128 0x17
 1368 059b A0030000 		.4byte	.LASF82
 1369 059f 01       		.byte	0x1
 1370 05a0 5901     		.2byte	0x159
 1371 05a2 00000000 		.4byte	.LFB113
 1372 05a6 18000000 		.4byte	.LFE113-.LFB113
 1373 05aa 01       		.uleb128 0x1
 1374 05ab 9C       		.byte	0x9c
 1375 05ac 18       		.uleb128 0x18
 1376 05ad C6020000 		.4byte	.LASF85
 1377 05b1 01       		.byte	0x1
 1378 05b2 8F01     		.2byte	0x18f
 1379 05b4 00000000 		.4byte	.LFB114
 1380 05b8 C8010000 		.4byte	.LFE114-.LFB114
 1381 05bc 01       		.uleb128 0x1
 1382 05bd 9C       		.byte	0x9c
 1383 05be F0050000 		.4byte	0x5f0
 1384 05c2 19       		.uleb128 0x19
 1385 05c3 E3020000 		.4byte	.LASF83
 1386 05c7 01       		.byte	0x1
 1387 05c8 8F01     		.2byte	0x18f
 1388 05ca 7F040000 		.4byte	0x47f
 1389 05ce 02       		.uleb128 0x2
 1390 05cf 91       		.byte	0x91
 1391 05d0 6C       		.sleb128 -20
 1392 05d1 1A       		.uleb128 0x1a
 1393 05d2 70736300 		.ascii	"psc\000"
 1394 05d6 01       		.byte	0x1
 1395 05d7 9001     		.2byte	0x190
 1396 05d9 B4000000 		.4byte	0xb4
 1397 05dd 02       		.uleb128 0x2
 1398 05de 91       		.byte	0x91
 1399 05df 70       		.sleb128 -16
 1400 05e0 1B       		.uleb128 0x1b
 1401 05e1 37010000 		.4byte	.LASF84
 1402 05e5 01       		.byte	0x1
 1403 05e6 9101     		.2byte	0x191
 1404 05e8 B4000000 		.4byte	0xb4
 1405 05ec 02       		.uleb128 0x2
 1406 05ed 91       		.byte	0x91
 1407 05ee 74       		.sleb128 -12
 1408 05ef 00       		.byte	0
 1409 05f0 18       		.uleb128 0x18
 1410 05f1 0F000000 		.4byte	.LASF86
ARM GAS  /tmp/ccJkDL6M.s 			page 26


 1411 05f5 01       		.byte	0x1
 1412 05f6 5B02     		.2byte	0x25b
 1413 05f8 00000000 		.4byte	.LFB115
 1414 05fc 50000000 		.4byte	.LFE115-.LFB115
 1415 0600 01       		.uleb128 0x1
 1416 0601 9C       		.byte	0x9c
 1417 0602 16060000 		.4byte	0x616
 1418 0606 19       		.uleb128 0x19
 1419 0607 E3020000 		.4byte	.LASF83
 1420 060b 01       		.byte	0x1
 1421 060c 5B02     		.2byte	0x25b
 1422 060e 7F040000 		.4byte	0x47f
 1423 0612 02       		.uleb128 0x2
 1424 0613 91       		.byte	0x91
 1425 0614 74       		.sleb128 -12
 1426 0615 00       		.byte	0
 1427 0616 1C       		.uleb128 0x1c
 1428 0617 06030000 		.4byte	.LASF87
 1429 061b 01       		.byte	0x1
 1430 061c A102     		.2byte	0x2a1
 1431 061e 00000000 		.4byte	.LFB116
 1432 0622 80000000 		.4byte	.LFE116-.LFB116
 1433 0626 01       		.uleb128 0x1
 1434 0627 9C       		.byte	0x9c
 1435 0628 73060000 		.4byte	0x673
 1436 062c 19       		.uleb128 0x19
 1437 062d E3020000 		.4byte	.LASF83
 1438 0631 01       		.byte	0x1
 1439 0632 A102     		.2byte	0x2a1
 1440 0634 7F040000 		.4byte	0x47f
 1441 0638 02       		.uleb128 0x2
 1442 0639 91       		.byte	0x91
 1443 063a 74       		.sleb128 -12
 1444 063b 19       		.uleb128 0x19
 1445 063c D6030000 		.4byte	.LASF88
 1446 0640 01       		.byte	0x1
 1447 0641 A202     		.2byte	0x2a2
 1448 0643 91040000 		.4byte	0x491
 1449 0647 02       		.uleb128 0x2
 1450 0648 91       		.byte	0x91
 1451 0649 73       		.sleb128 -13
 1452 064a 19       		.uleb128 0x19
 1453 064b 44010000 		.4byte	.LASF89
 1454 064f 01       		.byte	0x1
 1455 0650 A302     		.2byte	0x2a3
 1456 0652 9D040000 		.4byte	0x49d
 1457 0656 02       		.uleb128 0x2
 1458 0657 91       		.byte	0x91
 1459 0658 70       		.sleb128 -16
 1460 0659 1D       		.uleb128 0x1d
 1461 065a 38000000 		.4byte	.LBB2
 1462 065e 44000000 		.4byte	.LBE2-.LBB2
 1463 0662 1B       		.uleb128 0x1b
 1464 0663 7A040000 		.4byte	.LASF79
 1465 0667 01       		.byte	0x1
 1466 0668 A902     		.2byte	0x2a9
 1467 066a B4000000 		.4byte	0xb4
ARM GAS  /tmp/ccJkDL6M.s 			page 27


 1468 066e 02       		.uleb128 0x2
 1469 066f 91       		.byte	0x91
 1470 0670 7C       		.sleb128 -4
 1471 0671 00       		.byte	0
 1472 0672 00       		.byte	0
 1473 0673 1C       		.uleb128 0x1c
 1474 0674 3C040000 		.4byte	.LASF90
 1475 0678 01       		.byte	0x1
 1476 0679 BF02     		.2byte	0x2bf
 1477 067b 00000000 		.4byte	.LFB117
 1478 067f 3A000000 		.4byte	.LFE117-.LFB117
 1479 0683 01       		.uleb128 0x1
 1480 0684 9C       		.byte	0x9c
 1481 0685 A8060000 		.4byte	0x6a8
 1482 0689 19       		.uleb128 0x19
 1483 068a E3020000 		.4byte	.LASF83
 1484 068e 01       		.byte	0x1
 1485 068f BF02     		.2byte	0x2bf
 1486 0691 7F040000 		.4byte	0x47f
 1487 0695 02       		.uleb128 0x2
 1488 0696 91       		.byte	0x91
 1489 0697 7C       		.sleb128 -4
 1490 0698 19       		.uleb128 0x19
 1491 0699 D6030000 		.4byte	.LASF88
 1492 069d 01       		.byte	0x1
 1493 069e BF02     		.2byte	0x2bf
 1494 06a0 91040000 		.4byte	0x491
 1495 06a4 02       		.uleb128 0x2
 1496 06a5 91       		.byte	0x91
 1497 06a6 7B       		.sleb128 -5
 1498 06a7 00       		.byte	0
 1499 06a8 1E       		.uleb128 0x1e
 1500 06a9 B3040000 		.4byte	.LASF91
 1501 06ad 08       		.byte	0x8
 1502 06ae 9806     		.2byte	0x698
 1503 06b0 F9000000 		.4byte	0xf9
 1504 06b4 1F       		.uleb128 0x1f
 1505 06b5 9A040000 		.4byte	.LASF92
 1506 06b9 01       		.byte	0x1
 1507 06ba 3B       		.byte	0x3b
 1508 06bb 09040000 		.4byte	0x409
 1509 06bf 05       		.uleb128 0x5
 1510 06c0 03       		.byte	0x3
 1511 06c1 00000000 		.4byte	PWMD3
 1512 06c5 00       		.byte	0
 1513              		.section	.debug_abbrev,"",%progbits
 1514              	.Ldebug_abbrev0:
 1515 0000 01       		.uleb128 0x1
 1516 0001 11       		.uleb128 0x11
 1517 0002 01       		.byte	0x1
 1518 0003 25       		.uleb128 0x25
 1519 0004 0E       		.uleb128 0xe
 1520 0005 13       		.uleb128 0x13
 1521 0006 0B       		.uleb128 0xb
 1522 0007 03       		.uleb128 0x3
 1523 0008 0E       		.uleb128 0xe
 1524 0009 55       		.uleb128 0x55
ARM GAS  /tmp/ccJkDL6M.s 			page 28


 1525 000a 17       		.uleb128 0x17
 1526 000b 11       		.uleb128 0x11
 1527 000c 01       		.uleb128 0x1
 1528 000d 10       		.uleb128 0x10
 1529 000e 17       		.uleb128 0x17
 1530 000f 00       		.byte	0
 1531 0010 00       		.byte	0
 1532 0011 02       		.uleb128 0x2
 1533 0012 24       		.uleb128 0x24
 1534 0013 00       		.byte	0
 1535 0014 0B       		.uleb128 0xb
 1536 0015 0B       		.uleb128 0xb
 1537 0016 3E       		.uleb128 0x3e
 1538 0017 0B       		.uleb128 0xb
 1539 0018 03       		.uleb128 0x3
 1540 0019 08       		.uleb128 0x8
 1541 001a 00       		.byte	0
 1542 001b 00       		.byte	0
 1543 001c 03       		.uleb128 0x3
 1544 001d 24       		.uleb128 0x24
 1545 001e 00       		.byte	0
 1546 001f 0B       		.uleb128 0xb
 1547 0020 0B       		.uleb128 0xb
 1548 0021 3E       		.uleb128 0x3e
 1549 0022 0B       		.uleb128 0xb
 1550 0023 03       		.uleb128 0x3
 1551 0024 0E       		.uleb128 0xe
 1552 0025 00       		.byte	0
 1553 0026 00       		.byte	0
 1554 0027 04       		.uleb128 0x4
 1555 0028 16       		.uleb128 0x16
 1556 0029 00       		.byte	0
 1557 002a 03       		.uleb128 0x3
 1558 002b 0E       		.uleb128 0xe
 1559 002c 3A       		.uleb128 0x3a
 1560 002d 0B       		.uleb128 0xb
 1561 002e 3B       		.uleb128 0x3b
 1562 002f 0B       		.uleb128 0xb
 1563 0030 49       		.uleb128 0x49
 1564 0031 13       		.uleb128 0x13
 1565 0032 00       		.byte	0
 1566 0033 00       		.byte	0
 1567 0034 05       		.uleb128 0x5
 1568 0035 35       		.uleb128 0x35
 1569 0036 00       		.byte	0
 1570 0037 49       		.uleb128 0x49
 1571 0038 13       		.uleb128 0x13
 1572 0039 00       		.byte	0
 1573 003a 00       		.byte	0
 1574 003b 06       		.uleb128 0x6
 1575 003c 01       		.uleb128 0x1
 1576 003d 01       		.byte	0x1
 1577 003e 49       		.uleb128 0x49
 1578 003f 13       		.uleb128 0x13
 1579 0040 01       		.uleb128 0x1
 1580 0041 13       		.uleb128 0x13
 1581 0042 00       		.byte	0
ARM GAS  /tmp/ccJkDL6M.s 			page 29


 1582 0043 00       		.byte	0
 1583 0044 07       		.uleb128 0x7
 1584 0045 21       		.uleb128 0x21
 1585 0046 00       		.byte	0
 1586 0047 49       		.uleb128 0x49
 1587 0048 13       		.uleb128 0x13
 1588 0049 2F       		.uleb128 0x2f
 1589 004a 0B       		.uleb128 0xb
 1590 004b 00       		.byte	0
 1591 004c 00       		.byte	0
 1592 004d 08       		.uleb128 0x8
 1593 004e 13       		.uleb128 0x13
 1594 004f 01       		.byte	0x1
 1595 0050 0B       		.uleb128 0xb
 1596 0051 0B       		.uleb128 0xb
 1597 0052 3A       		.uleb128 0x3a
 1598 0053 0B       		.uleb128 0xb
 1599 0054 3B       		.uleb128 0x3b
 1600 0055 05       		.uleb128 0x5
 1601 0056 01       		.uleb128 0x1
 1602 0057 13       		.uleb128 0x13
 1603 0058 00       		.byte	0
 1604 0059 00       		.byte	0
 1605 005a 09       		.uleb128 0x9
 1606 005b 0D       		.uleb128 0xd
 1607 005c 00       		.byte	0
 1608 005d 03       		.uleb128 0x3
 1609 005e 08       		.uleb128 0x8
 1610 005f 3A       		.uleb128 0x3a
 1611 0060 0B       		.uleb128 0xb
 1612 0061 3B       		.uleb128 0x3b
 1613 0062 05       		.uleb128 0x5
 1614 0063 49       		.uleb128 0x49
 1615 0064 13       		.uleb128 0x13
 1616 0065 38       		.uleb128 0x38
 1617 0066 0B       		.uleb128 0xb
 1618 0067 00       		.byte	0
 1619 0068 00       		.byte	0
 1620 0069 0A       		.uleb128 0xa
 1621 006a 0D       		.uleb128 0xd
 1622 006b 00       		.byte	0
 1623 006c 03       		.uleb128 0x3
 1624 006d 0E       		.uleb128 0xe
 1625 006e 3A       		.uleb128 0x3a
 1626 006f 0B       		.uleb128 0xb
 1627 0070 3B       		.uleb128 0x3b
 1628 0071 05       		.uleb128 0x5
 1629 0072 49       		.uleb128 0x49
 1630 0073 13       		.uleb128 0x13
 1631 0074 38       		.uleb128 0x38
 1632 0075 0B       		.uleb128 0xb
 1633 0076 00       		.byte	0
 1634 0077 00       		.byte	0
 1635 0078 0B       		.uleb128 0xb
 1636 0079 16       		.uleb128 0x16
 1637 007a 00       		.byte	0
 1638 007b 03       		.uleb128 0x3
ARM GAS  /tmp/ccJkDL6M.s 			page 30


 1639 007c 0E       		.uleb128 0xe
 1640 007d 3A       		.uleb128 0x3a
 1641 007e 0B       		.uleb128 0xb
 1642 007f 3B       		.uleb128 0x3b
 1643 0080 05       		.uleb128 0x5
 1644 0081 49       		.uleb128 0x49
 1645 0082 13       		.uleb128 0x13
 1646 0083 00       		.byte	0
 1647 0084 00       		.byte	0
 1648 0085 0C       		.uleb128 0xc
 1649 0086 0F       		.uleb128 0xf
 1650 0087 00       		.byte	0
 1651 0088 0B       		.uleb128 0xb
 1652 0089 0B       		.uleb128 0xb
 1653 008a 49       		.uleb128 0x49
 1654 008b 13       		.uleb128 0x13
 1655 008c 00       		.byte	0
 1656 008d 00       		.byte	0
 1657 008e 0D       		.uleb128 0xd
 1658 008f 04       		.uleb128 0x4
 1659 0090 01       		.byte	0x1
 1660 0091 0B       		.uleb128 0xb
 1661 0092 0B       		.uleb128 0xb
 1662 0093 3A       		.uleb128 0x3a
 1663 0094 0B       		.uleb128 0xb
 1664 0095 3B       		.uleb128 0x3b
 1665 0096 0B       		.uleb128 0xb
 1666 0097 01       		.uleb128 0x1
 1667 0098 13       		.uleb128 0x13
 1668 0099 00       		.byte	0
 1669 009a 00       		.byte	0
 1670 009b 0E       		.uleb128 0xe
 1671 009c 28       		.uleb128 0x28
 1672 009d 00       		.byte	0
 1673 009e 03       		.uleb128 0x3
 1674 009f 0E       		.uleb128 0xe
 1675 00a0 1C       		.uleb128 0x1c
 1676 00a1 0D       		.uleb128 0xd
 1677 00a2 00       		.byte	0
 1678 00a3 00       		.byte	0
 1679 00a4 0F       		.uleb128 0xf
 1680 00a5 13       		.uleb128 0x13
 1681 00a6 01       		.byte	0x1
 1682 00a7 03       		.uleb128 0x3
 1683 00a8 0E       		.uleb128 0xe
 1684 00a9 0B       		.uleb128 0xb
 1685 00aa 0B       		.uleb128 0xb
 1686 00ab 3A       		.uleb128 0x3a
 1687 00ac 0B       		.uleb128 0xb
 1688 00ad 3B       		.uleb128 0x3b
 1689 00ae 05       		.uleb128 0x5
 1690 00af 01       		.uleb128 0x1
 1691 00b0 13       		.uleb128 0x13
 1692 00b1 00       		.byte	0
 1693 00b2 00       		.byte	0
 1694 00b3 10       		.uleb128 0x10
 1695 00b4 15       		.uleb128 0x15
ARM GAS  /tmp/ccJkDL6M.s 			page 31


 1696 00b5 01       		.byte	0x1
 1697 00b6 27       		.uleb128 0x27
 1698 00b7 19       		.uleb128 0x19
 1699 00b8 01       		.uleb128 0x1
 1700 00b9 13       		.uleb128 0x13
 1701 00ba 00       		.byte	0
 1702 00bb 00       		.byte	0
 1703 00bc 11       		.uleb128 0x11
 1704 00bd 05       		.uleb128 0x5
 1705 00be 00       		.byte	0
 1706 00bf 49       		.uleb128 0x49
 1707 00c0 13       		.uleb128 0x13
 1708 00c1 00       		.byte	0
 1709 00c2 00       		.byte	0
 1710 00c3 12       		.uleb128 0x12
 1711 00c4 26       		.uleb128 0x26
 1712 00c5 00       		.byte	0
 1713 00c6 49       		.uleb128 0x49
 1714 00c7 13       		.uleb128 0x13
 1715 00c8 00       		.byte	0
 1716 00c9 00       		.byte	0
 1717 00ca 13       		.uleb128 0x13
 1718 00cb 2E       		.uleb128 0x2e
 1719 00cc 01       		.byte	0x1
 1720 00cd 03       		.uleb128 0x3
 1721 00ce 0E       		.uleb128 0xe
 1722 00cf 3A       		.uleb128 0x3a
 1723 00d0 0B       		.uleb128 0xb
 1724 00d1 3B       		.uleb128 0x3b
 1725 00d2 0B       		.uleb128 0xb
 1726 00d3 27       		.uleb128 0x27
 1727 00d4 19       		.uleb128 0x19
 1728 00d5 11       		.uleb128 0x11
 1729 00d6 01       		.uleb128 0x1
 1730 00d7 12       		.uleb128 0x12
 1731 00d8 06       		.uleb128 0x6
 1732 00d9 40       		.uleb128 0x40
 1733 00da 18       		.uleb128 0x18
 1734 00db 9642     		.uleb128 0x2116
 1735 00dd 19       		.uleb128 0x19
 1736 00de 01       		.uleb128 0x1
 1737 00df 13       		.uleb128 0x13
 1738 00e0 00       		.byte	0
 1739 00e1 00       		.byte	0
 1740 00e2 14       		.uleb128 0x14
 1741 00e3 05       		.uleb128 0x5
 1742 00e4 00       		.byte	0
 1743 00e5 03       		.uleb128 0x3
 1744 00e6 0E       		.uleb128 0xe
 1745 00e7 3A       		.uleb128 0x3a
 1746 00e8 0B       		.uleb128 0xb
 1747 00e9 3B       		.uleb128 0x3b
 1748 00ea 0B       		.uleb128 0xb
 1749 00eb 49       		.uleb128 0x49
 1750 00ec 13       		.uleb128 0x13
 1751 00ed 02       		.uleb128 0x2
 1752 00ee 18       		.uleb128 0x18
ARM GAS  /tmp/ccJkDL6M.s 			page 32


 1753 00ef 00       		.byte	0
 1754 00f0 00       		.byte	0
 1755 00f1 15       		.uleb128 0x15
 1756 00f2 34       		.uleb128 0x34
 1757 00f3 00       		.byte	0
 1758 00f4 03       		.uleb128 0x3
 1759 00f5 08       		.uleb128 0x8
 1760 00f6 3A       		.uleb128 0x3a
 1761 00f7 0B       		.uleb128 0xb
 1762 00f8 3B       		.uleb128 0x3b
 1763 00f9 0B       		.uleb128 0xb
 1764 00fa 49       		.uleb128 0x49
 1765 00fb 13       		.uleb128 0x13
 1766 00fc 02       		.uleb128 0x2
 1767 00fd 18       		.uleb128 0x18
 1768 00fe 00       		.byte	0
 1769 00ff 00       		.byte	0
 1770 0100 16       		.uleb128 0x16
 1771 0101 2E       		.uleb128 0x2e
 1772 0102 00       		.byte	0
 1773 0103 3F       		.uleb128 0x3f
 1774 0104 19       		.uleb128 0x19
 1775 0105 03       		.uleb128 0x3
 1776 0106 0E       		.uleb128 0xe
 1777 0107 3A       		.uleb128 0x3a
 1778 0108 0B       		.uleb128 0xb
 1779 0109 3B       		.uleb128 0x3b
 1780 010a 0B       		.uleb128 0xb
 1781 010b 27       		.uleb128 0x27
 1782 010c 19       		.uleb128 0x19
 1783 010d 11       		.uleb128 0x11
 1784 010e 01       		.uleb128 0x1
 1785 010f 12       		.uleb128 0x12
 1786 0110 06       		.uleb128 0x6
 1787 0111 40       		.uleb128 0x40
 1788 0112 18       		.uleb128 0x18
 1789 0113 9642     		.uleb128 0x2116
 1790 0115 19       		.uleb128 0x19
 1791 0116 00       		.byte	0
 1792 0117 00       		.byte	0
 1793 0118 17       		.uleb128 0x17
 1794 0119 2E       		.uleb128 0x2e
 1795 011a 00       		.byte	0
 1796 011b 3F       		.uleb128 0x3f
 1797 011c 19       		.uleb128 0x19
 1798 011d 03       		.uleb128 0x3
 1799 011e 0E       		.uleb128 0xe
 1800 011f 3A       		.uleb128 0x3a
 1801 0120 0B       		.uleb128 0xb
 1802 0121 3B       		.uleb128 0x3b
 1803 0122 05       		.uleb128 0x5
 1804 0123 27       		.uleb128 0x27
 1805 0124 19       		.uleb128 0x19
 1806 0125 11       		.uleb128 0x11
 1807 0126 01       		.uleb128 0x1
 1808 0127 12       		.uleb128 0x12
 1809 0128 06       		.uleb128 0x6
ARM GAS  /tmp/ccJkDL6M.s 			page 33


 1810 0129 40       		.uleb128 0x40
 1811 012a 18       		.uleb128 0x18
 1812 012b 9642     		.uleb128 0x2116
 1813 012d 19       		.uleb128 0x19
 1814 012e 00       		.byte	0
 1815 012f 00       		.byte	0
 1816 0130 18       		.uleb128 0x18
 1817 0131 2E       		.uleb128 0x2e
 1818 0132 01       		.byte	0x1
 1819 0133 3F       		.uleb128 0x3f
 1820 0134 19       		.uleb128 0x19
 1821 0135 03       		.uleb128 0x3
 1822 0136 0E       		.uleb128 0xe
 1823 0137 3A       		.uleb128 0x3a
 1824 0138 0B       		.uleb128 0xb
 1825 0139 3B       		.uleb128 0x3b
 1826 013a 05       		.uleb128 0x5
 1827 013b 27       		.uleb128 0x27
 1828 013c 19       		.uleb128 0x19
 1829 013d 11       		.uleb128 0x11
 1830 013e 01       		.uleb128 0x1
 1831 013f 12       		.uleb128 0x12
 1832 0140 06       		.uleb128 0x6
 1833 0141 40       		.uleb128 0x40
 1834 0142 18       		.uleb128 0x18
 1835 0143 9642     		.uleb128 0x2116
 1836 0145 19       		.uleb128 0x19
 1837 0146 01       		.uleb128 0x1
 1838 0147 13       		.uleb128 0x13
 1839 0148 00       		.byte	0
 1840 0149 00       		.byte	0
 1841 014a 19       		.uleb128 0x19
 1842 014b 05       		.uleb128 0x5
 1843 014c 00       		.byte	0
 1844 014d 03       		.uleb128 0x3
 1845 014e 0E       		.uleb128 0xe
 1846 014f 3A       		.uleb128 0x3a
 1847 0150 0B       		.uleb128 0xb
 1848 0151 3B       		.uleb128 0x3b
 1849 0152 05       		.uleb128 0x5
 1850 0153 49       		.uleb128 0x49
 1851 0154 13       		.uleb128 0x13
 1852 0155 02       		.uleb128 0x2
 1853 0156 18       		.uleb128 0x18
 1854 0157 00       		.byte	0
 1855 0158 00       		.byte	0
 1856 0159 1A       		.uleb128 0x1a
 1857 015a 34       		.uleb128 0x34
 1858 015b 00       		.byte	0
 1859 015c 03       		.uleb128 0x3
 1860 015d 08       		.uleb128 0x8
 1861 015e 3A       		.uleb128 0x3a
 1862 015f 0B       		.uleb128 0xb
 1863 0160 3B       		.uleb128 0x3b
 1864 0161 05       		.uleb128 0x5
 1865 0162 49       		.uleb128 0x49
 1866 0163 13       		.uleb128 0x13
ARM GAS  /tmp/ccJkDL6M.s 			page 34


 1867 0164 02       		.uleb128 0x2
 1868 0165 18       		.uleb128 0x18
 1869 0166 00       		.byte	0
 1870 0167 00       		.byte	0
 1871 0168 1B       		.uleb128 0x1b
 1872 0169 34       		.uleb128 0x34
 1873 016a 00       		.byte	0
 1874 016b 03       		.uleb128 0x3
 1875 016c 0E       		.uleb128 0xe
 1876 016d 3A       		.uleb128 0x3a
 1877 016e 0B       		.uleb128 0xb
 1878 016f 3B       		.uleb128 0x3b
 1879 0170 05       		.uleb128 0x5
 1880 0171 49       		.uleb128 0x49
 1881 0172 13       		.uleb128 0x13
 1882 0173 02       		.uleb128 0x2
 1883 0174 18       		.uleb128 0x18
 1884 0175 00       		.byte	0
 1885 0176 00       		.byte	0
 1886 0177 1C       		.uleb128 0x1c
 1887 0178 2E       		.uleb128 0x2e
 1888 0179 01       		.byte	0x1
 1889 017a 3F       		.uleb128 0x3f
 1890 017b 19       		.uleb128 0x19
 1891 017c 03       		.uleb128 0x3
 1892 017d 0E       		.uleb128 0xe
 1893 017e 3A       		.uleb128 0x3a
 1894 017f 0B       		.uleb128 0xb
 1895 0180 3B       		.uleb128 0x3b
 1896 0181 05       		.uleb128 0x5
 1897 0182 27       		.uleb128 0x27
 1898 0183 19       		.uleb128 0x19
 1899 0184 11       		.uleb128 0x11
 1900 0185 01       		.uleb128 0x1
 1901 0186 12       		.uleb128 0x12
 1902 0187 06       		.uleb128 0x6
 1903 0188 40       		.uleb128 0x40
 1904 0189 18       		.uleb128 0x18
 1905 018a 9742     		.uleb128 0x2117
 1906 018c 19       		.uleb128 0x19
 1907 018d 01       		.uleb128 0x1
 1908 018e 13       		.uleb128 0x13
 1909 018f 00       		.byte	0
 1910 0190 00       		.byte	0
 1911 0191 1D       		.uleb128 0x1d
 1912 0192 0B       		.uleb128 0xb
 1913 0193 01       		.byte	0x1
 1914 0194 11       		.uleb128 0x11
 1915 0195 01       		.uleb128 0x1
 1916 0196 12       		.uleb128 0x12
 1917 0197 06       		.uleb128 0x6
 1918 0198 00       		.byte	0
 1919 0199 00       		.byte	0
 1920 019a 1E       		.uleb128 0x1e
 1921 019b 34       		.uleb128 0x34
 1922 019c 00       		.byte	0
 1923 019d 03       		.uleb128 0x3
ARM GAS  /tmp/ccJkDL6M.s 			page 35


 1924 019e 0E       		.uleb128 0xe
 1925 019f 3A       		.uleb128 0x3a
 1926 01a0 0B       		.uleb128 0xb
 1927 01a1 3B       		.uleb128 0x3b
 1928 01a2 05       		.uleb128 0x5
 1929 01a3 49       		.uleb128 0x49
 1930 01a4 13       		.uleb128 0x13
 1931 01a5 3F       		.uleb128 0x3f
 1932 01a6 19       		.uleb128 0x19
 1933 01a7 3C       		.uleb128 0x3c
 1934 01a8 19       		.uleb128 0x19
 1935 01a9 00       		.byte	0
 1936 01aa 00       		.byte	0
 1937 01ab 1F       		.uleb128 0x1f
 1938 01ac 34       		.uleb128 0x34
 1939 01ad 00       		.byte	0
 1940 01ae 03       		.uleb128 0x3
 1941 01af 0E       		.uleb128 0xe
 1942 01b0 3A       		.uleb128 0x3a
 1943 01b1 0B       		.uleb128 0xb
 1944 01b2 3B       		.uleb128 0x3b
 1945 01b3 0B       		.uleb128 0xb
 1946 01b4 49       		.uleb128 0x49
 1947 01b5 13       		.uleb128 0x13
 1948 01b6 3F       		.uleb128 0x3f
 1949 01b7 19       		.uleb128 0x19
 1950 01b8 02       		.uleb128 0x2
 1951 01b9 18       		.uleb128 0x18
 1952 01ba 00       		.byte	0
 1953 01bb 00       		.byte	0
 1954 01bc 00       		.byte	0
 1955              		.section	.debug_aranges,"",%progbits
 1956 0000 4C000000 		.4byte	0x4c
 1957 0004 0200     		.2byte	0x2
 1958 0006 00000000 		.4byte	.Ldebug_info0
 1959 000a 04       		.byte	0x4
 1960 000b 00       		.byte	0
 1961 000c 0000     		.2byte	0
 1962 000e 0000     		.2byte	0
 1963 0010 00000000 		.4byte	.LFB111
 1964 0014 A4000000 		.4byte	.LFE111-.LFB111
 1965 0018 00000000 		.4byte	.LFB112
 1966 001c 14000000 		.4byte	.LFE112-.LFB112
 1967 0020 00000000 		.4byte	.LFB113
 1968 0024 18000000 		.4byte	.LFE113-.LFB113
 1969 0028 00000000 		.4byte	.LFB114
 1970 002c C8010000 		.4byte	.LFE114-.LFB114
 1971 0030 00000000 		.4byte	.LFB115
 1972 0034 50000000 		.4byte	.LFE115-.LFB115
 1973 0038 00000000 		.4byte	.LFB116
 1974 003c 80000000 		.4byte	.LFE116-.LFB116
 1975 0040 00000000 		.4byte	.LFB117
 1976 0044 3A000000 		.4byte	.LFE117-.LFB117
 1977 0048 00000000 		.4byte	0
 1978 004c 00000000 		.4byte	0
 1979              		.section	.debug_ranges,"",%progbits
 1980              	.Ldebug_ranges0:
ARM GAS  /tmp/ccJkDL6M.s 			page 36


 1981 0000 00000000 		.4byte	.LFB111
 1982 0004 A4000000 		.4byte	.LFE111
 1983 0008 00000000 		.4byte	.LFB112
 1984 000c 14000000 		.4byte	.LFE112
 1985 0010 00000000 		.4byte	.LFB113
 1986 0014 18000000 		.4byte	.LFE113
 1987 0018 00000000 		.4byte	.LFB114
 1988 001c C8010000 		.4byte	.LFE114
 1989 0020 00000000 		.4byte	.LFB115
 1990 0024 50000000 		.4byte	.LFE115
 1991 0028 00000000 		.4byte	.LFB116
 1992 002c 80000000 		.4byte	.LFE116
 1993 0030 00000000 		.4byte	.LFB117
 1994 0034 3A000000 		.4byte	.LFE117
 1995 0038 00000000 		.4byte	0
 1996 003c 00000000 		.4byte	0
 1997              		.section	.debug_line,"",%progbits
 1998              	.Ldebug_line0:
 1999 0000 D0020000 		.section	.debug_str,"MS",%progbits,1
 1999      0200F001 
 1999      00000201 
 1999      FB0E0D00 
 1999      01010101 
 2000              	.LASF36:
 2001 0000 41484231 		.ascii	"AHB1LPENR\000"
 2001      4C50454E 
 2001      5200
 2002              	.LASF54:
 2003 000a 43434552 		.ascii	"CCER\000"
 2003      00
 2004              	.LASF86:
 2005 000f 70776D5F 		.ascii	"pwm_lld_stop\000"
 2005      6C6C645F 
 2005      73746F70 
 2005      00
 2006              	.LASF26:
 2007 001c 41504231 		.ascii	"APB1RSTR\000"
 2007      52535452 
 2007      00
 2008              	.LASF30:
 2009 0025 41484232 		.ascii	"AHB2ENR\000"
 2009      454E5200 
 2010              	.LASF56:
 2011 002d 444D4152 		.ascii	"DMAR\000"
 2011      00
 2012              	.LASF66:
 2013 0032 73746174 		.ascii	"state\000"
 2013      6500
 2014              	.LASF53:
 2015 0038 43434D52 		.ascii	"CCMR2\000"
 2015      3200
 2016              	.LASF3:
 2017 003e 73686F72 		.ascii	"short int\000"
 2017      7420696E 
 2017      7400
 2018              	.LASF73:
 2019 0048 70776D63 		.ascii	"pwmcnt_t\000"
ARM GAS  /tmp/ccJkDL6M.s 			page 37


 2019      6E745F74 
 2019      00
 2020              	.LASF18:
 2021 0051 73697A65 		.ascii	"sizetype\000"
 2021      74797065 
 2021      00
 2022              	.LASF43:
 2023 005a 42444352 		.ascii	"BDCR\000"
 2023      00
 2024              	.LASF46:
 2025 005f 504C4C49 		.ascii	"PLLI2SCFGR\000"
 2025      32534346 
 2025      475200
 2026              	.LASF95:
 2027 006a 70776D5F 		.ascii	"pwm_lld_serve_interrupt\000"
 2027      6C6C645F 
 2027      73657276 
 2027      655F696E 
 2027      74657272 
 2028              	.LASF72:
 2029 0082 70776D63 		.ascii	"pwmchannel_t\000"
 2029      68616E6E 
 2029      656C5F74 
 2029      00
 2030              	.LASF9:
 2031 008f 5F5F7569 		.ascii	"__uint32_t\000"
 2031      6E743332 
 2031      5F7400
 2032              	.LASF74:
 2033 009a 6D6F6465 		.ascii	"mode\000"
 2033      00
 2034              	.LASF5:
 2035 009f 5F5F7569 		.ascii	"__uint16_t\000"
 2035      6E743136 
 2035      5F7400
 2036              	.LASF45:
 2037 00aa 53534347 		.ascii	"SSCGR\000"
 2037      5200
 2038              	.LASF22:
 2039 00b0 41484231 		.ascii	"AHB1RSTR\000"
 2039      52535452 
 2039      00
 2040              	.LASF67:
 2041 00b9 636F6E66 		.ascii	"config\000"
 2041      696700
 2042              	.LASF21:
 2043 00c0 43464752 		.ascii	"CFGR\000"
 2043      00
 2044              	.LASF38:
 2045 00c5 41484233 		.ascii	"AHB3LPENR\000"
 2045      4C50454E 
 2045      5200
 2046              	.LASF13:
 2047 00cf 75696E74 		.ascii	"uint8_t\000"
 2047      385F7400 
 2048              	.LASF33:
 2049 00d7 41504231 		.ascii	"APB1ENR\000"
ARM GAS  /tmp/ccJkDL6M.s 			page 38


 2049      454E5200 
 2050              	.LASF94:
 2051 00df 2F686F6D 		.ascii	"/home/makkmarci/workspace/ChibiOS_2.6.8/os/hal/plat"
 2051      652F6D61 
 2051      6B6B6D61 
 2051      7263692F 
 2051      776F726B 
 2052 0112 666F726D 		.ascii	"forms/STM32/TIMv1/pwm_lld.c\000"
 2052      732F5354 
 2052      4D33322F 
 2052      54494D76 
 2052      312F7077 
 2053              	.LASF16:
 2054 012e 75696E74 		.ascii	"uint32_t\000"
 2054      33325F74 
 2054      00
 2055              	.LASF84:
 2056 0137 63636572 		.ascii	"ccer\000"
 2056      00
 2057              	.LASF48:
 2058 013c 44434B43 		.ascii	"DCKCFGR\000"
 2058      46475200 
 2059              	.LASF89:
 2060 0144 77696474 		.ascii	"width\000"
 2060      6800
 2061              	.LASF31:
 2062 014a 41484233 		.ascii	"AHB3ENR\000"
 2062      454E5200 
 2063              	.LASF49:
 2064 0152 5243435F 		.ascii	"RCC_TypeDef\000"
 2064      54797065 
 2064      44656600 
 2065              	.LASF11:
 2066 015e 6C6F6E67 		.ascii	"long long int\000"
 2066      206C6F6E 
 2066      6720696E 
 2066      7400
 2067              	.LASF93:
 2068 016c 474E5520 		.ascii	"GNU C 4.9.3 20150303 (release) [ARM/embedded-4_9-br"
 2068      4320342E 
 2068      392E3320 
 2068      32303135 
 2068      30333033 
 2069 019f 616E6368 		.ascii	"anch revision 221220] -mcpu=cortex-m4 -mfloat-abi=h"
 2069      20726576 
 2069      6973696F 
 2069      6E203232 
 2069      31323230 
 2070 01d2 61726420 		.ascii	"ard -mfpu=fpv4-sp-d16 -mno-thumb-interwork -mthumb "
 2070      2D6D6670 
 2070      753D6670 
 2070      76342D73 
 2070      702D6431 
 2071 0205 2D676764 		.ascii	"-ggdb -fomit-frame-pointer -falign-functions=16 -ff"
 2071      62202D66 
 2071      6F6D6974 
 2071      2D667261 
ARM GAS  /tmp/ccJkDL6M.s 			page 39


 2071      6D652D70 
 2072 0238 756E6374 		.ascii	"unction-sections -fdata-sections -fno-common -fsing"
 2072      696F6E2D 
 2072      73656374 
 2072      696F6E73 
 2072      202D6664 
 2073 026b 6C652D70 		.ascii	"le-precision-constant\000"
 2073      72656369 
 2073      73696F6E 
 2073      2D636F6E 
 2073      7374616E 
 2074              	.LASF8:
 2075 0281 6C6F6E67 		.ascii	"long int\000"
 2075      20696E74 
 2075      00
 2076              	.LASF58:
 2077 028a 43435235 		.ascii	"CCR5\000"
 2077      00
 2078              	.LASF59:
 2079 028f 43435236 		.ascii	"CCR6\000"
 2079      00
 2080              	.LASF10:
 2081 0294 6C6F6E67 		.ascii	"long unsigned int\000"
 2081      20756E73 
 2081      69676E65 
 2081      6420696E 
 2081      7400
 2082              	.LASF68:
 2083 02a6 70657269 		.ascii	"period\000"
 2083      6F6400
 2084              	.LASF27:
 2085 02ad 41504232 		.ascii	"APB2RSTR\000"
 2085      52535452 
 2085      00
 2086              	.LASF4:
 2087 02b6 5F5F7569 		.ascii	"__uint8_t\000"
 2087      6E74385F 
 2087      7400
 2088              	.LASF52:
 2089 02c0 43434D52 		.ascii	"CCMR1\000"
 2089      3100
 2090              	.LASF85:
 2091 02c6 70776D5F 		.ascii	"pwm_lld_start\000"
 2091      6C6C645F 
 2091      73746172 
 2091      7400
 2092              	.LASF81:
 2093 02d4 56656374 		.ascii	"VectorB4\000"
 2093      6F724234 
 2093      00
 2094              	.LASF57:
 2095 02dd 43434D52 		.ascii	"CCMR3\000"
 2095      3300
 2096              	.LASF83:
 2097 02e3 70776D70 		.ascii	"pwmp\000"
 2097      00
 2098              	.LASF50:
ARM GAS  /tmp/ccJkDL6M.s 			page 40


 2099 02e8 534D4352 		.ascii	"SMCR\000"
 2099      00
 2100              	.LASF61:
 2101 02ed 50574D5F 		.ascii	"PWM_UNINIT\000"
 2101      554E494E 
 2101      495400
 2102              	.LASF2:
 2103 02f8 756E7369 		.ascii	"unsigned char\000"
 2103      676E6564 
 2103      20636861 
 2103      7200
 2104              	.LASF87:
 2105 0306 70776D5F 		.ascii	"pwm_lld_enable_channel\000"
 2105      6C6C645F 
 2105      656E6162 
 2105      6C655F63 
 2105      68616E6E 
 2106              	.LASF55:
 2107 031d 42445452 		.ascii	"BDTR\000"
 2107      00
 2108              	.LASF34:
 2109 0322 41504232 		.ascii	"APB2ENR\000"
 2109      454E5200 
 2110              	.LASF1:
 2111 032a 7369676E 		.ascii	"signed char\000"
 2111      65642063 
 2111      68617200 
 2112              	.LASF12:
 2113 0336 6C6F6E67 		.ascii	"long long unsigned int\000"
 2113      206C6F6E 
 2113      6720756E 
 2113      7369676E 
 2113      65642069 
 2114              	.LASF0:
 2115 034d 756E7369 		.ascii	"unsigned int\000"
 2115      676E6564 
 2115      20696E74 
 2115      00
 2116              	.LASF23:
 2117 035a 41484232 		.ascii	"AHB2RSTR\000"
 2117      52535452 
 2117      00
 2118              	.LASF14:
 2119 0363 75696E74 		.ascii	"uint16_t\000"
 2119      31365F74 
 2119      00
 2120              	.LASF80:
 2121 036c 50574D43 		.ascii	"PWMConfig\000"
 2121      6F6E6669 
 2121      6700
 2122              	.LASF51:
 2123 0376 44494552 		.ascii	"DIER\000"
 2123      00
 2124              	.LASF20:
 2125 037b 504C4C43 		.ascii	"PLLCFGR\000"
 2125      46475200 
 2126              	.LASF6:
ARM GAS  /tmp/ccJkDL6M.s 			page 41


 2127 0383 73686F72 		.ascii	"short unsigned int\000"
 2127      7420756E 
 2127      7369676E 
 2127      65642069 
 2127      6E7400
 2128              	.LASF40:
 2129 0396 41504231 		.ascii	"APB1LPENR\000"
 2129      4C50454E 
 2129      5200
 2130              	.LASF82:
 2131 03a0 70776D5F 		.ascii	"pwm_lld_init\000"
 2131      6C6C645F 
 2131      696E6974 
 2131      00
 2132              	.LASF19:
 2133 03ad 63686172 		.ascii	"char\000"
 2133      00
 2134              	.LASF60:
 2135 03b2 73746D33 		.ascii	"stm32_tim_t\000"
 2135      325F7469 
 2135      6D5F7400 
 2136              	.LASF65:
 2137 03be 50574D44 		.ascii	"PWMDriver\000"
 2137      72697665 
 2137      7200
 2138              	.LASF15:
 2139 03c8 696E7433 		.ascii	"int32_t\000"
 2139      325F7400 
 2140              	.LASF17:
 2141 03d0 5F426F6F 		.ascii	"_Bool\000"
 2141      6C00
 2142              	.LASF88:
 2143 03d6 6368616E 		.ascii	"channel\000"
 2143      6E656C00 
 2144              	.LASF37:
 2145 03de 41484232 		.ascii	"AHB2LPENR\000"
 2145      4C50454E 
 2145      5200
 2146              	.LASF25:
 2147 03e8 52455345 		.ascii	"RESERVED0\000"
 2147      52564544 
 2147      3000
 2148              	.LASF28:
 2149 03f2 52455345 		.ascii	"RESERVED1\000"
 2149      52564544 
 2149      3100
 2150              	.LASF32:
 2151 03fc 52455345 		.ascii	"RESERVED2\000"
 2151      52564544 
 2151      3200
 2152              	.LASF35:
 2153 0406 52455345 		.ascii	"RESERVED3\000"
 2153      52564544 
 2153      3300
 2154              	.LASF39:
 2155 0410 52455345 		.ascii	"RESERVED4\000"
 2155      52564544 
ARM GAS  /tmp/ccJkDL6M.s 			page 42


 2155      3400
 2156              	.LASF42:
 2157 041a 52455345 		.ascii	"RESERVED5\000"
 2157      52564544 
 2157      3500
 2158              	.LASF44:
 2159 0424 52455345 		.ascii	"RESERVED6\000"
 2159      52564544 
 2159      3600
 2160              	.LASF69:
 2161 042e 636C6F63 		.ascii	"clock\000"
 2161      6B00
 2162              	.LASF29:
 2163 0434 41484231 		.ascii	"AHB1ENR\000"
 2163      454E5200 
 2164              	.LASF90:
 2165 043c 70776D5F 		.ascii	"pwm_lld_disable_channel\000"
 2165      6C6C645F 
 2165      64697361 
 2165      626C655F 
 2165      6368616E 
 2166              	.LASF78:
 2167 0454 6368616E 		.ascii	"channels\000"
 2167      6E656C73 
 2167      00
 2168              	.LASF7:
 2169 045d 5F5F696E 		.ascii	"__int32_t\000"
 2169      7433325F 
 2169      7400
 2170              	.LASF63:
 2171 0467 50574D5F 		.ascii	"PWM_READY\000"
 2171      52454144 
 2171      5900
 2172              	.LASF62:
 2173 0471 50574D5F 		.ascii	"PWM_STOP\000"
 2173      53544F50 
 2173      00
 2174              	.LASF79:
 2175 047a 64696572 		.ascii	"dier\000"
 2175      00
 2176              	.LASF77:
 2177 047f 66726571 		.ascii	"frequency\000"
 2177      75656E63 
 2177      7900
 2178              	.LASF76:
 2179 0489 50574D43 		.ascii	"PWMChannelConfig\000"
 2179      68616E6E 
 2179      656C436F 
 2179      6E666967 
 2179      00
 2180              	.LASF92:
 2181 049a 50574D44 		.ascii	"PWMD3\000"
 2181      3300
 2182              	.LASF24:
 2183 04a0 41484233 		.ascii	"AHB3RSTR\000"
 2183      52535452 
 2183      00
ARM GAS  /tmp/ccJkDL6M.s 			page 43


 2184              	.LASF71:
 2185 04a9 70776D6D 		.ascii	"pwmmode_t\000"
 2185      6F64655F 
 2185      7400
 2186              	.LASF91:
 2187 04b3 49544D5F 		.ascii	"ITM_RxBuffer\000"
 2187      52784275 
 2187      66666572 
 2187      00
 2188              	.LASF47:
 2189 04c0 504C4C53 		.ascii	"PLLSAICFGR\000"
 2189      41494346 
 2189      475200
 2190              	.LASF64:
 2191 04cb 70776D73 		.ascii	"pwmstate_t\000"
 2191      74617465 
 2191      5F7400
 2192              	.LASF70:
 2193 04d6 70776D63 		.ascii	"pwmcallback_t\000"
 2193      616C6C62 
 2193      61636B5F 
 2193      7400
 2194              	.LASF41:
 2195 04e4 41504232 		.ascii	"APB2LPENR\000"
 2195      4C50454E 
 2195      5200
 2196              	.LASF75:
 2197 04ee 63616C6C 		.ascii	"callback\000"
 2197      6261636B 
 2197      00
 2198              		.ident	"GCC: (GNU Tools for ARM Embedded Processors) 4.9.3 20150303 (release) [ARM/embedded-4_9-br
ARM GAS  /tmp/ccJkDL6M.s 			page 44


DEFINED SYMBOLS
                            *ABS*:00000000 pwm_lld.c
     /tmp/ccJkDL6M.s:25     .bss.PWMD3:00000000 PWMD3
     /tmp/ccJkDL6M.s:22     .bss.PWMD3:00000000 $d
     /tmp/ccJkDL6M.s:28     .text.pwm_lld_serve_interrupt:00000000 $t
     /tmp/ccJkDL6M.s:33     .text.pwm_lld_serve_interrupt:00000000 pwm_lld_serve_interrupt
     /tmp/ccJkDL6M.s:135    .text.VectorB4:00000000 $t
     /tmp/ccJkDL6M.s:141    .text.VectorB4:00000000 VectorB4
     /tmp/ccJkDL6M.s:161    .text.VectorB4:00000010 $d
     /tmp/ccJkDL6M.s:166    .text.pwm_lld_init:00000000 $t
     /tmp/ccJkDL6M.s:172    .text.pwm_lld_init:00000000 pwm_lld_init
     /tmp/ccJkDL6M.s:194    .text.pwm_lld_init:00000010 $d
     /tmp/ccJkDL6M.s:200    .rodata:00000000 $d
     /tmp/ccJkDL6M.s:204    .text.pwm_lld_start:00000000 $t
     /tmp/ccJkDL6M.s:210    .text.pwm_lld_start:00000000 pwm_lld_start
     /tmp/ccJkDL6M.s:476    .text.pwm_lld_start:000001b8 $d
     /tmp/ccJkDL6M.s:484    .text.pwm_lld_stop:00000000 $t
     /tmp/ccJkDL6M.s:490    .text.pwm_lld_stop:00000000 pwm_lld_stop
     /tmp/ccJkDL6M.s:545    .text.pwm_lld_stop:00000048 $d
     /tmp/ccJkDL6M.s:551    .text.pwm_lld_enable_channel:00000000 $t
     /tmp/ccJkDL6M.s:557    .text.pwm_lld_enable_channel:00000000 pwm_lld_enable_channel
     /tmp/ccJkDL6M.s:634    .text.pwm_lld_disable_channel:00000000 $t
     /tmp/ccJkDL6M.s:640    .text.pwm_lld_disable_channel:00000000 pwm_lld_disable_channel
                     .debug_frame:00000010 $d
     /tmp/ccJkDL6M.s:165    .text.VectorB4:00000014 $t
     /tmp/ccJkDL6M.s:199    .text.pwm_lld_init:00000018 $t
     /tmp/ccJkDL6M.s:483    .text.pwm_lld_start:000001c8 $t

UNDEFINED SYMBOLS
_port_irq_epilogue
pwmObjectInit
nvicEnableVector
chDbgPanic
nvicDisableVector
