ARM GAS  /tmp/ccJkDL6M.s 			page 1


   1              		.syntax unified
   2              		.cpu cortex-m4
   3              		.eabi_attribute 27, 1
   4              		.eabi_attribute 28, 1
   5              		.fpu fpv4-sp-d16
   6              		.eabi_attribute 20, 1
   7              		.eabi_attribute 21, 1
   8              		.eabi_attribute 23, 3
   9              		.eabi_attribute 24, 1
  10              		.eabi_attribute 25, 1
  11              		.eabi_attribute 26, 1
  12              		.eabi_attribute 30, 6
  13              		.eabi_attribute 34, 1
  14              		.eabi_attribute 18, 4
  15              		.thumb
  16              		.file	"pwm_lld.c"
  17              		.text
  18              	.Ltext0:
  19              		.cfi_sections	.debug_frame
  20              		.global	PWMD3
  21              		.section	.bss.PWMD3,"aw",%nobits
  22              		.align	2
  23              		.type	PWMD3, %object
  24              		.size	PWMD3, 20
  25              	PWMD3:
  26 0000 00000000 		.space	20
  26      00000000 
  26      00000000 
  26      00000000 
  26      00000000 
  27              		.section	.text.pwm_lld_serve_interrupt,"ax",%progbits
  28              		.align	2
  29              		.p2align 4,,15
  30              		.thumb
  31              		.thumb_func
  32              		.type	pwm_lld_serve_interrupt, %function
  33              	pwm_lld_serve_interrupt:
  34              	.LFB111:
  35              		.file 1 "/home/makkmarci/workspace/ChibiOS_2.6.8/os/hal/platforms/STM32/TIMv1/pwm_lld.c"
  36              		.loc 1 112 0
  37              		.cfi_startproc
  38              		@ args = 0, pretend = 0, frame = 16
  39              		@ frame_needed = 0, uses_anonymous_args = 0
  40 0000 00B5     		push	{lr}
  41              		.cfi_def_cfa_offset 4
  42              		.cfi_offset 14, -4
  43 0002 85B0     		sub	sp, sp, #20
  44              		.cfi_def_cfa_offset 24
  45 0004 0190     		str	r0, [sp, #4]
  46              		.loc 1 115 0
  47 0006 019B     		ldr	r3, [sp, #4]
  48 0008 1B69     		ldr	r3, [r3, #16]
  49 000a 1B69     		ldr	r3, [r3, #16]
  50 000c ADF80E30 		strh	r3, [sp, #14]	@ movhi
  51              		.loc 1 116 0
  52 0010 019B     		ldr	r3, [sp, #4]
  53 0012 1B69     		ldr	r3, [r3, #16]
ARM GAS  /tmp/ccJkDL6M.s 			page 2


  54 0014 DB68     		ldr	r3, [r3, #12]
  55 0016 DBB2     		uxtb	r3, r3
  56 0018 9AB2     		uxth	r2, r3
  57 001a BDF80E30 		ldrh	r3, [sp, #14]	@ movhi
  58 001e 1340     		ands	r3, r3, r2
  59 0020 ADF80E30 		strh	r3, [sp, #14]	@ movhi
  60              		.loc 1 117 0
  61 0024 019B     		ldr	r3, [sp, #4]
  62 0026 1B69     		ldr	r3, [r3, #16]
  63 0028 BDF80E20 		ldrh	r2, [sp, #14]
  64 002c D243     		mvns	r2, r2
  65 002e 1A61     		str	r2, [r3, #16]
  66              		.loc 1 118 0
  67 0030 BDF80E30 		ldrh	r3, [sp, #14]
  68 0034 03F00203 		and	r3, r3, #2
  69 0038 002B     		cmp	r3, #0
  70 003a 04D0     		beq	.L2
  71              		.loc 1 119 0
  72 003c 019B     		ldr	r3, [sp, #4]
  73 003e 5B68     		ldr	r3, [r3, #4]
  74 0040 1B69     		ldr	r3, [r3, #16]
  75 0042 0198     		ldr	r0, [sp, #4]
  76 0044 9847     		blx	r3
  77              	.L2:
  78              		.loc 1 120 0
  79 0046 BDF80E30 		ldrh	r3, [sp, #14]
  80 004a 03F00403 		and	r3, r3, #4
  81 004e 002B     		cmp	r3, #0
  82 0050 04D0     		beq	.L3
  83              		.loc 1 121 0
  84 0052 019B     		ldr	r3, [sp, #4]
  85 0054 5B68     		ldr	r3, [r3, #4]
  86 0056 9B69     		ldr	r3, [r3, #24]
  87 0058 0198     		ldr	r0, [sp, #4]
  88 005a 9847     		blx	r3
  89              	.L3:
  90              		.loc 1 122 0
  91 005c BDF80E30 		ldrh	r3, [sp, #14]
  92 0060 03F00803 		and	r3, r3, #8
  93 0064 002B     		cmp	r3, #0
  94 0066 04D0     		beq	.L4
  95              		.loc 1 123 0
  96 0068 019B     		ldr	r3, [sp, #4]
  97 006a 5B68     		ldr	r3, [r3, #4]
  98 006c 1B6A     		ldr	r3, [r3, #32]
  99 006e 0198     		ldr	r0, [sp, #4]
 100 0070 9847     		blx	r3
 101              	.L4:
 102              		.loc 1 124 0
 103 0072 BDF80E30 		ldrh	r3, [sp, #14]
 104 0076 03F01003 		and	r3, r3, #16
 105 007a 002B     		cmp	r3, #0
 106 007c 04D0     		beq	.L5
 107              		.loc 1 125 0
 108 007e 019B     		ldr	r3, [sp, #4]
 109 0080 5B68     		ldr	r3, [r3, #4]
 110 0082 9B6A     		ldr	r3, [r3, #40]
ARM GAS  /tmp/ccJkDL6M.s 			page 3


 111 0084 0198     		ldr	r0, [sp, #4]
 112 0086 9847     		blx	r3
 113              	.L5:
 114              		.loc 1 126 0
 115 0088 BDF80E30 		ldrh	r3, [sp, #14]
 116 008c 03F00103 		and	r3, r3, #1
 117 0090 002B     		cmp	r3, #0
 118 0092 04D0     		beq	.L1
 119              		.loc 1 127 0
 120 0094 019B     		ldr	r3, [sp, #4]
 121 0096 5B68     		ldr	r3, [r3, #4]
 122 0098 9B68     		ldr	r3, [r3, #8]
 123 009a 0198     		ldr	r0, [sp, #4]
 124 009c 9847     		blx	r3
 125              	.L1:
 126              		.loc 1 128 0
 127 009e 05B0     		add	sp, sp, #20
 128              		.cfi_def_cfa_offset 4
 129              		@ sp needed
 130 00a0 5DF804FB 		ldr	pc, [sp], #4
 131              		.cfi_endproc
 132              	.LFE111:
 133              		.size	pwm_lld_serve_interrupt, .-pwm_lld_serve_interrupt
 134 00a4 AFF30080 		.section	.text.VectorB4,"ax",%progbits
 134      AFF30080 
 134      AFF30080 
 135              		.align	2
 136              		.p2align 4,,15
 137              		.global	VectorB4
 138              		.thumb
 139              		.thumb_func
 140              		.type	VectorB4, %function
 141              	VectorB4:
 142              	.LFB112:
 143              		.loc 1 216 0
 144              		.cfi_startproc
 145              		@ args = 0, pretend = 0, frame = 0
 146              		@ frame_needed = 0, uses_anonymous_args = 0
 147 0000 08B5     		push	{r3, lr}
 148              		.cfi_def_cfa_offset 8
 149              		.cfi_offset 3, -8
 150              		.cfi_offset 14, -4
 151              		.loc 1 220 0
 152 0002 0348     		ldr	r0, .L8
 153 0004 FFF7FEFF 		bl	pwm_lld_serve_interrupt
 154              		.loc 1 222 0
 155 0008 FFF7FEFF 		bl	_port_irq_epilogue
 156              		.loc 1 223 0
 157 000c 08BD     		pop	{r3, pc}
 158              	.L9:
 159 000e 00BF     		.align	2
 160              	.L8:
 161 0010 00000000 		.word	PWMD3
 162              		.cfi_endproc
 163              	.LFE112:
 164              		.size	VectorB4, .-VectorB4
 165 0014 AFF30080 		.section	.text.pwm_lld_init,"ax",%progbits
ARM GAS  /tmp/ccJkDL6M.s 			page 4


 165      AFF30080 
 165      AFF30080 
 166              		.align	2
 167              		.p2align 4,,15
 168              		.global	pwm_lld_init
 169              		.thumb
 170              		.thumb_func
 171              		.type	pwm_lld_init, %function
 172              	pwm_lld_init:
 173              	.LFB113:
 174              		.loc 1 345 0
 175              		.cfi_startproc
 176              		@ args = 0, pretend = 0, frame = 0
 177              		@ frame_needed = 0, uses_anonymous_args = 0
 178 0000 08B5     		push	{r3, lr}
 179              		.cfi_def_cfa_offset 8
 180              		.cfi_offset 3, -8
 181              		.cfi_offset 14, -4
 182              		.loc 1 361 0
 183 0002 0348     		ldr	r0, .L11
 184 0004 FFF7FEFF 		bl	pwmObjectInit
 185              		.loc 1 362 0
 186 0008 014B     		ldr	r3, .L11
 187 000a 024A     		ldr	r2, .L11+4
 188 000c 1A61     		str	r2, [r3, #16]
 189              		.loc 1 388 0
 190 000e 08BD     		pop	{r3, pc}
 191              	.L12:
 192              		.align	2
 193              	.L11:
 194 0010 00000000 		.word	PWMD3
 195 0014 00040040 		.word	1073742848
 196              		.cfi_endproc
 197              	.LFE113:
 198              		.size	pwm_lld_init, .-pwm_lld_init
 199 0018 AFF30080 		.section	.rodata
 199      AFF30080 
 200              		.align	2
 201              	.LC0:
 202 0000 70776D5F 		.ascii	"pwm_lld_start(), #1\000"
 202      6C6C645F 
 202      73746172 
 202      7428292C 
 202      20233100 
 203              		.section	.text.pwm_lld_start,"ax",%progbits
 204              		.align	2
 205              		.p2align 4,,15
 206              		.global	pwm_lld_start
 207              		.thumb
 208              		.thumb_func
 209              		.type	pwm_lld_start, %function
 210              	pwm_lld_start:
 211              	.LFB114:
 212              		.loc 1 399 0
 213              		.cfi_startproc
 214              		@ args = 0, pretend = 0, frame = 16
 215              		@ frame_needed = 0, uses_anonymous_args = 0
ARM GAS  /tmp/ccJkDL6M.s 			page 5


 216 0000 00B5     		push	{lr}
 217              		.cfi_def_cfa_offset 4
 218              		.cfi_offset 14, -4
 219 0002 85B0     		sub	sp, sp, #20
 220              		.cfi_def_cfa_offset 24
 221 0004 0190     		str	r0, [sp, #4]
 222              		.loc 1 403 0
 223 0006 019B     		ldr	r3, [sp, #4]
 224 0008 1B78     		ldrb	r3, [r3]	@ zero_extendqisi2
 225 000a 012B     		cmp	r3, #1
 226 000c 24D1     		bne	.L14
 227              		.loc 1 430 0
 228 000e 019B     		ldr	r3, [sp, #4]
 229 0010 694A     		ldr	r2, .L31
 230 0012 9342     		cmp	r3, r2
 231 0014 15D1     		bne	.L15
 232              		.loc 1 431 0
 233 0016 694A     		ldr	r2, .L31+4
 234 0018 684B     		ldr	r3, .L31+4
 235 001a 1B6C     		ldr	r3, [r3, #64]
 236 001c 43F00203 		orr	r3, r3, #2
 237 0020 1364     		str	r3, [r2, #64]
 238              		.loc 1 432 0
 239 0022 664A     		ldr	r2, .L31+4
 240 0024 654B     		ldr	r3, .L31+4
 241 0026 1B6A     		ldr	r3, [r3, #32]
 242 0028 43F00203 		orr	r3, r3, #2
 243 002c 1362     		str	r3, [r2, #32]
 244 002e 634B     		ldr	r3, .L31+4
 245 0030 0022     		movs	r2, #0
 246 0032 1A62     		str	r2, [r3, #32]
 247              		.loc 1 433 0
 248 0034 1D20     		movs	r0, #29
 249 0036 7021     		movs	r1, #112
 250 0038 FFF7FEFF 		bl	nvicEnableVector
 251              		.loc 1 435 0
 252 003c 019B     		ldr	r3, [sp, #4]
 253 003e 604A     		ldr	r2, .L31+8
 254 0040 DA60     		str	r2, [r3, #12]
 255              	.L15:
 256              		.loc 1 484 0
 257 0042 019B     		ldr	r3, [sp, #4]
 258 0044 1B69     		ldr	r3, [r3, #16]
 259 0046 46F66802 		movw	r2, #26728
 260 004a 9A61     		str	r2, [r3, #24]
 261              		.loc 1 486 0
 262 004c 019B     		ldr	r3, [sp, #4]
 263 004e 1B69     		ldr	r3, [r3, #16]
 264 0050 46F66802 		movw	r2, #26728
 265 0054 DA61     		str	r2, [r3, #28]
 266 0056 17E0     		b	.L16
 267              	.L14:
 268              		.loc 1 491 0
 269 0058 019B     		ldr	r3, [sp, #4]
 270 005a 1B69     		ldr	r3, [r3, #16]
 271 005c 0022     		movs	r2, #0
 272 005e 1A60     		str	r2, [r3]
ARM GAS  /tmp/ccJkDL6M.s 			page 6


 273              		.loc 1 492 0
 274 0060 019B     		ldr	r3, [sp, #4]
 275 0062 1B69     		ldr	r3, [r3, #16]
 276 0064 0022     		movs	r2, #0
 277 0066 5A63     		str	r2, [r3, #52]
 278              		.loc 1 493 0
 279 0068 019B     		ldr	r3, [sp, #4]
 280 006a 1B69     		ldr	r3, [r3, #16]
 281 006c 0022     		movs	r2, #0
 282 006e 9A63     		str	r2, [r3, #56]
 283              		.loc 1 494 0
 284 0070 019B     		ldr	r3, [sp, #4]
 285 0072 1B69     		ldr	r3, [r3, #16]
 286 0074 0022     		movs	r2, #0
 287 0076 DA63     		str	r2, [r3, #60]
 288              		.loc 1 495 0
 289 0078 019B     		ldr	r3, [sp, #4]
 290 007a 1B69     		ldr	r3, [r3, #16]
 291 007c 0022     		movs	r2, #0
 292 007e 1A64     		str	r2, [r3, #64]
 293              		.loc 1 496 0
 294 0080 019B     		ldr	r3, [sp, #4]
 295 0082 1B69     		ldr	r3, [r3, #16]
 296 0084 0022     		movs	r2, #0
 297 0086 5A62     		str	r2, [r3, #36]
 298              	.L16:
 299              		.loc 1 500 0
 300 0088 019B     		ldr	r3, [sp, #4]
 301 008a DA68     		ldr	r2, [r3, #12]
 302 008c 019B     		ldr	r3, [sp, #4]
 303 008e 5B68     		ldr	r3, [r3, #4]
 304 0090 1B68     		ldr	r3, [r3]
 305 0092 B2FBF3F3 		udiv	r3, r2, r3
 306 0096 013B     		subs	r3, r3, #1
 307 0098 0293     		str	r3, [sp, #8]
 308              		.loc 1 501 0
 309 009a 029B     		ldr	r3, [sp, #8]
 310 009c B3F5803F 		cmp	r3, #65536
 311 00a0 0AD2     		bcs	.L17
 312              		.loc 1 501 0 is_stmt 0 discriminator 2
 313 00a2 029B     		ldr	r3, [sp, #8]
 314 00a4 0133     		adds	r3, r3, #1
 315 00a6 019A     		ldr	r2, [sp, #4]
 316 00a8 5268     		ldr	r2, [r2, #4]
 317 00aa 1268     		ldr	r2, [r2]
 318 00ac 02FB03F2 		mul	r2, r2, r3
 319 00b0 019B     		ldr	r3, [sp, #4]
 320 00b2 DB68     		ldr	r3, [r3, #12]
 321 00b4 9A42     		cmp	r2, r3
 322 00b6 02D0     		beq	.L18
 323              	.L17:
 324              		.loc 1 501 0 discriminator 3
 325 00b8 4248     		ldr	r0, .L31+12
 326 00ba FFF7FEFF 		bl	chDbgPanic
 327              	.L18:
 328              		.loc 1 504 0 is_stmt 1
 329 00be 019B     		ldr	r3, [sp, #4]
ARM GAS  /tmp/ccJkDL6M.s 			page 7


 330 00c0 1B69     		ldr	r3, [r3, #16]
 331 00c2 029A     		ldr	r2, [sp, #8]
 332 00c4 92B2     		uxth	r2, r2
 333 00c6 9A62     		str	r2, [r3, #40]
 334              		.loc 1 505 0
 335 00c8 019B     		ldr	r3, [sp, #4]
 336 00ca 1B69     		ldr	r3, [r3, #16]
 337 00cc 019A     		ldr	r2, [sp, #4]
 338 00ce 1289     		ldrh	r2, [r2, #8]
 339 00d0 013A     		subs	r2, r2, #1
 340 00d2 92B2     		uxth	r2, r2
 341 00d4 DA62     		str	r2, [r3, #44]
 342              		.loc 1 506 0
 343 00d6 019B     		ldr	r3, [sp, #4]
 344 00d8 1B69     		ldr	r3, [r3, #16]
 345 00da 019A     		ldr	r2, [sp, #4]
 346 00dc 5268     		ldr	r2, [r2, #4]
 347 00de D26A     		ldr	r2, [r2, #44]
 348 00e0 5A60     		str	r2, [r3, #4]
 349              		.loc 1 509 0
 350 00e2 0023     		movs	r3, #0
 351 00e4 0393     		str	r3, [sp, #12]
 352              		.loc 1 510 0
 353 00e6 019B     		ldr	r3, [sp, #4]
 354 00e8 5B68     		ldr	r3, [r3, #4]
 355 00ea DB68     		ldr	r3, [r3, #12]
 356 00ec 03F00F03 		and	r3, r3, #15
 357 00f0 012B     		cmp	r3, #1
 358 00f2 05D0     		beq	.L20
 359 00f4 022B     		cmp	r3, #2
 360 00f6 07D1     		bne	.L19
 361              		.loc 1 512 0
 362 00f8 039B     		ldr	r3, [sp, #12]
 363 00fa 43F00203 		orr	r3, r3, #2
 364 00fe 0393     		str	r3, [sp, #12]
 365              	.L20:
 366              		.loc 1 514 0
 367 0100 039B     		ldr	r3, [sp, #12]
 368 0102 43F00103 		orr	r3, r3, #1
 369 0106 0393     		str	r3, [sp, #12]
 370              	.L19:
 371              		.loc 1 518 0
 372 0108 019B     		ldr	r3, [sp, #4]
 373 010a 5B68     		ldr	r3, [r3, #4]
 374 010c 5B69     		ldr	r3, [r3, #20]
 375 010e 03F00F03 		and	r3, r3, #15
 376 0112 012B     		cmp	r3, #1
 377 0114 05D0     		beq	.L23
 378 0116 022B     		cmp	r3, #2
 379 0118 07D1     		bne	.L22
 380              		.loc 1 520 0
 381 011a 039B     		ldr	r3, [sp, #12]
 382 011c 43F02003 		orr	r3, r3, #32
 383 0120 0393     		str	r3, [sp, #12]
 384              	.L23:
 385              		.loc 1 522 0
 386 0122 039B     		ldr	r3, [sp, #12]
ARM GAS  /tmp/ccJkDL6M.s 			page 8


 387 0124 43F01003 		orr	r3, r3, #16
 388 0128 0393     		str	r3, [sp, #12]
 389              	.L22:
 390              		.loc 1 526 0
 391 012a 019B     		ldr	r3, [sp, #4]
 392 012c 5B68     		ldr	r3, [r3, #4]
 393 012e DB69     		ldr	r3, [r3, #28]
 394 0130 03F00F03 		and	r3, r3, #15
 395 0134 012B     		cmp	r3, #1
 396 0136 05D0     		beq	.L26
 397 0138 022B     		cmp	r3, #2
 398 013a 07D1     		bne	.L25
 399              		.loc 1 528 0
 400 013c 039B     		ldr	r3, [sp, #12]
 401 013e 43F40073 		orr	r3, r3, #512
 402 0142 0393     		str	r3, [sp, #12]
 403              	.L26:
 404              		.loc 1 530 0
 405 0144 039B     		ldr	r3, [sp, #12]
 406 0146 43F48073 		orr	r3, r3, #256
 407 014a 0393     		str	r3, [sp, #12]
 408              	.L25:
 409              		.loc 1 534 0
 410 014c 019B     		ldr	r3, [sp, #4]
 411 014e 5B68     		ldr	r3, [r3, #4]
 412 0150 5B6A     		ldr	r3, [r3, #36]
 413 0152 03F00F03 		and	r3, r3, #15
 414 0156 012B     		cmp	r3, #1
 415 0158 05D0     		beq	.L29
 416 015a 022B     		cmp	r3, #2
 417 015c 07D1     		bne	.L28
 418              		.loc 1 536 0
 419 015e 039B     		ldr	r3, [sp, #12]
 420 0160 43F40053 		orr	r3, r3, #8192
 421 0164 0393     		str	r3, [sp, #12]
 422              	.L29:
 423              		.loc 1 538 0
 424 0166 039B     		ldr	r3, [sp, #12]
 425 0168 43F48053 		orr	r3, r3, #4096
 426 016c 0393     		str	r3, [sp, #12]
 427              	.L28:
 428              		.loc 1 579 0
 429 016e 019B     		ldr	r3, [sp, #4]
 430 0170 1B69     		ldr	r3, [r3, #16]
 431 0172 039A     		ldr	r2, [sp, #12]
 432 0174 1A62     		str	r2, [r3, #32]
 433              		.loc 1 580 0
 434 0176 019B     		ldr	r3, [sp, #4]
 435 0178 1B69     		ldr	r3, [r3, #16]
 436 017a 0122     		movs	r2, #1
 437 017c 5A61     		str	r2, [r3, #20]
 438              		.loc 1 581 0
 439 017e 019B     		ldr	r3, [sp, #4]
 440 0180 1B69     		ldr	r3, [r3, #16]
 441 0182 0022     		movs	r2, #0
 442 0184 1A61     		str	r2, [r3, #16]
 443              		.loc 1 582 0
ARM GAS  /tmp/ccJkDL6M.s 			page 9


 444 0186 019B     		ldr	r3, [sp, #4]
 445 0188 1B69     		ldr	r3, [r3, #16]
 446 018a 019A     		ldr	r2, [sp, #4]
 447 018c 5268     		ldr	r2, [r2, #4]
 448 018e 9268     		ldr	r2, [r2, #8]
 449 0190 002A     		cmp	r2, #0
 450 0192 14BF     		ite	ne
 451 0194 0122     		movne	r2, #1
 452 0196 0022     		moveq	r2, #0
 453 0198 D2B2     		uxtb	r2, r2
 454 019a 1146     		mov	r1, r2
 455              		.loc 1 583 0
 456 019c 019A     		ldr	r2, [sp, #4]
 457 019e 5268     		ldr	r2, [r2, #4]
 458 01a0 126B     		ldr	r2, [r2, #48]
 459 01a2 22F0FF02 		bic	r2, r2, #255
 460              		.loc 1 582 0
 461 01a6 0A43     		orrs	r2, r2, r1
 462 01a8 DA60     		str	r2, [r3, #12]
 463              		.loc 1 592 0
 464 01aa 019B     		ldr	r3, [sp, #4]
 465 01ac 1B69     		ldr	r3, [r3, #16]
 466 01ae 8522     		movs	r2, #133
 467 01b0 1A60     		str	r2, [r3]
 468              		.loc 1 594 0
 469 01b2 05B0     		add	sp, sp, #20
 470              		.cfi_def_cfa_offset 4
 471              		@ sp needed
 472 01b4 5DF804FB 		ldr	pc, [sp], #4
 473              	.L32:
 474              		.align	2
 475              	.L31:
 476 01b8 00000000 		.word	PWMD3
 477 01bc 00380240 		.word	1073887232
 478 01c0 00BD0105 		.word	84000000
 479 01c4 00000000 		.word	.LC0
 480              		.cfi_endproc
 481              	.LFE114:
 482              		.size	pwm_lld_start, .-pwm_lld_start
 483 01c8 AFF30080 		.section	.text.pwm_lld_stop,"ax",%progbits
 483      AFF30080 
 484              		.align	2
 485              		.p2align 4,,15
 486              		.global	pwm_lld_stop
 487              		.thumb
 488              		.thumb_func
 489              		.type	pwm_lld_stop, %function
 490              	pwm_lld_stop:
 491              	.LFB115:
 492              		.loc 1 603 0
 493              		.cfi_startproc
 494              		@ args = 0, pretend = 0, frame = 8
 495              		@ frame_needed = 0, uses_anonymous_args = 0
 496 0000 00B5     		push	{lr}
 497              		.cfi_def_cfa_offset 4
 498              		.cfi_offset 14, -4
 499 0002 83B0     		sub	sp, sp, #12
ARM GAS  /tmp/ccJkDL6M.s 			page 10


 500              		.cfi_def_cfa_offset 16
 501 0004 0190     		str	r0, [sp, #4]
 502              		.loc 1 606 0
 503 0006 019B     		ldr	r3, [sp, #4]
 504 0008 1B78     		ldrb	r3, [r3]	@ zero_extendqisi2
 505 000a 022B     		cmp	r3, #2
 506 000c 18D1     		bne	.L33
 507              		.loc 1 607 0
 508 000e 019B     		ldr	r3, [sp, #4]
 509 0010 1B69     		ldr	r3, [r3, #16]
 510 0012 0022     		movs	r2, #0
 511 0014 1A60     		str	r2, [r3]
 512              		.loc 1 608 0
 513 0016 019B     		ldr	r3, [sp, #4]
 514 0018 1B69     		ldr	r3, [r3, #16]
 515 001a 0022     		movs	r2, #0
 516 001c DA60     		str	r2, [r3, #12]
 517              		.loc 1 609 0
 518 001e 019B     		ldr	r3, [sp, #4]
 519 0020 1B69     		ldr	r3, [r3, #16]
 520 0022 0022     		movs	r2, #0
 521 0024 1A61     		str	r2, [r3, #16]
 522              		.loc 1 628 0
 523 0026 019B     		ldr	r3, [sp, #4]
 524 0028 074A     		ldr	r2, .L35
 525 002a 9342     		cmp	r3, r2
 526 002c 08D1     		bne	.L33
 527              		.loc 1 629 0
 528 002e 1D20     		movs	r0, #29
 529 0030 FFF7FEFF 		bl	nvicDisableVector
 530              		.loc 1 630 0
 531 0034 054A     		ldr	r2, .L35+4
 532 0036 054B     		ldr	r3, .L35+4
 533 0038 1B6C     		ldr	r3, [r3, #64]
 534 003a 23F00203 		bic	r3, r3, #2
 535 003e 1364     		str	r3, [r2, #64]
 536              	.L33:
 537              		.loc 1 659 0
 538 0040 03B0     		add	sp, sp, #12
 539              		.cfi_def_cfa_offset 4
 540              		@ sp needed
 541 0042 5DF804FB 		ldr	pc, [sp], #4
 542              	.L36:
 543 0046 00BF     		.align	2
 544              	.L35:
 545 0048 00000000 		.word	PWMD3
 546 004c 00380240 		.word	1073887232
 547              		.cfi_endproc
 548              	.LFE115:
 549              		.size	pwm_lld_stop, .-pwm_lld_stop
 550              		.section	.text.pwm_lld_enable_channel,"ax",%progbits
 551              		.align	2
 552              		.p2align 4,,15
 553              		.global	pwm_lld_enable_channel
 554              		.thumb
 555              		.thumb_func
 556              		.type	pwm_lld_enable_channel, %function
ARM GAS  /tmp/ccJkDL6M.s 			page 11


 557              	pwm_lld_enable_channel:
 558              	.LFB116:
 559              		.loc 1 675 0
 560              		.cfi_startproc
 561              		@ args = 0, pretend = 0, frame = 16
 562              		@ frame_needed = 0, uses_anonymous_args = 0
 563              		@ link register save eliminated.
 564 0000 84B0     		sub	sp, sp, #16
 565              		.cfi_def_cfa_offset 16
 566 0002 0190     		str	r0, [sp, #4]
 567 0004 0B46     		mov	r3, r1
 568 0006 8DF80330 		strb	r3, [sp, #3]
 569 000a 1346     		mov	r3, r2	@ movhi
 570 000c ADF80030 		strh	r3, [sp]	@ movhi
 571              		.loc 1 677 0
 572 0010 019B     		ldr	r3, [sp, #4]
 573 0012 1969     		ldr	r1, [r3, #16]
 574 0014 9DF80330 		ldrb	r3, [sp, #3]	@ zero_extendqisi2
 575 0018 BDF80020 		ldrh	r2, [sp]
 576 001c 0C33     		adds	r3, r3, #12
 577 001e 9B00     		lsls	r3, r3, #2
 578 0020 0B44     		add	r3, r3, r1
 579 0022 5A60     		str	r2, [r3, #4]
 580              		.loc 1 680 0
 581 0024 019B     		ldr	r3, [sp, #4]
 582 0026 5A68     		ldr	r2, [r3, #4]
 583 0028 9DF80330 		ldrb	r3, [sp, #3]	@ zero_extendqisi2
 584 002c 0133     		adds	r3, r3, #1
 585 002e DB00     		lsls	r3, r3, #3
 586 0030 1344     		add	r3, r3, r2
 587 0032 9B68     		ldr	r3, [r3, #8]
 588 0034 002B     		cmp	r3, #0
 589 0036 21D0     		beq	.L37
 590              	.LBB2:
 591              		.loc 1 681 0
 592 0038 019B     		ldr	r3, [sp, #4]
 593 003a 1B69     		ldr	r3, [r3, #16]
 594 003c DB68     		ldr	r3, [r3, #12]
 595 003e 0393     		str	r3, [sp, #12]
 596              		.loc 1 684 0
 597 0040 9DF80330 		ldrb	r3, [sp, #3]	@ zero_extendqisi2
 598 0044 0222     		movs	r2, #2
 599 0046 02FA03F3 		lsl	r3, r2, r3
 600 004a 1A46     		mov	r2, r3
 601 004c 039B     		ldr	r3, [sp, #12]
 602 004e 1340     		ands	r3, r3, r2
 603 0050 002B     		cmp	r3, #0
 604 0052 13D1     		bne	.L37
 605              		.loc 1 685 0
 606 0054 019B     		ldr	r3, [sp, #4]
 607 0056 1B69     		ldr	r3, [r3, #16]
 608 0058 9DF80320 		ldrb	r2, [sp, #3]	@ zero_extendqisi2
 609 005c 0221     		movs	r1, #2
 610 005e 01FA02F2 		lsl	r2, r1, r2
 611 0062 1146     		mov	r1, r2
 612 0064 039A     		ldr	r2, [sp, #12]
 613 0066 0A43     		orrs	r2, r2, r1
ARM GAS  /tmp/ccJkDL6M.s 			page 12


 614 0068 DA60     		str	r2, [r3, #12]
 615              		.loc 1 686 0
 616 006a 019B     		ldr	r3, [sp, #4]
 617 006c 1B69     		ldr	r3, [r3, #16]
 618 006e 9DF80320 		ldrb	r2, [sp, #3]	@ zero_extendqisi2
 619 0072 0221     		movs	r1, #2
 620 0074 01FA02F2 		lsl	r2, r1, r2
 621 0078 D243     		mvns	r2, r2
 622 007a 1A61     		str	r2, [r3, #16]
 623              	.L37:
 624              	.LBE2:
 625              		.loc 1 689 0
 626 007c 04B0     		add	sp, sp, #16
 627              		.cfi_def_cfa_offset 0
 628              		@ sp needed
 629 007e 7047     		bx	lr
 630              		.cfi_endproc
 631              	.LFE116:
 632              		.size	pwm_lld_enable_channel, .-pwm_lld_enable_channel
 633              		.section	.text.pwm_lld_disable_channel,"ax",%progbits
 634              		.align	2
 635              		.p2align 4,,15
 636              		.global	pwm_lld_disable_channel
 637              		.thumb
 638              		.thumb_func
 639              		.type	pwm_lld_disable_channel, %function
 640              	pwm_lld_disable_channel:
 641              	.LFB117:
 642              		.loc 1 703 0
 643              		.cfi_startproc
 644              		@ args = 0, pretend = 0, frame = 8
 645              		@ frame_needed = 0, uses_anonymous_args = 0
 646              		@ link register save eliminated.
 647 0000 82B0     		sub	sp, sp, #8
 648              		.cfi_def_cfa_offset 8
 649 0002 0190     		str	r0, [sp, #4]
 650 0004 0B46     		mov	r3, r1
 651 0006 8DF80330 		strb	r3, [sp, #3]
 652              		.loc 1 705 0
 653 000a 019B     		ldr	r3, [sp, #4]
 654 000c 1A69     		ldr	r2, [r3, #16]
 655 000e 9DF80330 		ldrb	r3, [sp, #3]	@ zero_extendqisi2
 656 0012 0C33     		adds	r3, r3, #12
 657 0014 9B00     		lsls	r3, r3, #2
 658 0016 1344     		add	r3, r3, r2
 659 0018 0022     		movs	r2, #0
 660 001a 5A60     		str	r2, [r3, #4]
 661              		.loc 1 706 0
 662 001c 019B     		ldr	r3, [sp, #4]
 663 001e 1B69     		ldr	r3, [r3, #16]
 664 0020 019A     		ldr	r2, [sp, #4]
 665 0022 1269     		ldr	r2, [r2, #16]
 666 0024 D268     		ldr	r2, [r2, #12]
 667 0026 9DF80310 		ldrb	r1, [sp, #3]	@ zero_extendqisi2
 668 002a 0220     		movs	r0, #2
 669 002c 00FA01F1 		lsl	r1, r0, r1
 670 0030 C943     		mvns	r1, r1
ARM GAS  /tmp/ccJkDL6M.s 			page 13


 671 0032 0A40     		ands	r2, r2, r1
 672 0034 DA60     		str	r2, [r3, #12]
 673              		.loc 1 707 0
 674 0036 02B0     		add	sp, sp, #8
 675              		.cfi_def_cfa_offset 0
 676              		@ sp needed
 677 0038 7047     		bx	lr
 678              		.cfi_endproc
 679              	.LFE117:
 680              		.size	pwm_lld_disable_channel, .-pwm_lld_disable_channel
 681 003a 00BFAFF3 		.text
 681      0080
 682              	.Letext0:
 683              		.file 2 "/opt/gcc-arm-none-eabi/arm-none-eabi/include/machine/_default_types.h"
 684              		.file 3 "/opt/gcc-arm-none-eabi/arm-none-eabi/include/stdint.h"
 685              		.file 4 "/home/makkmarci/workspace/ChibiOS_2.6.8/os/hal/platforms/STM32F4xx/stm32f4xx.h"
 686              		.file 5 "/home/makkmarci/workspace/ChibiOS_2.6.8/os/hal/platforms/STM32/TIMv1/stm32_tim.h"
 687              		.file 6 "/home/makkmarci/workspace/ChibiOS_2.6.8/os/hal/include/pwm.h"
 688              		.file 7 "/home/makkmarci/workspace/ChibiOS_2.6.8/os/hal/platforms/STM32/TIMv1/pwm_lld.h"
 689              		.file 8 "/home/makkmarci/workspace/ChibiOS_2.6.8/os/ports/common/ARMCMx/CMSIS/include/core_cm4.h"