ARM GAS  /tmp/ccYJB99j.s 			page 1


   1              		.syntax unified
   2              		.cpu cortex-m4
   3              		.eabi_attribute 27, 3
   4              		.eabi_attribute 28, 1
   5              		.fpu fpv4-sp-d16
   6              		.eabi_attribute 20, 1
   7              		.eabi_attribute 21, 1
   8              		.eabi_attribute 23, 3
   9              		.eabi_attribute 24, 1
  10              		.eabi_attribute 25, 1
  11              		.eabi_attribute 26, 1
  12              		.eabi_attribute 30, 2
  13              		.eabi_attribute 34, 1
  14              		.eabi_attribute 18, 4
  15              		.thumb
  16              		.file	"serial_lld.c"
  17              		.text
  18              	.Ltext0:
  19              		.cfi_sections	.debug_frame
  20              		.section	.text.notify2,"ax",%progbits
  21              		.align	2
  22              		.p2align 4,,15
  23              		.thumb
  24              		.thumb_func
  25              		.type	notify2, %function
  26              	notify2:
  27              	.LFB115:
  28              		.file 1 "../../os/hal/platforms/STM32/USARTv1/serial_lld.c"
  29              		.loc 1 212 0
  30              		.cfi_startproc
  31              		@ args = 0, pretend = 0, frame = 0
  32              		@ frame_needed = 0, uses_anonymous_args = 0
  33              		@ link register save eliminated.
  34              	.LVL0:
  35              		.loc 1 215 0
  36 0000 034B     		ldr	r3, .L2
  37 0002 9A89     		ldrh	r2, [r3, #12]
  38 0004 92B2     		uxth	r2, r2
  39 0006 42F08002 		orr	r2, r2, #128
  40 000a 9A81     		strh	r2, [r3, #12]	@ movhi
  41 000c 7047     		bx	lr
  42              	.L3:
  43 000e 00BF     		.align	2
  44              	.L2:
  45 0010 00440040 		.word	1073759232
  46              		.cfi_endproc
  47              	.LFE115:
  48              		.size	notify2, .-notify2
  49 0014 AFF30080 		.section	.text.VectorD8,"ax",%progbits
  49      AFF30080 
  49      AFF30080 
  50              		.align	2
  51              		.p2align 4,,15
  52              		.global	VectorD8
  53              		.thumb
  54              		.thumb_func
  55              		.type	VectorD8, %function
ARM GAS  /tmp/ccYJB99j.s 			page 2


  56              	VectorD8:
  57              	.LFB116:
  58              		.loc 1 283 0
  59              		.cfi_startproc
  60              		@ args = 0, pretend = 0, frame = 0
  61              		@ frame_needed = 0, uses_anonymous_args = 0
  62              	.LVL1:
  63 0000 F8B5     		push	{r3, r4, r5, r6, r7, lr}
  64              		.cfi_def_cfa_offset 24
  65              		.cfi_offset 3, -24
  66              		.cfi_offset 4, -20
  67              		.cfi_offset 5, -16
  68              		.cfi_offset 6, -12
  69              		.cfi_offset 7, -8
  70              		.cfi_offset 14, -4
  71              	.LBB10:
  72              	.LBB11:
  73              		.loc 1 155 0
  74 0002 3A4E     		ldr	r6, .L55
  75 0004 756F     		ldr	r5, [r6, #116]
  76              	.LVL2:
  77              		.loc 1 156 0
  78 0006 AF89     		ldrh	r7, [r5, #12]
  79              		.loc 1 157 0
  80 0008 2C88     		ldrh	r4, [r5]
  81 000a A4B2     		uxth	r4, r4
  82              		.loc 1 160 0
  83 000c E005     		lsls	r0, r4, #23
  84              		.loc 1 156 0
  85 000e BFB2     		uxth	r7, r7
  86              	.LVL3:
  87              		.loc 1 160 0
  88 0010 41D4     		bmi	.L51
  89              	.L5:
  90              		.loc 1 168 0
  91              	@ 168 "../../os/hal/platforms/STM32/USARTv1/serial_lld.c" 1
  92 0012 FFF7FEFF 		bl      _port_lock
  93              	@ 0 "" 2
  94              		.loc 1 169 0
  95              		.thumb
  96 0016 A106     		lsls	r1, r4, #26
  97 0018 21D5     		bpl	.L6
  98 001a 08E0     		b	.L12
  99              	.LVL4:
 100              	.L7:
 101              		.loc 1 173 0
 102 001c A988     		ldrh	r1, [r5, #4]
 103 001e 3348     		ldr	r0, .L55
 104 0020 C9B2     		uxtb	r1, r1
 105 0022 FFF7FEFF 		bl	sdIncomingDataI
 106              	.LVL5:
 107              		.loc 1 174 0
 108 0026 2C88     		ldrh	r4, [r5]
 109 0028 A4B2     		uxth	r4, r4
 110              	.LVL6:
 111              		.loc 1 169 0
 112 002a A006     		lsls	r0, r4, #26
ARM GAS  /tmp/ccYJB99j.s 			page 3


 113 002c 17D5     		bpl	.L6
 114              	.LVL7:
 115              	.L12:
 116              		.loc 1 171 0
 117 002e 2207     		lsls	r2, r4, #28
 118 0030 F4D0     		beq	.L7
 119              	.LVL8:
 120              	.LBB12:
 121              	.LBB13:
 122              		.loc 1 136 0
 123 0032 14F0080F 		tst	r4, #8
 124 0036 14BF     		ite	ne
 125 0038 8021     		movne	r1, #128
 126 003a 0021     		moveq	r1, #0
 127              	.LVL9:
 128              		.loc 1 140 0
 129 003c 14F0010F 		tst	r4, #1
 130              		.loc 1 141 0
 131 0040 18BF     		it	ne
 132 0042 41F02001 		orrne	r1, r1, #32
 133              	.LVL10:
 134              		.loc 1 142 0
 135 0046 A307     		lsls	r3, r4, #30
 136              		.loc 1 143 0
 137 0048 48BF     		it	mi
 138 004a 41F04001 		orrmi	r1, r1, #64
 139              	.LVL11:
 140              		.loc 1 144 0
 141 004e 6407     		lsls	r4, r4, #29
 142              	.LVL12:
 143              		.loc 1 146 0
 144 0050 2748     		ldr	r0, .L55+4
 145              		.loc 1 145 0
 146 0052 48BF     		it	mi
 147 0054 41F48071 		orrmi	r1, r1, #256
 148              	.LVL13:
 149              		.loc 1 146 0
 150 0058 FFF7FEFF 		bl	chEvtBroadcastFlagsI
 151              	.LVL14:
 152 005c DEE7     		b	.L7
 153              	.LVL15:
 154              	.L6:
 155              	.LBE13:
 156              	.LBE12:
 157              		.loc 1 176 0
 158              	@ 176 "../../os/hal/platforms/STM32/USARTv1/serial_lld.c" 1
 159 005e FFF7FEFF 		bl      _port_unlock
 160              	@ 0 "" 2
 161              		.loc 1 179 0
 162              		.thumb
 163 0062 3906     		lsls	r1, r7, #24
 164 0064 01D5     		bpl	.L13
 165 0066 2206     		lsls	r2, r4, #24
 166 0068 22D4     		bmi	.L52
 167              	.L13:
 168              		.loc 1 193 0
 169 006a 6306     		lsls	r3, r4, #25
ARM GAS  /tmp/ccYJB99j.s 			page 4


 170 006c 0FD5     		bpl	.L16
 171              		.loc 1 194 0
 172              	@ 194 "../../os/hal/platforms/STM32/USARTv1/serial_lld.c" 1
 173 006e FFF7FEFF 		bl      _port_lock
 174              	@ 0 "" 2
 175              		.loc 1 195 0
 176              		.thumb
 177 0072 726C     		ldr	r2, [r6, #68]
 178 0074 B36C     		ldr	r3, [r6, #72]
 179 0076 1D48     		ldr	r0, .L55
 180 0078 9A42     		cmp	r2, r3
 181 007a 25D0     		beq	.L53
 182              	.L17:
 183              		.loc 1 197 0
 184 007c 27F04007 		bic	r7, r7, #64
 185              	.LVL16:
 186 0080 BFB2     		uxth	r7, r7
 187              		.loc 1 198 0
 188 0082 4FF6BF73 		movw	r3, #65471
 189              		.loc 1 197 0
 190 0086 AF81     		strh	r7, [r5, #12]	@ movhi
 191              		.loc 1 198 0
 192 0088 2B80     		strh	r3, [r5]	@ movhi
 193              		.loc 1 199 0
 194              	@ 199 "../../os/hal/platforms/STM32/USARTv1/serial_lld.c" 1
 195 008a FFF7FEFF 		bl      _port_unlock
 196              	@ 0 "" 2
 197              		.thumb
 198              	.L16:
 199              	.LBE11:
 200              	.LBE10:
 201              		.loc 1 290 0
 202 008e BDE8F840 		pop	{r3, r4, r5, r6, r7, lr}
 203              	.LVL17:
 204              		.loc 1 289 0
 205 0092 FFF7FEBF 		b	_port_irq_epilogue
 206              	.LVL18:
 207              	.L51:
 208              	.LBB17:
 209              	.LBB16:
 210              		.loc 1 161 0
 211              	@ 161 "../../os/hal/platforms/STM32/USARTv1/serial_lld.c" 1
 212 0096 FFF7FEFF 		bl      _port_lock
 213              	@ 0 "" 2
 214              		.loc 1 162 0
 215              		.thumb
 216 009a 4FF40071 		mov	r1, #512
 217 009e 301D     		adds	r0, r6, #4
 218 00a0 FFF7FEFF 		bl	chEvtBroadcastFlagsI
 219              	.LVL19:
 220              		.loc 1 163 0
 221              	@ 163 "../../os/hal/platforms/STM32/USARTv1/serial_lld.c" 1
 222 00a4 FFF7FEFF 		bl      _port_unlock
 223              	@ 0 "" 2
 224              		.loc 1 164 0
 225              		.thumb
 226 00a8 4FF6FF63 		movw	r3, #65279
ARM GAS  /tmp/ccYJB99j.s 			page 5


 227 00ac 2B80     		strh	r3, [r5]	@ movhi
 228 00ae B0E7     		b	.L5
 229              	.LVL20:
 230              	.L52:
 231              	.LBB14:
 232              		.loc 1 181 0
 233              	@ 181 "../../os/hal/platforms/STM32/USARTv1/serial_lld.c" 1
 234 00b0 FFF7FEFF 		bl      _port_lock
 235              	@ 0 "" 2
 236              		.loc 1 182 0
 237              		.thumb
 238 00b4 0F48     		ldr	r0, .L55+8
 239 00b6 FFF7FEFF 		bl	chOQGetI
 240              	.LVL21:
 241              		.loc 1 183 0
 242 00ba 0028     		cmp	r0, #0
 243 00bc 0CDB     		blt	.L54
 244              		.loc 1 188 0
 245 00be 80B2     		uxth	r0, r0
 246              	.LVL22:
 247 00c0 A880     		strh	r0, [r5, #4]	@ movhi
 248              	.L15:
 249              		.loc 1 189 0
 250              	@ 189 "../../os/hal/platforms/STM32/USARTv1/serial_lld.c" 1
 251 00c2 FFF7FEFF 		bl      _port_unlock
 252              	@ 0 "" 2
 253              		.thumb
 254 00c6 D0E7     		b	.L13
 255              	.L53:
 256              	.LBE14:
 257              		.loc 1 195 0
 258 00c8 836B     		ldr	r3, [r0, #56]
 259 00ca 002B     		cmp	r3, #0
 260 00cc D6D0     		beq	.L17
 261              		.loc 1 196 0
 262 00ce 0430     		adds	r0, r0, #4
 263 00d0 1021     		movs	r1, #16
 264 00d2 FFF7FEFF 		bl	chEvtBroadcastFlagsI
 265              	.LVL23:
 266 00d6 D1E7     		b	.L17
 267              	.LVL24:
 268              	.L54:
 269              	.LBB15:
 270              		.loc 1 184 0
 271 00d8 0548     		ldr	r0, .L55+4
 272              	.LVL25:
 273 00da 0821     		movs	r1, #8
 274 00dc FFF7FEFF 		bl	chEvtBroadcastFlagsI
 275              	.LVL26:
 276              		.loc 1 185 0
 277 00e0 27F0C003 		bic	r3, r7, #192
 278 00e4 43F04003 		orr	r3, r3, #64
 279 00e8 AB81     		strh	r3, [r5, #12]	@ movhi
 280 00ea EAE7     		b	.L15
 281              	.L56:
 282              		.align	2
 283              	.L55:
ARM GAS  /tmp/ccYJB99j.s 			page 6


 284 00ec 00000000 		.word	.LANCHOR0
 285 00f0 04000000 		.word	.LANCHOR0+4
 286 00f4 30000000 		.word	.LANCHOR0+48
 287              	.LBE15:
 288              	.LBE16:
 289              	.LBE17:
 290              		.cfi_endproc
 291              	.LFE116:
 292              		.size	VectorD8, .-VectorD8
 293 00f8 AFF30080 		.section	.text.sd_lld_init,"ax",%progbits
 293      AFF30080 
 294              		.align	2
 295              		.p2align 4,,15
 296              		.global	sd_lld_init
 297              		.thumb
 298              		.thumb_func
 299              		.type	sd_lld_init, %function
 300              	sd_lld_init:
 301              	.LFB117:
 302              		.loc 1 378 0
 303              		.cfi_startproc
 304              		@ args = 0, pretend = 0, frame = 0
 305              		@ frame_needed = 0, uses_anonymous_args = 0
 306 0000 10B5     		push	{r4, lr}
 307              		.cfi_def_cfa_offset 8
 308              		.cfi_offset 4, -8
 309              		.cfi_offset 14, -4
 310              		.loc 1 386 0
 311 0002 044C     		ldr	r4, .L58
 312 0004 044A     		ldr	r2, .L58+4
 313 0006 2046     		mov	r0, r4
 314 0008 0021     		movs	r1, #0
 315 000a FFF7FEFF 		bl	sdObjectInit
 316              	.LVL27:
 317              		.loc 1 387 0
 318 000e 034B     		ldr	r3, .L58+8
 319 0010 6367     		str	r3, [r4, #116]
 320 0012 10BD     		pop	{r4, pc}
 321              	.L59:
 322              		.align	2
 323              	.L58:
 324 0014 00000000 		.word	.LANCHOR0
 325 0018 00000000 		.word	notify2
 326 001c 00440040 		.word	1073759232
 327              		.cfi_endproc
 328              	.LFE117:
 329              		.size	sd_lld_init, .-sd_lld_init
 330              		.section	.text.sd_lld_start,"ax",%progbits
 331              		.align	2
 332              		.p2align 4,,15
 333              		.global	sd_lld_start
 334              		.thumb
 335              		.thumb_func
 336              		.type	sd_lld_start, %function
 337              	sd_lld_start:
 338              	.LFB118:
 339              		.loc 1 421 0
ARM GAS  /tmp/ccYJB99j.s 			page 7


 340              		.cfi_startproc
 341              		@ args = 0, pretend = 0, frame = 0
 342              		@ frame_needed = 0, uses_anonymous_args = 0
 343              	.LVL28:
 344 0000 38B5     		push	{r3, r4, r5, lr}
 345              		.cfi_def_cfa_offset 16
 346              		.cfi_offset 3, -16
 347              		.cfi_offset 4, -12
 348              		.cfi_offset 5, -8
 349              		.cfi_offset 14, -4
 350              		.loc 1 424 0
 351 0002 204C     		ldr	r4, .L68
 352              		.loc 1 426 0
 353 0004 037A     		ldrb	r3, [r0, #8]	@ zero_extendqisi2
 354              		.loc 1 424 0
 355 0006 0029     		cmp	r1, #0
 356 0008 18BF     		it	ne
 357 000a 0C46     		movne	r4, r1
 358              	.LVL29:
 359              		.loc 1 426 0
 360 000c 012B     		cmp	r3, #1
 361              		.loc 1 421 0
 362 000e 0546     		mov	r5, r0
 363              		.loc 1 426 0
 364 0010 23D0     		beq	.L67
 365              	.LVL30:
 366              	.L62:
 367              		.loc 1 421 0
 368 0012 6B6F     		ldr	r3, [r5, #116]
 369              	.LVL31:
 370              	.LBB20:
 371              	.LBB21:
 372              		.loc 1 97 0
 373 0014 1C4A     		ldr	r2, .L68+4
 374 0016 9342     		cmp	r3, r2
 375 0018 2CD0     		beq	.L63
 376 001a 02F58062 		add	r2, r2, #1024
 377 001e 9342     		cmp	r3, r2
 378 0020 28D0     		beq	.L63
 379              		.loc 1 103 0
 380 0022 2268     		ldr	r2, [r4]
 381 0024 1949     		ldr	r1, .L68+8
 382 0026 B1FBF2F2 		udiv	r2, r1, r2
 383 002a 92B2     		uxth	r2, r2
 384 002c 1A81     		strh	r2, [r3, #8]	@ movhi
 385              	.L65:
 386              		.loc 1 108 0
 387 002e A288     		ldrh	r2, [r4, #4]
 388              		.loc 1 106 0
 389 0030 E188     		ldrh	r1, [r4, #6]
 390              		.loc 1 107 0
 391 0032 2089     		ldrh	r0, [r4, #8]
 392              		.loc 1 108 0
 393 0034 42F40452 		orr	r2, r2, #8448
 394              		.loc 1 106 0
 395 0038 41F04004 		orr	r4, r1, #64
 396              	.LVL32:
ARM GAS  /tmp/ccYJB99j.s 			page 8


 397              		.loc 1 108 0
 398 003c 42F02C02 		orr	r2, r2, #44
 399              		.loc 1 107 0
 400 0040 40F00100 		orr	r0, r0, #1
 401              		.loc 1 108 0
 402 0044 92B2     		uxth	r2, r2
 403              		.loc 1 106 0
 404 0046 A4B2     		uxth	r4, r4
 405              		.loc 1 107 0
 406 0048 80B2     		uxth	r0, r0
 407              		.loc 1 111 0
 408 004a 0021     		movs	r1, #0
 409              		.loc 1 106 0
 410 004c 1C82     		strh	r4, [r3, #16]	@ movhi
 411              		.loc 1 107 0
 412 004e 9882     		strh	r0, [r3, #20]	@ movhi
 413              		.loc 1 108 0
 414 0050 9A81     		strh	r2, [r3, #12]	@ movhi
 415              		.loc 1 111 0
 416 0052 1980     		strh	r1, [r3]	@ movhi
 417              		.loc 1 112 0
 418 0054 1A88     		ldrh	r2, [r3]
 419              		.loc 1 113 0
 420 0056 9B88     		ldrh	r3, [r3, #4]
 421              	.LVL33:
 422 0058 38BD     		pop	{r3, r4, r5, pc}
 423              	.LVL34:
 424              	.L67:
 425              	.LBE21:
 426              	.LBE20:
 427              		.loc 1 435 0
 428 005a 0D4B     		ldr	r3, .L68+12
 429 005c 9842     		cmp	r0, r3
 430 005e D8D1     		bne	.L62
 431              		.loc 1 436 0
 432 0060 0C4B     		ldr	r3, .L68+16
 433 0062 1A6C     		ldr	r2, [r3, #64]
 434 0064 42F40032 		orr	r2, r2, #131072
 435 0068 1A64     		str	r2, [r3, #64]
 436              		.loc 1 437 0
 437 006a 2620     		movs	r0, #38
 438              	.LVL35:
 439 006c C021     		movs	r1, #192
 440 006e FFF7FEFF 		bl	nvicEnableVector
 441              	.LVL36:
 442 0072 CEE7     		b	.L62
 443              	.LVL37:
 444              	.L63:
 445              	.LBB23:
 446              	.LBB22:
 447              		.loc 1 101 0
 448 0074 2268     		ldr	r2, [r4]
 449 0076 0849     		ldr	r1, .L68+20
 450 0078 B1FBF2F2 		udiv	r2, r1, r2
 451 007c 92B2     		uxth	r2, r2
 452 007e 1A81     		strh	r2, [r3, #8]	@ movhi
 453 0080 D5E7     		b	.L65
ARM GAS  /tmp/ccYJB99j.s 			page 9


 454              	.L69:
 455 0082 00BF     		.align	2
 456              	.L68:
 457 0084 00000000 		.word	.LANCHOR1
 458 0088 00100140 		.word	1073811456
 459 008c 80DE8002 		.word	42000000
 460 0090 00000000 		.word	.LANCHOR0
 461 0094 00380240 		.word	1073887232
 462 0098 00BD0105 		.word	84000000
 463              	.LBE22:
 464              	.LBE23:
 465              		.cfi_endproc
 466              	.LFE118:
 467              		.size	sd_lld_start, .-sd_lld_start
 468 009c AFF30080 		.section	.text.sd_lld_stop,"ax",%progbits
 469              		.align	2
 470              		.p2align 4,,15
 471              		.global	sd_lld_stop
 472              		.thumb
 473              		.thumb_func
 474              		.type	sd_lld_stop, %function
 475              	sd_lld_stop:
 476              	.LFB119:
 477              		.loc 1 482 0
 478              		.cfi_startproc
 479              		@ args = 0, pretend = 0, frame = 0
 480              		@ frame_needed = 0, uses_anonymous_args = 0
 481              		@ link register save eliminated.
 482              	.LVL38:
 483              		.loc 1 484 0
 484 0000 037A     		ldrb	r3, [r0, #8]	@ zero_extendqisi2
 485 0002 022B     		cmp	r3, #2
 486 0004 00D0     		beq	.L74
 487              	.L70:
 488 0006 7047     		bx	lr
 489              	.L74:
 490              		.loc 1 494 0
 491 0008 0749     		ldr	r1, .L75
 492              		.loc 1 485 0
 493 000a 436F     		ldr	r3, [r0, #116]
 494              	.LVL39:
 495              	.LBB24:
 496              	.LBB25:
 497              		.loc 1 124 0
 498 000c 0022     		movs	r2, #0
 499              	.LBE25:
 500              	.LBE24:
 501              		.loc 1 494 0
 502 000e 8842     		cmp	r0, r1
 503              	.LBB27:
 504              	.LBB26:
 505              		.loc 1 124 0
 506 0010 9A81     		strh	r2, [r3, #12]	@ movhi
 507              		.loc 1 125 0
 508 0012 1A82     		strh	r2, [r3, #16]	@ movhi
 509              		.loc 1 126 0
 510 0014 9A82     		strh	r2, [r3, #20]	@ movhi
ARM GAS  /tmp/ccYJB99j.s 			page 10


 511              	.LBE26:
 512              	.LBE27:
 513              		.loc 1 494 0
 514 0016 F6D1     		bne	.L70
 515              		.loc 1 495 0
 516 0018 044B     		ldr	r3, .L75+4
 517              	.LVL40:
 518 001a 1A6C     		ldr	r2, [r3, #64]
 519 001c 22F40032 		bic	r2, r2, #131072
 520 0020 1A64     		str	r2, [r3, #64]
 521              		.loc 1 496 0
 522 0022 2620     		movs	r0, #38
 523              	.LVL41:
 524 0024 FFF7FEBF 		b	nvicDisableVector
 525              	.LVL42:
 526              	.L76:
 527              		.align	2
 528              	.L75:
 529 0028 00000000 		.word	.LANCHOR0
 530 002c 00380240 		.word	1073887232
 531              		.cfi_endproc
 532              	.LFE119:
 533              		.size	sd_lld_stop, .-sd_lld_stop
 534              		.global	SD2
 535              		.section	.rodata.default_config,"a",%progbits
 536              		.align	2
 537              		.set	.LANCHOR1,. + 0
 538              		.type	default_config, %object
 539              		.size	default_config, 12
 540              	default_config:
 541 0000 00960000 		.word	38400
 542 0004 0000     		.short	0
 543 0006 0040     		.short	16384
 544 0008 0000     		.short	0
 545 000a 0000     		.space	2
 546              		.section	.bss.SD2,"aw",%nobits
 547              		.align	2
 548              		.set	.LANCHOR0,. + 0
 549              		.type	SD2, %object
 550              		.size	SD2, 120
 551              	SD2:
 552 0000 00000000 		.space	120
 552      00000000 
 552      00000000 
 552      00000000 
 552      00000000 
 553              		.text
 554              	.Letext0:
 555              		.file 2 "/opt/ARM/lib/gcc/arm-none-eabi/4.8.4/include/stddef.h"
 556              		.file 3 "/opt/ARM/arm-none-eabi/include/machine/_default_types.h"
 557              		.file 4 "/opt/ARM/arm-none-eabi/include/stdint.h"
 558              		.file 5 "../../os/ports/GCC/ARMCMx/chtypes.h"
 559              		.file 6 "../../os/kernel/include/chlists.h"
 560              		.file 7 "../../os/kernel/include/chthreads.h"
 561              		.file 8 "../../os/ports/GCC/ARMCMx/chcore_v7m.h"
 562              		.file 9 "../../os/kernel/include/chmtx.h"
 563              		.file 10 "../../os/kernel/include/chevents.h"
ARM GAS  /tmp/ccYJB99j.s 			page 11


 564              		.file 11 "../../os/kernel/include/chqueues.h"
 565              		.file 12 "../../os/hal/platforms/STM32F4xx/stm32f4xx.h"
 566              		.file 13 "../../os/hal/include/serial.h"
 567              		.file 14 "../../os/hal/platforms/STM32/USARTv1/serial_lld.h"
 568              		.file 15 "../../os/ports/common/ARMCMx/nvic.h"
 569              		.file 16 "../../os/ports/common/ARMCMx/CMSIS/include/core_cm4.h"