ARM GAS  /tmp/cc3zL94g.s 			page 1


   1              		.syntax unified
   2              		.cpu cortex-m4
   3              		.eabi_attribute 27, 3
   4              		.eabi_attribute 28, 1
   5              		.fpu fpv4-sp-d16
   6              		.eabi_attribute 20, 1
   7              		.eabi_attribute 21, 1
   8              		.eabi_attribute 23, 3
   9              		.eabi_attribute 24, 1
  10              		.eabi_attribute 25, 1
  11              		.eabi_attribute 26, 1
  12              		.eabi_attribute 30, 2
  13              		.eabi_attribute 34, 1
  14              		.eabi_attribute 18, 4
  15              		.thumb
  16              		.file	"spi.c"
  17              		.text
  18              	.Ltext0:
  19              		.cfi_sections	.debug_frame
  20              		.section	.text.spiInit,"ax",%progbits
  21              		.align	2
  22              		.p2align 4,,15
  23              		.global	spiInit
  24              		.thumb
  25              		.thumb_func
  26              		.type	spiInit, %function
  27              	spiInit:
  28              	.LFB111:
  29              		.file 1 "../../os/hal/src/spi.c"
  30              		.loc 1 68 0
  31              		.cfi_startproc
  32              		@ args = 0, pretend = 0, frame = 0
  33              		@ frame_needed = 0, uses_anonymous_args = 0
  34              		@ link register save eliminated.
  35              		.loc 1 70 0
  36 0000 FFF7FEBF 		b	spi_lld_init
  37              	.LVL0:
  38              		.cfi_endproc
  39              	.LFE111:
  40              		.size	spiInit, .-spiInit
  41 0004 AFF30080 		.section	.text.spiObjectInit,"ax",%progbits
  41      AFF30080 
  41      AFF30080 
  42              		.align	2
  43              		.p2align 4,,15
  44              		.global	spiObjectInit
  45              		.thumb
  46              		.thumb_func
  47              		.type	spiObjectInit, %function
  48              	spiObjectInit:
  49              	.LFB112:
  50              		.loc 1 80 0
  51              		.cfi_startproc
  52              		@ args = 0, pretend = 0, frame = 0
  53              		@ frame_needed = 0, uses_anonymous_args = 0
  54              		@ link register save eliminated.
  55              	.LVL1:
ARM GAS  /tmp/cc3zL94g.s 			page 2


  56              		.loc 1 83 0
  57 0000 0023     		movs	r3, #0
  58              		.loc 1 82 0
  59 0002 0122     		movs	r2, #1
  60 0004 0270     		strb	r2, [r0]
  61              		.loc 1 83 0
  62 0006 4360     		str	r3, [r0, #4]
  63              		.loc 1 85 0
  64 0008 8360     		str	r3, [r0, #8]
  65              		.loc 1 89 0
  66 000a 0C30     		adds	r0, r0, #12
  67              	.LVL2:
  68 000c FFF7FEBF 		b	chMtxInit
  69              	.LVL3:
  70              		.cfi_endproc
  71              	.LFE112:
  72              		.size	spiObjectInit, .-spiObjectInit
  73              		.section	.text.spiStart,"ax",%progbits
  74              		.align	2
  75              		.p2align 4,,15
  76              		.global	spiStart
  77              		.thumb
  78              		.thumb_func
  79              		.type	spiStart, %function
  80              	spiStart:
  81              	.LFB113:
  82              		.loc 1 107 0
  83              		.cfi_startproc
  84              		@ args = 0, pretend = 0, frame = 0
  85              		@ frame_needed = 0, uses_anonymous_args = 0
  86              	.LVL4:
  87 0000 38B5     		push	{r3, r4, r5, lr}
  88              		.cfi_def_cfa_offset 16
  89              		.cfi_offset 3, -16
  90              		.cfi_offset 4, -12
  91              		.cfi_offset 5, -8
  92              		.cfi_offset 14, -4
  93              		.loc 1 109 0
  94 0002 0446     		mov	r4, r0
  95              		.loc 1 107 0
  96 0004 0D46     		mov	r5, r1
  97              		.loc 1 109 0
  98 0006 90B1     		cbz	r0, .L4
  99              		.loc 1 109 0 is_stmt 0 discriminator 2
 100 0008 89B1     		cbz	r1, .L4
 101              	.LVL5:
 102              	.L5:
 103              		.loc 1 111 0 is_stmt 1
 104              	@ 111 "../../os/hal/src/spi.c" 1
 105 000a FFF7FEFF 		bl      _port_lock
 106              	@ 0 "" 2
 107              		.loc 1 112 0
 108              		.thumb
 109 000e 2378     		ldrb	r3, [r4]	@ zero_extendqisi2
 110 0010 013B     		subs	r3, r3, #1
 111 0012 012B     		cmp	r3, #1
 112 0014 02D9     		bls	.L6
ARM GAS  /tmp/cc3zL94g.s 			page 3


 113              		.loc 1 112 0 is_stmt 0 discriminator 1
 114 0016 0848     		ldr	r0, .L11
 115 0018 FFF7FEFF 		bl	chDbgPanic
 116              	.LVL6:
 117              	.L6:
 118              		.loc 1 114 0 is_stmt 1
 119 001c 6560     		str	r5, [r4, #4]
 120              		.loc 1 115 0
 121 001e 2046     		mov	r0, r4
 122 0020 FFF7FEFF 		bl	spi_lld_start
 123              	.LVL7:
 124              		.loc 1 116 0
 125 0024 0223     		movs	r3, #2
 126 0026 2370     		strb	r3, [r4]
 127              		.loc 1 117 0
 128              	@ 117 "../../os/hal/src/spi.c" 1
 129 0028 FFF7FEFF 		bl      _port_unlock
 130              	@ 0 "" 2
 131              		.thumb
 132 002c 38BD     		pop	{r3, r4, r5, pc}
 133              	.LVL8:
 134              	.L4:
 135              		.loc 1 109 0 discriminator 1
 136 002e 0348     		ldr	r0, .L11+4
 137              	.LVL9:
 138 0030 FFF7FEFF 		bl	chDbgPanic
 139              	.LVL10:
 140 0034 E9E7     		b	.L5
 141              	.L12:
 142 0036 00BF     		.align	2
 143              	.L11:
 144 0038 10000000 		.word	.LC1
 145 003c 00000000 		.word	.LC0
 146              		.cfi_endproc
 147              	.LFE113:
 148              		.size	spiStart, .-spiStart
 149              		.section	.text.spiStop,"ax",%progbits
 150              		.align	2
 151              		.p2align 4,,15
 152              		.global	spiStop
 153              		.thumb
 154              		.thumb_func
 155              		.type	spiStop, %function
 156              	spiStop:
 157              	.LFB114:
 158              		.loc 1 129 0
 159              		.cfi_startproc
 160              		@ args = 0, pretend = 0, frame = 0
 161              		@ frame_needed = 0, uses_anonymous_args = 0
 162              	.LVL11:
 163 0000 10B5     		push	{r4, lr}
 164              		.cfi_def_cfa_offset 8
 165              		.cfi_offset 4, -8
 166              		.cfi_offset 14, -4
 167              		.loc 1 131 0
 168 0002 0446     		mov	r4, r0
 169 0004 98B1     		cbz	r0, .L16
ARM GAS  /tmp/cc3zL94g.s 			page 4


 170              	.LVL12:
 171              	.L14:
 172              		.loc 1 133 0
 173              	@ 133 "../../os/hal/src/spi.c" 1
 174 0006 FFF7FEFF 		bl      _port_lock
 175              	@ 0 "" 2
 176              		.loc 1 134 0
 177              		.thumb
 178 000a 2378     		ldrb	r3, [r4]	@ zero_extendqisi2
 179 000c 013B     		subs	r3, r3, #1
 180 000e 012B     		cmp	r3, #1
 181 0010 02D9     		bls	.L15
 182              		.loc 1 134 0 is_stmt 0 discriminator 1
 183 0012 0948     		ldr	r0, .L17
 184 0014 FFF7FEFF 		bl	chDbgPanic
 185              	.LVL13:
 186              	.L15:
 187              		.loc 1 136 0 is_stmt 1
 188 0018 2046     		mov	r0, r4
 189 001a FFF7FEFF 		bl	spi_lld_unselect
 190              	.LVL14:
 191              		.loc 1 137 0
 192 001e 2046     		mov	r0, r4
 193 0020 FFF7FEFF 		bl	spi_lld_stop
 194              	.LVL15:
 195              		.loc 1 138 0
 196 0024 0123     		movs	r3, #1
 197 0026 2370     		strb	r3, [r4]
 198              		.loc 1 139 0
 199              	@ 139 "../../os/hal/src/spi.c" 1
 200 0028 FFF7FEFF 		bl      _port_unlock
 201              	@ 0 "" 2
 202              		.thumb
 203 002c 10BD     		pop	{r4, pc}
 204              	.LVL16:
 205              	.L16:
 206              		.loc 1 131 0 discriminator 1
 207 002e 0348     		ldr	r0, .L17+4
 208              	.LVL17:
 209 0030 FFF7FEFF 		bl	chDbgPanic
 210              	.LVL18:
 211 0034 E7E7     		b	.L14
 212              	.L18:
 213 0036 00BF     		.align	2
 214              	.L17:
 215 0038 2C000000 		.word	.LC3
 216 003c 20000000 		.word	.LC2
 217              		.cfi_endproc
 218              	.LFE114:
 219              		.size	spiStop, .-spiStop
 220              		.section	.text.spiSelect,"ax",%progbits
 221              		.align	2
 222              		.p2align 4,,15
 223              		.global	spiSelect
 224              		.thumb
 225              		.thumb_func
 226              		.type	spiSelect, %function
ARM GAS  /tmp/cc3zL94g.s 			page 5


 227              	spiSelect:
 228              	.LFB115:
 229              		.loc 1 149 0
 230              		.cfi_startproc
 231              		@ args = 0, pretend = 0, frame = 0
 232              		@ frame_needed = 0, uses_anonymous_args = 0
 233              	.LVL19:
 234 0000 10B5     		push	{r4, lr}
 235              		.cfi_def_cfa_offset 8
 236              		.cfi_offset 4, -8
 237              		.cfi_offset 14, -4
 238              		.loc 1 151 0
 239 0002 0446     		mov	r4, r0
 240 0004 68B1     		cbz	r0, .L25
 241              	.LVL20:
 242              	.L20:
 243              		.loc 1 153 0
 244              	@ 153 "../../os/hal/src/spi.c" 1
 245 0006 FFF7FEFF 		bl      _port_lock
 246              	@ 0 "" 2
 247              		.loc 1 154 0
 248              		.thumb
 249 000a 2378     		ldrb	r3, [r4]	@ zero_extendqisi2
 250 000c 022B     		cmp	r3, #2
 251 000e 02D0     		beq	.L21
 252              		.loc 1 154 0 is_stmt 0 discriminator 1
 253 0010 0648     		ldr	r0, .L26
 254 0012 FFF7FEFF 		bl	chDbgPanic
 255              	.LVL21:
 256              	.L21:
 257              		.loc 1 155 0 is_stmt 1
 258 0016 2046     		mov	r0, r4
 259 0018 FFF7FEFF 		bl	spi_lld_select
 260              	.LVL22:
 261              		.loc 1 156 0
 262              	@ 156 "../../os/hal/src/spi.c" 1
 263 001c FFF7FEFF 		bl      _port_unlock
 264              	@ 0 "" 2
 265              		.thumb
 266 0020 10BD     		pop	{r4, pc}
 267              	.LVL23:
 268              	.L25:
 269              		.loc 1 151 0 discriminator 1
 270 0022 0348     		ldr	r0, .L26+4
 271              	.LVL24:
 272 0024 FFF7FEFF 		bl	chDbgPanic
 273              	.LVL25:
 274 0028 EDE7     		b	.L20
 275              	.L27:
 276 002a 00BF     		.align	2
 277              	.L26:
 278 002c 4C000000 		.word	.LC5
 279 0030 3C000000 		.word	.LC4
 280              		.cfi_endproc
 281              	.LFE115:
 282              		.size	spiSelect, .-spiSelect
 283 0034 AFF30080 		.section	.text.spiUnselect,"ax",%progbits
ARM GAS  /tmp/cc3zL94g.s 			page 6


 283      AFF30080 
 283      AFF30080 
 284              		.align	2
 285              		.p2align 4,,15
 286              		.global	spiUnselect
 287              		.thumb
 288              		.thumb_func
 289              		.type	spiUnselect, %function
 290              	spiUnselect:
 291              	.LFB116:
 292              		.loc 1 167 0
 293              		.cfi_startproc
 294              		@ args = 0, pretend = 0, frame = 0
 295              		@ frame_needed = 0, uses_anonymous_args = 0
 296              	.LVL26:
 297 0000 10B5     		push	{r4, lr}
 298              		.cfi_def_cfa_offset 8
 299              		.cfi_offset 4, -8
 300              		.cfi_offset 14, -4
 301              		.loc 1 169 0
 302 0002 0446     		mov	r4, r0
 303 0004 68B1     		cbz	r0, .L34
 304              	.LVL27:
 305              	.L29:
 306              		.loc 1 171 0
 307              	@ 171 "../../os/hal/src/spi.c" 1
 308 0006 FFF7FEFF 		bl      _port_lock
 309              	@ 0 "" 2
 310              		.loc 1 172 0
 311              		.thumb
 312 000a 2378     		ldrb	r3, [r4]	@ zero_extendqisi2
 313 000c 022B     		cmp	r3, #2
 314 000e 02D0     		beq	.L30
 315              		.loc 1 172 0 is_stmt 0 discriminator 1
 316 0010 0648     		ldr	r0, .L35
 317 0012 FFF7FEFF 		bl	chDbgPanic
 318              	.LVL28:
 319              	.L30:
 320              		.loc 1 173 0 is_stmt 1
 321 0016 2046     		mov	r0, r4
 322 0018 FFF7FEFF 		bl	spi_lld_unselect
 323              	.LVL29:
 324              		.loc 1 174 0
 325              	@ 174 "../../os/hal/src/spi.c" 1
 326 001c FFF7FEFF 		bl      _port_unlock
 327              	@ 0 "" 2
 328              		.thumb
 329 0020 10BD     		pop	{r4, pc}
 330              	.LVL30:
 331              	.L34:
 332              		.loc 1 169 0 discriminator 1
 333 0022 0348     		ldr	r0, .L35+4
 334              	.LVL31:
 335 0024 FFF7FEFF 		bl	chDbgPanic
 336              	.LVL32:
 337 0028 EDE7     		b	.L29
 338              	.L36:
ARM GAS  /tmp/cc3zL94g.s 			page 7


 339 002a 00BF     		.align	2
 340              	.L35:
 341 002c 6C000000 		.word	.LC7
 342 0030 5C000000 		.word	.LC6
 343              		.cfi_endproc
 344              	.LFE116:
 345              		.size	spiUnselect, .-spiUnselect
 346 0034 AFF30080 		.section	.text.spiStartIgnore,"ax",%progbits
 346      AFF30080 
 346      AFF30080 
 347              		.align	2
 348              		.p2align 4,,15
 349              		.global	spiStartIgnore
 350              		.thumb
 351              		.thumb_func
 352              		.type	spiStartIgnore, %function
 353              	spiStartIgnore:
 354              	.LFB117:
 355              		.loc 1 190 0
 356              		.cfi_startproc
 357              		@ args = 0, pretend = 0, frame = 0
 358              		@ frame_needed = 0, uses_anonymous_args = 0
 359              	.LVL33:
 360 0000 38B5     		push	{r3, r4, r5, lr}
 361              		.cfi_def_cfa_offset 16
 362              		.cfi_offset 3, -16
 363              		.cfi_offset 4, -12
 364              		.cfi_offset 5, -8
 365              		.cfi_offset 14, -4
 366              		.loc 1 192 0
 367 0002 0446     		mov	r4, r0
 368              		.loc 1 190 0
 369 0004 0D46     		mov	r5, r1
 370              		.loc 1 192 0
 371 0006 88B1     		cbz	r0, .L38
 372              		.loc 1 192 0 is_stmt 0 discriminator 2
 373 0008 81B1     		cbz	r1, .L38
 374              	.LVL34:
 375              	.L39:
 376              		.loc 1 194 0 is_stmt 1
 377              	@ 194 "../../os/hal/src/spi.c" 1
 378 000a FFF7FEFF 		bl      _port_lock
 379              	@ 0 "" 2
 380              		.loc 1 195 0
 381              		.thumb
 382 000e 2378     		ldrb	r3, [r4]	@ zero_extendqisi2
 383 0010 022B     		cmp	r3, #2
 384 0012 02D0     		beq	.L40
 385              		.loc 1 195 0 is_stmt 0 discriminator 1
 386 0014 0748     		ldr	r0, .L47
 387 0016 FFF7FEFF 		bl	chDbgPanic
 388              	.LVL35:
 389              	.L40:
 390              		.loc 1 196 0 is_stmt 1
 391 001a 0323     		movs	r3, #3
 392 001c 2946     		mov	r1, r5
 393 001e 2370     		strb	r3, [r4]
ARM GAS  /tmp/cc3zL94g.s 			page 8


 394 0020 2046     		mov	r0, r4
 395 0022 FFF7FEFF 		bl	spi_lld_ignore
 396              	.LVL36:
 397              		.loc 1 197 0
 398              	@ 197 "../../os/hal/src/spi.c" 1
 399 0026 FFF7FEFF 		bl      _port_unlock
 400              	@ 0 "" 2
 401              		.thumb
 402 002a 38BD     		pop	{r3, r4, r5, pc}
 403              	.LVL37:
 404              	.L38:
 405              		.loc 1 192 0 discriminator 1
 406 002c 0248     		ldr	r0, .L47+4
 407              	.LVL38:
 408 002e FFF7FEFF 		bl	chDbgPanic
 409              	.LVL39:
 410 0032 EAE7     		b	.L39
 411              	.L48:
 412              		.align	2
 413              	.L47:
 414 0034 94000000 		.word	.LC9
 415 0038 80000000 		.word	.LC8
 416              		.cfi_endproc
 417              	.LFE117:
 418              		.size	spiStartIgnore, .-spiStartIgnore
 419 003c AFF30080 		.section	.text.spiStartExchange,"ax",%progbits
 420              		.align	2
 421              		.p2align 4,,15
 422              		.global	spiStartExchange
 423              		.thumb
 424              		.thumb_func
 425              		.type	spiStartExchange, %function
 426              	spiStartExchange:
 427              	.LFB118:
 428              		.loc 1 218 0
 429              		.cfi_startproc
 430              		@ args = 0, pretend = 0, frame = 0
 431              		@ frame_needed = 0, uses_anonymous_args = 0
 432              	.LVL40:
 433 0000 F8B5     		push	{r3, r4, r5, r6, r7, lr}
 434              		.cfi_def_cfa_offset 24
 435              		.cfi_offset 3, -24
 436              		.cfi_offset 4, -20
 437              		.cfi_offset 5, -16
 438              		.cfi_offset 6, -12
 439              		.cfi_offset 7, -8
 440              		.cfi_offset 14, -4
 441              		.loc 1 220 0
 442 0002 0446     		mov	r4, r0
 443              		.loc 1 218 0
 444 0004 0D46     		mov	r5, r1
 445 0006 1746     		mov	r7, r2
 446 0008 1E46     		mov	r6, r3
 447              		.loc 1 220 0
 448 000a 00B1     		cbz	r0, .L50
 449              		.loc 1 220 0 is_stmt 0 discriminator 2
 450 000c A9B9     		cbnz	r1, .L65
ARM GAS  /tmp/cc3zL94g.s 			page 9


 451              	.L50:
 452              		.loc 1 220 0 discriminator 1
 453 000e 0D48     		ldr	r0, .L66
 454              	.LVL41:
 455 0010 FFF7FEFF 		bl	chDbgPanic
 456              	.LVL42:
 457              	.L51:
 458              		.loc 1 223 0 is_stmt 1
 459              	@ 223 "../../os/hal/src/spi.c" 1
 460 0014 FFF7FEFF 		bl      _port_lock
 461              	@ 0 "" 2
 462              		.loc 1 224 0
 463              		.thumb
 464 0018 2378     		ldrb	r3, [r4]	@ zero_extendqisi2
 465 001a 022B     		cmp	r3, #2
 466 001c 02D0     		beq	.L52
 467              		.loc 1 224 0 is_stmt 0 discriminator 1
 468 001e 0A48     		ldr	r0, .L66+4
 469 0020 FFF7FEFF 		bl	chDbgPanic
 470              	.LVL43:
 471              	.L52:
 472              		.loc 1 225 0 is_stmt 1
 473 0024 0320     		movs	r0, #3
 474 0026 2070     		strb	r0, [r4]
 475 0028 2946     		mov	r1, r5
 476 002a 3A46     		mov	r2, r7
 477 002c 3346     		mov	r3, r6
 478 002e 2046     		mov	r0, r4
 479 0030 FFF7FEFF 		bl	spi_lld_exchange
 480              	.LVL44:
 481              		.loc 1 226 0
 482              	@ 226 "../../os/hal/src/spi.c" 1
 483 0034 FFF7FEFF 		bl      _port_unlock
 484              	@ 0 "" 2
 485              		.thumb
 486 0038 F8BD     		pop	{r3, r4, r5, r6, r7, pc}
 487              	.LVL45:
 488              	.L65:
 489              		.loc 1 220 0 discriminator 1
 490 003a 002B     		cmp	r3, #0
 491 003c E7D0     		beq	.L50
 492 003e 002A     		cmp	r2, #0
 493 0040 E8D1     		bne	.L51
 494 0042 E4E7     		b	.L50
 495              	.L67:
 496              		.align	2
 497              	.L66:
 498 0044 AC000000 		.word	.LC10
 499 0048 C4000000 		.word	.LC11
 500              		.cfi_endproc
 501              	.LFE118:
 502              		.size	spiStartExchange, .-spiStartExchange
 503 004c AFF30080 		.section	.text.spiStartSend,"ax",%progbits
 504              		.align	2
 505              		.p2align 4,,15
 506              		.global	spiStartSend
 507              		.thumb
ARM GAS  /tmp/cc3zL94g.s 			page 10


 508              		.thumb_func
 509              		.type	spiStartSend, %function
 510              	spiStartSend:
 511              	.LFB119:
 512              		.loc 1 244 0
 513              		.cfi_startproc
 514              		@ args = 0, pretend = 0, frame = 0
 515              		@ frame_needed = 0, uses_anonymous_args = 0
 516              	.LVL46:
 517 0000 70B5     		push	{r4, r5, r6, lr}
 518              		.cfi_def_cfa_offset 16
 519              		.cfi_offset 4, -16
 520              		.cfi_offset 5, -12
 521              		.cfi_offset 6, -8
 522              		.cfi_offset 14, -4
 523              		.loc 1 246 0
 524 0002 0446     		mov	r4, r0
 525              		.loc 1 244 0
 526 0004 0D46     		mov	r5, r1
 527 0006 1646     		mov	r6, r2
 528              		.loc 1 246 0
 529 0008 00B1     		cbz	r0, .L69
 530              		.loc 1 246 0 is_stmt 0 discriminator 2
 531 000a A1B9     		cbnz	r1, .L81
 532              	.L69:
 533              		.loc 1 246 0 discriminator 1
 534 000c 0B48     		ldr	r0, .L82
 535              	.LVL47:
 536 000e FFF7FEFF 		bl	chDbgPanic
 537              	.LVL48:
 538              	.L70:
 539              		.loc 1 249 0 is_stmt 1
 540              	@ 249 "../../os/hal/src/spi.c" 1
 541 0012 FFF7FEFF 		bl      _port_lock
 542              	@ 0 "" 2
 543              		.loc 1 250 0
 544              		.thumb
 545 0016 2378     		ldrb	r3, [r4]	@ zero_extendqisi2
 546 0018 022B     		cmp	r3, #2
 547 001a 02D0     		beq	.L71
 548              		.loc 1 250 0 is_stmt 0 discriminator 1
 549 001c 0848     		ldr	r0, .L82+4
 550 001e FFF7FEFF 		bl	chDbgPanic
 551              	.LVL49:
 552              	.L71:
 553              		.loc 1 251 0 is_stmt 1
 554 0022 0323     		movs	r3, #3
 555 0024 2946     		mov	r1, r5
 556 0026 3246     		mov	r2, r6
 557 0028 2370     		strb	r3, [r4]
 558 002a 2046     		mov	r0, r4
 559 002c FFF7FEFF 		bl	spi_lld_send
 560              	.LVL50:
 561              		.loc 1 252 0
 562              	@ 252 "../../os/hal/src/spi.c" 1
 563 0030 FFF7FEFF 		bl      _port_unlock
 564              	@ 0 "" 2
ARM GAS  /tmp/cc3zL94g.s 			page 11


 565              		.thumb
 566 0034 70BD     		pop	{r4, r5, r6, pc}
 567              	.LVL51:
 568              	.L81:
 569              		.loc 1 246 0 discriminator 1
 570 0036 002A     		cmp	r2, #0
 571 0038 EBD1     		bne	.L70
 572 003a E7E7     		b	.L69
 573              	.L83:
 574              		.align	2
 575              	.L82:
 576 003c DC000000 		.word	.LC12
 577 0040 F0000000 		.word	.LC13
 578              		.cfi_endproc
 579              	.LFE119:
 580              		.size	spiStartSend, .-spiStartSend
 581 0044 AFF30080 		.section	.text.spiStartReceive,"ax",%progbits
 581      AFF30080 
 581      AFF30080 
 582              		.align	2
 583              		.p2align 4,,15
 584              		.global	spiStartReceive
 585              		.thumb
 586              		.thumb_func
 587              		.type	spiStartReceive, %function
 588              	spiStartReceive:
 589              	.LFB120:
 590              		.loc 1 270 0
 591              		.cfi_startproc
 592              		@ args = 0, pretend = 0, frame = 0
 593              		@ frame_needed = 0, uses_anonymous_args = 0
 594              	.LVL52:
 595 0000 70B5     		push	{r4, r5, r6, lr}
 596              		.cfi_def_cfa_offset 16
 597              		.cfi_offset 4, -16
 598              		.cfi_offset 5, -12
 599              		.cfi_offset 6, -8
 600              		.cfi_offset 14, -4
 601              		.loc 1 272 0
 602 0002 0446     		mov	r4, r0
 603              		.loc 1 270 0
 604 0004 0D46     		mov	r5, r1
 605 0006 1646     		mov	r6, r2
 606              		.loc 1 272 0
 607 0008 00B1     		cbz	r0, .L85
 608              		.loc 1 272 0 is_stmt 0 discriminator 2
 609 000a A1B9     		cbnz	r1, .L97
 610              	.L85:
 611              		.loc 1 272 0 discriminator 1
 612 000c 0B48     		ldr	r0, .L98
 613              	.LVL53:
 614 000e FFF7FEFF 		bl	chDbgPanic
 615              	.LVL54:
 616              	.L86:
 617              		.loc 1 275 0 is_stmt 1
 618              	@ 275 "../../os/hal/src/spi.c" 1
 619 0012 FFF7FEFF 		bl      _port_lock
ARM GAS  /tmp/cc3zL94g.s 			page 12


 620              	@ 0 "" 2
 621              		.loc 1 276 0
 622              		.thumb
 623 0016 2378     		ldrb	r3, [r4]	@ zero_extendqisi2
 624 0018 022B     		cmp	r3, #2
 625 001a 02D0     		beq	.L87
 626              		.loc 1 276 0 is_stmt 0 discriminator 1
 627 001c 0848     		ldr	r0, .L98+4
 628 001e FFF7FEFF 		bl	chDbgPanic
 629              	.LVL55:
 630              	.L87:
 631              		.loc 1 277 0 is_stmt 1
 632 0022 0323     		movs	r3, #3
 633 0024 2946     		mov	r1, r5
 634 0026 3246     		mov	r2, r6
 635 0028 2370     		strb	r3, [r4]
 636 002a 2046     		mov	r0, r4
 637 002c FFF7FEFF 		bl	spi_lld_receive
 638              	.LVL56:
 639              		.loc 1 278 0
 640              	@ 278 "../../os/hal/src/spi.c" 1
 641 0030 FFF7FEFF 		bl      _port_unlock
 642              	@ 0 "" 2
 643              		.thumb
 644 0034 70BD     		pop	{r4, r5, r6, pc}
 645              	.LVL57:
 646              	.L97:
 647              		.loc 1 272 0 discriminator 1
 648 0036 002A     		cmp	r2, #0
 649 0038 EBD1     		bne	.L86
 650 003a E7E7     		b	.L85
 651              	.L99:
 652              		.align	2
 653              	.L98:
 654 003c 04010000 		.word	.LC14
 655 0040 18010000 		.word	.LC15
 656              		.cfi_endproc
 657              	.LFE120:
 658              		.size	spiStartReceive, .-spiStartReceive
 659 0044 AFF30080 		.section	.text.spiIgnore,"ax",%progbits
 659      AFF30080 
 659      AFF30080 
 660              		.align	2
 661              		.p2align 4,,15
 662              		.global	spiIgnore
 663              		.thumb
 664              		.thumb_func
 665              		.type	spiIgnore, %function
 666              	spiIgnore:
 667              	.LFB121:
 668              		.loc 1 296 0
 669              		.cfi_startproc
 670              		@ args = 0, pretend = 0, frame = 0
 671              		@ frame_needed = 0, uses_anonymous_args = 0
 672              	.LVL58:
 673 0000 38B5     		push	{r3, r4, r5, lr}
 674              		.cfi_def_cfa_offset 16
ARM GAS  /tmp/cc3zL94g.s 			page 13


 675              		.cfi_offset 3, -16
 676              		.cfi_offset 4, -12
 677              		.cfi_offset 5, -8
 678              		.cfi_offset 14, -4
 679              		.loc 1 298 0
 680 0002 0446     		mov	r4, r0
 681              		.loc 1 296 0
 682 0004 0D46     		mov	r5, r1
 683              		.loc 1 298 0
 684 0006 10B3     		cbz	r0, .L101
 685              		.loc 1 298 0 is_stmt 0 discriminator 2
 686 0008 09B3     		cbz	r1, .L101
 687              	.LVL59:
 688              	.L102:
 689              		.loc 1 300 0 is_stmt 1
 690              	@ 300 "../../os/hal/src/spi.c" 1
 691 000a FFF7FEFF 		bl      _port_lock
 692              	@ 0 "" 2
 693              		.loc 1 301 0
 694              		.thumb
 695 000e 2378     		ldrb	r3, [r4]	@ zero_extendqisi2
 696 0010 022B     		cmp	r3, #2
 697 0012 02D0     		beq	.L103
 698              		.loc 1 301 0 is_stmt 0 discriminator 1
 699 0014 1048     		ldr	r0, .L118
 700 0016 FFF7FEFF 		bl	chDbgPanic
 701              	.LVL60:
 702              	.L103:
 703              		.loc 1 302 0 is_stmt 1
 704 001a 6368     		ldr	r3, [r4, #4]
 705 001c 1B68     		ldr	r3, [r3]
 706 001e 13B1     		cbz	r3, .L104
 707              		.loc 1 302 0 is_stmt 0 discriminator 1
 708 0020 0E48     		ldr	r0, .L118+4
 709 0022 FFF7FEFF 		bl	chDbgPanic
 710              	.LVL61:
 711              	.L104:
 712              		.loc 1 303 0 is_stmt 1
 713 0026 0323     		movs	r3, #3
 714 0028 2370     		strb	r3, [r4]
 715 002a 2946     		mov	r1, r5
 716 002c 2046     		mov	r0, r4
 717 002e FFF7FEFF 		bl	spi_lld_ignore
 718              	.LVL62:
 719              		.loc 1 304 0
 720 0032 A368     		ldr	r3, [r4, #8]
 721 0034 13B1     		cbz	r3, .L105
 722              		.loc 1 304 0 is_stmt 0 discriminator 1
 723 0036 0A48     		ldr	r0, .L118+8
 724 0038 FFF7FEFF 		bl	chDbgPanic
 725              	.LVL63:
 726              	.L105:
 727              		.loc 1 304 0 discriminator 2
 728 003c 094B     		ldr	r3, .L118+12
 729 003e 9B69     		ldr	r3, [r3, #24]
 730 0040 A360     		str	r3, [r4, #8]
 731 0042 0220     		movs	r0, #2
ARM GAS  /tmp/cc3zL94g.s 			page 14


 732 0044 FFF7FEFF 		bl	chSchGoSleepS
 733              	.LVL64:
 734              		.loc 1 305 0 is_stmt 1 discriminator 2
 735              	@ 305 "../../os/hal/src/spi.c" 1
 736 0048 FFF7FEFF 		bl      _port_unlock
 737              	@ 0 "" 2
 738              		.thumb
 739 004c 38BD     		pop	{r3, r4, r5, pc}
 740              	.LVL65:
 741              	.L101:
 742              		.loc 1 298 0 discriminator 1
 743 004e 0648     		ldr	r0, .L118+16
 744              	.LVL66:
 745 0050 FFF7FEFF 		bl	chDbgPanic
 746              	.LVL67:
 747 0054 D9E7     		b	.L102
 748              	.L119:
 749 0056 00BF     		.align	2
 750              	.L118:
 751 0058 44010000 		.word	.LC17
 752 005c 54010000 		.word	.LC18
 753 0060 64010000 		.word	.LC19
 754 0064 00000000 		.word	rlist
 755 0068 30010000 		.word	.LC16
 756              		.cfi_endproc
 757              	.LFE121:
 758              		.size	spiIgnore, .-spiIgnore
 759 006c AFF30080 		.section	.text.spiExchange,"ax",%progbits
 760              		.align	2
 761              		.p2align 4,,15
 762              		.global	spiExchange
 763              		.thumb
 764              		.thumb_func
 765              		.type	spiExchange, %function
 766              	spiExchange:
 767              	.LFB122:
 768              		.loc 1 327 0
 769              		.cfi_startproc
 770              		@ args = 0, pretend = 0, frame = 0
 771              		@ frame_needed = 0, uses_anonymous_args = 0
 772              	.LVL68:
 773 0000 F8B5     		push	{r3, r4, r5, r6, r7, lr}
 774              		.cfi_def_cfa_offset 24
 775              		.cfi_offset 3, -24
 776              		.cfi_offset 4, -20
 777              		.cfi_offset 5, -16
 778              		.cfi_offset 6, -12
 779              		.cfi_offset 7, -8
 780              		.cfi_offset 14, -4
 781              		.loc 1 329 0
 782 0002 0446     		mov	r4, r0
 783              		.loc 1 327 0
 784 0004 0D46     		mov	r5, r1
 785 0006 1746     		mov	r7, r2
 786 0008 1E46     		mov	r6, r3
 787              		.loc 1 329 0
 788 000a 00B1     		cbz	r0, .L121
ARM GAS  /tmp/cc3zL94g.s 			page 15


 789              		.loc 1 329 0 is_stmt 0 discriminator 2
 790 000c 31BB     		cbnz	r1, .L144
 791              	.L121:
 792              		.loc 1 329 0 discriminator 1
 793 000e 1648     		ldr	r0, .L145
 794              	.LVL69:
 795 0010 FFF7FEFF 		bl	chDbgPanic
 796              	.LVL70:
 797              	.L122:
 798              		.loc 1 332 0 is_stmt 1
 799              	@ 332 "../../os/hal/src/spi.c" 1
 800 0014 FFF7FEFF 		bl      _port_lock
 801              	@ 0 "" 2
 802              		.loc 1 333 0
 803              		.thumb
 804 0018 2378     		ldrb	r3, [r4]	@ zero_extendqisi2
 805 001a 022B     		cmp	r3, #2
 806 001c 02D0     		beq	.L123
 807              		.loc 1 333 0 is_stmt 0 discriminator 1
 808 001e 1348     		ldr	r0, .L145+4
 809 0020 FFF7FEFF 		bl	chDbgPanic
 810              	.LVL71:
 811              	.L123:
 812              		.loc 1 334 0 is_stmt 1
 813 0024 6368     		ldr	r3, [r4, #4]
 814 0026 1B68     		ldr	r3, [r3]
 815 0028 13B1     		cbz	r3, .L124
 816              		.loc 1 334 0 is_stmt 0 discriminator 1
 817 002a 1148     		ldr	r0, .L145+8
 818 002c FFF7FEFF 		bl	chDbgPanic
 819              	.LVL72:
 820              	.L124:
 821              		.loc 1 336 0 is_stmt 1
 822 0030 0320     		movs	r0, #3
 823 0032 3346     		mov	r3, r6
 824 0034 2070     		strb	r0, [r4]
 825 0036 2946     		mov	r1, r5
 826 0038 3A46     		mov	r2, r7
 827 003a 2046     		mov	r0, r4
 828 003c FFF7FEFF 		bl	spi_lld_exchange
 829              	.LVL73:
 830              		.loc 1 337 0
 831 0040 A368     		ldr	r3, [r4, #8]
 832 0042 13B1     		cbz	r3, .L125
 833              		.loc 1 337 0 is_stmt 0 discriminator 1
 834 0044 0B48     		ldr	r0, .L145+12
 835 0046 FFF7FEFF 		bl	chDbgPanic
 836              	.LVL74:
 837              	.L125:
 838              		.loc 1 337 0 discriminator 2
 839 004a 0B4B     		ldr	r3, .L145+16
 840 004c 9B69     		ldr	r3, [r3, #24]
 841 004e A360     		str	r3, [r4, #8]
 842 0050 0220     		movs	r0, #2
 843 0052 FFF7FEFF 		bl	chSchGoSleepS
 844              	.LVL75:
 845              		.loc 1 338 0 is_stmt 1 discriminator 2
ARM GAS  /tmp/cc3zL94g.s 			page 16


 846              	@ 338 "../../os/hal/src/spi.c" 1
 847 0056 FFF7FEFF 		bl      _port_unlock
 848              	@ 0 "" 2
 849              		.thumb
 850 005a F8BD     		pop	{r3, r4, r5, r6, r7, pc}
 851              	.LVL76:
 852              	.L144:
 853              		.loc 1 329 0 discriminator 1
 854 005c 002B     		cmp	r3, #0
 855 005e D6D0     		beq	.L121
 856 0060 002A     		cmp	r2, #0
 857 0062 D7D1     		bne	.L122
 858 0064 D3E7     		b	.L121
 859              	.L146:
 860 0066 00BF     		.align	2
 861              	.L145:
 862 0068 74010000 		.word	.LC20
 863 006c 84010000 		.word	.LC21
 864 0070 98010000 		.word	.LC22
 865 0074 64010000 		.word	.LC19
 866 0078 00000000 		.word	rlist
 867              		.cfi_endproc
 868              	.LFE122:
 869              		.size	spiExchange, .-spiExchange
 870 007c AFF30080 		.section	.text.spiSend,"ax",%progbits
 871              		.align	2
 872              		.p2align 4,,15
 873              		.global	spiSend
 874              		.thumb
 875              		.thumb_func
 876              		.type	spiSend, %function
 877              	spiSend:
 878              	.LFB123:
 879              		.loc 1 357 0
 880              		.cfi_startproc
 881              		@ args = 0, pretend = 0, frame = 0
 882              		@ frame_needed = 0, uses_anonymous_args = 0
 883              	.LVL77:
 884 0000 70B5     		push	{r4, r5, r6, lr}
 885              		.cfi_def_cfa_offset 16
 886              		.cfi_offset 4, -16
 887              		.cfi_offset 5, -12
 888              		.cfi_offset 6, -8
 889              		.cfi_offset 14, -4
 890              		.loc 1 359 0
 891 0002 0446     		mov	r4, r0
 892              		.loc 1 357 0
 893 0004 0D46     		mov	r5, r1
 894 0006 1646     		mov	r6, r2
 895              		.loc 1 359 0
 896 0008 00B1     		cbz	r0, .L148
 897              		.loc 1 359 0 is_stmt 0 discriminator 2
 898 000a 29BB     		cbnz	r1, .L168
 899              	.L148:
 900              		.loc 1 359 0 discriminator 1
 901 000c 1448     		ldr	r0, .L169
 902              	.LVL78:
ARM GAS  /tmp/cc3zL94g.s 			page 17


 903 000e FFF7FEFF 		bl	chDbgPanic
 904              	.LVL79:
 905              	.L149:
 906              		.loc 1 361 0 is_stmt 1
 907              	@ 361 "../../os/hal/src/spi.c" 1
 908 0012 FFF7FEFF 		bl      _port_lock
 909              	@ 0 "" 2
 910              		.loc 1 362 0
 911              		.thumb
 912 0016 2378     		ldrb	r3, [r4]	@ zero_extendqisi2
 913 0018 022B     		cmp	r3, #2
 914 001a 02D0     		beq	.L150
 915              		.loc 1 362 0 is_stmt 0 discriminator 1
 916 001c 1148     		ldr	r0, .L169+4
 917 001e FFF7FEFF 		bl	chDbgPanic
 918              	.LVL80:
 919              	.L150:
 920              		.loc 1 363 0 is_stmt 1
 921 0022 6368     		ldr	r3, [r4, #4]
 922 0024 1B68     		ldr	r3, [r3]
 923 0026 13B1     		cbz	r3, .L151
 924              		.loc 1 363 0 is_stmt 0 discriminator 1
 925 0028 0F48     		ldr	r0, .L169+8
 926 002a FFF7FEFF 		bl	chDbgPanic
 927              	.LVL81:
 928              	.L151:
 929              		.loc 1 364 0 is_stmt 1
 930 002e 0323     		movs	r3, #3
 931 0030 2370     		strb	r3, [r4]
 932 0032 2946     		mov	r1, r5
 933 0034 3246     		mov	r2, r6
 934 0036 2046     		mov	r0, r4
 935 0038 FFF7FEFF 		bl	spi_lld_send
 936              	.LVL82:
 937              		.loc 1 365 0
 938 003c A368     		ldr	r3, [r4, #8]
 939 003e 13B1     		cbz	r3, .L152
 940              		.loc 1 365 0 is_stmt 0 discriminator 1
 941 0040 0A48     		ldr	r0, .L169+12
 942 0042 FFF7FEFF 		bl	chDbgPanic
 943              	.LVL83:
 944              	.L152:
 945              		.loc 1 365 0 discriminator 2
 946 0046 0A4B     		ldr	r3, .L169+16
 947 0048 9B69     		ldr	r3, [r3, #24]
 948 004a A360     		str	r3, [r4, #8]
 949 004c 0220     		movs	r0, #2
 950 004e FFF7FEFF 		bl	chSchGoSleepS
 951              	.LVL84:
 952              		.loc 1 366 0 is_stmt 1 discriminator 2
 953              	@ 366 "../../os/hal/src/spi.c" 1
 954 0052 FFF7FEFF 		bl      _port_unlock
 955              	@ 0 "" 2
 956              		.thumb
 957 0056 70BD     		pop	{r4, r5, r6, pc}
 958              	.LVL85:
 959              	.L168:
ARM GAS  /tmp/cc3zL94g.s 			page 18


 960              		.loc 1 359 0 discriminator 1
 961 0058 002A     		cmp	r2, #0
 962 005a DAD1     		bne	.L149
 963 005c D6E7     		b	.L148
 964              	.L170:
 965 005e 00BF     		.align	2
 966              	.L169:
 967 0060 AC010000 		.word	.LC23
 968 0064 B8010000 		.word	.LC24
 969 0068 C8010000 		.word	.LC25
 970 006c 64010000 		.word	.LC19
 971 0070 00000000 		.word	rlist
 972              		.cfi_endproc
 973              	.LFE123:
 974              		.size	spiSend, .-spiSend
 975 0074 AFF30080 		.section	.text.spiReceive,"ax",%progbits
 975      AFF30080 
 975      AFF30080 
 976              		.align	2
 977              		.p2align 4,,15
 978              		.global	spiReceive
 979              		.thumb
 980              		.thumb_func
 981              		.type	spiReceive, %function
 982              	spiReceive:
 983              	.LFB124:
 984              		.loc 1 385 0
 985              		.cfi_startproc
 986              		@ args = 0, pretend = 0, frame = 0
 987              		@ frame_needed = 0, uses_anonymous_args = 0
 988              	.LVL86:
 989 0000 70B5     		push	{r4, r5, r6, lr}
 990              		.cfi_def_cfa_offset 16
 991              		.cfi_offset 4, -16
 992              		.cfi_offset 5, -12
 993              		.cfi_offset 6, -8
 994              		.cfi_offset 14, -4
 995              		.loc 1 387 0
 996 0002 0446     		mov	r4, r0
 997              		.loc 1 385 0
 998 0004 0D46     		mov	r5, r1
 999 0006 1646     		mov	r6, r2
 1000              		.loc 1 387 0
 1001 0008 00B1     		cbz	r0, .L172
 1002              		.loc 1 387 0 is_stmt 0 discriminator 2
 1003 000a 29BB     		cbnz	r1, .L192
 1004              	.L172:
 1005              		.loc 1 387 0 discriminator 1
 1006 000c 1448     		ldr	r0, .L193
 1007              	.LVL87:
 1008 000e FFF7FEFF 		bl	chDbgPanic
 1009              	.LVL88:
 1010              	.L173:
 1011              		.loc 1 390 0 is_stmt 1
 1012              	@ 390 "../../os/hal/src/spi.c" 1
 1013 0012 FFF7FEFF 		bl      _port_lock
 1014              	@ 0 "" 2
ARM GAS  /tmp/cc3zL94g.s 			page 19


 1015              		.loc 1 391 0
 1016              		.thumb
 1017 0016 2378     		ldrb	r3, [r4]	@ zero_extendqisi2
 1018 0018 022B     		cmp	r3, #2
 1019 001a 02D0     		beq	.L174
 1020              		.loc 1 391 0 is_stmt 0 discriminator 1
 1021 001c 1148     		ldr	r0, .L193+4
 1022 001e FFF7FEFF 		bl	chDbgPanic
 1023              	.LVL89:
 1024              	.L174:
 1025              		.loc 1 392 0 is_stmt 1
 1026 0022 6368     		ldr	r3, [r4, #4]
 1027 0024 1B68     		ldr	r3, [r3]
 1028 0026 13B1     		cbz	r3, .L175
 1029              		.loc 1 392 0 is_stmt 0 discriminator 1
 1030 0028 0F48     		ldr	r0, .L193+8
 1031 002a FFF7FEFF 		bl	chDbgPanic
 1032              	.LVL90:
 1033              	.L175:
 1034              		.loc 1 394 0 is_stmt 1
 1035 002e 0323     		movs	r3, #3
 1036 0030 2370     		strb	r3, [r4]
 1037 0032 2946     		mov	r1, r5
 1038 0034 3246     		mov	r2, r6
 1039 0036 2046     		mov	r0, r4
 1040 0038 FFF7FEFF 		bl	spi_lld_receive
 1041              	.LVL91:
 1042              		.loc 1 395 0
 1043 003c A368     		ldr	r3, [r4, #8]
 1044 003e 13B1     		cbz	r3, .L176
 1045              		.loc 1 395 0 is_stmt 0 discriminator 1
 1046 0040 0A48     		ldr	r0, .L193+12
 1047 0042 FFF7FEFF 		bl	chDbgPanic
 1048              	.LVL92:
 1049              	.L176:
 1050              		.loc 1 395 0 discriminator 2
 1051 0046 0A4B     		ldr	r3, .L193+16
 1052 0048 9B69     		ldr	r3, [r3, #24]
 1053 004a A360     		str	r3, [r4, #8]
 1054 004c 0220     		movs	r0, #2
 1055 004e FFF7FEFF 		bl	chSchGoSleepS
 1056              	.LVL93:
 1057              		.loc 1 396 0 is_stmt 1 discriminator 2
 1058              	@ 396 "../../os/hal/src/spi.c" 1
 1059 0052 FFF7FEFF 		bl      _port_unlock
 1060              	@ 0 "" 2
 1061              		.thumb
 1062 0056 70BD     		pop	{r4, r5, r6, pc}
 1063              	.LVL94:
 1064              	.L192:
 1065              		.loc 1 387 0 discriminator 1
 1066 0058 002A     		cmp	r2, #0
 1067 005a DAD1     		bne	.L173
 1068 005c D6E7     		b	.L172
 1069              	.L194:
 1070 005e 00BF     		.align	2
 1071              	.L193:
ARM GAS  /tmp/cc3zL94g.s 			page 20


 1072 0060 D8010000 		.word	.LC26
 1073 0064 E8010000 		.word	.LC27
 1074 0068 FC010000 		.word	.LC28
 1075 006c 64010000 		.word	.LC19
 1076 0070 00000000 		.word	rlist
 1077              		.cfi_endproc
 1078              	.LFE124:
 1079              		.size	spiReceive, .-spiReceive
 1080 0074 AFF30080 		.section	.text.spiAcquireBus,"ax",%progbits
 1080      AFF30080 
 1080      AFF30080 
 1081              		.align	2
 1082              		.p2align 4,,15
 1083              		.global	spiAcquireBus
 1084              		.thumb
 1085              		.thumb_func
 1086              		.type	spiAcquireBus, %function
 1087              	spiAcquireBus:
 1088              	.LFB125:
 1089              		.loc 1 412 0
 1090              		.cfi_startproc
 1091              		@ args = 0, pretend = 0, frame = 0
 1092              		@ frame_needed = 0, uses_anonymous_args = 0
 1093              	.LVL95:
 1094 0000 10B5     		push	{r4, lr}
 1095              		.cfi_def_cfa_offset 8
 1096              		.cfi_offset 4, -8
 1097              		.cfi_offset 14, -4
 1098              		.loc 1 414 0
 1099 0002 0446     		mov	r4, r0
 1100 0004 28B1     		cbz	r0, .L197
 1101              		.loc 1 417 0
 1102 0006 04F10C00 		add	r0, r4, #12
 1103              	.LVL96:
 1104              		.loc 1 421 0
 1105 000a BDE81040 		pop	{r4, lr}
 1106              	.LVL97:
 1107              		.loc 1 417 0
 1108 000e FFF7FEBF 		b	chMtxLock
 1109              	.LVL98:
 1110              	.L197:
 1111              		.loc 1 414 0 discriminator 1
 1112 0012 0448     		ldr	r0, .L198
 1113              	.LVL99:
 1114 0014 FFF7FEFF 		bl	chDbgPanic
 1115              	.LVL100:
 1116              		.loc 1 417 0 discriminator 1
 1117 0018 04F10C00 		add	r0, r4, #12
 1118              		.loc 1 421 0 discriminator 1
 1119 001c BDE81040 		pop	{r4, lr}
 1120              	.LVL101:
 1121              		.loc 1 417 0 discriminator 1
 1122 0020 FFF7FEBF 		b	chMtxLock
 1123              	.LVL102:
 1124              	.L199:
 1125              		.align	2
 1126              	.L198:
ARM GAS  /tmp/cc3zL94g.s 			page 21


 1127 0024 10020000 		.word	.LC29
 1128              		.cfi_endproc
 1129              	.LFE125:
 1130              		.size	spiAcquireBus, .-spiAcquireBus
 1131 0028 AFF30080 		.section	.text.spiReleaseBus,"ax",%progbits
 1131      AFF30080 
 1132              		.align	2
 1133              		.p2align 4,,15
 1134              		.global	spiReleaseBus
 1135              		.thumb
 1136              		.thumb_func
 1137              		.type	spiReleaseBus, %function
 1138              	spiReleaseBus:
 1139              	.LFB126:
 1140              		.loc 1 432 0
 1141              		.cfi_startproc
 1142              		@ args = 0, pretend = 0, frame = 0
 1143              		@ frame_needed = 0, uses_anonymous_args = 0
 1144              	.LVL103:
 1145 0000 08B5     		push	{r3, lr}
 1146              		.cfi_def_cfa_offset 8
 1147              		.cfi_offset 3, -8
 1148              		.cfi_offset 14, -4
 1149              		.loc 1 434 0
 1150 0002 18B1     		cbz	r0, .L202
 1151              		.loc 1 442 0
 1152 0004 BDE80840 		pop	{r3, lr}
 1153              		.loc 1 438 0
 1154 0008 FFF7FEBF 		b	chMtxUnlock
 1155              	.LVL104:
 1156              	.L202:
 1157              		.loc 1 434 0 discriminator 1
 1158 000c 0348     		ldr	r0, .L203
 1159              	.LVL105:
 1160 000e FFF7FEFF 		bl	chDbgPanic
 1161              	.LVL106:
 1162              		.loc 1 442 0 discriminator 1
 1163 0012 BDE80840 		pop	{r3, lr}
 1164              		.loc 1 438 0 discriminator 1
 1165 0016 FFF7FEBF 		b	chMtxUnlock
 1166              	.LVL107:
 1167              	.L204:
 1168 001a 00BF     		.align	2
 1169              	.L203:
 1170 001c 24020000 		.word	.LC30
 1171              		.cfi_endproc
 1172              	.LFE126:
 1173              		.size	spiReleaseBus, .-spiReleaseBus
 1174              		.section	.rodata.str1.4,"aMS",%progbits,1
 1175              		.align	2
 1176              	.LC0:
 1177 0000 22737069 		.ascii	"\"spiStart\"()\000"
 1177      53746172 
 1177      74222829 
 1177      00
 1178 000d 000000   		.space	3
 1179              	.LC1:
ARM GAS  /tmp/cc3zL94g.s 			page 22


 1180 0010 73706953 		.ascii	"spiStart(), #1\000"
 1180      74617274 
 1180      28292C20 
 1180      233100
 1181 001f 00       		.space	1
 1182              	.LC2:
 1183 0020 22737069 		.ascii	"\"spiStop\"()\000"
 1183      53746F70 
 1183      22282900 
 1184              	.LC3:
 1185 002c 73706953 		.ascii	"spiStop(), #1\000"
 1185      746F7028 
 1185      292C2023 
 1185      3100
 1186 003a 0000     		.space	2
 1187              	.LC4:
 1188 003c 22737069 		.ascii	"\"spiSelect\"()\000"
 1188      53656C65 
 1188      63742228 
 1188      2900
 1189 004a 0000     		.space	2
 1190              	.LC5:
 1191 004c 73706953 		.ascii	"spiSelect(), #1\000"
 1191      656C6563 
 1191      7428292C 
 1191      20233100 
 1192              	.LC6:
 1193 005c 22737069 		.ascii	"\"spiUnselect\"()\000"
 1193      556E7365 
 1193      6C656374 
 1193      22282900 
 1194              	.LC7:
 1195 006c 73706955 		.ascii	"spiUnselect(), #1\000"
 1195      6E73656C 
 1195      65637428 
 1195      292C2023 
 1195      3100
 1196 007e 0000     		.space	2
 1197              	.LC8:
 1198 0080 22737069 		.ascii	"\"spiStartIgnore\"()\000"
 1198      53746172 
 1198      7449676E 
 1198      6F726522 
 1198      282900
 1199 0093 00       		.space	1
 1200              	.LC9:
 1201 0094 73706953 		.ascii	"spiStartIgnore(), #1\000"
 1201      74617274 
 1201      49676E6F 
 1201      72652829 
 1201      2C202331 
 1202 00a9 000000   		.space	3
 1203              	.LC10:
 1204 00ac 22737069 		.ascii	"\"spiStartExchange\"()\000"
 1204      53746172 
 1204      74457863 
 1204      68616E67 
ARM GAS  /tmp/cc3zL94g.s 			page 23


 1204      65222829 
 1205 00c1 000000   		.space	3
 1206              	.LC11:
 1207 00c4 73706953 		.ascii	"spiStartExchange(), #1\000"
 1207      74617274 
 1207      45786368 
 1207      616E6765 
 1207      28292C20 
 1208 00db 00       		.space	1
 1209              	.LC12:
 1210 00dc 22737069 		.ascii	"\"spiStartSend\"()\000"
 1210      53746172 
 1210      7453656E 
 1210      64222829 
 1210      00
 1211 00ed 000000   		.space	3
 1212              	.LC13:
 1213 00f0 73706953 		.ascii	"spiStartSend(), #1\000"
 1213      74617274 
 1213      53656E64 
 1213      28292C20 
 1213      233100
 1214 0103 00       		.space	1
 1215              	.LC14:
 1216 0104 22737069 		.ascii	"\"spiStartReceive\"()\000"
 1216      53746172 
 1216      74526563 
 1216      65697665 
 1216      22282900 
 1217              	.LC15:
 1218 0118 73706953 		.ascii	"spiStartReceive(), #1\000"
 1218      74617274 
 1218      52656365 
 1218      69766528 
 1218      292C2023 
 1219 012e 0000     		.space	2
 1220              	.LC16:
 1221 0130 22737069 		.ascii	"\"spiIgnoreWait\"()\000"
 1221      49676E6F 
 1221      72655761 
 1221      69742228 
 1221      2900
 1222 0142 0000     		.space	2
 1223              	.LC17:
 1224 0144 73706949 		.ascii	"spiIgnore(), #1\000"
 1224      676E6F72 
 1224      6528292C 
 1224      20233100 
 1225              	.LC18:
 1226 0154 73706949 		.ascii	"spiIgnore(), #2\000"
 1226      676E6F72 
 1226      6528292C 
 1226      20233200 
 1227              	.LC19:
 1228 0164 5F737069 		.ascii	"_spi_wait(), #1\000"
 1228      5F776169 
 1228      7428292C 
ARM GAS  /tmp/cc3zL94g.s 			page 24


 1228      20233100 
 1229              	.LC20:
 1230 0174 22737069 		.ascii	"\"spiExchange\"()\000"
 1230      45786368 
 1230      616E6765 
 1230      22282900 
 1231              	.LC21:
 1232 0184 73706945 		.ascii	"spiExchange(), #1\000"
 1232      78636861 
 1232      6E676528 
 1232      292C2023 
 1232      3100
 1233 0196 0000     		.space	2
 1234              	.LC22:
 1235 0198 73706945 		.ascii	"spiExchange(), #2\000"
 1235      78636861 
 1235      6E676528 
 1235      292C2023 
 1235      3200
 1236 01aa 0000     		.space	2
 1237              	.LC23:
 1238 01ac 22737069 		.ascii	"\"spiSend\"()\000"
 1238      53656E64 
 1238      22282900 
 1239              	.LC24:
 1240 01b8 73706953 		.ascii	"spiSend(), #1\000"
 1240      656E6428 
 1240      292C2023 
 1240      3100
 1241 01c6 0000     		.space	2
 1242              	.LC25:
 1243 01c8 73706953 		.ascii	"spiSend(), #2\000"
 1243      656E6428 
 1243      292C2023 
 1243      3200
 1244 01d6 0000     		.space	2
 1245              	.LC26:
 1246 01d8 22737069 		.ascii	"\"spiReceive\"()\000"
 1246      52656365 
 1246      69766522 
 1246      282900
 1247 01e7 00       		.space	1
 1248              	.LC27:
 1249 01e8 73706952 		.ascii	"spiReceive(), #1\000"
 1249      65636569 
 1249      76652829 
 1249      2C202331 
 1249      00
 1250 01f9 000000   		.space	3
 1251              	.LC28:
 1252 01fc 73706952 		.ascii	"spiReceive(), #2\000"
 1252      65636569 
 1252      76652829 
 1252      2C202332 
 1252      00
 1253 020d 000000   		.space	3
 1254              	.LC29:
ARM GAS  /tmp/cc3zL94g.s 			page 25


 1255 0210 22737069 		.ascii	"\"spiAcquireBus\"()\000"
 1255      41637175 
 1255      69726542 
 1255      75732228 
 1255      2900
 1256 0222 0000     		.space	2
 1257              	.LC30:
 1258 0224 22737069 		.ascii	"\"spiReleaseBus\"()\000"
 1258      52656C65 
 1258      61736542 
 1258      75732228 
 1258      2900
 1259 0236 0000     		.text
 1260              	.Letext0:
 1261              		.file 2 "/opt/ARM/lib/gcc/arm-none-eabi/4.8.4/include/stddef.h"
 1262              		.file 3 "/opt/ARM/arm-none-eabi/include/machine/_default_types.h"
 1263              		.file 4 "/opt/ARM/arm-none-eabi/include/stdint.h"
 1264              		.file 5 "../../os/ports/GCC/ARMCMx/chtypes.h"
 1265              		.file 6 "../../os/kernel/include/chlists.h"
 1266              		.file 7 "../../os/kernel/include/chthreads.h"
 1267              		.file 8 "../../os/ports/GCC/ARMCMx/chcore_v7m.h"
 1268              		.file 9 "../../os/kernel/include/chschd.h"
 1269              		.file 10 "../../os/kernel/include/chmtx.h"
 1270              		.file 11 "../../os/hal/platforms/STM32F4xx/stm32f4xx.h"
 1271              		.file 12 "../../os/hal/platforms/STM32F4xx/stm32_dma.h"
 1272              		.file 13 "../../os/hal/platforms/STM32/GPIOv2/pal_lld.h"
 1273              		.file 14 "../../os/hal/include/spi.h"
 1274              		.file 15 "../../os/hal/platforms/STM32/SPIv1/spi_lld.h"
 1275              		.file 16 "../../os/ports/common/ARMCMx/CMSIS/include/core_cm4.h"
 1276              		.file 17 "../../os/kernel/include/chdebug.h"
 1277              		.section	.debug_info,"",%progbits
 1278              	.Ldebug_info0:
 1279 0000 77120000 		.4byte	0x1277
 1280 0004 0400     		.2byte	0x4
 1281 0006 00000000 		.4byte	.Ldebug_abbrev0
 1282 000a 04       		.byte	0x4
 1283 000b 01       		.uleb128 0x1
 1284 000c 78040000 		.4byte	.LASF162
 1285 0010 01       		.byte	0x1
 1286 0011 22030000 		.4byte	.LASF163
 1287 0015 3D070000 		.4byte	.LASF164
 1288 0019 00000000 		.4byte	.Ldebug_ranges0+0
 1289 001d 00000000 		.4byte	0
 1290 0021 00000000 		.4byte	.Ldebug_line0
 1291 0025 02       		.uleb128 0x2
 1292 0026 04       		.byte	0x4
 1293 0027 05       		.byte	0x5
 1294 0028 696E7400 		.ascii	"int\000"
 1295 002c 03       		.uleb128 0x3
 1296 002d 0B000000 		.4byte	.LASF2
 1297 0031 02       		.byte	0x2
 1298 0032 D4       		.byte	0xd4
 1299 0033 37000000 		.4byte	0x37
 1300 0037 04       		.uleb128 0x4
 1301 0038 04       		.byte	0x4
 1302 0039 07       		.byte	0x7
 1303 003a FF010000 		.4byte	.LASF0
ARM GAS  /tmp/cc3zL94g.s 			page 26


 1304 003e 04       		.uleb128 0x4
 1305 003f 01       		.byte	0x1
 1306 0040 06       		.byte	0x6
 1307 0041 D3000000 		.4byte	.LASF1
 1308 0045 03       		.uleb128 0x3
 1309 0046 3C000000 		.4byte	.LASF3
 1310 004a 03       		.byte	0x3
 1311 004b 1C       		.byte	0x1c
 1312 004c 50000000 		.4byte	0x50
 1313 0050 04       		.uleb128 0x4
 1314 0051 01       		.byte	0x1
 1315 0052 08       		.byte	0x8
 1316 0053 0D040000 		.4byte	.LASF4
 1317 0057 04       		.uleb128 0x4
 1318 0058 02       		.byte	0x2
 1319 0059 05       		.byte	0x5
 1320 005a 38040000 		.4byte	.LASF5
 1321 005e 03       		.uleb128 0x3
 1322 005f 09060000 		.4byte	.LASF6
 1323 0063 03       		.byte	0x3
 1324 0064 26       		.byte	0x26
 1325 0065 69000000 		.4byte	0x69
 1326 0069 04       		.uleb128 0x4
 1327 006a 02       		.byte	0x2
 1328 006b 07       		.byte	0x7
 1329 006c 61020000 		.4byte	.LASF7
 1330 0070 03       		.uleb128 0x3
 1331 0071 3B060000 		.4byte	.LASF8
 1332 0075 03       		.byte	0x3
 1333 0076 37       		.byte	0x37
 1334 0077 7B000000 		.4byte	0x7b
 1335 007b 04       		.uleb128 0x4
 1336 007c 04       		.byte	0x4
 1337 007d 05       		.byte	0x5
 1338 007e 28010000 		.4byte	.LASF9
 1339 0082 03       		.uleb128 0x3
 1340 0083 45060000 		.4byte	.LASF10
 1341 0087 03       		.byte	0x3
 1342 0088 38       		.byte	0x38
 1343 0089 8D000000 		.4byte	0x8d
 1344 008d 04       		.uleb128 0x4
 1345 008e 04       		.byte	0x4
 1346 008f 07       		.byte	0x7
 1347 0090 D1050000 		.4byte	.LASF11
 1348 0094 04       		.uleb128 0x4
 1349 0095 08       		.byte	0x8
 1350 0096 05       		.byte	0x5
 1351 0097 D9010000 		.4byte	.LASF12
 1352 009b 03       		.uleb128 0x3
 1353 009c 77030000 		.4byte	.LASF13
 1354 00a0 03       		.byte	0x3
 1355 00a1 4E       		.byte	0x4e
 1356 00a2 A6000000 		.4byte	0xa6
 1357 00a6 04       		.uleb128 0x4
 1358 00a7 08       		.byte	0x8
 1359 00a8 07       		.byte	0x7
 1360 00a9 66000000 		.4byte	.LASF14
ARM GAS  /tmp/cc3zL94g.s 			page 27


 1361 00ad 03       		.uleb128 0x3
 1362 00ae 0A070000 		.4byte	.LASF15
 1363 00b2 04       		.byte	0x4
 1364 00b3 2A       		.byte	0x2a
 1365 00b4 45000000 		.4byte	0x45
 1366 00b8 03       		.uleb128 0x3
 1367 00b9 82020000 		.4byte	.LASF16
 1368 00bd 04       		.byte	0x4
 1369 00be 36       		.byte	0x36
 1370 00bf 5E000000 		.4byte	0x5e
 1371 00c3 03       		.uleb128 0x3
 1372 00c4 05040000 		.4byte	.LASF17
 1373 00c8 04       		.byte	0x4
 1374 00c9 41       		.byte	0x41
 1375 00ca 70000000 		.4byte	0x70
 1376 00ce 03       		.uleb128 0x3
 1377 00cf C0050000 		.4byte	.LASF18
 1378 00d3 04       		.byte	0x4
 1379 00d4 42       		.byte	0x42
 1380 00d5 82000000 		.4byte	0x82
 1381 00d9 03       		.uleb128 0x3
 1382 00da 25000000 		.4byte	.LASF19
 1383 00de 04       		.byte	0x4
 1384 00df 4E       		.byte	0x4e
 1385 00e0 9B000000 		.4byte	0x9b
 1386 00e4 04       		.uleb128 0x4
 1387 00e5 01       		.byte	0x1
 1388 00e6 02       		.byte	0x2
 1389 00e7 FF030000 		.4byte	.LASF20
 1390 00eb 03       		.uleb128 0x3
 1391 00ec 7A020000 		.4byte	.LASF21
 1392 00f0 05       		.byte	0x5
 1393 00f1 2C       		.byte	0x2c
 1394 00f2 AD000000 		.4byte	0xad
 1395 00f6 03       		.uleb128 0x3
 1396 00f7 31010000 		.4byte	.LASF22
 1397 00fb 05       		.byte	0x5
 1398 00fc 2D       		.byte	0x2d
 1399 00fd AD000000 		.4byte	0xad
 1400 0101 03       		.uleb128 0x3
 1401 0102 92030000 		.4byte	.LASF23
 1402 0106 05       		.byte	0x5
 1403 0107 2E       		.byte	0x2e
 1404 0108 AD000000 		.4byte	0xad
 1405 010c 03       		.uleb128 0x3
 1406 010d 0A010000 		.4byte	.LASF24
 1407 0111 05       		.byte	0x5
 1408 0112 2F       		.byte	0x2f
 1409 0113 AD000000 		.4byte	0xad
 1410 0117 03       		.uleb128 0x3
 1411 0118 F1030000 		.4byte	.LASF25
 1412 011c 05       		.byte	0x5
 1413 011d 30       		.byte	0x30
 1414 011e CE000000 		.4byte	0xce
 1415 0122 03       		.uleb128 0x3
 1416 0123 74020000 		.4byte	.LASF26
 1417 0127 05       		.byte	0x5
ARM GAS  /tmp/cc3zL94g.s 			page 28


 1418 0128 31       		.byte	0x31
 1419 0129 C3000000 		.4byte	0xc3
 1420 012d 03       		.uleb128 0x3
 1421 012e 92020000 		.4byte	.LASF27
 1422 0132 05       		.byte	0x5
 1423 0133 33       		.byte	0x33
 1424 0134 CE000000 		.4byte	0xce
 1425 0138 03       		.uleb128 0x3
 1426 0139 26060000 		.4byte	.LASF28
 1427 013d 05       		.byte	0x5
 1428 013e 35       		.byte	0x35
 1429 013f CE000000 		.4byte	0xce
 1430 0143 03       		.uleb128 0x3
 1431 0144 91050000 		.4byte	.LASF29
 1432 0148 06       		.byte	0x6
 1433 0149 2A       		.byte	0x2a
 1434 014a 4E010000 		.4byte	0x14e
 1435 014e 05       		.uleb128 0x5
 1436 014f 91050000 		.4byte	.LASF29
 1437 0153 4C       		.byte	0x4c
 1438 0154 07       		.byte	0x7
 1439 0155 5E       		.byte	0x5e
 1440 0156 57020000 		.4byte	0x257
 1441 015a 06       		.uleb128 0x6
 1442 015b 69040000 		.4byte	.LASF30
 1443 015f 07       		.byte	0x7
 1444 0160 5F       		.byte	0x5f
 1445 0161 78020000 		.4byte	0x278
 1446 0165 00       		.byte	0
 1447 0166 06       		.uleb128 0x6
 1448 0167 CC030000 		.4byte	.LASF31
 1449 016b 07       		.byte	0x7
 1450 016c 61       		.byte	0x61
 1451 016d 78020000 		.4byte	0x278
 1452 0171 04       		.byte	0x4
 1453 0172 06       		.uleb128 0x6
 1454 0173 BA000000 		.4byte	.LASF32
 1455 0177 07       		.byte	0x7
 1456 0178 63       		.byte	0x63
 1457 0179 17010000 		.4byte	0x117
 1458 017d 08       		.byte	0x8
 1459 017e 06       		.uleb128 0x6
 1460 017f 8F070000 		.4byte	.LASF33
 1461 0183 07       		.byte	0x7
 1462 0184 64       		.byte	0x64
 1463 0185 0D040000 		.4byte	0x40d
 1464 0189 0C       		.byte	0xc
 1465 018a 06       		.uleb128 0x6
 1466 018b 65010000 		.4byte	.LASF34
 1467 018f 07       		.byte	0x7
 1468 0190 66       		.byte	0x66
 1469 0191 78020000 		.4byte	0x278
 1470 0195 10       		.byte	0x10
 1471 0196 06       		.uleb128 0x6
 1472 0197 39030000 		.4byte	.LASF35
 1473 019b 07       		.byte	0x7
 1474 019c 67       		.byte	0x67
ARM GAS  /tmp/cc3zL94g.s 			page 29


 1475 019d 78020000 		.4byte	0x278
 1476 01a1 14       		.byte	0x14
 1477 01a2 06       		.uleb128 0x6
 1478 01a3 1E070000 		.4byte	.LASF36
 1479 01a7 07       		.byte	0x7
 1480 01a8 6E       		.byte	0x6e
 1481 01a9 12050000 		.4byte	0x512
 1482 01ad 18       		.byte	0x18
 1483 01ae 06       		.uleb128 0x6
 1484 01af F4010000 		.4byte	.LASF37
 1485 01b3 07       		.byte	0x7
 1486 01b4 74       		.byte	0x74
 1487 01b5 24050000 		.4byte	0x524
 1488 01b9 1C       		.byte	0x1c
 1489 01ba 06       		.uleb128 0x6
 1490 01bb 42040000 		.4byte	.LASF38
 1491 01bf 07       		.byte	0x7
 1492 01c0 79       		.byte	0x79
 1493 01c1 F6000000 		.4byte	0xf6
 1494 01c5 20       		.byte	0x20
 1495 01c6 06       		.uleb128 0x6
 1496 01c7 70040000 		.4byte	.LASF39
 1497 01cb 07       		.byte	0x7
 1498 01cc 7D       		.byte	0x7d
 1499 01cd EB000000 		.4byte	0xeb
 1500 01d1 21       		.byte	0x21
 1501 01d2 06       		.uleb128 0x6
 1502 01d3 5E030000 		.4byte	.LASF40
 1503 01d7 07       		.byte	0x7
 1504 01d8 82       		.byte	0x82
 1505 01d9 01010000 		.4byte	0x101
 1506 01dd 22       		.byte	0x22
 1507 01de 06       		.uleb128 0x6
 1508 01df 4A040000 		.4byte	.LASF41
 1509 01e3 07       		.byte	0x7
 1510 01e4 88       		.byte	0x88
 1511 01e5 0C010000 		.4byte	0x10c
 1512 01e9 23       		.byte	0x23
 1513 01ea 06       		.uleb128 0x6
 1514 01eb 23020000 		.4byte	.LASF42
 1515 01ef 07       		.byte	0x7
 1516 01f0 8F       		.byte	0x8f
 1517 01f1 3A040000 		.4byte	0x43a
 1518 01f5 24       		.byte	0x24
 1519 01f6 07       		.uleb128 0x7
 1520 01f7 705F7500 		.ascii	"p_u\000"
 1521 01fb 07       		.byte	0x7
 1522 01fc B4       		.byte	0xb4
 1523 01fd DD040000 		.4byte	0x4dd
 1524 0201 28       		.byte	0x28
 1525 0202 06       		.uleb128 0x6
 1526 0203 95070000 		.4byte	.LASF43
 1527 0207 07       		.byte	0x7
 1528 0208 B9       		.byte	0xb9
 1529 0209 9E020000 		.4byte	0x29e
 1530 020d 2C       		.byte	0x2c
 1531 020e 06       		.uleb128 0x6
ARM GAS  /tmp/cc3zL94g.s 			page 30


 1532 020f 35020000 		.4byte	.LASF44
 1533 0213 07       		.byte	0x7
 1534 0214 BF       		.byte	0xbf
 1535 0215 7E020000 		.4byte	0x27e
 1536 0219 30       		.byte	0x30
 1537 021a 06       		.uleb128 0x6
 1538 021b 37070000 		.4byte	.LASF45
 1539 021f 07       		.byte	0x7
 1540 0220 C3       		.byte	0xc3
 1541 0221 22010000 		.4byte	0x122
 1542 0225 38       		.byte	0x38
 1543 0226 06       		.uleb128 0x6
 1544 0227 A6050000 		.4byte	.LASF46
 1545 022b 07       		.byte	0x7
 1546 022c C9       		.byte	0xc9
 1547 022d 2D010000 		.4byte	0x12d
 1548 0231 3C       		.byte	0x3c
 1549 0232 06       		.uleb128 0x6
 1550 0233 2E040000 		.4byte	.LASF47
 1551 0237 07       		.byte	0x7
 1552 0238 D0       		.byte	0xd0
 1553 0239 2A050000 		.4byte	0x52a
 1554 023d 40       		.byte	0x40
 1555 023e 06       		.uleb128 0x6
 1556 023f 30060000 		.4byte	.LASF48
 1557 0243 07       		.byte	0x7
 1558 0244 D4       		.byte	0xd4
 1559 0245 17010000 		.4byte	0x117
 1560 0249 44       		.byte	0x44
 1561 024a 06       		.uleb128 0x6
 1562 024b AC010000 		.4byte	.LASF49
 1563 024f 07       		.byte	0x7
 1564 0250 DA       		.byte	0xda
 1565 0251 B4020000 		.4byte	0x2b4
 1566 0255 48       		.byte	0x48
 1567 0256 00       		.byte	0
 1568 0257 08       		.uleb128 0x8
 1569 0258 08       		.byte	0x8
 1570 0259 06       		.byte	0x6
 1571 025a 61       		.byte	0x61
 1572 025b 78020000 		.4byte	0x278
 1573 025f 06       		.uleb128 0x6
 1574 0260 69040000 		.4byte	.LASF30
 1575 0264 06       		.byte	0x6
 1576 0265 62       		.byte	0x62
 1577 0266 78020000 		.4byte	0x278
 1578 026a 00       		.byte	0
 1579 026b 06       		.uleb128 0x6
 1580 026c CC030000 		.4byte	.LASF31
 1581 0270 06       		.byte	0x6
 1582 0271 64       		.byte	0x64
 1583 0272 78020000 		.4byte	0x278
 1584 0276 04       		.byte	0x4
 1585 0277 00       		.byte	0
 1586 0278 09       		.uleb128 0x9
 1587 0279 04       		.byte	0x4
 1588 027a 43010000 		.4byte	0x143
ARM GAS  /tmp/cc3zL94g.s 			page 31


 1589 027e 03       		.uleb128 0x3
 1590 027f 47030000 		.4byte	.LASF50
 1591 0283 06       		.byte	0x6
 1592 0284 66       		.byte	0x66
 1593 0285 57020000 		.4byte	0x257
 1594 0289 08       		.uleb128 0x8
 1595 028a 04       		.byte	0x4
 1596 028b 06       		.byte	0x6
 1597 028c 6B       		.byte	0x6b
 1598 028d 9E020000 		.4byte	0x29e
 1599 0291 06       		.uleb128 0x6
 1600 0292 69040000 		.4byte	.LASF30
 1601 0296 06       		.byte	0x6
 1602 0297 6D       		.byte	0x6d
 1603 0298 78020000 		.4byte	0x278
 1604 029c 00       		.byte	0
 1605 029d 00       		.byte	0
 1606 029e 03       		.uleb128 0x3
 1607 029f 12000000 		.4byte	.LASF51
 1608 02a3 06       		.byte	0x6
 1609 02a4 70       		.byte	0x70
 1610 02a5 89020000 		.4byte	0x289
 1611 02a9 03       		.uleb128 0x3
 1612 02aa B4010000 		.4byte	.LASF52
 1613 02ae 08       		.byte	0x8
 1614 02af E5       		.byte	0xe5
 1615 02b0 B4020000 		.4byte	0x2b4
 1616 02b4 0A       		.uleb128 0xa
 1617 02b5 04       		.byte	0x4
 1618 02b6 03       		.uleb128 0x3
 1619 02b7 AE020000 		.4byte	.LASF53
 1620 02bb 08       		.byte	0x8
 1621 02bc EB       		.byte	0xeb
 1622 02bd D9000000 		.4byte	0xd9
 1623 02c1 0B       		.uleb128 0xb
 1624 02c2 B4060000 		.4byte	.LASF54
 1625 02c6 64       		.byte	0x64
 1626 02c7 08       		.byte	0x8
 1627 02c8 0C01     		.2byte	0x10c
 1628 02ca 0D040000 		.4byte	0x40d
 1629 02ce 0C       		.uleb128 0xc
 1630 02cf 73313600 		.ascii	"s16\000"
 1631 02d3 08       		.byte	0x8
 1632 02d4 0E01     		.2byte	0x10e
 1633 02d6 A9020000 		.4byte	0x2a9
 1634 02da 00       		.byte	0
 1635 02db 0C       		.uleb128 0xc
 1636 02dc 73313700 		.ascii	"s17\000"
 1637 02e0 08       		.byte	0x8
 1638 02e1 0F01     		.2byte	0x10f
 1639 02e3 A9020000 		.4byte	0x2a9
 1640 02e7 04       		.byte	0x4
 1641 02e8 0C       		.uleb128 0xc
 1642 02e9 73313800 		.ascii	"s18\000"
 1643 02ed 08       		.byte	0x8
 1644 02ee 1001     		.2byte	0x110
 1645 02f0 A9020000 		.4byte	0x2a9
ARM GAS  /tmp/cc3zL94g.s 			page 32


 1646 02f4 08       		.byte	0x8
 1647 02f5 0C       		.uleb128 0xc
 1648 02f6 73313900 		.ascii	"s19\000"
 1649 02fa 08       		.byte	0x8
 1650 02fb 1101     		.2byte	0x111
 1651 02fd A9020000 		.4byte	0x2a9
 1652 0301 0C       		.byte	0xc
 1653 0302 0C       		.uleb128 0xc
 1654 0303 73323000 		.ascii	"s20\000"
 1655 0307 08       		.byte	0x8
 1656 0308 1201     		.2byte	0x112
 1657 030a A9020000 		.4byte	0x2a9
 1658 030e 10       		.byte	0x10
 1659 030f 0C       		.uleb128 0xc
 1660 0310 73323100 		.ascii	"s21\000"
 1661 0314 08       		.byte	0x8
 1662 0315 1301     		.2byte	0x113
 1663 0317 A9020000 		.4byte	0x2a9
 1664 031b 14       		.byte	0x14
 1665 031c 0C       		.uleb128 0xc
 1666 031d 73323200 		.ascii	"s22\000"
 1667 0321 08       		.byte	0x8
 1668 0322 1401     		.2byte	0x114
 1669 0324 A9020000 		.4byte	0x2a9
 1670 0328 18       		.byte	0x18
 1671 0329 0C       		.uleb128 0xc
 1672 032a 73323300 		.ascii	"s23\000"
 1673 032e 08       		.byte	0x8
 1674 032f 1501     		.2byte	0x115
 1675 0331 A9020000 		.4byte	0x2a9
 1676 0335 1C       		.byte	0x1c
 1677 0336 0C       		.uleb128 0xc
 1678 0337 73323400 		.ascii	"s24\000"
 1679 033b 08       		.byte	0x8
 1680 033c 1601     		.2byte	0x116
 1681 033e A9020000 		.4byte	0x2a9
 1682 0342 20       		.byte	0x20
 1683 0343 0C       		.uleb128 0xc
 1684 0344 73323500 		.ascii	"s25\000"
 1685 0348 08       		.byte	0x8
 1686 0349 1701     		.2byte	0x117
 1687 034b A9020000 		.4byte	0x2a9
 1688 034f 24       		.byte	0x24
 1689 0350 0C       		.uleb128 0xc
 1690 0351 73323600 		.ascii	"s26\000"
 1691 0355 08       		.byte	0x8
 1692 0356 1801     		.2byte	0x118
 1693 0358 A9020000 		.4byte	0x2a9
 1694 035c 28       		.byte	0x28
 1695 035d 0C       		.uleb128 0xc
 1696 035e 73323700 		.ascii	"s27\000"
 1697 0362 08       		.byte	0x8
 1698 0363 1901     		.2byte	0x119
 1699 0365 A9020000 		.4byte	0x2a9
 1700 0369 2C       		.byte	0x2c
 1701 036a 0C       		.uleb128 0xc
 1702 036b 73323800 		.ascii	"s28\000"
ARM GAS  /tmp/cc3zL94g.s 			page 33


 1703 036f 08       		.byte	0x8
 1704 0370 1A01     		.2byte	0x11a
 1705 0372 A9020000 		.4byte	0x2a9
 1706 0376 30       		.byte	0x30
 1707 0377 0C       		.uleb128 0xc
 1708 0378 73323900 		.ascii	"s29\000"
 1709 037c 08       		.byte	0x8
 1710 037d 1B01     		.2byte	0x11b
 1711 037f A9020000 		.4byte	0x2a9
 1712 0383 34       		.byte	0x34
 1713 0384 0C       		.uleb128 0xc
 1714 0385 73333000 		.ascii	"s30\000"
 1715 0389 08       		.byte	0x8
 1716 038a 1C01     		.2byte	0x11c
 1717 038c A9020000 		.4byte	0x2a9
 1718 0390 38       		.byte	0x38
 1719 0391 0C       		.uleb128 0xc
 1720 0392 73333100 		.ascii	"s31\000"
 1721 0396 08       		.byte	0x8
 1722 0397 1D01     		.2byte	0x11d
 1723 0399 A9020000 		.4byte	0x2a9
 1724 039d 3C       		.byte	0x3c
 1725 039e 0C       		.uleb128 0xc
 1726 039f 723400   		.ascii	"r4\000"
 1727 03a2 08       		.byte	0x8
 1728 03a3 1F01     		.2byte	0x11f
 1729 03a5 A9020000 		.4byte	0x2a9
 1730 03a9 40       		.byte	0x40
 1731 03aa 0C       		.uleb128 0xc
 1732 03ab 723500   		.ascii	"r5\000"
 1733 03ae 08       		.byte	0x8
 1734 03af 2001     		.2byte	0x120
 1735 03b1 A9020000 		.4byte	0x2a9
 1736 03b5 44       		.byte	0x44
 1737 03b6 0C       		.uleb128 0xc
 1738 03b7 723600   		.ascii	"r6\000"
 1739 03ba 08       		.byte	0x8
 1740 03bb 2101     		.2byte	0x121
 1741 03bd A9020000 		.4byte	0x2a9
 1742 03c1 48       		.byte	0x48
 1743 03c2 0C       		.uleb128 0xc
 1744 03c3 723700   		.ascii	"r7\000"
 1745 03c6 08       		.byte	0x8
 1746 03c7 2201     		.2byte	0x122
 1747 03c9 A9020000 		.4byte	0x2a9
 1748 03cd 4C       		.byte	0x4c
 1749 03ce 0C       		.uleb128 0xc
 1750 03cf 723800   		.ascii	"r8\000"
 1751 03d2 08       		.byte	0x8
 1752 03d3 2301     		.2byte	0x123
 1753 03d5 A9020000 		.4byte	0x2a9
 1754 03d9 50       		.byte	0x50
 1755 03da 0C       		.uleb128 0xc
 1756 03db 723900   		.ascii	"r9\000"
 1757 03de 08       		.byte	0x8
 1758 03df 2401     		.2byte	0x124
 1759 03e1 A9020000 		.4byte	0x2a9
ARM GAS  /tmp/cc3zL94g.s 			page 34


 1760 03e5 54       		.byte	0x54
 1761 03e6 0C       		.uleb128 0xc
 1762 03e7 72313000 		.ascii	"r10\000"
 1763 03eb 08       		.byte	0x8
 1764 03ec 2501     		.2byte	0x125
 1765 03ee A9020000 		.4byte	0x2a9
 1766 03f2 58       		.byte	0x58
 1767 03f3 0C       		.uleb128 0xc
 1768 03f4 72313100 		.ascii	"r11\000"
 1769 03f8 08       		.byte	0x8
 1770 03f9 2601     		.2byte	0x126
 1771 03fb A9020000 		.4byte	0x2a9
 1772 03ff 5C       		.byte	0x5c
 1773 0400 0C       		.uleb128 0xc
 1774 0401 6C7200   		.ascii	"lr\000"
 1775 0404 08       		.byte	0x8
 1776 0405 2701     		.2byte	0x127
 1777 0407 A9020000 		.4byte	0x2a9
 1778 040b 60       		.byte	0x60
 1779 040c 00       		.byte	0
 1780 040d 0B       		.uleb128 0xb
 1781 040e 59020000 		.4byte	.LASF55
 1782 0412 04       		.byte	0x4
 1783 0413 08       		.byte	0x8
 1784 0414 3101     		.2byte	0x131
 1785 0416 28040000 		.4byte	0x428
 1786 041a 0C       		.uleb128 0xc
 1787 041b 72313300 		.ascii	"r13\000"
 1788 041f 08       		.byte	0x8
 1789 0420 3201     		.2byte	0x132
 1790 0422 28040000 		.4byte	0x428
 1791 0426 00       		.byte	0
 1792 0427 00       		.byte	0
 1793 0428 09       		.uleb128 0x9
 1794 0429 04       		.byte	0x4
 1795 042a C1020000 		.4byte	0x2c1
 1796 042e 0D       		.uleb128 0xd
 1797 042f CE000000 		.4byte	0xce
 1798 0433 04       		.uleb128 0x4
 1799 0434 04       		.byte	0x4
 1800 0435 07       		.byte	0x7
 1801 0436 EA020000 		.4byte	.LASF56
 1802 043a 0D       		.uleb128 0xd
 1803 043b 38010000 		.4byte	0x138
 1804 043f 08       		.uleb128 0x8
 1805 0440 1C       		.byte	0x1c
 1806 0441 09       		.byte	0x9
 1807 0442 5E       		.byte	0x5e
 1808 0443 90040000 		.4byte	0x490
 1809 0447 06       		.uleb128 0x6
 1810 0448 C9050000 		.4byte	.LASF57
 1811 044c 09       		.byte	0x9
 1812 044d 5F       		.byte	0x5f
 1813 044e 7E020000 		.4byte	0x27e
 1814 0452 00       		.byte	0
 1815 0453 06       		.uleb128 0x6
 1816 0454 C1020000 		.4byte	.LASF58
ARM GAS  /tmp/cc3zL94g.s 			page 35


 1817 0458 09       		.byte	0x9
 1818 0459 60       		.byte	0x60
 1819 045a 17010000 		.4byte	0x117
 1820 045e 08       		.byte	0x8
 1821 045f 06       		.uleb128 0x6
 1822 0460 41030000 		.4byte	.LASF59
 1823 0464 09       		.byte	0x9
 1824 0465 62       		.byte	0x62
 1825 0466 0D040000 		.4byte	0x40d
 1826 046a 0C       		.byte	0xc
 1827 046b 06       		.uleb128 0x6
 1828 046c A4010000 		.4byte	.LASF60
 1829 0470 09       		.byte	0x9
 1830 0471 65       		.byte	0x65
 1831 0472 78020000 		.4byte	0x278
 1832 0476 10       		.byte	0x10
 1833 0477 06       		.uleb128 0x6
 1834 0478 6F030000 		.4byte	.LASF61
 1835 047c 09       		.byte	0x9
 1836 047d 66       		.byte	0x66
 1837 047e 78020000 		.4byte	0x278
 1838 0482 14       		.byte	0x14
 1839 0483 06       		.uleb128 0x6
 1840 0484 65030000 		.4byte	.LASF62
 1841 0488 09       		.byte	0x9
 1842 0489 69       		.byte	0x69
 1843 048a 78020000 		.4byte	0x278
 1844 048e 18       		.byte	0x18
 1845 048f 00       		.byte	0
 1846 0490 03       		.uleb128 0x3
 1847 0491 A4020000 		.4byte	.LASF63
 1848 0495 09       		.byte	0x9
 1849 0496 6B       		.byte	0x6b
 1850 0497 3F040000 		.4byte	0x43f
 1851 049b 05       		.uleb128 0x5
 1852 049c 9E020000 		.4byte	.LASF64
 1853 04a0 10       		.byte	0x10
 1854 04a1 0A       		.byte	0xa
 1855 04a2 2C       		.byte	0x2c
 1856 04a3 CC040000 		.4byte	0x4cc
 1857 04a7 06       		.uleb128 0x6
 1858 04a8 02010000 		.4byte	.LASF65
 1859 04ac 0A       		.byte	0xa
 1860 04ad 2D       		.byte	0x2d
 1861 04ae 7E020000 		.4byte	0x27e
 1862 04b2 00       		.byte	0
 1863 04b3 06       		.uleb128 0x6
 1864 04b4 87070000 		.4byte	.LASF66
 1865 04b8 0A       		.byte	0xa
 1866 04b9 2F       		.byte	0x2f
 1867 04ba 78020000 		.4byte	0x278
 1868 04be 08       		.byte	0x8
 1869 04bf 06       		.uleb128 0x6
 1870 04c0 1F060000 		.4byte	.LASF67
 1871 04c4 0A       		.byte	0xa
 1872 04c5 31       		.byte	0x31
 1873 04c6 CC040000 		.4byte	0x4cc
ARM GAS  /tmp/cc3zL94g.s 			page 36


 1874 04ca 0C       		.byte	0xc
 1875 04cb 00       		.byte	0
 1876 04cc 09       		.uleb128 0x9
 1877 04cd 04       		.byte	0x4
 1878 04ce 9B040000 		.4byte	0x49b
 1879 04d2 03       		.uleb128 0x3
 1880 04d3 9E020000 		.4byte	.LASF64
 1881 04d7 0A       		.byte	0xa
 1882 04d8 33       		.byte	0x33
 1883 04d9 9B040000 		.4byte	0x49b
 1884 04dd 0E       		.uleb128 0xe
 1885 04de 04       		.byte	0x4
 1886 04df 07       		.byte	0x7
 1887 04e0 96       		.byte	0x96
 1888 04e1 12050000 		.4byte	0x512
 1889 04e5 0F       		.uleb128 0xf
 1890 04e6 1E000000 		.4byte	.LASF68
 1891 04ea 07       		.byte	0x7
 1892 04eb 9D       		.byte	0x9d
 1893 04ec 22010000 		.4byte	0x122
 1894 04f0 0F       		.uleb128 0xf
 1895 04f1 8D000000 		.4byte	.LASF69
 1896 04f5 07       		.byte	0x7
 1897 04f6 A4       		.byte	0xa4
 1898 04f7 22010000 		.4byte	0x122
 1899 04fb 0F       		.uleb128 0xf
 1900 04fc 17070000 		.4byte	.LASF70
 1901 0500 07       		.byte	0x7
 1902 0501 AB       		.byte	0xab
 1903 0502 B4020000 		.4byte	0x2b4
 1904 0506 0F       		.uleb128 0xf
 1905 0507 62040000 		.4byte	.LASF71
 1906 050b 07       		.byte	0x7
 1907 050c B2       		.byte	0xb2
 1908 050d 2D010000 		.4byte	0x12d
 1909 0511 00       		.byte	0
 1910 0512 09       		.uleb128 0x9
 1911 0513 04       		.byte	0x4
 1912 0514 18050000 		.4byte	0x518
 1913 0518 10       		.uleb128 0x10
 1914 0519 1D050000 		.4byte	0x51d
 1915 051d 04       		.uleb128 0x4
 1916 051e 01       		.byte	0x1
 1917 051f 08       		.byte	0x8
 1918 0520 E3050000 		.4byte	.LASF72
 1919 0524 09       		.uleb128 0x9
 1920 0525 04       		.byte	0x4
 1921 0526 B6020000 		.4byte	0x2b6
 1922 052a 09       		.uleb128 0x9
 1923 052b 04       		.byte	0x4
 1924 052c D2040000 		.4byte	0x4d2
 1925 0530 0D       		.uleb128 0xd
 1926 0531 B8000000 		.4byte	0xb8
 1927 0535 0D       		.uleb128 0xd
 1928 0536 C3000000 		.4byte	0xc3
 1929 053a 11       		.uleb128 0x11
 1930 053b 18       		.byte	0x18
ARM GAS  /tmp/cc3zL94g.s 			page 37


 1931 053c 0B       		.byte	0xb
 1932 053d B102     		.2byte	0x2b1
 1933 053f 91050000 		.4byte	0x591
 1934 0543 0C       		.uleb128 0xc
 1935 0544 435200   		.ascii	"CR\000"
 1936 0547 0B       		.byte	0xb
 1937 0548 B302     		.2byte	0x2b3
 1938 054a 2E040000 		.4byte	0x42e
 1939 054e 00       		.byte	0
 1940 054f 12       		.uleb128 0x12
 1941 0550 57060000 		.4byte	.LASF73
 1942 0554 0B       		.byte	0xb
 1943 0555 B402     		.2byte	0x2b4
 1944 0557 2E040000 		.4byte	0x42e
 1945 055b 04       		.byte	0x4
 1946 055c 0C       		.uleb128 0xc
 1947 055d 50415200 		.ascii	"PAR\000"
 1948 0561 0B       		.byte	0xb
 1949 0562 B502     		.2byte	0x2b5
 1950 0564 2E040000 		.4byte	0x42e
 1951 0568 08       		.byte	0x8
 1952 0569 12       		.uleb128 0x12
 1953 056a 06000000 		.4byte	.LASF74
 1954 056e 0B       		.byte	0xb
 1955 056f B602     		.2byte	0x2b6
 1956 0571 2E040000 		.4byte	0x42e
 1957 0575 0C       		.byte	0xc
 1958 0576 12       		.uleb128 0x12
 1959 0577 BB060000 		.4byte	.LASF75
 1960 057b 0B       		.byte	0xb
 1961 057c B702     		.2byte	0x2b7
 1962 057e 2E040000 		.4byte	0x42e
 1963 0582 10       		.byte	0x10
 1964 0583 0C       		.uleb128 0xc
 1965 0584 46435200 		.ascii	"FCR\000"
 1966 0588 0B       		.byte	0xb
 1967 0589 B802     		.2byte	0x2b8
 1968 058b 2E040000 		.4byte	0x42e
 1969 058f 14       		.byte	0x14
 1970 0590 00       		.byte	0
 1971 0591 13       		.uleb128 0x13
 1972 0592 74060000 		.4byte	.LASF76
 1973 0596 0B       		.byte	0xb
 1974 0597 B902     		.2byte	0x2b9
 1975 0599 3A050000 		.4byte	0x53a
 1976 059d 11       		.uleb128 0x11
 1977 059e 24       		.byte	0x24
 1978 059f 0B       		.byte	0xb
 1979 05a0 E304     		.2byte	0x4e3
 1980 05a2 8F060000 		.4byte	0x68f
 1981 05a6 0C       		.uleb128 0xc
 1982 05a7 43523100 		.ascii	"CR1\000"
 1983 05ab 0B       		.byte	0xb
 1984 05ac E504     		.2byte	0x4e5
 1985 05ae 30050000 		.4byte	0x530
 1986 05b2 00       		.byte	0
 1987 05b3 12       		.uleb128 0x12
ARM GAS  /tmp/cc3zL94g.s 			page 38


 1988 05b4 9A030000 		.4byte	.LASF77
 1989 05b8 0B       		.byte	0xb
 1990 05b9 E604     		.2byte	0x4e6
 1991 05bb B8000000 		.4byte	0xb8
 1992 05bf 02       		.byte	0x2
 1993 05c0 0C       		.uleb128 0xc
 1994 05c1 43523200 		.ascii	"CR2\000"
 1995 05c5 0B       		.byte	0xb
 1996 05c6 E704     		.2byte	0x4e7
 1997 05c8 30050000 		.4byte	0x530
 1998 05cc 04       		.byte	0x4
 1999 05cd 12       		.uleb128 0x12
 2000 05ce A4030000 		.4byte	.LASF78
 2001 05d2 0B       		.byte	0xb
 2002 05d3 E804     		.2byte	0x4e8
 2003 05d5 B8000000 		.4byte	0xb8
 2004 05d9 06       		.byte	0x6
 2005 05da 0C       		.uleb128 0xc
 2006 05db 535200   		.ascii	"SR\000"
 2007 05de 0B       		.byte	0xb
 2008 05df E904     		.2byte	0x4e9
 2009 05e1 30050000 		.4byte	0x530
 2010 05e5 08       		.byte	0x8
 2011 05e6 12       		.uleb128 0x12
 2012 05e7 AE030000 		.4byte	.LASF79
 2013 05eb 0B       		.byte	0xb
 2014 05ec EA04     		.2byte	0x4ea
 2015 05ee B8000000 		.4byte	0xb8
 2016 05f2 0A       		.byte	0xa
 2017 05f3 0C       		.uleb128 0xc
 2018 05f4 445200   		.ascii	"DR\000"
 2019 05f7 0B       		.byte	0xb
 2020 05f8 EB04     		.2byte	0x4eb
 2021 05fa 30050000 		.4byte	0x530
 2022 05fe 0C       		.byte	0xc
 2023 05ff 12       		.uleb128 0x12
 2024 0600 B8030000 		.4byte	.LASF80
 2025 0604 0B       		.byte	0xb
 2026 0605 EC04     		.2byte	0x4ec
 2027 0607 B8000000 		.4byte	0xb8
 2028 060b 0E       		.byte	0xe
 2029 060c 12       		.uleb128 0x12
 2030 060d 87030000 		.4byte	.LASF81
 2031 0611 0B       		.byte	0xb
 2032 0612 ED04     		.2byte	0x4ed
 2033 0614 30050000 		.4byte	0x530
 2034 0618 10       		.byte	0x10
 2035 0619 12       		.uleb128 0x12
 2036 061a C2030000 		.4byte	.LASF82
 2037 061e 0B       		.byte	0xb
 2038 061f EE04     		.2byte	0x4ee
 2039 0621 B8000000 		.4byte	0xb8
 2040 0625 12       		.byte	0x12
 2041 0626 12       		.uleb128 0x12
 2042 0627 F5060000 		.4byte	.LASF83
 2043 062b 0B       		.byte	0xb
 2044 062c EF04     		.2byte	0x4ef
ARM GAS  /tmp/cc3zL94g.s 			page 39


 2045 062e 30050000 		.4byte	0x530
 2046 0632 14       		.byte	0x14
 2047 0633 12       		.uleb128 0x12
 2048 0634 B6050000 		.4byte	.LASF84
 2049 0638 0B       		.byte	0xb
 2050 0639 F004     		.2byte	0x4f0
 2051 063b B8000000 		.4byte	0xb8
 2052 063f 16       		.byte	0x16
 2053 0640 12       		.uleb128 0x12
 2054 0641 8B020000 		.4byte	.LASF85
 2055 0645 0B       		.byte	0xb
 2056 0646 F104     		.2byte	0x4f1
 2057 0648 30050000 		.4byte	0x530
 2058 064c 18       		.byte	0x18
 2059 064d 12       		.uleb128 0x12
 2060 064e D3030000 		.4byte	.LASF86
 2061 0652 0B       		.byte	0xb
 2062 0653 F204     		.2byte	0x4f2
 2063 0655 B8000000 		.4byte	0xb8
 2064 0659 1A       		.byte	0x1a
 2065 065a 12       		.uleb128 0x12
 2066 065b ED000000 		.4byte	.LASF87
 2067 065f 0B       		.byte	0xb
 2068 0660 F304     		.2byte	0x4f3
 2069 0662 30050000 		.4byte	0x530
 2070 0666 1C       		.byte	0x1c
 2071 0667 12       		.uleb128 0x12
 2072 0668 DD030000 		.4byte	.LASF88
 2073 066c 0B       		.byte	0xb
 2074 066d F404     		.2byte	0x4f4
 2075 066f B8000000 		.4byte	0xb8
 2076 0673 1E       		.byte	0x1e
 2077 0674 12       		.uleb128 0x12
 2078 0675 E4020000 		.4byte	.LASF89
 2079 0679 0B       		.byte	0xb
 2080 067a F504     		.2byte	0x4f5
 2081 067c 30050000 		.4byte	0x530
 2082 0680 20       		.byte	0x20
 2083 0681 12       		.uleb128 0x12
 2084 0682 E7030000 		.4byte	.LASF90
 2085 0686 0B       		.byte	0xb
 2086 0687 F604     		.2byte	0x4f6
 2087 0689 B8000000 		.4byte	0xb8
 2088 068d 22       		.byte	0x22
 2089 068e 00       		.byte	0
 2090 068f 13       		.uleb128 0x13
 2091 0690 59010000 		.4byte	.LASF91
 2092 0694 0B       		.byte	0xb
 2093 0695 F704     		.2byte	0x4f7
 2094 0697 9D050000 		.4byte	0x59d
 2095 069b 08       		.uleb128 0x8
 2096 069c 0C       		.byte	0xc
 2097 069d 0C       		.byte	0xc
 2098 069e DA       		.byte	0xda
 2099 069f E0060000 		.4byte	0x6e0
 2100 06a3 06       		.uleb128 0x6
 2101 06a4 59000000 		.4byte	.LASF92
ARM GAS  /tmp/cc3zL94g.s 			page 40


 2102 06a8 0C       		.byte	0xc
 2103 06a9 DB       		.byte	0xdb
 2104 06aa E0060000 		.4byte	0x6e0
 2105 06ae 00       		.byte	0
 2106 06af 06       		.uleb128 0x6
 2107 06b0 B1050000 		.4byte	.LASF93
 2108 06b4 0C       		.byte	0xc
 2109 06b5 DC       		.byte	0xdc
 2110 06b6 E6060000 		.4byte	0x6e6
 2111 06ba 04       		.byte	0x4
 2112 06bb 06       		.uleb128 0x6
 2113 06bc 45020000 		.4byte	.LASF94
 2114 06c0 0C       		.byte	0xc
 2115 06c1 DD       		.byte	0xdd
 2116 06c2 AD000000 		.4byte	0xad
 2117 06c6 08       		.byte	0x8
 2118 06c7 06       		.uleb128 0x6
 2119 06c8 BD010000 		.4byte	.LASF95
 2120 06cc 0C       		.byte	0xc
 2121 06cd DF       		.byte	0xdf
 2122 06ce AD000000 		.4byte	0xad
 2123 06d2 09       		.byte	0x9
 2124 06d3 06       		.uleb128 0x6
 2125 06d4 2E000000 		.4byte	.LASF96
 2126 06d8 0C       		.byte	0xc
 2127 06d9 E0       		.byte	0xe0
 2128 06da AD000000 		.4byte	0xad
 2129 06de 0A       		.byte	0xa
 2130 06df 00       		.byte	0
 2131 06e0 09       		.uleb128 0x9
 2132 06e1 04       		.byte	0x4
 2133 06e2 91050000 		.4byte	0x591
 2134 06e6 09       		.uleb128 0x9
 2135 06e7 04       		.byte	0x4
 2136 06e8 2E040000 		.4byte	0x42e
 2137 06ec 03       		.uleb128 0x3
 2138 06ed 1B040000 		.4byte	.LASF97
 2139 06f1 0C       		.byte	0xc
 2140 06f2 E1       		.byte	0xe1
 2141 06f3 9B060000 		.4byte	0x69b
 2142 06f7 08       		.uleb128 0x8
 2143 06f8 04       		.byte	0x4
 2144 06f9 0D       		.byte	0xd
 2145 06fa 96       		.byte	0x96
 2146 06fb 18070000 		.4byte	0x718
 2147 06ff 07       		.uleb128 0x7
 2148 0700 73657400 		.ascii	"set\000"
 2149 0704 0D       		.byte	0xd
 2150 0705 97       		.byte	0x97
 2151 0706 B8000000 		.4byte	0xb8
 2152 070a 00       		.byte	0
 2153 070b 06       		.uleb128 0x6
 2154 070c F3020000 		.4byte	.LASF98
 2155 0710 0D       		.byte	0xd
 2156 0711 98       		.byte	0x98
 2157 0712 B8000000 		.4byte	0xb8
 2158 0716 02       		.byte	0x2
ARM GAS  /tmp/cc3zL94g.s 			page 41


 2159 0717 00       		.byte	0
 2160 0718 0E       		.uleb128 0xe
 2161 0719 04       		.byte	0x4
 2162 071a 0D       		.byte	0xd
 2163 071b 94       		.byte	0x94
 2164 071c 33070000 		.4byte	0x733
 2165 0720 14       		.uleb128 0x14
 2166 0721 5700     		.ascii	"W\000"
 2167 0723 0D       		.byte	0xd
 2168 0724 95       		.byte	0x95
 2169 0725 CE000000 		.4byte	0xce
 2170 0729 14       		.uleb128 0x14
 2171 072a 4800     		.ascii	"H\000"
 2172 072c 0D       		.byte	0xd
 2173 072d 99       		.byte	0x99
 2174 072e F7060000 		.4byte	0x6f7
 2175 0732 00       		.byte	0
 2176 0733 08       		.uleb128 0x8
 2177 0734 28       		.byte	0x28
 2178 0735 0D       		.byte	0xd
 2179 0736 8C       		.byte	0x8c
 2180 0737 B4070000 		.4byte	0x7b4
 2181 073b 06       		.uleb128 0x6
 2182 073c 60000000 		.4byte	.LASF99
 2183 0740 0D       		.byte	0xd
 2184 0741 8E       		.byte	0x8e
 2185 0742 2E040000 		.4byte	0x42e
 2186 0746 00       		.byte	0
 2187 0747 06       		.uleb128 0x6
 2188 0748 35000000 		.4byte	.LASF100
 2189 074c 0D       		.byte	0xd
 2190 074d 8F       		.byte	0x8f
 2191 074e 2E040000 		.4byte	0x42e
 2192 0752 04       		.byte	0x4
 2193 0753 06       		.uleb128 0x6
 2194 0754 9C010000 		.4byte	.LASF101
 2195 0758 0D       		.byte	0xd
 2196 0759 90       		.byte	0x90
 2197 075a 2E040000 		.4byte	0x42e
 2198 075e 08       		.byte	0x8
 2199 075f 06       		.uleb128 0x6
 2200 0760 87000000 		.4byte	.LASF102
 2201 0764 0D       		.byte	0xd
 2202 0765 91       		.byte	0x91
 2203 0766 2E040000 		.4byte	0x42e
 2204 076a 0C       		.byte	0xc
 2205 076b 07       		.uleb128 0x7
 2206 076c 49445200 		.ascii	"IDR\000"
 2207 0770 0D       		.byte	0xd
 2208 0771 92       		.byte	0x92
 2209 0772 2E040000 		.4byte	0x42e
 2210 0776 10       		.byte	0x10
 2211 0777 07       		.uleb128 0x7
 2212 0778 4F445200 		.ascii	"ODR\000"
 2213 077c 0D       		.byte	0xd
 2214 077d 93       		.byte	0x93
 2215 077e 2E040000 		.4byte	0x42e
ARM GAS  /tmp/cc3zL94g.s 			page 42


 2216 0782 14       		.byte	0x14
 2217 0783 06       		.uleb128 0x6
 2218 0784 DF000000 		.4byte	.LASF103
 2219 0788 0D       		.byte	0xd
 2220 0789 9A       		.byte	0x9a
 2221 078a B4070000 		.4byte	0x7b4
 2222 078e 18       		.byte	0x18
 2223 078f 06       		.uleb128 0x6
 2224 0790 40020000 		.4byte	.LASF104
 2225 0794 0D       		.byte	0xd
 2226 0795 9B       		.byte	0x9b
 2227 0796 2E040000 		.4byte	0x42e
 2228 079a 1C       		.byte	0x1c
 2229 079b 06       		.uleb128 0x6
 2230 079c 8D030000 		.4byte	.LASF105
 2231 07a0 0D       		.byte	0xd
 2232 07a1 9C       		.byte	0x9c
 2233 07a2 2E040000 		.4byte	0x42e
 2234 07a6 20       		.byte	0x20
 2235 07a7 06       		.uleb128 0x6
 2236 07a8 82030000 		.4byte	.LASF106
 2237 07ac 0D       		.byte	0xd
 2238 07ad 9D       		.byte	0x9d
 2239 07ae 2E040000 		.4byte	0x42e
 2240 07b2 24       		.byte	0x24
 2241 07b3 00       		.byte	0
 2242 07b4 0D       		.uleb128 0xd
 2243 07b5 18070000 		.4byte	0x718
 2244 07b9 03       		.uleb128 0x3
 2245 07ba 7E010000 		.4byte	.LASF107
 2246 07be 0D       		.byte	0xd
 2247 07bf 9E       		.byte	0x9e
 2248 07c0 33070000 		.4byte	0x733
 2249 07c4 03       		.uleb128 0x3
 2250 07c5 87060000 		.4byte	.LASF108
 2251 07c9 0D       		.byte	0xd
 2252 07ca FD       		.byte	0xfd
 2253 07cb CF070000 		.4byte	0x7cf
 2254 07cf 09       		.uleb128 0x9
 2255 07d0 04       		.byte	0x4
 2256 07d1 B9070000 		.4byte	0x7b9
 2257 07d5 09       		.uleb128 0x9
 2258 07d6 04       		.byte	0x4
 2259 07d7 DB070000 		.4byte	0x7db
 2260 07db 10       		.uleb128 0x10
 2261 07dc EC060000 		.4byte	0x6ec
 2262 07e0 15       		.uleb128 0x15
 2263 07e1 01       		.byte	0x1
 2264 07e2 0E       		.byte	0xe
 2265 07e3 55       		.byte	0x55
 2266 07e4 07080000 		.4byte	0x807
 2267 07e8 16       		.uleb128 0x16
 2268 07e9 C0060000 		.4byte	.LASF109
 2269 07ed 00       		.sleb128 0
 2270 07ee 16       		.uleb128 0x16
 2271 07ef E4000000 		.4byte	.LASF110
 2272 07f3 01       		.sleb128 1
ARM GAS  /tmp/cc3zL94g.s 			page 43


 2273 07f4 16       		.uleb128 0x16
 2274 07f5 7D000000 		.4byte	.LASF111
 2275 07f9 02       		.sleb128 2
 2276 07fa 16       		.uleb128 0x16
 2277 07fb 46000000 		.4byte	.LASF112
 2278 07ff 03       		.sleb128 3
 2279 0800 16       		.uleb128 0x16
 2280 0801 F5050000 		.4byte	.LASF113
 2281 0805 04       		.sleb128 4
 2282 0806 00       		.byte	0
 2283 0807 03       		.uleb128 0x3
 2284 0808 14060000 		.4byte	.LASF114
 2285 080c 0E       		.byte	0xe
 2286 080d 5B       		.byte	0x5b
 2287 080e E0070000 		.4byte	0x7e0
 2288 0812 13       		.uleb128 0x13
 2289 0813 96000000 		.4byte	.LASF115
 2290 0817 0F       		.byte	0xf
 2291 0818 E701     		.2byte	0x1e7
 2292 081a 1E080000 		.4byte	0x81e
 2293 081e 0B       		.uleb128 0xb
 2294 081f 96000000 		.4byte	.LASF115
 2295 0823 30       		.byte	0x30
 2296 0824 0F       		.byte	0xf
 2297 0825 0B02     		.2byte	0x20b
 2298 0827 A1080000 		.4byte	0x8a1
 2299 082b 12       		.uleb128 0x12
 2300 082c 22010000 		.4byte	.LASF116
 2301 0830 0F       		.byte	0xf
 2302 0831 0F02     		.2byte	0x20f
 2303 0833 07080000 		.4byte	0x807
 2304 0837 00       		.byte	0
 2305 0838 12       		.uleb128 0x12
 2306 0839 02060000 		.4byte	.LASF117
 2307 083d 0F       		.byte	0xf
 2308 083e 1302     		.2byte	0x213
 2309 0840 0E090000 		.4byte	0x90e
 2310 0844 04       		.byte	0x4
 2311 0845 12       		.uleb128 0x12
 2312 0846 50060000 		.4byte	.LASF118
 2313 084a 0F       		.byte	0xf
 2314 084b 1802     		.2byte	0x218
 2315 084d 78020000 		.4byte	0x278
 2316 0851 08       		.byte	0x8
 2317 0852 12       		.uleb128 0x12
 2318 0853 F9030000 		.4byte	.LASF119
 2319 0857 0F       		.byte	0xf
 2320 0858 1F02     		.2byte	0x21f
 2321 085a D2040000 		.4byte	0x4d2
 2322 085e 0C       		.byte	0xc
 2323 085f 0C       		.uleb128 0xc
 2324 0860 73706900 		.ascii	"spi\000"
 2325 0864 0F       		.byte	0xf
 2326 0865 2B02     		.2byte	0x22b
 2327 0867 19090000 		.4byte	0x919
 2328 086b 1C       		.byte	0x1c
 2329 086c 12       		.uleb128 0x12
ARM GAS  /tmp/cc3zL94g.s 			page 44


 2330 086d 00000000 		.4byte	.LASF120
 2331 0871 0F       		.byte	0xf
 2332 0872 2F02     		.2byte	0x22f
 2333 0874 D5070000 		.4byte	0x7d5
 2334 0878 20       		.byte	0x20
 2335 0879 12       		.uleb128 0x12
 2336 087a 8B010000 		.4byte	.LASF121
 2337 087e 0F       		.byte	0xf
 2338 087f 3302     		.2byte	0x233
 2339 0881 D5070000 		.4byte	0x7d5
 2340 0885 24       		.byte	0x24
 2341 0886 12       		.uleb128 0x12
 2342 0887 74010000 		.4byte	.LASF122
 2343 088b 0F       		.byte	0xf
 2344 088c 3702     		.2byte	0x237
 2345 088e CE000000 		.4byte	0xce
 2346 0892 28       		.byte	0x28
 2347 0893 12       		.uleb128 0x12
 2348 0894 54030000 		.4byte	.LASF123
 2349 0898 0F       		.byte	0xf
 2350 0899 3B02     		.2byte	0x23b
 2351 089b CE000000 		.4byte	0xce
 2352 089f 2C       		.byte	0x2c
 2353 08a0 00       		.byte	0
 2354 08a1 13       		.uleb128 0x13
 2355 08a2 14010000 		.4byte	.LASF124
 2356 08a6 0F       		.byte	0xf
 2357 08a7 EF01     		.2byte	0x1ef
 2358 08a9 AD080000 		.4byte	0x8ad
 2359 08ad 09       		.uleb128 0x9
 2360 08ae 04       		.byte	0x4
 2361 08af B3080000 		.4byte	0x8b3
 2362 08b3 17       		.uleb128 0x17
 2363 08b4 BE080000 		.4byte	0x8be
 2364 08b8 18       		.uleb128 0x18
 2365 08b9 BE080000 		.4byte	0x8be
 2366 08bd 00       		.byte	0
 2367 08be 09       		.uleb128 0x9
 2368 08bf 04       		.byte	0x4
 2369 08c0 12080000 		.4byte	0x812
 2370 08c4 11       		.uleb128 0x11
 2371 08c5 0C       		.byte	0xc
 2372 08c6 0F       		.byte	0xf
 2373 08c7 F401     		.2byte	0x1f4
 2374 08c9 02090000 		.4byte	0x902
 2375 08cd 12       		.uleb128 0x12
 2376 08ce 6D010000 		.4byte	.LASF125
 2377 08d2 0F       		.byte	0xf
 2378 08d3 F801     		.2byte	0x1f8
 2379 08d5 A1080000 		.4byte	0x8a1
 2380 08d9 00       		.byte	0
 2381 08da 12       		.uleb128 0x12
 2382 08db A0000000 		.4byte	.LASF126
 2383 08df 0F       		.byte	0xf
 2384 08e0 FD01     		.2byte	0x1fd
 2385 08e2 C4070000 		.4byte	0x7c4
 2386 08e6 04       		.byte	0x4
ARM GAS  /tmp/cc3zL94g.s 			page 45


 2387 08e7 12       		.uleb128 0x12
 2388 08e8 C1000000 		.4byte	.LASF127
 2389 08ec 0F       		.byte	0xf
 2390 08ed 0102     		.2byte	0x201
 2391 08ef B8000000 		.4byte	0xb8
 2392 08f3 08       		.byte	0x8
 2393 08f4 0C       		.uleb128 0xc
 2394 08f5 63723100 		.ascii	"cr1\000"
 2395 08f9 0F       		.byte	0xf
 2396 08fa 0502     		.2byte	0x205
 2397 08fc B8000000 		.4byte	0xb8
 2398 0900 0A       		.byte	0xa
 2399 0901 00       		.byte	0
 2400 0902 13       		.uleb128 0x13
 2401 0903 2D070000 		.4byte	.LASF128
 2402 0907 0F       		.byte	0xf
 2403 0908 0602     		.2byte	0x206
 2404 090a C4080000 		.4byte	0x8c4
 2405 090e 09       		.uleb128 0x9
 2406 090f 04       		.byte	0x4
 2407 0910 14090000 		.4byte	0x914
 2408 0914 10       		.uleb128 0x10
 2409 0915 02090000 		.4byte	0x902
 2410 0919 09       		.uleb128 0x9
 2411 091a 04       		.byte	0x4
 2412 091b 8F060000 		.4byte	0x68f
 2413 091f 19       		.uleb128 0x19
 2414 0920 B9020000 		.4byte	.LASF129
 2415 0924 01       		.byte	0x1
 2416 0925 44       		.byte	0x44
 2417 0926 00000000 		.4byte	.LFB111
 2418 092a 04000000 		.4byte	.LFE111-.LFB111
 2419 092e 01       		.uleb128 0x1
 2420 092f 9C       		.byte	0x9c
 2421 0930 3E090000 		.4byte	0x93e
 2422 0934 1A       		.uleb128 0x1a
 2423 0935 04000000 		.4byte	.LVL0
 2424 0939 6B110000 		.4byte	0x116b
 2425 093d 00       		.byte	0
 2426 093e 19       		.uleb128 0x19
 2427 093f 54040000 		.4byte	.LASF130
 2428 0943 01       		.byte	0x1
 2429 0944 50       		.byte	0x50
 2430 0945 00000000 		.4byte	.LFB112
 2431 0949 10000000 		.4byte	.LFE112-.LFB112
 2432 094d 01       		.uleb128 0x1
 2433 094e 9C       		.byte	0x9c
 2434 094f 76090000 		.4byte	0x976
 2435 0953 1B       		.uleb128 0x1b
 2436 0954 12070000 		.4byte	.LASF132
 2437 0958 01       		.byte	0x1
 2438 0959 50       		.byte	0x50
 2439 095a BE080000 		.4byte	0x8be
 2440 095e 00000000 		.4byte	.LLST0
 2441 0962 1C       		.uleb128 0x1c
 2442 0963 10000000 		.4byte	.LVL3
 2443 0967 73110000 		.4byte	0x1173
ARM GAS  /tmp/cc3zL94g.s 			page 46


 2444 096b 1D       		.uleb128 0x1d
 2445 096c 01       		.uleb128 0x1
 2446 096d 50       		.byte	0x50
 2447 096e 05       		.uleb128 0x5
 2448 096f F3       		.byte	0xf3
 2449 0970 01       		.uleb128 0x1
 2450 0971 50       		.byte	0x50
 2451 0972 23       		.byte	0x23
 2452 0973 0C       		.uleb128 0xc
 2453 0974 00       		.byte	0
 2454 0975 00       		.byte	0
 2455 0976 19       		.uleb128 0x19
 2456 0977 A1060000 		.4byte	.LASF131
 2457 097b 01       		.byte	0x1
 2458 097c 6B       		.byte	0x6b
 2459 097d 00000000 		.4byte	.LFB113
 2460 0981 40000000 		.4byte	.LFE113-.LFB113
 2461 0985 01       		.uleb128 0x1
 2462 0986 9C       		.byte	0x9c
 2463 0987 E8090000 		.4byte	0x9e8
 2464 098b 1B       		.uleb128 0x1b
 2465 098c 12070000 		.4byte	.LASF132
 2466 0990 01       		.byte	0x1
 2467 0991 6B       		.byte	0x6b
 2468 0992 BE080000 		.4byte	0x8be
 2469 0996 2E000000 		.4byte	.LLST1
 2470 099a 1B       		.uleb128 0x1b
 2471 099b 02060000 		.4byte	.LASF117
 2472 099f 01       		.byte	0x1
 2473 09a0 6B       		.byte	0x6b
 2474 09a1 0E090000 		.4byte	0x90e
 2475 09a5 62000000 		.4byte	.LLST2
 2476 09a9 1E       		.uleb128 0x1e
 2477 09aa 1C000000 		.4byte	.LVL6
 2478 09ae 84110000 		.4byte	0x1184
 2479 09b2 C0090000 		.4byte	0x9c0
 2480 09b6 1D       		.uleb128 0x1d
 2481 09b7 01       		.uleb128 0x1
 2482 09b8 50       		.byte	0x50
 2483 09b9 05       		.uleb128 0x5
 2484 09ba 03       		.byte	0x3
 2485 09bb 10000000 		.4byte	.LC1
 2486 09bf 00       		.byte	0
 2487 09c0 1E       		.uleb128 0x1e
 2488 09c1 24000000 		.4byte	.LVL7
 2489 09c5 95110000 		.4byte	0x1195
 2490 09c9 D4090000 		.4byte	0x9d4
 2491 09cd 1D       		.uleb128 0x1d
 2492 09ce 01       		.uleb128 0x1
 2493 09cf 50       		.byte	0x50
 2494 09d0 02       		.uleb128 0x2
 2495 09d1 74       		.byte	0x74
 2496 09d2 00       		.sleb128 0
 2497 09d3 00       		.byte	0
 2498 09d4 1F       		.uleb128 0x1f
 2499 09d5 34000000 		.4byte	.LVL10
 2500 09d9 84110000 		.4byte	0x1184
ARM GAS  /tmp/cc3zL94g.s 			page 47


 2501 09dd 1D       		.uleb128 0x1d
 2502 09de 01       		.uleb128 0x1
 2503 09df 50       		.byte	0x50
 2504 09e0 05       		.uleb128 0x5
 2505 09e1 03       		.byte	0x3
 2506 09e2 00000000 		.4byte	.LC0
 2507 09e6 00       		.byte	0
 2508 09e7 00       		.byte	0
 2509 09e8 19       		.uleb128 0x19
 2510 09e9 51000000 		.4byte	.LASF133
 2511 09ed 01       		.byte	0x1
 2512 09ee 81       		.byte	0x81
 2513 09ef 00000000 		.4byte	.LFB114
 2514 09f3 40000000 		.4byte	.LFE114-.LFB114
 2515 09f7 01       		.uleb128 0x1
 2516 09f8 9C       		.byte	0x9c
 2517 09f9 5F0A0000 		.4byte	0xa5f
 2518 09fd 1B       		.uleb128 0x1b
 2519 09fe 12070000 		.4byte	.LASF132
 2520 0a02 01       		.byte	0x1
 2521 0a03 81       		.byte	0x81
 2522 0a04 BE080000 		.4byte	0x8be
 2523 0a08 96000000 		.4byte	.LLST3
 2524 0a0c 1E       		.uleb128 0x1e
 2525 0a0d 18000000 		.4byte	.LVL13
 2526 0a11 84110000 		.4byte	0x1184
 2527 0a15 230A0000 		.4byte	0xa23
 2528 0a19 1D       		.uleb128 0x1d
 2529 0a1a 01       		.uleb128 0x1
 2530 0a1b 50       		.byte	0x50
 2531 0a1c 05       		.uleb128 0x5
 2532 0a1d 03       		.byte	0x3
 2533 0a1e 2C000000 		.4byte	.LC3
 2534 0a22 00       		.byte	0
 2535 0a23 1E       		.uleb128 0x1e
 2536 0a24 1E000000 		.4byte	.LVL14
 2537 0a28 A7110000 		.4byte	0x11a7
 2538 0a2c 370A0000 		.4byte	0xa37
 2539 0a30 1D       		.uleb128 0x1d
 2540 0a31 01       		.uleb128 0x1
 2541 0a32 50       		.byte	0x50
 2542 0a33 02       		.uleb128 0x2
 2543 0a34 74       		.byte	0x74
 2544 0a35 00       		.sleb128 0
 2545 0a36 00       		.byte	0
 2546 0a37 1E       		.uleb128 0x1e
 2547 0a38 24000000 		.4byte	.LVL15
 2548 0a3c B9110000 		.4byte	0x11b9
 2549 0a40 4B0A0000 		.4byte	0xa4b
 2550 0a44 1D       		.uleb128 0x1d
 2551 0a45 01       		.uleb128 0x1
 2552 0a46 50       		.byte	0x50
 2553 0a47 02       		.uleb128 0x2
 2554 0a48 74       		.byte	0x74
 2555 0a49 00       		.sleb128 0
 2556 0a4a 00       		.byte	0
 2557 0a4b 1F       		.uleb128 0x1f
ARM GAS  /tmp/cc3zL94g.s 			page 48


 2558 0a4c 34000000 		.4byte	.LVL18
 2559 0a50 84110000 		.4byte	0x1184
 2560 0a54 1D       		.uleb128 0x1d
 2561 0a55 01       		.uleb128 0x1
 2562 0a56 50       		.byte	0x50
 2563 0a57 05       		.uleb128 0x5
 2564 0a58 03       		.byte	0x3
 2565 0a59 20000000 		.4byte	.LC2
 2566 0a5d 00       		.byte	0
 2567 0a5e 00       		.byte	0
 2568 0a5f 19       		.uleb128 0x19
 2569 0a60 AA060000 		.4byte	.LASF134
 2570 0a64 01       		.byte	0x1
 2571 0a65 95       		.byte	0x95
 2572 0a66 00000000 		.4byte	.LFB115
 2573 0a6a 34000000 		.4byte	.LFE115-.LFB115
 2574 0a6e 01       		.uleb128 0x1
 2575 0a6f 9C       		.byte	0x9c
 2576 0a70 C20A0000 		.4byte	0xac2
 2577 0a74 1B       		.uleb128 0x1b
 2578 0a75 12070000 		.4byte	.LASF132
 2579 0a79 01       		.byte	0x1
 2580 0a7a 95       		.byte	0x95
 2581 0a7b BE080000 		.4byte	0x8be
 2582 0a7f CA000000 		.4byte	.LLST4
 2583 0a83 1E       		.uleb128 0x1e
 2584 0a84 16000000 		.4byte	.LVL21
 2585 0a88 84110000 		.4byte	0x1184
 2586 0a8c 9A0A0000 		.4byte	0xa9a
 2587 0a90 1D       		.uleb128 0x1d
 2588 0a91 01       		.uleb128 0x1
 2589 0a92 50       		.byte	0x50
 2590 0a93 05       		.uleb128 0x5
 2591 0a94 03       		.byte	0x3
 2592 0a95 4C000000 		.4byte	.LC5
 2593 0a99 00       		.byte	0
 2594 0a9a 1E       		.uleb128 0x1e
 2595 0a9b 1C000000 		.4byte	.LVL22
 2596 0a9f CB110000 		.4byte	0x11cb
 2597 0aa3 AE0A0000 		.4byte	0xaae
 2598 0aa7 1D       		.uleb128 0x1d
 2599 0aa8 01       		.uleb128 0x1
 2600 0aa9 50       		.byte	0x50
 2601 0aaa 02       		.uleb128 0x2
 2602 0aab 74       		.byte	0x74
 2603 0aac 00       		.sleb128 0
 2604 0aad 00       		.byte	0
 2605 0aae 1F       		.uleb128 0x1f
 2606 0aaf 28000000 		.4byte	.LVL25
 2607 0ab3 84110000 		.4byte	0x1184
 2608 0ab7 1D       		.uleb128 0x1d
 2609 0ab8 01       		.uleb128 0x1
 2610 0ab9 50       		.byte	0x50
 2611 0aba 05       		.uleb128 0x5
 2612 0abb 03       		.byte	0x3
 2613 0abc 3C000000 		.4byte	.LC4
 2614 0ac0 00       		.byte	0
ARM GAS  /tmp/cc3zL94g.s 			page 49


 2615 0ac1 00       		.byte	0
 2616 0ac2 19       		.uleb128 0x19
 2617 0ac3 C7010000 		.4byte	.LASF135
 2618 0ac7 01       		.byte	0x1
 2619 0ac8 A7       		.byte	0xa7
 2620 0ac9 00000000 		.4byte	.LFB116
 2621 0acd 34000000 		.4byte	.LFE116-.LFB116
 2622 0ad1 01       		.uleb128 0x1
 2623 0ad2 9C       		.byte	0x9c
 2624 0ad3 250B0000 		.4byte	0xb25
 2625 0ad7 1B       		.uleb128 0x1b
 2626 0ad8 12070000 		.4byte	.LASF132
 2627 0adc 01       		.byte	0x1
 2628 0add A7       		.byte	0xa7
 2629 0ade BE080000 		.4byte	0x8be
 2630 0ae2 FE000000 		.4byte	.LLST5
 2631 0ae6 1E       		.uleb128 0x1e
 2632 0ae7 16000000 		.4byte	.LVL28
 2633 0aeb 84110000 		.4byte	0x1184
 2634 0aef FD0A0000 		.4byte	0xafd
 2635 0af3 1D       		.uleb128 0x1d
 2636 0af4 01       		.uleb128 0x1
 2637 0af5 50       		.byte	0x50
 2638 0af6 05       		.uleb128 0x5
 2639 0af7 03       		.byte	0x3
 2640 0af8 6C000000 		.4byte	.LC7
 2641 0afc 00       		.byte	0
 2642 0afd 1E       		.uleb128 0x1e
 2643 0afe 1C000000 		.4byte	.LVL29
 2644 0b02 A7110000 		.4byte	0x11a7
 2645 0b06 110B0000 		.4byte	0xb11
 2646 0b0a 1D       		.uleb128 0x1d
 2647 0b0b 01       		.uleb128 0x1
 2648 0b0c 50       		.byte	0x50
 2649 0b0d 02       		.uleb128 0x2
 2650 0b0e 74       		.byte	0x74
 2651 0b0f 00       		.sleb128 0
 2652 0b10 00       		.byte	0
 2653 0b11 1F       		.uleb128 0x1f
 2654 0b12 28000000 		.4byte	.LVL32
 2655 0b16 84110000 		.4byte	0x1184
 2656 0b1a 1D       		.uleb128 0x1d
 2657 0b1b 01       		.uleb128 0x1
 2658 0b1c 50       		.byte	0x50
 2659 0b1d 05       		.uleb128 0x5
 2660 0b1e 03       		.byte	0x3
 2661 0b1f 5C000000 		.4byte	.LC6
 2662 0b23 00       		.byte	0
 2663 0b24 00       		.byte	0
 2664 0b25 19       		.uleb128 0x19
 2665 0b26 4A010000 		.4byte	.LASF136
 2666 0b2a 01       		.byte	0x1
 2667 0b2b BE       		.byte	0xbe
 2668 0b2c 00000000 		.4byte	.LFB117
 2669 0b30 3C000000 		.4byte	.LFE117-.LFB117
 2670 0b34 01       		.uleb128 0x1
 2671 0b35 9C       		.byte	0x9c
ARM GAS  /tmp/cc3zL94g.s 			page 50


 2672 0b36 9B0B0000 		.4byte	0xb9b
 2673 0b3a 1B       		.uleb128 0x1b
 2674 0b3b 12070000 		.4byte	.LASF132
 2675 0b3f 01       		.byte	0x1
 2676 0b40 BE       		.byte	0xbe
 2677 0b41 BE080000 		.4byte	0x8be
 2678 0b45 32010000 		.4byte	.LLST6
 2679 0b49 20       		.uleb128 0x20
 2680 0b4a 6E00     		.ascii	"n\000"
 2681 0b4c 01       		.byte	0x1
 2682 0b4d BE       		.byte	0xbe
 2683 0b4e 2C000000 		.4byte	0x2c
 2684 0b52 66010000 		.4byte	.LLST7
 2685 0b56 1E       		.uleb128 0x1e
 2686 0b57 1A000000 		.4byte	.LVL35
 2687 0b5b 84110000 		.4byte	0x1184
 2688 0b5f 6D0B0000 		.4byte	0xb6d
 2689 0b63 1D       		.uleb128 0x1d
 2690 0b64 01       		.uleb128 0x1
 2691 0b65 50       		.byte	0x50
 2692 0b66 05       		.uleb128 0x5
 2693 0b67 03       		.byte	0x3
 2694 0b68 94000000 		.4byte	.LC9
 2695 0b6c 00       		.byte	0
 2696 0b6d 1E       		.uleb128 0x1e
 2697 0b6e 26000000 		.4byte	.LVL36
 2698 0b72 DD110000 		.4byte	0x11dd
 2699 0b76 870B0000 		.4byte	0xb87
 2700 0b7a 1D       		.uleb128 0x1d
 2701 0b7b 01       		.uleb128 0x1
 2702 0b7c 51       		.byte	0x51
 2703 0b7d 02       		.uleb128 0x2
 2704 0b7e 75       		.byte	0x75
 2705 0b7f 00       		.sleb128 0
 2706 0b80 1D       		.uleb128 0x1d
 2707 0b81 01       		.uleb128 0x1
 2708 0b82 50       		.byte	0x50
 2709 0b83 02       		.uleb128 0x2
 2710 0b84 74       		.byte	0x74
 2711 0b85 00       		.sleb128 0
 2712 0b86 00       		.byte	0
 2713 0b87 1F       		.uleb128 0x1f
 2714 0b88 32000000 		.4byte	.LVL39
 2715 0b8c 84110000 		.4byte	0x1184
 2716 0b90 1D       		.uleb128 0x1d
 2717 0b91 01       		.uleb128 0x1
 2718 0b92 50       		.byte	0x50
 2719 0b93 05       		.uleb128 0x5
 2720 0b94 03       		.byte	0x3
 2721 0b95 80000000 		.4byte	.LC8
 2722 0b99 00       		.byte	0
 2723 0b9a 00       		.byte	0
 2724 0b9b 19       		.uleb128 0x19
 2725 0b9c E4060000 		.4byte	.LASF137
 2726 0ba0 01       		.byte	0x1
 2727 0ba1 D9       		.byte	0xd9
 2728 0ba2 00000000 		.4byte	.LFB118
ARM GAS  /tmp/cc3zL94g.s 			page 51


 2729 0ba6 4C000000 		.4byte	.LFE118-.LFB118
 2730 0baa 01       		.uleb128 0x1
 2731 0bab 9C       		.byte	0x9c
 2732 0bac 3B0C0000 		.4byte	0xc3b
 2733 0bb0 1B       		.uleb128 0x1b
 2734 0bb1 12070000 		.4byte	.LASF132
 2735 0bb5 01       		.byte	0x1
 2736 0bb6 D9       		.byte	0xd9
 2737 0bb7 BE080000 		.4byte	0x8be
 2738 0bbb 9A010000 		.4byte	.LLST8
 2739 0bbf 20       		.uleb128 0x20
 2740 0bc0 6E00     		.ascii	"n\000"
 2741 0bc2 01       		.byte	0x1
 2742 0bc3 D9       		.byte	0xd9
 2743 0bc4 2C000000 		.4byte	0x2c
 2744 0bc8 C3010000 		.4byte	.LLST9
 2745 0bcc 1B       		.uleb128 0x1b
 2746 0bcd 1D020000 		.4byte	.LASF138
 2747 0bd1 01       		.byte	0x1
 2748 0bd2 DA       		.byte	0xda
 2749 0bd3 3B0C0000 		.4byte	0xc3b
 2750 0bd7 EC010000 		.4byte	.LLST10
 2751 0bdb 1B       		.uleb128 0x1b
 2752 0bdc B4000000 		.4byte	.LASF139
 2753 0be0 01       		.byte	0x1
 2754 0be1 DA       		.byte	0xda
 2755 0be2 B4020000 		.4byte	0x2b4
 2756 0be6 15020000 		.4byte	.LLST11
 2757 0bea 1E       		.uleb128 0x1e
 2758 0beb 14000000 		.4byte	.LVL42
 2759 0bef 84110000 		.4byte	0x1184
 2760 0bf3 010C0000 		.4byte	0xc01
 2761 0bf7 1D       		.uleb128 0x1d
 2762 0bf8 01       		.uleb128 0x1
 2763 0bf9 50       		.byte	0x50
 2764 0bfa 05       		.uleb128 0x5
 2765 0bfb 03       		.byte	0x3
 2766 0bfc AC000000 		.4byte	.LC10
 2767 0c00 00       		.byte	0
 2768 0c01 1E       		.uleb128 0x1e
 2769 0c02 24000000 		.4byte	.LVL43
 2770 0c06 84110000 		.4byte	0x1184
 2771 0c0a 180C0000 		.4byte	0xc18
 2772 0c0e 1D       		.uleb128 0x1d
 2773 0c0f 01       		.uleb128 0x1
 2774 0c10 50       		.byte	0x50
 2775 0c11 05       		.uleb128 0x5
 2776 0c12 03       		.byte	0x3
 2777 0c13 C4000000 		.4byte	.LC11
 2778 0c17 00       		.byte	0
 2779 0c18 1F       		.uleb128 0x1f
 2780 0c19 34000000 		.4byte	.LVL44
 2781 0c1d F4110000 		.4byte	0x11f4
 2782 0c21 1D       		.uleb128 0x1d
 2783 0c22 01       		.uleb128 0x1
 2784 0c23 53       		.byte	0x53
 2785 0c24 02       		.uleb128 0x2
ARM GAS  /tmp/cc3zL94g.s 			page 52


 2786 0c25 76       		.byte	0x76
 2787 0c26 00       		.sleb128 0
 2788 0c27 1D       		.uleb128 0x1d
 2789 0c28 01       		.uleb128 0x1
 2790 0c29 52       		.byte	0x52
 2791 0c2a 02       		.uleb128 0x2
 2792 0c2b 77       		.byte	0x77
 2793 0c2c 00       		.sleb128 0
 2794 0c2d 1D       		.uleb128 0x1d
 2795 0c2e 01       		.uleb128 0x1
 2796 0c2f 51       		.byte	0x51
 2797 0c30 02       		.uleb128 0x2
 2798 0c31 75       		.byte	0x75
 2799 0c32 00       		.sleb128 0
 2800 0c33 1D       		.uleb128 0x1d
 2801 0c34 01       		.uleb128 0x1
 2802 0c35 50       		.byte	0x50
 2803 0c36 02       		.uleb128 0x2
 2804 0c37 74       		.byte	0x74
 2805 0c38 00       		.sleb128 0
 2806 0c39 00       		.byte	0
 2807 0c3a 00       		.byte	0
 2808 0c3b 09       		.uleb128 0x9
 2809 0c3c 04       		.byte	0x4
 2810 0c3d 410C0000 		.4byte	0xc41
 2811 0c41 21       		.uleb128 0x21
 2812 0c42 19       		.uleb128 0x19
 2813 0c43 4C020000 		.4byte	.LASF140
 2814 0c47 01       		.byte	0x1
 2815 0c48 F4       		.byte	0xf4
 2816 0c49 00000000 		.4byte	.LFB119
 2817 0c4d 44000000 		.4byte	.LFE119-.LFB119
 2818 0c51 01       		.uleb128 0x1
 2819 0c52 9C       		.byte	0x9c
 2820 0c53 CD0C0000 		.4byte	0xccd
 2821 0c57 1B       		.uleb128 0x1b
 2822 0c58 12070000 		.4byte	.LASF132
 2823 0c5c 01       		.byte	0x1
 2824 0c5d F4       		.byte	0xf4
 2825 0c5e BE080000 		.4byte	0x8be
 2826 0c62 3E020000 		.4byte	.LLST12
 2827 0c66 20       		.uleb128 0x20
 2828 0c67 6E00     		.ascii	"n\000"
 2829 0c69 01       		.byte	0x1
 2830 0c6a F4       		.byte	0xf4
 2831 0c6b 2C000000 		.4byte	0x2c
 2832 0c6f 67020000 		.4byte	.LLST13
 2833 0c73 1B       		.uleb128 0x1b
 2834 0c74 1D020000 		.4byte	.LASF138
 2835 0c78 01       		.byte	0x1
 2836 0c79 F4       		.byte	0xf4
 2837 0c7a 3B0C0000 		.4byte	0xc3b
 2838 0c7e 90020000 		.4byte	.LLST14
 2839 0c82 1E       		.uleb128 0x1e
 2840 0c83 12000000 		.4byte	.LVL48
 2841 0c87 84110000 		.4byte	0x1184
 2842 0c8b 990C0000 		.4byte	0xc99
ARM GAS  /tmp/cc3zL94g.s 			page 53


 2843 0c8f 1D       		.uleb128 0x1d
 2844 0c90 01       		.uleb128 0x1
 2845 0c91 50       		.byte	0x50
 2846 0c92 05       		.uleb128 0x5
 2847 0c93 03       		.byte	0x3
 2848 0c94 DC000000 		.4byte	.LC12
 2849 0c98 00       		.byte	0
 2850 0c99 1E       		.uleb128 0x1e
 2851 0c9a 22000000 		.4byte	.LVL49
 2852 0c9e 84110000 		.4byte	0x1184
 2853 0ca2 B00C0000 		.4byte	0xcb0
 2854 0ca6 1D       		.uleb128 0x1d
 2855 0ca7 01       		.uleb128 0x1
 2856 0ca8 50       		.byte	0x50
 2857 0ca9 05       		.uleb128 0x5
 2858 0caa 03       		.byte	0x3
 2859 0cab F0000000 		.4byte	.LC13
 2860 0caf 00       		.byte	0
 2861 0cb0 1F       		.uleb128 0x1f
 2862 0cb1 30000000 		.4byte	.LVL50
 2863 0cb5 15120000 		.4byte	0x1215
 2864 0cb9 1D       		.uleb128 0x1d
 2865 0cba 01       		.uleb128 0x1
 2866 0cbb 52       		.byte	0x52
 2867 0cbc 02       		.uleb128 0x2
 2868 0cbd 76       		.byte	0x76
 2869 0cbe 00       		.sleb128 0
 2870 0cbf 1D       		.uleb128 0x1d
 2871 0cc0 01       		.uleb128 0x1
 2872 0cc1 51       		.byte	0x51
 2873 0cc2 02       		.uleb128 0x2
 2874 0cc3 75       		.byte	0x75
 2875 0cc4 00       		.sleb128 0
 2876 0cc5 1D       		.uleb128 0x1d
 2877 0cc6 01       		.uleb128 0x1
 2878 0cc7 50       		.byte	0x50
 2879 0cc8 02       		.uleb128 0x2
 2880 0cc9 74       		.byte	0x74
 2881 0cca 00       		.sleb128 0
 2882 0ccb 00       		.byte	0
 2883 0ccc 00       		.byte	0
 2884 0ccd 22       		.uleb128 0x22
 2885 0cce 3A010000 		.4byte	.LASF141
 2886 0cd2 01       		.byte	0x1
 2887 0cd3 0E01     		.2byte	0x10e
 2888 0cd5 00000000 		.4byte	.LFB120
 2889 0cd9 44000000 		.4byte	.LFE120-.LFB120
 2890 0cdd 01       		.uleb128 0x1
 2891 0cde 9C       		.byte	0x9c
 2892 0cdf 5C0D0000 		.4byte	0xd5c
 2893 0ce3 23       		.uleb128 0x23
 2894 0ce4 12070000 		.4byte	.LASF132
 2895 0ce8 01       		.byte	0x1
 2896 0ce9 0E01     		.2byte	0x10e
 2897 0ceb BE080000 		.4byte	0x8be
 2898 0cef B9020000 		.4byte	.LLST15
 2899 0cf3 24       		.uleb128 0x24
ARM GAS  /tmp/cc3zL94g.s 			page 54


 2900 0cf4 6E00     		.ascii	"n\000"
 2901 0cf6 01       		.byte	0x1
 2902 0cf7 0E01     		.2byte	0x10e
 2903 0cf9 2C000000 		.4byte	0x2c
 2904 0cfd E2020000 		.4byte	.LLST16
 2905 0d01 23       		.uleb128 0x23
 2906 0d02 B4000000 		.4byte	.LASF139
 2907 0d06 01       		.byte	0x1
 2908 0d07 0E01     		.2byte	0x10e
 2909 0d09 B4020000 		.4byte	0x2b4
 2910 0d0d 0B030000 		.4byte	.LLST17
 2911 0d11 1E       		.uleb128 0x1e
 2912 0d12 12000000 		.4byte	.LVL54
 2913 0d16 84110000 		.4byte	0x1184
 2914 0d1a 280D0000 		.4byte	0xd28
 2915 0d1e 1D       		.uleb128 0x1d
 2916 0d1f 01       		.uleb128 0x1
 2917 0d20 50       		.byte	0x50
 2918 0d21 05       		.uleb128 0x5
 2919 0d22 03       		.byte	0x3
 2920 0d23 04010000 		.4byte	.LC14
 2921 0d27 00       		.byte	0
 2922 0d28 1E       		.uleb128 0x1e
 2923 0d29 22000000 		.4byte	.LVL55
 2924 0d2d 84110000 		.4byte	0x1184
 2925 0d31 3F0D0000 		.4byte	0xd3f
 2926 0d35 1D       		.uleb128 0x1d
 2927 0d36 01       		.uleb128 0x1
 2928 0d37 50       		.byte	0x50
 2929 0d38 05       		.uleb128 0x5
 2930 0d39 03       		.byte	0x3
 2931 0d3a 18010000 		.4byte	.LC15
 2932 0d3e 00       		.byte	0
 2933 0d3f 1F       		.uleb128 0x1f
 2934 0d40 30000000 		.4byte	.LVL56
 2935 0d44 31120000 		.4byte	0x1231
 2936 0d48 1D       		.uleb128 0x1d
 2937 0d49 01       		.uleb128 0x1
 2938 0d4a 52       		.byte	0x52
 2939 0d4b 02       		.uleb128 0x2
 2940 0d4c 76       		.byte	0x76
 2941 0d4d 00       		.sleb128 0
 2942 0d4e 1D       		.uleb128 0x1d
 2943 0d4f 01       		.uleb128 0x1
 2944 0d50 51       		.byte	0x51
 2945 0d51 02       		.uleb128 0x2
 2946 0d52 75       		.byte	0x75
 2947 0d53 00       		.sleb128 0
 2948 0d54 1D       		.uleb128 0x1d
 2949 0d55 01       		.uleb128 0x1
 2950 0d56 50       		.byte	0x50
 2951 0d57 02       		.uleb128 0x2
 2952 0d58 74       		.byte	0x74
 2953 0d59 00       		.sleb128 0
 2954 0d5a 00       		.byte	0
 2955 0d5b 00       		.byte	0
 2956 0d5c 22       		.uleb128 0x22
ARM GAS  /tmp/cc3zL94g.s 			page 55


 2957 0d5d 6A060000 		.4byte	.LASF142
 2958 0d61 01       		.byte	0x1
 2959 0d62 2801     		.2byte	0x128
 2960 0d64 00000000 		.4byte	.LFB121
 2961 0d68 6C000000 		.4byte	.LFE121-.LFB121
 2962 0d6c 01       		.uleb128 0x1
 2963 0d6d 9C       		.byte	0x9c
 2964 0d6e 160E0000 		.4byte	0xe16
 2965 0d72 23       		.uleb128 0x23
 2966 0d73 12070000 		.4byte	.LASF132
 2967 0d77 01       		.byte	0x1
 2968 0d78 2801     		.2byte	0x128
 2969 0d7a BE080000 		.4byte	0x8be
 2970 0d7e 34030000 		.4byte	.LLST18
 2971 0d82 24       		.uleb128 0x24
 2972 0d83 6E00     		.ascii	"n\000"
 2973 0d85 01       		.byte	0x1
 2974 0d86 2801     		.2byte	0x128
 2975 0d88 2C000000 		.4byte	0x2c
 2976 0d8c 68030000 		.4byte	.LLST19
 2977 0d90 1E       		.uleb128 0x1e
 2978 0d91 1A000000 		.4byte	.LVL60
 2979 0d95 84110000 		.4byte	0x1184
 2980 0d99 A70D0000 		.4byte	0xda7
 2981 0d9d 1D       		.uleb128 0x1d
 2982 0d9e 01       		.uleb128 0x1
 2983 0d9f 50       		.byte	0x50
 2984 0da0 05       		.uleb128 0x5
 2985 0da1 03       		.byte	0x3
 2986 0da2 44010000 		.4byte	.LC17
 2987 0da6 00       		.byte	0
 2988 0da7 1E       		.uleb128 0x1e
 2989 0da8 26000000 		.4byte	.LVL61
 2990 0dac 84110000 		.4byte	0x1184
 2991 0db0 BE0D0000 		.4byte	0xdbe
 2992 0db4 1D       		.uleb128 0x1d
 2993 0db5 01       		.uleb128 0x1
 2994 0db6 50       		.byte	0x50
 2995 0db7 05       		.uleb128 0x5
 2996 0db8 03       		.byte	0x3
 2997 0db9 54010000 		.4byte	.LC18
 2998 0dbd 00       		.byte	0
 2999 0dbe 1E       		.uleb128 0x1e
 3000 0dbf 32000000 		.4byte	.LVL62
 3001 0dc3 DD110000 		.4byte	0x11dd
 3002 0dc7 D80D0000 		.4byte	0xdd8
 3003 0dcb 1D       		.uleb128 0x1d
 3004 0dcc 01       		.uleb128 0x1
 3005 0dcd 51       		.byte	0x51
 3006 0dce 02       		.uleb128 0x2
 3007 0dcf 75       		.byte	0x75
 3008 0dd0 00       		.sleb128 0
 3009 0dd1 1D       		.uleb128 0x1d
 3010 0dd2 01       		.uleb128 0x1
 3011 0dd3 50       		.byte	0x50
 3012 0dd4 02       		.uleb128 0x2
 3013 0dd5 74       		.byte	0x74
ARM GAS  /tmp/cc3zL94g.s 			page 56


 3014 0dd6 00       		.sleb128 0
 3015 0dd7 00       		.byte	0
 3016 0dd8 1E       		.uleb128 0x1e
 3017 0dd9 3C000000 		.4byte	.LVL63
 3018 0ddd 84110000 		.4byte	0x1184
 3019 0de1 EF0D0000 		.4byte	0xdef
 3020 0de5 1D       		.uleb128 0x1d
 3021 0de6 01       		.uleb128 0x1
 3022 0de7 50       		.byte	0x50
 3023 0de8 05       		.uleb128 0x5
 3024 0de9 03       		.byte	0x3
 3025 0dea 64010000 		.4byte	.LC19
 3026 0dee 00       		.byte	0
 3027 0def 1E       		.uleb128 0x1e
 3028 0df0 48000000 		.4byte	.LVL64
 3029 0df4 4D120000 		.4byte	0x124d
 3030 0df8 020E0000 		.4byte	0xe02
 3031 0dfc 1D       		.uleb128 0x1d
 3032 0dfd 01       		.uleb128 0x1
 3033 0dfe 50       		.byte	0x50
 3034 0dff 01       		.uleb128 0x1
 3035 0e00 32       		.byte	0x32
 3036 0e01 00       		.byte	0
 3037 0e02 1F       		.uleb128 0x1f
 3038 0e03 54000000 		.4byte	.LVL67
 3039 0e07 84110000 		.4byte	0x1184
 3040 0e0b 1D       		.uleb128 0x1d
 3041 0e0c 01       		.uleb128 0x1
 3042 0e0d 50       		.byte	0x50
 3043 0e0e 05       		.uleb128 0x5
 3044 0e0f 03       		.byte	0x3
 3045 0e10 30010000 		.4byte	.LC16
 3046 0e14 00       		.byte	0
 3047 0e15 00       		.byte	0
 3048 0e16 22       		.uleb128 0x22
 3049 0e17 C8020000 		.4byte	.LASF143
 3050 0e1b 01       		.byte	0x1
 3051 0e1c 4601     		.2byte	0x146
 3052 0e1e 00000000 		.4byte	.LFB122
 3053 0e22 7C000000 		.4byte	.LFE122-.LFB122
 3054 0e26 01       		.uleb128 0x1
 3055 0e27 9C       		.byte	0x9c
 3056 0e28 FC0E0000 		.4byte	0xefc
 3057 0e2c 23       		.uleb128 0x23
 3058 0e2d 12070000 		.4byte	.LASF132
 3059 0e31 01       		.byte	0x1
 3060 0e32 4601     		.2byte	0x146
 3061 0e34 BE080000 		.4byte	0x8be
 3062 0e38 9C030000 		.4byte	.LLST20
 3063 0e3c 24       		.uleb128 0x24
 3064 0e3d 6E00     		.ascii	"n\000"
 3065 0e3f 01       		.byte	0x1
 3066 0e40 4601     		.2byte	0x146
 3067 0e42 2C000000 		.4byte	0x2c
 3068 0e46 C5030000 		.4byte	.LLST21
 3069 0e4a 23       		.uleb128 0x23
 3070 0e4b 1D020000 		.4byte	.LASF138
ARM GAS  /tmp/cc3zL94g.s 			page 57


 3071 0e4f 01       		.byte	0x1
 3072 0e50 4701     		.2byte	0x147
 3073 0e52 3B0C0000 		.4byte	0xc3b
 3074 0e56 EE030000 		.4byte	.LLST22
 3075 0e5a 23       		.uleb128 0x23
 3076 0e5b B4000000 		.4byte	.LASF139
 3077 0e5f 01       		.byte	0x1
 3078 0e60 4701     		.2byte	0x147
 3079 0e62 B4020000 		.4byte	0x2b4
 3080 0e66 17040000 		.4byte	.LLST23
 3081 0e6a 1E       		.uleb128 0x1e
 3082 0e6b 14000000 		.4byte	.LVL70
 3083 0e6f 84110000 		.4byte	0x1184
 3084 0e73 810E0000 		.4byte	0xe81
 3085 0e77 1D       		.uleb128 0x1d
 3086 0e78 01       		.uleb128 0x1
 3087 0e79 50       		.byte	0x50
 3088 0e7a 05       		.uleb128 0x5
 3089 0e7b 03       		.byte	0x3
 3090 0e7c 74010000 		.4byte	.LC20
 3091 0e80 00       		.byte	0
 3092 0e81 1E       		.uleb128 0x1e
 3093 0e82 24000000 		.4byte	.LVL71
 3094 0e86 84110000 		.4byte	0x1184
 3095 0e8a 980E0000 		.4byte	0xe98
 3096 0e8e 1D       		.uleb128 0x1d
 3097 0e8f 01       		.uleb128 0x1
 3098 0e90 50       		.byte	0x50
 3099 0e91 05       		.uleb128 0x5
 3100 0e92 03       		.byte	0x3
 3101 0e93 84010000 		.4byte	.LC21
 3102 0e97 00       		.byte	0
 3103 0e98 1E       		.uleb128 0x1e
 3104 0e99 30000000 		.4byte	.LVL72
 3105 0e9d 84110000 		.4byte	0x1184
 3106 0ea1 AF0E0000 		.4byte	0xeaf
 3107 0ea5 1D       		.uleb128 0x1d
 3108 0ea6 01       		.uleb128 0x1
 3109 0ea7 50       		.byte	0x50
 3110 0ea8 05       		.uleb128 0x5
 3111 0ea9 03       		.byte	0x3
 3112 0eaa 98010000 		.4byte	.LC22
 3113 0eae 00       		.byte	0
 3114 0eaf 1E       		.uleb128 0x1e
 3115 0eb0 40000000 		.4byte	.LVL73
 3116 0eb4 F4110000 		.4byte	0x11f4
 3117 0eb8 D50E0000 		.4byte	0xed5
 3118 0ebc 1D       		.uleb128 0x1d
 3119 0ebd 01       		.uleb128 0x1
 3120 0ebe 53       		.byte	0x53
 3121 0ebf 02       		.uleb128 0x2
 3122 0ec0 76       		.byte	0x76
 3123 0ec1 00       		.sleb128 0
 3124 0ec2 1D       		.uleb128 0x1d
 3125 0ec3 01       		.uleb128 0x1
 3126 0ec4 52       		.byte	0x52
 3127 0ec5 02       		.uleb128 0x2
ARM GAS  /tmp/cc3zL94g.s 			page 58


 3128 0ec6 77       		.byte	0x77
 3129 0ec7 00       		.sleb128 0
 3130 0ec8 1D       		.uleb128 0x1d
 3131 0ec9 01       		.uleb128 0x1
 3132 0eca 51       		.byte	0x51
 3133 0ecb 02       		.uleb128 0x2
 3134 0ecc 75       		.byte	0x75
 3135 0ecd 00       		.sleb128 0
 3136 0ece 1D       		.uleb128 0x1d
 3137 0ecf 01       		.uleb128 0x1
 3138 0ed0 50       		.byte	0x50
 3139 0ed1 02       		.uleb128 0x2
 3140 0ed2 74       		.byte	0x74
 3141 0ed3 00       		.sleb128 0
 3142 0ed4 00       		.byte	0
 3143 0ed5 1E       		.uleb128 0x1e
 3144 0ed6 4A000000 		.4byte	.LVL74
 3145 0eda 84110000 		.4byte	0x1184
 3146 0ede EC0E0000 		.4byte	0xeec
 3147 0ee2 1D       		.uleb128 0x1d
 3148 0ee3 01       		.uleb128 0x1
 3149 0ee4 50       		.byte	0x50
 3150 0ee5 05       		.uleb128 0x5
 3151 0ee6 03       		.byte	0x3
 3152 0ee7 64010000 		.4byte	.LC19
 3153 0eeb 00       		.byte	0
 3154 0eec 1F       		.uleb128 0x1f
 3155 0eed 56000000 		.4byte	.LVL75
 3156 0ef1 4D120000 		.4byte	0x124d
 3157 0ef5 1D       		.uleb128 0x1d
 3158 0ef6 01       		.uleb128 0x1
 3159 0ef7 50       		.byte	0x50
 3160 0ef8 01       		.uleb128 0x1
 3161 0ef9 32       		.byte	0x32
 3162 0efa 00       		.byte	0
 3163 0efb 00       		.byte	0
 3164 0efc 22       		.uleb128 0x22
 3165 0efd 25070000 		.4byte	.LASF144
 3166 0f01 01       		.byte	0x1
 3167 0f02 6501     		.2byte	0x165
 3168 0f04 00000000 		.4byte	.LFB123
 3169 0f08 74000000 		.4byte	.LFE123-.LFB123
 3170 0f0c 01       		.uleb128 0x1
 3171 0f0d 9C       		.byte	0x9c
 3172 0f0e CC0F0000 		.4byte	0xfcc
 3173 0f12 23       		.uleb128 0x23
 3174 0f13 12070000 		.4byte	.LASF132
 3175 0f17 01       		.byte	0x1
 3176 0f18 6501     		.2byte	0x165
 3177 0f1a BE080000 		.4byte	0x8be
 3178 0f1e 40040000 		.4byte	.LLST24
 3179 0f22 24       		.uleb128 0x24
 3180 0f23 6E00     		.ascii	"n\000"
 3181 0f25 01       		.byte	0x1
 3182 0f26 6501     		.2byte	0x165
 3183 0f28 2C000000 		.4byte	0x2c
 3184 0f2c 69040000 		.4byte	.LLST25
ARM GAS  /tmp/cc3zL94g.s 			page 59


 3185 0f30 23       		.uleb128 0x23
 3186 0f31 1D020000 		.4byte	.LASF138
 3187 0f35 01       		.byte	0x1
 3188 0f36 6501     		.2byte	0x165
 3189 0f38 3B0C0000 		.4byte	0xc3b
 3190 0f3c 92040000 		.4byte	.LLST26
 3191 0f40 1E       		.uleb128 0x1e
 3192 0f41 12000000 		.4byte	.LVL79
 3193 0f45 84110000 		.4byte	0x1184
 3194 0f49 570F0000 		.4byte	0xf57
 3195 0f4d 1D       		.uleb128 0x1d
 3196 0f4e 01       		.uleb128 0x1
 3197 0f4f 50       		.byte	0x50
 3198 0f50 05       		.uleb128 0x5
 3199 0f51 03       		.byte	0x3
 3200 0f52 AC010000 		.4byte	.LC23
 3201 0f56 00       		.byte	0
 3202 0f57 1E       		.uleb128 0x1e
 3203 0f58 22000000 		.4byte	.LVL80
 3204 0f5c 84110000 		.4byte	0x1184
 3205 0f60 6E0F0000 		.4byte	0xf6e
 3206 0f64 1D       		.uleb128 0x1d
 3207 0f65 01       		.uleb128 0x1
 3208 0f66 50       		.byte	0x50
 3209 0f67 05       		.uleb128 0x5
 3210 0f68 03       		.byte	0x3
 3211 0f69 B8010000 		.4byte	.LC24
 3212 0f6d 00       		.byte	0
 3213 0f6e 1E       		.uleb128 0x1e
 3214 0f6f 2E000000 		.4byte	.LVL81
 3215 0f73 84110000 		.4byte	0x1184
 3216 0f77 850F0000 		.4byte	0xf85
 3217 0f7b 1D       		.uleb128 0x1d
 3218 0f7c 01       		.uleb128 0x1
 3219 0f7d 50       		.byte	0x50
 3220 0f7e 05       		.uleb128 0x5
 3221 0f7f 03       		.byte	0x3
 3222 0f80 C8010000 		.4byte	.LC25
 3223 0f84 00       		.byte	0
 3224 0f85 1E       		.uleb128 0x1e
 3225 0f86 3C000000 		.4byte	.LVL82
 3226 0f8a 15120000 		.4byte	0x1215
 3227 0f8e A50F0000 		.4byte	0xfa5
 3228 0f92 1D       		.uleb128 0x1d
 3229 0f93 01       		.uleb128 0x1
 3230 0f94 52       		.byte	0x52
 3231 0f95 02       		.uleb128 0x2
 3232 0f96 76       		.byte	0x76
 3233 0f97 00       		.sleb128 0
 3234 0f98 1D       		.uleb128 0x1d
 3235 0f99 01       		.uleb128 0x1
 3236 0f9a 51       		.byte	0x51
 3237 0f9b 02       		.uleb128 0x2
 3238 0f9c 75       		.byte	0x75
 3239 0f9d 00       		.sleb128 0
 3240 0f9e 1D       		.uleb128 0x1d
 3241 0f9f 01       		.uleb128 0x1
ARM GAS  /tmp/cc3zL94g.s 			page 60


 3242 0fa0 50       		.byte	0x50
 3243 0fa1 02       		.uleb128 0x2
 3244 0fa2 74       		.byte	0x74
 3245 0fa3 00       		.sleb128 0
 3246 0fa4 00       		.byte	0
 3247 0fa5 1E       		.uleb128 0x1e
 3248 0fa6 46000000 		.4byte	.LVL83
 3249 0faa 84110000 		.4byte	0x1184
 3250 0fae BC0F0000 		.4byte	0xfbc
 3251 0fb2 1D       		.uleb128 0x1d
 3252 0fb3 01       		.uleb128 0x1
 3253 0fb4 50       		.byte	0x50
 3254 0fb5 05       		.uleb128 0x5
 3255 0fb6 03       		.byte	0x3
 3256 0fb7 64010000 		.4byte	.LC19
 3257 0fbb 00       		.byte	0
 3258 0fbc 1F       		.uleb128 0x1f
 3259 0fbd 52000000 		.4byte	.LVL84
 3260 0fc1 4D120000 		.4byte	0x124d
 3261 0fc5 1D       		.uleb128 0x1d
 3262 0fc6 01       		.uleb128 0x1
 3263 0fc7 50       		.byte	0x50
 3264 0fc8 01       		.uleb128 0x1
 3265 0fc9 32       		.byte	0x32
 3266 0fca 00       		.byte	0
 3267 0fcb 00       		.byte	0
 3268 0fcc 22       		.uleb128 0x22
 3269 0fcd 2A020000 		.4byte	.LASF145
 3270 0fd1 01       		.byte	0x1
 3271 0fd2 8101     		.2byte	0x181
 3272 0fd4 00000000 		.4byte	.LFB124
 3273 0fd8 74000000 		.4byte	.LFE124-.LFB124
 3274 0fdc 01       		.uleb128 0x1
 3275 0fdd 9C       		.byte	0x9c
 3276 0fde 9C100000 		.4byte	0x109c
 3277 0fe2 23       		.uleb128 0x23
 3278 0fe3 12070000 		.4byte	.LASF132
 3279 0fe7 01       		.byte	0x1
 3280 0fe8 8101     		.2byte	0x181
 3281 0fea BE080000 		.4byte	0x8be
 3282 0fee BB040000 		.4byte	.LLST27
 3283 0ff2 24       		.uleb128 0x24
 3284 0ff3 6E00     		.ascii	"n\000"
 3285 0ff5 01       		.byte	0x1
 3286 0ff6 8101     		.2byte	0x181
 3287 0ff8 2C000000 		.4byte	0x2c
 3288 0ffc E4040000 		.4byte	.LLST28
 3289 1000 23       		.uleb128 0x23
 3290 1001 B4000000 		.4byte	.LASF139
 3291 1005 01       		.byte	0x1
 3292 1006 8101     		.2byte	0x181
 3293 1008 B4020000 		.4byte	0x2b4
 3294 100c 0D050000 		.4byte	.LLST29
 3295 1010 1E       		.uleb128 0x1e
 3296 1011 12000000 		.4byte	.LVL88
 3297 1015 84110000 		.4byte	0x1184
 3298 1019 27100000 		.4byte	0x1027
ARM GAS  /tmp/cc3zL94g.s 			page 61


 3299 101d 1D       		.uleb128 0x1d
 3300 101e 01       		.uleb128 0x1
 3301 101f 50       		.byte	0x50
 3302 1020 05       		.uleb128 0x5
 3303 1021 03       		.byte	0x3
 3304 1022 D8010000 		.4byte	.LC26
 3305 1026 00       		.byte	0
 3306 1027 1E       		.uleb128 0x1e
 3307 1028 22000000 		.4byte	.LVL89
 3308 102c 84110000 		.4byte	0x1184
 3309 1030 3E100000 		.4byte	0x103e
 3310 1034 1D       		.uleb128 0x1d
 3311 1035 01       		.uleb128 0x1
 3312 1036 50       		.byte	0x50
 3313 1037 05       		.uleb128 0x5
 3314 1038 03       		.byte	0x3
 3315 1039 E8010000 		.4byte	.LC27
 3316 103d 00       		.byte	0
 3317 103e 1E       		.uleb128 0x1e
 3318 103f 2E000000 		.4byte	.LVL90
 3319 1043 84110000 		.4byte	0x1184
 3320 1047 55100000 		.4byte	0x1055
 3321 104b 1D       		.uleb128 0x1d
 3322 104c 01       		.uleb128 0x1
 3323 104d 50       		.byte	0x50
 3324 104e 05       		.uleb128 0x5
 3325 104f 03       		.byte	0x3
 3326 1050 FC010000 		.4byte	.LC28
 3327 1054 00       		.byte	0
 3328 1055 1E       		.uleb128 0x1e
 3329 1056 3C000000 		.4byte	.LVL91
 3330 105a 31120000 		.4byte	0x1231
 3331 105e 75100000 		.4byte	0x1075
 3332 1062 1D       		.uleb128 0x1d
 3333 1063 01       		.uleb128 0x1
 3334 1064 52       		.byte	0x52
 3335 1065 02       		.uleb128 0x2
 3336 1066 76       		.byte	0x76
 3337 1067 00       		.sleb128 0
 3338 1068 1D       		.uleb128 0x1d
 3339 1069 01       		.uleb128 0x1
 3340 106a 51       		.byte	0x51
 3341 106b 02       		.uleb128 0x2
 3342 106c 75       		.byte	0x75
 3343 106d 00       		.sleb128 0
 3344 106e 1D       		.uleb128 0x1d
 3345 106f 01       		.uleb128 0x1
 3346 1070 50       		.byte	0x50
 3347 1071 02       		.uleb128 0x2
 3348 1072 74       		.byte	0x74
 3349 1073 00       		.sleb128 0
 3350 1074 00       		.byte	0
 3351 1075 1E       		.uleb128 0x1e
 3352 1076 46000000 		.4byte	.LVL92
 3353 107a 84110000 		.4byte	0x1184
 3354 107e 8C100000 		.4byte	0x108c
 3355 1082 1D       		.uleb128 0x1d
ARM GAS  /tmp/cc3zL94g.s 			page 62


 3356 1083 01       		.uleb128 0x1
 3357 1084 50       		.byte	0x50
 3358 1085 05       		.uleb128 0x5
 3359 1086 03       		.byte	0x3
 3360 1087 64010000 		.4byte	.LC19
 3361 108b 00       		.byte	0
 3362 108c 1F       		.uleb128 0x1f
 3363 108d 52000000 		.4byte	.LVL93
 3364 1091 4D120000 		.4byte	0x124d
 3365 1095 1D       		.uleb128 0x1d
 3366 1096 01       		.uleb128 0x1
 3367 1097 50       		.byte	0x50
 3368 1098 01       		.uleb128 0x1
 3369 1099 32       		.byte	0x32
 3370 109a 00       		.byte	0
 3371 109b 00       		.byte	0
 3372 109c 22       		.uleb128 0x22
 3373 109d 0A030000 		.4byte	.LASF146
 3374 10a1 01       		.byte	0x1
 3375 10a2 9C01     		.2byte	0x19c
 3376 10a4 00000000 		.4byte	.LFB125
 3377 10a8 28000000 		.4byte	.LFE125-.LFB125
 3378 10ac 01       		.uleb128 0x1
 3379 10ad 9C       		.byte	0x9c
 3380 10ae 04110000 		.4byte	0x1104
 3381 10b2 23       		.uleb128 0x23
 3382 10b3 12070000 		.4byte	.LASF132
 3383 10b7 01       		.byte	0x1
 3384 10b8 9C01     		.2byte	0x19c
 3385 10ba BE080000 		.4byte	0x8be
 3386 10be 36050000 		.4byte	.LLST30
 3387 10c2 25       		.uleb128 0x25
 3388 10c3 12000000 		.4byte	.LVL98
 3389 10c7 5E120000 		.4byte	0x125e
 3390 10cb D9100000 		.4byte	0x10d9
 3391 10cf 1D       		.uleb128 0x1d
 3392 10d0 01       		.uleb128 0x1
 3393 10d1 50       		.byte	0x50
 3394 10d2 05       		.uleb128 0x5
 3395 10d3 F3       		.byte	0xf3
 3396 10d4 01       		.uleb128 0x1
 3397 10d5 50       		.byte	0x50
 3398 10d6 23       		.byte	0x23
 3399 10d7 0C       		.uleb128 0xc
 3400 10d8 00       		.byte	0
 3401 10d9 1E       		.uleb128 0x1e
 3402 10da 18000000 		.4byte	.LVL100
 3403 10de 84110000 		.4byte	0x1184
 3404 10e2 F0100000 		.4byte	0x10f0
 3405 10e6 1D       		.uleb128 0x1d
 3406 10e7 01       		.uleb128 0x1
 3407 10e8 50       		.byte	0x50
 3408 10e9 05       		.uleb128 0x5
 3409 10ea 03       		.byte	0x3
 3410 10eb 10020000 		.4byte	.LC29
 3411 10ef 00       		.byte	0
 3412 10f0 1C       		.uleb128 0x1c
ARM GAS  /tmp/cc3zL94g.s 			page 63


 3413 10f1 24000000 		.4byte	.LVL102
 3414 10f5 5E120000 		.4byte	0x125e
 3415 10f9 1D       		.uleb128 0x1d
 3416 10fa 01       		.uleb128 0x1
 3417 10fb 50       		.byte	0x50
 3418 10fc 05       		.uleb128 0x5
 3419 10fd F3       		.byte	0xf3
 3420 10fe 01       		.uleb128 0x1
 3421 10ff 50       		.byte	0x50
 3422 1100 23       		.byte	0x23
 3423 1101 0C       		.uleb128 0xc
 3424 1102 00       		.byte	0
 3425 1103 00       		.byte	0
 3426 1104 22       		.uleb128 0x22
 3427 1105 5C060000 		.4byte	.LASF147
 3428 1109 01       		.byte	0x1
 3429 110a B001     		.2byte	0x1b0
 3430 110c 00000000 		.4byte	.LFB126
 3431 1110 20000000 		.4byte	.LFE126-.LFB126
 3432 1114 01       		.uleb128 0x1
 3433 1115 9C       		.byte	0x9c
 3434 1116 54110000 		.4byte	0x1154
 3435 111a 23       		.uleb128 0x23
 3436 111b 12070000 		.4byte	.LASF132
 3437 111f 01       		.byte	0x1
 3438 1120 B001     		.2byte	0x1b0
 3439 1122 BE080000 		.4byte	0x8be
 3440 1126 A0050000 		.4byte	.LLST31
 3441 112a 1A       		.uleb128 0x1a
 3442 112b 0C000000 		.4byte	.LVL104
 3443 112f 6F120000 		.4byte	0x126f
 3444 1133 1E       		.uleb128 0x1e
 3445 1134 12000000 		.4byte	.LVL106
 3446 1138 84110000 		.4byte	0x1184
 3447 113c 4A110000 		.4byte	0x114a
 3448 1140 1D       		.uleb128 0x1d
 3449 1141 01       		.uleb128 0x1
 3450 1142 50       		.byte	0x50
 3451 1143 05       		.uleb128 0x5
 3452 1144 03       		.byte	0x3
 3453 1145 24020000 		.4byte	.LC30
 3454 1149 00       		.byte	0
 3455 114a 1A       		.uleb128 0x1a
 3456 114b 1A000000 		.4byte	.LVL107
 3457 114f 6F120000 		.4byte	0x126f
 3458 1153 00       		.byte	0
 3459 1154 26       		.uleb128 0x26
 3460 1155 D3010000 		.4byte	.LASF148
 3461 1159 09       		.byte	0x9
 3462 115a 6F       		.byte	0x6f
 3463 115b 90040000 		.4byte	0x490
 3464 115f 27       		.uleb128 0x27
 3465 1160 A7000000 		.4byte	.LASF149
 3466 1164 10       		.byte	0x10
 3467 1165 9806     		.2byte	0x698
 3468 1167 35050000 		.4byte	0x535
 3469 116b 28       		.uleb128 0x28
ARM GAS  /tmp/cc3zL94g.s 			page 64


 3470 116c F5000000 		.4byte	.LASF165
 3471 1170 0F       		.byte	0xf
 3472 1171 6102     		.2byte	0x261
 3473 1173 29       		.uleb128 0x29
 3474 1174 CB060000 		.4byte	.LASF150
 3475 1178 0A       		.byte	0xa
 3476 1179 38       		.byte	0x38
 3477 117a 84110000 		.4byte	0x1184
 3478 117e 18       		.uleb128 0x18
 3479 117f 2A050000 		.4byte	0x52a
 3480 1183 00       		.byte	0
 3481 1184 29       		.uleb128 0x29
 3482 1185 91010000 		.4byte	.LASF151
 3483 1189 11       		.byte	0x11
 3484 118a F6       		.byte	0xf6
 3485 118b 95110000 		.4byte	0x1195
 3486 118f 18       		.uleb128 0x18
 3487 1190 12050000 		.4byte	0x512
 3488 1194 00       		.byte	0
 3489 1195 2A       		.uleb128 0x2a
 3490 1196 FC060000 		.4byte	.LASF152
 3491 119a 0F       		.byte	0xf
 3492 119b 6202     		.2byte	0x262
 3493 119d A7110000 		.4byte	0x11a7
 3494 11a1 18       		.uleb128 0x18
 3495 11a2 BE080000 		.4byte	0x8be
 3496 11a6 00       		.byte	0
 3497 11a7 2A       		.uleb128 0x2a
 3498 11a8 0C020000 		.4byte	.LASF153
 3499 11ac 0F       		.byte	0xf
 3500 11ad 6502     		.2byte	0x265
 3501 11af B9110000 		.4byte	0x11b9
 3502 11b3 18       		.uleb128 0x18
 3503 11b4 BE080000 		.4byte	0x8be
 3504 11b8 00       		.byte	0
 3505 11b9 2A       		.uleb128 0x2a
 3506 11ba E8050000 		.4byte	.LASF154
 3507 11be 0F       		.byte	0xf
 3508 11bf 6302     		.2byte	0x263
 3509 11c1 CB110000 		.4byte	0x11cb
 3510 11c5 18       		.uleb128 0x18
 3511 11c6 BE080000 		.4byte	0x8be
 3512 11ca 00       		.byte	0
 3513 11cb 2A       		.uleb128 0x2a
 3514 11cc 92060000 		.4byte	.LASF155
 3515 11d0 0F       		.byte	0xf
 3516 11d1 6402     		.2byte	0x264
 3517 11d3 DD110000 		.4byte	0x11dd
 3518 11d7 18       		.uleb128 0x18
 3519 11d8 BE080000 		.4byte	0x8be
 3520 11dc 00       		.byte	0
 3521 11dd 2A       		.uleb128 0x2a
 3522 11de D5060000 		.4byte	.LASF156
 3523 11e2 0F       		.byte	0xf
 3524 11e3 6602     		.2byte	0x266
 3525 11e5 F4110000 		.4byte	0x11f4
 3526 11e9 18       		.uleb128 0x18
ARM GAS  /tmp/cc3zL94g.s 			page 65


 3527 11ea BE080000 		.4byte	0x8be
 3528 11ee 18       		.uleb128 0x18
 3529 11ef 2C000000 		.4byte	0x2c
 3530 11f3 00       		.byte	0
 3531 11f4 2A       		.uleb128 0x2a
 3532 11f5 F9020000 		.4byte	.LASF157
 3533 11f9 0F       		.byte	0xf
 3534 11fa 6702     		.2byte	0x267
 3535 11fc 15120000 		.4byte	0x1215
 3536 1200 18       		.uleb128 0x18
 3537 1201 BE080000 		.4byte	0x8be
 3538 1205 18       		.uleb128 0x18
 3539 1206 2C000000 		.4byte	0x2c
 3540 120a 18       		.uleb128 0x18
 3541 120b 3B0C0000 		.4byte	0xc3b
 3542 120f 18       		.uleb128 0x18
 3543 1210 B4020000 		.4byte	0x2b4
 3544 1214 00       		.byte	0
 3545 1215 2A       		.uleb128 0x2a
 3546 1216 E7010000 		.4byte	.LASF158
 3547 121a 0F       		.byte	0xf
 3548 121b 6902     		.2byte	0x269
 3549 121d 31120000 		.4byte	0x1231
 3550 1221 18       		.uleb128 0x18
 3551 1222 BE080000 		.4byte	0x8be
 3552 1226 18       		.uleb128 0x18
 3553 1227 2C000000 		.4byte	0x2c
 3554 122b 18       		.uleb128 0x18
 3555 122c 3B0C0000 		.4byte	0xc3b
 3556 1230 00       		.byte	0
 3557 1231 2A       		.uleb128 0x2a
 3558 1232 D4020000 		.4byte	.LASF159
 3559 1236 0F       		.byte	0xf
 3560 1237 6A02     		.2byte	0x26a
 3561 1239 4D120000 		.4byte	0x124d
 3562 123d 18       		.uleb128 0x18
 3563 123e BE080000 		.4byte	0x8be
 3564 1242 18       		.uleb128 0x18
 3565 1243 2C000000 		.4byte	0x2c
 3566 1247 18       		.uleb128 0x18
 3567 1248 B4020000 		.4byte	0x2b4
 3568 124c 00       		.byte	0
 3569 124d 29       		.uleb128 0x29
 3570 124e 98050000 		.4byte	.LASF160
 3571 1252 09       		.byte	0x9
 3572 1253 93       		.byte	0x93
 3573 1254 5E120000 		.4byte	0x125e
 3574 1258 18       		.uleb128 0x18
 3575 1259 F6000000 		.4byte	0xf6
 3576 125d 00       		.byte	0
 3577 125e 29       		.uleb128 0x29
 3578 125f 18030000 		.4byte	.LASF161
 3579 1263 0A       		.byte	0xa
 3580 1264 39       		.byte	0x39
 3581 1265 6F120000 		.4byte	0x126f
 3582 1269 18       		.uleb128 0x18
 3583 126a 2A050000 		.4byte	0x52a
ARM GAS  /tmp/cc3zL94g.s 			page 66


 3584 126e 00       		.byte	0
 3585 126f 2B       		.uleb128 0x2b
 3586 1270 C7000000 		.4byte	.LASF166
 3587 1274 0A       		.byte	0xa
 3588 1275 3D       		.byte	0x3d
 3589 1276 2A050000 		.4byte	0x52a
 3590 127a 00       		.byte	0
 3591              		.section	.debug_abbrev,"",%progbits
 3592              	.Ldebug_abbrev0:
 3593 0000 01       		.uleb128 0x1
 3594 0001 11       		.uleb128 0x11
 3595 0002 01       		.byte	0x1
 3596 0003 25       		.uleb128 0x25
 3597 0004 0E       		.uleb128 0xe
 3598 0005 13       		.uleb128 0x13
 3599 0006 0B       		.uleb128 0xb
 3600 0007 03       		.uleb128 0x3
 3601 0008 0E       		.uleb128 0xe
 3602 0009 1B       		.uleb128 0x1b
 3603 000a 0E       		.uleb128 0xe
 3604 000b 55       		.uleb128 0x55
 3605 000c 17       		.uleb128 0x17
 3606 000d 11       		.uleb128 0x11
 3607 000e 01       		.uleb128 0x1
 3608 000f 10       		.uleb128 0x10
 3609 0010 17       		.uleb128 0x17
 3610 0011 00       		.byte	0
 3611 0012 00       		.byte	0
 3612 0013 02       		.uleb128 0x2
 3613 0014 24       		.uleb128 0x24
 3614 0015 00       		.byte	0
 3615 0016 0B       		.uleb128 0xb
 3616 0017 0B       		.uleb128 0xb
 3617 0018 3E       		.uleb128 0x3e
 3618 0019 0B       		.uleb128 0xb
 3619 001a 03       		.uleb128 0x3
 3620 001b 08       		.uleb128 0x8
 3621 001c 00       		.byte	0
 3622 001d 00       		.byte	0
 3623 001e 03       		.uleb128 0x3
 3624 001f 16       		.uleb128 0x16
 3625 0020 00       		.byte	0
 3626 0021 03       		.uleb128 0x3
 3627 0022 0E       		.uleb128 0xe
 3628 0023 3A       		.uleb128 0x3a
 3629 0024 0B       		.uleb128 0xb
 3630 0025 3B       		.uleb128 0x3b
 3631 0026 0B       		.uleb128 0xb
 3632 0027 49       		.uleb128 0x49
 3633 0028 13       		.uleb128 0x13
 3634 0029 00       		.byte	0
 3635 002a 00       		.byte	0
 3636 002b 04       		.uleb128 0x4
 3637 002c 24       		.uleb128 0x24
 3638 002d 00       		.byte	0
 3639 002e 0B       		.uleb128 0xb
 3640 002f 0B       		.uleb128 0xb
ARM GAS  /tmp/cc3zL94g.s 			page 67


 3641 0030 3E       		.uleb128 0x3e
 3642 0031 0B       		.uleb128 0xb
 3643 0032 03       		.uleb128 0x3
 3644 0033 0E       		.uleb128 0xe
 3645 0034 00       		.byte	0
 3646 0035 00       		.byte	0
 3647 0036 05       		.uleb128 0x5
 3648 0037 13       		.uleb128 0x13
 3649 0038 01       		.byte	0x1
 3650 0039 03       		.uleb128 0x3
 3651 003a 0E       		.uleb128 0xe
 3652 003b 0B       		.uleb128 0xb
 3653 003c 0B       		.uleb128 0xb
 3654 003d 3A       		.uleb128 0x3a
 3655 003e 0B       		.uleb128 0xb
 3656 003f 3B       		.uleb128 0x3b
 3657 0040 0B       		.uleb128 0xb
 3658 0041 01       		.uleb128 0x1
 3659 0042 13       		.uleb128 0x13
 3660 0043 00       		.byte	0
 3661 0044 00       		.byte	0
 3662 0045 06       		.uleb128 0x6
 3663 0046 0D       		.uleb128 0xd
 3664 0047 00       		.byte	0
 3665 0048 03       		.uleb128 0x3
 3666 0049 0E       		.uleb128 0xe
 3667 004a 3A       		.uleb128 0x3a
 3668 004b 0B       		.uleb128 0xb
 3669 004c 3B       		.uleb128 0x3b
 3670 004d 0B       		.uleb128 0xb
 3671 004e 49       		.uleb128 0x49
 3672 004f 13       		.uleb128 0x13
 3673 0050 38       		.uleb128 0x38
 3674 0051 0B       		.uleb128 0xb
 3675 0052 00       		.byte	0
 3676 0053 00       		.byte	0
 3677 0054 07       		.uleb128 0x7
 3678 0055 0D       		.uleb128 0xd
 3679 0056 00       		.byte	0
 3680 0057 03       		.uleb128 0x3
 3681 0058 08       		.uleb128 0x8
 3682 0059 3A       		.uleb128 0x3a
 3683 005a 0B       		.uleb128 0xb
 3684 005b 3B       		.uleb128 0x3b
 3685 005c 0B       		.uleb128 0xb
 3686 005d 49       		.uleb128 0x49
 3687 005e 13       		.uleb128 0x13
 3688 005f 38       		.uleb128 0x38
 3689 0060 0B       		.uleb128 0xb
 3690 0061 00       		.byte	0
 3691 0062 00       		.byte	0
 3692 0063 08       		.uleb128 0x8
 3693 0064 13       		.uleb128 0x13
 3694 0065 01       		.byte	0x1
 3695 0066 0B       		.uleb128 0xb
 3696 0067 0B       		.uleb128 0xb
 3697 0068 3A       		.uleb128 0x3a
ARM GAS  /tmp/cc3zL94g.s 			page 68


 3698 0069 0B       		.uleb128 0xb
 3699 006a 3B       		.uleb128 0x3b
 3700 006b 0B       		.uleb128 0xb
 3701 006c 01       		.uleb128 0x1
 3702 006d 13       		.uleb128 0x13
 3703 006e 00       		.byte	0
 3704 006f 00       		.byte	0
 3705 0070 09       		.uleb128 0x9
 3706 0071 0F       		.uleb128 0xf
 3707 0072 00       		.byte	0
 3708 0073 0B       		.uleb128 0xb
 3709 0074 0B       		.uleb128 0xb
 3710 0075 49       		.uleb128 0x49
 3711 0076 13       		.uleb128 0x13
 3712 0077 00       		.byte	0
 3713 0078 00       		.byte	0
 3714 0079 0A       		.uleb128 0xa
 3715 007a 0F       		.uleb128 0xf
 3716 007b 00       		.byte	0
 3717 007c 0B       		.uleb128 0xb
 3718 007d 0B       		.uleb128 0xb
 3719 007e 00       		.byte	0
 3720 007f 00       		.byte	0
 3721 0080 0B       		.uleb128 0xb
 3722 0081 13       		.uleb128 0x13
 3723 0082 01       		.byte	0x1
 3724 0083 03       		.uleb128 0x3
 3725 0084 0E       		.uleb128 0xe
 3726 0085 0B       		.uleb128 0xb
 3727 0086 0B       		.uleb128 0xb
 3728 0087 3A       		.uleb128 0x3a
 3729 0088 0B       		.uleb128 0xb
 3730 0089 3B       		.uleb128 0x3b
 3731 008a 05       		.uleb128 0x5
 3732 008b 01       		.uleb128 0x1
 3733 008c 13       		.uleb128 0x13
 3734 008d 00       		.byte	0
 3735 008e 00       		.byte	0
 3736 008f 0C       		.uleb128 0xc
 3737 0090 0D       		.uleb128 0xd
 3738 0091 00       		.byte	0
 3739 0092 03       		.uleb128 0x3
 3740 0093 08       		.uleb128 0x8
 3741 0094 3A       		.uleb128 0x3a
 3742 0095 0B       		.uleb128 0xb
 3743 0096 3B       		.uleb128 0x3b
 3744 0097 05       		.uleb128 0x5
 3745 0098 49       		.uleb128 0x49
 3746 0099 13       		.uleb128 0x13
 3747 009a 38       		.uleb128 0x38
 3748 009b 0B       		.uleb128 0xb
 3749 009c 00       		.byte	0
 3750 009d 00       		.byte	0
 3751 009e 0D       		.uleb128 0xd
 3752 009f 35       		.uleb128 0x35
 3753 00a0 00       		.byte	0
 3754 00a1 49       		.uleb128 0x49
ARM GAS  /tmp/cc3zL94g.s 			page 69


 3755 00a2 13       		.uleb128 0x13
 3756 00a3 00       		.byte	0
 3757 00a4 00       		.byte	0
 3758 00a5 0E       		.uleb128 0xe
 3759 00a6 17       		.uleb128 0x17
 3760 00a7 01       		.byte	0x1
 3761 00a8 0B       		.uleb128 0xb
 3762 00a9 0B       		.uleb128 0xb
 3763 00aa 3A       		.uleb128 0x3a
 3764 00ab 0B       		.uleb128 0xb
 3765 00ac 3B       		.uleb128 0x3b
 3766 00ad 0B       		.uleb128 0xb
 3767 00ae 01       		.uleb128 0x1
 3768 00af 13       		.uleb128 0x13
 3769 00b0 00       		.byte	0
 3770 00b1 00       		.byte	0
 3771 00b2 0F       		.uleb128 0xf
 3772 00b3 0D       		.uleb128 0xd
 3773 00b4 00       		.byte	0
 3774 00b5 03       		.uleb128 0x3
 3775 00b6 0E       		.uleb128 0xe
 3776 00b7 3A       		.uleb128 0x3a
 3777 00b8 0B       		.uleb128 0xb
 3778 00b9 3B       		.uleb128 0x3b
 3779 00ba 0B       		.uleb128 0xb
 3780 00bb 49       		.uleb128 0x49
 3781 00bc 13       		.uleb128 0x13
 3782 00bd 00       		.byte	0
 3783 00be 00       		.byte	0
 3784 00bf 10       		.uleb128 0x10
 3785 00c0 26       		.uleb128 0x26
 3786 00c1 00       		.byte	0
 3787 00c2 49       		.uleb128 0x49
 3788 00c3 13       		.uleb128 0x13
 3789 00c4 00       		.byte	0
 3790 00c5 00       		.byte	0
 3791 00c6 11       		.uleb128 0x11
 3792 00c7 13       		.uleb128 0x13
 3793 00c8 01       		.byte	0x1
 3794 00c9 0B       		.uleb128 0xb
 3795 00ca 0B       		.uleb128 0xb
 3796 00cb 3A       		.uleb128 0x3a
 3797 00cc 0B       		.uleb128 0xb
 3798 00cd 3B       		.uleb128 0x3b
 3799 00ce 05       		.uleb128 0x5
 3800 00cf 01       		.uleb128 0x1
 3801 00d0 13       		.uleb128 0x13
 3802 00d1 00       		.byte	0
 3803 00d2 00       		.byte	0
 3804 00d3 12       		.uleb128 0x12
 3805 00d4 0D       		.uleb128 0xd
 3806 00d5 00       		.byte	0
 3807 00d6 03       		.uleb128 0x3
 3808 00d7 0E       		.uleb128 0xe
 3809 00d8 3A       		.uleb128 0x3a
 3810 00d9 0B       		.uleb128 0xb
 3811 00da 3B       		.uleb128 0x3b
ARM GAS  /tmp/cc3zL94g.s 			page 70


 3812 00db 05       		.uleb128 0x5
 3813 00dc 49       		.uleb128 0x49
 3814 00dd 13       		.uleb128 0x13
 3815 00de 38       		.uleb128 0x38
 3816 00df 0B       		.uleb128 0xb
 3817 00e0 00       		.byte	0
 3818 00e1 00       		.byte	0
 3819 00e2 13       		.uleb128 0x13
 3820 00e3 16       		.uleb128 0x16
 3821 00e4 00       		.byte	0
 3822 00e5 03       		.uleb128 0x3
 3823 00e6 0E       		.uleb128 0xe
 3824 00e7 3A       		.uleb128 0x3a
 3825 00e8 0B       		.uleb128 0xb
 3826 00e9 3B       		.uleb128 0x3b
 3827 00ea 05       		.uleb128 0x5
 3828 00eb 49       		.uleb128 0x49
 3829 00ec 13       		.uleb128 0x13
 3830 00ed 00       		.byte	0
 3831 00ee 00       		.byte	0
 3832 00ef 14       		.uleb128 0x14
 3833 00f0 0D       		.uleb128 0xd
 3834 00f1 00       		.byte	0
 3835 00f2 03       		.uleb128 0x3
 3836 00f3 08       		.uleb128 0x8
 3837 00f4 3A       		.uleb128 0x3a
 3838 00f5 0B       		.uleb128 0xb
 3839 00f6 3B       		.uleb128 0x3b
 3840 00f7 0B       		.uleb128 0xb
 3841 00f8 49       		.uleb128 0x49
 3842 00f9 13       		.uleb128 0x13
 3843 00fa 00       		.byte	0
 3844 00fb 00       		.byte	0
 3845 00fc 15       		.uleb128 0x15
 3846 00fd 04       		.uleb128 0x4
 3847 00fe 01       		.byte	0x1
 3848 00ff 0B       		.uleb128 0xb
 3849 0100 0B       		.uleb128 0xb
 3850 0101 3A       		.uleb128 0x3a
 3851 0102 0B       		.uleb128 0xb
 3852 0103 3B       		.uleb128 0x3b
 3853 0104 0B       		.uleb128 0xb
 3854 0105 01       		.uleb128 0x1
 3855 0106 13       		.uleb128 0x13
 3856 0107 00       		.byte	0
 3857 0108 00       		.byte	0
 3858 0109 16       		.uleb128 0x16
 3859 010a 28       		.uleb128 0x28
 3860 010b 00       		.byte	0
 3861 010c 03       		.uleb128 0x3
 3862 010d 0E       		.uleb128 0xe
 3863 010e 1C       		.uleb128 0x1c
 3864 010f 0D       		.uleb128 0xd
 3865 0110 00       		.byte	0
 3866 0111 00       		.byte	0
 3867 0112 17       		.uleb128 0x17
 3868 0113 15       		.uleb128 0x15
ARM GAS  /tmp/cc3zL94g.s 			page 71


 3869 0114 01       		.byte	0x1
 3870 0115 27       		.uleb128 0x27
 3871 0116 19       		.uleb128 0x19
 3872 0117 01       		.uleb128 0x1
 3873 0118 13       		.uleb128 0x13
 3874 0119 00       		.byte	0
 3875 011a 00       		.byte	0
 3876 011b 18       		.uleb128 0x18
 3877 011c 05       		.uleb128 0x5
 3878 011d 00       		.byte	0
 3879 011e 49       		.uleb128 0x49
 3880 011f 13       		.uleb128 0x13
 3881 0120 00       		.byte	0
 3882 0121 00       		.byte	0
 3883 0122 19       		.uleb128 0x19
 3884 0123 2E       		.uleb128 0x2e
 3885 0124 01       		.byte	0x1
 3886 0125 3F       		.uleb128 0x3f
 3887 0126 19       		.uleb128 0x19
 3888 0127 03       		.uleb128 0x3
 3889 0128 0E       		.uleb128 0xe
 3890 0129 3A       		.uleb128 0x3a
 3891 012a 0B       		.uleb128 0xb
 3892 012b 3B       		.uleb128 0x3b
 3893 012c 0B       		.uleb128 0xb
 3894 012d 27       		.uleb128 0x27
 3895 012e 19       		.uleb128 0x19
 3896 012f 11       		.uleb128 0x11
 3897 0130 01       		.uleb128 0x1
 3898 0131 12       		.uleb128 0x12
 3899 0132 06       		.uleb128 0x6
 3900 0133 40       		.uleb128 0x40
 3901 0134 18       		.uleb128 0x18
 3902 0135 9742     		.uleb128 0x2117
 3903 0137 19       		.uleb128 0x19
 3904 0138 01       		.uleb128 0x1
 3905 0139 13       		.uleb128 0x13
 3906 013a 00       		.byte	0
 3907 013b 00       		.byte	0
 3908 013c 1A       		.uleb128 0x1a
 3909 013d 898201   		.uleb128 0x4109
 3910 0140 00       		.byte	0
 3911 0141 11       		.uleb128 0x11
 3912 0142 01       		.uleb128 0x1
 3913 0143 9542     		.uleb128 0x2115
 3914 0145 19       		.uleb128 0x19
 3915 0146 31       		.uleb128 0x31
 3916 0147 13       		.uleb128 0x13
 3917 0148 00       		.byte	0
 3918 0149 00       		.byte	0
 3919 014a 1B       		.uleb128 0x1b
 3920 014b 05       		.uleb128 0x5
 3921 014c 00       		.byte	0
 3922 014d 03       		.uleb128 0x3
 3923 014e 0E       		.uleb128 0xe
 3924 014f 3A       		.uleb128 0x3a
 3925 0150 0B       		.uleb128 0xb
ARM GAS  /tmp/cc3zL94g.s 			page 72


 3926 0151 3B       		.uleb128 0x3b
 3927 0152 0B       		.uleb128 0xb
 3928 0153 49       		.uleb128 0x49
 3929 0154 13       		.uleb128 0x13
 3930 0155 02       		.uleb128 0x2
 3931 0156 17       		.uleb128 0x17
 3932 0157 00       		.byte	0
 3933 0158 00       		.byte	0
 3934 0159 1C       		.uleb128 0x1c
 3935 015a 898201   		.uleb128 0x4109
 3936 015d 01       		.byte	0x1
 3937 015e 11       		.uleb128 0x11
 3938 015f 01       		.uleb128 0x1
 3939 0160 9542     		.uleb128 0x2115
 3940 0162 19       		.uleb128 0x19
 3941 0163 31       		.uleb128 0x31
 3942 0164 13       		.uleb128 0x13
 3943 0165 00       		.byte	0
 3944 0166 00       		.byte	0
 3945 0167 1D       		.uleb128 0x1d
 3946 0168 8A8201   		.uleb128 0x410a
 3947 016b 00       		.byte	0
 3948 016c 02       		.uleb128 0x2
 3949 016d 18       		.uleb128 0x18
 3950 016e 9142     		.uleb128 0x2111
 3951 0170 18       		.uleb128 0x18
 3952 0171 00       		.byte	0
 3953 0172 00       		.byte	0
 3954 0173 1E       		.uleb128 0x1e
 3955 0174 898201   		.uleb128 0x4109
 3956 0177 01       		.byte	0x1
 3957 0178 11       		.uleb128 0x11
 3958 0179 01       		.uleb128 0x1
 3959 017a 31       		.uleb128 0x31
 3960 017b 13       		.uleb128 0x13
 3961 017c 01       		.uleb128 0x1
 3962 017d 13       		.uleb128 0x13
 3963 017e 00       		.byte	0
 3964 017f 00       		.byte	0
 3965 0180 1F       		.uleb128 0x1f
 3966 0181 898201   		.uleb128 0x4109
 3967 0184 01       		.byte	0x1
 3968 0185 11       		.uleb128 0x11
 3969 0186 01       		.uleb128 0x1
 3970 0187 31       		.uleb128 0x31
 3971 0188 13       		.uleb128 0x13
 3972 0189 00       		.byte	0
 3973 018a 00       		.byte	0
 3974 018b 20       		.uleb128 0x20
 3975 018c 05       		.uleb128 0x5
 3976 018d 00       		.byte	0
 3977 018e 03       		.uleb128 0x3
 3978 018f 08       		.uleb128 0x8
 3979 0190 3A       		.uleb128 0x3a
 3980 0191 0B       		.uleb128 0xb
 3981 0192 3B       		.uleb128 0x3b
 3982 0193 0B       		.uleb128 0xb
ARM GAS  /tmp/cc3zL94g.s 			page 73


 3983 0194 49       		.uleb128 0x49
 3984 0195 13       		.uleb128 0x13
 3985 0196 02       		.uleb128 0x2
 3986 0197 17       		.uleb128 0x17
 3987 0198 00       		.byte	0
 3988 0199 00       		.byte	0
 3989 019a 21       		.uleb128 0x21
 3990 019b 26       		.uleb128 0x26
 3991 019c 00       		.byte	0
 3992 019d 00       		.byte	0
 3993 019e 00       		.byte	0
 3994 019f 22       		.uleb128 0x22
 3995 01a0 2E       		.uleb128 0x2e
 3996 01a1 01       		.byte	0x1
 3997 01a2 3F       		.uleb128 0x3f
 3998 01a3 19       		.uleb128 0x19
 3999 01a4 03       		.uleb128 0x3
 4000 01a5 0E       		.uleb128 0xe
 4001 01a6 3A       		.uleb128 0x3a
 4002 01a7 0B       		.uleb128 0xb
 4003 01a8 3B       		.uleb128 0x3b
 4004 01a9 05       		.uleb128 0x5
 4005 01aa 27       		.uleb128 0x27
 4006 01ab 19       		.uleb128 0x19
 4007 01ac 11       		.uleb128 0x11
 4008 01ad 01       		.uleb128 0x1
 4009 01ae 12       		.uleb128 0x12
 4010 01af 06       		.uleb128 0x6
 4011 01b0 40       		.uleb128 0x40
 4012 01b1 18       		.uleb128 0x18
 4013 01b2 9742     		.uleb128 0x2117
 4014 01b4 19       		.uleb128 0x19
 4015 01b5 01       		.uleb128 0x1
 4016 01b6 13       		.uleb128 0x13
 4017 01b7 00       		.byte	0
 4018 01b8 00       		.byte	0
 4019 01b9 23       		.uleb128 0x23
 4020 01ba 05       		.uleb128 0x5
 4021 01bb 00       		.byte	0
 4022 01bc 03       		.uleb128 0x3
 4023 01bd 0E       		.uleb128 0xe
 4024 01be 3A       		.uleb128 0x3a
 4025 01bf 0B       		.uleb128 0xb
 4026 01c0 3B       		.uleb128 0x3b
 4027 01c1 05       		.uleb128 0x5
 4028 01c2 49       		.uleb128 0x49
 4029 01c3 13       		.uleb128 0x13
 4030 01c4 02       		.uleb128 0x2
 4031 01c5 17       		.uleb128 0x17
 4032 01c6 00       		.byte	0
 4033 01c7 00       		.byte	0
 4034 01c8 24       		.uleb128 0x24
 4035 01c9 05       		.uleb128 0x5
 4036 01ca 00       		.byte	0
 4037 01cb 03       		.uleb128 0x3
 4038 01cc 08       		.uleb128 0x8
 4039 01cd 3A       		.uleb128 0x3a
ARM GAS  /tmp/cc3zL94g.s 			page 74


 4040 01ce 0B       		.uleb128 0xb
 4041 01cf 3B       		.uleb128 0x3b
 4042 01d0 05       		.uleb128 0x5
 4043 01d1 49       		.uleb128 0x49
 4044 01d2 13       		.uleb128 0x13
 4045 01d3 02       		.uleb128 0x2
 4046 01d4 17       		.uleb128 0x17
 4047 01d5 00       		.byte	0
 4048 01d6 00       		.byte	0
 4049 01d7 25       		.uleb128 0x25
 4050 01d8 898201   		.uleb128 0x4109
 4051 01db 01       		.byte	0x1
 4052 01dc 11       		.uleb128 0x11
 4053 01dd 01       		.uleb128 0x1
 4054 01de 9542     		.uleb128 0x2115
 4055 01e0 19       		.uleb128 0x19
 4056 01e1 31       		.uleb128 0x31
 4057 01e2 13       		.uleb128 0x13
 4058 01e3 01       		.uleb128 0x1
 4059 01e4 13       		.uleb128 0x13
 4060 01e5 00       		.byte	0
 4061 01e6 00       		.byte	0
 4062 01e7 26       		.uleb128 0x26
 4063 01e8 34       		.uleb128 0x34
 4064 01e9 00       		.byte	0
 4065 01ea 03       		.uleb128 0x3
 4066 01eb 0E       		.uleb128 0xe
 4067 01ec 3A       		.uleb128 0x3a
 4068 01ed 0B       		.uleb128 0xb
 4069 01ee 3B       		.uleb128 0x3b
 4070 01ef 0B       		.uleb128 0xb
 4071 01f0 49       		.uleb128 0x49
 4072 01f1 13       		.uleb128 0x13
 4073 01f2 3F       		.uleb128 0x3f
 4074 01f3 19       		.uleb128 0x19
 4075 01f4 3C       		.uleb128 0x3c
 4076 01f5 19       		.uleb128 0x19
 4077 01f6 00       		.byte	0
 4078 01f7 00       		.byte	0
 4079 01f8 27       		.uleb128 0x27
 4080 01f9 34       		.uleb128 0x34
 4081 01fa 00       		.byte	0
 4082 01fb 03       		.uleb128 0x3
 4083 01fc 0E       		.uleb128 0xe
 4084 01fd 3A       		.uleb128 0x3a
 4085 01fe 0B       		.uleb128 0xb
 4086 01ff 3B       		.uleb128 0x3b
 4087 0200 05       		.uleb128 0x5
 4088 0201 49       		.uleb128 0x49
 4089 0202 13       		.uleb128 0x13
 4090 0203 3F       		.uleb128 0x3f
 4091 0204 19       		.uleb128 0x19
 4092 0205 3C       		.uleb128 0x3c
 4093 0206 19       		.uleb128 0x19
 4094 0207 00       		.byte	0
 4095 0208 00       		.byte	0
 4096 0209 28       		.uleb128 0x28
ARM GAS  /tmp/cc3zL94g.s 			page 75


 4097 020a 2E       		.uleb128 0x2e
 4098 020b 00       		.byte	0
 4099 020c 3F       		.uleb128 0x3f
 4100 020d 19       		.uleb128 0x19
 4101 020e 03       		.uleb128 0x3
 4102 020f 0E       		.uleb128 0xe
 4103 0210 3A       		.uleb128 0x3a
 4104 0211 0B       		.uleb128 0xb
 4105 0212 3B       		.uleb128 0x3b
 4106 0213 05       		.uleb128 0x5
 4107 0214 27       		.uleb128 0x27
 4108 0215 19       		.uleb128 0x19
 4109 0216 3C       		.uleb128 0x3c
 4110 0217 19       		.uleb128 0x19
 4111 0218 00       		.byte	0
 4112 0219 00       		.byte	0
 4113 021a 29       		.uleb128 0x29
 4114 021b 2E       		.uleb128 0x2e
 4115 021c 01       		.byte	0x1
 4116 021d 3F       		.uleb128 0x3f
 4117 021e 19       		.uleb128 0x19
 4118 021f 03       		.uleb128 0x3
 4119 0220 0E       		.uleb128 0xe
 4120 0221 3A       		.uleb128 0x3a
 4121 0222 0B       		.uleb128 0xb
 4122 0223 3B       		.uleb128 0x3b
 4123 0224 0B       		.uleb128 0xb
 4124 0225 27       		.uleb128 0x27
 4125 0226 19       		.uleb128 0x19
 4126 0227 3C       		.uleb128 0x3c
 4127 0228 19       		.uleb128 0x19
 4128 0229 01       		.uleb128 0x1
 4129 022a 13       		.uleb128 0x13
 4130 022b 00       		.byte	0
 4131 022c 00       		.byte	0
 4132 022d 2A       		.uleb128 0x2a
 4133 022e 2E       		.uleb128 0x2e
 4134 022f 01       		.byte	0x1
 4135 0230 3F       		.uleb128 0x3f
 4136 0231 19       		.uleb128 0x19
 4137 0232 03       		.uleb128 0x3
 4138 0233 0E       		.uleb128 0xe
 4139 0234 3A       		.uleb128 0x3a
 4140 0235 0B       		.uleb128 0xb
 4141 0236 3B       		.uleb128 0x3b
 4142 0237 05       		.uleb128 0x5
 4143 0238 27       		.uleb128 0x27
 4144 0239 19       		.uleb128 0x19
 4145 023a 3C       		.uleb128 0x3c
 4146 023b 19       		.uleb128 0x19
 4147 023c 01       		.uleb128 0x1
 4148 023d 13       		.uleb128 0x13
 4149 023e 00       		.byte	0
 4150 023f 00       		.byte	0
 4151 0240 2B       		.uleb128 0x2b
 4152 0241 2E       		.uleb128 0x2e
 4153 0242 00       		.byte	0
ARM GAS  /tmp/cc3zL94g.s 			page 76


 4154 0243 3F       		.uleb128 0x3f
 4155 0244 19       		.uleb128 0x19
 4156 0245 03       		.uleb128 0x3
 4157 0246 0E       		.uleb128 0xe
 4158 0247 3A       		.uleb128 0x3a
 4159 0248 0B       		.uleb128 0xb
 4160 0249 3B       		.uleb128 0x3b
 4161 024a 0B       		.uleb128 0xb
 4162 024b 27       		.uleb128 0x27
 4163 024c 19       		.uleb128 0x19
 4164 024d 49       		.uleb128 0x49
 4165 024e 13       		.uleb128 0x13
 4166 024f 3C       		.uleb128 0x3c
 4167 0250 19       		.uleb128 0x19
 4168 0251 00       		.byte	0
 4169 0252 00       		.byte	0
 4170 0253 00       		.byte	0
 4171              		.section	.debug_loc,"",%progbits
 4172              	.Ldebug_loc0:
 4173              	.LLST0:
 4174 0000 00000000 		.4byte	.LVL1
 4175 0004 0C000000 		.4byte	.LVL2
 4176 0008 0100     		.2byte	0x1
 4177 000a 50       		.byte	0x50
 4178 000b 0C000000 		.4byte	.LVL2
 4179 000f 0F000000 		.4byte	.LVL3-1
 4180 0013 0300     		.2byte	0x3
 4181 0015 70       		.byte	0x70
 4182 0016 74       		.sleb128 -12
 4183 0017 9F       		.byte	0x9f
 4184 0018 0F000000 		.4byte	.LVL3-1
 4185 001c 10000000 		.4byte	.LFE112
 4186 0020 0400     		.2byte	0x4
 4187 0022 F3       		.byte	0xf3
 4188 0023 01       		.uleb128 0x1
 4189 0024 50       		.byte	0x50
 4190 0025 9F       		.byte	0x9f
 4191 0026 00000000 		.4byte	0
 4192 002a 00000000 		.4byte	0
 4193              	.LLST1:
 4194 002e 00000000 		.4byte	.LVL4
 4195 0032 0A000000 		.4byte	.LVL5
 4196 0036 0100     		.2byte	0x1
 4197 0038 50       		.byte	0x50
 4198 0039 0A000000 		.4byte	.LVL5
 4199 003d 2E000000 		.4byte	.LVL8
 4200 0041 0100     		.2byte	0x1
 4201 0043 54       		.byte	0x54
 4202 0044 2E000000 		.4byte	.LVL8
 4203 0048 30000000 		.4byte	.LVL9
 4204 004c 0100     		.2byte	0x1
 4205 004e 50       		.byte	0x50
 4206 004f 30000000 		.4byte	.LVL9
 4207 0053 40000000 		.4byte	.LFE113
 4208 0057 0100     		.2byte	0x1
 4209 0059 54       		.byte	0x54
 4210 005a 00000000 		.4byte	0
ARM GAS  /tmp/cc3zL94g.s 			page 77


 4211 005e 00000000 		.4byte	0
 4212              	.LLST2:
 4213 0062 00000000 		.4byte	.LVL4
 4214 0066 0A000000 		.4byte	.LVL5
 4215 006a 0100     		.2byte	0x1
 4216 006c 51       		.byte	0x51
 4217 006d 0A000000 		.4byte	.LVL5
 4218 0071 2E000000 		.4byte	.LVL8
 4219 0075 0100     		.2byte	0x1
 4220 0077 55       		.byte	0x55
 4221 0078 2E000000 		.4byte	.LVL8
 4222 007c 33000000 		.4byte	.LVL10-1
 4223 0080 0100     		.2byte	0x1
 4224 0082 51       		.byte	0x51
 4225 0083 33000000 		.4byte	.LVL10-1
 4226 0087 40000000 		.4byte	.LFE113
 4227 008b 0100     		.2byte	0x1
 4228 008d 55       		.byte	0x55
 4229 008e 00000000 		.4byte	0
 4230 0092 00000000 		.4byte	0
 4231              	.LLST3:
 4232 0096 00000000 		.4byte	.LVL11
 4233 009a 06000000 		.4byte	.LVL12
 4234 009e 0100     		.2byte	0x1
 4235 00a0 50       		.byte	0x50
 4236 00a1 06000000 		.4byte	.LVL12
 4237 00a5 2E000000 		.4byte	.LVL16
 4238 00a9 0100     		.2byte	0x1
 4239 00ab 54       		.byte	0x54
 4240 00ac 2E000000 		.4byte	.LVL16
 4241 00b0 30000000 		.4byte	.LVL17
 4242 00b4 0100     		.2byte	0x1
 4243 00b6 50       		.byte	0x50
 4244 00b7 30000000 		.4byte	.LVL17
 4245 00bb 40000000 		.4byte	.LFE114
 4246 00bf 0100     		.2byte	0x1
 4247 00c1 54       		.byte	0x54
 4248 00c2 00000000 		.4byte	0
 4249 00c6 00000000 		.4byte	0
 4250              	.LLST4:
 4251 00ca 00000000 		.4byte	.LVL19
 4252 00ce 06000000 		.4byte	.LVL20
 4253 00d2 0100     		.2byte	0x1
 4254 00d4 50       		.byte	0x50
 4255 00d5 06000000 		.4byte	.LVL20
 4256 00d9 22000000 		.4byte	.LVL23
 4257 00dd 0100     		.2byte	0x1
 4258 00df 54       		.byte	0x54
 4259 00e0 22000000 		.4byte	.LVL23
 4260 00e4 24000000 		.4byte	.LVL24
 4261 00e8 0100     		.2byte	0x1
 4262 00ea 50       		.byte	0x50
 4263 00eb 24000000 		.4byte	.LVL24
 4264 00ef 34000000 		.4byte	.LFE115
 4265 00f3 0100     		.2byte	0x1
 4266 00f5 54       		.byte	0x54
 4267 00f6 00000000 		.4byte	0
ARM GAS  /tmp/cc3zL94g.s 			page 78


 4268 00fa 00000000 		.4byte	0
 4269              	.LLST5:
 4270 00fe 00000000 		.4byte	.LVL26
 4271 0102 06000000 		.4byte	.LVL27
 4272 0106 0100     		.2byte	0x1
 4273 0108 50       		.byte	0x50
 4274 0109 06000000 		.4byte	.LVL27
 4275 010d 22000000 		.4byte	.LVL30
 4276 0111 0100     		.2byte	0x1
 4277 0113 54       		.byte	0x54
 4278 0114 22000000 		.4byte	.LVL30
 4279 0118 24000000 		.4byte	.LVL31
 4280 011c 0100     		.2byte	0x1
 4281 011e 50       		.byte	0x50
 4282 011f 24000000 		.4byte	.LVL31
 4283 0123 34000000 		.4byte	.LFE116
 4284 0127 0100     		.2byte	0x1
 4285 0129 54       		.byte	0x54
 4286 012a 00000000 		.4byte	0
 4287 012e 00000000 		.4byte	0
 4288              	.LLST6:
 4289 0132 00000000 		.4byte	.LVL33
 4290 0136 0A000000 		.4byte	.LVL34
 4291 013a 0100     		.2byte	0x1
 4292 013c 50       		.byte	0x50
 4293 013d 0A000000 		.4byte	.LVL34
 4294 0141 2C000000 		.4byte	.LVL37
 4295 0145 0100     		.2byte	0x1
 4296 0147 54       		.byte	0x54
 4297 0148 2C000000 		.4byte	.LVL37
 4298 014c 2E000000 		.4byte	.LVL38
 4299 0150 0100     		.2byte	0x1
 4300 0152 50       		.byte	0x50
 4301 0153 2E000000 		.4byte	.LVL38
 4302 0157 3C000000 		.4byte	.LFE117
 4303 015b 0100     		.2byte	0x1
 4304 015d 54       		.byte	0x54
 4305 015e 00000000 		.4byte	0
 4306 0162 00000000 		.4byte	0
 4307              	.LLST7:
 4308 0166 00000000 		.4byte	.LVL33
 4309 016a 0A000000 		.4byte	.LVL34
 4310 016e 0100     		.2byte	0x1
 4311 0170 51       		.byte	0x51
 4312 0171 0A000000 		.4byte	.LVL34
 4313 0175 2C000000 		.4byte	.LVL37
 4314 0179 0100     		.2byte	0x1
 4315 017b 55       		.byte	0x55
 4316 017c 2C000000 		.4byte	.LVL37
 4317 0180 31000000 		.4byte	.LVL39-1
 4318 0184 0100     		.2byte	0x1
 4319 0186 51       		.byte	0x51
 4320 0187 31000000 		.4byte	.LVL39-1
 4321 018b 3C000000 		.4byte	.LFE117
 4322 018f 0100     		.2byte	0x1
 4323 0191 55       		.byte	0x55
 4324 0192 00000000 		.4byte	0
ARM GAS  /tmp/cc3zL94g.s 			page 79


 4325 0196 00000000 		.4byte	0
 4326              	.LLST8:
 4327 019a 00000000 		.4byte	.LVL40
 4328 019e 10000000 		.4byte	.LVL41
 4329 01a2 0100     		.2byte	0x1
 4330 01a4 50       		.byte	0x50
 4331 01a5 10000000 		.4byte	.LVL41
 4332 01a9 3A000000 		.4byte	.LVL45
 4333 01ad 0100     		.2byte	0x1
 4334 01af 54       		.byte	0x54
 4335 01b0 3A000000 		.4byte	.LVL45
 4336 01b4 4C000000 		.4byte	.LFE118
 4337 01b8 0100     		.2byte	0x1
 4338 01ba 50       		.byte	0x50
 4339 01bb 00000000 		.4byte	0
 4340 01bf 00000000 		.4byte	0
 4341              	.LLST9:
 4342 01c3 00000000 		.4byte	.LVL40
 4343 01c7 13000000 		.4byte	.LVL42-1
 4344 01cb 0100     		.2byte	0x1
 4345 01cd 51       		.byte	0x51
 4346 01ce 13000000 		.4byte	.LVL42-1
 4347 01d2 3A000000 		.4byte	.LVL45
 4348 01d6 0100     		.2byte	0x1
 4349 01d8 55       		.byte	0x55
 4350 01d9 3A000000 		.4byte	.LVL45
 4351 01dd 4C000000 		.4byte	.LFE118
 4352 01e1 0100     		.2byte	0x1
 4353 01e3 51       		.byte	0x51
 4354 01e4 00000000 		.4byte	0
 4355 01e8 00000000 		.4byte	0
 4356              	.LLST10:
 4357 01ec 00000000 		.4byte	.LVL40
 4358 01f0 13000000 		.4byte	.LVL42-1
 4359 01f4 0100     		.2byte	0x1
 4360 01f6 52       		.byte	0x52
 4361 01f7 13000000 		.4byte	.LVL42-1
 4362 01fb 3A000000 		.4byte	.LVL45
 4363 01ff 0100     		.2byte	0x1
 4364 0201 57       		.byte	0x57
 4365 0202 3A000000 		.4byte	.LVL45
 4366 0206 4C000000 		.4byte	.LFE118
 4367 020a 0100     		.2byte	0x1
 4368 020c 52       		.byte	0x52
 4369 020d 00000000 		.4byte	0
 4370 0211 00000000 		.4byte	0
 4371              	.LLST11:
 4372 0215 00000000 		.4byte	.LVL40
 4373 0219 13000000 		.4byte	.LVL42-1
 4374 021d 0100     		.2byte	0x1
 4375 021f 53       		.byte	0x53
 4376 0220 13000000 		.4byte	.LVL42-1
 4377 0224 3A000000 		.4byte	.LVL45
 4378 0228 0100     		.2byte	0x1
 4379 022a 56       		.byte	0x56
 4380 022b 3A000000 		.4byte	.LVL45
 4381 022f 4C000000 		.4byte	.LFE118
ARM GAS  /tmp/cc3zL94g.s 			page 80


 4382 0233 0100     		.2byte	0x1
 4383 0235 53       		.byte	0x53
 4384 0236 00000000 		.4byte	0
 4385 023a 00000000 		.4byte	0
 4386              	.LLST12:
 4387 023e 00000000 		.4byte	.LVL46
 4388 0242 0E000000 		.4byte	.LVL47
 4389 0246 0100     		.2byte	0x1
 4390 0248 50       		.byte	0x50
 4391 0249 0E000000 		.4byte	.LVL47
 4392 024d 36000000 		.4byte	.LVL51
 4393 0251 0100     		.2byte	0x1
 4394 0253 54       		.byte	0x54
 4395 0254 36000000 		.4byte	.LVL51
 4396 0258 44000000 		.4byte	.LFE119
 4397 025c 0100     		.2byte	0x1
 4398 025e 50       		.byte	0x50
 4399 025f 00000000 		.4byte	0
 4400 0263 00000000 		.4byte	0
 4401              	.LLST13:
 4402 0267 00000000 		.4byte	.LVL46
 4403 026b 11000000 		.4byte	.LVL48-1
 4404 026f 0100     		.2byte	0x1
 4405 0271 51       		.byte	0x51
 4406 0272 11000000 		.4byte	.LVL48-1
 4407 0276 36000000 		.4byte	.LVL51
 4408 027a 0100     		.2byte	0x1
 4409 027c 55       		.byte	0x55
 4410 027d 36000000 		.4byte	.LVL51
 4411 0281 44000000 		.4byte	.LFE119
 4412 0285 0100     		.2byte	0x1
 4413 0287 51       		.byte	0x51
 4414 0288 00000000 		.4byte	0
 4415 028c 00000000 		.4byte	0
 4416              	.LLST14:
 4417 0290 00000000 		.4byte	.LVL46
 4418 0294 11000000 		.4byte	.LVL48-1
 4419 0298 0100     		.2byte	0x1
 4420 029a 52       		.byte	0x52
 4421 029b 11000000 		.4byte	.LVL48-1
 4422 029f 36000000 		.4byte	.LVL51
 4423 02a3 0100     		.2byte	0x1
 4424 02a5 56       		.byte	0x56
 4425 02a6 36000000 		.4byte	.LVL51
 4426 02aa 44000000 		.4byte	.LFE119
 4427 02ae 0100     		.2byte	0x1
 4428 02b0 52       		.byte	0x52
 4429 02b1 00000000 		.4byte	0
 4430 02b5 00000000 		.4byte	0
 4431              	.LLST15:
 4432 02b9 00000000 		.4byte	.LVL52
 4433 02bd 0E000000 		.4byte	.LVL53
 4434 02c1 0100     		.2byte	0x1
 4435 02c3 50       		.byte	0x50
 4436 02c4 0E000000 		.4byte	.LVL53
 4437 02c8 36000000 		.4byte	.LVL57
 4438 02cc 0100     		.2byte	0x1
ARM GAS  /tmp/cc3zL94g.s 			page 81


 4439 02ce 54       		.byte	0x54
 4440 02cf 36000000 		.4byte	.LVL57
 4441 02d3 44000000 		.4byte	.LFE120
 4442 02d7 0100     		.2byte	0x1
 4443 02d9 50       		.byte	0x50
 4444 02da 00000000 		.4byte	0
 4445 02de 00000000 		.4byte	0
 4446              	.LLST16:
 4447 02e2 00000000 		.4byte	.LVL52
 4448 02e6 11000000 		.4byte	.LVL54-1
 4449 02ea 0100     		.2byte	0x1
 4450 02ec 51       		.byte	0x51
 4451 02ed 11000000 		.4byte	.LVL54-1
 4452 02f1 36000000 		.4byte	.LVL57
 4453 02f5 0100     		.2byte	0x1
 4454 02f7 55       		.byte	0x55
 4455 02f8 36000000 		.4byte	.LVL57
 4456 02fc 44000000 		.4byte	.LFE120
 4457 0300 0100     		.2byte	0x1
 4458 0302 51       		.byte	0x51
 4459 0303 00000000 		.4byte	0
 4460 0307 00000000 		.4byte	0
 4461              	.LLST17:
 4462 030b 00000000 		.4byte	.LVL52
 4463 030f 11000000 		.4byte	.LVL54-1
 4464 0313 0100     		.2byte	0x1
 4465 0315 52       		.byte	0x52
 4466 0316 11000000 		.4byte	.LVL54-1
 4467 031a 36000000 		.4byte	.LVL57
 4468 031e 0100     		.2byte	0x1
 4469 0320 56       		.byte	0x56
 4470 0321 36000000 		.4byte	.LVL57
 4471 0325 44000000 		.4byte	.LFE120
 4472 0329 0100     		.2byte	0x1
 4473 032b 52       		.byte	0x52
 4474 032c 00000000 		.4byte	0
 4475 0330 00000000 		.4byte	0
 4476              	.LLST18:
 4477 0334 00000000 		.4byte	.LVL58
 4478 0338 0A000000 		.4byte	.LVL59
 4479 033c 0100     		.2byte	0x1
 4480 033e 50       		.byte	0x50
 4481 033f 0A000000 		.4byte	.LVL59
 4482 0343 4E000000 		.4byte	.LVL65
 4483 0347 0100     		.2byte	0x1
 4484 0349 54       		.byte	0x54
 4485 034a 4E000000 		.4byte	.LVL65
 4486 034e 50000000 		.4byte	.LVL66
 4487 0352 0100     		.2byte	0x1
 4488 0354 50       		.byte	0x50
 4489 0355 50000000 		.4byte	.LVL66
 4490 0359 6C000000 		.4byte	.LFE121
 4491 035d 0100     		.2byte	0x1
 4492 035f 54       		.byte	0x54
 4493 0360 00000000 		.4byte	0
 4494 0364 00000000 		.4byte	0
 4495              	.LLST19:
ARM GAS  /tmp/cc3zL94g.s 			page 82


 4496 0368 00000000 		.4byte	.LVL58
 4497 036c 0A000000 		.4byte	.LVL59
 4498 0370 0100     		.2byte	0x1
 4499 0372 51       		.byte	0x51
 4500 0373 0A000000 		.4byte	.LVL59
 4501 0377 4E000000 		.4byte	.LVL65
 4502 037b 0100     		.2byte	0x1
 4503 037d 55       		.byte	0x55
 4504 037e 4E000000 		.4byte	.LVL65
 4505 0382 53000000 		.4byte	.LVL67-1
 4506 0386 0100     		.2byte	0x1
 4507 0388 51       		.byte	0x51
 4508 0389 53000000 		.4byte	.LVL67-1
 4509 038d 6C000000 		.4byte	.LFE121
 4510 0391 0100     		.2byte	0x1
 4511 0393 55       		.byte	0x55
 4512 0394 00000000 		.4byte	0
 4513 0398 00000000 		.4byte	0
 4514              	.LLST20:
 4515 039c 00000000 		.4byte	.LVL68
 4516 03a0 10000000 		.4byte	.LVL69
 4517 03a4 0100     		.2byte	0x1
 4518 03a6 50       		.byte	0x50
 4519 03a7 10000000 		.4byte	.LVL69
 4520 03ab 5C000000 		.4byte	.LVL76
 4521 03af 0100     		.2byte	0x1
 4522 03b1 54       		.byte	0x54
 4523 03b2 5C000000 		.4byte	.LVL76
 4524 03b6 7C000000 		.4byte	.LFE122
 4525 03ba 0100     		.2byte	0x1
 4526 03bc 50       		.byte	0x50
 4527 03bd 00000000 		.4byte	0
 4528 03c1 00000000 		.4byte	0
 4529              	.LLST21:
 4530 03c5 00000000 		.4byte	.LVL68
 4531 03c9 13000000 		.4byte	.LVL70-1
 4532 03cd 0100     		.2byte	0x1
 4533 03cf 51       		.byte	0x51
 4534 03d0 13000000 		.4byte	.LVL70-1
 4535 03d4 5C000000 		.4byte	.LVL76
 4536 03d8 0100     		.2byte	0x1
 4537 03da 55       		.byte	0x55
 4538 03db 5C000000 		.4byte	.LVL76
 4539 03df 7C000000 		.4byte	.LFE122
 4540 03e3 0100     		.2byte	0x1
 4541 03e5 51       		.byte	0x51
 4542 03e6 00000000 		.4byte	0
 4543 03ea 00000000 		.4byte	0
 4544              	.LLST22:
 4545 03ee 00000000 		.4byte	.LVL68
 4546 03f2 13000000 		.4byte	.LVL70-1
 4547 03f6 0100     		.2byte	0x1
 4548 03f8 52       		.byte	0x52
 4549 03f9 13000000 		.4byte	.LVL70-1
 4550 03fd 5C000000 		.4byte	.LVL76
 4551 0401 0100     		.2byte	0x1
 4552 0403 57       		.byte	0x57
ARM GAS  /tmp/cc3zL94g.s 			page 83


 4553 0404 5C000000 		.4byte	.LVL76
 4554 0408 7C000000 		.4byte	.LFE122
 4555 040c 0100     		.2byte	0x1
 4556 040e 52       		.byte	0x52
 4557 040f 00000000 		.4byte	0
 4558 0413 00000000 		.4byte	0
 4559              	.LLST23:
 4560 0417 00000000 		.4byte	.LVL68
 4561 041b 13000000 		.4byte	.LVL70-1
 4562 041f 0100     		.2byte	0x1
 4563 0421 53       		.byte	0x53
 4564 0422 13000000 		.4byte	.LVL70-1
 4565 0426 5C000000 		.4byte	.LVL76
 4566 042a 0100     		.2byte	0x1
 4567 042c 56       		.byte	0x56
 4568 042d 5C000000 		.4byte	.LVL76
 4569 0431 7C000000 		.4byte	.LFE122
 4570 0435 0100     		.2byte	0x1
 4571 0437 53       		.byte	0x53
 4572 0438 00000000 		.4byte	0
 4573 043c 00000000 		.4byte	0
 4574              	.LLST24:
 4575 0440 00000000 		.4byte	.LVL77
 4576 0444 0E000000 		.4byte	.LVL78
 4577 0448 0100     		.2byte	0x1
 4578 044a 50       		.byte	0x50
 4579 044b 0E000000 		.4byte	.LVL78
 4580 044f 58000000 		.4byte	.LVL85
 4581 0453 0100     		.2byte	0x1
 4582 0455 54       		.byte	0x54
 4583 0456 58000000 		.4byte	.LVL85
 4584 045a 74000000 		.4byte	.LFE123
 4585 045e 0100     		.2byte	0x1
 4586 0460 50       		.byte	0x50
 4587 0461 00000000 		.4byte	0
 4588 0465 00000000 		.4byte	0
 4589              	.LLST25:
 4590 0469 00000000 		.4byte	.LVL77
 4591 046d 11000000 		.4byte	.LVL79-1
 4592 0471 0100     		.2byte	0x1
 4593 0473 51       		.byte	0x51
 4594 0474 11000000 		.4byte	.LVL79-1
 4595 0478 58000000 		.4byte	.LVL85
 4596 047c 0100     		.2byte	0x1
 4597 047e 55       		.byte	0x55
 4598 047f 58000000 		.4byte	.LVL85
 4599 0483 74000000 		.4byte	.LFE123
 4600 0487 0100     		.2byte	0x1
 4601 0489 51       		.byte	0x51
 4602 048a 00000000 		.4byte	0
 4603 048e 00000000 		.4byte	0
 4604              	.LLST26:
 4605 0492 00000000 		.4byte	.LVL77
 4606 0496 11000000 		.4byte	.LVL79-1
 4607 049a 0100     		.2byte	0x1
 4608 049c 52       		.byte	0x52
 4609 049d 11000000 		.4byte	.LVL79-1
ARM GAS  /tmp/cc3zL94g.s 			page 84


 4610 04a1 58000000 		.4byte	.LVL85
 4611 04a5 0100     		.2byte	0x1
 4612 04a7 56       		.byte	0x56
 4613 04a8 58000000 		.4byte	.LVL85
 4614 04ac 74000000 		.4byte	.LFE123
 4615 04b0 0100     		.2byte	0x1
 4616 04b2 52       		.byte	0x52
 4617 04b3 00000000 		.4byte	0
 4618 04b7 00000000 		.4byte	0
 4619              	.LLST27:
 4620 04bb 00000000 		.4byte	.LVL86
 4621 04bf 0E000000 		.4byte	.LVL87
 4622 04c3 0100     		.2byte	0x1
 4623 04c5 50       		.byte	0x50
 4624 04c6 0E000000 		.4byte	.LVL87
 4625 04ca 58000000 		.4byte	.LVL94
 4626 04ce 0100     		.2byte	0x1
 4627 04d0 54       		.byte	0x54
 4628 04d1 58000000 		.4byte	.LVL94
 4629 04d5 74000000 		.4byte	.LFE124
 4630 04d9 0100     		.2byte	0x1
 4631 04db 50       		.byte	0x50
 4632 04dc 00000000 		.4byte	0
 4633 04e0 00000000 		.4byte	0
 4634              	.LLST28:
 4635 04e4 00000000 		.4byte	.LVL86
 4636 04e8 11000000 		.4byte	.LVL88-1
 4637 04ec 0100     		.2byte	0x1
 4638 04ee 51       		.byte	0x51
 4639 04ef 11000000 		.4byte	.LVL88-1
 4640 04f3 58000000 		.4byte	.LVL94
 4641 04f7 0100     		.2byte	0x1
 4642 04f9 55       		.byte	0x55
 4643 04fa 58000000 		.4byte	.LVL94
 4644 04fe 74000000 		.4byte	.LFE124
 4645 0502 0100     		.2byte	0x1
 4646 0504 51       		.byte	0x51
 4647 0505 00000000 		.4byte	0
 4648 0509 00000000 		.4byte	0
 4649              	.LLST29:
 4650 050d 00000000 		.4byte	.LVL86
 4651 0511 11000000 		.4byte	.LVL88-1
 4652 0515 0100     		.2byte	0x1
 4653 0517 52       		.byte	0x52
 4654 0518 11000000 		.4byte	.LVL88-1
 4655 051c 58000000 		.4byte	.LVL94
 4656 0520 0100     		.2byte	0x1
 4657 0522 56       		.byte	0x56
 4658 0523 58000000 		.4byte	.LVL94
 4659 0527 74000000 		.4byte	.LFE124
 4660 052b 0100     		.2byte	0x1
 4661 052d 52       		.byte	0x52
 4662 052e 00000000 		.4byte	0
 4663 0532 00000000 		.4byte	0
 4664              	.LLST30:
 4665 0536 00000000 		.4byte	.LVL95
 4666 053a 0A000000 		.4byte	.LVL96
ARM GAS  /tmp/cc3zL94g.s 			page 85


 4667 053e 0100     		.2byte	0x1
 4668 0540 50       		.byte	0x50
 4669 0541 0A000000 		.4byte	.LVL96
 4670 0545 0E000000 		.4byte	.LVL97
 4671 0549 0100     		.2byte	0x1
 4672 054b 54       		.byte	0x54
 4673 054c 0E000000 		.4byte	.LVL97
 4674 0550 11000000 		.4byte	.LVL98-1
 4675 0554 0300     		.2byte	0x3
 4676 0556 70       		.byte	0x70
 4677 0557 74       		.sleb128 -12
 4678 0558 9F       		.byte	0x9f
 4679 0559 11000000 		.4byte	.LVL98-1
 4680 055d 12000000 		.4byte	.LVL98
 4681 0561 0400     		.2byte	0x4
 4682 0563 F3       		.byte	0xf3
 4683 0564 01       		.uleb128 0x1
 4684 0565 50       		.byte	0x50
 4685 0566 9F       		.byte	0x9f
 4686 0567 12000000 		.4byte	.LVL98
 4687 056b 14000000 		.4byte	.LVL99
 4688 056f 0100     		.2byte	0x1
 4689 0571 50       		.byte	0x50
 4690 0572 14000000 		.4byte	.LVL99
 4691 0576 20000000 		.4byte	.LVL101
 4692 057a 0100     		.2byte	0x1
 4693 057c 54       		.byte	0x54
 4694 057d 20000000 		.4byte	.LVL101
 4695 0581 23000000 		.4byte	.LVL102-1
 4696 0585 0300     		.2byte	0x3
 4697 0587 70       		.byte	0x70
 4698 0588 74       		.sleb128 -12
 4699 0589 9F       		.byte	0x9f
 4700 058a 23000000 		.4byte	.LVL102-1
 4701 058e 28000000 		.4byte	.LFE125
 4702 0592 0400     		.2byte	0x4
 4703 0594 F3       		.byte	0xf3
 4704 0595 01       		.uleb128 0x1
 4705 0596 50       		.byte	0x50
 4706 0597 9F       		.byte	0x9f
 4707 0598 00000000 		.4byte	0
 4708 059c 00000000 		.4byte	0
 4709              	.LLST31:
 4710 05a0 00000000 		.4byte	.LVL103
 4711 05a4 0B000000 		.4byte	.LVL104-1
 4712 05a8 0100     		.2byte	0x1
 4713 05aa 50       		.byte	0x50
 4714 05ab 0B000000 		.4byte	.LVL104-1
 4715 05af 0C000000 		.4byte	.LVL104
 4716 05b3 0400     		.2byte	0x4
 4717 05b5 F3       		.byte	0xf3
 4718 05b6 01       		.uleb128 0x1
 4719 05b7 50       		.byte	0x50
 4720 05b8 9F       		.byte	0x9f
 4721 05b9 0C000000 		.4byte	.LVL104
 4722 05bd 0E000000 		.4byte	.LVL105
 4723 05c1 0100     		.2byte	0x1
ARM GAS  /tmp/cc3zL94g.s 			page 86


 4724 05c3 50       		.byte	0x50
 4725 05c4 0E000000 		.4byte	.LVL105
 4726 05c8 20000000 		.4byte	.LFE126
 4727 05cc 0400     		.2byte	0x4
 4728 05ce F3       		.byte	0xf3
 4729 05cf 01       		.uleb128 0x1
 4730 05d0 50       		.byte	0x50
 4731 05d1 9F       		.byte	0x9f
 4732 05d2 00000000 		.4byte	0
 4733 05d6 00000000 		.4byte	0
 4734              		.section	.debug_aranges,"",%progbits
 4735 0000 94000000 		.4byte	0x94
 4736 0004 0200     		.2byte	0x2
 4737 0006 00000000 		.4byte	.Ldebug_info0
 4738 000a 04       		.byte	0x4
 4739 000b 00       		.byte	0
 4740 000c 0000     		.2byte	0
 4741 000e 0000     		.2byte	0
 4742 0010 00000000 		.4byte	.LFB111
 4743 0014 04000000 		.4byte	.LFE111-.LFB111
 4744 0018 00000000 		.4byte	.LFB112
 4745 001c 10000000 		.4byte	.LFE112-.LFB112
 4746 0020 00000000 		.4byte	.LFB113
 4747 0024 40000000 		.4byte	.LFE113-.LFB113
 4748 0028 00000000 		.4byte	.LFB114
 4749 002c 40000000 		.4byte	.LFE114-.LFB114
 4750 0030 00000000 		.4byte	.LFB115
 4751 0034 34000000 		.4byte	.LFE115-.LFB115
 4752 0038 00000000 		.4byte	.LFB116
 4753 003c 34000000 		.4byte	.LFE116-.LFB116
 4754 0040 00000000 		.4byte	.LFB117
 4755 0044 3C000000 		.4byte	.LFE117-.LFB117
 4756 0048 00000000 		.4byte	.LFB118
 4757 004c 4C000000 		.4byte	.LFE118-.LFB118
 4758 0050 00000000 		.4byte	.LFB119
 4759 0054 44000000 		.4byte	.LFE119-.LFB119
 4760 0058 00000000 		.4byte	.LFB120
 4761 005c 44000000 		.4byte	.LFE120-.LFB120
 4762 0060 00000000 		.4byte	.LFB121
 4763 0064 6C000000 		.4byte	.LFE121-.LFB121
 4764 0068 00000000 		.4byte	.LFB122
 4765 006c 7C000000 		.4byte	.LFE122-.LFB122
 4766 0070 00000000 		.4byte	.LFB123
 4767 0074 74000000 		.4byte	.LFE123-.LFB123
 4768 0078 00000000 		.4byte	.LFB124
 4769 007c 74000000 		.4byte	.LFE124-.LFB124
 4770 0080 00000000 		.4byte	.LFB125
 4771 0084 28000000 		.4byte	.LFE125-.LFB125
 4772 0088 00000000 		.4byte	.LFB126
 4773 008c 20000000 		.4byte	.LFE126-.LFB126
 4774 0090 00000000 		.4byte	0
 4775 0094 00000000 		.4byte	0
 4776              		.section	.debug_ranges,"",%progbits
 4777              	.Ldebug_ranges0:
 4778 0000 00000000 		.4byte	.LFB111
 4779 0004 04000000 		.4byte	.LFE111
 4780 0008 00000000 		.4byte	.LFB112
ARM GAS  /tmp/cc3zL94g.s 			page 87


 4781 000c 10000000 		.4byte	.LFE112
 4782 0010 00000000 		.4byte	.LFB113
 4783 0014 40000000 		.4byte	.LFE113
 4784 0018 00000000 		.4byte	.LFB114
 4785 001c 40000000 		.4byte	.LFE114
 4786 0020 00000000 		.4byte	.LFB115
 4787 0024 34000000 		.4byte	.LFE115
 4788 0028 00000000 		.4byte	.LFB116
 4789 002c 34000000 		.4byte	.LFE116
 4790 0030 00000000 		.4byte	.LFB117
 4791 0034 3C000000 		.4byte	.LFE117
 4792 0038 00000000 		.4byte	.LFB118
 4793 003c 4C000000 		.4byte	.LFE118
 4794 0040 00000000 		.4byte	.LFB119
 4795 0044 44000000 		.4byte	.LFE119
 4796 0048 00000000 		.4byte	.LFB120
 4797 004c 44000000 		.4byte	.LFE120
 4798 0050 00000000 		.4byte	.LFB121
 4799 0054 6C000000 		.4byte	.LFE121
 4800 0058 00000000 		.4byte	.LFB122
 4801 005c 7C000000 		.4byte	.LFE122
 4802 0060 00000000 		.4byte	.LFB123
 4803 0064 74000000 		.4byte	.LFE123
 4804 0068 00000000 		.4byte	.LFB124
 4805 006c 74000000 		.4byte	.LFE124
 4806 0070 00000000 		.4byte	.LFB125
 4807 0074 28000000 		.4byte	.LFE125
 4808 0078 00000000 		.4byte	.LFB126
 4809 007c 20000000 		.4byte	.LFE126
 4810 0080 00000000 		.4byte	0
 4811 0084 00000000 		.4byte	0
 4812              		.section	.debug_line,"",%progbits
 4813              	.Ldebug_line0:
 4814 0000 3D050000 		.section	.debug_str,"MS",%progbits,1
 4814      02005202 
 4814      00000201 
 4814      FB0E0D00 
 4814      01010101 
 4815              	.LASF120:
 4816 0000 646D6172 		.ascii	"dmarx\000"
 4816      7800
 4817              	.LASF74:
 4818 0006 4D304152 		.ascii	"M0AR\000"
 4818      00
 4819              	.LASF2:
 4820 000b 73697A65 		.ascii	"size_t\000"
 4820      5F7400
 4821              	.LASF51:
 4822 0012 54687265 		.ascii	"ThreadsList\000"
 4822      6164734C 
 4822      69737400 
 4823              	.LASF68:
 4824 001e 7264796D 		.ascii	"rdymsg\000"
 4824      736700
 4825              	.LASF19:
 4826 0025 75696E74 		.ascii	"uint64_t\000"
 4826      36345F74 
ARM GAS  /tmp/cc3zL94g.s 			page 88


 4826      00
 4827              	.LASF96:
 4828 002e 76656374 		.ascii	"vector\000"
 4828      6F7200
 4829              	.LASF100:
 4830 0035 4F545950 		.ascii	"OTYPER\000"
 4830      455200
 4831              	.LASF3:
 4832 003c 5F5F7569 		.ascii	"__uint8_t\000"
 4832      6E74385F 
 4832      7400
 4833              	.LASF112:
 4834 0046 5350495F 		.ascii	"SPI_ACTIVE\000"
 4834      41435449 
 4834      564500
 4835              	.LASF133:
 4836 0051 73706953 		.ascii	"spiStop\000"
 4836      746F7000 
 4837              	.LASF92:
 4838 0059 73747265 		.ascii	"stream\000"
 4838      616D00
 4839              	.LASF99:
 4840 0060 4D4F4445 		.ascii	"MODER\000"
 4840      5200
 4841              	.LASF14:
 4842 0066 6C6F6E67 		.ascii	"long long unsigned int\000"
 4842      206C6F6E 
 4842      6720756E 
 4842      7369676E 
 4842      65642069 
 4843              	.LASF111:
 4844 007d 5350495F 		.ascii	"SPI_READY\000"
 4844      52454144 
 4844      5900
 4845              	.LASF102:
 4846 0087 50555044 		.ascii	"PUPDR\000"
 4846      5200
 4847              	.LASF69:
 4848 008d 65786974 		.ascii	"exitcode\000"
 4848      636F6465 
 4848      00
 4849              	.LASF115:
 4850 0096 53504944 		.ascii	"SPIDriver\000"
 4850      72697665 
 4850      7200
 4851              	.LASF126:
 4852 00a0 7373706F 		.ascii	"ssport\000"
 4852      727400
 4853              	.LASF149:
 4854 00a7 49544D5F 		.ascii	"ITM_RxBuffer\000"
 4854      52784275 
 4854      66666572 
 4854      00
 4855              	.LASF139:
 4856 00b4 72786275 		.ascii	"rxbuf\000"
 4856      6600
 4857              	.LASF32:
ARM GAS  /tmp/cc3zL94g.s 			page 89


 4858 00ba 705F7072 		.ascii	"p_prio\000"
 4858      696F00
 4859              	.LASF127:
 4860 00c1 73737061 		.ascii	"sspad\000"
 4860      6400
 4861              	.LASF166:
 4862 00c7 63684D74 		.ascii	"chMtxUnlock\000"
 4862      78556E6C 
 4862      6F636B00 
 4863              	.LASF1:
 4864 00d3 7369676E 		.ascii	"signed char\000"
 4864      65642063 
 4864      68617200 
 4865              	.LASF103:
 4866 00df 42535252 		.ascii	"BSRR\000"
 4866      00
 4867              	.LASF110:
 4868 00e4 5350495F 		.ascii	"SPI_STOP\000"
 4868      53544F50 
 4868      00
 4869              	.LASF87:
 4870 00ed 49325343 		.ascii	"I2SCFGR\000"
 4870      46475200 
 4871              	.LASF165:
 4872 00f5 7370695F 		.ascii	"spi_lld_init\000"
 4872      6C6C645F 
 4872      696E6974 
 4872      00
 4873              	.LASF65:
 4874 0102 6D5F7175 		.ascii	"m_queue\000"
 4874      65756500 
 4875              	.LASF24:
 4876 010a 74736C69 		.ascii	"tslices_t\000"
 4876      6365735F 
 4876      7400
 4877              	.LASF124:
 4878 0114 73706963 		.ascii	"spicallback_t\000"
 4878      616C6C62 
 4878      61636B5F 
 4878      7400
 4879              	.LASF116:
 4880 0122 73746174 		.ascii	"state\000"
 4880      6500
 4881              	.LASF9:
 4882 0128 6C6F6E67 		.ascii	"long int\000"
 4882      20696E74 
 4882      00
 4883              	.LASF22:
 4884 0131 74737461 		.ascii	"tstate_t\000"
 4884      74655F74 
 4884      00
 4885              	.LASF141:
 4886 013a 73706953 		.ascii	"spiStartReceive\000"
 4886      74617274 
 4886      52656365 
 4886      69766500 
 4887              	.LASF136:
ARM GAS  /tmp/cc3zL94g.s 			page 90


 4888 014a 73706953 		.ascii	"spiStartIgnore\000"
 4888      74617274 
 4888      49676E6F 
 4888      726500
 4889              	.LASF91:
 4890 0159 5350495F 		.ascii	"SPI_TypeDef\000"
 4890      54797065 
 4890      44656600 
 4891              	.LASF34:
 4892 0165 705F6E65 		.ascii	"p_newer\000"
 4892      77657200 
 4893              	.LASF125:
 4894 016d 656E645F 		.ascii	"end_cb\000"
 4894      636200
 4895              	.LASF122:
 4896 0174 7278646D 		.ascii	"rxdmamode\000"
 4896      616D6F64 
 4896      6500
 4897              	.LASF107:
 4898 017e 4750494F 		.ascii	"GPIO_TypeDef\000"
 4898      5F547970 
 4898      65446566 
 4898      00
 4899              	.LASF121:
 4900 018b 646D6174 		.ascii	"dmatx\000"
 4900      7800
 4901              	.LASF151:
 4902 0191 63684462 		.ascii	"chDbgPanic\000"
 4902      6750616E 
 4902      696300
 4903              	.LASF101:
 4904 019c 4F535045 		.ascii	"OSPEEDR\000"
 4904      45445200 
 4905              	.LASF60:
 4906 01a4 725F6E65 		.ascii	"r_newer\000"
 4906      77657200 
 4907              	.LASF49:
 4908 01ac 705F6D70 		.ascii	"p_mpool\000"
 4908      6F6F6C00 
 4909              	.LASF52:
 4910 01b4 72656761 		.ascii	"regarm_t\000"
 4910      726D5F74 
 4910      00
 4911              	.LASF95:
 4912 01bd 73656C66 		.ascii	"selfindex\000"
 4912      696E6465 
 4912      7800
 4913              	.LASF135:
 4914 01c7 73706955 		.ascii	"spiUnselect\000"
 4914      6E73656C 
 4914      65637400 
 4915              	.LASF148:
 4916 01d3 726C6973 		.ascii	"rlist\000"
 4916      7400
 4917              	.LASF12:
 4918 01d9 6C6F6E67 		.ascii	"long long int\000"
 4918      206C6F6E 
ARM GAS  /tmp/cc3zL94g.s 			page 91


 4918      6720696E 
 4918      7400
 4919              	.LASF158:
 4920 01e7 7370695F 		.ascii	"spi_lld_send\000"
 4920      6C6C645F 
 4920      73656E64 
 4920      00
 4921              	.LASF37:
 4922 01f4 705F7374 		.ascii	"p_stklimit\000"
 4922      6B6C696D 
 4922      697400
 4923              	.LASF0:
 4924 01ff 756E7369 		.ascii	"unsigned int\000"
 4924      676E6564 
 4924      20696E74 
 4924      00
 4925              	.LASF153:
 4926 020c 7370695F 		.ascii	"spi_lld_unselect\000"
 4926      6C6C645F 
 4926      756E7365 
 4926      6C656374 
 4926      00
 4927              	.LASF138:
 4928 021d 74786275 		.ascii	"txbuf\000"
 4928      6600
 4929              	.LASF42:
 4930 0223 705F7469 		.ascii	"p_time\000"
 4930      6D6500
 4931              	.LASF145:
 4932 022a 73706952 		.ascii	"spiReceive\000"
 4932      65636569 
 4932      766500
 4933              	.LASF44:
 4934 0235 705F6D73 		.ascii	"p_msgqueue\000"
 4934      67717565 
 4934      756500
 4935              	.LASF104:
 4936 0240 4C434B52 		.ascii	"LCKR\000"
 4936      00
 4937              	.LASF94:
 4938 0245 69736869 		.ascii	"ishift\000"
 4938      667400
 4939              	.LASF140:
 4940 024c 73706953 		.ascii	"spiStartSend\000"
 4940      74617274 
 4940      53656E64 
 4940      00
 4941              	.LASF55:
 4942 0259 636F6E74 		.ascii	"context\000"
 4942      65787400 
 4943              	.LASF7:
 4944 0261 73686F72 		.ascii	"short unsigned int\000"
 4944      7420756E 
 4944      7369676E 
 4944      65642069 
 4944      6E7400
 4945              	.LASF26:
ARM GAS  /tmp/cc3zL94g.s 			page 92


 4946 0274 6D73675F 		.ascii	"msg_t\000"
 4946      7400
 4947              	.LASF21:
 4948 027a 746D6F64 		.ascii	"tmode_t\000"
 4948      655F7400 
 4949              	.LASF16:
 4950 0282 75696E74 		.ascii	"uint16_t\000"
 4950      31365F74 
 4950      00
 4951              	.LASF85:
 4952 028b 54584352 		.ascii	"TXCRCR\000"
 4952      435200
 4953              	.LASF27:
 4954 0292 6576656E 		.ascii	"eventmask_t\000"
 4954      746D6173 
 4954      6B5F7400 
 4955              	.LASF64:
 4956 029e 4D757465 		.ascii	"Mutex\000"
 4956      7800
 4957              	.LASF63:
 4958 02a4 52656164 		.ascii	"ReadyList\000"
 4958      794C6973 
 4958      7400
 4959              	.LASF53:
 4960 02ae 73746B61 		.ascii	"stkalign_t\000"
 4960      6C69676E 
 4960      5F7400
 4961              	.LASF129:
 4962 02b9 73706949 		.ascii	"spiInit\000"
 4962      6E697400 
 4963              	.LASF58:
 4964 02c1 725F7072 		.ascii	"r_prio\000"
 4964      696F00
 4965              	.LASF143:
 4966 02c8 73706945 		.ascii	"spiExchange\000"
 4966      78636861 
 4966      6E676500 
 4967              	.LASF159:
 4968 02d4 7370695F 		.ascii	"spi_lld_receive\000"
 4968      6C6C645F 
 4968      72656365 
 4968      69766500 
 4969              	.LASF89:
 4970 02e4 49325350 		.ascii	"I2SPR\000"
 4970      5200
 4971              	.LASF56:
 4972 02ea 73697A65 		.ascii	"sizetype\000"
 4972      74797065 
 4972      00
 4973              	.LASF98:
 4974 02f3 636C6561 		.ascii	"clear\000"
 4974      7200
 4975              	.LASF157:
 4976 02f9 7370695F 		.ascii	"spi_lld_exchange\000"
 4976      6C6C645F 
 4976      65786368 
 4976      616E6765 
ARM GAS  /tmp/cc3zL94g.s 			page 93


 4976      00
 4977              	.LASF146:
 4978 030a 73706941 		.ascii	"spiAcquireBus\000"
 4978      63717569 
 4978      72654275 
 4978      7300
 4979              	.LASF161:
 4980 0318 63684D74 		.ascii	"chMtxLock\000"
 4980      784C6F63 
 4980      6B00
 4981              	.LASF163:
 4982 0322 2E2E2F2E 		.ascii	"../../os/hal/src/spi.c\000"
 4982      2E2F6F73 
 4982      2F68616C 
 4982      2F737263 
 4982      2F737069 
 4983              	.LASF35:
 4984 0339 705F6F6C 		.ascii	"p_older\000"
 4984      64657200 
 4985              	.LASF59:
 4986 0341 725F6374 		.ascii	"r_ctx\000"
 4986      7800
 4987              	.LASF50:
 4988 0347 54687265 		.ascii	"ThreadsQueue\000"
 4988      61647351 
 4988      75657565 
 4988      00
 4989              	.LASF123:
 4990 0354 7478646D 		.ascii	"txdmamode\000"
 4990      616D6F64 
 4990      6500
 4991              	.LASF40:
 4992 035e 705F7265 		.ascii	"p_refs\000"
 4992      667300
 4993              	.LASF62:
 4994 0365 725F6375 		.ascii	"r_current\000"
 4994      7272656E 
 4994      7400
 4995              	.LASF61:
 4996 036f 725F6F6C 		.ascii	"r_older\000"
 4996      64657200 
 4997              	.LASF13:
 4998 0377 5F5F7569 		.ascii	"__uint64_t\000"
 4998      6E743634 
 4998      5F7400
 4999              	.LASF106:
 5000 0382 41465248 		.ascii	"AFRH\000"
 5000      00
 5001              	.LASF81:
 5002 0387 43524350 		.ascii	"CRCPR\000"
 5002      5200
 5003              	.LASF105:
 5004 038d 4146524C 		.ascii	"AFRL\000"
 5004      00
 5005              	.LASF23:
 5006 0392 74726566 		.ascii	"trefs_t\000"
 5006      735F7400 
ARM GAS  /tmp/cc3zL94g.s 			page 94


 5007              	.LASF77:
 5008 039a 52455345 		.ascii	"RESERVED0\000"
 5008      52564544 
 5008      3000
 5009              	.LASF78:
 5010 03a4 52455345 		.ascii	"RESERVED1\000"
 5010      52564544 
 5010      3100
 5011              	.LASF79:
 5012 03ae 52455345 		.ascii	"RESERVED2\000"
 5012      52564544 
 5012      3200
 5013              	.LASF80:
 5014 03b8 52455345 		.ascii	"RESERVED3\000"
 5014      52564544 
 5014      3300
 5015              	.LASF82:
 5016 03c2 52455345 		.ascii	"RESERVED4\000"
 5016      52564544 
 5016      3400
 5017              	.LASF31:
 5018 03cc 705F7072 		.ascii	"p_prev\000"
 5018      657600
 5019              	.LASF86:
 5020 03d3 52455345 		.ascii	"RESERVED6\000"
 5020      52564544 
 5020      3600
 5021              	.LASF88:
 5022 03dd 52455345 		.ascii	"RESERVED7\000"
 5022      52564544 
 5022      3700
 5023              	.LASF90:
 5024 03e7 52455345 		.ascii	"RESERVED8\000"
 5024      52564544 
 5024      3800
 5025              	.LASF25:
 5026 03f1 74707269 		.ascii	"tprio_t\000"
 5026      6F5F7400 
 5027              	.LASF119:
 5028 03f9 6D757465 		.ascii	"mutex\000"
 5028      7800
 5029              	.LASF20:
 5030 03ff 5F426F6F 		.ascii	"_Bool\000"
 5030      6C00
 5031              	.LASF17:
 5032 0405 696E7433 		.ascii	"int32_t\000"
 5032      325F7400 
 5033              	.LASF4:
 5034 040d 756E7369 		.ascii	"unsigned char\000"
 5034      676E6564 
 5034      20636861 
 5034      7200
 5035              	.LASF97:
 5036 041b 73746D33 		.ascii	"stm32_dma_stream_t\000"
 5036      325F646D 
 5036      615F7374 
 5036      7265616D 
ARM GAS  /tmp/cc3zL94g.s 			page 95


 5036      5F7400
 5037              	.LASF47:
 5038 042e 705F6D74 		.ascii	"p_mtxlist\000"
 5038      786C6973 
 5038      7400
 5039              	.LASF5:
 5040 0438 73686F72 		.ascii	"short int\000"
 5040      7420696E 
 5040      7400
 5041              	.LASF38:
 5042 0442 705F7374 		.ascii	"p_state\000"
 5042      61746500 
 5043              	.LASF41:
 5044 044a 705F7072 		.ascii	"p_preempt\000"
 5044      65656D70 
 5044      7400
 5045              	.LASF130:
 5046 0454 7370694F 		.ascii	"spiObjectInit\000"
 5046      626A6563 
 5046      74496E69 
 5046      7400
 5047              	.LASF71:
 5048 0462 65776D61 		.ascii	"ewmask\000"
 5048      736B00
 5049              	.LASF30:
 5050 0469 705F6E65 		.ascii	"p_next\000"
 5050      787400
 5051              	.LASF39:
 5052 0470 705F666C 		.ascii	"p_flags\000"
 5052      61677300 
 5053              	.LASF162:
 5054 0478 474E5520 		.ascii	"GNU C 4.8.4 20140526 (release) [ARM/embedded-4_8-br"
 5054      4320342E 
 5054      382E3420 
 5054      32303134 
 5054      30353236 
 5055 04ab 616E6368 		.ascii	"anch revision 211358] -mcpu=cortex-m4 -mfloat-abi=h"
 5055      20726576 
 5055      6973696F 
 5055      6E203231 
 5055      31333538 
 5056 04de 61726420 		.ascii	"ard -mfpu=fpv4-sp-d16 -mno-thumb-interwork -mthumb "
 5056      2D6D6670 
 5056      753D6670 
 5056      76342D73 
 5056      702D6431 
 5057 0511 2D676764 		.ascii	"-ggdb -O2 -fomit-frame-pointer -falign-functions=16"
 5057      62202D4F 
 5057      32202D66 
 5057      6F6D6974 
 5057      2D667261 
 5058 0544 202D6666 		.ascii	" -ffunction-sections -fdata-sections -fno-common -f"
 5058      756E6374 
 5058      696F6E2D 
 5058      73656374 
 5058      696F6E73 
 5059 0577 73696E67 		.ascii	"single-precision-constant\000"
ARM GAS  /tmp/cc3zL94g.s 			page 96


 5059      6C652D70 
 5059      72656369 
 5059      73696F6E 
 5059      2D636F6E 
 5060              	.LASF29:
 5061 0591 54687265 		.ascii	"Thread\000"
 5061      616400
 5062              	.LASF160:
 5063 0598 63685363 		.ascii	"chSchGoSleepS\000"
 5063      68476F53 
 5063      6C656570 
 5063      5300
 5064              	.LASF46:
 5065 05a6 705F6570 		.ascii	"p_epending\000"
 5065      656E6469 
 5065      6E6700
 5066              	.LASF93:
 5067 05b1 69666372 		.ascii	"ifcr\000"
 5067      00
 5068              	.LASF84:
 5069 05b6 52455345 		.ascii	"RESERVED5\000"
 5069      52564544 
 5069      3500
 5070              	.LASF18:
 5071 05c0 75696E74 		.ascii	"uint32_t\000"
 5071      33325F74 
 5071      00
 5072              	.LASF57:
 5073 05c9 725F7175 		.ascii	"r_queue\000"
 5073      65756500 
 5074              	.LASF11:
 5075 05d1 6C6F6E67 		.ascii	"long unsigned int\000"
 5075      20756E73 
 5075      69676E65 
 5075      6420696E 
 5075      7400
 5076              	.LASF72:
 5077 05e3 63686172 		.ascii	"char\000"
 5077      00
 5078              	.LASF154:
 5079 05e8 7370695F 		.ascii	"spi_lld_stop\000"
 5079      6C6C645F 
 5079      73746F70 
 5079      00
 5080              	.LASF113:
 5081 05f5 5350495F 		.ascii	"SPI_COMPLETE\000"
 5081      434F4D50 
 5081      4C455445 
 5081      00
 5082              	.LASF117:
 5083 0602 636F6E66 		.ascii	"config\000"
 5083      696700
 5084              	.LASF6:
 5085 0609 5F5F7569 		.ascii	"__uint16_t\000"
 5085      6E743136 
 5085      5F7400
 5086              	.LASF114:
ARM GAS  /tmp/cc3zL94g.s 			page 97


 5087 0614 73706973 		.ascii	"spistate_t\000"
 5087      74617465 
 5087      5F7400
 5088              	.LASF67:
 5089 061f 6D5F6E65 		.ascii	"m_next\000"
 5089      787400
 5090              	.LASF28:
 5091 0626 73797374 		.ascii	"systime_t\000"
 5091      696D655F 
 5091      7400
 5092              	.LASF48:
 5093 0630 705F7265 		.ascii	"p_realprio\000"
 5093      616C7072 
 5093      696F00
 5094              	.LASF8:
 5095 063b 5F5F696E 		.ascii	"__int32_t\000"
 5095      7433325F 
 5095      7400
 5096              	.LASF10:
 5097 0645 5F5F7569 		.ascii	"__uint32_t\000"
 5097      6E743332 
 5097      5F7400
 5098              	.LASF118:
 5099 0650 74687265 		.ascii	"thread\000"
 5099      616400
 5100              	.LASF73:
 5101 0657 4E445452 		.ascii	"NDTR\000"
 5101      00
 5102              	.LASF147:
 5103 065c 73706952 		.ascii	"spiReleaseBus\000"
 5103      656C6561 
 5103      73654275 
 5103      7300
 5104              	.LASF142:
 5105 066a 73706949 		.ascii	"spiIgnore\000"
 5105      676E6F72 
 5105      6500
 5106              	.LASF76:
 5107 0674 444D415F 		.ascii	"DMA_Stream_TypeDef\000"
 5107      53747265 
 5107      616D5F54 
 5107      79706544 
 5107      656600
 5108              	.LASF108:
 5109 0687 696F706F 		.ascii	"ioportid_t\000"
 5109      72746964 
 5109      5F7400
 5110              	.LASF155:
 5111 0692 7370695F 		.ascii	"spi_lld_select\000"
 5111      6C6C645F 
 5111      73656C65 
 5111      637400
 5112              	.LASF131:
 5113 06a1 73706953 		.ascii	"spiStart\000"
 5113      74617274 
 5113      00
 5114              	.LASF134:
ARM GAS  /tmp/cc3zL94g.s 			page 98


 5115 06aa 73706953 		.ascii	"spiSelect\000"
 5115      656C6563 
 5115      7400
 5116              	.LASF54:
 5117 06b4 696E7463 		.ascii	"intctx\000"
 5117      747800
 5118              	.LASF75:
 5119 06bb 4D314152 		.ascii	"M1AR\000"
 5119      00
 5120              	.LASF109:
 5121 06c0 5350495F 		.ascii	"SPI_UNINIT\000"
 5121      554E494E 
 5121      495400
 5122              	.LASF150:
 5123 06cb 63684D74 		.ascii	"chMtxInit\000"
 5123      78496E69 
 5123      7400
 5124              	.LASF156:
 5125 06d5 7370695F 		.ascii	"spi_lld_ignore\000"
 5125      6C6C645F 
 5125      69676E6F 
 5125      726500
 5126              	.LASF137:
 5127 06e4 73706953 		.ascii	"spiStartExchange\000"
 5127      74617274 
 5127      45786368 
 5127      616E6765 
 5127      00
 5128              	.LASF83:
 5129 06f5 52584352 		.ascii	"RXCRCR\000"
 5129      435200
 5130              	.LASF152:
 5131 06fc 7370695F 		.ascii	"spi_lld_start\000"
 5131      6C6C645F 
 5131      73746172 
 5131      7400
 5132              	.LASF15:
 5133 070a 75696E74 		.ascii	"uint8_t\000"
 5133      385F7400 
 5134              	.LASF132:
 5135 0712 73706970 		.ascii	"spip\000"
 5135      00
 5136              	.LASF70:
 5137 0717 77746F62 		.ascii	"wtobjp\000"
 5137      6A7000
 5138              	.LASF36:
 5139 071e 705F6E61 		.ascii	"p_name\000"
 5139      6D6500
 5140              	.LASF144:
 5141 0725 73706953 		.ascii	"spiSend\000"
 5141      656E6400 
 5142              	.LASF128:
 5143 072d 53504943 		.ascii	"SPIConfig\000"
 5143      6F6E6669 
 5143      6700
 5144              	.LASF45:
 5145 0737 705F6D73 		.ascii	"p_msg\000"
ARM GAS  /tmp/cc3zL94g.s 			page 99


 5145      6700
 5146              	.LASF164:
 5147 073d 2F686F6D 		.ascii	"/home/makkmarci/devel/ChibiOS_2.6.5/projects/STM32F"
 5147      652F6D61 
 5147      6B6B6D61 
 5147      7263692F 
 5147      64657665 
 5148 0770 345F4368 		.ascii	"4_ChibiOS_uGFX_gwin_2/\000"
 5148      6962694F 
 5148      535F7547 
 5148      46585F67 
 5148      77696E5F 
 5149              	.LASF66:
 5150 0787 6D5F6F77 		.ascii	"m_owner\000"
 5150      6E657200 
 5151              	.LASF33:
 5152 078f 705F6374 		.ascii	"p_ctx\000"
 5152      7800
 5153              	.LASF43:
 5154 0795 705F7761 		.ascii	"p_waiting\000"
 5154      6974696E 
 5154      6700
 5155              		.ident	"GCC: (GNU Tools for ARM Embedded Processors) 4.8.4 20140526 (release) [ARM/embedded-4_8-br
ARM GAS  /tmp/cc3zL94g.s 			page 100


DEFINED SYMBOLS
                            *ABS*:00000000 spi.c
     /tmp/cc3zL94g.s:21     .text.spiInit:00000000 $t
     /tmp/cc3zL94g.s:27     .text.spiInit:00000000 spiInit
     /tmp/cc3zL94g.s:42     .text.spiObjectInit:00000000 $t
     /tmp/cc3zL94g.s:48     .text.spiObjectInit:00000000 spiObjectInit
     /tmp/cc3zL94g.s:74     .text.spiStart:00000000 $t
     /tmp/cc3zL94g.s:80     .text.spiStart:00000000 spiStart
     /tmp/cc3zL94g.s:144    .text.spiStart:00000038 $d
     /tmp/cc3zL94g.s:150    .text.spiStop:00000000 $t
     /tmp/cc3zL94g.s:156    .text.spiStop:00000000 spiStop
     /tmp/cc3zL94g.s:215    .text.spiStop:00000038 $d
     /tmp/cc3zL94g.s:221    .text.spiSelect:00000000 $t
     /tmp/cc3zL94g.s:227    .text.spiSelect:00000000 spiSelect
     /tmp/cc3zL94g.s:278    .text.spiSelect:0000002c $d
     /tmp/cc3zL94g.s:284    .text.spiUnselect:00000000 $t
     /tmp/cc3zL94g.s:290    .text.spiUnselect:00000000 spiUnselect
     /tmp/cc3zL94g.s:341    .text.spiUnselect:0000002c $d
     /tmp/cc3zL94g.s:347    .text.spiStartIgnore:00000000 $t
     /tmp/cc3zL94g.s:353    .text.spiStartIgnore:00000000 spiStartIgnore
     /tmp/cc3zL94g.s:414    .text.spiStartIgnore:00000034 $d
     /tmp/cc3zL94g.s:420    .text.spiStartExchange:00000000 $t
     /tmp/cc3zL94g.s:426    .text.spiStartExchange:00000000 spiStartExchange
     /tmp/cc3zL94g.s:498    .text.spiStartExchange:00000044 $d
     /tmp/cc3zL94g.s:504    .text.spiStartSend:00000000 $t
     /tmp/cc3zL94g.s:510    .text.spiStartSend:00000000 spiStartSend
     /tmp/cc3zL94g.s:576    .text.spiStartSend:0000003c $d
     /tmp/cc3zL94g.s:582    .text.spiStartReceive:00000000 $t
     /tmp/cc3zL94g.s:588    .text.spiStartReceive:00000000 spiStartReceive
     /tmp/cc3zL94g.s:654    .text.spiStartReceive:0000003c $d
     /tmp/cc3zL94g.s:660    .text.spiIgnore:00000000 $t
     /tmp/cc3zL94g.s:666    .text.spiIgnore:00000000 spiIgnore
     /tmp/cc3zL94g.s:751    .text.spiIgnore:00000058 $d
     /tmp/cc3zL94g.s:760    .text.spiExchange:00000000 $t
     /tmp/cc3zL94g.s:766    .text.spiExchange:00000000 spiExchange
     /tmp/cc3zL94g.s:862    .text.spiExchange:00000068 $d
     /tmp/cc3zL94g.s:871    .text.spiSend:00000000 $t
     /tmp/cc3zL94g.s:877    .text.spiSend:00000000 spiSend
     /tmp/cc3zL94g.s:967    .text.spiSend:00000060 $d
     /tmp/cc3zL94g.s:976    .text.spiReceive:00000000 $t
     /tmp/cc3zL94g.s:982    .text.spiReceive:00000000 spiReceive
     /tmp/cc3zL94g.s:1072   .text.spiReceive:00000060 $d
     /tmp/cc3zL94g.s:1081   .text.spiAcquireBus:00000000 $t
     /tmp/cc3zL94g.s:1087   .text.spiAcquireBus:00000000 spiAcquireBus
     /tmp/cc3zL94g.s:1127   .text.spiAcquireBus:00000024 $d
     /tmp/cc3zL94g.s:1132   .text.spiReleaseBus:00000000 $t
     /tmp/cc3zL94g.s:1138   .text.spiReleaseBus:00000000 spiReleaseBus
     /tmp/cc3zL94g.s:1170   .text.spiReleaseBus:0000001c $d
     /tmp/cc3zL94g.s:1175   .rodata.str1.4:00000000 $d
                     .debug_frame:00000010 $d
     /tmp/cc3zL94g.s:283    .text.spiSelect:00000034 $t
     /tmp/cc3zL94g.s:346    .text.spiUnselect:00000034 $t
     /tmp/cc3zL94g.s:419    .text.spiStartIgnore:0000003c $t
     /tmp/cc3zL94g.s:503    .text.spiStartExchange:0000004c $t
     /tmp/cc3zL94g.s:581    .text.spiStartSend:00000044 $t
     /tmp/cc3zL94g.s:659    .text.spiStartReceive:00000044 $t
     /tmp/cc3zL94g.s:759    .text.spiIgnore:0000006c $t
ARM GAS  /tmp/cc3zL94g.s 			page 101


     /tmp/cc3zL94g.s:870    .text.spiExchange:0000007c $t
     /tmp/cc3zL94g.s:975    .text.spiSend:00000074 $t
     /tmp/cc3zL94g.s:1080   .text.spiReceive:00000074 $t
     /tmp/cc3zL94g.s:1131   .text.spiAcquireBus:00000028 $t

UNDEFINED SYMBOLS
spi_lld_init
chMtxInit
_port_lock
chDbgPanic
spi_lld_start
_port_unlock
spi_lld_unselect
spi_lld_stop
spi_lld_select
spi_lld_ignore
spi_lld_exchange
spi_lld_send
spi_lld_receive
chSchGoSleepS
rlist
chMtxLock
chMtxUnlock
