ARM GAS  /tmp/ccExBtuE.s 			page 1


   1              		.syntax unified
   2              		.cpu cortex-m4
   3              		.eabi_attribute 27, 1
   4              		.eabi_attribute 28, 1
   5              		.fpu fpv4-sp-d16
   6              		.eabi_attribute 20, 1
   7              		.eabi_attribute 21, 1
   8              		.eabi_attribute 23, 3
   9              		.eabi_attribute 24, 1
  10              		.eabi_attribute 25, 1
  11              		.eabi_attribute 26, 1
  12              		.eabi_attribute 30, 6
  13              		.eabi_attribute 34, 1
  14              		.eabi_attribute 18, 4
  15              		.thumb
  16              		.file	"spi.c"
  17              		.text
  18              	.Ltext0:
  19              		.cfi_sections	.debug_frame
  20              		.section	.text.spiInit,"ax",%progbits
  21              		.align	2
  22              		.p2align 4,,15
  23              		.global	spiInit
  24              		.thumb
  25              		.thumb_func
  26              		.type	spiInit, %function
  27              	spiInit:
  28              	.LFB111:
  29              		.file 1 "/home/makkmarci/workspace/ChibiOS_2.6.8/os/hal/src/spi.c"
  30              		.loc 1 68 0
  31              		.cfi_startproc
  32              		@ args = 0, pretend = 0, frame = 0
  33              		@ frame_needed = 0, uses_anonymous_args = 0
  34 0000 08B5     		push	{r3, lr}
  35              		.cfi_def_cfa_offset 8
  36              		.cfi_offset 3, -8
  37              		.cfi_offset 14, -4
  38              		.loc 1 70 0
  39 0002 FFF7FEFF 		bl	spi_lld_init
  40              		.loc 1 71 0
  41 0006 08BD     		pop	{r3, pc}
  42              		.cfi_endproc
  43              	.LFE111:
  44              		.size	spiInit, .-spiInit
  45 0008 AFF30080 		.section	.text.spiObjectInit,"ax",%progbits
  45      AFF30080 
  46              		.align	2
  47              		.p2align 4,,15
  48              		.global	spiObjectInit
  49              		.thumb
  50              		.thumb_func
  51              		.type	spiObjectInit, %function
  52              	spiObjectInit:
  53              	.LFB112:
  54              		.loc 1 80 0
  55              		.cfi_startproc
  56              		@ args = 0, pretend = 0, frame = 8
ARM GAS  /tmp/ccExBtuE.s 			page 2


  57              		@ frame_needed = 0, uses_anonymous_args = 0
  58 0000 00B5     		push	{lr}
  59              		.cfi_def_cfa_offset 4
  60              		.cfi_offset 14, -4
  61 0002 83B0     		sub	sp, sp, #12
  62              		.cfi_def_cfa_offset 16
  63 0004 0190     		str	r0, [sp, #4]
  64              		.loc 1 82 0
  65 0006 019B     		ldr	r3, [sp, #4]
  66 0008 0122     		movs	r2, #1
  67 000a 1A70     		strb	r2, [r3]
  68              		.loc 1 83 0
  69 000c 019B     		ldr	r3, [sp, #4]
  70 000e 0022     		movs	r2, #0
  71 0010 5A60     		str	r2, [r3, #4]
  72              		.loc 1 85 0
  73 0012 019B     		ldr	r3, [sp, #4]
  74 0014 0022     		movs	r2, #0
  75 0016 9A60     		str	r2, [r3, #8]
  76              		.loc 1 89 0
  77 0018 019B     		ldr	r3, [sp, #4]
  78 001a 0C33     		adds	r3, r3, #12
  79 001c 1846     		mov	r0, r3
  80 001e FFF7FEFF 		bl	chMtxInit
  81              		.loc 1 97 0
  82 0022 03B0     		add	sp, sp, #12
  83              		.cfi_def_cfa_offset 4
  84              		@ sp needed
  85 0024 5DF804FB 		ldr	pc, [sp], #4
  86              		.cfi_endproc
  87              	.LFE112:
  88              		.size	spiObjectInit, .-spiObjectInit
  89 0028 AFF30080 		.section	.rodata
  89      AFF30080 
  90              		.align	2
  91              	.LC0:
  92 0000 22737069 		.ascii	"\"spiStart\"()\000"
  92      53746172 
  92      74222829 
  92      00
  93 000d 000000   		.align	2
  94              	.LC1:
  95 0010 73706953 		.ascii	"spiStart(), #1\000"
  95      74617274 
  95      28292C20 
  95      233100
  96              		.section	.text.spiStart,"ax",%progbits
  97              		.align	2
  98              		.p2align 4,,15
  99              		.global	spiStart
 100              		.thumb
 101              		.thumb_func
 102              		.type	spiStart, %function
 103              	spiStart:
 104              	.LFB113:
 105              		.loc 1 107 0
 106              		.cfi_startproc
ARM GAS  /tmp/ccExBtuE.s 			page 3


 107              		@ args = 0, pretend = 0, frame = 8
 108              		@ frame_needed = 0, uses_anonymous_args = 0
 109 0000 00B5     		push	{lr}
 110              		.cfi_def_cfa_offset 4
 111              		.cfi_offset 14, -4
 112 0002 83B0     		sub	sp, sp, #12
 113              		.cfi_def_cfa_offset 16
 114 0004 0190     		str	r0, [sp, #4]
 115 0006 0091     		str	r1, [sp]
 116              		.loc 1 109 0
 117 0008 019B     		ldr	r3, [sp, #4]
 118 000a 002B     		cmp	r3, #0
 119 000c 02D0     		beq	.L4
 120              		.loc 1 109 0 is_stmt 0 discriminator 2
 121 000e 009B     		ldr	r3, [sp]
 122 0010 002B     		cmp	r3, #0
 123 0012 02D1     		bne	.L5
 124              	.L4:
 125              		.loc 1 109 0 discriminator 3
 126 0014 0E48     		ldr	r0, .L7
 127 0016 FFF7FEFF 		bl	chDbgPanic
 128              	.L5:
 129              		.loc 1 111 0 is_stmt 1
 130              	@ 111 "/home/makkmarci/workspace/ChibiOS_2.6.8/os/hal/src/spi.c" 1
 131 001a FFF7FEFF 		bl      _port_lock
 132              	@ 0 "" 2
 133              		.loc 1 112 0
 134              		.thumb
 135 001e 019B     		ldr	r3, [sp, #4]
 136 0020 1B78     		ldrb	r3, [r3]	@ zero_extendqisi2
 137 0022 012B     		cmp	r3, #1
 138 0024 06D0     		beq	.L6
 139              		.loc 1 112 0 is_stmt 0 discriminator 1
 140 0026 019B     		ldr	r3, [sp, #4]
 141 0028 1B78     		ldrb	r3, [r3]	@ zero_extendqisi2
 142 002a 022B     		cmp	r3, #2
 143 002c 02D0     		beq	.L6
 144              		.loc 1 112 0 discriminator 2
 145 002e 0948     		ldr	r0, .L7+4
 146 0030 FFF7FEFF 		bl	chDbgPanic
 147              	.L6:
 148              		.loc 1 114 0 is_stmt 1
 149 0034 019B     		ldr	r3, [sp, #4]
 150 0036 009A     		ldr	r2, [sp]
 151 0038 5A60     		str	r2, [r3, #4]
 152              		.loc 1 115 0
 153 003a 0198     		ldr	r0, [sp, #4]
 154 003c FFF7FEFF 		bl	spi_lld_start
 155              		.loc 1 116 0
 156 0040 019B     		ldr	r3, [sp, #4]
 157 0042 0222     		movs	r2, #2
 158 0044 1A70     		strb	r2, [r3]
 159              		.loc 1 117 0
 160              	@ 117 "/home/makkmarci/workspace/ChibiOS_2.6.8/os/hal/src/spi.c" 1
 161 0046 FFF7FEFF 		bl      _port_unlock
 162              	@ 0 "" 2
 163              		.loc 1 118 0
ARM GAS  /tmp/ccExBtuE.s 			page 4


 164              		.thumb
 165 004a 03B0     		add	sp, sp, #12
 166              		.cfi_def_cfa_offset 4
 167              		@ sp needed
 168 004c 5DF804FB 		ldr	pc, [sp], #4
 169              	.L8:
 170              		.align	2
 171              	.L7:
 172 0050 00000000 		.word	.LC0
 173 0054 10000000 		.word	.LC1
 174              		.cfi_endproc
 175              	.LFE113:
 176              		.size	spiStart, .-spiStart
 177 0058 AFF30080 		.section	.rodata
 177      AFF30080 
 178 001f 00       		.align	2
 179              	.LC2:
 180 0020 22737069 		.ascii	"\"spiStop\"()\000"
 180      53746F70 
 180      22282900 
 181              		.align	2
 182              	.LC3:
 183 002c 73706953 		.ascii	"spiStop(), #1\000"
 183      746F7028 
 183      292C2023 
 183      3100
 184              		.section	.text.spiStop,"ax",%progbits
 185              		.align	2
 186              		.p2align 4,,15
 187              		.global	spiStop
 188              		.thumb
 189              		.thumb_func
 190              		.type	spiStop, %function
 191              	spiStop:
 192              	.LFB114:
 193              		.loc 1 129 0
 194              		.cfi_startproc
 195              		@ args = 0, pretend = 0, frame = 8
 196              		@ frame_needed = 0, uses_anonymous_args = 0
 197 0000 00B5     		push	{lr}
 198              		.cfi_def_cfa_offset 4
 199              		.cfi_offset 14, -4
 200 0002 83B0     		sub	sp, sp, #12
 201              		.cfi_def_cfa_offset 16
 202 0004 0190     		str	r0, [sp, #4]
 203              		.loc 1 131 0
 204 0006 019B     		ldr	r3, [sp, #4]
 205 0008 002B     		cmp	r3, #0
 206 000a 02D1     		bne	.L10
 207              		.loc 1 131 0 is_stmt 0 discriminator 1
 208 000c 0E48     		ldr	r0, .L12
 209 000e FFF7FEFF 		bl	chDbgPanic
 210              	.L10:
 211              		.loc 1 133 0 is_stmt 1
 212              	@ 133 "/home/makkmarci/workspace/ChibiOS_2.6.8/os/hal/src/spi.c" 1
 213 0012 FFF7FEFF 		bl      _port_lock
 214              	@ 0 "" 2
ARM GAS  /tmp/ccExBtuE.s 			page 5


 215              		.loc 1 134 0
 216              		.thumb
 217 0016 019B     		ldr	r3, [sp, #4]
 218 0018 1B78     		ldrb	r3, [r3]	@ zero_extendqisi2
 219 001a 012B     		cmp	r3, #1
 220 001c 06D0     		beq	.L11
 221              		.loc 1 134 0 is_stmt 0 discriminator 1
 222 001e 019B     		ldr	r3, [sp, #4]
 223 0020 1B78     		ldrb	r3, [r3]	@ zero_extendqisi2
 224 0022 022B     		cmp	r3, #2
 225 0024 02D0     		beq	.L11
 226              		.loc 1 134 0 discriminator 2
 227 0026 0948     		ldr	r0, .L12+4
 228 0028 FFF7FEFF 		bl	chDbgPanic
 229              	.L11:
 230              		.loc 1 136 0 is_stmt 1
 231 002c 0198     		ldr	r0, [sp, #4]
 232 002e FFF7FEFF 		bl	spi_lld_unselect
 233              		.loc 1 137 0
 234 0032 0198     		ldr	r0, [sp, #4]
 235 0034 FFF7FEFF 		bl	spi_lld_stop
 236              		.loc 1 138 0
 237 0038 019B     		ldr	r3, [sp, #4]
 238 003a 0122     		movs	r2, #1
 239 003c 1A70     		strb	r2, [r3]
 240              		.loc 1 139 0
 241              	@ 139 "/home/makkmarci/workspace/ChibiOS_2.6.8/os/hal/src/spi.c" 1
 242 003e FFF7FEFF 		bl      _port_unlock
 243              	@ 0 "" 2
 244              		.loc 1 140 0
 245              		.thumb
 246 0042 03B0     		add	sp, sp, #12
 247              		.cfi_def_cfa_offset 4
 248              		@ sp needed
 249 0044 5DF804FB 		ldr	pc, [sp], #4
 250              	.L13:
 251              		.align	2
 252              	.L12:
 253 0048 20000000 		.word	.LC2
 254 004c 2C000000 		.word	.LC3
 255              		.cfi_endproc
 256              	.LFE114:
 257              		.size	spiStop, .-spiStop
 258              		.section	.rodata
 259 003a 0000     		.align	2
 260              	.LC4:
 261 003c 22737069 		.ascii	"\"spiSelect\"()\000"
 261      53656C65 
 261      63742228 
 261      2900
 262 004a 0000     		.align	2
 263              	.LC5:
 264 004c 73706953 		.ascii	"spiSelect(), #1\000"
 264      656C6563 
 264      7428292C 
 264      20233100 
 265              		.section	.text.spiSelect,"ax",%progbits
ARM GAS  /tmp/ccExBtuE.s 			page 6


 266              		.align	2
 267              		.p2align 4,,15
 268              		.global	spiSelect
 269              		.thumb
 270              		.thumb_func
 271              		.type	spiSelect, %function
 272              	spiSelect:
 273              	.LFB115:
 274              		.loc 1 149 0
 275              		.cfi_startproc
 276              		@ args = 0, pretend = 0, frame = 8
 277              		@ frame_needed = 0, uses_anonymous_args = 0
 278 0000 00B5     		push	{lr}
 279              		.cfi_def_cfa_offset 4
 280              		.cfi_offset 14, -4
 281 0002 83B0     		sub	sp, sp, #12
 282              		.cfi_def_cfa_offset 16
 283 0004 0190     		str	r0, [sp, #4]
 284              		.loc 1 151 0
 285 0006 019B     		ldr	r3, [sp, #4]
 286 0008 002B     		cmp	r3, #0
 287 000a 02D1     		bne	.L15
 288              		.loc 1 151 0 is_stmt 0 discriminator 1
 289 000c 0948     		ldr	r0, .L17
 290 000e FFF7FEFF 		bl	chDbgPanic
 291              	.L15:
 292              		.loc 1 153 0 is_stmt 1
 293              	@ 153 "/home/makkmarci/workspace/ChibiOS_2.6.8/os/hal/src/spi.c" 1
 294 0012 FFF7FEFF 		bl      _port_lock
 295              	@ 0 "" 2
 296              		.loc 1 154 0
 297              		.thumb
 298 0016 019B     		ldr	r3, [sp, #4]
 299 0018 1B78     		ldrb	r3, [r3]	@ zero_extendqisi2
 300 001a 022B     		cmp	r3, #2
 301 001c 02D0     		beq	.L16
 302              		.loc 1 154 0 is_stmt 0 discriminator 1
 303 001e 0648     		ldr	r0, .L17+4
 304 0020 FFF7FEFF 		bl	chDbgPanic
 305              	.L16:
 306              		.loc 1 155 0 is_stmt 1
 307 0024 0198     		ldr	r0, [sp, #4]
 308 0026 FFF7FEFF 		bl	spi_lld_select
 309              		.loc 1 156 0
 310              	@ 156 "/home/makkmarci/workspace/ChibiOS_2.6.8/os/hal/src/spi.c" 1
 311 002a FFF7FEFF 		bl      _port_unlock
 312              	@ 0 "" 2
 313              		.loc 1 157 0
 314              		.thumb
 315 002e 03B0     		add	sp, sp, #12
 316              		.cfi_def_cfa_offset 4
 317              		@ sp needed
 318 0030 5DF804FB 		ldr	pc, [sp], #4
 319              	.L18:
 320              		.align	2
 321              	.L17:
 322 0034 3C000000 		.word	.LC4
ARM GAS  /tmp/ccExBtuE.s 			page 7


 323 0038 4C000000 		.word	.LC5
 324              		.cfi_endproc
 325              	.LFE115:
 326              		.size	spiSelect, .-spiSelect
 327 003c AFF30080 		.section	.rodata
 328              		.align	2
 329              	.LC6:
 330 005c 22737069 		.ascii	"\"spiUnselect\"()\000"
 330      556E7365 
 330      6C656374 
 330      22282900 
 331              		.align	2
 332              	.LC7:
 333 006c 73706955 		.ascii	"spiUnselect(), #1\000"
 333      6E73656C 
 333      65637428 
 333      292C2023 
 333      3100
 334              		.section	.text.spiUnselect,"ax",%progbits
 335              		.align	2
 336              		.p2align 4,,15
 337              		.global	spiUnselect
 338              		.thumb
 339              		.thumb_func
 340              		.type	spiUnselect, %function
 341              	spiUnselect:
 342              	.LFB116:
 343              		.loc 1 167 0
 344              		.cfi_startproc
 345              		@ args = 0, pretend = 0, frame = 8
 346              		@ frame_needed = 0, uses_anonymous_args = 0
 347 0000 00B5     		push	{lr}
 348              		.cfi_def_cfa_offset 4
 349              		.cfi_offset 14, -4
 350 0002 83B0     		sub	sp, sp, #12
 351              		.cfi_def_cfa_offset 16
 352 0004 0190     		str	r0, [sp, #4]
 353              		.loc 1 169 0
 354 0006 019B     		ldr	r3, [sp, #4]
 355 0008 002B     		cmp	r3, #0
 356 000a 02D1     		bne	.L20
 357              		.loc 1 169 0 is_stmt 0 discriminator 1
 358 000c 0948     		ldr	r0, .L22
 359 000e FFF7FEFF 		bl	chDbgPanic
 360              	.L20:
 361              		.loc 1 171 0 is_stmt 1
 362              	@ 171 "/home/makkmarci/workspace/ChibiOS_2.6.8/os/hal/src/spi.c" 1
 363 0012 FFF7FEFF 		bl      _port_lock
 364              	@ 0 "" 2
 365              		.loc 1 172 0
 366              		.thumb
 367 0016 019B     		ldr	r3, [sp, #4]
 368 0018 1B78     		ldrb	r3, [r3]	@ zero_extendqisi2
 369 001a 022B     		cmp	r3, #2
 370 001c 02D0     		beq	.L21
 371              		.loc 1 172 0 is_stmt 0 discriminator 1
 372 001e 0648     		ldr	r0, .L22+4
ARM GAS  /tmp/ccExBtuE.s 			page 8


 373 0020 FFF7FEFF 		bl	chDbgPanic
 374              	.L21:
 375              		.loc 1 173 0 is_stmt 1
 376 0024 0198     		ldr	r0, [sp, #4]
 377 0026 FFF7FEFF 		bl	spi_lld_unselect
 378              		.loc 1 174 0
 379              	@ 174 "/home/makkmarci/workspace/ChibiOS_2.6.8/os/hal/src/spi.c" 1
 380 002a FFF7FEFF 		bl      _port_unlock
 381              	@ 0 "" 2
 382              		.loc 1 175 0
 383              		.thumb
 384 002e 03B0     		add	sp, sp, #12
 385              		.cfi_def_cfa_offset 4
 386              		@ sp needed
 387 0030 5DF804FB 		ldr	pc, [sp], #4
 388              	.L23:
 389              		.align	2
 390              	.L22:
 391 0034 5C000000 		.word	.LC6
 392 0038 6C000000 		.word	.LC7
 393              		.cfi_endproc
 394              	.LFE116:
 395              		.size	spiUnselect, .-spiUnselect
 396 003c AFF30080 		.section	.rodata
 397 007e 0000     		.align	2
 398              	.LC8:
 399 0080 22737069 		.ascii	"\"spiStartIgnore\"()\000"
 399      53746172 
 399      7449676E 
 399      6F726522 
 399      282900
 400 0093 00       		.align	2
 401              	.LC9:
 402 0094 73706953 		.ascii	"spiStartIgnore(), #1\000"
 402      74617274 
 402      49676E6F 
 402      72652829 
 402      2C202331 
 403              		.section	.text.spiStartIgnore,"ax",%progbits
 404              		.align	2
 405              		.p2align 4,,15
 406              		.global	spiStartIgnore
 407              		.thumb
 408              		.thumb_func
 409              		.type	spiStartIgnore, %function
 410              	spiStartIgnore:
 411              	.LFB117:
 412              		.loc 1 190 0
 413              		.cfi_startproc
 414              		@ args = 0, pretend = 0, frame = 8
 415              		@ frame_needed = 0, uses_anonymous_args = 0
 416 0000 00B5     		push	{lr}
 417              		.cfi_def_cfa_offset 4
 418              		.cfi_offset 14, -4
 419 0002 83B0     		sub	sp, sp, #12
 420              		.cfi_def_cfa_offset 16
 421 0004 0190     		str	r0, [sp, #4]
ARM GAS  /tmp/ccExBtuE.s 			page 9


 422 0006 0091     		str	r1, [sp]
 423              		.loc 1 192 0
 424 0008 019B     		ldr	r3, [sp, #4]
 425 000a 002B     		cmp	r3, #0
 426 000c 02D0     		beq	.L25
 427              		.loc 1 192 0 is_stmt 0 discriminator 2
 428 000e 009B     		ldr	r3, [sp]
 429 0010 002B     		cmp	r3, #0
 430 0012 02D1     		bne	.L26
 431              	.L25:
 432              		.loc 1 192 0 discriminator 3
 433 0014 0B48     		ldr	r0, .L28
 434 0016 FFF7FEFF 		bl	chDbgPanic
 435              	.L26:
 436              		.loc 1 194 0 is_stmt 1
 437              	@ 194 "/home/makkmarci/workspace/ChibiOS_2.6.8/os/hal/src/spi.c" 1
 438 001a FFF7FEFF 		bl      _port_lock
 439              	@ 0 "" 2
 440              		.loc 1 195 0
 441              		.thumb
 442 001e 019B     		ldr	r3, [sp, #4]
 443 0020 1B78     		ldrb	r3, [r3]	@ zero_extendqisi2
 444 0022 022B     		cmp	r3, #2
 445 0024 02D0     		beq	.L27
 446              		.loc 1 195 0 is_stmt 0 discriminator 1
 447 0026 0848     		ldr	r0, .L28+4
 448 0028 FFF7FEFF 		bl	chDbgPanic
 449              	.L27:
 450              		.loc 1 196 0 is_stmt 1
 451 002c 019B     		ldr	r3, [sp, #4]
 452 002e 0322     		movs	r2, #3
 453 0030 1A70     		strb	r2, [r3]
 454 0032 0198     		ldr	r0, [sp, #4]
 455 0034 0099     		ldr	r1, [sp]
 456 0036 FFF7FEFF 		bl	spi_lld_ignore
 457              		.loc 1 197 0
 458              	@ 197 "/home/makkmarci/workspace/ChibiOS_2.6.8/os/hal/src/spi.c" 1
 459 003a FFF7FEFF 		bl      _port_unlock
 460              	@ 0 "" 2
 461              		.loc 1 198 0
 462              		.thumb
 463 003e 03B0     		add	sp, sp, #12
 464              		.cfi_def_cfa_offset 4
 465              		@ sp needed
 466 0040 5DF804FB 		ldr	pc, [sp], #4
 467              	.L29:
 468              		.align	2
 469              	.L28:
 470 0044 80000000 		.word	.LC8
 471 0048 94000000 		.word	.LC9
 472              		.cfi_endproc
 473              	.LFE117:
 474              		.size	spiStartIgnore, .-spiStartIgnore
 475 004c AFF30080 		.section	.rodata
 476 00a9 000000   		.align	2
 477              	.LC10:
 478 00ac 22737069 		.ascii	"\"spiStartExchange\"()\000"
ARM GAS  /tmp/ccExBtuE.s 			page 10


 478      53746172 
 478      74457863 
 478      68616E67 
 478      65222829 
 479 00c1 000000   		.align	2
 480              	.LC11:
 481 00c4 73706953 		.ascii	"spiStartExchange(), #1\000"
 481      74617274 
 481      45786368 
 481      616E6765 
 481      28292C20 
 482              		.section	.text.spiStartExchange,"ax",%progbits
 483              		.align	2
 484              		.p2align 4,,15
 485              		.global	spiStartExchange
 486              		.thumb
 487              		.thumb_func
 488              		.type	spiStartExchange, %function
 489              	spiStartExchange:
 490              	.LFB118:
 491              		.loc 1 218 0
 492              		.cfi_startproc
 493              		@ args = 0, pretend = 0, frame = 16
 494              		@ frame_needed = 0, uses_anonymous_args = 0
 495 0000 00B5     		push	{lr}
 496              		.cfi_def_cfa_offset 4
 497              		.cfi_offset 14, -4
 498 0002 85B0     		sub	sp, sp, #20
 499              		.cfi_def_cfa_offset 24
 500 0004 0390     		str	r0, [sp, #12]
 501 0006 0291     		str	r1, [sp, #8]
 502 0008 0192     		str	r2, [sp, #4]
 503 000a 0093     		str	r3, [sp]
 504              		.loc 1 220 0
 505 000c 039B     		ldr	r3, [sp, #12]
 506 000e 002B     		cmp	r3, #0
 507 0010 08D0     		beq	.L31
 508              		.loc 1 220 0 is_stmt 0 discriminator 2
 509 0012 029B     		ldr	r3, [sp, #8]
 510 0014 002B     		cmp	r3, #0
 511 0016 05D0     		beq	.L31
 512              		.loc 1 220 0 discriminator 4
 513 0018 009B     		ldr	r3, [sp]
 514 001a 002B     		cmp	r3, #0
 515 001c 02D0     		beq	.L31
 516              		.loc 1 220 0 discriminator 6
 517 001e 019B     		ldr	r3, [sp, #4]
 518 0020 002B     		cmp	r3, #0
 519 0022 02D1     		bne	.L32
 520              	.L31:
 521              		.loc 1 220 0 discriminator 7
 522 0024 0C48     		ldr	r0, .L34
 523 0026 FFF7FEFF 		bl	chDbgPanic
 524              	.L32:
 525              		.loc 1 223 0 is_stmt 1
 526              	@ 223 "/home/makkmarci/workspace/ChibiOS_2.6.8/os/hal/src/spi.c" 1
 527 002a FFF7FEFF 		bl      _port_lock
ARM GAS  /tmp/ccExBtuE.s 			page 11


 528              	@ 0 "" 2
 529              		.loc 1 224 0
 530              		.thumb
 531 002e 039B     		ldr	r3, [sp, #12]
 532 0030 1B78     		ldrb	r3, [r3]	@ zero_extendqisi2
 533 0032 022B     		cmp	r3, #2
 534 0034 02D0     		beq	.L33
 535              		.loc 1 224 0 is_stmt 0 discriminator 1
 536 0036 0948     		ldr	r0, .L34+4
 537 0038 FFF7FEFF 		bl	chDbgPanic
 538              	.L33:
 539              		.loc 1 225 0 is_stmt 1
 540 003c 039B     		ldr	r3, [sp, #12]
 541 003e 0322     		movs	r2, #3
 542 0040 1A70     		strb	r2, [r3]
 543 0042 0398     		ldr	r0, [sp, #12]
 544 0044 0299     		ldr	r1, [sp, #8]
 545 0046 019A     		ldr	r2, [sp, #4]
 546 0048 009B     		ldr	r3, [sp]
 547 004a FFF7FEFF 		bl	spi_lld_exchange
 548              		.loc 1 226 0
 549              	@ 226 "/home/makkmarci/workspace/ChibiOS_2.6.8/os/hal/src/spi.c" 1
 550 004e FFF7FEFF 		bl      _port_unlock
 551              	@ 0 "" 2
 552              		.loc 1 227 0
 553              		.thumb
 554 0052 05B0     		add	sp, sp, #20
 555              		.cfi_def_cfa_offset 4
 556              		@ sp needed
 557 0054 5DF804FB 		ldr	pc, [sp], #4
 558              	.L35:
 559              		.align	2
 560              	.L34:
 561 0058 AC000000 		.word	.LC10
 562 005c C4000000 		.word	.LC11
 563              		.cfi_endproc
 564              	.LFE118:
 565              		.size	spiStartExchange, .-spiStartExchange
 566              		.section	.rodata
 567 00db 00       		.align	2
 568              	.LC12:
 569 00dc 22737069 		.ascii	"\"spiStartSend\"()\000"
 569      53746172 
 569      7453656E 
 569      64222829 
 569      00
 570 00ed 000000   		.align	2
 571              	.LC13:
 572 00f0 73706953 		.ascii	"spiStartSend(), #1\000"
 572      74617274 
 572      53656E64 
 572      28292C20 
 572      233100
 573              		.section	.text.spiStartSend,"ax",%progbits
 574              		.align	2
 575              		.p2align 4,,15
 576              		.global	spiStartSend
ARM GAS  /tmp/ccExBtuE.s 			page 12


 577              		.thumb
 578              		.thumb_func
 579              		.type	spiStartSend, %function
 580              	spiStartSend:
 581              	.LFB119:
 582              		.loc 1 244 0
 583              		.cfi_startproc
 584              		@ args = 0, pretend = 0, frame = 16
 585              		@ frame_needed = 0, uses_anonymous_args = 0
 586 0000 00B5     		push	{lr}
 587              		.cfi_def_cfa_offset 4
 588              		.cfi_offset 14, -4
 589 0002 85B0     		sub	sp, sp, #20
 590              		.cfi_def_cfa_offset 24
 591 0004 0390     		str	r0, [sp, #12]
 592 0006 0291     		str	r1, [sp, #8]
 593 0008 0192     		str	r2, [sp, #4]
 594              		.loc 1 246 0
 595 000a 039B     		ldr	r3, [sp, #12]
 596 000c 002B     		cmp	r3, #0
 597 000e 05D0     		beq	.L37
 598              		.loc 1 246 0 is_stmt 0 discriminator 2
 599 0010 029B     		ldr	r3, [sp, #8]
 600 0012 002B     		cmp	r3, #0
 601 0014 02D0     		beq	.L37
 602              		.loc 1 246 0 discriminator 4
 603 0016 019B     		ldr	r3, [sp, #4]
 604 0018 002B     		cmp	r3, #0
 605 001a 02D1     		bne	.L38
 606              	.L37:
 607              		.loc 1 246 0 discriminator 5
 608 001c 0C48     		ldr	r0, .L40
 609 001e FFF7FEFF 		bl	chDbgPanic
 610              	.L38:
 611              		.loc 1 249 0 is_stmt 1
 612              	@ 249 "/home/makkmarci/workspace/ChibiOS_2.6.8/os/hal/src/spi.c" 1
 613 0022 FFF7FEFF 		bl      _port_lock
 614              	@ 0 "" 2
 615              		.loc 1 250 0
 616              		.thumb
 617 0026 039B     		ldr	r3, [sp, #12]
 618 0028 1B78     		ldrb	r3, [r3]	@ zero_extendqisi2
 619 002a 022B     		cmp	r3, #2
 620 002c 02D0     		beq	.L39
 621              		.loc 1 250 0 is_stmt 0 discriminator 1
 622 002e 0948     		ldr	r0, .L40+4
 623 0030 FFF7FEFF 		bl	chDbgPanic
 624              	.L39:
 625              		.loc 1 251 0 is_stmt 1
 626 0034 039B     		ldr	r3, [sp, #12]
 627 0036 0322     		movs	r2, #3
 628 0038 1A70     		strb	r2, [r3]
 629 003a 0398     		ldr	r0, [sp, #12]
 630 003c 0299     		ldr	r1, [sp, #8]
 631 003e 019A     		ldr	r2, [sp, #4]
 632 0040 FFF7FEFF 		bl	spi_lld_send
 633              		.loc 1 252 0
ARM GAS  /tmp/ccExBtuE.s 			page 13


 634              	@ 252 "/home/makkmarci/workspace/ChibiOS_2.6.8/os/hal/src/spi.c" 1
 635 0044 FFF7FEFF 		bl      _port_unlock
 636              	@ 0 "" 2
 637              		.loc 1 253 0
 638              		.thumb
 639 0048 05B0     		add	sp, sp, #20
 640              		.cfi_def_cfa_offset 4
 641              		@ sp needed
 642 004a 5DF804FB 		ldr	pc, [sp], #4
 643              	.L41:
 644 004e 00BF     		.align	2
 645              	.L40:
 646 0050 DC000000 		.word	.LC12
 647 0054 F0000000 		.word	.LC13
 648              		.cfi_endproc
 649              	.LFE119:
 650              		.size	spiStartSend, .-spiStartSend
 651 0058 AFF30080 		.section	.rodata
 651      AFF30080 
 652 0103 00       		.align	2
 653              	.LC14:
 654 0104 22737069 		.ascii	"\"spiStartReceive\"()\000"
 654      53746172 
 654      74526563 
 654      65697665 
 654      22282900 
 655              		.align	2
 656              	.LC15:
 657 0118 73706953 		.ascii	"spiStartReceive(), #1\000"
 657      74617274 
 657      52656365 
 657      69766528 
 657      292C2023 
 658              		.section	.text.spiStartReceive,"ax",%progbits
 659              		.align	2
 660              		.p2align 4,,15
 661              		.global	spiStartReceive
 662              		.thumb
 663              		.thumb_func
 664              		.type	spiStartReceive, %function
 665              	spiStartReceive:
 666              	.LFB120:
 667              		.loc 1 270 0
 668              		.cfi_startproc
 669              		@ args = 0, pretend = 0, frame = 16
 670              		@ frame_needed = 0, uses_anonymous_args = 0
 671 0000 00B5     		push	{lr}
 672              		.cfi_def_cfa_offset 4
 673              		.cfi_offset 14, -4
 674 0002 85B0     		sub	sp, sp, #20
 675              		.cfi_def_cfa_offset 24
 676 0004 0390     		str	r0, [sp, #12]
 677 0006 0291     		str	r1, [sp, #8]
 678 0008 0192     		str	r2, [sp, #4]
 679              		.loc 1 272 0
 680 000a 039B     		ldr	r3, [sp, #12]
 681 000c 002B     		cmp	r3, #0
ARM GAS  /tmp/ccExBtuE.s 			page 14


 682 000e 05D0     		beq	.L43
 683              		.loc 1 272 0 is_stmt 0 discriminator 2
 684 0010 029B     		ldr	r3, [sp, #8]
 685 0012 002B     		cmp	r3, #0
 686 0014 02D0     		beq	.L43
 687              		.loc 1 272 0 discriminator 4
 688 0016 019B     		ldr	r3, [sp, #4]
 689 0018 002B     		cmp	r3, #0
 690 001a 02D1     		bne	.L44
 691              	.L43:
 692              		.loc 1 272 0 discriminator 5
 693 001c 0C48     		ldr	r0, .L46
 694 001e FFF7FEFF 		bl	chDbgPanic
 695              	.L44:
 696              		.loc 1 275 0 is_stmt 1
 697              	@ 275 "/home/makkmarci/workspace/ChibiOS_2.6.8/os/hal/src/spi.c" 1
 698 0022 FFF7FEFF 		bl      _port_lock
 699              	@ 0 "" 2
 700              		.loc 1 276 0
 701              		.thumb
 702 0026 039B     		ldr	r3, [sp, #12]
 703 0028 1B78     		ldrb	r3, [r3]	@ zero_extendqisi2
 704 002a 022B     		cmp	r3, #2
 705 002c 02D0     		beq	.L45
 706              		.loc 1 276 0 is_stmt 0 discriminator 1
 707 002e 0948     		ldr	r0, .L46+4
 708 0030 FFF7FEFF 		bl	chDbgPanic
 709              	.L45:
 710              		.loc 1 277 0 is_stmt 1
 711 0034 039B     		ldr	r3, [sp, #12]
 712 0036 0322     		movs	r2, #3
 713 0038 1A70     		strb	r2, [r3]
 714 003a 0398     		ldr	r0, [sp, #12]
 715 003c 0299     		ldr	r1, [sp, #8]
 716 003e 019A     		ldr	r2, [sp, #4]
 717 0040 FFF7FEFF 		bl	spi_lld_receive
 718              		.loc 1 278 0
 719              	@ 278 "/home/makkmarci/workspace/ChibiOS_2.6.8/os/hal/src/spi.c" 1
 720 0044 FFF7FEFF 		bl      _port_unlock
 721              	@ 0 "" 2
 722              		.loc 1 279 0
 723              		.thumb
 724 0048 05B0     		add	sp, sp, #20
 725              		.cfi_def_cfa_offset 4
 726              		@ sp needed
 727 004a 5DF804FB 		ldr	pc, [sp], #4
 728              	.L47:
 729 004e 00BF     		.align	2
 730              	.L46:
 731 0050 04010000 		.word	.LC14
 732 0054 18010000 		.word	.LC15
 733              		.cfi_endproc
 734              	.LFE120:
 735              		.size	spiStartReceive, .-spiStartReceive
 736 0058 AFF30080 		.section	.rodata
 736      AFF30080 
 737 012e 0000     		.align	2
ARM GAS  /tmp/ccExBtuE.s 			page 15


 738              	.LC16:
 739 0130 22737069 		.ascii	"\"spiIgnoreWait\"()\000"
 739      49676E6F 
 739      72655761 
 739      69742228 
 739      2900
 740 0142 0000     		.align	2
 741              	.LC17:
 742 0144 73706949 		.ascii	"spiIgnore(), #1\000"
 742      676E6F72 
 742      6528292C 
 742      20233100 
 743              		.align	2
 744              	.LC18:
 745 0154 73706949 		.ascii	"spiIgnore(), #2\000"
 745      676E6F72 
 745      6528292C 
 745      20233200 
 746              		.align	2
 747              	.LC19:
 748 0164 5F737069 		.ascii	"_spi_wait(), #1\000"
 748      5F776169 
 748      7428292C 
 748      20233100 
 749              		.section	.text.spiIgnore,"ax",%progbits
 750              		.align	2
 751              		.p2align 4,,15
 752              		.global	spiIgnore
 753              		.thumb
 754              		.thumb_func
 755              		.type	spiIgnore, %function
 756              	spiIgnore:
 757              	.LFB121:
 758              		.loc 1 296 0
 759              		.cfi_startproc
 760              		@ args = 0, pretend = 0, frame = 8
 761              		@ frame_needed = 0, uses_anonymous_args = 0
 762 0000 00B5     		push	{lr}
 763              		.cfi_def_cfa_offset 4
 764              		.cfi_offset 14, -4
 765 0002 83B0     		sub	sp, sp, #12
 766              		.cfi_def_cfa_offset 16
 767 0004 0190     		str	r0, [sp, #4]
 768 0006 0091     		str	r1, [sp]
 769              		.loc 1 298 0
 770 0008 019B     		ldr	r3, [sp, #4]
 771 000a 002B     		cmp	r3, #0
 772 000c 02D0     		beq	.L49
 773              		.loc 1 298 0 is_stmt 0 discriminator 2
 774 000e 009B     		ldr	r3, [sp]
 775 0010 002B     		cmp	r3, #0
 776 0012 02D1     		bne	.L50
 777              	.L49:
 778              		.loc 1 298 0 discriminator 3
 779 0014 1648     		ldr	r0, .L54
 780 0016 FFF7FEFF 		bl	chDbgPanic
 781              	.L50:
ARM GAS  /tmp/ccExBtuE.s 			page 16


 782              		.loc 1 300 0 is_stmt 1
 783              	@ 300 "/home/makkmarci/workspace/ChibiOS_2.6.8/os/hal/src/spi.c" 1
 784 001a FFF7FEFF 		bl      _port_lock
 785              	@ 0 "" 2
 786              		.loc 1 301 0
 787              		.thumb
 788 001e 019B     		ldr	r3, [sp, #4]
 789 0020 1B78     		ldrb	r3, [r3]	@ zero_extendqisi2
 790 0022 022B     		cmp	r3, #2
 791 0024 02D0     		beq	.L51
 792              		.loc 1 301 0 is_stmt 0 discriminator 1
 793 0026 1348     		ldr	r0, .L54+4
 794 0028 FFF7FEFF 		bl	chDbgPanic
 795              	.L51:
 796              		.loc 1 302 0 is_stmt 1
 797 002c 019B     		ldr	r3, [sp, #4]
 798 002e 5B68     		ldr	r3, [r3, #4]
 799 0030 1B68     		ldr	r3, [r3]
 800 0032 002B     		cmp	r3, #0
 801 0034 02D0     		beq	.L52
 802              		.loc 1 302 0 is_stmt 0 discriminator 1
 803 0036 1048     		ldr	r0, .L54+8
 804 0038 FFF7FEFF 		bl	chDbgPanic
 805              	.L52:
 806              		.loc 1 303 0 is_stmt 1
 807 003c 019B     		ldr	r3, [sp, #4]
 808 003e 0322     		movs	r2, #3
 809 0040 1A70     		strb	r2, [r3]
 810 0042 0198     		ldr	r0, [sp, #4]
 811 0044 0099     		ldr	r1, [sp]
 812 0046 FFF7FEFF 		bl	spi_lld_ignore
 813              		.loc 1 304 0
 814 004a 019B     		ldr	r3, [sp, #4]
 815 004c 9B68     		ldr	r3, [r3, #8]
 816 004e 002B     		cmp	r3, #0
 817 0050 02D0     		beq	.L53
 818              		.loc 1 304 0 is_stmt 0 discriminator 1
 819 0052 0A48     		ldr	r0, .L54+12
 820 0054 FFF7FEFF 		bl	chDbgPanic
 821              	.L53:
 822              		.loc 1 304 0 discriminator 3
 823 0058 094B     		ldr	r3, .L54+16
 824 005a 9A69     		ldr	r2, [r3, #24]
 825 005c 019B     		ldr	r3, [sp, #4]
 826 005e 9A60     		str	r2, [r3, #8]
 827 0060 0220     		movs	r0, #2
 828 0062 FFF7FEFF 		bl	chSchGoSleepS
 829              		.loc 1 305 0 is_stmt 1 discriminator 3
 830              	@ 305 "/home/makkmarci/workspace/ChibiOS_2.6.8/os/hal/src/spi.c" 1
 831 0066 FFF7FEFF 		bl      _port_unlock
 832              	@ 0 "" 2
 833              		.loc 1 306 0 discriminator 3
 834              		.thumb
 835 006a 03B0     		add	sp, sp, #12
 836              		.cfi_def_cfa_offset 4
 837              		@ sp needed
 838 006c 5DF804FB 		ldr	pc, [sp], #4
ARM GAS  /tmp/ccExBtuE.s 			page 17


 839              	.L55:
 840              		.align	2
 841              	.L54:
 842 0070 30010000 		.word	.LC16
 843 0074 44010000 		.word	.LC17
 844 0078 54010000 		.word	.LC18
 845 007c 64010000 		.word	.LC19
 846 0080 00000000 		.word	rlist
 847              		.cfi_endproc
 848              	.LFE121:
 849              		.size	spiIgnore, .-spiIgnore
 850 0084 AFF30080 		.section	.rodata
 850      AFF30080 
 850      AFF30080 
 851              		.align	2
 852              	.LC20:
 853 0174 22737069 		.ascii	"\"spiExchange\"()\000"
 853      45786368 
 853      616E6765 
 853      22282900 
 854              		.align	2
 855              	.LC21:
 856 0184 73706945 		.ascii	"spiExchange(), #1\000"
 856      78636861 
 856      6E676528 
 856      292C2023 
 856      3100
 857 0196 0000     		.align	2
 858              	.LC22:
 859 0198 73706945 		.ascii	"spiExchange(), #2\000"
 859      78636861 
 859      6E676528 
 859      292C2023 
 859      3200
 860              		.section	.text.spiExchange,"ax",%progbits
 861              		.align	2
 862              		.p2align 4,,15
 863              		.global	spiExchange
 864              		.thumb
 865              		.thumb_func
 866              		.type	spiExchange, %function
 867              	spiExchange:
 868              	.LFB122:
 869              		.loc 1 327 0
 870              		.cfi_startproc
 871              		@ args = 0, pretend = 0, frame = 16
 872              		@ frame_needed = 0, uses_anonymous_args = 0
 873 0000 00B5     		push	{lr}
 874              		.cfi_def_cfa_offset 4
 875              		.cfi_offset 14, -4
 876 0002 85B0     		sub	sp, sp, #20
 877              		.cfi_def_cfa_offset 24
 878 0004 0390     		str	r0, [sp, #12]
 879 0006 0291     		str	r1, [sp, #8]
 880 0008 0192     		str	r2, [sp, #4]
 881 000a 0093     		str	r3, [sp]
 882              		.loc 1 329 0
ARM GAS  /tmp/ccExBtuE.s 			page 18


 883 000c 039B     		ldr	r3, [sp, #12]
 884 000e 002B     		cmp	r3, #0
 885 0010 08D0     		beq	.L57
 886              		.loc 1 329 0 is_stmt 0 discriminator 2
 887 0012 029B     		ldr	r3, [sp, #8]
 888 0014 002B     		cmp	r3, #0
 889 0016 05D0     		beq	.L57
 890              		.loc 1 329 0 discriminator 4
 891 0018 009B     		ldr	r3, [sp]
 892 001a 002B     		cmp	r3, #0
 893 001c 02D0     		beq	.L57
 894              		.loc 1 329 0 discriminator 6
 895 001e 019B     		ldr	r3, [sp, #4]
 896 0020 002B     		cmp	r3, #0
 897 0022 02D1     		bne	.L58
 898              	.L57:
 899              		.loc 1 329 0 discriminator 7
 900 0024 1748     		ldr	r0, .L62
 901 0026 FFF7FEFF 		bl	chDbgPanic
 902              	.L58:
 903              		.loc 1 332 0 is_stmt 1
 904              	@ 332 "/home/makkmarci/workspace/ChibiOS_2.6.8/os/hal/src/spi.c" 1
 905 002a FFF7FEFF 		bl      _port_lock
 906              	@ 0 "" 2
 907              		.loc 1 333 0
 908              		.thumb
 909 002e 039B     		ldr	r3, [sp, #12]
 910 0030 1B78     		ldrb	r3, [r3]	@ zero_extendqisi2
 911 0032 022B     		cmp	r3, #2
 912 0034 02D0     		beq	.L59
 913              		.loc 1 333 0 is_stmt 0 discriminator 1
 914 0036 1448     		ldr	r0, .L62+4
 915 0038 FFF7FEFF 		bl	chDbgPanic
 916              	.L59:
 917              		.loc 1 334 0 is_stmt 1
 918 003c 039B     		ldr	r3, [sp, #12]
 919 003e 5B68     		ldr	r3, [r3, #4]
 920 0040 1B68     		ldr	r3, [r3]
 921 0042 002B     		cmp	r3, #0
 922 0044 02D0     		beq	.L60
 923              		.loc 1 334 0 is_stmt 0 discriminator 1
 924 0046 1148     		ldr	r0, .L62+8
 925 0048 FFF7FEFF 		bl	chDbgPanic
 926              	.L60:
 927              		.loc 1 336 0 is_stmt 1
 928 004c 039B     		ldr	r3, [sp, #12]
 929 004e 0322     		movs	r2, #3
 930 0050 1A70     		strb	r2, [r3]
 931 0052 0398     		ldr	r0, [sp, #12]
 932 0054 0299     		ldr	r1, [sp, #8]
 933 0056 019A     		ldr	r2, [sp, #4]
 934 0058 009B     		ldr	r3, [sp]
 935 005a FFF7FEFF 		bl	spi_lld_exchange
 936              		.loc 1 337 0
 937 005e 039B     		ldr	r3, [sp, #12]
 938 0060 9B68     		ldr	r3, [r3, #8]
 939 0062 002B     		cmp	r3, #0
ARM GAS  /tmp/ccExBtuE.s 			page 19


 940 0064 02D0     		beq	.L61
 941              		.loc 1 337 0 is_stmt 0 discriminator 1
 942 0066 0A48     		ldr	r0, .L62+12
 943 0068 FFF7FEFF 		bl	chDbgPanic
 944              	.L61:
 945              		.loc 1 337 0 discriminator 3
 946 006c 094B     		ldr	r3, .L62+16
 947 006e 9A69     		ldr	r2, [r3, #24]
 948 0070 039B     		ldr	r3, [sp, #12]
 949 0072 9A60     		str	r2, [r3, #8]
 950 0074 0220     		movs	r0, #2
 951 0076 FFF7FEFF 		bl	chSchGoSleepS
 952              		.loc 1 338 0 is_stmt 1 discriminator 3
 953              	@ 338 "/home/makkmarci/workspace/ChibiOS_2.6.8/os/hal/src/spi.c" 1
 954 007a FFF7FEFF 		bl      _port_unlock
 955              	@ 0 "" 2
 956              		.loc 1 339 0 discriminator 3
 957              		.thumb
 958 007e 05B0     		add	sp, sp, #20
 959              		.cfi_def_cfa_offset 4
 960              		@ sp needed
 961 0080 5DF804FB 		ldr	pc, [sp], #4
 962              	.L63:
 963              		.align	2
 964              	.L62:
 965 0084 74010000 		.word	.LC20
 966 0088 84010000 		.word	.LC21
 967 008c 98010000 		.word	.LC22
 968 0090 64010000 		.word	.LC19
 969 0094 00000000 		.word	rlist
 970              		.cfi_endproc
 971              	.LFE122:
 972              		.size	spiExchange, .-spiExchange
 973 0098 AFF30080 		.section	.rodata
 973      AFF30080 
 974 01aa 0000     		.align	2
 975              	.LC23:
 976 01ac 22737069 		.ascii	"\"spiSend\"()\000"
 976      53656E64 
 976      22282900 
 977              		.align	2
 978              	.LC24:
 979 01b8 73706953 		.ascii	"spiSend(), #1\000"
 979      656E6428 
 979      292C2023 
 979      3100
 980 01c6 0000     		.align	2
 981              	.LC25:
 982 01c8 73706953 		.ascii	"spiSend(), #2\000"
 982      656E6428 
 982      292C2023 
 982      3200
 983              		.section	.text.spiSend,"ax",%progbits
 984              		.align	2
 985              		.p2align 4,,15
 986              		.global	spiSend
 987              		.thumb
ARM GAS  /tmp/ccExBtuE.s 			page 20


 988              		.thumb_func
 989              		.type	spiSend, %function
 990              	spiSend:
 991              	.LFB123:
 992              		.loc 1 357 0
 993              		.cfi_startproc
 994              		@ args = 0, pretend = 0, frame = 16
 995              		@ frame_needed = 0, uses_anonymous_args = 0
 996 0000 00B5     		push	{lr}
 997              		.cfi_def_cfa_offset 4
 998              		.cfi_offset 14, -4
 999 0002 85B0     		sub	sp, sp, #20
 1000              		.cfi_def_cfa_offset 24
 1001 0004 0390     		str	r0, [sp, #12]
 1002 0006 0291     		str	r1, [sp, #8]
 1003 0008 0192     		str	r2, [sp, #4]
 1004              		.loc 1 359 0
 1005 000a 039B     		ldr	r3, [sp, #12]
 1006 000c 002B     		cmp	r3, #0
 1007 000e 05D0     		beq	.L65
 1008              		.loc 1 359 0 is_stmt 0 discriminator 2
 1009 0010 029B     		ldr	r3, [sp, #8]
 1010 0012 002B     		cmp	r3, #0
 1011 0014 02D0     		beq	.L65
 1012              		.loc 1 359 0 discriminator 4
 1013 0016 019B     		ldr	r3, [sp, #4]
 1014 0018 002B     		cmp	r3, #0
 1015 001a 02D1     		bne	.L66
 1016              	.L65:
 1017              		.loc 1 359 0 discriminator 5
 1018 001c 1748     		ldr	r0, .L70
 1019 001e FFF7FEFF 		bl	chDbgPanic
 1020              	.L66:
 1021              		.loc 1 361 0 is_stmt 1
 1022              	@ 361 "/home/makkmarci/workspace/ChibiOS_2.6.8/os/hal/src/spi.c" 1
 1023 0022 FFF7FEFF 		bl      _port_lock
 1024              	@ 0 "" 2
 1025              		.loc 1 362 0
 1026              		.thumb
 1027 0026 039B     		ldr	r3, [sp, #12]
 1028 0028 1B78     		ldrb	r3, [r3]	@ zero_extendqisi2
 1029 002a 022B     		cmp	r3, #2
 1030 002c 02D0     		beq	.L67
 1031              		.loc 1 362 0 is_stmt 0 discriminator 1
 1032 002e 1448     		ldr	r0, .L70+4
 1033 0030 FFF7FEFF 		bl	chDbgPanic
 1034              	.L67:
 1035              		.loc 1 363 0 is_stmt 1
 1036 0034 039B     		ldr	r3, [sp, #12]
 1037 0036 5B68     		ldr	r3, [r3, #4]
 1038 0038 1B68     		ldr	r3, [r3]
 1039 003a 002B     		cmp	r3, #0
 1040 003c 02D0     		beq	.L68
 1041              		.loc 1 363 0 is_stmt 0 discriminator 1
 1042 003e 1148     		ldr	r0, .L70+8
 1043 0040 FFF7FEFF 		bl	chDbgPanic
 1044              	.L68:
ARM GAS  /tmp/ccExBtuE.s 			page 21


 1045              		.loc 1 364 0 is_stmt 1
 1046 0044 039B     		ldr	r3, [sp, #12]
 1047 0046 0322     		movs	r2, #3
 1048 0048 1A70     		strb	r2, [r3]
 1049 004a 0398     		ldr	r0, [sp, #12]
 1050 004c 0299     		ldr	r1, [sp, #8]
 1051 004e 019A     		ldr	r2, [sp, #4]
 1052 0050 FFF7FEFF 		bl	spi_lld_send
 1053              		.loc 1 365 0
 1054 0054 039B     		ldr	r3, [sp, #12]
 1055 0056 9B68     		ldr	r3, [r3, #8]
 1056 0058 002B     		cmp	r3, #0
 1057 005a 02D0     		beq	.L69
 1058              		.loc 1 365 0 is_stmt 0 discriminator 1
 1059 005c 0A48     		ldr	r0, .L70+12
 1060 005e FFF7FEFF 		bl	chDbgPanic
 1061              	.L69:
 1062              		.loc 1 365 0 discriminator 3
 1063 0062 0A4B     		ldr	r3, .L70+16
 1064 0064 9A69     		ldr	r2, [r3, #24]
 1065 0066 039B     		ldr	r3, [sp, #12]
 1066 0068 9A60     		str	r2, [r3, #8]
 1067 006a 0220     		movs	r0, #2
 1068 006c FFF7FEFF 		bl	chSchGoSleepS
 1069              		.loc 1 366 0 is_stmt 1 discriminator 3
 1070              	@ 366 "/home/makkmarci/workspace/ChibiOS_2.6.8/os/hal/src/spi.c" 1
 1071 0070 FFF7FEFF 		bl      _port_unlock
 1072              	@ 0 "" 2
 1073              		.loc 1 367 0 discriminator 3
 1074              		.thumb
 1075 0074 05B0     		add	sp, sp, #20
 1076              		.cfi_def_cfa_offset 4
 1077              		@ sp needed
 1078 0076 5DF804FB 		ldr	pc, [sp], #4
 1079              	.L71:
 1080 007a 00BF     		.align	2
 1081              	.L70:
 1082 007c AC010000 		.word	.LC23
 1083 0080 B8010000 		.word	.LC24
 1084 0084 C8010000 		.word	.LC25
 1085 0088 64010000 		.word	.LC19
 1086 008c 00000000 		.word	rlist
 1087              		.cfi_endproc
 1088              	.LFE123:
 1089              		.size	spiSend, .-spiSend
 1090              		.section	.rodata
 1091 01d6 0000     		.align	2
 1092              	.LC26:
 1093 01d8 22737069 		.ascii	"\"spiReceive\"()\000"
 1093      52656365 
 1093      69766522 
 1093      282900
 1094 01e7 00       		.align	2
 1095              	.LC27:
 1096 01e8 73706952 		.ascii	"spiReceive(), #1\000"
 1096      65636569 
 1096      76652829 
ARM GAS  /tmp/ccExBtuE.s 			page 22


 1096      2C202331 
 1096      00
 1097 01f9 000000   		.align	2
 1098              	.LC28:
 1099 01fc 73706952 		.ascii	"spiReceive(), #2\000"
 1099      65636569 
 1099      76652829 
 1099      2C202332 
 1099      00
 1100              		.section	.text.spiReceive,"ax",%progbits
 1101              		.align	2
 1102              		.p2align 4,,15
 1103              		.global	spiReceive
 1104              		.thumb
 1105              		.thumb_func
 1106              		.type	spiReceive, %function
 1107              	spiReceive:
 1108              	.LFB124:
 1109              		.loc 1 385 0
 1110              		.cfi_startproc
 1111              		@ args = 0, pretend = 0, frame = 16
 1112              		@ frame_needed = 0, uses_anonymous_args = 0
 1113 0000 00B5     		push	{lr}
 1114              		.cfi_def_cfa_offset 4
 1115              		.cfi_offset 14, -4
 1116 0002 85B0     		sub	sp, sp, #20
 1117              		.cfi_def_cfa_offset 24
 1118 0004 0390     		str	r0, [sp, #12]
 1119 0006 0291     		str	r1, [sp, #8]
 1120 0008 0192     		str	r2, [sp, #4]
 1121              		.loc 1 387 0
 1122 000a 039B     		ldr	r3, [sp, #12]
 1123 000c 002B     		cmp	r3, #0
 1124 000e 05D0     		beq	.L73
 1125              		.loc 1 387 0 is_stmt 0 discriminator 2
 1126 0010 029B     		ldr	r3, [sp, #8]
 1127 0012 002B     		cmp	r3, #0
 1128 0014 02D0     		beq	.L73
 1129              		.loc 1 387 0 discriminator 4
 1130 0016 019B     		ldr	r3, [sp, #4]
 1131 0018 002B     		cmp	r3, #0
 1132 001a 02D1     		bne	.L74
 1133              	.L73:
 1134              		.loc 1 387 0 discriminator 5
 1135 001c 1748     		ldr	r0, .L78
 1136 001e FFF7FEFF 		bl	chDbgPanic
 1137              	.L74:
 1138              		.loc 1 390 0 is_stmt 1
 1139              	@ 390 "/home/makkmarci/workspace/ChibiOS_2.6.8/os/hal/src/spi.c" 1
 1140 0022 FFF7FEFF 		bl      _port_lock
 1141              	@ 0 "" 2
 1142              		.loc 1 391 0
 1143              		.thumb
 1144 0026 039B     		ldr	r3, [sp, #12]
 1145 0028 1B78     		ldrb	r3, [r3]	@ zero_extendqisi2
 1146 002a 022B     		cmp	r3, #2
 1147 002c 02D0     		beq	.L75
ARM GAS  /tmp/ccExBtuE.s 			page 23


 1148              		.loc 1 391 0 is_stmt 0 discriminator 1
 1149 002e 1448     		ldr	r0, .L78+4
 1150 0030 FFF7FEFF 		bl	chDbgPanic
 1151              	.L75:
 1152              		.loc 1 392 0 is_stmt 1
 1153 0034 039B     		ldr	r3, [sp, #12]
 1154 0036 5B68     		ldr	r3, [r3, #4]
 1155 0038 1B68     		ldr	r3, [r3]
 1156 003a 002B     		cmp	r3, #0
 1157 003c 02D0     		beq	.L76
 1158              		.loc 1 392 0 is_stmt 0 discriminator 1
 1159 003e 1148     		ldr	r0, .L78+8
 1160 0040 FFF7FEFF 		bl	chDbgPanic
 1161              	.L76:
 1162              		.loc 1 394 0 is_stmt 1
 1163 0044 039B     		ldr	r3, [sp, #12]
 1164 0046 0322     		movs	r2, #3
 1165 0048 1A70     		strb	r2, [r3]
 1166 004a 0398     		ldr	r0, [sp, #12]
 1167 004c 0299     		ldr	r1, [sp, #8]
 1168 004e 019A     		ldr	r2, [sp, #4]
 1169 0050 FFF7FEFF 		bl	spi_lld_receive
 1170              		.loc 1 395 0
 1171 0054 039B     		ldr	r3, [sp, #12]
 1172 0056 9B68     		ldr	r3, [r3, #8]
 1173 0058 002B     		cmp	r3, #0
 1174 005a 02D0     		beq	.L77
 1175              		.loc 1 395 0 is_stmt 0 discriminator 1
 1176 005c 0A48     		ldr	r0, .L78+12
 1177 005e FFF7FEFF 		bl	chDbgPanic
 1178              	.L77:
 1179              		.loc 1 395 0 discriminator 3
 1180 0062 0A4B     		ldr	r3, .L78+16
 1181 0064 9A69     		ldr	r2, [r3, #24]
 1182 0066 039B     		ldr	r3, [sp, #12]
 1183 0068 9A60     		str	r2, [r3, #8]
 1184 006a 0220     		movs	r0, #2
 1185 006c FFF7FEFF 		bl	chSchGoSleepS
 1186              		.loc 1 396 0 is_stmt 1 discriminator 3
 1187              	@ 396 "/home/makkmarci/workspace/ChibiOS_2.6.8/os/hal/src/spi.c" 1
 1188 0070 FFF7FEFF 		bl      _port_unlock
 1189              	@ 0 "" 2
 1190              		.loc 1 397 0 discriminator 3
 1191              		.thumb
 1192 0074 05B0     		add	sp, sp, #20
 1193              		.cfi_def_cfa_offset 4
 1194              		@ sp needed
 1195 0076 5DF804FB 		ldr	pc, [sp], #4
 1196              	.L79:
 1197 007a 00BF     		.align	2
 1198              	.L78:
 1199 007c D8010000 		.word	.LC26
 1200 0080 E8010000 		.word	.LC27
 1201 0084 FC010000 		.word	.LC28
 1202 0088 64010000 		.word	.LC19
 1203 008c 00000000 		.word	rlist
 1204              		.cfi_endproc
ARM GAS  /tmp/ccExBtuE.s 			page 24


 1205              	.LFE124:
 1206              		.size	spiReceive, .-spiReceive
 1207              		.section	.rodata
 1208 020d 000000   		.align	2
 1209              	.LC29:
 1210 0210 22737069 		.ascii	"\"spiAcquireBus\"()\000"
 1210      41637175 
 1210      69726542 
 1210      75732228 
 1210      2900
 1211              		.section	.text.spiAcquireBus,"ax",%progbits
 1212              		.align	2
 1213              		.p2align 4,,15
 1214              		.global	spiAcquireBus
 1215              		.thumb
 1216              		.thumb_func
 1217              		.type	spiAcquireBus, %function
 1218              	spiAcquireBus:
 1219              	.LFB125:
 1220              		.loc 1 412 0
 1221              		.cfi_startproc
 1222              		@ args = 0, pretend = 0, frame = 8
 1223              		@ frame_needed = 0, uses_anonymous_args = 0
 1224 0000 00B5     		push	{lr}
 1225              		.cfi_def_cfa_offset 4
 1226              		.cfi_offset 14, -4
 1227 0002 83B0     		sub	sp, sp, #12
 1228              		.cfi_def_cfa_offset 16
 1229 0004 0190     		str	r0, [sp, #4]
 1230              		.loc 1 414 0
 1231 0006 019B     		ldr	r3, [sp, #4]
 1232 0008 002B     		cmp	r3, #0
 1233 000a 02D1     		bne	.L81
 1234              		.loc 1 414 0 is_stmt 0 discriminator 1
 1235 000c 0548     		ldr	r0, .L82
 1236 000e FFF7FEFF 		bl	chDbgPanic
 1237              	.L81:
 1238              		.loc 1 417 0 is_stmt 1
 1239 0012 019B     		ldr	r3, [sp, #4]
 1240 0014 0C33     		adds	r3, r3, #12
 1241 0016 1846     		mov	r0, r3
 1242 0018 FFF7FEFF 		bl	chMtxLock
 1243              		.loc 1 421 0
 1244 001c 03B0     		add	sp, sp, #12
 1245              		.cfi_def_cfa_offset 4
 1246              		@ sp needed
 1247 001e 5DF804FB 		ldr	pc, [sp], #4
 1248              	.L83:
 1249 0022 00BF     		.align	2
 1250              	.L82:
 1251 0024 10020000 		.word	.LC29
 1252              		.cfi_endproc
 1253              	.LFE125:
 1254              		.size	spiAcquireBus, .-spiAcquireBus
 1255 0028 AFF30080 		.section	.rodata
 1255      AFF30080 
 1256 0222 0000     		.align	2
ARM GAS  /tmp/ccExBtuE.s 			page 25


 1257              	.LC30:
 1258 0224 22737069 		.ascii	"\"spiReleaseBus\"()\000"
 1258      52656C65 
 1258      61736542 
 1258      75732228 
 1258      2900
 1259 0236 0000     		.section	.text.spiReleaseBus,"ax",%progbits
 1260              		.align	2
 1261              		.p2align 4,,15
 1262              		.global	spiReleaseBus
 1263              		.thumb
 1264              		.thumb_func
 1265              		.type	spiReleaseBus, %function
 1266              	spiReleaseBus:
 1267              	.LFB126:
 1268              		.loc 1 432 0
 1269              		.cfi_startproc
 1270              		@ args = 0, pretend = 0, frame = 8
 1271              		@ frame_needed = 0, uses_anonymous_args = 0
 1272 0000 00B5     		push	{lr}
 1273              		.cfi_def_cfa_offset 4
 1274              		.cfi_offset 14, -4
 1275 0002 83B0     		sub	sp, sp, #12
 1276              		.cfi_def_cfa_offset 16
 1277 0004 0190     		str	r0, [sp, #4]
 1278              		.loc 1 434 0
 1279 0006 019B     		ldr	r3, [sp, #4]
 1280 0008 002B     		cmp	r3, #0
 1281 000a 02D1     		bne	.L85
 1282              		.loc 1 434 0 is_stmt 0 discriminator 1
 1283 000c 0348     		ldr	r0, .L86
 1284 000e FFF7FEFF 		bl	chDbgPanic
 1285              	.L85:
 1286              		.loc 1 438 0 is_stmt 1
 1287 0012 FFF7FEFF 		bl	chMtxUnlock
 1288              		.loc 1 442 0
 1289 0016 03B0     		add	sp, sp, #12
 1290              		.cfi_def_cfa_offset 4
 1291              		@ sp needed
 1292 0018 5DF804FB 		ldr	pc, [sp], #4
 1293              	.L87:
 1294              		.align	2
 1295              	.L86:
 1296 001c 24020000 		.word	.LC30
 1297              		.cfi_endproc
 1298              	.LFE126:
 1299              		.size	spiReleaseBus, .-spiReleaseBus
 1300              		.text
 1301              	.Letext0:
 1302              		.file 2 "/opt/gcc-arm-none-eabi/lib/gcc/arm-none-eabi/4.9.3/include/stddef.h"
 1303              		.file 3 "/opt/gcc-arm-none-eabi/arm-none-eabi/include/machine/_default_types.h"
 1304              		.file 4 "/opt/gcc-arm-none-eabi/arm-none-eabi/include/stdint.h"
 1305              		.file 5 "/home/makkmarci/workspace/ChibiOS_2.6.8/os/ports/GCC/ARMCMx/chtypes.h"
 1306              		.file 6 "/home/makkmarci/workspace/ChibiOS_2.6.8/os/kernel/include/chlists.h"
 1307              		.file 7 "/home/makkmarci/workspace/ChibiOS_2.6.8/os/kernel/include/chthreads.h"
 1308              		.file 8 "/home/makkmarci/workspace/ChibiOS_2.6.8/os/ports/GCC/ARMCMx/chcore_v7m.h"
 1309              		.file 9 "/home/makkmarci/workspace/ChibiOS_2.6.8/os/kernel/include/chschd.h"
ARM GAS  /tmp/ccExBtuE.s 			page 26


 1310              		.file 10 "/home/makkmarci/workspace/ChibiOS_2.6.8/os/kernel/include/chmtx.h"
 1311              		.file 11 "/home/makkmarci/workspace/ChibiOS_2.6.8/os/hal/platforms/STM32F4xx/stm32f4xx.h"
 1312              		.file 12 "/home/makkmarci/workspace/ChibiOS_2.6.8/os/hal/platforms/STM32F4xx/stm32_dma.h"
 1313              		.file 13 "/home/makkmarci/workspace/ChibiOS_2.6.8/os/hal/platforms/STM32/GPIOv2/pal_lld.h"
 1314              		.file 14 "/home/makkmarci/workspace/ChibiOS_2.6.8/os/hal/include/spi.h"
 1315              		.file 15 "/home/makkmarci/workspace/ChibiOS_2.6.8/os/hal/platforms/STM32/SPIv1/spi_lld.h"
 1316              		.file 16 "/home/makkmarci/workspace/ChibiOS_2.6.8/os/ports/common/ARMCMx/CMSIS/include/core_cm4.h"