ARM GAS  /tmp/ccPJkY7a.s 			page 1


   1              		.syntax unified
   2              		.cpu cortex-m4
   3              		.eabi_attribute 27, 3
   4              		.eabi_attribute 28, 1
   5              		.fpu fpv4-sp-d16
   6              		.eabi_attribute 20, 1
   7              		.eabi_attribute 21, 1
   8              		.eabi_attribute 23, 3
   9              		.eabi_attribute 24, 1
  10              		.eabi_attribute 25, 1
  11              		.eabi_attribute 26, 1
  12              		.eabi_attribute 30, 2
  13              		.eabi_attribute 34, 1
  14              		.eabi_attribute 18, 4
  15              		.thumb
  16              		.file	"spi_lld.c"
  17              		.text
  18              	.Ltext0:
  19              		.cfi_sections	.debug_frame
  20              		.section	.text.spi_lld_serve_tx_interrupt,"ax",%progbits
  21              		.align	2
  22              		.p2align 4,,15
  23              		.thumb
  24              		.thumb_func
  25              		.type	spi_lld_serve_tx_interrupt, %function
  26              	spi_lld_serve_tx_interrupt:
  27              	.LFB119:
  28              		.file 1 "../../os/hal/platforms/STM32/SPIv1/spi_lld.c"
  29              		.loc 1 159 0
  30              		.cfi_startproc
  31              		@ args = 0, pretend = 0, frame = 0
  32              		@ frame_needed = 0, uses_anonymous_args = 0
  33              		@ link register save eliminated.
  34              	.LVL0:
  35              		.loc 1 164 0
  36 0000 11F00C0F 		tst	r1, #12
  37 0004 00D1     		bne	.L4
  38 0006 7047     		bx	lr
  39              	.L4:
  40              		.loc 1 165 0
  41 0008 FFF7FEBF 		b	port_halt
  42              	.LVL1:
  43              		.cfi_endproc
  44              	.LFE119:
  45              		.size	spi_lld_serve_tx_interrupt, .-spi_lld_serve_tx_interrupt
  46 000c AFF30080 		.section	.text.spi_lld_serve_rx_interrupt,"ax",%progbits
  47              		.align	2
  48              		.p2align 4,,15
  49              		.thumb
  50              		.thumb_func
  51              		.type	spi_lld_serve_rx_interrupt, %function
  52              	spi_lld_serve_rx_interrupt:
  53              	.LFB118:
  54              		.loc 1 133 0
  55              		.cfi_startproc
  56              		@ args = 0, pretend = 0, frame = 0
  57              		@ frame_needed = 0, uses_anonymous_args = 0
ARM GAS  /tmp/ccPJkY7a.s 			page 2


  58              	.LVL2:
  59              		.loc 1 137 0
  60 0000 11F00C0F 		tst	r1, #12
  61              		.loc 1 133 0
  62 0004 38B5     		push	{r3, r4, r5, lr}
  63              		.cfi_def_cfa_offset 16
  64              		.cfi_offset 3, -16
  65              		.cfi_offset 4, -12
  66              		.cfi_offset 5, -8
  67              		.cfi_offset 14, -4
  68              		.loc 1 133 0
  69 0006 0446     		mov	r4, r0
  70              		.loc 1 137 0
  71 0008 3BD1     		bne	.L20
  72              	.LVL3:
  73              	.L6:
  74              		.loc 1 145 0
  75 000a 606A     		ldr	r0, [r4, #36]
  76 000c 0268     		ldr	r2, [r0]
  77 000e 1368     		ldr	r3, [r2]
  78 0010 23F01F03 		bic	r3, r3, #31
  79 0014 1360     		str	r3, [r2]
  80              	.L8:
  81              		.loc 1 145 0 is_stmt 0 discriminator 1
  82 0016 1368     		ldr	r3, [r2]
  83 0018 D907     		lsls	r1, r3, #31
  84 001a FCD4     		bmi	.L8
  85              		.loc 1 145 0 discriminator 2
  86 001c 057A     		ldrb	r5, [r0, #8]	@ zero_extendqisi2
  87              		.loc 1 146 0 is_stmt 1 discriminator 2
  88 001e 216A     		ldr	r1, [r4, #32]
  89              		.loc 1 145 0 discriminator 2
  90 0020 4368     		ldr	r3, [r0, #4]
  91              		.loc 1 146 0 discriminator 2
  92 0022 0A68     		ldr	r2, [r1]
  93              		.loc 1 145 0 discriminator 2
  94 0024 3D20     		movs	r0, #61
  95 0026 A840     		lsls	r0, r0, r5
  96 0028 1860     		str	r0, [r3]
  97              		.loc 1 146 0 discriminator 2
  98 002a 1368     		ldr	r3, [r2]
  99 002c 23F01F03 		bic	r3, r3, #31
 100 0030 1360     		str	r3, [r2]
 101              	.L10:
 102              		.loc 1 146 0 is_stmt 0 discriminator 1
 103 0032 1368     		ldr	r3, [r2]
 104 0034 DB07     		lsls	r3, r3, #31
 105 0036 FCD4     		bmi	.L10
 106              		.loc 1 150 0 is_stmt 1 discriminator 2
 107 0038 6368     		ldr	r3, [r4, #4]
 108              		.loc 1 146 0 discriminator 2
 109 003a 087A     		ldrb	r0, [r1, #8]	@ zero_extendqisi2
 110 003c 4A68     		ldr	r2, [r1, #4]
 111              		.loc 1 150 0 discriminator 2
 112 003e 1B68     		ldr	r3, [r3]
 113              		.loc 1 146 0 discriminator 2
 114 0040 3D21     		movs	r1, #61
ARM GAS  /tmp/ccPJkY7a.s 			page 3


 115 0042 8140     		lsls	r1, r1, r0
 116 0044 1160     		str	r1, [r2]
 117              		.loc 1 150 0 discriminator 2
 118 0046 CBB1     		cbz	r3, .L11
 119              		.loc 1 150 0 is_stmt 0 discriminator 1
 120 0048 0422     		movs	r2, #4
 121 004a 2270     		strb	r2, [r4]
 122 004c 2046     		mov	r0, r4
 123 004e 9847     		blx	r3
 124              	.LVL4:
 125 0050 2378     		ldrb	r3, [r4]	@ zero_extendqisi2
 126 0052 042B     		cmp	r3, #4
 127 0054 12D0     		beq	.L11
 128              	.L12:
 129              	.LBB2:
 130 0056 2023     		movs	r3, #32
 131              	@ 150 "../../os/hal/platforms/STM32/SPIv1/spi_lld.c" 1
 132 0058 83F31188 		msr     BASEPRI, r3
 133              	@ 0 "" 2
 134              		.thumb
 135              	.LBE2:
 136 005c FFF7FEFF 		bl	dbg_check_lock_from_isr
 137              	.LVL5:
 138 0060 A368     		ldr	r3, [r4, #8]
 139 0062 2BB1     		cbz	r3, .L13
 140              	.LVL6:
 141              	.LBB3:
 142 0064 0022     		movs	r2, #0
 143 0066 A260     		str	r2, [r4, #8]
 144 0068 1846     		mov	r0, r3
 145 006a 9A62     		str	r2, [r3, #40]
 146 006c FFF7FEFF 		bl	chSchReadyI
 147              	.LVL7:
 148              	.L13:
 149              	.LBE3:
 150              		.loc 1 150 0 discriminator 2
 151 0070 FFF7FEFF 		bl	dbg_check_unlock_from_isr
 152              	.LVL8:
 153              	.LBB4:
 154 0074 0023     		movs	r3, #0
 155              	@ 150 "../../os/hal/platforms/STM32/SPIv1/spi_lld.c" 1
 156 0076 83F31188 		msr     BASEPRI, r3
 157              	@ 0 "" 2
 158              		.thumb
 159 007a 38BD     		pop	{r3, r4, r5, pc}
 160              	.LVL9:
 161              	.L11:
 162              	.LBE4:
 163 007c 0223     		movs	r3, #2
 164 007e 2370     		strb	r3, [r4]
 165 0080 E9E7     		b	.L12
 166              	.LVL10:
 167              	.L20:
 168              		.loc 1 138 0 is_stmt 1
 169 0082 FFF7FEFF 		bl	port_halt
 170              	.LVL11:
 171 0086 C0E7     		b	.L6
ARM GAS  /tmp/ccPJkY7a.s 			page 4


 172              		.cfi_endproc
 173              	.LFE118:
 174              		.size	spi_lld_serve_rx_interrupt, .-spi_lld_serve_rx_interrupt
 175 0088 AFF30080 		.section	.text.spi_lld_init,"ax",%progbits
 175      AFF30080 
 176              		.align	2
 177              		.p2align 4,,15
 178              		.global	spi_lld_init
 179              		.thumb
 180              		.thumb_func
 181              		.type	spi_lld_init, %function
 182              	spi_lld_init:
 183              	.LFB120:
 184              		.loc 1 186 0
 185              		.cfi_startproc
 186              		@ args = 0, pretend = 0, frame = 0
 187              		@ frame_needed = 0, uses_anonymous_args = 0
 188 0000 10B5     		push	{r4, lr}
 189              		.cfi_def_cfa_offset 8
 190              		.cfi_offset 4, -8
 191              		.cfi_offset 14, -4
 192              		.loc 1 209 0
 193 0002 0A4C     		ldr	r4, .L22
 194              		.loc 1 188 0
 195 0004 0A4B     		ldr	r3, .L22+4
 196 0006 4FF6FF72 		movw	r2, #65535
 197              		.loc 1 209 0
 198 000a 2046     		mov	r0, r4
 199              		.loc 1 188 0
 200 000c 1A80     		strh	r2, [r3]	@ movhi
 201              		.loc 1 209 0
 202 000e FFF7FEFF 		bl	spiObjectInit
 203              	.LVL12:
 204              		.loc 1 211 0
 205 0012 084B     		ldr	r3, .L22+8
 206              		.loc 1 210 0
 207 0014 0848     		ldr	r0, .L22+12
 208              		.loc 1 213 0
 209 0016 0949     		ldr	r1, .L22+16
 210              		.loc 1 219 0
 211 0018 094A     		ldr	r2, .L22+20
 212              		.loc 1 210 0
 213 001a E061     		str	r0, [r4, #28]
 214              		.loc 1 212 0
 215 001c 03F10C00 		add	r0, r3, #12
 216              		.loc 1 211 0
 217 0020 2362     		str	r3, [r4, #32]
 218              		.loc 1 212 0
 219 0022 6062     		str	r0, [r4, #36]
 220              		.loc 1 213 0
 221 0024 A162     		str	r1, [r4, #40]
 222              		.loc 1 219 0
 223 0026 E262     		str	r2, [r4, #44]
 224 0028 10BD     		pop	{r4, pc}
 225              	.L23:
 226 002a 00BF     		.align	2
 227              	.L22:
ARM GAS  /tmp/ccPJkY7a.s 			page 5


 228 002c 00000000 		.word	.LANCHOR1
 229 0030 00000000 		.word	.LANCHOR0
 230 0034 24000000 		.word	_stm32_dma_streams+36
 231 0038 00380040 		.word	1073756160
 232 003c 16000100 		.word	65558
 233 0040 46000100 		.word	65606
 234              		.cfi_endproc
 235              	.LFE120:
 236              		.size	spi_lld_init, .-spi_lld_init
 237 0044 AFF30080 		.section	.text.spi_lld_start,"ax",%progbits
 237      AFF30080 
 237      AFF30080 
 238              		.align	2
 239              		.p2align 4,,15
 240              		.global	spi_lld_start
 241              		.thumb
 242              		.thumb_func
 243              		.type	spi_lld_start, %function
 244              	spi_lld_start:
 245              	.LFB121:
 246              		.loc 1 306 0
 247              		.cfi_startproc
 248              		@ args = 0, pretend = 0, frame = 0
 249              		@ frame_needed = 0, uses_anonymous_args = 0
 250              	.LVL13:
 251 0000 38B5     		push	{r3, r4, r5, lr}
 252              		.cfi_def_cfa_offset 16
 253              		.cfi_offset 3, -16
 254              		.cfi_offset 4, -12
 255              		.cfi_offset 5, -8
 256              		.cfi_offset 14, -4
 257              		.loc 1 309 0
 258 0002 0378     		ldrb	r3, [r0]	@ zero_extendqisi2
 259 0004 012B     		cmp	r3, #1
 260              		.loc 1 306 0
 261 0006 0446     		mov	r4, r0
 262              		.loc 1 309 0
 263 0008 1DD0     		beq	.L38
 264 000a C369     		ldr	r3, [r0, #28]
 265              	.LVL14:
 266              	.L25:
 267              		.loc 1 413 0
 268 000c 6268     		ldr	r2, [r4, #4]
 269              		.loc 1 416 0
 270 000e A06A     		ldr	r0, [r4, #40]
 271              		.loc 1 413 0
 272 0010 5289     		ldrh	r2, [r2, #10]
 273              		.loc 1 418 0
 274 0012 E16A     		ldr	r1, [r4, #44]
 275              		.loc 1 416 0
 276 0014 20F4F040 		bic	r0, r0, #30720
 277              		.loc 1 418 0
 278 0018 21F4F041 		bic	r1, r1, #30720
 279              		.loc 1 413 0
 280 001c 1505     		lsls	r5, r2, #20
 281              		.loc 1 423 0
 282 001e 44BF     		itt	mi
ARM GAS  /tmp/ccPJkY7a.s 			page 6


 283 0020 40F42050 		orrmi	r0, r0, #10240
 284              		.loc 1 425 0
 285 0024 41F42051 		orrmi	r1, r1, #10240
 286              		.loc 1 422 0
 287 0028 A062     		str	r0, [r4, #40]
 288              		.loc 1 424 0
 289 002a E162     		str	r1, [r4, #44]
 290              		.loc 1 429 0
 291 002c 42F44172 		orr	r2, r2, #772
 292              		.loc 1 428 0
 293 0030 0020     		movs	r0, #0
 294              		.loc 1 431 0
 295 0032 0721     		movs	r1, #7
 296              		.loc 1 428 0
 297 0034 1880     		strh	r0, [r3]	@ movhi
 298              		.loc 1 429 0
 299 0036 1A80     		strh	r2, [r3]	@ movhi
 300              		.loc 1 431 0
 301 0038 9980     		strh	r1, [r3, #4]	@ movhi
 302              		.loc 1 432 0
 303 003a 1A88     		ldrh	r2, [r3]
 304 003c 92B2     		uxth	r2, r2
 305 003e 42F04002 		orr	r2, r2, #64
 306 0042 1A80     		strh	r2, [r3]	@ movhi
 307 0044 38BD     		pop	{r3, r4, r5, pc}
 308              	.LVL15:
 309              	.L38:
 310              		.loc 1 327 0
 311 0046 144D     		ldr	r5, .L43
 312 0048 A842     		cmp	r0, r5
 313 004a 09D0     		beq	.L40
 314              	.LVL16:
 315              	.L26:
 316              		.loc 1 408 0
 317 004c 216A     		ldr	r1, [r4, #32]
 318              		.loc 1 409 0
 319 004e 626A     		ldr	r2, [r4, #36]
 320              		.loc 1 408 0
 321 0050 E369     		ldr	r3, [r4, #28]
 322 0052 0868     		ldr	r0, [r1]
 323              		.loc 1 409 0
 324 0054 1168     		ldr	r1, [r2]
 325              		.loc 1 408 0
 326 0056 03F10C02 		add	r2, r3, #12
 327 005a 8260     		str	r2, [r0, #8]
 328              		.loc 1 409 0
 329 005c 8A60     		str	r2, [r1, #8]
 330 005e D5E7     		b	.L25
 331              	.LVL17:
 332              	.L40:
 333              	.LBB5:
 334              		.loc 1 329 0
 335 0060 006A     		ldr	r0, [r0, #32]
 336              	.LVL18:
 337 0062 0E4A     		ldr	r2, .L43+4
 338 0064 0A21     		movs	r1, #10
 339 0066 2346     		mov	r3, r4
ARM GAS  /tmp/ccPJkY7a.s 			page 7


 340 0068 FFF7FEFF 		bl	dmaStreamAllocate
 341              	.LVL19:
 342              		.loc 1 333 0
 343 006c 60B9     		cbnz	r0, .L41
 344              	.LVL20:
 345              	.L27:
 346              		.loc 1 334 0
 347 006e 686A     		ldr	r0, [r5, #36]
 348 0070 0B4A     		ldr	r2, .L43+8
 349 0072 094B     		ldr	r3, .L43
 350 0074 0A21     		movs	r1, #10
 351 0076 FFF7FEFF 		bl	dmaStreamAllocate
 352              	.LVL21:
 353              		.loc 1 338 0
 354 007a 48B9     		cbnz	r0, .L42
 355              	.LVL22:
 356              	.L28:
 357              		.loc 1 339 0
 358 007c 094B     		ldr	r3, .L43+12
 359 007e 1A6C     		ldr	r2, [r3, #64]
 360 0080 42F48042 		orr	r2, r2, #16384
 361 0084 1A64     		str	r2, [r3, #64]
 362 0086 E1E7     		b	.L26
 363              	.LVL23:
 364              	.L41:
 365              		.loc 1 333 0 discriminator 1
 366 0088 0748     		ldr	r0, .L43+16
 367              	.LVL24:
 368 008a FFF7FEFF 		bl	chDbgPanic
 369              	.LVL25:
 370 008e EEE7     		b	.L27
 371              	.LVL26:
 372              	.L42:
 373              		.loc 1 338 0 discriminator 1
 374 0090 0648     		ldr	r0, .L43+20
 375              	.LVL27:
 376 0092 FFF7FEFF 		bl	chDbgPanic
 377              	.LVL28:
 378 0096 F1E7     		b	.L28
 379              	.L44:
 380              		.align	2
 381              	.L43:
 382 0098 00000000 		.word	.LANCHOR1
 383 009c 00000000 		.word	spi_lld_serve_rx_interrupt
 384 00a0 00000000 		.word	spi_lld_serve_tx_interrupt
 385 00a4 00380240 		.word	1073887232
 386 00a8 00000000 		.word	.LC0
 387 00ac 14000000 		.word	.LC1
 388              	.LBE5:
 389              		.cfi_endproc
 390              	.LFE121:
 391              		.size	spi_lld_start, .-spi_lld_start
 392              		.section	.text.spi_lld_stop,"ax",%progbits
 393              		.align	2
 394              		.p2align 4,,15
 395              		.global	spi_lld_stop
 396              		.thumb
ARM GAS  /tmp/ccPJkY7a.s 			page 8


 397              		.thumb_func
 398              		.type	spi_lld_stop, %function
 399              	spi_lld_stop:
 400              	.LFB122:
 401              		.loc 1 442 0
 402              		.cfi_startproc
 403              		@ args = 0, pretend = 0, frame = 0
 404              		@ frame_needed = 0, uses_anonymous_args = 0
 405              	.LVL29:
 406              		.loc 1 445 0
 407 0000 0378     		ldrb	r3, [r0]	@ zero_extendqisi2
 408 0002 022B     		cmp	r3, #2
 409              		.loc 1 442 0
 410 0004 10B5     		push	{r4, lr}
 411              		.cfi_def_cfa_offset 8
 412              		.cfi_offset 4, -8
 413              		.cfi_offset 14, -4
 414              		.loc 1 442 0
 415 0006 0446     		mov	r4, r0
 416              		.loc 1 445 0
 417 0008 00D0     		beq	.L49
 418              	.LVL30:
 419              	.L45:
 420 000a 10BD     		pop	{r4, pc}
 421              	.LVL31:
 422              	.L49:
 423              		.loc 1 448 0
 424 000c C369     		ldr	r3, [r0, #28]
 425              		.loc 1 450 0
 426 000e 006A     		ldr	r0, [r0, #32]
 427              	.LVL32:
 428              		.loc 1 448 0
 429 0010 0022     		movs	r2, #0
 430 0012 1A80     		strh	r2, [r3]	@ movhi
 431              		.loc 1 449 0
 432 0014 9A80     		strh	r2, [r3, #4]	@ movhi
 433              		.loc 1 450 0
 434 0016 FFF7FEFF 		bl	dmaStreamRelease
 435              	.LVL33:
 436              		.loc 1 451 0
 437 001a 606A     		ldr	r0, [r4, #36]
 438 001c FFF7FEFF 		bl	dmaStreamRelease
 439              	.LVL34:
 440              		.loc 1 458 0
 441 0020 044B     		ldr	r3, .L50
 442 0022 9C42     		cmp	r4, r3
 443 0024 F1D1     		bne	.L45
 444              		.loc 1 459 0
 445 0026 044B     		ldr	r3, .L50+4
 446 0028 1A6C     		ldr	r2, [r3, #64]
 447 002a 22F48042 		bic	r2, r2, #16384
 448 002e 1A64     		str	r2, [r3, #64]
 449 0030 EBE7     		b	.L45
 450              	.L51:
 451 0032 00BF     		.align	2
 452              	.L50:
 453 0034 00000000 		.word	.LANCHOR1
ARM GAS  /tmp/ccPJkY7a.s 			page 9


 454 0038 00380240 		.word	1073887232
 455              		.cfi_endproc
 456              	.LFE122:
 457              		.size	spi_lld_stop, .-spi_lld_stop
 458 003c AFF30080 		.section	.text.spi_lld_select,"ax",%progbits
 459              		.align	2
 460              		.p2align 4,,15
 461              		.global	spi_lld_select
 462              		.thumb
 463              		.thumb_func
 464              		.type	spi_lld_select, %function
 465              	spi_lld_select:
 466              	.LFB123:
 467              		.loc 1 487 0
 468              		.cfi_startproc
 469              		@ args = 0, pretend = 0, frame = 0
 470              		@ frame_needed = 0, uses_anonymous_args = 0
 471              		@ link register save eliminated.
 472              	.LVL35:
 473              		.loc 1 489 0
 474 0000 4368     		ldr	r3, [r0, #4]
 475 0002 1A89     		ldrh	r2, [r3, #8]
 476 0004 5B68     		ldr	r3, [r3, #4]
 477 0006 0121     		movs	r1, #1
 478 0008 01FA02F2 		lsl	r2, r1, r2
 479 000c 92B2     		uxth	r2, r2
 480 000e 5A83     		strh	r2, [r3, #26]	@ movhi
 481 0010 7047     		bx	lr
 482              		.cfi_endproc
 483              	.LFE123:
 484              		.size	spi_lld_select, .-spi_lld_select
 485 0012 00BFAFF3 		.section	.text.spi_lld_unselect,"ax",%progbits
 485      0080AFF3 
 485      0080AFF3 
 485      0080
 486              		.align	2
 487              		.p2align 4,,15
 488              		.global	spi_lld_unselect
 489              		.thumb
 490              		.thumb_func
 491              		.type	spi_lld_unselect, %function
 492              	spi_lld_unselect:
 493              	.LFB124:
 494              		.loc 1 500 0
 495              		.cfi_startproc
 496              		@ args = 0, pretend = 0, frame = 0
 497              		@ frame_needed = 0, uses_anonymous_args = 0
 498              		@ link register save eliminated.
 499              	.LVL36:
 500              		.loc 1 502 0
 501 0000 4368     		ldr	r3, [r0, #4]
 502 0002 1A89     		ldrh	r2, [r3, #8]
 503 0004 5B68     		ldr	r3, [r3, #4]
 504 0006 0121     		movs	r1, #1
 505 0008 01FA02F2 		lsl	r2, r1, r2
 506 000c 92B2     		uxth	r2, r2
 507 000e 1A83     		strh	r2, [r3, #24]	@ movhi
ARM GAS  /tmp/ccPJkY7a.s 			page 10


 508 0010 7047     		bx	lr
 509              		.cfi_endproc
 510              	.LFE124:
 511              		.size	spi_lld_unselect, .-spi_lld_unselect
 512 0012 00BFAFF3 		.section	.text.spi_lld_ignore,"ax",%progbits
 512      0080AFF3 
 512      0080AFF3 
 512      0080
 513              		.align	2
 514              		.p2align 4,,15
 515              		.global	spi_lld_ignore
 516              		.thumb
 517              		.thumb_func
 518              		.type	spi_lld_ignore, %function
 519              	spi_lld_ignore:
 520              	.LFB125:
 521              		.loc 1 516 0
 522              		.cfi_startproc
 523              		@ args = 0, pretend = 0, frame = 0
 524              		@ frame_needed = 0, uses_anonymous_args = 0
 525              		@ link register save eliminated.
 526              	.LVL37:
 527              		.loc 1 518 0
 528 0000 026A     		ldr	r2, [r0, #32]
 529              		.loc 1 522 0
 530 0002 436A     		ldr	r3, [r0, #36]
 531              		.loc 1 518 0
 532 0004 1268     		ldr	r2, [r2]
 533              		.loc 1 522 0
 534 0006 1B68     		ldr	r3, [r3]
 535              		.loc 1 516 0
 536 0008 70B4     		push	{r4, r5, r6}
 537              		.cfi_def_cfa_offset 12
 538              		.cfi_offset 4, -12
 539              		.cfi_offset 5, -8
 540              		.cfi_offset 6, -4
 541              		.loc 1 520 0
 542 000a 856A     		ldr	r5, [r0, #40]
 543              		.loc 1 518 0
 544 000c 094E     		ldr	r6, .L55
 545              		.loc 1 524 0
 546 000e C06A     		ldr	r0, [r0, #44]
 547              	.LVL38:
 548              		.loc 1 522 0
 549 0010 094C     		ldr	r4, .L55+4
 550              		.loc 1 518 0
 551 0012 D660     		str	r6, [r2, #12]
 552              		.loc 1 519 0
 553 0014 5160     		str	r1, [r2, #4]
 554              		.loc 1 520 0
 555 0016 1560     		str	r5, [r2]
 556              		.loc 1 522 0
 557 0018 DC60     		str	r4, [r3, #12]
 558              		.loc 1 523 0
 559 001a 5960     		str	r1, [r3, #4]
 560              		.loc 1 524 0
 561 001c 1860     		str	r0, [r3]
ARM GAS  /tmp/ccPJkY7a.s 			page 11


 562              		.loc 1 526 0
 563 001e 1168     		ldr	r1, [r2]
 564              	.LVL39:
 565 0020 41F00101 		orr	r1, r1, #1
 566 0024 1160     		str	r1, [r2]
 567              		.loc 1 527 0
 568 0026 1A68     		ldr	r2, [r3]
 569 0028 42F00102 		orr	r2, r2, #1
 570 002c 1A60     		str	r2, [r3]
 571              		.loc 1 528 0
 572 002e 70BC     		pop	{r4, r5, r6}
 573 0030 7047     		bx	lr
 574              	.L56:
 575 0032 00BF     		.align	2
 576              	.L55:
 577 0034 00000000 		.word	.LANCHOR2
 578 0038 00000000 		.word	.LANCHOR0
 579              		.cfi_endproc
 580              	.LFE125:
 581              		.size	spi_lld_ignore, .-spi_lld_ignore
 582 003c AFF30080 		.section	.text.spi_lld_exchange,"ax",%progbits
 583              		.align	2
 584              		.p2align 4,,15
 585              		.global	spi_lld_exchange
 586              		.thumb
 587              		.thumb_func
 588              		.type	spi_lld_exchange, %function
 589              	spi_lld_exchange:
 590              	.LFB126:
 591              		.loc 1 546 0
 592              		.cfi_startproc
 593              		@ args = 0, pretend = 0, frame = 0
 594              		@ frame_needed = 0, uses_anonymous_args = 0
 595              		@ link register save eliminated.
 596              	.LVL40:
 597 0000 F0B4     		push	{r4, r5, r6, r7}
 598              		.cfi_def_cfa_offset 16
 599              		.cfi_offset 4, -16
 600              		.cfi_offset 5, -12
 601              		.cfi_offset 6, -8
 602              		.cfi_offset 7, -4
 603              		.loc 1 548 0
 604 0002 046A     		ldr	r4, [r0, #32]
 605              		.loc 1 552 0
 606 0004 476A     		ldr	r7, [r0, #36]
 607              		.loc 1 550 0
 608 0006 866A     		ldr	r6, [r0, #40]
 609              		.loc 1 554 0
 610 0008 C56A     		ldr	r5, [r0, #44]
 611              		.loc 1 548 0
 612 000a 2468     		ldr	r4, [r4]
 613              		.loc 1 552 0
 614 000c 3868     		ldr	r0, [r7]
 615              	.LVL41:
 616              		.loc 1 548 0
 617 000e E360     		str	r3, [r4, #12]
 618              		.loc 1 550 0
ARM GAS  /tmp/ccPJkY7a.s 			page 12


 619 0010 46F48066 		orr	r6, r6, #1024
 620              		.loc 1 554 0
 621 0014 45F48065 		orr	r5, r5, #1024
 622              		.loc 1 549 0
 623 0018 6160     		str	r1, [r4, #4]
 624              		.loc 1 550 0
 625 001a 2660     		str	r6, [r4]
 626              		.loc 1 552 0
 627 001c C260     		str	r2, [r0, #12]
 628              		.loc 1 553 0
 629 001e 4160     		str	r1, [r0, #4]
 630              		.loc 1 554 0
 631 0020 0560     		str	r5, [r0]
 632              		.loc 1 556 0
 633 0022 2368     		ldr	r3, [r4]
 634              	.LVL42:
 635 0024 43F00103 		orr	r3, r3, #1
 636 0028 2360     		str	r3, [r4]
 637              		.loc 1 557 0
 638 002a 0368     		ldr	r3, [r0]
 639 002c 43F00103 		orr	r3, r3, #1
 640 0030 0360     		str	r3, [r0]
 641              		.loc 1 558 0
 642 0032 F0BC     		pop	{r4, r5, r6, r7}
 643 0034 7047     		bx	lr
 644              		.cfi_endproc
 645              	.LFE126:
 646              		.size	spi_lld_exchange, .-spi_lld_exchange
 647 0036 00BFAFF3 		.section	.text.spi_lld_send,"ax",%progbits
 647      0080AFF3 
 647      0080
 648              		.align	2
 649              		.p2align 4,,15
 650              		.global	spi_lld_send
 651              		.thumb
 652              		.thumb_func
 653              		.type	spi_lld_send, %function
 654              	spi_lld_send:
 655              	.LFB127:
 656              		.loc 1 573 0
 657              		.cfi_startproc
 658              		@ args = 0, pretend = 0, frame = 0
 659              		@ frame_needed = 0, uses_anonymous_args = 0
 660              		@ link register save eliminated.
 661              	.LVL43:
 662 0000 70B4     		push	{r4, r5, r6}
 663              		.cfi_def_cfa_offset 12
 664              		.cfi_offset 4, -12
 665              		.cfi_offset 5, -8
 666              		.cfi_offset 6, -4
 667              		.loc 1 579 0
 668 0002 436A     		ldr	r3, [r0, #36]
 669              		.loc 1 575 0
 670 0004 046A     		ldr	r4, [r0, #32]
 671              		.loc 1 581 0
 672 0006 C56A     		ldr	r5, [r0, #44]
 673              		.loc 1 575 0
ARM GAS  /tmp/ccPJkY7a.s 			page 13


 674 0008 2468     		ldr	r4, [r4]
 675              		.loc 1 579 0
 676 000a 1B68     		ldr	r3, [r3]
 677              		.loc 1 577 0
 678 000c 806A     		ldr	r0, [r0, #40]
 679              	.LVL44:
 680              		.loc 1 575 0
 681 000e 094E     		ldr	r6, .L59
 682 0010 E660     		str	r6, [r4, #12]
 683              		.loc 1 581 0
 684 0012 45F48065 		orr	r5, r5, #1024
 685              		.loc 1 576 0
 686 0016 6160     		str	r1, [r4, #4]
 687              		.loc 1 577 0
 688 0018 2060     		str	r0, [r4]
 689              		.loc 1 579 0
 690 001a DA60     		str	r2, [r3, #12]
 691              		.loc 1 580 0
 692 001c 5960     		str	r1, [r3, #4]
 693              		.loc 1 581 0
 694 001e 1D60     		str	r5, [r3]
 695              		.loc 1 583 0
 696 0020 2268     		ldr	r2, [r4]
 697              	.LVL45:
 698 0022 42F00102 		orr	r2, r2, #1
 699 0026 2260     		str	r2, [r4]
 700              		.loc 1 584 0
 701 0028 1A68     		ldr	r2, [r3]
 702 002a 42F00102 		orr	r2, r2, #1
 703 002e 1A60     		str	r2, [r3]
 704              		.loc 1 585 0
 705 0030 70BC     		pop	{r4, r5, r6}
 706 0032 7047     		bx	lr
 707              	.L60:
 708              		.align	2
 709              	.L59:
 710 0034 00000000 		.word	.LANCHOR2
 711              		.cfi_endproc
 712              	.LFE127:
 713              		.size	spi_lld_send, .-spi_lld_send
 714 0038 AFF30080 		.section	.text.spi_lld_receive,"ax",%progbits
 714      AFF30080 
 715              		.align	2
 716              		.p2align 4,,15
 717              		.global	spi_lld_receive
 718              		.thumb
 719              		.thumb_func
 720              		.type	spi_lld_receive, %function
 721              	spi_lld_receive:
 722              	.LFB128:
 723              		.loc 1 600 0
 724              		.cfi_startproc
 725              		@ args = 0, pretend = 0, frame = 0
 726              		@ frame_needed = 0, uses_anonymous_args = 0
 727              		@ link register save eliminated.
 728              	.LVL46:
 729 0000 70B4     		push	{r4, r5, r6}
ARM GAS  /tmp/ccPJkY7a.s 			page 14


 730              		.cfi_def_cfa_offset 12
 731              		.cfi_offset 4, -12
 732              		.cfi_offset 5, -8
 733              		.cfi_offset 6, -4
 734              		.loc 1 606 0
 735 0002 436A     		ldr	r3, [r0, #36]
 736              		.loc 1 602 0
 737 0004 046A     		ldr	r4, [r0, #32]
 738              		.loc 1 604 0
 739 0006 866A     		ldr	r6, [r0, #40]
 740              		.loc 1 602 0
 741 0008 2468     		ldr	r4, [r4]
 742              		.loc 1 606 0
 743 000a 1B68     		ldr	r3, [r3]
 744              		.loc 1 608 0
 745 000c C06A     		ldr	r0, [r0, #44]
 746              	.LVL47:
 747              		.loc 1 606 0
 748 000e 094D     		ldr	r5, .L62
 749              		.loc 1 602 0
 750 0010 E260     		str	r2, [r4, #12]
 751              		.loc 1 604 0
 752 0012 46F48066 		orr	r6, r6, #1024
 753              		.loc 1 603 0
 754 0016 6160     		str	r1, [r4, #4]
 755              		.loc 1 604 0
 756 0018 2660     		str	r6, [r4]
 757              		.loc 1 606 0
 758 001a DD60     		str	r5, [r3, #12]
 759              		.loc 1 607 0
 760 001c 5960     		str	r1, [r3, #4]
 761              		.loc 1 608 0
 762 001e 1860     		str	r0, [r3]
 763              		.loc 1 610 0
 764 0020 2268     		ldr	r2, [r4]
 765              	.LVL48:
 766 0022 42F00102 		orr	r2, r2, #1
 767 0026 2260     		str	r2, [r4]
 768              		.loc 1 611 0
 769 0028 1A68     		ldr	r2, [r3]
 770 002a 42F00102 		orr	r2, r2, #1
 771 002e 1A60     		str	r2, [r3]
 772              		.loc 1 612 0
 773 0030 70BC     		pop	{r4, r5, r6}
 774 0032 7047     		bx	lr
 775              	.L63:
 776              		.align	2
 777              	.L62:
 778 0034 00000000 		.word	.LANCHOR0
 779              		.cfi_endproc
 780              	.LFE128:
 781              		.size	spi_lld_receive, .-spi_lld_receive
 782 0038 AFF30080 		.section	.text.spi_lld_polled_exchange,"ax",%progbits
 782      AFF30080 
 783              		.align	2
 784              		.p2align 4,,15
 785              		.global	spi_lld_polled_exchange
ARM GAS  /tmp/ccPJkY7a.s 			page 15


 786              		.thumb
 787              		.thumb_func
 788              		.type	spi_lld_polled_exchange, %function
 789              	spi_lld_polled_exchange:
 790              	.LFB129:
 791              		.loc 1 626 0
 792              		.cfi_startproc
 793              		@ args = 0, pretend = 0, frame = 0
 794              		@ frame_needed = 0, uses_anonymous_args = 0
 795              		@ link register save eliminated.
 796              	.LVL49:
 797              		.loc 1 628 0
 798 0000 C269     		ldr	r2, [r0, #28]
 799 0002 9181     		strh	r1, [r2, #12]	@ movhi
 800              	.L66:
 801              		.loc 1 629 0 discriminator 1
 802 0004 1389     		ldrh	r3, [r2, #8]
 803 0006 DB07     		lsls	r3, r3, #31
 804 0008 FCD5     		bpl	.L66
 805              		.loc 1 631 0
 806 000a 9089     		ldrh	r0, [r2, #12]
 807              	.LVL50:
 808              		.loc 1 632 0
 809 000c 80B2     		uxth	r0, r0
 810 000e 7047     		bx	lr
 811              		.cfi_endproc
 812              	.LFE129:
 813              		.size	spi_lld_polled_exchange, .-spi_lld_polled_exchange
 814              		.global	SPID2
 815              		.section	.bss.dummytx,"aw",%nobits
 816              		.align	1
 817              		.set	.LANCHOR0,. + 0
 818              		.type	dummytx, %object
 819              		.size	dummytx, 2
 820              	dummytx:
 821 0000 0000     		.space	2
 822              		.section	.bss.SPID2,"aw",%nobits
 823              		.align	2
 824              		.set	.LANCHOR1,. + 0
 825              		.type	SPID2, %object
 826              		.size	SPID2, 48
 827              	SPID2:
 828 0000 00000000 		.space	48
 828      00000000 
 828      00000000 
 828      00000000 
 828      00000000 
 829              		.section	.rodata.str1.4,"aMS",%progbits,1
 830              		.align	2
 831              	.LC0:
 832 0000 7370695F 		.ascii	"spi_lld_start(), #3\000"
 832      6C6C645F 
 832      73746172 
 832      7428292C 
 832      20233300 
 833              	.LC1:
 834 0014 7370695F 		.ascii	"spi_lld_start(), #4\000"
ARM GAS  /tmp/ccPJkY7a.s 			page 16


 834      6C6C645F 
 834      73746172 
 834      7428292C 
 834      20233400 
 835              		.section	.bss.dummyrx,"aw",%nobits
 836              		.align	1
 837              		.set	.LANCHOR2,. + 0
 838              		.type	dummyrx, %object
 839              		.size	dummyrx, 2
 840              	dummyrx:
 841 0000 0000     		.space	2
 842              		.text
 843              	.Letext0:
 844              		.file 2 "/opt/ARM/lib/gcc/arm-none-eabi/4.8.4/include/stddef.h"
 845              		.file 3 "/opt/ARM/arm-none-eabi/include/machine/_default_types.h"
 846              		.file 4 "/opt/ARM/arm-none-eabi/include/stdint.h"
 847              		.file 5 "../../os/ports/GCC/ARMCMx/chtypes.h"
 848              		.file 6 "../../os/kernel/include/chlists.h"
 849              		.file 7 "../../os/kernel/include/chthreads.h"
 850              		.file 8 "../../os/ports/GCC/ARMCMx/chcore_v7m.h"
 851              		.file 9 "../../os/kernel/include/chmtx.h"
 852              		.file 10 "../../os/hal/platforms/STM32F4xx/stm32f4xx.h"
 853              		.file 11 "../../os/hal/platforms/STM32F4xx/stm32_dma.h"
 854              		.file 12 "../../os/hal/platforms/STM32/GPIOv2/pal_lld.h"
 855              		.file 13 "../../os/hal/include/spi.h"
 856              		.file 14 "../../os/hal/platforms/STM32/SPIv1/spi_lld.h"
 857              		.file 15 "../../os/ports/common/ARMCMx/CMSIS/include/core_cm4.h"
 858              		.file 16 "../../os/kernel/include/chdebug.h"
 859              		.file 17 "../../os/kernel/include/chschd.h"