ARM GAS  /tmp/ccmz5Id6.s 			page 1


   1              		.syntax unified
   2              		.cpu cortex-m4
   3              		.eabi_attribute 27, 3
   4              		.eabi_attribute 28, 1
   5              		.fpu fpv4-sp-d16
   6              		.eabi_attribute 20, 1
   7              		.eabi_attribute 21, 1
   8              		.eabi_attribute 23, 3
   9              		.eabi_attribute 24, 1
  10              		.eabi_attribute 25, 1
  11              		.eabi_attribute 26, 1
  12              		.eabi_attribute 30, 2
  13              		.eabi_attribute 34, 1
  14              		.eabi_attribute 18, 4
  15              		.thumb
  16              		.file	"spi_lld.c"
  17              		.text
  18              	.Ltext0:
  19              		.cfi_sections	.debug_frame
  20              		.section	.text.spi_lld_serve_tx_interrupt,"ax",%progbits
  21              		.align	2
  22              		.p2align 4,,15
  23              		.thumb
  24              		.thumb_func
  25              		.type	spi_lld_serve_tx_interrupt, %function
  26              	spi_lld_serve_tx_interrupt:
  27              	.LFB112:
  28              		.file 1 "../../os/hal/platforms/STM32/SPIv1/spi_lld.c"
  29              		.loc 1 159 0
  30              		.cfi_startproc
  31              		@ args = 0, pretend = 0, frame = 0
  32              		@ frame_needed = 0, uses_anonymous_args = 0
  33              		@ link register save eliminated.
  34              	.LVL0:
  35              		.loc 1 164 0
  36 0000 11F00C0F 		tst	r1, #12
  37 0004 00D1     		bne	.L4
  38 0006 7047     		bx	lr
  39              	.L4:
  40              		.loc 1 165 0
  41 0008 FFF7FEBF 		b	port_halt
  42              	.LVL1:
  43              		.cfi_endproc
  44              	.LFE112:
  45              		.size	spi_lld_serve_tx_interrupt, .-spi_lld_serve_tx_interrupt
  46 000c AFF30080 		.section	.text.spi_lld_serve_rx_interrupt,"ax",%progbits
  47              		.align	2
  48              		.p2align 4,,15
  49              		.thumb
  50              		.thumb_func
  51              		.type	spi_lld_serve_rx_interrupt, %function
  52              	spi_lld_serve_rx_interrupt:
  53              	.LFB111:
  54              		.loc 1 133 0
  55              		.cfi_startproc
  56              		@ args = 0, pretend = 0, frame = 0
  57              		@ frame_needed = 0, uses_anonymous_args = 0
ARM GAS  /tmp/ccmz5Id6.s 			page 2


  58              	.LVL2:
  59              		.loc 1 137 0
  60 0000 11F00C0F 		tst	r1, #12
  61              		.loc 1 133 0
  62 0004 38B5     		push	{r3, r4, r5, lr}
  63              		.cfi_def_cfa_offset 16
  64              		.cfi_offset 3, -16
  65              		.cfi_offset 4, -12
  66              		.cfi_offset 5, -8
  67              		.cfi_offset 14, -4
  68              		.loc 1 133 0
  69 0006 0446     		mov	r4, r0
  70              		.loc 1 137 0
  71 0008 35D1     		bne	.L20
  72              	.LVL3:
  73              	.L6:
  74              		.loc 1 145 0
  75 000a 606A     		ldr	r0, [r4, #36]
  76 000c 0268     		ldr	r2, [r0]
  77 000e 1368     		ldr	r3, [r2]
  78 0010 23F01F03 		bic	r3, r3, #31
  79 0014 1360     		str	r3, [r2]
  80              	.L8:
  81              		.loc 1 145 0 is_stmt 0 discriminator 1
  82 0016 1368     		ldr	r3, [r2]
  83 0018 D907     		lsls	r1, r3, #31
  84 001a FCD4     		bmi	.L8
  85              		.loc 1 145 0 discriminator 2
  86 001c 057A     		ldrb	r5, [r0, #8]	@ zero_extendqisi2
  87              		.loc 1 146 0 is_stmt 1 discriminator 2
  88 001e 216A     		ldr	r1, [r4, #32]
  89              		.loc 1 145 0 discriminator 2
  90 0020 4368     		ldr	r3, [r0, #4]
  91              		.loc 1 146 0 discriminator 2
  92 0022 0A68     		ldr	r2, [r1]
  93              		.loc 1 145 0 discriminator 2
  94 0024 3D20     		movs	r0, #61
  95 0026 A840     		lsls	r0, r0, r5
  96 0028 1860     		str	r0, [r3]
  97              		.loc 1 146 0 discriminator 2
  98 002a 1368     		ldr	r3, [r2]
  99 002c 23F01F03 		bic	r3, r3, #31
 100 0030 1360     		str	r3, [r2]
 101              	.L10:
 102              		.loc 1 146 0 is_stmt 0 discriminator 1
 103 0032 1368     		ldr	r3, [r2]
 104 0034 DB07     		lsls	r3, r3, #31
 105 0036 FCD4     		bmi	.L10
 106              		.loc 1 150 0 is_stmt 1 discriminator 2
 107 0038 6368     		ldr	r3, [r4, #4]
 108              		.loc 1 146 0 discriminator 2
 109 003a 087A     		ldrb	r0, [r1, #8]	@ zero_extendqisi2
 110 003c 4A68     		ldr	r2, [r1, #4]
 111              		.loc 1 150 0 discriminator 2
 112 003e 1B68     		ldr	r3, [r3]
 113              		.loc 1 146 0 discriminator 2
 114 0040 3D21     		movs	r1, #61
ARM GAS  /tmp/ccmz5Id6.s 			page 3


 115 0042 8140     		lsls	r1, r1, r0
 116 0044 1160     		str	r1, [r2]
 117              		.loc 1 150 0 discriminator 2
 118 0046 9BB1     		cbz	r3, .L11
 119              		.loc 1 150 0 is_stmt 0 discriminator 1
 120 0048 0422     		movs	r2, #4
 121 004a 2270     		strb	r2, [r4]
 122 004c 2046     		mov	r0, r4
 123 004e 9847     		blx	r3
 124              	.LVL4:
 125 0050 2378     		ldrb	r3, [r4]	@ zero_extendqisi2
 126 0052 042B     		cmp	r3, #4
 127 0054 0CD0     		beq	.L11
 128              	.L12:
 129              	@ 150 "../../os/hal/platforms/STM32/SPIv1/spi_lld.c" 1
 130 0056 FFF7FEFF 		bl      _port_lock
 131              	@ 0 "" 2
 132              		.thumb
 133 005a A368     		ldr	r3, [r4, #8]
 134 005c 2BB1     		cbz	r3, .L13
 135              	.LVL5:
 136              	.LBB2:
 137 005e 0022     		movs	r2, #0
 138 0060 A260     		str	r2, [r4, #8]
 139 0062 1846     		mov	r0, r3
 140 0064 9A62     		str	r2, [r3, #40]
 141 0066 FFF7FEFF 		bl	chSchReadyI
 142              	.LVL6:
 143              	.L13:
 144              	.LBE2:
 145              		.loc 1 150 0 discriminator 2
 146              	@ 150 "../../os/hal/platforms/STM32/SPIv1/spi_lld.c" 1
 147 006a FFF7FEFF 		bl      _port_unlock
 148              	@ 0 "" 2
 149              		.thumb
 150 006e 38BD     		pop	{r3, r4, r5, pc}
 151              	.LVL7:
 152              	.L11:
 153 0070 0223     		movs	r3, #2
 154 0072 2370     		strb	r3, [r4]
 155 0074 EFE7     		b	.L12
 156              	.LVL8:
 157              	.L20:
 158              		.loc 1 138 0 is_stmt 1
 159 0076 FFF7FEFF 		bl	port_halt
 160              	.LVL9:
 161 007a C6E7     		b	.L6
 162              		.cfi_endproc
 163              	.LFE111:
 164              		.size	spi_lld_serve_rx_interrupt, .-spi_lld_serve_rx_interrupt
 165 007c AFF30080 		.section	.text.spi_lld_init,"ax",%progbits
 166              		.align	2
 167              		.p2align 4,,15
 168              		.global	spi_lld_init
 169              		.thumb
 170              		.thumb_func
 171              		.type	spi_lld_init, %function
ARM GAS  /tmp/ccmz5Id6.s 			page 4


 172              	spi_lld_init:
 173              	.LFB113:
 174              		.loc 1 186 0
 175              		.cfi_startproc
 176              		@ args = 0, pretend = 0, frame = 0
 177              		@ frame_needed = 0, uses_anonymous_args = 0
 178 0000 10B5     		push	{r4, lr}
 179              		.cfi_def_cfa_offset 8
 180              		.cfi_offset 4, -8
 181              		.cfi_offset 14, -4
 182              		.loc 1 209 0
 183 0002 0A4C     		ldr	r4, .L22
 184              		.loc 1 188 0
 185 0004 0A4B     		ldr	r3, .L22+4
 186 0006 4FF6FF72 		movw	r2, #65535
 187              		.loc 1 209 0
 188 000a 2046     		mov	r0, r4
 189              		.loc 1 188 0
 190 000c 1A80     		strh	r2, [r3]	@ movhi
 191              		.loc 1 209 0
 192 000e FFF7FEFF 		bl	spiObjectInit
 193              	.LVL10:
 194              		.loc 1 211 0
 195 0012 084B     		ldr	r3, .L22+8
 196              		.loc 1 210 0
 197 0014 0848     		ldr	r0, .L22+12
 198              		.loc 1 213 0
 199 0016 0949     		ldr	r1, .L22+16
 200              		.loc 1 219 0
 201 0018 094A     		ldr	r2, .L22+20
 202              		.loc 1 210 0
 203 001a E061     		str	r0, [r4, #28]
 204              		.loc 1 212 0
 205 001c 03F10C00 		add	r0, r3, #12
 206              		.loc 1 211 0
 207 0020 2362     		str	r3, [r4, #32]
 208              		.loc 1 212 0
 209 0022 6062     		str	r0, [r4, #36]
 210              		.loc 1 213 0
 211 0024 A162     		str	r1, [r4, #40]
 212              		.loc 1 219 0
 213 0026 E262     		str	r2, [r4, #44]
 214 0028 10BD     		pop	{r4, pc}
 215              	.L23:
 216 002a 00BF     		.align	2
 217              	.L22:
 218 002c 00000000 		.word	.LANCHOR1
 219 0030 00000000 		.word	.LANCHOR0
 220 0034 24000000 		.word	_stm32_dma_streams+36
 221 0038 00380040 		.word	1073756160
 222 003c 16000100 		.word	65558
 223 0040 46000100 		.word	65606
 224              		.cfi_endproc
 225              	.LFE113:
 226              		.size	spi_lld_init, .-spi_lld_init
 227 0044 AFF30080 		.section	.text.spi_lld_start,"ax",%progbits
 227      AFF30080 
ARM GAS  /tmp/ccmz5Id6.s 			page 5


 227      AFF30080 
 228              		.align	2
 229              		.p2align 4,,15
 230              		.global	spi_lld_start
 231              		.thumb
 232              		.thumb_func
 233              		.type	spi_lld_start, %function
 234              	spi_lld_start:
 235              	.LFB114:
 236              		.loc 1 306 0
 237              		.cfi_startproc
 238              		@ args = 0, pretend = 0, frame = 0
 239              		@ frame_needed = 0, uses_anonymous_args = 0
 240              	.LVL11:
 241 0000 38B5     		push	{r3, r4, r5, lr}
 242              		.cfi_def_cfa_offset 16
 243              		.cfi_offset 3, -16
 244              		.cfi_offset 4, -12
 245              		.cfi_offset 5, -8
 246              		.cfi_offset 14, -4
 247              		.loc 1 309 0
 248 0002 0378     		ldrb	r3, [r0]	@ zero_extendqisi2
 249 0004 012B     		cmp	r3, #1
 250              		.loc 1 306 0
 251 0006 0446     		mov	r4, r0
 252              		.loc 1 309 0
 253 0008 1DD0     		beq	.L38
 254 000a C369     		ldr	r3, [r0, #28]
 255              	.LVL12:
 256              	.L25:
 257              		.loc 1 413 0
 258 000c 6268     		ldr	r2, [r4, #4]
 259              		.loc 1 416 0
 260 000e A06A     		ldr	r0, [r4, #40]
 261              		.loc 1 413 0
 262 0010 5289     		ldrh	r2, [r2, #10]
 263              		.loc 1 418 0
 264 0012 E16A     		ldr	r1, [r4, #44]
 265              		.loc 1 416 0
 266 0014 20F4F040 		bic	r0, r0, #30720
 267              		.loc 1 418 0
 268 0018 21F4F041 		bic	r1, r1, #30720
 269              		.loc 1 413 0
 270 001c 1505     		lsls	r5, r2, #20
 271              		.loc 1 423 0
 272 001e 44BF     		itt	mi
 273 0020 40F42050 		orrmi	r0, r0, #10240
 274              		.loc 1 425 0
 275 0024 41F42051 		orrmi	r1, r1, #10240
 276              		.loc 1 422 0
 277 0028 A062     		str	r0, [r4, #40]
 278              		.loc 1 424 0
 279 002a E162     		str	r1, [r4, #44]
 280              		.loc 1 429 0
 281 002c 42F44172 		orr	r2, r2, #772
 282              		.loc 1 428 0
 283 0030 0020     		movs	r0, #0
ARM GAS  /tmp/ccmz5Id6.s 			page 6


 284              		.loc 1 431 0
 285 0032 0721     		movs	r1, #7
 286              		.loc 1 428 0
 287 0034 1880     		strh	r0, [r3]	@ movhi
 288              		.loc 1 429 0
 289 0036 1A80     		strh	r2, [r3]	@ movhi
 290              		.loc 1 431 0
 291 0038 9980     		strh	r1, [r3, #4]	@ movhi
 292              		.loc 1 432 0
 293 003a 1A88     		ldrh	r2, [r3]
 294 003c 92B2     		uxth	r2, r2
 295 003e 42F04002 		orr	r2, r2, #64
 296 0042 1A80     		strh	r2, [r3]	@ movhi
 297 0044 38BD     		pop	{r3, r4, r5, pc}
 298              	.LVL13:
 299              	.L38:
 300              		.loc 1 327 0
 301 0046 144D     		ldr	r5, .L43
 302 0048 A842     		cmp	r0, r5
 303 004a 09D0     		beq	.L40
 304              	.LVL14:
 305              	.L26:
 306              		.loc 1 408 0
 307 004c 216A     		ldr	r1, [r4, #32]
 308              		.loc 1 409 0
 309 004e 626A     		ldr	r2, [r4, #36]
 310              		.loc 1 408 0
 311 0050 E369     		ldr	r3, [r4, #28]
 312 0052 0868     		ldr	r0, [r1]
 313              		.loc 1 409 0
 314 0054 1168     		ldr	r1, [r2]
 315              		.loc 1 408 0
 316 0056 03F10C02 		add	r2, r3, #12
 317 005a 8260     		str	r2, [r0, #8]
 318              		.loc 1 409 0
 319 005c 8A60     		str	r2, [r1, #8]
 320 005e D5E7     		b	.L25
 321              	.LVL15:
 322              	.L40:
 323              	.LBB3:
 324              		.loc 1 329 0
 325 0060 006A     		ldr	r0, [r0, #32]
 326              	.LVL16:
 327 0062 0E4A     		ldr	r2, .L43+4
 328 0064 0A21     		movs	r1, #10
 329 0066 2346     		mov	r3, r4
 330 0068 FFF7FEFF 		bl	dmaStreamAllocate
 331              	.LVL17:
 332              		.loc 1 333 0
 333 006c 60B9     		cbnz	r0, .L41
 334              	.LVL18:
 335              	.L27:
 336              		.loc 1 334 0
 337 006e 686A     		ldr	r0, [r5, #36]
 338 0070 0B4A     		ldr	r2, .L43+8
 339 0072 094B     		ldr	r3, .L43
 340 0074 0A21     		movs	r1, #10
ARM GAS  /tmp/ccmz5Id6.s 			page 7


 341 0076 FFF7FEFF 		bl	dmaStreamAllocate
 342              	.LVL19:
 343              		.loc 1 338 0
 344 007a 48B9     		cbnz	r0, .L42
 345              	.LVL20:
 346              	.L28:
 347              		.loc 1 339 0
 348 007c 094B     		ldr	r3, .L43+12
 349 007e 1A6C     		ldr	r2, [r3, #64]
 350 0080 42F48042 		orr	r2, r2, #16384
 351 0084 1A64     		str	r2, [r3, #64]
 352 0086 E1E7     		b	.L26
 353              	.LVL21:
 354              	.L41:
 355              		.loc 1 333 0 discriminator 1
 356 0088 0748     		ldr	r0, .L43+16
 357              	.LVL22:
 358 008a FFF7FEFF 		bl	chDbgPanic
 359              	.LVL23:
 360 008e EEE7     		b	.L27
 361              	.LVL24:
 362              	.L42:
 363              		.loc 1 338 0 discriminator 1
 364 0090 0648     		ldr	r0, .L43+20
 365              	.LVL25:
 366 0092 FFF7FEFF 		bl	chDbgPanic
 367              	.LVL26:
 368 0096 F1E7     		b	.L28
 369              	.L44:
 370              		.align	2
 371              	.L43:
 372 0098 00000000 		.word	.LANCHOR1
 373 009c 00000000 		.word	spi_lld_serve_rx_interrupt
 374 00a0 00000000 		.word	spi_lld_serve_tx_interrupt
 375 00a4 00380240 		.word	1073887232
 376 00a8 00000000 		.word	.LC0
 377 00ac 14000000 		.word	.LC1
 378              	.LBE3:
 379              		.cfi_endproc
 380              	.LFE114:
 381              		.size	spi_lld_start, .-spi_lld_start
 382              		.section	.text.spi_lld_stop,"ax",%progbits
 383              		.align	2
 384              		.p2align 4,,15
 385              		.global	spi_lld_stop
 386              		.thumb
 387              		.thumb_func
 388              		.type	spi_lld_stop, %function
 389              	spi_lld_stop:
 390              	.LFB115:
 391              		.loc 1 442 0
 392              		.cfi_startproc
 393              		@ args = 0, pretend = 0, frame = 0
 394              		@ frame_needed = 0, uses_anonymous_args = 0
 395              	.LVL27:
 396              		.loc 1 445 0
 397 0000 0378     		ldrb	r3, [r0]	@ zero_extendqisi2
ARM GAS  /tmp/ccmz5Id6.s 			page 8


 398 0002 022B     		cmp	r3, #2
 399              		.loc 1 442 0
 400 0004 10B5     		push	{r4, lr}
 401              		.cfi_def_cfa_offset 8
 402              		.cfi_offset 4, -8
 403              		.cfi_offset 14, -4
 404              		.loc 1 442 0
 405 0006 0446     		mov	r4, r0
 406              		.loc 1 445 0
 407 0008 00D0     		beq	.L49
 408              	.LVL28:
 409              	.L45:
 410 000a 10BD     		pop	{r4, pc}
 411              	.LVL29:
 412              	.L49:
 413              		.loc 1 448 0
 414 000c C369     		ldr	r3, [r0, #28]
 415              		.loc 1 450 0
 416 000e 006A     		ldr	r0, [r0, #32]
 417              	.LVL30:
 418              		.loc 1 448 0
 419 0010 0022     		movs	r2, #0
 420 0012 1A80     		strh	r2, [r3]	@ movhi
 421              		.loc 1 449 0
 422 0014 9A80     		strh	r2, [r3, #4]	@ movhi
 423              		.loc 1 450 0
 424 0016 FFF7FEFF 		bl	dmaStreamRelease
 425              	.LVL31:
 426              		.loc 1 451 0
 427 001a 606A     		ldr	r0, [r4, #36]
 428 001c FFF7FEFF 		bl	dmaStreamRelease
 429              	.LVL32:
 430              		.loc 1 458 0
 431 0020 044B     		ldr	r3, .L50
 432 0022 9C42     		cmp	r4, r3
 433 0024 F1D1     		bne	.L45
 434              		.loc 1 459 0
 435 0026 044B     		ldr	r3, .L50+4
 436 0028 1A6C     		ldr	r2, [r3, #64]
 437 002a 22F48042 		bic	r2, r2, #16384
 438 002e 1A64     		str	r2, [r3, #64]
 439 0030 EBE7     		b	.L45
 440              	.L51:
 441 0032 00BF     		.align	2
 442              	.L50:
 443 0034 00000000 		.word	.LANCHOR1
 444 0038 00380240 		.word	1073887232
 445              		.cfi_endproc
 446              	.LFE115:
 447              		.size	spi_lld_stop, .-spi_lld_stop
 448 003c AFF30080 		.section	.text.spi_lld_select,"ax",%progbits
 449              		.align	2
 450              		.p2align 4,,15
 451              		.global	spi_lld_select
 452              		.thumb
 453              		.thumb_func
 454              		.type	spi_lld_select, %function
ARM GAS  /tmp/ccmz5Id6.s 			page 9


 455              	spi_lld_select:
 456              	.LFB116:
 457              		.loc 1 487 0
 458              		.cfi_startproc
 459              		@ args = 0, pretend = 0, frame = 0
 460              		@ frame_needed = 0, uses_anonymous_args = 0
 461              		@ link register save eliminated.
 462              	.LVL33:
 463              		.loc 1 489 0
 464 0000 4368     		ldr	r3, [r0, #4]
 465 0002 1A89     		ldrh	r2, [r3, #8]
 466 0004 5B68     		ldr	r3, [r3, #4]
 467 0006 0121     		movs	r1, #1
 468 0008 01FA02F2 		lsl	r2, r1, r2
 469 000c 92B2     		uxth	r2, r2
 470 000e 5A83     		strh	r2, [r3, #26]	@ movhi
 471 0010 7047     		bx	lr
 472              		.cfi_endproc
 473              	.LFE116:
 474              		.size	spi_lld_select, .-spi_lld_select
 475 0012 00BFAFF3 		.section	.text.spi_lld_unselect,"ax",%progbits
 475      0080AFF3 
 475      0080AFF3 
 475      0080
 476              		.align	2
 477              		.p2align 4,,15
 478              		.global	spi_lld_unselect
 479              		.thumb
 480              		.thumb_func
 481              		.type	spi_lld_unselect, %function
 482              	spi_lld_unselect:
 483              	.LFB117:
 484              		.loc 1 500 0
 485              		.cfi_startproc
 486              		@ args = 0, pretend = 0, frame = 0
 487              		@ frame_needed = 0, uses_anonymous_args = 0
 488              		@ link register save eliminated.
 489              	.LVL34:
 490              		.loc 1 502 0
 491 0000 4368     		ldr	r3, [r0, #4]
 492 0002 1A89     		ldrh	r2, [r3, #8]
 493 0004 5B68     		ldr	r3, [r3, #4]
 494 0006 0121     		movs	r1, #1
 495 0008 01FA02F2 		lsl	r2, r1, r2
 496 000c 92B2     		uxth	r2, r2
 497 000e 1A83     		strh	r2, [r3, #24]	@ movhi
 498 0010 7047     		bx	lr
 499              		.cfi_endproc
 500              	.LFE117:
 501              		.size	spi_lld_unselect, .-spi_lld_unselect
 502 0012 00BFAFF3 		.section	.text.spi_lld_ignore,"ax",%progbits
 502      0080AFF3 
 502      0080AFF3 
 502      0080
 503              		.align	2
 504              		.p2align 4,,15
 505              		.global	spi_lld_ignore
ARM GAS  /tmp/ccmz5Id6.s 			page 10


 506              		.thumb
 507              		.thumb_func
 508              		.type	spi_lld_ignore, %function
 509              	spi_lld_ignore:
 510              	.LFB118:
 511              		.loc 1 516 0
 512              		.cfi_startproc
 513              		@ args = 0, pretend = 0, frame = 0
 514              		@ frame_needed = 0, uses_anonymous_args = 0
 515              		@ link register save eliminated.
 516              	.LVL35:
 517              		.loc 1 518 0
 518 0000 026A     		ldr	r2, [r0, #32]
 519              		.loc 1 522 0
 520 0002 436A     		ldr	r3, [r0, #36]
 521              		.loc 1 518 0
 522 0004 1268     		ldr	r2, [r2]
 523              		.loc 1 522 0
 524 0006 1B68     		ldr	r3, [r3]
 525              		.loc 1 516 0
 526 0008 70B4     		push	{r4, r5, r6}
 527              		.cfi_def_cfa_offset 12
 528              		.cfi_offset 4, -12
 529              		.cfi_offset 5, -8
 530              		.cfi_offset 6, -4
 531              		.loc 1 520 0
 532 000a 856A     		ldr	r5, [r0, #40]
 533              		.loc 1 518 0
 534 000c 094E     		ldr	r6, .L55
 535              		.loc 1 524 0
 536 000e C06A     		ldr	r0, [r0, #44]
 537              	.LVL36:
 538              		.loc 1 522 0
 539 0010 094C     		ldr	r4, .L55+4
 540              		.loc 1 518 0
 541 0012 D660     		str	r6, [r2, #12]
 542              		.loc 1 519 0
 543 0014 5160     		str	r1, [r2, #4]
 544              		.loc 1 520 0
 545 0016 1560     		str	r5, [r2]
 546              		.loc 1 522 0
 547 0018 DC60     		str	r4, [r3, #12]
 548              		.loc 1 523 0
 549 001a 5960     		str	r1, [r3, #4]
 550              		.loc 1 524 0
 551 001c 1860     		str	r0, [r3]
 552              		.loc 1 526 0
 553 001e 1168     		ldr	r1, [r2]
 554              	.LVL37:
 555 0020 41F00101 		orr	r1, r1, #1
 556 0024 1160     		str	r1, [r2]
 557              		.loc 1 527 0
 558 0026 1A68     		ldr	r2, [r3]
 559 0028 42F00102 		orr	r2, r2, #1
 560 002c 1A60     		str	r2, [r3]
 561              		.loc 1 528 0
 562 002e 70BC     		pop	{r4, r5, r6}
ARM GAS  /tmp/ccmz5Id6.s 			page 11


 563 0030 7047     		bx	lr
 564              	.L56:
 565 0032 00BF     		.align	2
 566              	.L55:
 567 0034 00000000 		.word	.LANCHOR2
 568 0038 00000000 		.word	.LANCHOR0
 569              		.cfi_endproc
 570              	.LFE118:
 571              		.size	spi_lld_ignore, .-spi_lld_ignore
 572 003c AFF30080 		.section	.text.spi_lld_exchange,"ax",%progbits
 573              		.align	2
 574              		.p2align 4,,15
 575              		.global	spi_lld_exchange
 576              		.thumb
 577              		.thumb_func
 578              		.type	spi_lld_exchange, %function
 579              	spi_lld_exchange:
 580              	.LFB119:
 581              		.loc 1 546 0
 582              		.cfi_startproc
 583              		@ args = 0, pretend = 0, frame = 0
 584              		@ frame_needed = 0, uses_anonymous_args = 0
 585              		@ link register save eliminated.
 586              	.LVL38:
 587 0000 F0B4     		push	{r4, r5, r6, r7}
 588              		.cfi_def_cfa_offset 16
 589              		.cfi_offset 4, -16
 590              		.cfi_offset 5, -12
 591              		.cfi_offset 6, -8
 592              		.cfi_offset 7, -4
 593              		.loc 1 548 0
 594 0002 046A     		ldr	r4, [r0, #32]
 595              		.loc 1 552 0
 596 0004 476A     		ldr	r7, [r0, #36]
 597              		.loc 1 550 0
 598 0006 866A     		ldr	r6, [r0, #40]
 599              		.loc 1 554 0
 600 0008 C56A     		ldr	r5, [r0, #44]
 601              		.loc 1 548 0
 602 000a 2468     		ldr	r4, [r4]
 603              		.loc 1 552 0
 604 000c 3868     		ldr	r0, [r7]
 605              	.LVL39:
 606              		.loc 1 548 0
 607 000e E360     		str	r3, [r4, #12]
 608              		.loc 1 550 0
 609 0010 46F48066 		orr	r6, r6, #1024
 610              		.loc 1 554 0
 611 0014 45F48065 		orr	r5, r5, #1024
 612              		.loc 1 549 0
 613 0018 6160     		str	r1, [r4, #4]
 614              		.loc 1 550 0
 615 001a 2660     		str	r6, [r4]
 616              		.loc 1 552 0
 617 001c C260     		str	r2, [r0, #12]
 618              		.loc 1 553 0
 619 001e 4160     		str	r1, [r0, #4]
ARM GAS  /tmp/ccmz5Id6.s 			page 12


 620              		.loc 1 554 0
 621 0020 0560     		str	r5, [r0]
 622              		.loc 1 556 0
 623 0022 2368     		ldr	r3, [r4]
 624              	.LVL40:
 625 0024 43F00103 		orr	r3, r3, #1
 626 0028 2360     		str	r3, [r4]
 627              		.loc 1 557 0
 628 002a 0368     		ldr	r3, [r0]
 629 002c 43F00103 		orr	r3, r3, #1
 630 0030 0360     		str	r3, [r0]
 631              		.loc 1 558 0
 632 0032 F0BC     		pop	{r4, r5, r6, r7}
 633 0034 7047     		bx	lr
 634              		.cfi_endproc
 635              	.LFE119:
 636              		.size	spi_lld_exchange, .-spi_lld_exchange
 637 0036 00BFAFF3 		.section	.text.spi_lld_send,"ax",%progbits
 637      0080AFF3 
 637      0080
 638              		.align	2
 639              		.p2align 4,,15
 640              		.global	spi_lld_send
 641              		.thumb
 642              		.thumb_func
 643              		.type	spi_lld_send, %function
 644              	spi_lld_send:
 645              	.LFB120:
 646              		.loc 1 573 0
 647              		.cfi_startproc
 648              		@ args = 0, pretend = 0, frame = 0
 649              		@ frame_needed = 0, uses_anonymous_args = 0
 650              		@ link register save eliminated.
 651              	.LVL41:
 652 0000 70B4     		push	{r4, r5, r6}
 653              		.cfi_def_cfa_offset 12
 654              		.cfi_offset 4, -12
 655              		.cfi_offset 5, -8
 656              		.cfi_offset 6, -4
 657              		.loc 1 579 0
 658 0002 436A     		ldr	r3, [r0, #36]
 659              		.loc 1 575 0
 660 0004 046A     		ldr	r4, [r0, #32]
 661              		.loc 1 581 0
 662 0006 C56A     		ldr	r5, [r0, #44]
 663              		.loc 1 575 0
 664 0008 2468     		ldr	r4, [r4]
 665              		.loc 1 579 0
 666 000a 1B68     		ldr	r3, [r3]
 667              		.loc 1 577 0
 668 000c 806A     		ldr	r0, [r0, #40]
 669              	.LVL42:
 670              		.loc 1 575 0
 671 000e 094E     		ldr	r6, .L59
 672 0010 E660     		str	r6, [r4, #12]
 673              		.loc 1 581 0
 674 0012 45F48065 		orr	r5, r5, #1024
ARM GAS  /tmp/ccmz5Id6.s 			page 13


 675              		.loc 1 576 0
 676 0016 6160     		str	r1, [r4, #4]
 677              		.loc 1 577 0
 678 0018 2060     		str	r0, [r4]
 679              		.loc 1 579 0
 680 001a DA60     		str	r2, [r3, #12]
 681              		.loc 1 580 0
 682 001c 5960     		str	r1, [r3, #4]
 683              		.loc 1 581 0
 684 001e 1D60     		str	r5, [r3]
 685              		.loc 1 583 0
 686 0020 2268     		ldr	r2, [r4]
 687              	.LVL43:
 688 0022 42F00102 		orr	r2, r2, #1
 689 0026 2260     		str	r2, [r4]
 690              		.loc 1 584 0
 691 0028 1A68     		ldr	r2, [r3]
 692 002a 42F00102 		orr	r2, r2, #1
 693 002e 1A60     		str	r2, [r3]
 694              		.loc 1 585 0
 695 0030 70BC     		pop	{r4, r5, r6}
 696 0032 7047     		bx	lr
 697              	.L60:
 698              		.align	2
 699              	.L59:
 700 0034 00000000 		.word	.LANCHOR2
 701              		.cfi_endproc
 702              	.LFE120:
 703              		.size	spi_lld_send, .-spi_lld_send
 704 0038 AFF30080 		.section	.text.spi_lld_receive,"ax",%progbits
 704      AFF30080 
 705              		.align	2
 706              		.p2align 4,,15
 707              		.global	spi_lld_receive
 708              		.thumb
 709              		.thumb_func
 710              		.type	spi_lld_receive, %function
 711              	spi_lld_receive:
 712              	.LFB121:
 713              		.loc 1 600 0
 714              		.cfi_startproc
 715              		@ args = 0, pretend = 0, frame = 0
 716              		@ frame_needed = 0, uses_anonymous_args = 0
 717              		@ link register save eliminated.
 718              	.LVL44:
 719 0000 70B4     		push	{r4, r5, r6}
 720              		.cfi_def_cfa_offset 12
 721              		.cfi_offset 4, -12
 722              		.cfi_offset 5, -8
 723              		.cfi_offset 6, -4
 724              		.loc 1 606 0
 725 0002 436A     		ldr	r3, [r0, #36]
 726              		.loc 1 602 0
 727 0004 046A     		ldr	r4, [r0, #32]
 728              		.loc 1 604 0
 729 0006 866A     		ldr	r6, [r0, #40]
 730              		.loc 1 602 0
ARM GAS  /tmp/ccmz5Id6.s 			page 14


 731 0008 2468     		ldr	r4, [r4]
 732              		.loc 1 606 0
 733 000a 1B68     		ldr	r3, [r3]
 734              		.loc 1 608 0
 735 000c C06A     		ldr	r0, [r0, #44]
 736              	.LVL45:
 737              		.loc 1 606 0
 738 000e 094D     		ldr	r5, .L62
 739              		.loc 1 602 0
 740 0010 E260     		str	r2, [r4, #12]
 741              		.loc 1 604 0
 742 0012 46F48066 		orr	r6, r6, #1024
 743              		.loc 1 603 0
 744 0016 6160     		str	r1, [r4, #4]
 745              		.loc 1 604 0
 746 0018 2660     		str	r6, [r4]
 747              		.loc 1 606 0
 748 001a DD60     		str	r5, [r3, #12]
 749              		.loc 1 607 0
 750 001c 5960     		str	r1, [r3, #4]
 751              		.loc 1 608 0
 752 001e 1860     		str	r0, [r3]
 753              		.loc 1 610 0
 754 0020 2268     		ldr	r2, [r4]
 755              	.LVL46:
 756 0022 42F00102 		orr	r2, r2, #1
 757 0026 2260     		str	r2, [r4]
 758              		.loc 1 611 0
 759 0028 1A68     		ldr	r2, [r3]
 760 002a 42F00102 		orr	r2, r2, #1
 761 002e 1A60     		str	r2, [r3]
 762              		.loc 1 612 0
 763 0030 70BC     		pop	{r4, r5, r6}
 764 0032 7047     		bx	lr
 765              	.L63:
 766              		.align	2
 767              	.L62:
 768 0034 00000000 		.word	.LANCHOR0
 769              		.cfi_endproc
 770              	.LFE121:
 771              		.size	spi_lld_receive, .-spi_lld_receive
 772 0038 AFF30080 		.section	.text.spi_lld_polled_exchange,"ax",%progbits
 772      AFF30080 
 773              		.align	2
 774              		.p2align 4,,15
 775              		.global	spi_lld_polled_exchange
 776              		.thumb
 777              		.thumb_func
 778              		.type	spi_lld_polled_exchange, %function
 779              	spi_lld_polled_exchange:
 780              	.LFB122:
 781              		.loc 1 626 0
 782              		.cfi_startproc
 783              		@ args = 0, pretend = 0, frame = 0
 784              		@ frame_needed = 0, uses_anonymous_args = 0
 785              		@ link register save eliminated.
 786              	.LVL47:
ARM GAS  /tmp/ccmz5Id6.s 			page 15


 787              		.loc 1 628 0
 788 0000 C269     		ldr	r2, [r0, #28]
 789 0002 9181     		strh	r1, [r2, #12]	@ movhi
 790              	.L66:
 791              		.loc 1 629 0 discriminator 1
 792 0004 1389     		ldrh	r3, [r2, #8]
 793 0006 DB07     		lsls	r3, r3, #31
 794 0008 FCD5     		bpl	.L66
 795              		.loc 1 631 0
 796 000a 9089     		ldrh	r0, [r2, #12]
 797              	.LVL48:
 798              		.loc 1 632 0
 799 000c 80B2     		uxth	r0, r0
 800 000e 7047     		bx	lr
 801              		.cfi_endproc
 802              	.LFE122:
 803              		.size	spi_lld_polled_exchange, .-spi_lld_polled_exchange
 804              		.global	SPID2
 805              		.section	.bss.dummytx,"aw",%nobits
 806              		.align	1
 807              		.set	.LANCHOR0,. + 0
 808              		.type	dummytx, %object
 809              		.size	dummytx, 2
 810              	dummytx:
 811 0000 0000     		.space	2
 812              		.section	.bss.SPID2,"aw",%nobits
 813              		.align	2
 814              		.set	.LANCHOR1,. + 0
 815              		.type	SPID2, %object
 816              		.size	SPID2, 48
 817              	SPID2:
 818 0000 00000000 		.space	48
 818      00000000 
 818      00000000 
 818      00000000 
 818      00000000 
 819              		.section	.rodata.str1.4,"aMS",%progbits,1
 820              		.align	2
 821              	.LC0:
 822 0000 7370695F 		.ascii	"spi_lld_start(), #3\000"
 822      6C6C645F 
 822      73746172 
 822      7428292C 
 822      20233300 
 823              	.LC1:
 824 0014 7370695F 		.ascii	"spi_lld_start(), #4\000"
 824      6C6C645F 
 824      73746172 
 824      7428292C 
 824      20233400 
 825              		.section	.bss.dummyrx,"aw",%nobits
 826              		.align	1
 827              		.set	.LANCHOR2,. + 0
 828              		.type	dummyrx, %object
 829              		.size	dummyrx, 2
 830              	dummyrx:
 831 0000 0000     		.space	2
ARM GAS  /tmp/ccmz5Id6.s 			page 16


 832              		.text
 833              	.Letext0:
 834              		.file 2 "/opt/ARM/lib/gcc/arm-none-eabi/4.8.4/include/stddef.h"
 835              		.file 3 "/opt/ARM/arm-none-eabi/include/machine/_default_types.h"
 836              		.file 4 "/opt/ARM/arm-none-eabi/include/stdint.h"
 837              		.file 5 "../../os/ports/GCC/ARMCMx/chtypes.h"
 838              		.file 6 "../../os/kernel/include/chlists.h"
 839              		.file 7 "../../os/kernel/include/chthreads.h"
 840              		.file 8 "../../os/ports/GCC/ARMCMx/chcore_v7m.h"
 841              		.file 9 "../../os/kernel/include/chmtx.h"
 842              		.file 10 "../../os/hal/platforms/STM32F4xx/stm32f4xx.h"
 843              		.file 11 "../../os/hal/platforms/STM32F4xx/stm32_dma.h"
 844              		.file 12 "../../os/hal/platforms/STM32/GPIOv2/pal_lld.h"
 845              		.file 13 "../../os/hal/include/spi.h"
 846              		.file 14 "../../os/hal/platforms/STM32/SPIv1/spi_lld.h"
 847              		.file 15 "../../os/ports/common/ARMCMx/CMSIS/include/core_cm4.h"
 848              		.file 16 "../../os/kernel/include/chschd.h"
 849              		.file 17 "../../os/kernel/include/chdebug.h"
 850              		.section	.debug_info,"",%progbits
 851              	.Ldebug_info0:
 852 0000 E00E0000 		.4byte	0xee0
 853 0004 0400     		.2byte	0x4
 854 0006 00000000 		.4byte	.Ldebug_abbrev0
 855 000a 04       		.byte	0x4
 856 000b 01       		.uleb128 0x1
 857 000c 9D060000 		.4byte	.LASF173
 858 0010 01       		.byte	0x1
 859 0011 00000000 		.4byte	.LASF174
 860 0015 94030000 		.4byte	.LASF175
 861 0019 00000000 		.4byte	.Ldebug_ranges0+0
 862 001d 00000000 		.4byte	0
 863 0021 00000000 		.4byte	.Ldebug_line0
 864 0025 02       		.uleb128 0x2
 865 0026 04       		.byte	0x4
 866 0027 05       		.byte	0x5
 867 0028 696E7400 		.ascii	"int\000"
 868 002c 03       		.uleb128 0x3
 869 002d 32000000 		.4byte	.LASF2
 870 0031 02       		.byte	0x2
 871 0032 D4       		.byte	0xd4
 872 0033 37000000 		.4byte	0x37
 873 0037 04       		.uleb128 0x4
 874 0038 04       		.byte	0x4
 875 0039 07       		.byte	0x7
 876 003a 50020000 		.4byte	.LASF0
 877 003e 04       		.uleb128 0x4
 878 003f 01       		.byte	0x1
 879 0040 06       		.byte	0x6
 880 0041 1F010000 		.4byte	.LASF1
 881 0045 03       		.uleb128 0x3
 882 0046 63000000 		.4byte	.LASF3
 883 004a 03       		.byte	0x3
 884 004b 1C       		.byte	0x1c
 885 004c 50000000 		.4byte	0x50
 886 0050 04       		.uleb128 0x4
 887 0051 01       		.byte	0x1
 888 0052 08       		.byte	0x8
ARM GAS  /tmp/ccmz5Id6.s 			page 17


 889 0053 A6040000 		.4byte	.LASF4
 890 0057 04       		.uleb128 0x4
 891 0058 02       		.byte	0x2
 892 0059 05       		.byte	0x5
 893 005a E7040000 		.4byte	.LASF5
 894 005e 03       		.uleb128 0x3
 895 005f C4050000 		.4byte	.LASF6
 896 0063 03       		.byte	0x3
 897 0064 26       		.byte	0x26
 898 0065 69000000 		.4byte	0x69
 899 0069 04       		.uleb128 0x4
 900 006a 02       		.byte	0x2
 901 006b 07       		.byte	0x7
 902 006c C2020000 		.4byte	.LASF7
 903 0070 03       		.uleb128 0x3
 904 0071 FF050000 		.4byte	.LASF8
 905 0075 03       		.byte	0x3
 906 0076 37       		.byte	0x37
 907 0077 7B000000 		.4byte	0x7b
 908 007b 04       		.uleb128 0x4
 909 007c 04       		.byte	0x4
 910 007d 05       		.byte	0x5
 911 007e 6F010000 		.4byte	.LASF9
 912 0082 03       		.uleb128 0x3
 913 0083 FA010000 		.4byte	.LASF10
 914 0087 03       		.byte	0x3
 915 0088 38       		.byte	0x38
 916 0089 8D000000 		.4byte	0x8d
 917 008d 04       		.uleb128 0x4
 918 008e 04       		.byte	0x4
 919 008f 07       		.byte	0x7
 920 0090 71050000 		.4byte	.LASF11
 921 0094 04       		.uleb128 0x4
 922 0095 08       		.byte	0x8
 923 0096 05       		.byte	0x5
 924 0097 11010000 		.4byte	.LASF12
 925 009b 03       		.uleb128 0x3
 926 009c 05040000 		.4byte	.LASF13
 927 00a0 03       		.byte	0x3
 928 00a1 4E       		.byte	0x4e
 929 00a2 A6000000 		.4byte	0xa6
 930 00a6 04       		.uleb128 0x4
 931 00a7 08       		.byte	0x8
 932 00a8 07       		.byte	0x7
 933 00a9 8B000000 		.4byte	.LASF14
 934 00ad 03       		.uleb128 0x3
 935 00ae 90060000 		.4byte	.LASF15
 936 00b2 04       		.byte	0x4
 937 00b3 2A       		.byte	0x2a
 938 00b4 45000000 		.4byte	0x45
 939 00b8 03       		.uleb128 0x3
 940 00b9 FE020000 		.4byte	.LASF16
 941 00bd 04       		.byte	0x4
 942 00be 36       		.byte	0x36
 943 00bf 5E000000 		.4byte	0x5e
 944 00c3 03       		.uleb128 0x3
 945 00c4 9E040000 		.4byte	.LASF17
ARM GAS  /tmp/ccmz5Id6.s 			page 18


 946 00c8 04       		.byte	0x4
 947 00c9 41       		.byte	0x41
 948 00ca 70000000 		.4byte	0x70
 949 00ce 03       		.uleb128 0x3
 950 00cf 54050000 		.4byte	.LASF18
 951 00d3 04       		.byte	0x4
 952 00d4 42       		.byte	0x42
 953 00d5 82000000 		.4byte	0x82
 954 00d9 03       		.uleb128 0x3
 955 00da 4C000000 		.4byte	.LASF19
 956 00de 04       		.byte	0x4
 957 00df 4E       		.byte	0x4e
 958 00e0 9B000000 		.4byte	0x9b
 959 00e4 03       		.uleb128 0x3
 960 00e5 4A010000 		.4byte	.LASF20
 961 00e9 05       		.byte	0x5
 962 00ea 2B       		.byte	0x2b
 963 00eb EF000000 		.4byte	0xef
 964 00ef 04       		.uleb128 0x4
 965 00f0 01       		.byte	0x1
 966 00f1 02       		.byte	0x2
 967 00f2 98040000 		.4byte	.LASF21
 968 00f6 03       		.uleb128 0x3
 969 00f7 F6020000 		.4byte	.LASF22
 970 00fb 05       		.byte	0x5
 971 00fc 2C       		.byte	0x2c
 972 00fd AD000000 		.4byte	0xad
 973 0101 03       		.uleb128 0x3
 974 0102 A6010000 		.4byte	.LASF23
 975 0106 05       		.byte	0x5
 976 0107 2D       		.byte	0x2d
 977 0108 AD000000 		.4byte	0xad
 978 010c 03       		.uleb128 0x3
 979 010d 2B040000 		.4byte	.LASF24
 980 0111 05       		.byte	0x5
 981 0112 2E       		.byte	0x2e
 982 0113 AD000000 		.4byte	0xad
 983 0117 03       		.uleb128 0x3
 984 0118 59010000 		.4byte	.LASF25
 985 011c 05       		.byte	0x5
 986 011d 2F       		.byte	0x2f
 987 011e AD000000 		.4byte	0xad
 988 0122 03       		.uleb128 0x3
 989 0123 8A040000 		.4byte	.LASF26
 990 0127 05       		.byte	0x5
 991 0128 30       		.byte	0x30
 992 0129 CE000000 		.4byte	0xce
 993 012d 03       		.uleb128 0x3
 994 012e E0020000 		.4byte	.LASF27
 995 0132 05       		.byte	0x5
 996 0133 31       		.byte	0x31
 997 0134 C3000000 		.4byte	0xc3
 998 0138 03       		.uleb128 0x3
 999 0139 18030000 		.4byte	.LASF28
 1000 013d 05       		.byte	0x5
 1001 013e 33       		.byte	0x33
 1002 013f CE000000 		.4byte	0xce
ARM GAS  /tmp/ccmz5Id6.s 			page 19


 1003 0143 03       		.uleb128 0x3
 1004 0144 EA050000 		.4byte	.LASF29
 1005 0148 05       		.byte	0x5
 1006 0149 35       		.byte	0x35
 1007 014a CE000000 		.4byte	0xce
 1008 014e 03       		.uleb128 0x3
 1009 014f 33050000 		.4byte	.LASF30
 1010 0153 06       		.byte	0x6
 1011 0154 2A       		.byte	0x2a
 1012 0155 59010000 		.4byte	0x159
 1013 0159 05       		.uleb128 0x5
 1014 015a 33050000 		.4byte	.LASF30
 1015 015e 4C       		.byte	0x4c
 1016 015f 07       		.byte	0x7
 1017 0160 5E       		.byte	0x5e
 1018 0161 62020000 		.4byte	0x262
 1019 0165 06       		.uleb128 0x6
 1020 0166 78030000 		.4byte	.LASF31
 1021 016a 07       		.byte	0x7
 1022 016b 5F       		.byte	0x5f
 1023 016c 83020000 		.4byte	0x283
 1024 0170 00       		.byte	0
 1025 0171 06       		.uleb128 0x6
 1026 0172 65040000 		.4byte	.LASF32
 1027 0176 07       		.byte	0x7
 1028 0177 61       		.byte	0x61
 1029 0178 83020000 		.4byte	0x283
 1030 017c 04       		.byte	0x4
 1031 017d 06       		.uleb128 0x6
 1032 017e FC000000 		.4byte	.LASF33
 1033 0182 07       		.byte	0x7
 1034 0183 63       		.byte	0x63
 1035 0184 22010000 		.4byte	0x122
 1036 0188 08       		.byte	0x8
 1037 0189 06       		.uleb128 0x6
 1038 018a 2F080000 		.4byte	.LASF34
 1039 018e 07       		.byte	0x7
 1040 018f 64       		.byte	0x64
 1041 0190 18040000 		.4byte	0x418
 1042 0194 0C       		.byte	0xc
 1043 0195 06       		.uleb128 0x6
 1044 0196 BB010000 		.4byte	.LASF35
 1045 019a 07       		.byte	0x7
 1046 019b 66       		.byte	0x66
 1047 019c 83020000 		.4byte	0x283
 1048 01a0 10       		.byte	0x10
 1049 01a1 06       		.uleb128 0x6
 1050 01a2 8C030000 		.4byte	.LASF36
 1051 01a6 07       		.byte	0x7
 1052 01a7 67       		.byte	0x67
 1053 01a8 83020000 		.4byte	0x283
 1054 01ac 14       		.byte	0x14
 1055 01ad 06       		.uleb128 0x6
 1056 01ae DE070000 		.4byte	.LASF37
 1057 01b2 07       		.byte	0x7
 1058 01b3 6E       		.byte	0x6e
 1059 01b4 C1040000 		.4byte	0x4c1
ARM GAS  /tmp/ccmz5Id6.s 			page 20


 1060 01b8 18       		.byte	0x18
 1061 01b9 06       		.uleb128 0x6
 1062 01ba 45020000 		.4byte	.LASF38
 1063 01be 07       		.byte	0x7
 1064 01bf 74       		.byte	0x74
 1065 01c0 D3040000 		.4byte	0x4d3
 1066 01c4 1C       		.byte	0x1c
 1067 01c5 06       		.uleb128 0x6
 1068 01c6 D5040000 		.4byte	.LASF39
 1069 01ca 07       		.byte	0x7
 1070 01cb 79       		.byte	0x79
 1071 01cc 01010000 		.4byte	0x101
 1072 01d0 20       		.byte	0x20
 1073 01d1 06       		.uleb128 0x6
 1074 01d2 1A050000 		.4byte	.LASF40
 1075 01d6 07       		.byte	0x7
 1076 01d7 7D       		.byte	0x7d
 1077 01d8 F6000000 		.4byte	0xf6
 1078 01dc 21       		.byte	0x21
 1079 01dd 06       		.uleb128 0x6
 1080 01de F5030000 		.4byte	.LASF41
 1081 01e2 07       		.byte	0x7
 1082 01e3 82       		.byte	0x82
 1083 01e4 0C010000 		.4byte	0x10c
 1084 01e8 22       		.byte	0x22
 1085 01e9 06       		.uleb128 0x6
 1086 01ea F1040000 		.4byte	.LASF42
 1087 01ee 07       		.byte	0x7
 1088 01ef 88       		.byte	0x88
 1089 01f0 17010000 		.4byte	0x117
 1090 01f4 23       		.byte	0x23
 1091 01f5 06       		.uleb128 0x6
 1092 01f6 79020000 		.4byte	.LASF43
 1093 01fa 07       		.byte	0x7
 1094 01fb 8F       		.byte	0x8f
 1095 01fc 45040000 		.4byte	0x445
 1096 0200 24       		.byte	0x24
 1097 0201 07       		.uleb128 0x7
 1098 0202 705F7500 		.ascii	"p_u\000"
 1099 0206 07       		.byte	0x7
 1100 0207 B4       		.byte	0xb4
 1101 0208 8C040000 		.4byte	0x48c
 1102 020c 28       		.byte	0x28
 1103 020d 06       		.uleb128 0x6
 1104 020e 35080000 		.4byte	.LASF44
 1105 0212 07       		.byte	0x7
 1106 0213 B9       		.byte	0xb9
 1107 0214 A9020000 		.4byte	0x2a9
 1108 0218 2C       		.byte	0x2c
 1109 0219 06       		.uleb128 0x6
 1110 021a 8F020000 		.4byte	.LASF45
 1111 021e 07       		.byte	0x7
 1112 021f BF       		.byte	0xbf
 1113 0220 89020000 		.4byte	0x289
 1114 0224 30       		.byte	0x30
 1115 0225 06       		.uleb128 0x6
 1116 0226 0F080000 		.4byte	.LASF46
ARM GAS  /tmp/ccmz5Id6.s 			page 21


 1117 022a 07       		.byte	0x7
 1118 022b C3       		.byte	0xc3
 1119 022c 2D010000 		.4byte	0x12d
 1120 0230 38       		.byte	0x38
 1121 0231 06       		.uleb128 0x6
 1122 0232 3A050000 		.4byte	.LASF47
 1123 0236 07       		.byte	0x7
 1124 0237 C9       		.byte	0xc9
 1125 0238 38010000 		.4byte	0x138
 1126 023c 3C       		.byte	0x3c
 1127 023d 06       		.uleb128 0x6
 1128 023e DD040000 		.4byte	.LASF48
 1129 0242 07       		.byte	0x7
 1130 0243 D0       		.byte	0xd0
 1131 0244 D9040000 		.4byte	0x4d9
 1132 0248 40       		.byte	0x40
 1133 0249 06       		.uleb128 0x6
 1134 024a F4050000 		.4byte	.LASF49
 1135 024e 07       		.byte	0x7
 1136 024f D4       		.byte	0xd4
 1137 0250 22010000 		.4byte	0x122
 1138 0254 44       		.byte	0x44
 1139 0255 06       		.uleb128 0x6
 1140 0256 05020000 		.4byte	.LASF50
 1141 025a 07       		.byte	0x7
 1142 025b DA       		.byte	0xda
 1143 025c BF020000 		.4byte	0x2bf
 1144 0260 48       		.byte	0x48
 1145 0261 00       		.byte	0
 1146 0262 08       		.uleb128 0x8
 1147 0263 08       		.byte	0x8
 1148 0264 06       		.byte	0x6
 1149 0265 61       		.byte	0x61
 1150 0266 83020000 		.4byte	0x283
 1151 026a 06       		.uleb128 0x6
 1152 026b 78030000 		.4byte	.LASF31
 1153 026f 06       		.byte	0x6
 1154 0270 62       		.byte	0x62
 1155 0271 83020000 		.4byte	0x283
 1156 0275 00       		.byte	0
 1157 0276 06       		.uleb128 0x6
 1158 0277 65040000 		.4byte	.LASF32
 1159 027b 06       		.byte	0x6
 1160 027c 64       		.byte	0x64
 1161 027d 83020000 		.4byte	0x283
 1162 0281 04       		.byte	0x4
 1163 0282 00       		.byte	0
 1164 0283 09       		.uleb128 0x9
 1165 0284 04       		.byte	0x4
 1166 0285 4E010000 		.4byte	0x14e
 1167 0289 03       		.uleb128 0x3
 1168 028a DE030000 		.4byte	.LASF51
 1169 028e 06       		.byte	0x6
 1170 028f 66       		.byte	0x66
 1171 0290 62020000 		.4byte	0x262
 1172 0294 08       		.uleb128 0x8
 1173 0295 04       		.byte	0x4
ARM GAS  /tmp/ccmz5Id6.s 			page 22


 1174 0296 06       		.byte	0x6
 1175 0297 6B       		.byte	0x6b
 1176 0298 A9020000 		.4byte	0x2a9
 1177 029c 06       		.uleb128 0x6
 1178 029d 78030000 		.4byte	.LASF31
 1179 02a1 06       		.byte	0x6
 1180 02a2 6D       		.byte	0x6d
 1181 02a3 83020000 		.4byte	0x283
 1182 02a7 00       		.byte	0
 1183 02a8 00       		.byte	0
 1184 02a9 03       		.uleb128 0x3
 1185 02aa 39000000 		.4byte	.LASF52
 1186 02ae 06       		.byte	0x6
 1187 02af 70       		.byte	0x70
 1188 02b0 94020000 		.4byte	0x294
 1189 02b4 03       		.uleb128 0x3
 1190 02b5 0D020000 		.4byte	.LASF53
 1191 02b9 08       		.byte	0x8
 1192 02ba E5       		.byte	0xe5
 1193 02bb BF020000 		.4byte	0x2bf
 1194 02bf 0A       		.uleb128 0xa
 1195 02c0 04       		.byte	0x4
 1196 02c1 03       		.uleb128 0x3
 1197 02c2 2A030000 		.4byte	.LASF54
 1198 02c6 08       		.byte	0x8
 1199 02c7 EB       		.byte	0xeb
 1200 02c8 D9000000 		.4byte	0xd9
 1201 02cc 0B       		.uleb128 0xb
 1202 02cd 4A060000 		.4byte	.LASF55
 1203 02d1 64       		.byte	0x64
 1204 02d2 08       		.byte	0x8
 1205 02d3 0C01     		.2byte	0x10c
 1206 02d5 18040000 		.4byte	0x418
 1207 02d9 0C       		.uleb128 0xc
 1208 02da 73313600 		.ascii	"s16\000"
 1209 02de 08       		.byte	0x8
 1210 02df 0E01     		.2byte	0x10e
 1211 02e1 B4020000 		.4byte	0x2b4
 1212 02e5 00       		.byte	0
 1213 02e6 0C       		.uleb128 0xc
 1214 02e7 73313700 		.ascii	"s17\000"
 1215 02eb 08       		.byte	0x8
 1216 02ec 0F01     		.2byte	0x10f
 1217 02ee B4020000 		.4byte	0x2b4
 1218 02f2 04       		.byte	0x4
 1219 02f3 0C       		.uleb128 0xc
 1220 02f4 73313800 		.ascii	"s18\000"
 1221 02f8 08       		.byte	0x8
 1222 02f9 1001     		.2byte	0x110
 1223 02fb B4020000 		.4byte	0x2b4
 1224 02ff 08       		.byte	0x8
 1225 0300 0C       		.uleb128 0xc
 1226 0301 73313900 		.ascii	"s19\000"
 1227 0305 08       		.byte	0x8
 1228 0306 1101     		.2byte	0x111
 1229 0308 B4020000 		.4byte	0x2b4
 1230 030c 0C       		.byte	0xc
ARM GAS  /tmp/ccmz5Id6.s 			page 23


 1231 030d 0C       		.uleb128 0xc
 1232 030e 73323000 		.ascii	"s20\000"
 1233 0312 08       		.byte	0x8
 1234 0313 1201     		.2byte	0x112
 1235 0315 B4020000 		.4byte	0x2b4
 1236 0319 10       		.byte	0x10
 1237 031a 0C       		.uleb128 0xc
 1238 031b 73323100 		.ascii	"s21\000"
 1239 031f 08       		.byte	0x8
 1240 0320 1301     		.2byte	0x113
 1241 0322 B4020000 		.4byte	0x2b4
 1242 0326 14       		.byte	0x14
 1243 0327 0C       		.uleb128 0xc
 1244 0328 73323200 		.ascii	"s22\000"
 1245 032c 08       		.byte	0x8
 1246 032d 1401     		.2byte	0x114
 1247 032f B4020000 		.4byte	0x2b4
 1248 0333 18       		.byte	0x18
 1249 0334 0C       		.uleb128 0xc
 1250 0335 73323300 		.ascii	"s23\000"
 1251 0339 08       		.byte	0x8
 1252 033a 1501     		.2byte	0x115
 1253 033c B4020000 		.4byte	0x2b4
 1254 0340 1C       		.byte	0x1c
 1255 0341 0C       		.uleb128 0xc
 1256 0342 73323400 		.ascii	"s24\000"
 1257 0346 08       		.byte	0x8
 1258 0347 1601     		.2byte	0x116
 1259 0349 B4020000 		.4byte	0x2b4
 1260 034d 20       		.byte	0x20
 1261 034e 0C       		.uleb128 0xc
 1262 034f 73323500 		.ascii	"s25\000"
 1263 0353 08       		.byte	0x8
 1264 0354 1701     		.2byte	0x117
 1265 0356 B4020000 		.4byte	0x2b4
 1266 035a 24       		.byte	0x24
 1267 035b 0C       		.uleb128 0xc
 1268 035c 73323600 		.ascii	"s26\000"
 1269 0360 08       		.byte	0x8
 1270 0361 1801     		.2byte	0x118
 1271 0363 B4020000 		.4byte	0x2b4
 1272 0367 28       		.byte	0x28
 1273 0368 0C       		.uleb128 0xc
 1274 0369 73323700 		.ascii	"s27\000"
 1275 036d 08       		.byte	0x8
 1276 036e 1901     		.2byte	0x119
 1277 0370 B4020000 		.4byte	0x2b4
 1278 0374 2C       		.byte	0x2c
 1279 0375 0C       		.uleb128 0xc
 1280 0376 73323800 		.ascii	"s28\000"
 1281 037a 08       		.byte	0x8
 1282 037b 1A01     		.2byte	0x11a
 1283 037d B4020000 		.4byte	0x2b4
 1284 0381 30       		.byte	0x30
 1285 0382 0C       		.uleb128 0xc
 1286 0383 73323900 		.ascii	"s29\000"
 1287 0387 08       		.byte	0x8
ARM GAS  /tmp/ccmz5Id6.s 			page 24


 1288 0388 1B01     		.2byte	0x11b
 1289 038a B4020000 		.4byte	0x2b4
 1290 038e 34       		.byte	0x34
 1291 038f 0C       		.uleb128 0xc
 1292 0390 73333000 		.ascii	"s30\000"
 1293 0394 08       		.byte	0x8
 1294 0395 1C01     		.2byte	0x11c
 1295 0397 B4020000 		.4byte	0x2b4
 1296 039b 38       		.byte	0x38
 1297 039c 0C       		.uleb128 0xc
 1298 039d 73333100 		.ascii	"s31\000"
 1299 03a1 08       		.byte	0x8
 1300 03a2 1D01     		.2byte	0x11d
 1301 03a4 B4020000 		.4byte	0x2b4
 1302 03a8 3C       		.byte	0x3c
 1303 03a9 0C       		.uleb128 0xc
 1304 03aa 723400   		.ascii	"r4\000"
 1305 03ad 08       		.byte	0x8
 1306 03ae 1F01     		.2byte	0x11f
 1307 03b0 B4020000 		.4byte	0x2b4
 1308 03b4 40       		.byte	0x40
 1309 03b5 0C       		.uleb128 0xc
 1310 03b6 723500   		.ascii	"r5\000"
 1311 03b9 08       		.byte	0x8
 1312 03ba 2001     		.2byte	0x120
 1313 03bc B4020000 		.4byte	0x2b4
 1314 03c0 44       		.byte	0x44
 1315 03c1 0C       		.uleb128 0xc
 1316 03c2 723600   		.ascii	"r6\000"
 1317 03c5 08       		.byte	0x8
 1318 03c6 2101     		.2byte	0x121
 1319 03c8 B4020000 		.4byte	0x2b4
 1320 03cc 48       		.byte	0x48
 1321 03cd 0C       		.uleb128 0xc
 1322 03ce 723700   		.ascii	"r7\000"
 1323 03d1 08       		.byte	0x8
 1324 03d2 2201     		.2byte	0x122
 1325 03d4 B4020000 		.4byte	0x2b4
 1326 03d8 4C       		.byte	0x4c
 1327 03d9 0C       		.uleb128 0xc
 1328 03da 723800   		.ascii	"r8\000"
 1329 03dd 08       		.byte	0x8
 1330 03de 2301     		.2byte	0x123
 1331 03e0 B4020000 		.4byte	0x2b4
 1332 03e4 50       		.byte	0x50
 1333 03e5 0C       		.uleb128 0xc
 1334 03e6 723900   		.ascii	"r9\000"
 1335 03e9 08       		.byte	0x8
 1336 03ea 2401     		.2byte	0x124
 1337 03ec B4020000 		.4byte	0x2b4
 1338 03f0 54       		.byte	0x54
 1339 03f1 0C       		.uleb128 0xc
 1340 03f2 72313000 		.ascii	"r10\000"
 1341 03f6 08       		.byte	0x8
 1342 03f7 2501     		.2byte	0x125
 1343 03f9 B4020000 		.4byte	0x2b4
 1344 03fd 58       		.byte	0x58
ARM GAS  /tmp/ccmz5Id6.s 			page 25


 1345 03fe 0C       		.uleb128 0xc
 1346 03ff 72313100 		.ascii	"r11\000"
 1347 0403 08       		.byte	0x8
 1348 0404 2601     		.2byte	0x126
 1349 0406 B4020000 		.4byte	0x2b4
 1350 040a 5C       		.byte	0x5c
 1351 040b 0C       		.uleb128 0xc
 1352 040c 6C7200   		.ascii	"lr\000"
 1353 040f 08       		.byte	0x8
 1354 0410 2701     		.2byte	0x127
 1355 0412 B4020000 		.4byte	0x2b4
 1356 0416 60       		.byte	0x60
 1357 0417 00       		.byte	0
 1358 0418 0B       		.uleb128 0xb
 1359 0419 BA020000 		.4byte	.LASF56
 1360 041d 04       		.byte	0x4
 1361 041e 08       		.byte	0x8
 1362 041f 3101     		.2byte	0x131
 1363 0421 33040000 		.4byte	0x433
 1364 0425 0C       		.uleb128 0xc
 1365 0426 72313300 		.ascii	"r13\000"
 1366 042a 08       		.byte	0x8
 1367 042b 3201     		.2byte	0x132
 1368 042d 33040000 		.4byte	0x433
 1369 0431 00       		.byte	0
 1370 0432 00       		.byte	0
 1371 0433 09       		.uleb128 0x9
 1372 0434 04       		.byte	0x4
 1373 0435 CC020000 		.4byte	0x2cc
 1374 0439 0D       		.uleb128 0xd
 1375 043a CE000000 		.4byte	0xce
 1376 043e 04       		.uleb128 0x4
 1377 043f 04       		.byte	0x4
 1378 0440 07       		.byte	0x7
 1379 0441 58030000 		.4byte	.LASF57
 1380 0445 0D       		.uleb128 0xd
 1381 0446 43010000 		.4byte	0x143
 1382 044a 05       		.uleb128 0x5
 1383 044b 24030000 		.4byte	.LASF58
 1384 044f 10       		.byte	0x10
 1385 0450 09       		.byte	0x9
 1386 0451 2C       		.byte	0x2c
 1387 0452 7B040000 		.4byte	0x47b
 1388 0456 06       		.uleb128 0x6
 1389 0457 51010000 		.4byte	.LASF59
 1390 045b 09       		.byte	0x9
 1391 045c 2D       		.byte	0x2d
 1392 045d 89020000 		.4byte	0x289
 1393 0461 00       		.byte	0
 1394 0462 06       		.uleb128 0x6
 1395 0463 15080000 		.4byte	.LASF60
 1396 0467 09       		.byte	0x9
 1397 0468 2F       		.byte	0x2f
 1398 0469 83020000 		.4byte	0x283
 1399 046d 08       		.byte	0x8
 1400 046e 06       		.uleb128 0x6
 1401 046f E3050000 		.4byte	.LASF61
ARM GAS  /tmp/ccmz5Id6.s 			page 26


 1402 0473 09       		.byte	0x9
 1403 0474 31       		.byte	0x31
 1404 0475 7B040000 		.4byte	0x47b
 1405 0479 0C       		.byte	0xc
 1406 047a 00       		.byte	0
 1407 047b 09       		.uleb128 0x9
 1408 047c 04       		.byte	0x4
 1409 047d 4A040000 		.4byte	0x44a
 1410 0481 03       		.uleb128 0x3
 1411 0482 24030000 		.4byte	.LASF58
 1412 0486 09       		.byte	0x9
 1413 0487 33       		.byte	0x33
 1414 0488 4A040000 		.4byte	0x44a
 1415 048c 0E       		.uleb128 0xe
 1416 048d 04       		.byte	0x4
 1417 048e 07       		.byte	0x7
 1418 048f 96       		.byte	0x96
 1419 0490 C1040000 		.4byte	0x4c1
 1420 0494 0F       		.uleb128 0xf
 1421 0495 45000000 		.4byte	.LASF62
 1422 0499 07       		.byte	0x7
 1423 049a 9D       		.byte	0x9d
 1424 049b 2D010000 		.4byte	0x12d
 1425 049f 0F       		.uleb128 0xf
 1426 04a0 B2000000 		.4byte	.LASF63
 1427 04a4 07       		.byte	0x7
 1428 04a5 A4       		.byte	0xa4
 1429 04a6 2D010000 		.4byte	0x12d
 1430 04aa 0F       		.uleb128 0xf
 1431 04ab BC070000 		.4byte	.LASF64
 1432 04af 07       		.byte	0x7
 1433 04b0 AB       		.byte	0xab
 1434 04b1 BF020000 		.4byte	0x2bf
 1435 04b5 0F       		.uleb128 0xf
 1436 04b6 13050000 		.4byte	.LASF65
 1437 04ba 07       		.byte	0x7
 1438 04bb B2       		.byte	0xb2
 1439 04bc 38010000 		.4byte	0x138
 1440 04c0 00       		.byte	0
 1441 04c1 09       		.uleb128 0x9
 1442 04c2 04       		.byte	0x4
 1443 04c3 C7040000 		.4byte	0x4c7
 1444 04c7 10       		.uleb128 0x10
 1445 04c8 CC040000 		.4byte	0x4cc
 1446 04cc 04       		.uleb128 0x4
 1447 04cd 01       		.byte	0x1
 1448 04ce 08       		.byte	0x8
 1449 04cf 83050000 		.4byte	.LASF66
 1450 04d3 09       		.uleb128 0x9
 1451 04d4 04       		.byte	0x4
 1452 04d5 C1020000 		.4byte	0x2c1
 1453 04d9 09       		.uleb128 0x9
 1454 04da 04       		.byte	0x4
 1455 04db 81040000 		.4byte	0x481
 1456 04df 11       		.uleb128 0x11
 1457 04e0 CE000000 		.4byte	0xce
 1458 04e4 EF040000 		.4byte	0x4ef
ARM GAS  /tmp/ccmz5Id6.s 			page 27


 1459 04e8 12       		.uleb128 0x12
 1460 04e9 3E040000 		.4byte	0x43e
 1461 04ed 01       		.byte	0x1
 1462 04ee 00       		.byte	0
 1463 04ef 0D       		.uleb128 0xd
 1464 04f0 B8000000 		.4byte	0xb8
 1465 04f4 0D       		.uleb128 0xd
 1466 04f5 C3000000 		.4byte	0xc3
 1467 04f9 13       		.uleb128 0x13
 1468 04fa 18       		.byte	0x18
 1469 04fb 0A       		.byte	0xa
 1470 04fc B102     		.2byte	0x2b1
 1471 04fe 50050000 		.4byte	0x550
 1472 0502 0C       		.uleb128 0xc
 1473 0503 435200   		.ascii	"CR\000"
 1474 0506 0A       		.byte	0xa
 1475 0507 B302     		.2byte	0x2b3
 1476 0509 39040000 		.4byte	0x439
 1477 050d 00       		.byte	0
 1478 050e 14       		.uleb128 0x14
 1479 050f 10060000 		.4byte	.LASF67
 1480 0513 0A       		.byte	0xa
 1481 0514 B402     		.2byte	0x2b4
 1482 0516 39040000 		.4byte	0x439
 1483 051a 04       		.byte	0x4
 1484 051b 0C       		.uleb128 0xc
 1485 051c 50415200 		.ascii	"PAR\000"
 1486 0520 0A       		.byte	0xa
 1487 0521 B502     		.2byte	0x2b5
 1488 0523 39040000 		.4byte	0x439
 1489 0527 08       		.byte	0x8
 1490 0528 14       		.uleb128 0x14
 1491 0529 2D000000 		.4byte	.LASF68
 1492 052d 0A       		.byte	0xa
 1493 052e B602     		.2byte	0x2b6
 1494 0530 39040000 		.4byte	0x439
 1495 0534 0C       		.byte	0xc
 1496 0535 14       		.uleb128 0x14
 1497 0536 51060000 		.4byte	.LASF69
 1498 053a 0A       		.byte	0xa
 1499 053b B702     		.2byte	0x2b7
 1500 053d 39040000 		.4byte	0x439
 1501 0541 10       		.byte	0x10
 1502 0542 0C       		.uleb128 0xc
 1503 0543 46435200 		.ascii	"FCR\000"
 1504 0547 0A       		.byte	0xa
 1505 0548 B802     		.2byte	0x2b8
 1506 054a 39040000 		.4byte	0x439
 1507 054e 14       		.byte	0x14
 1508 054f 00       		.byte	0
 1509 0550 15       		.uleb128 0x15
 1510 0551 15060000 		.4byte	.LASF70
 1511 0555 0A       		.byte	0xa
 1512 0556 B902     		.2byte	0x2b9
 1513 0558 F9040000 		.4byte	0x4f9
 1514 055c 13       		.uleb128 0x13
 1515 055d 90       		.byte	0x90
ARM GAS  /tmp/ccmz5Id6.s 			page 28


 1516 055e 0A       		.byte	0xa
 1517 055f 5804     		.2byte	0x458
 1518 0561 05070000 		.4byte	0x705
 1519 0565 0C       		.uleb128 0xc
 1520 0566 435200   		.ascii	"CR\000"
 1521 0569 0A       		.byte	0xa
 1522 056a 5A04     		.2byte	0x45a
 1523 056c 39040000 		.4byte	0x439
 1524 0570 00       		.byte	0
 1525 0571 14       		.uleb128 0x14
 1526 0572 E6020000 		.4byte	.LASF71
 1527 0576 0A       		.byte	0xa
 1528 0577 5B04     		.2byte	0x45b
 1529 0579 39040000 		.4byte	0x439
 1530 057d 04       		.byte	0x4
 1531 057e 14       		.uleb128 0x14
 1532 057f 74020000 		.4byte	.LASF72
 1533 0583 0A       		.byte	0xa
 1534 0584 5C04     		.2byte	0x45c
 1535 0586 39040000 		.4byte	0x439
 1536 058a 08       		.byte	0x8
 1537 058b 0C       		.uleb128 0xc
 1538 058c 43495200 		.ascii	"CIR\000"
 1539 0590 0A       		.byte	0xa
 1540 0591 5D04     		.2byte	0x45d
 1541 0593 39040000 		.4byte	0x439
 1542 0597 0C       		.byte	0xc
 1543 0598 14       		.uleb128 0x14
 1544 0599 30010000 		.4byte	.LASF73
 1545 059d 0A       		.byte	0xa
 1546 059e 5E04     		.2byte	0x45e
 1547 05a0 39040000 		.4byte	0x439
 1548 05a4 10       		.byte	0x10
 1549 05a5 14       		.uleb128 0x14
 1550 05a6 CF050000 		.4byte	.LASF74
 1551 05aa 0A       		.byte	0xa
 1552 05ab 5F04     		.2byte	0x45f
 1553 05ad 39040000 		.4byte	0x439
 1554 05b1 14       		.byte	0x14
 1555 05b2 14       		.uleb128 0x14
 1556 05b3 2A050000 		.4byte	.LASF75
 1557 05b7 0A       		.byte	0xa
 1558 05b8 6004     		.2byte	0x460
 1559 05ba 39040000 		.4byte	0x439
 1560 05be 18       		.byte	0x18
 1561 05bf 14       		.uleb128 0x14
 1562 05c0 33040000 		.4byte	.LASF76
 1563 05c4 0A       		.byte	0xa
 1564 05c5 6104     		.2byte	0x461
 1565 05c7 CE000000 		.4byte	0xce
 1566 05cb 1C       		.byte	0x1c
 1567 05cc 14       		.uleb128 0x14
 1568 05cd FC030000 		.4byte	.LASF77
 1569 05d1 0A       		.byte	0xa
 1570 05d2 6204     		.2byte	0x462
 1571 05d4 39040000 		.4byte	0x439
 1572 05d8 20       		.byte	0x20
ARM GAS  /tmp/ccmz5Id6.s 			page 29


 1573 05d9 14       		.uleb128 0x14
 1574 05da 93010000 		.4byte	.LASF78
 1575 05de 0A       		.byte	0xa
 1576 05df 6304     		.2byte	0x463
 1577 05e1 39040000 		.4byte	0x439
 1578 05e5 24       		.byte	0x24
 1579 05e6 14       		.uleb128 0x14
 1580 05e7 3D040000 		.4byte	.LASF79
 1581 05eb 0A       		.byte	0xa
 1582 05ec 6404     		.2byte	0x464
 1583 05ee DF040000 		.4byte	0x4df
 1584 05f2 28       		.byte	0x28
 1585 05f3 14       		.uleb128 0x14
 1586 05f4 E5070000 		.4byte	.LASF80
 1587 05f8 0A       		.byte	0xa
 1588 05f9 6504     		.2byte	0x465
 1589 05fb 39040000 		.4byte	0x439
 1590 05ff 30       		.byte	0x30
 1591 0600 14       		.uleb128 0x14
 1592 0601 33060000 		.4byte	.LASF81
 1593 0605 0A       		.byte	0xa
 1594 0606 6604     		.2byte	0x466
 1595 0608 39040000 		.4byte	0x439
 1596 060c 34       		.byte	0x34
 1597 060d 14       		.uleb128 0x14
 1598 060e 9A020000 		.4byte	.LASF82
 1599 0612 0A       		.byte	0xa
 1600 0613 6704     		.2byte	0x467
 1601 0615 39040000 		.4byte	0x439
 1602 0619 38       		.byte	0x38
 1603 061a 14       		.uleb128 0x14
 1604 061b 47040000 		.4byte	.LASF83
 1605 061f 0A       		.byte	0xa
 1606 0620 6804     		.2byte	0x468
 1607 0622 CE000000 		.4byte	0xce
 1608 0626 3C       		.byte	0x3c
 1609 0627 14       		.uleb128 0x14
 1610 0628 69050000 		.4byte	.LASF84
 1611 062c 0A       		.byte	0xa
 1612 062d 6904     		.2byte	0x469
 1613 062f 39040000 		.4byte	0x439
 1614 0633 40       		.byte	0x40
 1615 0634 14       		.uleb128 0x14
 1616 0635 22050000 		.4byte	.LASF85
 1617 0639 0A       		.byte	0xa
 1618 063a 6A04     		.2byte	0x46a
 1619 063c 39040000 		.4byte	0x439
 1620 0640 44       		.byte	0x44
 1621 0641 14       		.uleb128 0x14
 1622 0642 51040000 		.4byte	.LASF86
 1623 0646 0A       		.byte	0xa
 1624 0647 6B04     		.2byte	0x46b
 1625 0649 DF040000 		.4byte	0x4df
 1626 064d 48       		.byte	0x48
 1627 064e 14       		.uleb128 0x14
 1628 064f F2000000 		.4byte	.LASF87
 1629 0653 0A       		.byte	0xa
ARM GAS  /tmp/ccmz5Id6.s 			page 30


 1630 0654 6C04     		.2byte	0x46c
 1631 0656 39040000 		.4byte	0x439
 1632 065a 50       		.byte	0x50
 1633 065b 14       		.uleb128 0x14
 1634 065c EB030000 		.4byte	.LASF88
 1635 0660 0A       		.byte	0xa
 1636 0661 6D04     		.2byte	0x46d
 1637 0663 39040000 		.4byte	0x439
 1638 0667 54       		.byte	0x54
 1639 0668 14       		.uleb128 0x14
 1640 0669 FB040000 		.4byte	.LASF89
 1641 066d 0A       		.byte	0xa
 1642 066e 6E04     		.2byte	0x46e
 1643 0670 39040000 		.4byte	0x439
 1644 0674 58       		.byte	0x58
 1645 0675 14       		.uleb128 0x14
 1646 0676 5B040000 		.4byte	.LASF90
 1647 067a 0A       		.byte	0xa
 1648 067b 6F04     		.2byte	0x46f
 1649 067d CE000000 		.4byte	0xce
 1650 0681 5C       		.byte	0x5c
 1651 0682 14       		.uleb128 0x14
 1652 0683 9C010000 		.4byte	.LASF91
 1653 0687 0A       		.byte	0xa
 1654 0688 7004     		.2byte	0x470
 1655 068a 39040000 		.4byte	0x439
 1656 068e 60       		.byte	0x60
 1657 068f 14       		.uleb128 0x14
 1658 0690 07030000 		.4byte	.LASF92
 1659 0694 0A       		.byte	0xa
 1660 0695 7104     		.2byte	0x471
 1661 0697 39040000 		.4byte	0x439
 1662 069b 64       		.byte	0x64
 1663 069c 14       		.uleb128 0x14
 1664 069d 4A050000 		.4byte	.LASF93
 1665 06a1 0A       		.byte	0xa
 1666 06a2 7204     		.2byte	0x472
 1667 06a4 DF040000 		.4byte	0x4df
 1668 06a8 68       		.byte	0x68
 1669 06a9 14       		.uleb128 0x14
 1670 06aa 76060000 		.4byte	.LASF94
 1671 06ae 0A       		.byte	0xa
 1672 06af 7304     		.2byte	0x473
 1673 06b1 39040000 		.4byte	0x439
 1674 06b5 70       		.byte	0x70
 1675 06b6 0C       		.uleb128 0xc
 1676 06b7 43535200 		.ascii	"CSR\000"
 1677 06bb 0A       		.byte	0xa
 1678 06bc 7404     		.2byte	0x474
 1679 06be 39040000 		.4byte	0x439
 1680 06c2 74       		.byte	0x74
 1681 06c3 14       		.uleb128 0x14
 1682 06c4 6C040000 		.4byte	.LASF95
 1683 06c8 0A       		.byte	0xa
 1684 06c9 7504     		.2byte	0x475
 1685 06cb DF040000 		.4byte	0x4df
 1686 06cf 78       		.byte	0x78
ARM GAS  /tmp/ccmz5Id6.s 			page 31


 1687 06d0 14       		.uleb128 0x14
 1688 06d1 61060000 		.4byte	.LASF96
 1689 06d5 0A       		.byte	0xa
 1690 06d6 7604     		.2byte	0x476
 1691 06d8 39040000 		.4byte	0x439
 1692 06dc 80       		.byte	0x80
 1693 06dd 14       		.uleb128 0x14
 1694 06de D5020000 		.4byte	.LASF97
 1695 06e2 0A       		.byte	0xa
 1696 06e3 7704     		.2byte	0x477
 1697 06e5 39040000 		.4byte	0x439
 1698 06e9 84       		.byte	0x84
 1699 06ea 14       		.uleb128 0x14
 1700 06eb 20040000 		.4byte	.LASF98
 1701 06ef 0A       		.byte	0xa
 1702 06f0 7804     		.2byte	0x478
 1703 06f2 39040000 		.4byte	0x439
 1704 06f6 88       		.byte	0x88
 1705 06f7 14       		.uleb128 0x14
 1706 06f8 09010000 		.4byte	.LASF99
 1707 06fc 0A       		.byte	0xa
 1708 06fd 7904     		.2byte	0x479
 1709 06ff 39040000 		.4byte	0x439
 1710 0703 8C       		.byte	0x8c
 1711 0704 00       		.byte	0
 1712 0705 15       		.uleb128 0x15
 1713 0706 A2020000 		.4byte	.LASF100
 1714 070a 0A       		.byte	0xa
 1715 070b 7B04     		.2byte	0x47b
 1716 070d 5C050000 		.4byte	0x55c
 1717 0711 13       		.uleb128 0x13
 1718 0712 24       		.byte	0x24
 1719 0713 0A       		.byte	0xa
 1720 0714 E304     		.2byte	0x4e3
 1721 0716 03080000 		.4byte	0x803
 1722 071a 0C       		.uleb128 0xc
 1723 071b 43523100 		.ascii	"CR1\000"
 1724 071f 0A       		.byte	0xa
 1725 0720 E504     		.2byte	0x4e5
 1726 0722 EF040000 		.4byte	0x4ef
 1727 0726 00       		.byte	0
 1728 0727 14       		.uleb128 0x14
 1729 0728 33040000 		.4byte	.LASF76
 1730 072c 0A       		.byte	0xa
 1731 072d E604     		.2byte	0x4e6
 1732 072f B8000000 		.4byte	0xb8
 1733 0733 02       		.byte	0x2
 1734 0734 0C       		.uleb128 0xc
 1735 0735 43523200 		.ascii	"CR2\000"
 1736 0739 0A       		.byte	0xa
 1737 073a E704     		.2byte	0x4e7
 1738 073c EF040000 		.4byte	0x4ef
 1739 0740 04       		.byte	0x4
 1740 0741 14       		.uleb128 0x14
 1741 0742 3D040000 		.4byte	.LASF79
 1742 0746 0A       		.byte	0xa
 1743 0747 E804     		.2byte	0x4e8
ARM GAS  /tmp/ccmz5Id6.s 			page 32


 1744 0749 B8000000 		.4byte	0xb8
 1745 074d 06       		.byte	0x6
 1746 074e 0C       		.uleb128 0xc
 1747 074f 535200   		.ascii	"SR\000"
 1748 0752 0A       		.byte	0xa
 1749 0753 E904     		.2byte	0x4e9
 1750 0755 EF040000 		.4byte	0x4ef
 1751 0759 08       		.byte	0x8
 1752 075a 14       		.uleb128 0x14
 1753 075b 47040000 		.4byte	.LASF83
 1754 075f 0A       		.byte	0xa
 1755 0760 EA04     		.2byte	0x4ea
 1756 0762 B8000000 		.4byte	0xb8
 1757 0766 0A       		.byte	0xa
 1758 0767 0C       		.uleb128 0xc
 1759 0768 445200   		.ascii	"DR\000"
 1760 076b 0A       		.byte	0xa
 1761 076c EB04     		.2byte	0x4eb
 1762 076e EF040000 		.4byte	0x4ef
 1763 0772 0C       		.byte	0xc
 1764 0773 14       		.uleb128 0x14
 1765 0774 51040000 		.4byte	.LASF86
 1766 0778 0A       		.byte	0xa
 1767 0779 EC04     		.2byte	0x4ec
 1768 077b B8000000 		.4byte	0xb8
 1769 077f 0E       		.byte	0xe
 1770 0780 14       		.uleb128 0x14
 1771 0781 15040000 		.4byte	.LASF101
 1772 0785 0A       		.byte	0xa
 1773 0786 ED04     		.2byte	0x4ed
 1774 0788 EF040000 		.4byte	0x4ef
 1775 078c 10       		.byte	0x10
 1776 078d 14       		.uleb128 0x14
 1777 078e 5B040000 		.4byte	.LASF90
 1778 0792 0A       		.byte	0xa
 1779 0793 EE04     		.2byte	0x4ee
 1780 0795 B8000000 		.4byte	0xb8
 1781 0799 12       		.byte	0x12
 1782 079a 14       		.uleb128 0x14
 1783 079b 7B060000 		.4byte	.LASF102
 1784 079f 0A       		.byte	0xa
 1785 07a0 EF04     		.2byte	0x4ef
 1786 07a2 EF040000 		.4byte	0x4ef
 1787 07a6 14       		.byte	0x14
 1788 07a7 14       		.uleb128 0x14
 1789 07a8 4A050000 		.4byte	.LASF93
 1790 07ac 0A       		.byte	0xa
 1791 07ad F004     		.2byte	0x4f0
 1792 07af B8000000 		.4byte	0xb8
 1793 07b3 16       		.byte	0x16
 1794 07b4 14       		.uleb128 0x14
 1795 07b5 11030000 		.4byte	.LASF103
 1796 07b9 0A       		.byte	0xa
 1797 07ba F104     		.2byte	0x4f1
 1798 07bc EF040000 		.4byte	0x4ef
 1799 07c0 18       		.byte	0x18
 1800 07c1 14       		.uleb128 0x14
ARM GAS  /tmp/ccmz5Id6.s 			page 33


 1801 07c2 6C040000 		.4byte	.LASF95
 1802 07c6 0A       		.byte	0xa
 1803 07c7 F204     		.2byte	0x4f2
 1804 07c9 B8000000 		.4byte	0xb8
 1805 07cd 1A       		.byte	0x1a
 1806 07ce 14       		.uleb128 0x14
 1807 07cf 42010000 		.4byte	.LASF104
 1808 07d3 0A       		.byte	0xa
 1809 07d4 F304     		.2byte	0x4f3
 1810 07d6 EF040000 		.4byte	0x4ef
 1811 07da 1C       		.byte	0x1c
 1812 07db 14       		.uleb128 0x14
 1813 07dc 76040000 		.4byte	.LASF105
 1814 07e0 0A       		.byte	0xa
 1815 07e1 F404     		.2byte	0x4f4
 1816 07e3 B8000000 		.4byte	0xb8
 1817 07e7 1E       		.byte	0x1e
 1818 07e8 14       		.uleb128 0x14
 1819 07e9 52030000 		.4byte	.LASF106
 1820 07ed 0A       		.byte	0xa
 1821 07ee F504     		.2byte	0x4f5
 1822 07f0 EF040000 		.4byte	0x4ef
 1823 07f4 20       		.byte	0x20
 1824 07f5 14       		.uleb128 0x14
 1825 07f6 80040000 		.4byte	.LASF107
 1826 07fa 0A       		.byte	0xa
 1827 07fb F604     		.2byte	0x4f6
 1828 07fd B8000000 		.4byte	0xb8
 1829 0801 22       		.byte	0x22
 1830 0802 00       		.byte	0
 1831 0803 15       		.uleb128 0x15
 1832 0804 AF010000 		.4byte	.LASF108
 1833 0808 0A       		.byte	0xa
 1834 0809 F704     		.2byte	0x4f7
 1835 080b 11070000 		.4byte	0x711
 1836 080f 08       		.uleb128 0x8
 1837 0810 0C       		.byte	0xc
 1838 0811 0B       		.byte	0xb
 1839 0812 DA       		.byte	0xda
 1840 0813 54080000 		.4byte	0x854
 1841 0817 06       		.uleb128 0x6
 1842 0818 78000000 		.4byte	.LASF109
 1843 081c 0B       		.byte	0xb
 1844 081d DB       		.byte	0xdb
 1845 081e 54080000 		.4byte	0x854
 1846 0822 00       		.byte	0
 1847 0823 06       		.uleb128 0x6
 1848 0824 45050000 		.4byte	.LASF110
 1849 0828 0B       		.byte	0xb
 1850 0829 DC       		.byte	0xdc
 1851 082a 5A080000 		.4byte	0x85a
 1852 082e 04       		.byte	0x4
 1853 082f 06       		.uleb128 0x6
 1854 0830 B3020000 		.4byte	.LASF111
 1855 0834 0B       		.byte	0xb
 1856 0835 DD       		.byte	0xdd
 1857 0836 AD000000 		.4byte	0xad
ARM GAS  /tmp/ccmz5Id6.s 			page 34


 1858 083a 08       		.byte	0x8
 1859 083b 06       		.uleb128 0x6
 1860 083c 16020000 		.4byte	.LASF112
 1861 0840 0B       		.byte	0xb
 1862 0841 DF       		.byte	0xdf
 1863 0842 AD000000 		.4byte	0xad
 1864 0846 09       		.byte	0x9
 1865 0847 06       		.uleb128 0x6
 1866 0848 55000000 		.4byte	.LASF113
 1867 084c 0B       		.byte	0xb
 1868 084d E0       		.byte	0xe0
 1869 084e AD000000 		.4byte	0xad
 1870 0852 0A       		.byte	0xa
 1871 0853 00       		.byte	0
 1872 0854 09       		.uleb128 0x9
 1873 0855 04       		.byte	0x4
 1874 0856 50050000 		.4byte	0x550
 1875 085a 09       		.uleb128 0x9
 1876 085b 04       		.byte	0x4
 1877 085c 39040000 		.4byte	0x439
 1878 0860 03       		.uleb128 0x3
 1879 0861 B4040000 		.4byte	.LASF114
 1880 0865 0B       		.byte	0xb
 1881 0866 E1       		.byte	0xe1
 1882 0867 0F080000 		.4byte	0x80f
 1883 086b 03       		.uleb128 0x3
 1884 086c 80020000 		.4byte	.LASF115
 1885 0870 0B       		.byte	0xb
 1886 0871 EA       		.byte	0xea
 1887 0872 76080000 		.4byte	0x876
 1888 0876 09       		.uleb128 0x9
 1889 0877 04       		.byte	0x4
 1890 0878 7C080000 		.4byte	0x87c
 1891 087c 16       		.uleb128 0x16
 1892 087d 8C080000 		.4byte	0x88c
 1893 0881 17       		.uleb128 0x17
 1894 0882 BF020000 		.4byte	0x2bf
 1895 0886 17       		.uleb128 0x17
 1896 0887 CE000000 		.4byte	0xce
 1897 088b 00       		.byte	0
 1898 088c 08       		.uleb128 0x8
 1899 088d 04       		.byte	0x4
 1900 088e 0C       		.byte	0xc
 1901 088f 96       		.byte	0x96
 1902 0890 AD080000 		.4byte	0x8ad
 1903 0894 07       		.uleb128 0x7
 1904 0895 73657400 		.ascii	"set\000"
 1905 0899 0C       		.byte	0xc
 1906 089a 97       		.byte	0x97
 1907 089b B8000000 		.4byte	0xb8
 1908 089f 00       		.byte	0
 1909 08a0 06       		.uleb128 0x6
 1910 08a1 61030000 		.4byte	.LASF116
 1911 08a5 0C       		.byte	0xc
 1912 08a6 98       		.byte	0x98
 1913 08a7 B8000000 		.4byte	0xb8
 1914 08ab 02       		.byte	0x2
ARM GAS  /tmp/ccmz5Id6.s 			page 35


 1915 08ac 00       		.byte	0
 1916 08ad 0E       		.uleb128 0xe
 1917 08ae 04       		.byte	0x4
 1918 08af 0C       		.byte	0xc
 1919 08b0 94       		.byte	0x94
 1920 08b1 C8080000 		.4byte	0x8c8
 1921 08b5 18       		.uleb128 0x18
 1922 08b6 5700     		.ascii	"W\000"
 1923 08b8 0C       		.byte	0xc
 1924 08b9 95       		.byte	0x95
 1925 08ba CE000000 		.4byte	0xce
 1926 08be 18       		.uleb128 0x18
 1927 08bf 4800     		.ascii	"H\000"
 1928 08c1 0C       		.byte	0xc
 1929 08c2 99       		.byte	0x99
 1930 08c3 8C080000 		.4byte	0x88c
 1931 08c7 00       		.byte	0
 1932 08c8 08       		.uleb128 0x8
 1933 08c9 28       		.byte	0x28
 1934 08ca 0C       		.byte	0xc
 1935 08cb 8C       		.byte	0x8c
 1936 08cc 49090000 		.4byte	0x949
 1937 08d0 06       		.uleb128 0x6
 1938 08d1 85000000 		.4byte	.LASF117
 1939 08d5 0C       		.byte	0xc
 1940 08d6 8E       		.byte	0x8e
 1941 08d7 39040000 		.4byte	0x439
 1942 08db 00       		.byte	0
 1943 08dc 06       		.uleb128 0x6
 1944 08dd 5C000000 		.4byte	.LASF118
 1945 08e1 0C       		.byte	0xc
 1946 08e2 8F       		.byte	0x8f
 1947 08e3 39040000 		.4byte	0x439
 1948 08e7 04       		.byte	0x4
 1949 08e8 06       		.uleb128 0x6
 1950 08e9 F2010000 		.4byte	.LASF119
 1951 08ed 0C       		.byte	0xc
 1952 08ee 90       		.byte	0x90
 1953 08ef 39040000 		.4byte	0x439
 1954 08f3 08       		.byte	0x8
 1955 08f4 06       		.uleb128 0x6
 1956 08f5 AC000000 		.4byte	.LASF120
 1957 08f9 0C       		.byte	0xc
 1958 08fa 91       		.byte	0x91
 1959 08fb 39040000 		.4byte	0x439
 1960 08ff 0C       		.byte	0xc
 1961 0900 07       		.uleb128 0x7
 1962 0901 49445200 		.ascii	"IDR\000"
 1963 0905 0C       		.byte	0xc
 1964 0906 92       		.byte	0x92
 1965 0907 39040000 		.4byte	0x439
 1966 090b 10       		.byte	0x10
 1967 090c 07       		.uleb128 0x7
 1968 090d 4F445200 		.ascii	"ODR\000"
 1969 0911 0C       		.byte	0xc
 1970 0912 93       		.byte	0x93
 1971 0913 39040000 		.4byte	0x439
ARM GAS  /tmp/ccmz5Id6.s 			page 36


 1972 0917 14       		.byte	0x14
 1973 0918 06       		.uleb128 0x6
 1974 0919 2B010000 		.4byte	.LASF121
 1975 091d 0C       		.byte	0xc
 1976 091e 9A       		.byte	0x9a
 1977 091f 49090000 		.4byte	0x949
 1978 0923 18       		.byte	0x18
 1979 0924 06       		.uleb128 0x6
 1980 0925 AE020000 		.4byte	.LASF122
 1981 0929 0C       		.byte	0xc
 1982 092a 9B       		.byte	0x9b
 1983 092b 39040000 		.4byte	0x439
 1984 092f 1C       		.byte	0x1c
 1985 0930 06       		.uleb128 0x6
 1986 0931 1B040000 		.4byte	.LASF123
 1987 0935 0C       		.byte	0xc
 1988 0936 9C       		.byte	0x9c
 1989 0937 39040000 		.4byte	0x439
 1990 093b 20       		.byte	0x20
 1991 093c 06       		.uleb128 0x6
 1992 093d 10040000 		.4byte	.LASF124
 1993 0941 0C       		.byte	0xc
 1994 0942 9D       		.byte	0x9d
 1995 0943 39040000 		.4byte	0x439
 1996 0947 24       		.byte	0x24
 1997 0948 00       		.byte	0
 1998 0949 0D       		.uleb128 0xd
 1999 094a AD080000 		.4byte	0x8ad
 2000 094e 03       		.uleb128 0x3
 2001 094f D4010000 		.4byte	.LASF125
 2002 0953 0C       		.byte	0xc
 2003 0954 9E       		.byte	0x9e
 2004 0955 C8080000 		.4byte	0x8c8
 2005 0959 03       		.uleb128 0x3
 2006 095a 7F030000 		.4byte	.LASF126
 2007 095e 0C       		.byte	0xc
 2008 095f F0       		.byte	0xf0
 2009 0960 CE000000 		.4byte	0xce
 2010 0964 03       		.uleb128 0x3
 2011 0965 28060000 		.4byte	.LASF127
 2012 0969 0C       		.byte	0xc
 2013 096a FD       		.byte	0xfd
 2014 096b 6F090000 		.4byte	0x96f
 2015 096f 09       		.uleb128 0x9
 2016 0970 04       		.byte	0x4
 2017 0971 4E090000 		.4byte	0x94e
 2018 0975 09       		.uleb128 0x9
 2019 0976 04       		.byte	0x4
 2020 0977 7B090000 		.4byte	0x97b
 2021 097b 10       		.uleb128 0x10
 2022 097c 60080000 		.4byte	0x860
 2023 0980 19       		.uleb128 0x19
 2024 0981 01       		.byte	0x1
 2025 0982 0D       		.byte	0xd
 2026 0983 55       		.byte	0x55
 2027 0984 A7090000 		.4byte	0x9a7
 2028 0988 1A       		.uleb128 0x1a
ARM GAS  /tmp/ccmz5Id6.s 			page 37


 2029 0989 56060000 		.4byte	.LASF128
 2030 098d 00       		.sleb128 0
 2031 098e 1A       		.uleb128 0x1a
 2032 098f 39010000 		.4byte	.LASF129
 2033 0993 01       		.sleb128 1
 2034 0994 1A       		.uleb128 0x1a
 2035 0995 A2000000 		.4byte	.LASF130
 2036 0999 02       		.sleb128 2
 2037 099a 1A       		.uleb128 0x1a
 2038 099b 6D000000 		.4byte	.LASF131
 2039 099f 03       		.sleb128 3
 2040 09a0 1A       		.uleb128 0x1a
 2041 09a1 A6050000 		.4byte	.LASF132
 2042 09a5 04       		.sleb128 4
 2043 09a6 00       		.byte	0
 2044 09a7 03       		.uleb128 0x3
 2045 09a8 D8050000 		.4byte	.LASF133
 2046 09ac 0D       		.byte	0xd
 2047 09ad 5B       		.byte	0x5b
 2048 09ae 80090000 		.4byte	0x980
 2049 09b2 15       		.uleb128 0x15
 2050 09b3 CE000000 		.4byte	.LASF134
 2051 09b7 0E       		.byte	0xe
 2052 09b8 E701     		.2byte	0x1e7
 2053 09ba BE090000 		.4byte	0x9be
 2054 09be 0B       		.uleb128 0xb
 2055 09bf CE000000 		.4byte	.LASF134
 2056 09c3 30       		.byte	0x30
 2057 09c4 0E       		.byte	0xe
 2058 09c5 0B02     		.2byte	0x20b
 2059 09c7 410A0000 		.4byte	0xa41
 2060 09cb 14       		.uleb128 0x14
 2061 09cc 69010000 		.4byte	.LASF135
 2062 09d0 0E       		.byte	0xe
 2063 09d1 0F02     		.2byte	0x20f
 2064 09d3 A7090000 		.4byte	0x9a7
 2065 09d7 00       		.byte	0
 2066 09d8 14       		.uleb128 0x14
 2067 09d9 B3050000 		.4byte	.LASF136
 2068 09dd 0E       		.byte	0xe
 2069 09de 1302     		.2byte	0x213
 2070 09e0 AE0A0000 		.4byte	0xaae
 2071 09e4 04       		.byte	0x4
 2072 09e5 14       		.uleb128 0x14
 2073 09e6 09060000 		.4byte	.LASF137
 2074 09ea 0E       		.byte	0xe
 2075 09eb 1802     		.2byte	0x218
 2076 09ed 83020000 		.4byte	0x283
 2077 09f1 08       		.byte	0x8
 2078 09f2 14       		.uleb128 0x14
 2079 09f3 92040000 		.4byte	.LASF138
 2080 09f7 0E       		.byte	0xe
 2081 09f8 1F02     		.2byte	0x21f
 2082 09fa 81040000 		.4byte	0x481
 2083 09fe 0C       		.byte	0xc
 2084 09ff 0C       		.uleb128 0xc
 2085 0a00 73706900 		.ascii	"spi\000"
ARM GAS  /tmp/ccmz5Id6.s 			page 38


 2086 0a04 0E       		.byte	0xe
 2087 0a05 2B02     		.2byte	0x22b
 2088 0a07 B90A0000 		.4byte	0xab9
 2089 0a0b 1C       		.byte	0x1c
 2090 0a0c 14       		.uleb128 0x14
 2091 0a0d 7F000000 		.4byte	.LASF139
 2092 0a11 0E       		.byte	0xe
 2093 0a12 2F02     		.2byte	0x22f
 2094 0a14 75090000 		.4byte	0x975
 2095 0a18 20       		.byte	0x20
 2096 0a19 14       		.uleb128 0x14
 2097 0a1a E1010000 		.4byte	.LASF140
 2098 0a1e 0E       		.byte	0xe
 2099 0a1f 3302     		.2byte	0x233
 2100 0a21 75090000 		.4byte	0x975
 2101 0a25 24       		.byte	0x24
 2102 0a26 14       		.uleb128 0x14
 2103 0a27 CA010000 		.4byte	.LASF141
 2104 0a2b 0E       		.byte	0xe
 2105 0a2c 3702     		.2byte	0x237
 2106 0a2e CE000000 		.4byte	0xce
 2107 0a32 28       		.byte	0x28
 2108 0a33 14       		.uleb128 0x14
 2109 0a34 2E020000 		.4byte	.LASF142
 2110 0a38 0E       		.byte	0xe
 2111 0a39 3B02     		.2byte	0x23b
 2112 0a3b CE000000 		.4byte	0xce
 2113 0a3f 2C       		.byte	0x2c
 2114 0a40 00       		.byte	0
 2115 0a41 15       		.uleb128 0x15
 2116 0a42 20020000 		.4byte	.LASF143
 2117 0a46 0E       		.byte	0xe
 2118 0a47 EF01     		.2byte	0x1ef
 2119 0a49 4D0A0000 		.4byte	0xa4d
 2120 0a4d 09       		.uleb128 0x9
 2121 0a4e 04       		.byte	0x4
 2122 0a4f 530A0000 		.4byte	0xa53
 2123 0a53 16       		.uleb128 0x16
 2124 0a54 5E0A0000 		.4byte	0xa5e
 2125 0a58 17       		.uleb128 0x17
 2126 0a59 5E0A0000 		.4byte	0xa5e
 2127 0a5d 00       		.byte	0
 2128 0a5e 09       		.uleb128 0x9
 2129 0a5f 04       		.byte	0x4
 2130 0a60 B2090000 		.4byte	0x9b2
 2131 0a64 13       		.uleb128 0x13
 2132 0a65 0C       		.byte	0xc
 2133 0a66 0E       		.byte	0xe
 2134 0a67 F401     		.2byte	0x1f4
 2135 0a69 A20A0000 		.4byte	0xaa2
 2136 0a6d 14       		.uleb128 0x14
 2137 0a6e C3010000 		.4byte	.LASF144
 2138 0a72 0E       		.byte	0xe
 2139 0a73 F801     		.2byte	0x1f8
 2140 0a75 410A0000 		.4byte	0xa41
 2141 0a79 00       		.byte	0
 2142 0a7a 14       		.uleb128 0x14
ARM GAS  /tmp/ccmz5Id6.s 			page 39


 2143 0a7b D8000000 		.4byte	.LASF145
 2144 0a7f 0E       		.byte	0xe
 2145 0a80 FD01     		.2byte	0x1fd
 2146 0a82 64090000 		.4byte	0x964
 2147 0a86 04       		.byte	0x4
 2148 0a87 14       		.uleb128 0x14
 2149 0a88 03010000 		.4byte	.LASF146
 2150 0a8c 0E       		.byte	0xe
 2151 0a8d 0102     		.2byte	0x201
 2152 0a8f B8000000 		.4byte	0xb8
 2153 0a93 08       		.byte	0x8
 2154 0a94 0C       		.uleb128 0xc
 2155 0a95 63723100 		.ascii	"cr1\000"
 2156 0a99 0E       		.byte	0xe
 2157 0a9a 0502     		.2byte	0x205
 2158 0a9c B8000000 		.4byte	0xb8
 2159 0aa0 0A       		.byte	0xa
 2160 0aa1 00       		.byte	0
 2161 0aa2 15       		.uleb128 0x15
 2162 0aa3 05080000 		.4byte	.LASF147
 2163 0aa7 0E       		.byte	0xe
 2164 0aa8 0602     		.2byte	0x206
 2165 0aaa 640A0000 		.4byte	0xa64
 2166 0aae 09       		.uleb128 0x9
 2167 0aaf 04       		.byte	0x4
 2168 0ab0 B40A0000 		.4byte	0xab4
 2169 0ab4 10       		.uleb128 0x10
 2170 0ab5 A20A0000 		.4byte	0xaa2
 2171 0ab9 09       		.uleb128 0x9
 2172 0aba 04       		.byte	0x4
 2173 0abb 03080000 		.4byte	0x803
 2174 0abf 1B       		.uleb128 0x1b
 2175 0ac0 C3070000 		.4byte	.LASF150
 2176 0ac4 01       		.byte	0x1
 2177 0ac5 9F       		.byte	0x9f
 2178 0ac6 00000000 		.4byte	.LFB112
 2179 0aca 0C000000 		.4byte	.LFE112-.LFB112
 2180 0ace 01       		.uleb128 0x1
 2181 0acf 9C       		.byte	0x9c
 2182 0ad0 FC0A0000 		.4byte	0xafc
 2183 0ad4 1C       		.uleb128 0x1c
 2184 0ad5 98060000 		.4byte	.LASF148
 2185 0ad9 01       		.byte	0x1
 2186 0ada 9F       		.byte	0x9f
 2187 0adb 5E0A0000 		.4byte	0xa5e
 2188 0adf 00000000 		.4byte	.LLST0
 2189 0ae3 1C       		.uleb128 0x1c
 2190 0ae4 B6070000 		.4byte	.LASF149
 2191 0ae8 01       		.byte	0x1
 2192 0ae9 9F       		.byte	0x9f
 2193 0aea CE000000 		.4byte	0xce
 2194 0aee 21000000 		.4byte	.LLST1
 2195 0af2 1D       		.uleb128 0x1d
 2196 0af3 0C000000 		.4byte	.LVL1
 2197 0af7 700E0000 		.4byte	0xe70
 2198 0afb 00       		.byte	0
 2199 0afc 1B       		.uleb128 0x1b
ARM GAS  /tmp/ccmz5Id6.s 			page 40


 2200 0afd 78010000 		.4byte	.LASF151
 2201 0b01 01       		.byte	0x1
 2202 0b02 85       		.byte	0x85
 2203 0b03 00000000 		.4byte	.LFB111
 2204 0b07 7C000000 		.4byte	.LFE111-.LFB111
 2205 0b0b 01       		.uleb128 0x1
 2206 0b0c 9C       		.byte	0x9c
 2207 0b0d 6E0B0000 		.4byte	0xb6e
 2208 0b11 1C       		.uleb128 0x1c
 2209 0b12 98060000 		.4byte	.LASF148
 2210 0b16 01       		.byte	0x1
 2211 0b17 85       		.byte	0x85
 2212 0b18 5E0A0000 		.4byte	0xa5e
 2213 0b1c 42000000 		.4byte	.LLST2
 2214 0b20 1C       		.uleb128 0x1c
 2215 0b21 B6070000 		.4byte	.LASF149
 2216 0b25 01       		.byte	0x1
 2217 0b26 85       		.byte	0x85
 2218 0b27 CE000000 		.4byte	0xce
 2219 0b2b 76000000 		.4byte	.LLST3
 2220 0b2f 1E       		.uleb128 0x1e
 2221 0b30 5E000000 		.4byte	.LBB2
 2222 0b34 0C000000 		.4byte	.LBE2-.LBB2
 2223 0b38 540B0000 		.4byte	0xb54
 2224 0b3c 1F       		.uleb128 0x1f
 2225 0b3d 747000   		.ascii	"tp\000"
 2226 0b40 01       		.byte	0x1
 2227 0b41 96       		.byte	0x96
 2228 0b42 83020000 		.4byte	0x283
 2229 0b46 B0000000 		.4byte	.LLST4
 2230 0b4a 20       		.uleb128 0x20
 2231 0b4b 6A000000 		.4byte	.LVL6
 2232 0b4f 780E0000 		.4byte	0xe78
 2233 0b53 00       		.byte	0
 2234 0b54 21       		.uleb128 0x21
 2235 0b55 50000000 		.4byte	.LVL4
 2236 0b59 640B0000 		.4byte	0xb64
 2237 0b5d 22       		.uleb128 0x22
 2238 0b5e 01       		.uleb128 0x1
 2239 0b5f 50       		.byte	0x50
 2240 0b60 02       		.uleb128 0x2
 2241 0b61 74       		.byte	0x74
 2242 0b62 00       		.sleb128 0
 2243 0b63 00       		.byte	0
 2244 0b64 20       		.uleb128 0x20
 2245 0b65 7A000000 		.4byte	.LVL9
 2246 0b69 700E0000 		.4byte	0xe70
 2247 0b6d 00       		.byte	0
 2248 0b6e 23       		.uleb128 0x23
 2249 0b6f 35030000 		.4byte	.LASF152
 2250 0b73 01       		.byte	0x1
 2251 0b74 BA       		.byte	0xba
 2252 0b75 00000000 		.4byte	.LFB113
 2253 0b79 44000000 		.4byte	.LFE113-.LFB113
 2254 0b7d 01       		.uleb128 0x1
 2255 0b7e 9C       		.byte	0x9c
 2256 0b7f 940B0000 		.4byte	0xb94
ARM GAS  /tmp/ccmz5Id6.s 			page 41


 2257 0b83 24       		.uleb128 0x24
 2258 0b84 12000000 		.4byte	.LVL10
 2259 0b88 8D0E0000 		.4byte	0xe8d
 2260 0b8c 22       		.uleb128 0x22
 2261 0b8d 01       		.uleb128 0x1
 2262 0b8e 50       		.byte	0x50
 2263 0b8f 02       		.uleb128 0x2
 2264 0b90 74       		.byte	0x74
 2265 0b91 00       		.sleb128 0
 2266 0b92 00       		.byte	0
 2267 0b93 00       		.byte	0
 2268 0b94 25       		.uleb128 0x25
 2269 0b95 82060000 		.4byte	.LASF153
 2270 0b99 01       		.byte	0x1
 2271 0b9a 3201     		.2byte	0x132
 2272 0b9c 00000000 		.4byte	.LFB114
 2273 0ba0 B0000000 		.4byte	.LFE114-.LFB114
 2274 0ba4 01       		.uleb128 0x1
 2275 0ba5 9C       		.byte	0x9c
 2276 0ba6 410C0000 		.4byte	0xc41
 2277 0baa 26       		.uleb128 0x26
 2278 0bab 98060000 		.4byte	.LASF148
 2279 0baf 01       		.byte	0x1
 2280 0bb0 3201     		.2byte	0x132
 2281 0bb2 5E0A0000 		.4byte	0xa5e
 2282 0bb6 C3000000 		.4byte	.LLST5
 2283 0bba 27       		.uleb128 0x27
 2284 0bbb 60000000 		.4byte	.LBB3
 2285 0bbf 50000000 		.4byte	.LBE3-.LBB3
 2286 0bc3 28       		.uleb128 0x28
 2287 0bc4 6200     		.ascii	"b\000"
 2288 0bc6 01       		.byte	0x1
 2289 0bc7 4801     		.2byte	0x148
 2290 0bc9 E4000000 		.4byte	0xe4
 2291 0bcd 0D010000 		.4byte	.LLST6
 2292 0bd1 29       		.uleb128 0x29
 2293 0bd2 6C000000 		.4byte	.LVL17
 2294 0bd6 9F0E0000 		.4byte	0xe9f
 2295 0bda F30B0000 		.4byte	0xbf3
 2296 0bde 22       		.uleb128 0x22
 2297 0bdf 01       		.uleb128 0x1
 2298 0be0 53       		.byte	0x53
 2299 0be1 02       		.uleb128 0x2
 2300 0be2 74       		.byte	0x74
 2301 0be3 00       		.sleb128 0
 2302 0be4 22       		.uleb128 0x22
 2303 0be5 01       		.uleb128 0x1
 2304 0be6 52       		.byte	0x52
 2305 0be7 05       		.uleb128 0x5
 2306 0be8 03       		.byte	0x3
 2307 0be9 00000000 		.4byte	spi_lld_serve_rx_interrupt
 2308 0bed 22       		.uleb128 0x22
 2309 0bee 01       		.uleb128 0x1
 2310 0bef 51       		.byte	0x51
 2311 0bf0 01       		.uleb128 0x1
 2312 0bf1 3A       		.byte	0x3a
 2313 0bf2 00       		.byte	0
ARM GAS  /tmp/ccmz5Id6.s 			page 42


 2314 0bf3 29       		.uleb128 0x29
 2315 0bf4 7A000000 		.4byte	.LVL19
 2316 0bf8 9F0E0000 		.4byte	0xe9f
 2317 0bfc 150C0000 		.4byte	0xc15
 2318 0c00 22       		.uleb128 0x22
 2319 0c01 01       		.uleb128 0x1
 2320 0c02 53       		.byte	0x53
 2321 0c03 02       		.uleb128 0x2
 2322 0c04 75       		.byte	0x75
 2323 0c05 00       		.sleb128 0
 2324 0c06 22       		.uleb128 0x22
 2325 0c07 01       		.uleb128 0x1
 2326 0c08 52       		.byte	0x52
 2327 0c09 05       		.uleb128 0x5
 2328 0c0a 03       		.byte	0x3
 2329 0c0b 00000000 		.4byte	spi_lld_serve_tx_interrupt
 2330 0c0f 22       		.uleb128 0x22
 2331 0c10 01       		.uleb128 0x1
 2332 0c11 51       		.byte	0x51
 2333 0c12 01       		.uleb128 0x1
 2334 0c13 3A       		.byte	0x3a
 2335 0c14 00       		.byte	0
 2336 0c15 29       		.uleb128 0x29
 2337 0c16 8E000000 		.4byte	.LVL23
 2338 0c1a C40E0000 		.4byte	0xec4
 2339 0c1e 2C0C0000 		.4byte	0xc2c
 2340 0c22 22       		.uleb128 0x22
 2341 0c23 01       		.uleb128 0x1
 2342 0c24 50       		.byte	0x50
 2343 0c25 05       		.uleb128 0x5
 2344 0c26 03       		.byte	0x3
 2345 0c27 00000000 		.4byte	.LC0
 2346 0c2b 00       		.byte	0
 2347 0c2c 24       		.uleb128 0x24
 2348 0c2d 96000000 		.4byte	.LVL26
 2349 0c31 C40E0000 		.4byte	0xec4
 2350 0c35 22       		.uleb128 0x22
 2351 0c36 01       		.uleb128 0x1
 2352 0c37 50       		.byte	0x50
 2353 0c38 05       		.uleb128 0x5
 2354 0c39 03       		.byte	0x3
 2355 0c3a 14000000 		.4byte	.LC1
 2356 0c3e 00       		.byte	0
 2357 0c3f 00       		.byte	0
 2358 0c40 00       		.byte	0
 2359 0c41 25       		.uleb128 0x25
 2360 0c42 88050000 		.4byte	.LASF154
 2361 0c46 01       		.byte	0x1
 2362 0c47 BA01     		.2byte	0x1ba
 2363 0c49 00000000 		.4byte	.LFB115
 2364 0c4d 3C000000 		.4byte	.LFE115-.LFB115
 2365 0c51 01       		.uleb128 0x1
 2366 0c52 9C       		.byte	0x9c
 2367 0c53 7A0C0000 		.4byte	0xc7a
 2368 0c57 26       		.uleb128 0x26
 2369 0c58 98060000 		.4byte	.LASF148
 2370 0c5c 01       		.byte	0x1
ARM GAS  /tmp/ccmz5Id6.s 			page 43


 2371 0c5d BA01     		.2byte	0x1ba
 2372 0c5f 5E0A0000 		.4byte	0xa5e
 2373 0c63 41010000 		.4byte	.LLST7
 2374 0c67 20       		.uleb128 0x20
 2375 0c68 1A000000 		.4byte	.LVL31
 2376 0c6c D50E0000 		.4byte	0xed5
 2377 0c70 20       		.uleb128 0x20
 2378 0c71 20000000 		.4byte	.LVL32
 2379 0c75 D50E0000 		.4byte	0xed5
 2380 0c79 00       		.byte	0
 2381 0c7a 25       		.uleb128 0x25
 2382 0c7b 3B060000 		.4byte	.LASF155
 2383 0c7f 01       		.byte	0x1
 2384 0c80 E701     		.2byte	0x1e7
 2385 0c82 00000000 		.4byte	.LFB116
 2386 0c86 12000000 		.4byte	.LFE116-.LFB116
 2387 0c8a 01       		.uleb128 0x1
 2388 0c8b 9C       		.byte	0x9c
 2389 0c8c 9F0C0000 		.4byte	0xc9f
 2390 0c90 2A       		.uleb128 0x2a
 2391 0c91 98060000 		.4byte	.LASF148
 2392 0c95 01       		.byte	0x1
 2393 0c96 E701     		.2byte	0x1e7
 2394 0c98 5E0A0000 		.4byte	0xa5e
 2395 0c9c 01       		.uleb128 0x1
 2396 0c9d 50       		.byte	0x50
 2397 0c9e 00       		.byte	0
 2398 0c9f 25       		.uleb128 0x25
 2399 0ca0 5D020000 		.4byte	.LASF156
 2400 0ca4 01       		.byte	0x1
 2401 0ca5 F401     		.2byte	0x1f4
 2402 0ca7 00000000 		.4byte	.LFB117
 2403 0cab 12000000 		.4byte	.LFE117-.LFB117
 2404 0caf 01       		.uleb128 0x1
 2405 0cb0 9C       		.byte	0x9c
 2406 0cb1 C40C0000 		.4byte	0xcc4
 2407 0cb5 2A       		.uleb128 0x2a
 2408 0cb6 98060000 		.4byte	.LASF148
 2409 0cba 01       		.byte	0x1
 2410 0cbb F401     		.2byte	0x1f4
 2411 0cbd 5E0A0000 		.4byte	0xa5e
 2412 0cc1 01       		.uleb128 0x1
 2413 0cc2 50       		.byte	0x50
 2414 0cc3 00       		.byte	0
 2415 0cc4 25       		.uleb128 0x25
 2416 0cc5 67060000 		.4byte	.LASF157
 2417 0cc9 01       		.byte	0x1
 2418 0cca 0402     		.2byte	0x204
 2419 0ccc 00000000 		.4byte	.LFB118
 2420 0cd0 3C000000 		.4byte	.LFE118-.LFB118
 2421 0cd4 01       		.uleb128 0x1
 2422 0cd5 9C       		.byte	0x9c
 2423 0cd6 F90C0000 		.4byte	0xcf9
 2424 0cda 26       		.uleb128 0x26
 2425 0cdb 98060000 		.4byte	.LASF148
 2426 0cdf 01       		.byte	0x1
 2427 0ce0 0402     		.2byte	0x204
ARM GAS  /tmp/ccmz5Id6.s 			page 44


 2428 0ce2 5E0A0000 		.4byte	0xa5e
 2429 0ce6 75010000 		.4byte	.LLST8
 2430 0cea 2B       		.uleb128 0x2b
 2431 0ceb 6E00     		.ascii	"n\000"
 2432 0ced 01       		.byte	0x1
 2433 0cee 0402     		.2byte	0x204
 2434 0cf0 2C000000 		.4byte	0x2c
 2435 0cf4 96010000 		.4byte	.LLST9
 2436 0cf8 00       		.byte	0
 2437 0cf9 25       		.uleb128 0x25
 2438 0cfa 67030000 		.4byte	.LASF158
 2439 0cfe 01       		.byte	0x1
 2440 0cff 2102     		.2byte	0x221
 2441 0d01 00000000 		.4byte	.LFB119
 2442 0d05 36000000 		.4byte	.LFE119-.LFB119
 2443 0d09 01       		.uleb128 0x1
 2444 0d0a 9C       		.byte	0x9c
 2445 0d0b 4A0D0000 		.4byte	0xd4a
 2446 0d0f 26       		.uleb128 0x26
 2447 0d10 98060000 		.4byte	.LASF148
 2448 0d14 01       		.byte	0x1
 2449 0d15 2102     		.2byte	0x221
 2450 0d17 5E0A0000 		.4byte	0xa5e
 2451 0d1b B7010000 		.4byte	.LLST10
 2452 0d1f 2C       		.uleb128 0x2c
 2453 0d20 6E00     		.ascii	"n\000"
 2454 0d22 01       		.byte	0x1
 2455 0d23 2102     		.2byte	0x221
 2456 0d25 2C000000 		.4byte	0x2c
 2457 0d29 01       		.uleb128 0x1
 2458 0d2a 51       		.byte	0x51
 2459 0d2b 2A       		.uleb128 0x2a
 2460 0d2c 6E020000 		.4byte	.LASF159
 2461 0d30 01       		.byte	0x1
 2462 0d31 2202     		.2byte	0x222
 2463 0d33 4A0D0000 		.4byte	0xd4a
 2464 0d37 01       		.uleb128 0x1
 2465 0d38 52       		.byte	0x52
 2466 0d39 26       		.uleb128 0x26
 2467 0d3a EC000000 		.4byte	.LASF160
 2468 0d3e 01       		.byte	0x1
 2469 0d3f 2202     		.2byte	0x222
 2470 0d41 BF020000 		.4byte	0x2bf
 2471 0d45 D8010000 		.4byte	.LLST11
 2472 0d49 00       		.byte	0
 2473 0d4a 09       		.uleb128 0x9
 2474 0d4b 04       		.byte	0x4
 2475 0d4c 500D0000 		.4byte	0xd50
 2476 0d50 2D       		.uleb128 0x2d
 2477 0d51 25       		.uleb128 0x25
 2478 0d52 38020000 		.4byte	.LASF161
 2479 0d56 01       		.byte	0x1
 2480 0d57 3D02     		.2byte	0x23d
 2481 0d59 00000000 		.4byte	.LFB120
 2482 0d5d 38000000 		.4byte	.LFE120-.LFB120
 2483 0d61 01       		.uleb128 0x1
 2484 0d62 9C       		.byte	0x9c
ARM GAS  /tmp/ccmz5Id6.s 			page 45


 2485 0d63 940D0000 		.4byte	0xd94
 2486 0d67 26       		.uleb128 0x26
 2487 0d68 98060000 		.4byte	.LASF148
 2488 0d6c 01       		.byte	0x1
 2489 0d6d 3D02     		.2byte	0x23d
 2490 0d6f 5E0A0000 		.4byte	0xa5e
 2491 0d73 F9010000 		.4byte	.LLST12
 2492 0d77 2C       		.uleb128 0x2c
 2493 0d78 6E00     		.ascii	"n\000"
 2494 0d7a 01       		.byte	0x1
 2495 0d7b 3D02     		.2byte	0x23d
 2496 0d7d 2C000000 		.4byte	0x2c
 2497 0d81 01       		.uleb128 0x1
 2498 0d82 51       		.byte	0x51
 2499 0d83 26       		.uleb128 0x26
 2500 0d84 6E020000 		.4byte	.LASF159
 2501 0d88 01       		.byte	0x1
 2502 0d89 3D02     		.2byte	0x23d
 2503 0d8b 4A0D0000 		.4byte	0xd4a
 2504 0d8f 1A020000 		.4byte	.LLST13
 2505 0d93 00       		.byte	0
 2506 0d94 25       		.uleb128 0x25
 2507 0d95 42030000 		.4byte	.LASF162
 2508 0d99 01       		.byte	0x1
 2509 0d9a 5802     		.2byte	0x258
 2510 0d9c 00000000 		.4byte	.LFB121
 2511 0da0 38000000 		.4byte	.LFE121-.LFB121
 2512 0da4 01       		.uleb128 0x1
 2513 0da5 9C       		.byte	0x9c
 2514 0da6 D70D0000 		.4byte	0xdd7
 2515 0daa 26       		.uleb128 0x26
 2516 0dab 98060000 		.4byte	.LASF148
 2517 0daf 01       		.byte	0x1
 2518 0db0 5802     		.2byte	0x258
 2519 0db2 5E0A0000 		.4byte	0xa5e
 2520 0db6 3B020000 		.4byte	.LLST14
 2521 0dba 2C       		.uleb128 0x2c
 2522 0dbb 6E00     		.ascii	"n\000"
 2523 0dbd 01       		.byte	0x1
 2524 0dbe 5802     		.2byte	0x258
 2525 0dc0 2C000000 		.4byte	0x2c
 2526 0dc4 01       		.uleb128 0x1
 2527 0dc5 51       		.byte	0x51
 2528 0dc6 26       		.uleb128 0x26
 2529 0dc7 EC000000 		.4byte	.LASF160
 2530 0dcb 01       		.byte	0x1
 2531 0dcc 5802     		.2byte	0x258
 2532 0dce BF020000 		.4byte	0x2bf
 2533 0dd2 5C020000 		.4byte	.LLST15
 2534 0dd6 00       		.byte	0
 2535 0dd7 2E       		.uleb128 0x2e
 2536 0dd8 ED070000 		.4byte	.LASF176
 2537 0ddc 01       		.byte	0x1
 2538 0ddd 7202     		.2byte	0x272
 2539 0ddf B8000000 		.4byte	0xb8
 2540 0de3 00000000 		.4byte	.LFB122
 2541 0de7 10000000 		.4byte	.LFE122-.LFB122
ARM GAS  /tmp/ccmz5Id6.s 			page 46


 2542 0deb 01       		.uleb128 0x1
 2543 0dec 9C       		.byte	0x9c
 2544 0ded 100E0000 		.4byte	0xe10
 2545 0df1 26       		.uleb128 0x26
 2546 0df2 98060000 		.4byte	.LASF148
 2547 0df6 01       		.byte	0x1
 2548 0df7 7202     		.2byte	0x272
 2549 0df9 5E0A0000 		.4byte	0xa5e
 2550 0dfd 7D020000 		.4byte	.LLST16
 2551 0e01 2A       		.uleb128 0x2a
 2552 0e02 63010000 		.4byte	.LASF163
 2553 0e06 01       		.byte	0x1
 2554 0e07 7202     		.2byte	0x272
 2555 0e09 B8000000 		.4byte	0xb8
 2556 0e0d 01       		.uleb128 0x1
 2557 0e0e 51       		.byte	0x51
 2558 0e0f 00       		.byte	0
 2559 0e10 2F       		.uleb128 0x2f
 2560 0e11 CD040000 		.4byte	.LASF164
 2561 0e15 01       		.byte	0x1
 2562 0e16 78       		.byte	0x78
 2563 0e17 B8000000 		.4byte	0xb8
 2564 0e1b 05       		.uleb128 0x5
 2565 0e1c 03       		.byte	0x3
 2566 0e1d 00000000 		.4byte	dummytx
 2567 0e21 2F       		.uleb128 0x2f
 2568 0e22 EE020000 		.4byte	.LASF165
 2569 0e26 01       		.byte	0x1
 2570 0e27 79       		.byte	0x79
 2571 0e28 B8000000 		.4byte	0xb8
 2572 0e2c 05       		.uleb128 0x5
 2573 0e2d 03       		.byte	0x3
 2574 0e2e 00000000 		.4byte	dummyrx
 2575 0e32 30       		.uleb128 0x30
 2576 0e33 DF000000 		.4byte	.LASF166
 2577 0e37 0F       		.byte	0xf
 2578 0e38 9806     		.2byte	0x698
 2579 0e3a F4040000 		.4byte	0x4f4
 2580 0e3e 11       		.uleb128 0x11
 2581 0e3f 60080000 		.4byte	0x860
 2582 0e43 4E0E0000 		.4byte	0xe4e
 2583 0e47 12       		.uleb128 0x12
 2584 0e48 3E040000 		.4byte	0x43e
 2585 0e4c 0F       		.byte	0xf
 2586 0e4d 00       		.byte	0
 2587 0e4e 30       		.uleb128 0x30
 2588 0e4f BB000000 		.4byte	.LASF167
 2589 0e53 0B       		.byte	0xb
 2590 0e54 BB01     		.2byte	0x1bb
 2591 0e56 5A0E0000 		.4byte	0xe5a
 2592 0e5a 10       		.uleb128 0x10
 2593 0e5b 3E0E0000 		.4byte	0xe3e
 2594 0e5f 31       		.uleb128 0x31
 2595 0e60 C7040000 		.4byte	.LASF168
 2596 0e64 01       		.byte	0x1
 2597 0e65 5D       		.byte	0x5d
 2598 0e66 B2090000 		.4byte	0x9b2
ARM GAS  /tmp/ccmz5Id6.s 			page 47


 2599 0e6a 05       		.uleb128 0x5
 2600 0e6b 03       		.byte	0x3
 2601 0e6c 00000000 		.4byte	SPID2
 2602 0e70 32       		.uleb128 0x32
 2603 0e71 BA050000 		.4byte	.LASF177
 2604 0e75 08       		.byte	0x8
 2605 0e76 0102     		.2byte	0x201
 2606 0e78 33       		.uleb128 0x33
 2607 0e79 5D050000 		.4byte	.LASF169
 2608 0e7d 10       		.byte	0x10
 2609 0e7e 90       		.byte	0x90
 2610 0e7f 83020000 		.4byte	0x283
 2611 0e83 8D0E0000 		.4byte	0xe8d
 2612 0e87 17       		.uleb128 0x17
 2613 0e88 83020000 		.4byte	0x283
 2614 0e8c 00       		.byte	0
 2615 0e8d 34       		.uleb128 0x34
 2616 0e8e 05050000 		.4byte	.LASF171
 2617 0e92 0D       		.byte	0xd
 2618 0e93 2F01     		.2byte	0x12f
 2619 0e95 9F0E0000 		.4byte	0xe9f
 2620 0e99 17       		.uleb128 0x17
 2621 0e9a 5E0A0000 		.4byte	0xa5e
 2622 0e9e 00       		.byte	0
 2623 0e9f 35       		.uleb128 0x35
 2624 0ea0 1D080000 		.4byte	.LASF170
 2625 0ea4 0B       		.byte	0xb
 2626 0ea5 C201     		.2byte	0x1c2
 2627 0ea7 E4000000 		.4byte	0xe4
 2628 0eab C40E0000 		.4byte	0xec4
 2629 0eaf 17       		.uleb128 0x17
 2630 0eb0 75090000 		.4byte	0x975
 2631 0eb4 17       		.uleb128 0x17
 2632 0eb5 CE000000 		.4byte	0xce
 2633 0eb9 17       		.uleb128 0x17
 2634 0eba 6B080000 		.4byte	0x86b
 2635 0ebe 17       		.uleb128 0x17
 2636 0ebf BF020000 		.4byte	0x2bf
 2637 0ec3 00       		.byte	0
 2638 0ec4 36       		.uleb128 0x36
 2639 0ec5 E7010000 		.4byte	.LASF172
 2640 0ec9 11       		.byte	0x11
 2641 0eca F6       		.byte	0xf6
 2642 0ecb D50E0000 		.4byte	0xed5
 2643 0ecf 17       		.uleb128 0x17
 2644 0ed0 C1040000 		.4byte	0x4c1
 2645 0ed4 00       		.byte	0
 2646 0ed5 37       		.uleb128 0x37
 2647 0ed6 95050000 		.4byte	.LASF178
 2648 0eda 0B       		.byte	0xb
 2649 0edb C601     		.2byte	0x1c6
 2650 0edd 17       		.uleb128 0x17
 2651 0ede 75090000 		.4byte	0x975
 2652 0ee2 00       		.byte	0
 2653 0ee3 00       		.byte	0
 2654              		.section	.debug_abbrev,"",%progbits
 2655              	.Ldebug_abbrev0:
ARM GAS  /tmp/ccmz5Id6.s 			page 48


 2656 0000 01       		.uleb128 0x1
 2657 0001 11       		.uleb128 0x11
 2658 0002 01       		.byte	0x1
 2659 0003 25       		.uleb128 0x25
 2660 0004 0E       		.uleb128 0xe
 2661 0005 13       		.uleb128 0x13
 2662 0006 0B       		.uleb128 0xb
 2663 0007 03       		.uleb128 0x3
 2664 0008 0E       		.uleb128 0xe
 2665 0009 1B       		.uleb128 0x1b
 2666 000a 0E       		.uleb128 0xe
 2667 000b 55       		.uleb128 0x55
 2668 000c 17       		.uleb128 0x17
 2669 000d 11       		.uleb128 0x11
 2670 000e 01       		.uleb128 0x1
 2671 000f 10       		.uleb128 0x10
 2672 0010 17       		.uleb128 0x17
 2673 0011 00       		.byte	0
 2674 0012 00       		.byte	0
 2675 0013 02       		.uleb128 0x2
 2676 0014 24       		.uleb128 0x24
 2677 0015 00       		.byte	0
 2678 0016 0B       		.uleb128 0xb
 2679 0017 0B       		.uleb128 0xb
 2680 0018 3E       		.uleb128 0x3e
 2681 0019 0B       		.uleb128 0xb
 2682 001a 03       		.uleb128 0x3
 2683 001b 08       		.uleb128 0x8
 2684 001c 00       		.byte	0
 2685 001d 00       		.byte	0
 2686 001e 03       		.uleb128 0x3
 2687 001f 16       		.uleb128 0x16
 2688 0020 00       		.byte	0
 2689 0021 03       		.uleb128 0x3
 2690 0022 0E       		.uleb128 0xe
 2691 0023 3A       		.uleb128 0x3a
 2692 0024 0B       		.uleb128 0xb
 2693 0025 3B       		.uleb128 0x3b
 2694 0026 0B       		.uleb128 0xb
 2695 0027 49       		.uleb128 0x49
 2696 0028 13       		.uleb128 0x13
 2697 0029 00       		.byte	0
 2698 002a 00       		.byte	0
 2699 002b 04       		.uleb128 0x4
 2700 002c 24       		.uleb128 0x24
 2701 002d 00       		.byte	0
 2702 002e 0B       		.uleb128 0xb
 2703 002f 0B       		.uleb128 0xb
 2704 0030 3E       		.uleb128 0x3e
 2705 0031 0B       		.uleb128 0xb
 2706 0032 03       		.uleb128 0x3
 2707 0033 0E       		.uleb128 0xe
 2708 0034 00       		.byte	0
 2709 0035 00       		.byte	0
 2710 0036 05       		.uleb128 0x5
 2711 0037 13       		.uleb128 0x13
 2712 0038 01       		.byte	0x1
ARM GAS  /tmp/ccmz5Id6.s 			page 49


 2713 0039 03       		.uleb128 0x3
 2714 003a 0E       		.uleb128 0xe
 2715 003b 0B       		.uleb128 0xb
 2716 003c 0B       		.uleb128 0xb
 2717 003d 3A       		.uleb128 0x3a
 2718 003e 0B       		.uleb128 0xb
 2719 003f 3B       		.uleb128 0x3b
 2720 0040 0B       		.uleb128 0xb
 2721 0041 01       		.uleb128 0x1
 2722 0042 13       		.uleb128 0x13
 2723 0043 00       		.byte	0
 2724 0044 00       		.byte	0
 2725 0045 06       		.uleb128 0x6
 2726 0046 0D       		.uleb128 0xd
 2727 0047 00       		.byte	0
 2728 0048 03       		.uleb128 0x3
 2729 0049 0E       		.uleb128 0xe
 2730 004a 3A       		.uleb128 0x3a
 2731 004b 0B       		.uleb128 0xb
 2732 004c 3B       		.uleb128 0x3b
 2733 004d 0B       		.uleb128 0xb
 2734 004e 49       		.uleb128 0x49
 2735 004f 13       		.uleb128 0x13
 2736 0050 38       		.uleb128 0x38
 2737 0051 0B       		.uleb128 0xb
 2738 0052 00       		.byte	0
 2739 0053 00       		.byte	0
 2740 0054 07       		.uleb128 0x7
 2741 0055 0D       		.uleb128 0xd
 2742 0056 00       		.byte	0
 2743 0057 03       		.uleb128 0x3
 2744 0058 08       		.uleb128 0x8
 2745 0059 3A       		.uleb128 0x3a
 2746 005a 0B       		.uleb128 0xb
 2747 005b 3B       		.uleb128 0x3b
 2748 005c 0B       		.uleb128 0xb
 2749 005d 49       		.uleb128 0x49
 2750 005e 13       		.uleb128 0x13
 2751 005f 38       		.uleb128 0x38
 2752 0060 0B       		.uleb128 0xb
 2753 0061 00       		.byte	0
 2754 0062 00       		.byte	0
 2755 0063 08       		.uleb128 0x8
 2756 0064 13       		.uleb128 0x13
 2757 0065 01       		.byte	0x1
 2758 0066 0B       		.uleb128 0xb
 2759 0067 0B       		.uleb128 0xb
 2760 0068 3A       		.uleb128 0x3a
 2761 0069 0B       		.uleb128 0xb
 2762 006a 3B       		.uleb128 0x3b
 2763 006b 0B       		.uleb128 0xb
 2764 006c 01       		.uleb128 0x1
 2765 006d 13       		.uleb128 0x13
 2766 006e 00       		.byte	0
 2767 006f 00       		.byte	0
 2768 0070 09       		.uleb128 0x9
 2769 0071 0F       		.uleb128 0xf
ARM GAS  /tmp/ccmz5Id6.s 			page 50


 2770 0072 00       		.byte	0
 2771 0073 0B       		.uleb128 0xb
 2772 0074 0B       		.uleb128 0xb
 2773 0075 49       		.uleb128 0x49
 2774 0076 13       		.uleb128 0x13
 2775 0077 00       		.byte	0
 2776 0078 00       		.byte	0
 2777 0079 0A       		.uleb128 0xa
 2778 007a 0F       		.uleb128 0xf
 2779 007b 00       		.byte	0
 2780 007c 0B       		.uleb128 0xb
 2781 007d 0B       		.uleb128 0xb
 2782 007e 00       		.byte	0
 2783 007f 00       		.byte	0
 2784 0080 0B       		.uleb128 0xb
 2785 0081 13       		.uleb128 0x13
 2786 0082 01       		.byte	0x1
 2787 0083 03       		.uleb128 0x3
 2788 0084 0E       		.uleb128 0xe
 2789 0085 0B       		.uleb128 0xb
 2790 0086 0B       		.uleb128 0xb
 2791 0087 3A       		.uleb128 0x3a
 2792 0088 0B       		.uleb128 0xb
 2793 0089 3B       		.uleb128 0x3b
 2794 008a 05       		.uleb128 0x5
 2795 008b 01       		.uleb128 0x1
 2796 008c 13       		.uleb128 0x13
 2797 008d 00       		.byte	0
 2798 008e 00       		.byte	0
 2799 008f 0C       		.uleb128 0xc
 2800 0090 0D       		.uleb128 0xd
 2801 0091 00       		.byte	0
 2802 0092 03       		.uleb128 0x3
 2803 0093 08       		.uleb128 0x8
 2804 0094 3A       		.uleb128 0x3a
 2805 0095 0B       		.uleb128 0xb
 2806 0096 3B       		.uleb128 0x3b
 2807 0097 05       		.uleb128 0x5
 2808 0098 49       		.uleb128 0x49
 2809 0099 13       		.uleb128 0x13
 2810 009a 38       		.uleb128 0x38
 2811 009b 0B       		.uleb128 0xb
 2812 009c 00       		.byte	0
 2813 009d 00       		.byte	0
 2814 009e 0D       		.uleb128 0xd
 2815 009f 35       		.uleb128 0x35
 2816 00a0 00       		.byte	0
 2817 00a1 49       		.uleb128 0x49
 2818 00a2 13       		.uleb128 0x13
 2819 00a3 00       		.byte	0
 2820 00a4 00       		.byte	0
 2821 00a5 0E       		.uleb128 0xe
 2822 00a6 17       		.uleb128 0x17
 2823 00a7 01       		.byte	0x1
 2824 00a8 0B       		.uleb128 0xb
 2825 00a9 0B       		.uleb128 0xb
 2826 00aa 3A       		.uleb128 0x3a
ARM GAS  /tmp/ccmz5Id6.s 			page 51


 2827 00ab 0B       		.uleb128 0xb
 2828 00ac 3B       		.uleb128 0x3b
 2829 00ad 0B       		.uleb128 0xb
 2830 00ae 01       		.uleb128 0x1
 2831 00af 13       		.uleb128 0x13
 2832 00b0 00       		.byte	0
 2833 00b1 00       		.byte	0
 2834 00b2 0F       		.uleb128 0xf
 2835 00b3 0D       		.uleb128 0xd
 2836 00b4 00       		.byte	0
 2837 00b5 03       		.uleb128 0x3
 2838 00b6 0E       		.uleb128 0xe
 2839 00b7 3A       		.uleb128 0x3a
 2840 00b8 0B       		.uleb128 0xb
 2841 00b9 3B       		.uleb128 0x3b
 2842 00ba 0B       		.uleb128 0xb
 2843 00bb 49       		.uleb128 0x49
 2844 00bc 13       		.uleb128 0x13
 2845 00bd 00       		.byte	0
 2846 00be 00       		.byte	0
 2847 00bf 10       		.uleb128 0x10
 2848 00c0 26       		.uleb128 0x26
 2849 00c1 00       		.byte	0
 2850 00c2 49       		.uleb128 0x49
 2851 00c3 13       		.uleb128 0x13
 2852 00c4 00       		.byte	0
 2853 00c5 00       		.byte	0
 2854 00c6 11       		.uleb128 0x11
 2855 00c7 01       		.uleb128 0x1
 2856 00c8 01       		.byte	0x1
 2857 00c9 49       		.uleb128 0x49
 2858 00ca 13       		.uleb128 0x13
 2859 00cb 01       		.uleb128 0x1
 2860 00cc 13       		.uleb128 0x13
 2861 00cd 00       		.byte	0
 2862 00ce 00       		.byte	0
 2863 00cf 12       		.uleb128 0x12
 2864 00d0 21       		.uleb128 0x21
 2865 00d1 00       		.byte	0
 2866 00d2 49       		.uleb128 0x49
 2867 00d3 13       		.uleb128 0x13
 2868 00d4 2F       		.uleb128 0x2f
 2869 00d5 0B       		.uleb128 0xb
 2870 00d6 00       		.byte	0
 2871 00d7 00       		.byte	0
 2872 00d8 13       		.uleb128 0x13
 2873 00d9 13       		.uleb128 0x13
 2874 00da 01       		.byte	0x1
 2875 00db 0B       		.uleb128 0xb
 2876 00dc 0B       		.uleb128 0xb
 2877 00dd 3A       		.uleb128 0x3a
 2878 00de 0B       		.uleb128 0xb
 2879 00df 3B       		.uleb128 0x3b
 2880 00e0 05       		.uleb128 0x5
 2881 00e1 01       		.uleb128 0x1
 2882 00e2 13       		.uleb128 0x13
 2883 00e3 00       		.byte	0
ARM GAS  /tmp/ccmz5Id6.s 			page 52


 2884 00e4 00       		.byte	0
 2885 00e5 14       		.uleb128 0x14
 2886 00e6 0D       		.uleb128 0xd
 2887 00e7 00       		.byte	0
 2888 00e8 03       		.uleb128 0x3
 2889 00e9 0E       		.uleb128 0xe
 2890 00ea 3A       		.uleb128 0x3a
 2891 00eb 0B       		.uleb128 0xb
 2892 00ec 3B       		.uleb128 0x3b
 2893 00ed 05       		.uleb128 0x5
 2894 00ee 49       		.uleb128 0x49
 2895 00ef 13       		.uleb128 0x13
 2896 00f0 38       		.uleb128 0x38
 2897 00f1 0B       		.uleb128 0xb
 2898 00f2 00       		.byte	0
 2899 00f3 00       		.byte	0
 2900 00f4 15       		.uleb128 0x15
 2901 00f5 16       		.uleb128 0x16
 2902 00f6 00       		.byte	0
 2903 00f7 03       		.uleb128 0x3
 2904 00f8 0E       		.uleb128 0xe
 2905 00f9 3A       		.uleb128 0x3a
 2906 00fa 0B       		.uleb128 0xb
 2907 00fb 3B       		.uleb128 0x3b
 2908 00fc 05       		.uleb128 0x5
 2909 00fd 49       		.uleb128 0x49
 2910 00fe 13       		.uleb128 0x13
 2911 00ff 00       		.byte	0
 2912 0100 00       		.byte	0
 2913 0101 16       		.uleb128 0x16
 2914 0102 15       		.uleb128 0x15
 2915 0103 01       		.byte	0x1
 2916 0104 27       		.uleb128 0x27
 2917 0105 19       		.uleb128 0x19
 2918 0106 01       		.uleb128 0x1
 2919 0107 13       		.uleb128 0x13
 2920 0108 00       		.byte	0
 2921 0109 00       		.byte	0
 2922 010a 17       		.uleb128 0x17
 2923 010b 05       		.uleb128 0x5
 2924 010c 00       		.byte	0
 2925 010d 49       		.uleb128 0x49
 2926 010e 13       		.uleb128 0x13
 2927 010f 00       		.byte	0
 2928 0110 00       		.byte	0
 2929 0111 18       		.uleb128 0x18
 2930 0112 0D       		.uleb128 0xd
 2931 0113 00       		.byte	0
 2932 0114 03       		.uleb128 0x3
 2933 0115 08       		.uleb128 0x8
 2934 0116 3A       		.uleb128 0x3a
 2935 0117 0B       		.uleb128 0xb
 2936 0118 3B       		.uleb128 0x3b
 2937 0119 0B       		.uleb128 0xb
 2938 011a 49       		.uleb128 0x49
 2939 011b 13       		.uleb128 0x13
 2940 011c 00       		.byte	0
ARM GAS  /tmp/ccmz5Id6.s 			page 53


 2941 011d 00       		.byte	0
 2942 011e 19       		.uleb128 0x19
 2943 011f 04       		.uleb128 0x4
 2944 0120 01       		.byte	0x1
 2945 0121 0B       		.uleb128 0xb
 2946 0122 0B       		.uleb128 0xb
 2947 0123 3A       		.uleb128 0x3a
 2948 0124 0B       		.uleb128 0xb
 2949 0125 3B       		.uleb128 0x3b
 2950 0126 0B       		.uleb128 0xb
 2951 0127 01       		.uleb128 0x1
 2952 0128 13       		.uleb128 0x13
 2953 0129 00       		.byte	0
 2954 012a 00       		.byte	0
 2955 012b 1A       		.uleb128 0x1a
 2956 012c 28       		.uleb128 0x28
 2957 012d 00       		.byte	0
 2958 012e 03       		.uleb128 0x3
 2959 012f 0E       		.uleb128 0xe
 2960 0130 1C       		.uleb128 0x1c
 2961 0131 0D       		.uleb128 0xd
 2962 0132 00       		.byte	0
 2963 0133 00       		.byte	0
 2964 0134 1B       		.uleb128 0x1b
 2965 0135 2E       		.uleb128 0x2e
 2966 0136 01       		.byte	0x1
 2967 0137 03       		.uleb128 0x3
 2968 0138 0E       		.uleb128 0xe
 2969 0139 3A       		.uleb128 0x3a
 2970 013a 0B       		.uleb128 0xb
 2971 013b 3B       		.uleb128 0x3b
 2972 013c 0B       		.uleb128 0xb
 2973 013d 27       		.uleb128 0x27
 2974 013e 19       		.uleb128 0x19
 2975 013f 11       		.uleb128 0x11
 2976 0140 01       		.uleb128 0x1
 2977 0141 12       		.uleb128 0x12
 2978 0142 06       		.uleb128 0x6
 2979 0143 40       		.uleb128 0x40
 2980 0144 18       		.uleb128 0x18
 2981 0145 9742     		.uleb128 0x2117
 2982 0147 19       		.uleb128 0x19
 2983 0148 01       		.uleb128 0x1
 2984 0149 13       		.uleb128 0x13
 2985 014a 00       		.byte	0
 2986 014b 00       		.byte	0
 2987 014c 1C       		.uleb128 0x1c
 2988 014d 05       		.uleb128 0x5
 2989 014e 00       		.byte	0
 2990 014f 03       		.uleb128 0x3
 2991 0150 0E       		.uleb128 0xe
 2992 0151 3A       		.uleb128 0x3a
 2993 0152 0B       		.uleb128 0xb
 2994 0153 3B       		.uleb128 0x3b
 2995 0154 0B       		.uleb128 0xb
 2996 0155 49       		.uleb128 0x49
 2997 0156 13       		.uleb128 0x13
ARM GAS  /tmp/ccmz5Id6.s 			page 54


 2998 0157 02       		.uleb128 0x2
 2999 0158 17       		.uleb128 0x17
 3000 0159 00       		.byte	0
 3001 015a 00       		.byte	0
 3002 015b 1D       		.uleb128 0x1d
 3003 015c 898201   		.uleb128 0x4109
 3004 015f 00       		.byte	0
 3005 0160 11       		.uleb128 0x11
 3006 0161 01       		.uleb128 0x1
 3007 0162 9542     		.uleb128 0x2115
 3008 0164 19       		.uleb128 0x19
 3009 0165 31       		.uleb128 0x31
 3010 0166 13       		.uleb128 0x13
 3011 0167 00       		.byte	0
 3012 0168 00       		.byte	0
 3013 0169 1E       		.uleb128 0x1e
 3014 016a 0B       		.uleb128 0xb
 3015 016b 01       		.byte	0x1
 3016 016c 11       		.uleb128 0x11
 3017 016d 01       		.uleb128 0x1
 3018 016e 12       		.uleb128 0x12
 3019 016f 06       		.uleb128 0x6
 3020 0170 01       		.uleb128 0x1
 3021 0171 13       		.uleb128 0x13
 3022 0172 00       		.byte	0
 3023 0173 00       		.byte	0
 3024 0174 1F       		.uleb128 0x1f
 3025 0175 34       		.uleb128 0x34
 3026 0176 00       		.byte	0
 3027 0177 03       		.uleb128 0x3
 3028 0178 08       		.uleb128 0x8
 3029 0179 3A       		.uleb128 0x3a
 3030 017a 0B       		.uleb128 0xb
 3031 017b 3B       		.uleb128 0x3b
 3032 017c 0B       		.uleb128 0xb
 3033 017d 49       		.uleb128 0x49
 3034 017e 13       		.uleb128 0x13
 3035 017f 02       		.uleb128 0x2
 3036 0180 17       		.uleb128 0x17
 3037 0181 00       		.byte	0
 3038 0182 00       		.byte	0
 3039 0183 20       		.uleb128 0x20
 3040 0184 898201   		.uleb128 0x4109
 3041 0187 00       		.byte	0
 3042 0188 11       		.uleb128 0x11
 3043 0189 01       		.uleb128 0x1
 3044 018a 31       		.uleb128 0x31
 3045 018b 13       		.uleb128 0x13
 3046 018c 00       		.byte	0
 3047 018d 00       		.byte	0
 3048 018e 21       		.uleb128 0x21
 3049 018f 898201   		.uleb128 0x4109
 3050 0192 01       		.byte	0x1
 3051 0193 11       		.uleb128 0x11
 3052 0194 01       		.uleb128 0x1
 3053 0195 01       		.uleb128 0x1
 3054 0196 13       		.uleb128 0x13
ARM GAS  /tmp/ccmz5Id6.s 			page 55


 3055 0197 00       		.byte	0
 3056 0198 00       		.byte	0
 3057 0199 22       		.uleb128 0x22
 3058 019a 8A8201   		.uleb128 0x410a
 3059 019d 00       		.byte	0
 3060 019e 02       		.uleb128 0x2
 3061 019f 18       		.uleb128 0x18
 3062 01a0 9142     		.uleb128 0x2111
 3063 01a2 18       		.uleb128 0x18
 3064 01a3 00       		.byte	0
 3065 01a4 00       		.byte	0
 3066 01a5 23       		.uleb128 0x23
 3067 01a6 2E       		.uleb128 0x2e
 3068 01a7 01       		.byte	0x1
 3069 01a8 3F       		.uleb128 0x3f
 3070 01a9 19       		.uleb128 0x19
 3071 01aa 03       		.uleb128 0x3
 3072 01ab 0E       		.uleb128 0xe
 3073 01ac 3A       		.uleb128 0x3a
 3074 01ad 0B       		.uleb128 0xb
 3075 01ae 3B       		.uleb128 0x3b
 3076 01af 0B       		.uleb128 0xb
 3077 01b0 27       		.uleb128 0x27
 3078 01b1 19       		.uleb128 0x19
 3079 01b2 11       		.uleb128 0x11
 3080 01b3 01       		.uleb128 0x1
 3081 01b4 12       		.uleb128 0x12
 3082 01b5 06       		.uleb128 0x6
 3083 01b6 40       		.uleb128 0x40
 3084 01b7 18       		.uleb128 0x18
 3085 01b8 9742     		.uleb128 0x2117
 3086 01ba 19       		.uleb128 0x19
 3087 01bb 01       		.uleb128 0x1
 3088 01bc 13       		.uleb128 0x13
 3089 01bd 00       		.byte	0
 3090 01be 00       		.byte	0
 3091 01bf 24       		.uleb128 0x24
 3092 01c0 898201   		.uleb128 0x4109
 3093 01c3 01       		.byte	0x1
 3094 01c4 11       		.uleb128 0x11
 3095 01c5 01       		.uleb128 0x1
 3096 01c6 31       		.uleb128 0x31
 3097 01c7 13       		.uleb128 0x13
 3098 01c8 00       		.byte	0
 3099 01c9 00       		.byte	0
 3100 01ca 25       		.uleb128 0x25
 3101 01cb 2E       		.uleb128 0x2e
 3102 01cc 01       		.byte	0x1
 3103 01cd 3F       		.uleb128 0x3f
 3104 01ce 19       		.uleb128 0x19
 3105 01cf 03       		.uleb128 0x3
 3106 01d0 0E       		.uleb128 0xe
 3107 01d1 3A       		.uleb128 0x3a
 3108 01d2 0B       		.uleb128 0xb
 3109 01d3 3B       		.uleb128 0x3b
 3110 01d4 05       		.uleb128 0x5
 3111 01d5 27       		.uleb128 0x27
ARM GAS  /tmp/ccmz5Id6.s 			page 56


 3112 01d6 19       		.uleb128 0x19
 3113 01d7 11       		.uleb128 0x11
 3114 01d8 01       		.uleb128 0x1
 3115 01d9 12       		.uleb128 0x12
 3116 01da 06       		.uleb128 0x6
 3117 01db 40       		.uleb128 0x40
 3118 01dc 18       		.uleb128 0x18
 3119 01dd 9742     		.uleb128 0x2117
 3120 01df 19       		.uleb128 0x19
 3121 01e0 01       		.uleb128 0x1
 3122 01e1 13       		.uleb128 0x13
 3123 01e2 00       		.byte	0
 3124 01e3 00       		.byte	0
 3125 01e4 26       		.uleb128 0x26
 3126 01e5 05       		.uleb128 0x5
 3127 01e6 00       		.byte	0
 3128 01e7 03       		.uleb128 0x3
 3129 01e8 0E       		.uleb128 0xe
 3130 01e9 3A       		.uleb128 0x3a
 3131 01ea 0B       		.uleb128 0xb
 3132 01eb 3B       		.uleb128 0x3b
 3133 01ec 05       		.uleb128 0x5
 3134 01ed 49       		.uleb128 0x49
 3135 01ee 13       		.uleb128 0x13
 3136 01ef 02       		.uleb128 0x2
 3137 01f0 17       		.uleb128 0x17
 3138 01f1 00       		.byte	0
 3139 01f2 00       		.byte	0
 3140 01f3 27       		.uleb128 0x27
 3141 01f4 0B       		.uleb128 0xb
 3142 01f5 01       		.byte	0x1
 3143 01f6 11       		.uleb128 0x11
 3144 01f7 01       		.uleb128 0x1
 3145 01f8 12       		.uleb128 0x12
 3146 01f9 06       		.uleb128 0x6
 3147 01fa 00       		.byte	0
 3148 01fb 00       		.byte	0
 3149 01fc 28       		.uleb128 0x28
 3150 01fd 34       		.uleb128 0x34
 3151 01fe 00       		.byte	0
 3152 01ff 03       		.uleb128 0x3
 3153 0200 08       		.uleb128 0x8
 3154 0201 3A       		.uleb128 0x3a
 3155 0202 0B       		.uleb128 0xb
 3156 0203 3B       		.uleb128 0x3b
 3157 0204 05       		.uleb128 0x5
 3158 0205 49       		.uleb128 0x49
 3159 0206 13       		.uleb128 0x13
 3160 0207 02       		.uleb128 0x2
 3161 0208 17       		.uleb128 0x17
 3162 0209 00       		.byte	0
 3163 020a 00       		.byte	0
 3164 020b 29       		.uleb128 0x29
 3165 020c 898201   		.uleb128 0x4109
 3166 020f 01       		.byte	0x1
 3167 0210 11       		.uleb128 0x11
 3168 0211 01       		.uleb128 0x1
ARM GAS  /tmp/ccmz5Id6.s 			page 57


 3169 0212 31       		.uleb128 0x31
 3170 0213 13       		.uleb128 0x13
 3171 0214 01       		.uleb128 0x1
 3172 0215 13       		.uleb128 0x13
 3173 0216 00       		.byte	0
 3174 0217 00       		.byte	0
 3175 0218 2A       		.uleb128 0x2a
 3176 0219 05       		.uleb128 0x5
 3177 021a 00       		.byte	0
 3178 021b 03       		.uleb128 0x3
 3179 021c 0E       		.uleb128 0xe
 3180 021d 3A       		.uleb128 0x3a
 3181 021e 0B       		.uleb128 0xb
 3182 021f 3B       		.uleb128 0x3b
 3183 0220 05       		.uleb128 0x5
 3184 0221 49       		.uleb128 0x49
 3185 0222 13       		.uleb128 0x13
 3186 0223 02       		.uleb128 0x2
 3187 0224 18       		.uleb128 0x18
 3188 0225 00       		.byte	0
 3189 0226 00       		.byte	0
 3190 0227 2B       		.uleb128 0x2b
 3191 0228 05       		.uleb128 0x5
 3192 0229 00       		.byte	0
 3193 022a 03       		.uleb128 0x3
 3194 022b 08       		.uleb128 0x8
 3195 022c 3A       		.uleb128 0x3a
 3196 022d 0B       		.uleb128 0xb
 3197 022e 3B       		.uleb128 0x3b
 3198 022f 05       		.uleb128 0x5
 3199 0230 49       		.uleb128 0x49
 3200 0231 13       		.uleb128 0x13
 3201 0232 02       		.uleb128 0x2
 3202 0233 17       		.uleb128 0x17
 3203 0234 00       		.byte	0
 3204 0235 00       		.byte	0
 3205 0236 2C       		.uleb128 0x2c
 3206 0237 05       		.uleb128 0x5
 3207 0238 00       		.byte	0
 3208 0239 03       		.uleb128 0x3
 3209 023a 08       		.uleb128 0x8
 3210 023b 3A       		.uleb128 0x3a
 3211 023c 0B       		.uleb128 0xb
 3212 023d 3B       		.uleb128 0x3b
 3213 023e 05       		.uleb128 0x5
 3214 023f 49       		.uleb128 0x49
 3215 0240 13       		.uleb128 0x13
 3216 0241 02       		.uleb128 0x2
 3217 0242 18       		.uleb128 0x18
 3218 0243 00       		.byte	0
 3219 0244 00       		.byte	0
 3220 0245 2D       		.uleb128 0x2d
 3221 0246 26       		.uleb128 0x26
 3222 0247 00       		.byte	0
 3223 0248 00       		.byte	0
 3224 0249 00       		.byte	0
 3225 024a 2E       		.uleb128 0x2e
ARM GAS  /tmp/ccmz5Id6.s 			page 58


 3226 024b 2E       		.uleb128 0x2e
 3227 024c 01       		.byte	0x1
 3228 024d 3F       		.uleb128 0x3f
 3229 024e 19       		.uleb128 0x19
 3230 024f 03       		.uleb128 0x3
 3231 0250 0E       		.uleb128 0xe
 3232 0251 3A       		.uleb128 0x3a
 3233 0252 0B       		.uleb128 0xb
 3234 0253 3B       		.uleb128 0x3b
 3235 0254 05       		.uleb128 0x5
 3236 0255 27       		.uleb128 0x27
 3237 0256 19       		.uleb128 0x19
 3238 0257 49       		.uleb128 0x49
 3239 0258 13       		.uleb128 0x13
 3240 0259 11       		.uleb128 0x11
 3241 025a 01       		.uleb128 0x1
 3242 025b 12       		.uleb128 0x12
 3243 025c 06       		.uleb128 0x6
 3244 025d 40       		.uleb128 0x40
 3245 025e 18       		.uleb128 0x18
 3246 025f 9742     		.uleb128 0x2117
 3247 0261 19       		.uleb128 0x19
 3248 0262 01       		.uleb128 0x1
 3249 0263 13       		.uleb128 0x13
 3250 0264 00       		.byte	0
 3251 0265 00       		.byte	0
 3252 0266 2F       		.uleb128 0x2f
 3253 0267 34       		.uleb128 0x34
 3254 0268 00       		.byte	0
 3255 0269 03       		.uleb128 0x3
 3256 026a 0E       		.uleb128 0xe
 3257 026b 3A       		.uleb128 0x3a
 3258 026c 0B       		.uleb128 0xb
 3259 026d 3B       		.uleb128 0x3b
 3260 026e 0B       		.uleb128 0xb
 3261 026f 49       		.uleb128 0x49
 3262 0270 13       		.uleb128 0x13
 3263 0271 02       		.uleb128 0x2
 3264 0272 18       		.uleb128 0x18
 3265 0273 00       		.byte	0
 3266 0274 00       		.byte	0
 3267 0275 30       		.uleb128 0x30
 3268 0276 34       		.uleb128 0x34
 3269 0277 00       		.byte	0
 3270 0278 03       		.uleb128 0x3
 3271 0279 0E       		.uleb128 0xe
 3272 027a 3A       		.uleb128 0x3a
 3273 027b 0B       		.uleb128 0xb
 3274 027c 3B       		.uleb128 0x3b
 3275 027d 05       		.uleb128 0x5
 3276 027e 49       		.uleb128 0x49
 3277 027f 13       		.uleb128 0x13
 3278 0280 3F       		.uleb128 0x3f
 3279 0281 19       		.uleb128 0x19
 3280 0282 3C       		.uleb128 0x3c
 3281 0283 19       		.uleb128 0x19
 3282 0284 00       		.byte	0
ARM GAS  /tmp/ccmz5Id6.s 			page 59


 3283 0285 00       		.byte	0
 3284 0286 31       		.uleb128 0x31
 3285 0287 34       		.uleb128 0x34
 3286 0288 00       		.byte	0
 3287 0289 03       		.uleb128 0x3
 3288 028a 0E       		.uleb128 0xe
 3289 028b 3A       		.uleb128 0x3a
 3290 028c 0B       		.uleb128 0xb
 3291 028d 3B       		.uleb128 0x3b
 3292 028e 0B       		.uleb128 0xb
 3293 028f 49       		.uleb128 0x49
 3294 0290 13       		.uleb128 0x13
 3295 0291 3F       		.uleb128 0x3f
 3296 0292 19       		.uleb128 0x19
 3297 0293 02       		.uleb128 0x2
 3298 0294 18       		.uleb128 0x18
 3299 0295 00       		.byte	0
 3300 0296 00       		.byte	0
 3301 0297 32       		.uleb128 0x32
 3302 0298 2E       		.uleb128 0x2e
 3303 0299 00       		.byte	0
 3304 029a 3F       		.uleb128 0x3f
 3305 029b 19       		.uleb128 0x19
 3306 029c 03       		.uleb128 0x3
 3307 029d 0E       		.uleb128 0xe
 3308 029e 3A       		.uleb128 0x3a
 3309 029f 0B       		.uleb128 0xb
 3310 02a0 3B       		.uleb128 0x3b
 3311 02a1 05       		.uleb128 0x5
 3312 02a2 27       		.uleb128 0x27
 3313 02a3 19       		.uleb128 0x19
 3314 02a4 3C       		.uleb128 0x3c
 3315 02a5 19       		.uleb128 0x19
 3316 02a6 00       		.byte	0
 3317 02a7 00       		.byte	0
 3318 02a8 33       		.uleb128 0x33
 3319 02a9 2E       		.uleb128 0x2e
 3320 02aa 01       		.byte	0x1
 3321 02ab 3F       		.uleb128 0x3f
 3322 02ac 19       		.uleb128 0x19
 3323 02ad 03       		.uleb128 0x3
 3324 02ae 0E       		.uleb128 0xe
 3325 02af 3A       		.uleb128 0x3a
 3326 02b0 0B       		.uleb128 0xb
 3327 02b1 3B       		.uleb128 0x3b
 3328 02b2 0B       		.uleb128 0xb
 3329 02b3 27       		.uleb128 0x27
 3330 02b4 19       		.uleb128 0x19
 3331 02b5 49       		.uleb128 0x49
 3332 02b6 13       		.uleb128 0x13
 3333 02b7 3C       		.uleb128 0x3c
 3334 02b8 19       		.uleb128 0x19
 3335 02b9 01       		.uleb128 0x1
 3336 02ba 13       		.uleb128 0x13
 3337 02bb 00       		.byte	0
 3338 02bc 00       		.byte	0
 3339 02bd 34       		.uleb128 0x34
ARM GAS  /tmp/ccmz5Id6.s 			page 60


 3340 02be 2E       		.uleb128 0x2e
 3341 02bf 01       		.byte	0x1
 3342 02c0 3F       		.uleb128 0x3f
 3343 02c1 19       		.uleb128 0x19
 3344 02c2 03       		.uleb128 0x3
 3345 02c3 0E       		.uleb128 0xe
 3346 02c4 3A       		.uleb128 0x3a
 3347 02c5 0B       		.uleb128 0xb
 3348 02c6 3B       		.uleb128 0x3b
 3349 02c7 05       		.uleb128 0x5
 3350 02c8 27       		.uleb128 0x27
 3351 02c9 19       		.uleb128 0x19
 3352 02ca 3C       		.uleb128 0x3c
 3353 02cb 19       		.uleb128 0x19
 3354 02cc 01       		.uleb128 0x1
 3355 02cd 13       		.uleb128 0x13
 3356 02ce 00       		.byte	0
 3357 02cf 00       		.byte	0
 3358 02d0 35       		.uleb128 0x35
 3359 02d1 2E       		.uleb128 0x2e
 3360 02d2 01       		.byte	0x1
 3361 02d3 3F       		.uleb128 0x3f
 3362 02d4 19       		.uleb128 0x19
 3363 02d5 03       		.uleb128 0x3
 3364 02d6 0E       		.uleb128 0xe
 3365 02d7 3A       		.uleb128 0x3a
 3366 02d8 0B       		.uleb128 0xb
 3367 02d9 3B       		.uleb128 0x3b
 3368 02da 05       		.uleb128 0x5
 3369 02db 27       		.uleb128 0x27
 3370 02dc 19       		.uleb128 0x19
 3371 02dd 49       		.uleb128 0x49
 3372 02de 13       		.uleb128 0x13
 3373 02df 3C       		.uleb128 0x3c
 3374 02e0 19       		.uleb128 0x19
 3375 02e1 01       		.uleb128 0x1
 3376 02e2 13       		.uleb128 0x13
 3377 02e3 00       		.byte	0
 3378 02e4 00       		.byte	0
 3379 02e5 36       		.uleb128 0x36
 3380 02e6 2E       		.uleb128 0x2e
 3381 02e7 01       		.byte	0x1
 3382 02e8 3F       		.uleb128 0x3f
 3383 02e9 19       		.uleb128 0x19
 3384 02ea 03       		.uleb128 0x3
 3385 02eb 0E       		.uleb128 0xe
 3386 02ec 3A       		.uleb128 0x3a
 3387 02ed 0B       		.uleb128 0xb
 3388 02ee 3B       		.uleb128 0x3b
 3389 02ef 0B       		.uleb128 0xb
 3390 02f0 27       		.uleb128 0x27
 3391 02f1 19       		.uleb128 0x19
 3392 02f2 3C       		.uleb128 0x3c
 3393 02f3 19       		.uleb128 0x19
 3394 02f4 01       		.uleb128 0x1
 3395 02f5 13       		.uleb128 0x13
 3396 02f6 00       		.byte	0
ARM GAS  /tmp/ccmz5Id6.s 			page 61


 3397 02f7 00       		.byte	0
 3398 02f8 37       		.uleb128 0x37
 3399 02f9 2E       		.uleb128 0x2e
 3400 02fa 01       		.byte	0x1
 3401 02fb 3F       		.uleb128 0x3f
 3402 02fc 19       		.uleb128 0x19
 3403 02fd 03       		.uleb128 0x3
 3404 02fe 0E       		.uleb128 0xe
 3405 02ff 3A       		.uleb128 0x3a
 3406 0300 0B       		.uleb128 0xb
 3407 0301 3B       		.uleb128 0x3b
 3408 0302 05       		.uleb128 0x5
 3409 0303 27       		.uleb128 0x27
 3410 0304 19       		.uleb128 0x19
 3411 0305 3C       		.uleb128 0x3c
 3412 0306 19       		.uleb128 0x19
 3413 0307 00       		.byte	0
 3414 0308 00       		.byte	0
 3415 0309 00       		.byte	0
 3416              		.section	.debug_loc,"",%progbits
 3417              	.Ldebug_loc0:
 3418              	.LLST0:
 3419 0000 00000000 		.4byte	.LVL0
 3420 0004 0B000000 		.4byte	.LVL1-1
 3421 0008 0100     		.2byte	0x1
 3422 000a 50       		.byte	0x50
 3423 000b 0B000000 		.4byte	.LVL1-1
 3424 000f 0C000000 		.4byte	.LFE112
 3425 0013 0400     		.2byte	0x4
 3426 0015 F3       		.byte	0xf3
 3427 0016 01       		.uleb128 0x1
 3428 0017 50       		.byte	0x50
 3429 0018 9F       		.byte	0x9f
 3430 0019 00000000 		.4byte	0
 3431 001d 00000000 		.4byte	0
 3432              	.LLST1:
 3433 0021 00000000 		.4byte	.LVL0
 3434 0025 0B000000 		.4byte	.LVL1-1
 3435 0029 0100     		.2byte	0x1
 3436 002b 51       		.byte	0x51
 3437 002c 0B000000 		.4byte	.LVL1-1
 3438 0030 0C000000 		.4byte	.LFE112
 3439 0034 0400     		.2byte	0x4
 3440 0036 F3       		.byte	0xf3
 3441 0037 01       		.uleb128 0x1
 3442 0038 51       		.byte	0x51
 3443 0039 9F       		.byte	0x9f
 3444 003a 00000000 		.4byte	0
 3445 003e 00000000 		.4byte	0
 3446              	.LLST2:
 3447 0042 00000000 		.4byte	.LVL2
 3448 0046 0A000000 		.4byte	.LVL3
 3449 004a 0100     		.2byte	0x1
 3450 004c 50       		.byte	0x50
 3451 004d 0A000000 		.4byte	.LVL3
 3452 0051 76000000 		.4byte	.LVL8
 3453 0055 0100     		.2byte	0x1
ARM GAS  /tmp/ccmz5Id6.s 			page 62


 3454 0057 54       		.byte	0x54
 3455 0058 76000000 		.4byte	.LVL8
 3456 005c 79000000 		.4byte	.LVL9-1
 3457 0060 0100     		.2byte	0x1
 3458 0062 50       		.byte	0x50
 3459 0063 79000000 		.4byte	.LVL9-1
 3460 0067 7C000000 		.4byte	.LFE111
 3461 006b 0100     		.2byte	0x1
 3462 006d 54       		.byte	0x54
 3463 006e 00000000 		.4byte	0
 3464 0072 00000000 		.4byte	0
 3465              	.LLST3:
 3466 0076 00000000 		.4byte	.LVL2
 3467 007a 0A000000 		.4byte	.LVL3
 3468 007e 0100     		.2byte	0x1
 3469 0080 51       		.byte	0x51
 3470 0081 0A000000 		.4byte	.LVL3
 3471 0085 76000000 		.4byte	.LVL8
 3472 0089 0400     		.2byte	0x4
 3473 008b F3       		.byte	0xf3
 3474 008c 01       		.uleb128 0x1
 3475 008d 51       		.byte	0x51
 3476 008e 9F       		.byte	0x9f
 3477 008f 76000000 		.4byte	.LVL8
 3478 0093 79000000 		.4byte	.LVL9-1
 3479 0097 0100     		.2byte	0x1
 3480 0099 51       		.byte	0x51
 3481 009a 79000000 		.4byte	.LVL9-1
 3482 009e 7C000000 		.4byte	.LFE111
 3483 00a2 0400     		.2byte	0x4
 3484 00a4 F3       		.byte	0xf3
 3485 00a5 01       		.uleb128 0x1
 3486 00a6 51       		.byte	0x51
 3487 00a7 9F       		.byte	0x9f
 3488 00a8 00000000 		.4byte	0
 3489 00ac 00000000 		.4byte	0
 3490              	.LLST4:
 3491 00b0 5E000000 		.4byte	.LVL5
 3492 00b4 69000000 		.4byte	.LVL6-1
 3493 00b8 0100     		.2byte	0x1
 3494 00ba 53       		.byte	0x53
 3495 00bb 00000000 		.4byte	0
 3496 00bf 00000000 		.4byte	0
 3497              	.LLST5:
 3498 00c3 00000000 		.4byte	.LVL11
 3499 00c7 0C000000 		.4byte	.LVL12
 3500 00cb 0100     		.2byte	0x1
 3501 00cd 50       		.byte	0x50
 3502 00ce 0C000000 		.4byte	.LVL12
 3503 00d2 46000000 		.4byte	.LVL13
 3504 00d6 0100     		.2byte	0x1
 3505 00d8 54       		.byte	0x54
 3506 00d9 46000000 		.4byte	.LVL13
 3507 00dd 4C000000 		.4byte	.LVL14
 3508 00e1 0100     		.2byte	0x1
 3509 00e3 50       		.byte	0x50
 3510 00e4 4C000000 		.4byte	.LVL14
ARM GAS  /tmp/ccmz5Id6.s 			page 63


 3511 00e8 60000000 		.4byte	.LVL15
 3512 00ec 0100     		.2byte	0x1
 3513 00ee 54       		.byte	0x54
 3514 00ef 60000000 		.4byte	.LVL15
 3515 00f3 62000000 		.4byte	.LVL16
 3516 00f7 0100     		.2byte	0x1
 3517 00f9 50       		.byte	0x50
 3518 00fa 62000000 		.4byte	.LVL16
 3519 00fe B0000000 		.4byte	.LFE114
 3520 0102 0100     		.2byte	0x1
 3521 0104 54       		.byte	0x54
 3522 0105 00000000 		.4byte	0
 3523 0109 00000000 		.4byte	0
 3524              	.LLST6:
 3525 010d 6C000000 		.4byte	.LVL17
 3526 0111 6E000000 		.4byte	.LVL18
 3527 0115 0100     		.2byte	0x1
 3528 0117 50       		.byte	0x50
 3529 0118 7A000000 		.4byte	.LVL19
 3530 011c 7C000000 		.4byte	.LVL20
 3531 0120 0100     		.2byte	0x1
 3532 0122 50       		.byte	0x50
 3533 0123 88000000 		.4byte	.LVL21
 3534 0127 8A000000 		.4byte	.LVL22
 3535 012b 0100     		.2byte	0x1
 3536 012d 50       		.byte	0x50
 3537 012e 90000000 		.4byte	.LVL24
 3538 0132 92000000 		.4byte	.LVL25
 3539 0136 0100     		.2byte	0x1
 3540 0138 50       		.byte	0x50
 3541 0139 00000000 		.4byte	0
 3542 013d 00000000 		.4byte	0
 3543              	.LLST7:
 3544 0141 00000000 		.4byte	.LVL27
 3545 0145 0A000000 		.4byte	.LVL28
 3546 0149 0100     		.2byte	0x1
 3547 014b 50       		.byte	0x50
 3548 014c 0A000000 		.4byte	.LVL28
 3549 0150 0C000000 		.4byte	.LVL29
 3550 0154 0100     		.2byte	0x1
 3551 0156 54       		.byte	0x54
 3552 0157 0C000000 		.4byte	.LVL29
 3553 015b 10000000 		.4byte	.LVL30
 3554 015f 0100     		.2byte	0x1
 3555 0161 50       		.byte	0x50
 3556 0162 10000000 		.4byte	.LVL30
 3557 0166 3C000000 		.4byte	.LFE115
 3558 016a 0100     		.2byte	0x1
 3559 016c 54       		.byte	0x54
 3560 016d 00000000 		.4byte	0
 3561 0171 00000000 		.4byte	0
 3562              	.LLST8:
 3563 0175 00000000 		.4byte	.LVL35
 3564 0179 10000000 		.4byte	.LVL36
 3565 017d 0100     		.2byte	0x1
 3566 017f 50       		.byte	0x50
 3567 0180 10000000 		.4byte	.LVL36
ARM GAS  /tmp/ccmz5Id6.s 			page 64


 3568 0184 3C000000 		.4byte	.LFE118
 3569 0188 0400     		.2byte	0x4
 3570 018a F3       		.byte	0xf3
 3571 018b 01       		.uleb128 0x1
 3572 018c 50       		.byte	0x50
 3573 018d 9F       		.byte	0x9f
 3574 018e 00000000 		.4byte	0
 3575 0192 00000000 		.4byte	0
 3576              	.LLST9:
 3577 0196 00000000 		.4byte	.LVL35
 3578 019a 20000000 		.4byte	.LVL37
 3579 019e 0100     		.2byte	0x1
 3580 01a0 51       		.byte	0x51
 3581 01a1 20000000 		.4byte	.LVL37
 3582 01a5 3C000000 		.4byte	.LFE118
 3583 01a9 0400     		.2byte	0x4
 3584 01ab F3       		.byte	0xf3
 3585 01ac 01       		.uleb128 0x1
 3586 01ad 51       		.byte	0x51
 3587 01ae 9F       		.byte	0x9f
 3588 01af 00000000 		.4byte	0
 3589 01b3 00000000 		.4byte	0
 3590              	.LLST10:
 3591 01b7 00000000 		.4byte	.LVL38
 3592 01bb 0E000000 		.4byte	.LVL39
 3593 01bf 0100     		.2byte	0x1
 3594 01c1 50       		.byte	0x50
 3595 01c2 0E000000 		.4byte	.LVL39
 3596 01c6 36000000 		.4byte	.LFE119
 3597 01ca 0400     		.2byte	0x4
 3598 01cc F3       		.byte	0xf3
 3599 01cd 01       		.uleb128 0x1
 3600 01ce 50       		.byte	0x50
 3601 01cf 9F       		.byte	0x9f
 3602 01d0 00000000 		.4byte	0
 3603 01d4 00000000 		.4byte	0
 3604              	.LLST11:
 3605 01d8 00000000 		.4byte	.LVL38
 3606 01dc 24000000 		.4byte	.LVL40
 3607 01e0 0100     		.2byte	0x1
 3608 01e2 53       		.byte	0x53
 3609 01e3 24000000 		.4byte	.LVL40
 3610 01e7 36000000 		.4byte	.LFE119
 3611 01eb 0400     		.2byte	0x4
 3612 01ed F3       		.byte	0xf3
 3613 01ee 01       		.uleb128 0x1
 3614 01ef 53       		.byte	0x53
 3615 01f0 9F       		.byte	0x9f
 3616 01f1 00000000 		.4byte	0
 3617 01f5 00000000 		.4byte	0
 3618              	.LLST12:
 3619 01f9 00000000 		.4byte	.LVL41
 3620 01fd 0E000000 		.4byte	.LVL42
 3621 0201 0100     		.2byte	0x1
 3622 0203 50       		.byte	0x50
 3623 0204 0E000000 		.4byte	.LVL42
 3624 0208 38000000 		.4byte	.LFE120
ARM GAS  /tmp/ccmz5Id6.s 			page 65


 3625 020c 0400     		.2byte	0x4
 3626 020e F3       		.byte	0xf3
 3627 020f 01       		.uleb128 0x1
 3628 0210 50       		.byte	0x50
 3629 0211 9F       		.byte	0x9f
 3630 0212 00000000 		.4byte	0
 3631 0216 00000000 		.4byte	0
 3632              	.LLST13:
 3633 021a 00000000 		.4byte	.LVL41
 3634 021e 22000000 		.4byte	.LVL43
 3635 0222 0100     		.2byte	0x1
 3636 0224 52       		.byte	0x52
 3637 0225 22000000 		.4byte	.LVL43
 3638 0229 38000000 		.4byte	.LFE120
 3639 022d 0400     		.2byte	0x4
 3640 022f F3       		.byte	0xf3
 3641 0230 01       		.uleb128 0x1
 3642 0231 52       		.byte	0x52
 3643 0232 9F       		.byte	0x9f
 3644 0233 00000000 		.4byte	0
 3645 0237 00000000 		.4byte	0
 3646              	.LLST14:
 3647 023b 00000000 		.4byte	.LVL44
 3648 023f 0E000000 		.4byte	.LVL45
 3649 0243 0100     		.2byte	0x1
 3650 0245 50       		.byte	0x50
 3651 0246 0E000000 		.4byte	.LVL45
 3652 024a 38000000 		.4byte	.LFE121
 3653 024e 0400     		.2byte	0x4
 3654 0250 F3       		.byte	0xf3
 3655 0251 01       		.uleb128 0x1
 3656 0252 50       		.byte	0x50
 3657 0253 9F       		.byte	0x9f
 3658 0254 00000000 		.4byte	0
 3659 0258 00000000 		.4byte	0
 3660              	.LLST15:
 3661 025c 00000000 		.4byte	.LVL44
 3662 0260 22000000 		.4byte	.LVL46
 3663 0264 0100     		.2byte	0x1
 3664 0266 52       		.byte	0x52
 3665 0267 22000000 		.4byte	.LVL46
 3666 026b 38000000 		.4byte	.LFE121
 3667 026f 0400     		.2byte	0x4
 3668 0271 F3       		.byte	0xf3
 3669 0272 01       		.uleb128 0x1
 3670 0273 52       		.byte	0x52
 3671 0274 9F       		.byte	0x9f
 3672 0275 00000000 		.4byte	0
 3673 0279 00000000 		.4byte	0
 3674              	.LLST16:
 3675 027d 00000000 		.4byte	.LVL47
 3676 0281 0C000000 		.4byte	.LVL48
 3677 0285 0100     		.2byte	0x1
 3678 0287 50       		.byte	0x50
 3679 0288 0C000000 		.4byte	.LVL48
 3680 028c 10000000 		.4byte	.LFE122
 3681 0290 0400     		.2byte	0x4
ARM GAS  /tmp/ccmz5Id6.s 			page 66


 3682 0292 F3       		.byte	0xf3
 3683 0293 01       		.uleb128 0x1
 3684 0294 50       		.byte	0x50
 3685 0295 9F       		.byte	0x9f
 3686 0296 00000000 		.4byte	0
 3687 029a 00000000 		.4byte	0
 3688              		.section	.debug_aranges,"",%progbits
 3689 0000 74000000 		.4byte	0x74
 3690 0004 0200     		.2byte	0x2
 3691 0006 00000000 		.4byte	.Ldebug_info0
 3692 000a 04       		.byte	0x4
 3693 000b 00       		.byte	0
 3694 000c 0000     		.2byte	0
 3695 000e 0000     		.2byte	0
 3696 0010 00000000 		.4byte	.LFB112
 3697 0014 0C000000 		.4byte	.LFE112-.LFB112
 3698 0018 00000000 		.4byte	.LFB111
 3699 001c 7C000000 		.4byte	.LFE111-.LFB111
 3700 0020 00000000 		.4byte	.LFB113
 3701 0024 44000000 		.4byte	.LFE113-.LFB113
 3702 0028 00000000 		.4byte	.LFB114
 3703 002c B0000000 		.4byte	.LFE114-.LFB114
 3704 0030 00000000 		.4byte	.LFB115
 3705 0034 3C000000 		.4byte	.LFE115-.LFB115
 3706 0038 00000000 		.4byte	.LFB116
 3707 003c 12000000 		.4byte	.LFE116-.LFB116
 3708 0040 00000000 		.4byte	.LFB117
 3709 0044 12000000 		.4byte	.LFE117-.LFB117
 3710 0048 00000000 		.4byte	.LFB118
 3711 004c 3C000000 		.4byte	.LFE118-.LFB118
 3712 0050 00000000 		.4byte	.LFB119
 3713 0054 36000000 		.4byte	.LFE119-.LFB119
 3714 0058 00000000 		.4byte	.LFB120
 3715 005c 38000000 		.4byte	.LFE120-.LFB120
 3716 0060 00000000 		.4byte	.LFB121
 3717 0064 38000000 		.4byte	.LFE121-.LFB121
 3718 0068 00000000 		.4byte	.LFB122
 3719 006c 10000000 		.4byte	.LFE122-.LFB122
 3720 0070 00000000 		.4byte	0
 3721 0074 00000000 		.4byte	0
 3722              		.section	.debug_ranges,"",%progbits
 3723              	.Ldebug_ranges0:
 3724 0000 00000000 		.4byte	.LFB112
 3725 0004 0C000000 		.4byte	.LFE112
 3726 0008 00000000 		.4byte	.LFB111
 3727 000c 7C000000 		.4byte	.LFE111
 3728 0010 00000000 		.4byte	.LFB113
 3729 0014 44000000 		.4byte	.LFE113
 3730 0018 00000000 		.4byte	.LFB114
 3731 001c B0000000 		.4byte	.LFE114
 3732 0020 00000000 		.4byte	.LFB115
 3733 0024 3C000000 		.4byte	.LFE115
 3734 0028 00000000 		.4byte	.LFB116
 3735 002c 12000000 		.4byte	.LFE116
 3736 0030 00000000 		.4byte	.LFB117
 3737 0034 12000000 		.4byte	.LFE117
 3738 0038 00000000 		.4byte	.LFB118
ARM GAS  /tmp/ccmz5Id6.s 			page 67


 3739 003c 3C000000 		.4byte	.LFE118
 3740 0040 00000000 		.4byte	.LFB119
 3741 0044 36000000 		.4byte	.LFE119
 3742 0048 00000000 		.4byte	.LFB120
 3743 004c 38000000 		.4byte	.LFE120
 3744 0050 00000000 		.4byte	.LFB121
 3745 0054 38000000 		.4byte	.LFE121
 3746 0058 00000000 		.4byte	.LFB122
 3747 005c 10000000 		.4byte	.LFE122
 3748 0060 00000000 		.4byte	0
 3749 0064 00000000 		.4byte	0
 3750              		.section	.debug_line,"",%progbits
 3751              	.Ldebug_line0:
 3752 0000 1D040000 		.section	.debug_str,"MS",%progbits,1
 3752      02004502 
 3752      00000201 
 3752      FB0E0D00 
 3752      01010101 
 3753              	.LASF174:
 3754 0000 2E2E2F2E 		.ascii	"../../os/hal/platforms/STM32/SPIv1/spi_lld.c\000"
 3754      2E2F6F73 
 3754      2F68616C 
 3754      2F706C61 
 3754      74666F72 
 3755              	.LASF68:
 3756 002d 4D304152 		.ascii	"M0AR\000"
 3756      00
 3757              	.LASF2:
 3758 0032 73697A65 		.ascii	"size_t\000"
 3758      5F7400
 3759              	.LASF52:
 3760 0039 54687265 		.ascii	"ThreadsList\000"
 3760      6164734C 
 3760      69737400 
 3761              	.LASF62:
 3762 0045 7264796D 		.ascii	"rdymsg\000"
 3762      736700
 3763              	.LASF19:
 3764 004c 75696E74 		.ascii	"uint64_t\000"
 3764      36345F74 
 3764      00
 3765              	.LASF113:
 3766 0055 76656374 		.ascii	"vector\000"
 3766      6F7200
 3767              	.LASF118:
 3768 005c 4F545950 		.ascii	"OTYPER\000"
 3768      455200
 3769              	.LASF3:
 3770 0063 5F5F7569 		.ascii	"__uint8_t\000"
 3770      6E74385F 
 3770      7400
 3771              	.LASF131:
 3772 006d 5350495F 		.ascii	"SPI_ACTIVE\000"
 3772      41435449 
 3772      564500
 3773              	.LASF109:
 3774 0078 73747265 		.ascii	"stream\000"
ARM GAS  /tmp/ccmz5Id6.s 			page 68


 3774      616D00
 3775              	.LASF139:
 3776 007f 646D6172 		.ascii	"dmarx\000"
 3776      7800
 3777              	.LASF117:
 3778 0085 4D4F4445 		.ascii	"MODER\000"
 3778      5200
 3779              	.LASF14:
 3780 008b 6C6F6E67 		.ascii	"long long unsigned int\000"
 3780      206C6F6E 
 3780      6720756E 
 3780      7369676E 
 3780      65642069 
 3781              	.LASF130:
 3782 00a2 5350495F 		.ascii	"SPI_READY\000"
 3782      52454144 
 3782      5900
 3783              	.LASF120:
 3784 00ac 50555044 		.ascii	"PUPDR\000"
 3784      5200
 3785              	.LASF63:
 3786 00b2 65786974 		.ascii	"exitcode\000"
 3786      636F6465 
 3786      00
 3787              	.LASF167:
 3788 00bb 5F73746D 		.ascii	"_stm32_dma_streams\000"
 3788      33325F64 
 3788      6D615F73 
 3788      74726561 
 3788      6D7300
 3789              	.LASF134:
 3790 00ce 53504944 		.ascii	"SPIDriver\000"
 3790      72697665 
 3790      7200
 3791              	.LASF145:
 3792 00d8 7373706F 		.ascii	"ssport\000"
 3792      727400
 3793              	.LASF166:
 3794 00df 49544D5F 		.ascii	"ITM_RxBuffer\000"
 3794      52784275 
 3794      66666572 
 3794      00
 3795              	.LASF160:
 3796 00ec 72786275 		.ascii	"rxbuf\000"
 3796      6600
 3797              	.LASF87:
 3798 00f2 41484231 		.ascii	"AHB1LPENR\000"
 3798      4C50454E 
 3798      5200
 3799              	.LASF33:
 3800 00fc 705F7072 		.ascii	"p_prio\000"
 3800      696F00
 3801              	.LASF146:
 3802 0103 73737061 		.ascii	"sspad\000"
 3802      6400
 3803              	.LASF99:
 3804 0109 44434B43 		.ascii	"DCKCFGR\000"
ARM GAS  /tmp/ccmz5Id6.s 			page 69


 3804      46475200 
 3805              	.LASF12:
 3806 0111 6C6F6E67 		.ascii	"long long int\000"
 3806      206C6F6E 
 3806      6720696E 
 3806      7400
 3807              	.LASF1:
 3808 011f 7369676E 		.ascii	"signed char\000"
 3808      65642063 
 3808      68617200 
 3809              	.LASF121:
 3810 012b 42535252 		.ascii	"BSRR\000"
 3810      00
 3811              	.LASF73:
 3812 0130 41484231 		.ascii	"AHB1RSTR\000"
 3812      52535452 
 3812      00
 3813              	.LASF129:
 3814 0139 5350495F 		.ascii	"SPI_STOP\000"
 3814      53544F50 
 3814      00
 3815              	.LASF104:
 3816 0142 49325343 		.ascii	"I2SCFGR\000"
 3816      46475200 
 3817              	.LASF20:
 3818 014a 626F6F6C 		.ascii	"bool_t\000"
 3818      5F7400
 3819              	.LASF59:
 3820 0151 6D5F7175 		.ascii	"m_queue\000"
 3820      65756500 
 3821              	.LASF25:
 3822 0159 74736C69 		.ascii	"tslices_t\000"
 3822      6365735F 
 3822      7400
 3823              	.LASF163:
 3824 0163 6672616D 		.ascii	"frame\000"
 3824      6500
 3825              	.LASF135:
 3826 0169 73746174 		.ascii	"state\000"
 3826      6500
 3827              	.LASF9:
 3828 016f 6C6F6E67 		.ascii	"long int\000"
 3828      20696E74 
 3828      00
 3829              	.LASF151:
 3830 0178 7370695F 		.ascii	"spi_lld_serve_rx_interrupt\000"
 3830      6C6C645F 
 3830      73657276 
 3830      655F7278 
 3830      5F696E74 
 3831              	.LASF78:
 3832 0193 41504232 		.ascii	"APB2RSTR\000"
 3832      52535452 
 3832      00
 3833              	.LASF91:
 3834 019c 41504231 		.ascii	"APB1LPENR\000"
 3834      4C50454E 
ARM GAS  /tmp/ccmz5Id6.s 			page 70


 3834      5200
 3835              	.LASF23:
 3836 01a6 74737461 		.ascii	"tstate_t\000"
 3836      74655F74 
 3836      00
 3837              	.LASF108:
 3838 01af 5350495F 		.ascii	"SPI_TypeDef\000"
 3838      54797065 
 3838      44656600 
 3839              	.LASF35:
 3840 01bb 705F6E65 		.ascii	"p_newer\000"
 3840      77657200 
 3841              	.LASF144:
 3842 01c3 656E645F 		.ascii	"end_cb\000"
 3842      636200
 3843              	.LASF141:
 3844 01ca 7278646D 		.ascii	"rxdmamode\000"
 3844      616D6F64 
 3844      6500
 3845              	.LASF125:
 3846 01d4 4750494F 		.ascii	"GPIO_TypeDef\000"
 3846      5F547970 
 3846      65446566 
 3846      00
 3847              	.LASF140:
 3848 01e1 646D6174 		.ascii	"dmatx\000"
 3848      7800
 3849              	.LASF172:
 3850 01e7 63684462 		.ascii	"chDbgPanic\000"
 3850      6750616E 
 3850      696300
 3851              	.LASF119:
 3852 01f2 4F535045 		.ascii	"OSPEEDR\000"
 3852      45445200 
 3853              	.LASF10:
 3854 01fa 5F5F7569 		.ascii	"__uint32_t\000"
 3854      6E743332 
 3854      5F7400
 3855              	.LASF50:
 3856 0205 705F6D70 		.ascii	"p_mpool\000"
 3856      6F6F6C00 
 3857              	.LASF53:
 3858 020d 72656761 		.ascii	"regarm_t\000"
 3858      726D5F74 
 3858      00
 3859              	.LASF112:
 3860 0216 73656C66 		.ascii	"selfindex\000"
 3860      696E6465 
 3860      7800
 3861              	.LASF143:
 3862 0220 73706963 		.ascii	"spicallback_t\000"
 3862      616C6C62 
 3862      61636B5F 
 3862      7400
 3863              	.LASF142:
 3864 022e 7478646D 		.ascii	"txdmamode\000"
 3864      616D6F64 
ARM GAS  /tmp/ccmz5Id6.s 			page 71


 3864      6500
 3865              	.LASF161:
 3866 0238 7370695F 		.ascii	"spi_lld_send\000"
 3866      6C6C645F 
 3866      73656E64 
 3866      00
 3867              	.LASF38:
 3868 0245 705F7374 		.ascii	"p_stklimit\000"
 3868      6B6C696D 
 3868      697400
 3869              	.LASF0:
 3870 0250 756E7369 		.ascii	"unsigned int\000"
 3870      676E6564 
 3870      20696E74 
 3870      00
 3871              	.LASF156:
 3872 025d 7370695F 		.ascii	"spi_lld_unselect\000"
 3872      6C6C645F 
 3872      756E7365 
 3872      6C656374 
 3872      00
 3873              	.LASF159:
 3874 026e 74786275 		.ascii	"txbuf\000"
 3874      6600
 3875              	.LASF72:
 3876 0274 43464752 		.ascii	"CFGR\000"
 3876      00
 3877              	.LASF43:
 3878 0279 705F7469 		.ascii	"p_time\000"
 3878      6D6500
 3879              	.LASF115:
 3880 0280 73746D33 		.ascii	"stm32_dmaisr_t\000"
 3880      325F646D 
 3880      61697372 
 3880      5F7400
 3881              	.LASF45:
 3882 028f 705F6D73 		.ascii	"p_msgqueue\000"
 3882      67717565 
 3882      756500
 3883              	.LASF82:
 3884 029a 41484233 		.ascii	"AHB3ENR\000"
 3884      454E5200 
 3885              	.LASF100:
 3886 02a2 5243435F 		.ascii	"RCC_TypeDef\000"
 3886      54797065 
 3886      44656600 
 3887              	.LASF122:
 3888 02ae 4C434B52 		.ascii	"LCKR\000"
 3888      00
 3889              	.LASF111:
 3890 02b3 69736869 		.ascii	"ishift\000"
 3890      667400
 3891              	.LASF56:
 3892 02ba 636F6E74 		.ascii	"context\000"
 3892      65787400 
 3893              	.LASF7:
 3894 02c2 73686F72 		.ascii	"short unsigned int\000"
ARM GAS  /tmp/ccmz5Id6.s 			page 72


 3894      7420756E 
 3894      7369676E 
 3894      65642069 
 3894      6E7400
 3895              	.LASF97:
 3896 02d5 504C4C49 		.ascii	"PLLI2SCFGR\000"
 3896      32534346 
 3896      475200
 3897              	.LASF27:
 3898 02e0 6D73675F 		.ascii	"msg_t\000"
 3898      7400
 3899              	.LASF71:
 3900 02e6 504C4C43 		.ascii	"PLLCFGR\000"
 3900      46475200 
 3901              	.LASF165:
 3902 02ee 64756D6D 		.ascii	"dummyrx\000"
 3902      79727800 
 3903              	.LASF22:
 3904 02f6 746D6F64 		.ascii	"tmode_t\000"
 3904      655F7400 
 3905              	.LASF16:
 3906 02fe 75696E74 		.ascii	"uint16_t\000"
 3906      31365F74 
 3906      00
 3907              	.LASF92:
 3908 0307 41504232 		.ascii	"APB2LPENR\000"
 3908      4C50454E 
 3908      5200
 3909              	.LASF103:
 3910 0311 54584352 		.ascii	"TXCRCR\000"
 3910      435200
 3911              	.LASF28:
 3912 0318 6576656E 		.ascii	"eventmask_t\000"
 3912      746D6173 
 3912      6B5F7400 
 3913              	.LASF58:
 3914 0324 4D757465 		.ascii	"Mutex\000"
 3914      7800
 3915              	.LASF54:
 3916 032a 73746B61 		.ascii	"stkalign_t\000"
 3916      6C69676E 
 3916      5F7400
 3917              	.LASF152:
 3918 0335 7370695F 		.ascii	"spi_lld_init\000"
 3918      6C6C645F 
 3918      696E6974 
 3918      00
 3919              	.LASF162:
 3920 0342 7370695F 		.ascii	"spi_lld_receive\000"
 3920      6C6C645F 
 3920      72656365 
 3920      69766500 
 3921              	.LASF106:
 3922 0352 49325350 		.ascii	"I2SPR\000"
 3922      5200
 3923              	.LASF57:
 3924 0358 73697A65 		.ascii	"sizetype\000"
ARM GAS  /tmp/ccmz5Id6.s 			page 73


 3924      74797065 
 3924      00
 3925              	.LASF116:
 3926 0361 636C6561 		.ascii	"clear\000"
 3926      7200
 3927              	.LASF158:
 3928 0367 7370695F 		.ascii	"spi_lld_exchange\000"
 3928      6C6C645F 
 3928      65786368 
 3928      616E6765 
 3928      00
 3929              	.LASF31:
 3930 0378 705F6E65 		.ascii	"p_next\000"
 3930      787400
 3931              	.LASF126:
 3932 037f 696F706F 		.ascii	"ioportmask_t\000"
 3932      72746D61 
 3932      736B5F74 
 3932      00
 3933              	.LASF36:
 3934 038c 705F6F6C 		.ascii	"p_older\000"
 3934      64657200 
 3935              	.LASF175:
 3936 0394 2F686F6D 		.ascii	"/home/makkmarci/devel/ChibiOS_2.6.5/projects/STM32F"
 3936      652F6D61 
 3936      6B6B6D61 
 3936      7263692F 
 3936      64657665 
 3937 03c7 345F4368 		.ascii	"4_ChibiOS_uGFX_gwin_2/\000"
 3937      6962694F 
 3937      535F7547 
 3937      46585F67 
 3937      77696E5F 
 3938              	.LASF51:
 3939 03de 54687265 		.ascii	"ThreadsQueue\000"
 3939      61647351 
 3939      75657565 
 3939      00
 3940              	.LASF88:
 3941 03eb 41484232 		.ascii	"AHB2LPENR\000"
 3941      4C50454E 
 3941      5200
 3942              	.LASF41:
 3943 03f5 705F7265 		.ascii	"p_refs\000"
 3943      667300
 3944              	.LASF77:
 3945 03fc 41504231 		.ascii	"APB1RSTR\000"
 3945      52535452 
 3945      00
 3946              	.LASF13:
 3947 0405 5F5F7569 		.ascii	"__uint64_t\000"
 3947      6E743634 
 3947      5F7400
 3948              	.LASF124:
 3949 0410 41465248 		.ascii	"AFRH\000"
 3949      00
 3950              	.LASF101:
ARM GAS  /tmp/ccmz5Id6.s 			page 74


 3951 0415 43524350 		.ascii	"CRCPR\000"
 3951      5200
 3952              	.LASF123:
 3953 041b 4146524C 		.ascii	"AFRL\000"
 3953      00
 3954              	.LASF98:
 3955 0420 504C4C53 		.ascii	"PLLSAICFGR\000"
 3955      41494346 
 3955      475200
 3956              	.LASF24:
 3957 042b 74726566 		.ascii	"trefs_t\000"
 3957      735F7400 
 3958              	.LASF76:
 3959 0433 52455345 		.ascii	"RESERVED0\000"
 3959      52564544 
 3959      3000
 3960              	.LASF79:
 3961 043d 52455345 		.ascii	"RESERVED1\000"
 3961      52564544 
 3961      3100
 3962              	.LASF83:
 3963 0447 52455345 		.ascii	"RESERVED2\000"
 3963      52564544 
 3963      3200
 3964              	.LASF86:
 3965 0451 52455345 		.ascii	"RESERVED3\000"
 3965      52564544 
 3965      3300
 3966              	.LASF90:
 3967 045b 52455345 		.ascii	"RESERVED4\000"
 3967      52564544 
 3967      3400
 3968              	.LASF32:
 3969 0465 705F7072 		.ascii	"p_prev\000"
 3969      657600
 3970              	.LASF95:
 3971 046c 52455345 		.ascii	"RESERVED6\000"
 3971      52564544 
 3971      3600
 3972              	.LASF105:
 3973 0476 52455345 		.ascii	"RESERVED7\000"
 3973      52564544 
 3973      3700
 3974              	.LASF107:
 3975 0480 52455345 		.ascii	"RESERVED8\000"
 3975      52564544 
 3975      3800
 3976              	.LASF26:
 3977 048a 74707269 		.ascii	"tprio_t\000"
 3977      6F5F7400 
 3978              	.LASF138:
 3979 0492 6D757465 		.ascii	"mutex\000"
 3979      7800
 3980              	.LASF21:
 3981 0498 5F426F6F 		.ascii	"_Bool\000"
 3981      6C00
 3982              	.LASF17:
ARM GAS  /tmp/ccmz5Id6.s 			page 75


 3983 049e 696E7433 		.ascii	"int32_t\000"
 3983      325F7400 
 3984              	.LASF4:
 3985 04a6 756E7369 		.ascii	"unsigned char\000"
 3985      676E6564 
 3985      20636861 
 3985      7200
 3986              	.LASF114:
 3987 04b4 73746D33 		.ascii	"stm32_dma_stream_t\000"
 3987      325F646D 
 3987      615F7374 
 3987      7265616D 
 3987      5F7400
 3988              	.LASF168:
 3989 04c7 53504944 		.ascii	"SPID2\000"
 3989      3200
 3990              	.LASF164:
 3991 04cd 64756D6D 		.ascii	"dummytx\000"
 3991      79747800 
 3992              	.LASF39:
 3993 04d5 705F7374 		.ascii	"p_state\000"
 3993      61746500 
 3994              	.LASF48:
 3995 04dd 705F6D74 		.ascii	"p_mtxlist\000"
 3995      786C6973 
 3995      7400
 3996              	.LASF5:
 3997 04e7 73686F72 		.ascii	"short int\000"
 3997      7420696E 
 3997      7400
 3998              	.LASF42:
 3999 04f1 705F7072 		.ascii	"p_preempt\000"
 3999      65656D70 
 3999      7400
 4000              	.LASF89:
 4001 04fb 41484233 		.ascii	"AHB3LPENR\000"
 4001      4C50454E 
 4001      5200
 4002              	.LASF171:
 4003 0505 7370694F 		.ascii	"spiObjectInit\000"
 4003      626A6563 
 4003      74496E69 
 4003      7400
 4004              	.LASF65:
 4005 0513 65776D61 		.ascii	"ewmask\000"
 4005      736B00
 4006              	.LASF40:
 4007 051a 705F666C 		.ascii	"p_flags\000"
 4007      61677300 
 4008              	.LASF85:
 4009 0522 41504232 		.ascii	"APB2ENR\000"
 4009      454E5200 
 4010              	.LASF75:
 4011 052a 41484233 		.ascii	"AHB3RSTR\000"
 4011      52535452 
 4011      00
 4012              	.LASF30:
ARM GAS  /tmp/ccmz5Id6.s 			page 76


 4013 0533 54687265 		.ascii	"Thread\000"
 4013      616400
 4014              	.LASF47:
 4015 053a 705F6570 		.ascii	"p_epending\000"
 4015      656E6469 
 4015      6E6700
 4016              	.LASF110:
 4017 0545 69666372 		.ascii	"ifcr\000"
 4017      00
 4018              	.LASF93:
 4019 054a 52455345 		.ascii	"RESERVED5\000"
 4019      52564544 
 4019      3500
 4020              	.LASF18:
 4021 0554 75696E74 		.ascii	"uint32_t\000"
 4021      33325F74 
 4021      00
 4022              	.LASF169:
 4023 055d 63685363 		.ascii	"chSchReadyI\000"
 4023      68526561 
 4023      64794900 
 4024              	.LASF84:
 4025 0569 41504231 		.ascii	"APB1ENR\000"
 4025      454E5200 
 4026              	.LASF11:
 4027 0571 6C6F6E67 		.ascii	"long unsigned int\000"
 4027      20756E73 
 4027      69676E65 
 4027      6420696E 
 4027      7400
 4028              	.LASF66:
 4029 0583 63686172 		.ascii	"char\000"
 4029      00
 4030              	.LASF154:
 4031 0588 7370695F 		.ascii	"spi_lld_stop\000"
 4031      6C6C645F 
 4031      73746F70 
 4031      00
 4032              	.LASF178:
 4033 0595 646D6153 		.ascii	"dmaStreamRelease\000"
 4033      74726561 
 4033      6D52656C 
 4033      65617365 
 4033      00
 4034              	.LASF132:
 4035 05a6 5350495F 		.ascii	"SPI_COMPLETE\000"
 4035      434F4D50 
 4035      4C455445 
 4035      00
 4036              	.LASF136:
 4037 05b3 636F6E66 		.ascii	"config\000"
 4037      696700
 4038              	.LASF177:
 4039 05ba 706F7274 		.ascii	"port_halt\000"
 4039      5F68616C 
 4039      7400
 4040              	.LASF6:
ARM GAS  /tmp/ccmz5Id6.s 			page 77


 4041 05c4 5F5F7569 		.ascii	"__uint16_t\000"
 4041      6E743136 
 4041      5F7400
 4042              	.LASF74:
 4043 05cf 41484232 		.ascii	"AHB2RSTR\000"
 4043      52535452 
 4043      00
 4044              	.LASF133:
 4045 05d8 73706973 		.ascii	"spistate_t\000"
 4045      74617465 
 4045      5F7400
 4046              	.LASF61:
 4047 05e3 6D5F6E65 		.ascii	"m_next\000"
 4047      787400
 4048              	.LASF29:
 4049 05ea 73797374 		.ascii	"systime_t\000"
 4049      696D655F 
 4049      7400
 4050              	.LASF49:
 4051 05f4 705F7265 		.ascii	"p_realprio\000"
 4051      616C7072 
 4051      696F00
 4052              	.LASF8:
 4053 05ff 5F5F696E 		.ascii	"__int32_t\000"
 4053      7433325F 
 4053      7400
 4054              	.LASF137:
 4055 0609 74687265 		.ascii	"thread\000"
 4055      616400
 4056              	.LASF67:
 4057 0610 4E445452 		.ascii	"NDTR\000"
 4057      00
 4058              	.LASF70:
 4059 0615 444D415F 		.ascii	"DMA_Stream_TypeDef\000"
 4059      53747265 
 4059      616D5F54 
 4059      79706544 
 4059      656600
 4060              	.LASF127:
 4061 0628 696F706F 		.ascii	"ioportid_t\000"
 4061      72746964 
 4061      5F7400
 4062              	.LASF81:
 4063 0633 41484232 		.ascii	"AHB2ENR\000"
 4063      454E5200 
 4064              	.LASF155:
 4065 063b 7370695F 		.ascii	"spi_lld_select\000"
 4065      6C6C645F 
 4065      73656C65 
 4065      637400
 4066              	.LASF55:
 4067 064a 696E7463 		.ascii	"intctx\000"
 4067      747800
 4068              	.LASF69:
 4069 0651 4D314152 		.ascii	"M1AR\000"
 4069      00
 4070              	.LASF128:
ARM GAS  /tmp/ccmz5Id6.s 			page 78


 4071 0656 5350495F 		.ascii	"SPI_UNINIT\000"
 4071      554E494E 
 4071      495400
 4072              	.LASF96:
 4073 0661 53534347 		.ascii	"SSCGR\000"
 4073      5200
 4074              	.LASF157:
 4075 0667 7370695F 		.ascii	"spi_lld_ignore\000"
 4075      6C6C645F 
 4075      69676E6F 
 4075      726500
 4076              	.LASF94:
 4077 0676 42444352 		.ascii	"BDCR\000"
 4077      00
 4078              	.LASF102:
 4079 067b 52584352 		.ascii	"RXCRCR\000"
 4079      435200
 4080              	.LASF153:
 4081 0682 7370695F 		.ascii	"spi_lld_start\000"
 4081      6C6C645F 
 4081      73746172 
 4081      7400
 4082              	.LASF15:
 4083 0690 75696E74 		.ascii	"uint8_t\000"
 4083      385F7400 
 4084              	.LASF148:
 4085 0698 73706970 		.ascii	"spip\000"
 4085      00
 4086              	.LASF173:
 4087 069d 474E5520 		.ascii	"GNU C 4.8.4 20140526 (release) [ARM/embedded-4_8-br"
 4087      4320342E 
 4087      382E3420 
 4087      32303134 
 4087      30353236 
 4088 06d0 616E6368 		.ascii	"anch revision 211358] -mcpu=cortex-m4 -mfloat-abi=h"
 4088      20726576 
 4088      6973696F 
 4088      6E203231 
 4088      31333538 
 4089 0703 61726420 		.ascii	"ard -mfpu=fpv4-sp-d16 -mno-thumb-interwork -mthumb "
 4089      2D6D6670 
 4089      753D6670 
 4089      76342D73 
 4089      702D6431 
 4090 0736 2D676764 		.ascii	"-ggdb -O2 -fomit-frame-pointer -falign-functions=16"
 4090      62202D4F 
 4090      32202D66 
 4090      6F6D6974 
 4090      2D667261 
 4091 0769 202D6666 		.ascii	" -ffunction-sections -fdata-sections -fno-common -f"
 4091      756E6374 
 4091      696F6E2D 
 4091      73656374 
 4091      696F6E73 
 4092 079c 73696E67 		.ascii	"single-precision-constant\000"
 4092      6C652D70 
 4092      72656369 
ARM GAS  /tmp/ccmz5Id6.s 			page 79


 4092      73696F6E 
 4092      2D636F6E 
 4093              	.LASF149:
 4094 07b6 666C6167 		.ascii	"flags\000"
 4094      7300
 4095              	.LASF64:
 4096 07bc 77746F62 		.ascii	"wtobjp\000"
 4096      6A7000
 4097              	.LASF150:
 4098 07c3 7370695F 		.ascii	"spi_lld_serve_tx_interrupt\000"
 4098      6C6C645F 
 4098      73657276 
 4098      655F7478 
 4098      5F696E74 
 4099              	.LASF37:
 4100 07de 705F6E61 		.ascii	"p_name\000"
 4100      6D6500
 4101              	.LASF80:
 4102 07e5 41484231 		.ascii	"AHB1ENR\000"
 4102      454E5200 
 4103              	.LASF176:
 4104 07ed 7370695F 		.ascii	"spi_lld_polled_exchange\000"
 4104      6C6C645F 
 4104      706F6C6C 
 4104      65645F65 
 4104      78636861 
 4105              	.LASF147:
 4106 0805 53504943 		.ascii	"SPIConfig\000"
 4106      6F6E6669 
 4106      6700
 4107              	.LASF46:
 4108 080f 705F6D73 		.ascii	"p_msg\000"
 4108      6700
 4109              	.LASF60:
 4110 0815 6D5F6F77 		.ascii	"m_owner\000"
 4110      6E657200 
 4111              	.LASF170:
 4112 081d 646D6153 		.ascii	"dmaStreamAllocate\000"
 4112      74726561 
 4112      6D416C6C 
 4112      6F636174 
 4112      6500
 4113              	.LASF34:
 4114 082f 705F6374 		.ascii	"p_ctx\000"
 4114      7800
 4115              	.LASF44:
 4116 0835 705F7761 		.ascii	"p_waiting\000"
 4116      6974696E 
 4116      6700
 4117              		.ident	"GCC: (GNU Tools for ARM Embedded Processors) 4.8.4 20140526 (release) [ARM/embedded-4_8-br
ARM GAS  /tmp/ccmz5Id6.s 			page 80


DEFINED SYMBOLS
                            *ABS*:00000000 spi_lld.c
     /tmp/ccmz5Id6.s:21     .text.spi_lld_serve_tx_interrupt:00000000 $t
     /tmp/ccmz5Id6.s:26     .text.spi_lld_serve_tx_interrupt:00000000 spi_lld_serve_tx_interrupt
     /tmp/ccmz5Id6.s:47     .text.spi_lld_serve_rx_interrupt:00000000 $t
     /tmp/ccmz5Id6.s:52     .text.spi_lld_serve_rx_interrupt:00000000 spi_lld_serve_rx_interrupt
     /tmp/ccmz5Id6.s:166    .text.spi_lld_init:00000000 $t
     /tmp/ccmz5Id6.s:172    .text.spi_lld_init:00000000 spi_lld_init
     /tmp/ccmz5Id6.s:218    .text.spi_lld_init:0000002c $d
     /tmp/ccmz5Id6.s:228    .text.spi_lld_start:00000000 $t
     /tmp/ccmz5Id6.s:234    .text.spi_lld_start:00000000 spi_lld_start
     /tmp/ccmz5Id6.s:372    .text.spi_lld_start:00000098 $d
     /tmp/ccmz5Id6.s:383    .text.spi_lld_stop:00000000 $t
     /tmp/ccmz5Id6.s:389    .text.spi_lld_stop:00000000 spi_lld_stop
     /tmp/ccmz5Id6.s:443    .text.spi_lld_stop:00000034 $d
     /tmp/ccmz5Id6.s:449    .text.spi_lld_select:00000000 $t
     /tmp/ccmz5Id6.s:455    .text.spi_lld_select:00000000 spi_lld_select
     /tmp/ccmz5Id6.s:476    .text.spi_lld_unselect:00000000 $t
     /tmp/ccmz5Id6.s:482    .text.spi_lld_unselect:00000000 spi_lld_unselect
     /tmp/ccmz5Id6.s:503    .text.spi_lld_ignore:00000000 $t
     /tmp/ccmz5Id6.s:509    .text.spi_lld_ignore:00000000 spi_lld_ignore
     /tmp/ccmz5Id6.s:567    .text.spi_lld_ignore:00000034 $d
     /tmp/ccmz5Id6.s:573    .text.spi_lld_exchange:00000000 $t
     /tmp/ccmz5Id6.s:579    .text.spi_lld_exchange:00000000 spi_lld_exchange
     /tmp/ccmz5Id6.s:638    .text.spi_lld_send:00000000 $t
     /tmp/ccmz5Id6.s:644    .text.spi_lld_send:00000000 spi_lld_send
     /tmp/ccmz5Id6.s:700    .text.spi_lld_send:00000034 $d
     /tmp/ccmz5Id6.s:705    .text.spi_lld_receive:00000000 $t
     /tmp/ccmz5Id6.s:711    .text.spi_lld_receive:00000000 spi_lld_receive
     /tmp/ccmz5Id6.s:768    .text.spi_lld_receive:00000034 $d
     /tmp/ccmz5Id6.s:773    .text.spi_lld_polled_exchange:00000000 $t
     /tmp/ccmz5Id6.s:779    .text.spi_lld_polled_exchange:00000000 spi_lld_polled_exchange
     /tmp/ccmz5Id6.s:817    .bss.SPID2:00000000 SPID2
     /tmp/ccmz5Id6.s:806    .bss.dummytx:00000000 $d
     /tmp/ccmz5Id6.s:810    .bss.dummytx:00000000 dummytx
     /tmp/ccmz5Id6.s:813    .bss.SPID2:00000000 $d
     /tmp/ccmz5Id6.s:820    .rodata.str1.4:00000000 $d
     /tmp/ccmz5Id6.s:826    .bss.dummyrx:00000000 $d
     /tmp/ccmz5Id6.s:830    .bss.dummyrx:00000000 dummyrx
                     .debug_frame:00000010 $d
     /tmp/ccmz5Id6.s:227    .text.spi_lld_init:00000044 $t
     /tmp/ccmz5Id6.s:448    .text.spi_lld_stop:0000003c $t
     /tmp/ccmz5Id6.s:572    .text.spi_lld_ignore:0000003c $t
     /tmp/ccmz5Id6.s:704    .text.spi_lld_send:00000038 $t
     /tmp/ccmz5Id6.s:772    .text.spi_lld_receive:00000038 $t

UNDEFINED SYMBOLS
port_halt
_port_lock
chSchReadyI
_port_unlock
spiObjectInit
_stm32_dma_streams
dmaStreamAllocate
chDbgPanic
dmaStreamRelease
