ARM GAS  /tmp/ccPJkY7a.s 			page 1


   1              		.syntax unified
   2              		.cpu cortex-m4
   3              		.eabi_attribute 27, 3
   4              		.eabi_attribute 28, 1
   5              		.fpu fpv4-sp-d16
   6              		.eabi_attribute 20, 1
   7              		.eabi_attribute 21, 1
   8              		.eabi_attribute 23, 3
   9              		.eabi_attribute 24, 1
  10              		.eabi_attribute 25, 1
  11              		.eabi_attribute 26, 1
  12              		.eabi_attribute 30, 2
  13              		.eabi_attribute 34, 1
  14              		.eabi_attribute 18, 4
  15              		.thumb
  16              		.file	"spi_lld.c"
  17              		.text
  18              	.Ltext0:
  19              		.cfi_sections	.debug_frame
  20              		.section	.text.spi_lld_serve_tx_interrupt,"ax",%progbits
  21              		.align	2
  22              		.p2align 4,,15
  23              		.thumb
  24              		.thumb_func
  25              		.type	spi_lld_serve_tx_interrupt, %function
  26              	spi_lld_serve_tx_interrupt:
  27              	.LFB119:
  28              		.file 1 "../../os/hal/platforms/STM32/SPIv1/spi_lld.c"
  29              		.loc 1 159 0
  30              		.cfi_startproc
  31              		@ args = 0, pretend = 0, frame = 0
  32              		@ frame_needed = 0, uses_anonymous_args = 0
  33              		@ link register save eliminated.
  34              	.LVL0:
  35              		.loc 1 164 0
  36 0000 11F00C0F 		tst	r1, #12
  37 0004 00D1     		bne	.L4
  38 0006 7047     		bx	lr
  39              	.L4:
  40              		.loc 1 165 0
  41 0008 FFF7FEBF 		b	port_halt
  42              	.LVL1:
  43              		.cfi_endproc
  44              	.LFE119:
  45              		.size	spi_lld_serve_tx_interrupt, .-spi_lld_serve_tx_interrupt
  46 000c AFF30080 		.section	.text.spi_lld_serve_rx_interrupt,"ax",%progbits
  47              		.align	2
  48              		.p2align 4,,15
  49              		.thumb
  50              		.thumb_func
  51              		.type	spi_lld_serve_rx_interrupt, %function
  52              	spi_lld_serve_rx_interrupt:
  53              	.LFB118:
  54              		.loc 1 133 0
  55              		.cfi_startproc
  56              		@ args = 0, pretend = 0, frame = 0
  57              		@ frame_needed = 0, uses_anonymous_args = 0
ARM GAS  /tmp/ccPJkY7a.s 			page 2


  58              	.LVL2:
  59              		.loc 1 137 0
  60 0000 11F00C0F 		tst	r1, #12
  61              		.loc 1 133 0
  62 0004 38B5     		push	{r3, r4, r5, lr}
  63              		.cfi_def_cfa_offset 16
  64              		.cfi_offset 3, -16
  65              		.cfi_offset 4, -12
  66              		.cfi_offset 5, -8
  67              		.cfi_offset 14, -4
  68              		.loc 1 133 0
  69 0006 0446     		mov	r4, r0
  70              		.loc 1 137 0
  71 0008 3BD1     		bne	.L20
  72              	.LVL3:
  73              	.L6:
  74              		.loc 1 145 0
  75 000a 606A     		ldr	r0, [r4, #36]
  76 000c 0268     		ldr	r2, [r0]
  77 000e 1368     		ldr	r3, [r2]
  78 0010 23F01F03 		bic	r3, r3, #31
  79 0014 1360     		str	r3, [r2]
  80              	.L8:
  81              		.loc 1 145 0 is_stmt 0 discriminator 1
  82 0016 1368     		ldr	r3, [r2]
  83 0018 D907     		lsls	r1, r3, #31
  84 001a FCD4     		bmi	.L8
  85              		.loc 1 145 0 discriminator 2
  86 001c 057A     		ldrb	r5, [r0, #8]	@ zero_extendqisi2
  87              		.loc 1 146 0 is_stmt 1 discriminator 2
  88 001e 216A     		ldr	r1, [r4, #32]
  89              		.loc 1 145 0 discriminator 2
  90 0020 4368     		ldr	r3, [r0, #4]
  91              		.loc 1 146 0 discriminator 2
  92 0022 0A68     		ldr	r2, [r1]
  93              		.loc 1 145 0 discriminator 2
  94 0024 3D20     		movs	r0, #61
  95 0026 A840     		lsls	r0, r0, r5
  96 0028 1860     		str	r0, [r3]
  97              		.loc 1 146 0 discriminator 2
  98 002a 1368     		ldr	r3, [r2]
  99 002c 23F01F03 		bic	r3, r3, #31
 100 0030 1360     		str	r3, [r2]
 101              	.L10:
 102              		.loc 1 146 0 is_stmt 0 discriminator 1
 103 0032 1368     		ldr	r3, [r2]
 104 0034 DB07     		lsls	r3, r3, #31
 105 0036 FCD4     		bmi	.L10
 106              		.loc 1 150 0 is_stmt 1 discriminator 2
 107 0038 6368     		ldr	r3, [r4, #4]
 108              		.loc 1 146 0 discriminator 2
 109 003a 087A     		ldrb	r0, [r1, #8]	@ zero_extendqisi2
 110 003c 4A68     		ldr	r2, [r1, #4]
 111              		.loc 1 150 0 discriminator 2
 112 003e 1B68     		ldr	r3, [r3]
 113              		.loc 1 146 0 discriminator 2
 114 0040 3D21     		movs	r1, #61
ARM GAS  /tmp/ccPJkY7a.s 			page 3


 115 0042 8140     		lsls	r1, r1, r0
 116 0044 1160     		str	r1, [r2]
 117              		.loc 1 150 0 discriminator 2
 118 0046 CBB1     		cbz	r3, .L11
 119              		.loc 1 150 0 is_stmt 0 discriminator 1
 120 0048 0422     		movs	r2, #4
 121 004a 2270     		strb	r2, [r4]
 122 004c 2046     		mov	r0, r4
 123 004e 9847     		blx	r3
 124              	.LVL4:
 125 0050 2378     		ldrb	r3, [r4]	@ zero_extendqisi2
 126 0052 042B     		cmp	r3, #4
 127 0054 12D0     		beq	.L11
 128              	.L12:
 129              	.LBB2:
 130 0056 2023     		movs	r3, #32
 131              	@ 150 "../../os/hal/platforms/STM32/SPIv1/spi_lld.c" 1
 132 0058 83F31188 		msr     BASEPRI, r3
 133              	@ 0 "" 2
 134              		.thumb
 135              	.LBE2:
 136 005c FFF7FEFF 		bl	dbg_check_lock_from_isr
 137              	.LVL5:
 138 0060 A368     		ldr	r3, [r4, #8]
 139 0062 2BB1     		cbz	r3, .L13
 140              	.LVL6:
 141              	.LBB3:
 142 0064 0022     		movs	r2, #0
 143 0066 A260     		str	r2, [r4, #8]
 144 0068 1846     		mov	r0, r3
 145 006a 9A62     		str	r2, [r3, #40]
 146 006c FFF7FEFF 		bl	chSchReadyI
 147              	.LVL7:
 148              	.L13:
 149              	.LBE3:
 150              		.loc 1 150 0 discriminator 2
 151 0070 FFF7FEFF 		bl	dbg_check_unlock_from_isr
 152              	.LVL8:
 153              	.LBB4:
 154 0074 0023     		movs	r3, #0
 155              	@ 150 "../../os/hal/platforms/STM32/SPIv1/spi_lld.c" 1
 156 0076 83F31188 		msr     BASEPRI, r3
 157              	@ 0 "" 2
 158              		.thumb
 159 007a 38BD     		pop	{r3, r4, r5, pc}
 160              	.LVL9:
 161              	.L11:
 162              	.LBE4:
 163 007c 0223     		movs	r3, #2
 164 007e 2370     		strb	r3, [r4]
 165 0080 E9E7     		b	.L12
 166              	.LVL10:
 167              	.L20:
 168              		.loc 1 138 0 is_stmt 1
 169 0082 FFF7FEFF 		bl	port_halt
 170              	.LVL11:
 171 0086 C0E7     		b	.L6
ARM GAS  /tmp/ccPJkY7a.s 			page 4


 172              		.cfi_endproc
 173              	.LFE118:
 174              		.size	spi_lld_serve_rx_interrupt, .-spi_lld_serve_rx_interrupt
 175 0088 AFF30080 		.section	.text.spi_lld_init,"ax",%progbits
 175      AFF30080 
 176              		.align	2
 177              		.p2align 4,,15
 178              		.global	spi_lld_init
 179              		.thumb
 180              		.thumb_func
 181              		.type	spi_lld_init, %function
 182              	spi_lld_init:
 183              	.LFB120:
 184              		.loc 1 186 0
 185              		.cfi_startproc
 186              		@ args = 0, pretend = 0, frame = 0
 187              		@ frame_needed = 0, uses_anonymous_args = 0
 188 0000 10B5     		push	{r4, lr}
 189              		.cfi_def_cfa_offset 8
 190              		.cfi_offset 4, -8
 191              		.cfi_offset 14, -4
 192              		.loc 1 209 0
 193 0002 0A4C     		ldr	r4, .L22
 194              		.loc 1 188 0
 195 0004 0A4B     		ldr	r3, .L22+4
 196 0006 4FF6FF72 		movw	r2, #65535
 197              		.loc 1 209 0
 198 000a 2046     		mov	r0, r4
 199              		.loc 1 188 0
 200 000c 1A80     		strh	r2, [r3]	@ movhi
 201              		.loc 1 209 0
 202 000e FFF7FEFF 		bl	spiObjectInit
 203              	.LVL12:
 204              		.loc 1 211 0
 205 0012 084B     		ldr	r3, .L22+8
 206              		.loc 1 210 0
 207 0014 0848     		ldr	r0, .L22+12
 208              		.loc 1 213 0
 209 0016 0949     		ldr	r1, .L22+16
 210              		.loc 1 219 0
 211 0018 094A     		ldr	r2, .L22+20
 212              		.loc 1 210 0
 213 001a E061     		str	r0, [r4, #28]
 214              		.loc 1 212 0
 215 001c 03F10C00 		add	r0, r3, #12
 216              		.loc 1 211 0
 217 0020 2362     		str	r3, [r4, #32]
 218              		.loc 1 212 0
 219 0022 6062     		str	r0, [r4, #36]
 220              		.loc 1 213 0
 221 0024 A162     		str	r1, [r4, #40]
 222              		.loc 1 219 0
 223 0026 E262     		str	r2, [r4, #44]
 224 0028 10BD     		pop	{r4, pc}
 225              	.L23:
 226 002a 00BF     		.align	2
 227              	.L22:
ARM GAS  /tmp/ccPJkY7a.s 			page 5


 228 002c 00000000 		.word	.LANCHOR1
 229 0030 00000000 		.word	.LANCHOR0
 230 0034 24000000 		.word	_stm32_dma_streams+36
 231 0038 00380040 		.word	1073756160
 232 003c 16000100 		.word	65558
 233 0040 46000100 		.word	65606
 234              		.cfi_endproc
 235              	.LFE120:
 236              		.size	spi_lld_init, .-spi_lld_init
 237 0044 AFF30080 		.section	.text.spi_lld_start,"ax",%progbits
 237      AFF30080 
 237      AFF30080 
 238              		.align	2
 239              		.p2align 4,,15
 240              		.global	spi_lld_start
 241              		.thumb
 242              		.thumb_func
 243              		.type	spi_lld_start, %function
 244              	spi_lld_start:
 245              	.LFB121:
 246              		.loc 1 306 0
 247              		.cfi_startproc
 248              		@ args = 0, pretend = 0, frame = 0
 249              		@ frame_needed = 0, uses_anonymous_args = 0
 250              	.LVL13:
 251 0000 38B5     		push	{r3, r4, r5, lr}
 252              		.cfi_def_cfa_offset 16
 253              		.cfi_offset 3, -16
 254              		.cfi_offset 4, -12
 255              		.cfi_offset 5, -8
 256              		.cfi_offset 14, -4
 257              		.loc 1 309 0
 258 0002 0378     		ldrb	r3, [r0]	@ zero_extendqisi2
 259 0004 012B     		cmp	r3, #1
 260              		.loc 1 306 0
 261 0006 0446     		mov	r4, r0
 262              		.loc 1 309 0
 263 0008 1DD0     		beq	.L38
 264 000a C369     		ldr	r3, [r0, #28]
 265              	.LVL14:
 266              	.L25:
 267              		.loc 1 413 0
 268 000c 6268     		ldr	r2, [r4, #4]
 269              		.loc 1 416 0
 270 000e A06A     		ldr	r0, [r4, #40]
 271              		.loc 1 413 0
 272 0010 5289     		ldrh	r2, [r2, #10]
 273              		.loc 1 418 0
 274 0012 E16A     		ldr	r1, [r4, #44]
 275              		.loc 1 416 0
 276 0014 20F4F040 		bic	r0, r0, #30720
 277              		.loc 1 418 0
 278 0018 21F4F041 		bic	r1, r1, #30720
 279              		.loc 1 413 0
 280 001c 1505     		lsls	r5, r2, #20
 281              		.loc 1 423 0
 282 001e 44BF     		itt	mi
ARM GAS  /tmp/ccPJkY7a.s 			page 6


 283 0020 40F42050 		orrmi	r0, r0, #10240
 284              		.loc 1 425 0
 285 0024 41F42051 		orrmi	r1, r1, #10240
 286              		.loc 1 422 0
 287 0028 A062     		str	r0, [r4, #40]
 288              		.loc 1 424 0
 289 002a E162     		str	r1, [r4, #44]
 290              		.loc 1 429 0
 291 002c 42F44172 		orr	r2, r2, #772
 292              		.loc 1 428 0
 293 0030 0020     		movs	r0, #0
 294              		.loc 1 431 0
 295 0032 0721     		movs	r1, #7
 296              		.loc 1 428 0
 297 0034 1880     		strh	r0, [r3]	@ movhi
 298              		.loc 1 429 0
 299 0036 1A80     		strh	r2, [r3]	@ movhi
 300              		.loc 1 431 0
 301 0038 9980     		strh	r1, [r3, #4]	@ movhi
 302              		.loc 1 432 0
 303 003a 1A88     		ldrh	r2, [r3]
 304 003c 92B2     		uxth	r2, r2
 305 003e 42F04002 		orr	r2, r2, #64
 306 0042 1A80     		strh	r2, [r3]	@ movhi
 307 0044 38BD     		pop	{r3, r4, r5, pc}
 308              	.LVL15:
 309              	.L38:
 310              		.loc 1 327 0
 311 0046 144D     		ldr	r5, .L43
 312 0048 A842     		cmp	r0, r5
 313 004a 09D0     		beq	.L40
 314              	.LVL16:
 315              	.L26:
 316              		.loc 1 408 0
 317 004c 216A     		ldr	r1, [r4, #32]
 318              		.loc 1 409 0
 319 004e 626A     		ldr	r2, [r4, #36]
 320              		.loc 1 408 0
 321 0050 E369     		ldr	r3, [r4, #28]
 322 0052 0868     		ldr	r0, [r1]
 323              		.loc 1 409 0
 324 0054 1168     		ldr	r1, [r2]
 325              		.loc 1 408 0
 326 0056 03F10C02 		add	r2, r3, #12
 327 005a 8260     		str	r2, [r0, #8]
 328              		.loc 1 409 0
 329 005c 8A60     		str	r2, [r1, #8]
 330 005e D5E7     		b	.L25
 331              	.LVL17:
 332              	.L40:
 333              	.LBB5:
 334              		.loc 1 329 0
 335 0060 006A     		ldr	r0, [r0, #32]
 336              	.LVL18:
 337 0062 0E4A     		ldr	r2, .L43+4
 338 0064 0A21     		movs	r1, #10
 339 0066 2346     		mov	r3, r4
ARM GAS  /tmp/ccPJkY7a.s 			page 7


 340 0068 FFF7FEFF 		bl	dmaStreamAllocate
 341              	.LVL19:
 342              		.loc 1 333 0
 343 006c 60B9     		cbnz	r0, .L41
 344              	.LVL20:
 345              	.L27:
 346              		.loc 1 334 0
 347 006e 686A     		ldr	r0, [r5, #36]
 348 0070 0B4A     		ldr	r2, .L43+8
 349 0072 094B     		ldr	r3, .L43
 350 0074 0A21     		movs	r1, #10
 351 0076 FFF7FEFF 		bl	dmaStreamAllocate
 352              	.LVL21:
 353              		.loc 1 338 0
 354 007a 48B9     		cbnz	r0, .L42
 355              	.LVL22:
 356              	.L28:
 357              		.loc 1 339 0
 358 007c 094B     		ldr	r3, .L43+12
 359 007e 1A6C     		ldr	r2, [r3, #64]
 360 0080 42F48042 		orr	r2, r2, #16384
 361 0084 1A64     		str	r2, [r3, #64]
 362 0086 E1E7     		b	.L26
 363              	.LVL23:
 364              	.L41:
 365              		.loc 1 333 0 discriminator 1
 366 0088 0748     		ldr	r0, .L43+16
 367              	.LVL24:
 368 008a FFF7FEFF 		bl	chDbgPanic
 369              	.LVL25:
 370 008e EEE7     		b	.L27
 371              	.LVL26:
 372              	.L42:
 373              		.loc 1 338 0 discriminator 1
 374 0090 0648     		ldr	r0, .L43+20
 375              	.LVL27:
 376 0092 FFF7FEFF 		bl	chDbgPanic
 377              	.LVL28:
 378 0096 F1E7     		b	.L28
 379              	.L44:
 380              		.align	2
 381              	.L43:
 382 0098 00000000 		.word	.LANCHOR1
 383 009c 00000000 		.word	spi_lld_serve_rx_interrupt
 384 00a0 00000000 		.word	spi_lld_serve_tx_interrupt
 385 00a4 00380240 		.word	1073887232
 386 00a8 00000000 		.word	.LC0
 387 00ac 14000000 		.word	.LC1
 388              	.LBE5:
 389              		.cfi_endproc
 390              	.LFE121:
 391              		.size	spi_lld_start, .-spi_lld_start
 392              		.section	.text.spi_lld_stop,"ax",%progbits
 393              		.align	2
 394              		.p2align 4,,15
 395              		.global	spi_lld_stop
 396              		.thumb
ARM GAS  /tmp/ccPJkY7a.s 			page 8


 397              		.thumb_func
 398              		.type	spi_lld_stop, %function
 399              	spi_lld_stop:
 400              	.LFB122:
 401              		.loc 1 442 0
 402              		.cfi_startproc
 403              		@ args = 0, pretend = 0, frame = 0
 404              		@ frame_needed = 0, uses_anonymous_args = 0
 405              	.LVL29:
 406              		.loc 1 445 0
 407 0000 0378     		ldrb	r3, [r0]	@ zero_extendqisi2
 408 0002 022B     		cmp	r3, #2
 409              		.loc 1 442 0
 410 0004 10B5     		push	{r4, lr}
 411              		.cfi_def_cfa_offset 8
 412              		.cfi_offset 4, -8
 413              		.cfi_offset 14, -4
 414              		.loc 1 442 0
 415 0006 0446     		mov	r4, r0
 416              		.loc 1 445 0
 417 0008 00D0     		beq	.L49
 418              	.LVL30:
 419              	.L45:
 420 000a 10BD     		pop	{r4, pc}
 421              	.LVL31:
 422              	.L49:
 423              		.loc 1 448 0
 424 000c C369     		ldr	r3, [r0, #28]
 425              		.loc 1 450 0
 426 000e 006A     		ldr	r0, [r0, #32]
 427              	.LVL32:
 428              		.loc 1 448 0
 429 0010 0022     		movs	r2, #0
 430 0012 1A80     		strh	r2, [r3]	@ movhi
 431              		.loc 1 449 0
 432 0014 9A80     		strh	r2, [r3, #4]	@ movhi
 433              		.loc 1 450 0
 434 0016 FFF7FEFF 		bl	dmaStreamRelease
 435              	.LVL33:
 436              		.loc 1 451 0
 437 001a 606A     		ldr	r0, [r4, #36]
 438 001c FFF7FEFF 		bl	dmaStreamRelease
 439              	.LVL34:
 440              		.loc 1 458 0
 441 0020 044B     		ldr	r3, .L50
 442 0022 9C42     		cmp	r4, r3
 443 0024 F1D1     		bne	.L45
 444              		.loc 1 459 0
 445 0026 044B     		ldr	r3, .L50+4
 446 0028 1A6C     		ldr	r2, [r3, #64]
 447 002a 22F48042 		bic	r2, r2, #16384
 448 002e 1A64     		str	r2, [r3, #64]
 449 0030 EBE7     		b	.L45
 450              	.L51:
 451 0032 00BF     		.align	2
 452              	.L50:
 453 0034 00000000 		.word	.LANCHOR1
ARM GAS  /tmp/ccPJkY7a.s 			page 9


 454 0038 00380240 		.word	1073887232
 455              		.cfi_endproc
 456              	.LFE122:
 457              		.size	spi_lld_stop, .-spi_lld_stop
 458 003c AFF30080 		.section	.text.spi_lld_select,"ax",%progbits
 459              		.align	2
 460              		.p2align 4,,15
 461              		.global	spi_lld_select
 462              		.thumb
 463              		.thumb_func
 464              		.type	spi_lld_select, %function
 465              	spi_lld_select:
 466              	.LFB123:
 467              		.loc 1 487 0
 468              		.cfi_startproc
 469              		@ args = 0, pretend = 0, frame = 0
 470              		@ frame_needed = 0, uses_anonymous_args = 0
 471              		@ link register save eliminated.
 472              	.LVL35:
 473              		.loc 1 489 0
 474 0000 4368     		ldr	r3, [r0, #4]
 475 0002 1A89     		ldrh	r2, [r3, #8]
 476 0004 5B68     		ldr	r3, [r3, #4]
 477 0006 0121     		movs	r1, #1
 478 0008 01FA02F2 		lsl	r2, r1, r2
 479 000c 92B2     		uxth	r2, r2
 480 000e 5A83     		strh	r2, [r3, #26]	@ movhi
 481 0010 7047     		bx	lr
 482              		.cfi_endproc
 483              	.LFE123:
 484              		.size	spi_lld_select, .-spi_lld_select
 485 0012 00BFAFF3 		.section	.text.spi_lld_unselect,"ax",%progbits
 485      0080AFF3 
 485      0080AFF3 
 485      0080
 486              		.align	2
 487              		.p2align 4,,15
 488              		.global	spi_lld_unselect
 489              		.thumb
 490              		.thumb_func
 491              		.type	spi_lld_unselect, %function
 492              	spi_lld_unselect:
 493              	.LFB124:
 494              		.loc 1 500 0
 495              		.cfi_startproc
 496              		@ args = 0, pretend = 0, frame = 0
 497              		@ frame_needed = 0, uses_anonymous_args = 0
 498              		@ link register save eliminated.
 499              	.LVL36:
 500              		.loc 1 502 0
 501 0000 4368     		ldr	r3, [r0, #4]
 502 0002 1A89     		ldrh	r2, [r3, #8]
 503 0004 5B68     		ldr	r3, [r3, #4]
 504 0006 0121     		movs	r1, #1
 505 0008 01FA02F2 		lsl	r2, r1, r2
 506 000c 92B2     		uxth	r2, r2
 507 000e 1A83     		strh	r2, [r3, #24]	@ movhi
ARM GAS  /tmp/ccPJkY7a.s 			page 10


 508 0010 7047     		bx	lr
 509              		.cfi_endproc
 510              	.LFE124:
 511              		.size	spi_lld_unselect, .-spi_lld_unselect
 512 0012 00BFAFF3 		.section	.text.spi_lld_ignore,"ax",%progbits
 512      0080AFF3 
 512      0080AFF3 
 512      0080
 513              		.align	2
 514              		.p2align 4,,15
 515              		.global	spi_lld_ignore
 516              		.thumb
 517              		.thumb_func
 518              		.type	spi_lld_ignore, %function
 519              	spi_lld_ignore:
 520              	.LFB125:
 521              		.loc 1 516 0
 522              		.cfi_startproc
 523              		@ args = 0, pretend = 0, frame = 0
 524              		@ frame_needed = 0, uses_anonymous_args = 0
 525              		@ link register save eliminated.
 526              	.LVL37:
 527              		.loc 1 518 0
 528 0000 026A     		ldr	r2, [r0, #32]
 529              		.loc 1 522 0
 530 0002 436A     		ldr	r3, [r0, #36]
 531              		.loc 1 518 0
 532 0004 1268     		ldr	r2, [r2]
 533              		.loc 1 522 0
 534 0006 1B68     		ldr	r3, [r3]
 535              		.loc 1 516 0
 536 0008 70B4     		push	{r4, r5, r6}
 537              		.cfi_def_cfa_offset 12
 538              		.cfi_offset 4, -12
 539              		.cfi_offset 5, -8
 540              		.cfi_offset 6, -4
 541              		.loc 1 520 0
 542 000a 856A     		ldr	r5, [r0, #40]
 543              		.loc 1 518 0
 544 000c 094E     		ldr	r6, .L55
 545              		.loc 1 524 0
 546 000e C06A     		ldr	r0, [r0, #44]
 547              	.LVL38:
 548              		.loc 1 522 0
 549 0010 094C     		ldr	r4, .L55+4
 550              		.loc 1 518 0
 551 0012 D660     		str	r6, [r2, #12]
 552              		.loc 1 519 0
 553 0014 5160     		str	r1, [r2, #4]
 554              		.loc 1 520 0
 555 0016 1560     		str	r5, [r2]
 556              		.loc 1 522 0
 557 0018 DC60     		str	r4, [r3, #12]
 558              		.loc 1 523 0
 559 001a 5960     		str	r1, [r3, #4]
 560              		.loc 1 524 0
 561 001c 1860     		str	r0, [r3]
ARM GAS  /tmp/ccPJkY7a.s 			page 11


 562              		.loc 1 526 0
 563 001e 1168     		ldr	r1, [r2]
 564              	.LVL39:
 565 0020 41F00101 		orr	r1, r1, #1
 566 0024 1160     		str	r1, [r2]
 567              		.loc 1 527 0
 568 0026 1A68     		ldr	r2, [r3]
 569 0028 42F00102 		orr	r2, r2, #1
 570 002c 1A60     		str	r2, [r3]
 571              		.loc 1 528 0
 572 002e 70BC     		pop	{r4, r5, r6}
 573 0030 7047     		bx	lr
 574              	.L56:
 575 0032 00BF     		.align	2
 576              	.L55:
 577 0034 00000000 		.word	.LANCHOR2
 578 0038 00000000 		.word	.LANCHOR0
 579              		.cfi_endproc
 580              	.LFE125:
 581              		.size	spi_lld_ignore, .-spi_lld_ignore
 582 003c AFF30080 		.section	.text.spi_lld_exchange,"ax",%progbits
 583              		.align	2
 584              		.p2align 4,,15
 585              		.global	spi_lld_exchange
 586              		.thumb
 587              		.thumb_func
 588              		.type	spi_lld_exchange, %function
 589              	spi_lld_exchange:
 590              	.LFB126:
 591              		.loc 1 546 0
 592              		.cfi_startproc
 593              		@ args = 0, pretend = 0, frame = 0
 594              		@ frame_needed = 0, uses_anonymous_args = 0
 595              		@ link register save eliminated.
 596              	.LVL40:
 597 0000 F0B4     		push	{r4, r5, r6, r7}
 598              		.cfi_def_cfa_offset 16
 599              		.cfi_offset 4, -16
 600              		.cfi_offset 5, -12
 601              		.cfi_offset 6, -8
 602              		.cfi_offset 7, -4
 603              		.loc 1 548 0
 604 0002 046A     		ldr	r4, [r0, #32]
 605              		.loc 1 552 0
 606 0004 476A     		ldr	r7, [r0, #36]
 607              		.loc 1 550 0
 608 0006 866A     		ldr	r6, [r0, #40]
 609              		.loc 1 554 0
 610 0008 C56A     		ldr	r5, [r0, #44]
 611              		.loc 1 548 0
 612 000a 2468     		ldr	r4, [r4]
 613              		.loc 1 552 0
 614 000c 3868     		ldr	r0, [r7]
 615              	.LVL41:
 616              		.loc 1 548 0
 617 000e E360     		str	r3, [r4, #12]
 618              		.loc 1 550 0
ARM GAS  /tmp/ccPJkY7a.s 			page 12


 619 0010 46F48066 		orr	r6, r6, #1024
 620              		.loc 1 554 0
 621 0014 45F48065 		orr	r5, r5, #1024
 622              		.loc 1 549 0
 623 0018 6160     		str	r1, [r4, #4]
 624              		.loc 1 550 0
 625 001a 2660     		str	r6, [r4]
 626              		.loc 1 552 0
 627 001c C260     		str	r2, [r0, #12]
 628              		.loc 1 553 0
 629 001e 4160     		str	r1, [r0, #4]
 630              		.loc 1 554 0
 631 0020 0560     		str	r5, [r0]
 632              		.loc 1 556 0
 633 0022 2368     		ldr	r3, [r4]
 634              	.LVL42:
 635 0024 43F00103 		orr	r3, r3, #1
 636 0028 2360     		str	r3, [r4]
 637              		.loc 1 557 0
 638 002a 0368     		ldr	r3, [r0]
 639 002c 43F00103 		orr	r3, r3, #1
 640 0030 0360     		str	r3, [r0]
 641              		.loc 1 558 0
 642 0032 F0BC     		pop	{r4, r5, r6, r7}
 643 0034 7047     		bx	lr
 644              		.cfi_endproc
 645              	.LFE126:
 646              		.size	spi_lld_exchange, .-spi_lld_exchange
 647 0036 00BFAFF3 		.section	.text.spi_lld_send,"ax",%progbits
 647      0080AFF3 
 647      0080
 648              		.align	2
 649              		.p2align 4,,15
 650              		.global	spi_lld_send
 651              		.thumb
 652              		.thumb_func
 653              		.type	spi_lld_send, %function
 654              	spi_lld_send:
 655              	.LFB127:
 656              		.loc 1 573 0
 657              		.cfi_startproc
 658              		@ args = 0, pretend = 0, frame = 0
 659              		@ frame_needed = 0, uses_anonymous_args = 0
 660              		@ link register save eliminated.
 661              	.LVL43:
 662 0000 70B4     		push	{r4, r5, r6}
 663              		.cfi_def_cfa_offset 12
 664              		.cfi_offset 4, -12
 665              		.cfi_offset 5, -8
 666              		.cfi_offset 6, -4
 667              		.loc 1 579 0
 668 0002 436A     		ldr	r3, [r0, #36]
 669              		.loc 1 575 0
 670 0004 046A     		ldr	r4, [r0, #32]
 671              		.loc 1 581 0
 672 0006 C56A     		ldr	r5, [r0, #44]
 673              		.loc 1 575 0
ARM GAS  /tmp/ccPJkY7a.s 			page 13


 674 0008 2468     		ldr	r4, [r4]
 675              		.loc 1 579 0
 676 000a 1B68     		ldr	r3, [r3]
 677              		.loc 1 577 0
 678 000c 806A     		ldr	r0, [r0, #40]
 679              	.LVL44:
 680              		.loc 1 575 0
 681 000e 094E     		ldr	r6, .L59
 682 0010 E660     		str	r6, [r4, #12]
 683              		.loc 1 581 0
 684 0012 45F48065 		orr	r5, r5, #1024
 685              		.loc 1 576 0
 686 0016 6160     		str	r1, [r4, #4]
 687              		.loc 1 577 0
 688 0018 2060     		str	r0, [r4]
 689              		.loc 1 579 0
 690 001a DA60     		str	r2, [r3, #12]
 691              		.loc 1 580 0
 692 001c 5960     		str	r1, [r3, #4]
 693              		.loc 1 581 0
 694 001e 1D60     		str	r5, [r3]
 695              		.loc 1 583 0
 696 0020 2268     		ldr	r2, [r4]
 697              	.LVL45:
 698 0022 42F00102 		orr	r2, r2, #1
 699 0026 2260     		str	r2, [r4]
 700              		.loc 1 584 0
 701 0028 1A68     		ldr	r2, [r3]
 702 002a 42F00102 		orr	r2, r2, #1
 703 002e 1A60     		str	r2, [r3]
 704              		.loc 1 585 0
 705 0030 70BC     		pop	{r4, r5, r6}
 706 0032 7047     		bx	lr
 707              	.L60:
 708              		.align	2
 709              	.L59:
 710 0034 00000000 		.word	.LANCHOR2
 711              		.cfi_endproc
 712              	.LFE127:
 713              		.size	spi_lld_send, .-spi_lld_send
 714 0038 AFF30080 		.section	.text.spi_lld_receive,"ax",%progbits
 714      AFF30080 
 715              		.align	2
 716              		.p2align 4,,15
 717              		.global	spi_lld_receive
 718              		.thumb
 719              		.thumb_func
 720              		.type	spi_lld_receive, %function
 721              	spi_lld_receive:
 722              	.LFB128:
 723              		.loc 1 600 0
 724              		.cfi_startproc
 725              		@ args = 0, pretend = 0, frame = 0
 726              		@ frame_needed = 0, uses_anonymous_args = 0
 727              		@ link register save eliminated.
 728              	.LVL46:
 729 0000 70B4     		push	{r4, r5, r6}
ARM GAS  /tmp/ccPJkY7a.s 			page 14


 730              		.cfi_def_cfa_offset 12
 731              		.cfi_offset 4, -12
 732              		.cfi_offset 5, -8
 733              		.cfi_offset 6, -4
 734              		.loc 1 606 0
 735 0002 436A     		ldr	r3, [r0, #36]
 736              		.loc 1 602 0
 737 0004 046A     		ldr	r4, [r0, #32]
 738              		.loc 1 604 0
 739 0006 866A     		ldr	r6, [r0, #40]
 740              		.loc 1 602 0
 741 0008 2468     		ldr	r4, [r4]
 742              		.loc 1 606 0
 743 000a 1B68     		ldr	r3, [r3]
 744              		.loc 1 608 0
 745 000c C06A     		ldr	r0, [r0, #44]
 746              	.LVL47:
 747              		.loc 1 606 0
 748 000e 094D     		ldr	r5, .L62
 749              		.loc 1 602 0
 750 0010 E260     		str	r2, [r4, #12]
 751              		.loc 1 604 0
 752 0012 46F48066 		orr	r6, r6, #1024
 753              		.loc 1 603 0
 754 0016 6160     		str	r1, [r4, #4]
 755              		.loc 1 604 0
 756 0018 2660     		str	r6, [r4]
 757              		.loc 1 606 0
 758 001a DD60     		str	r5, [r3, #12]
 759              		.loc 1 607 0
 760 001c 5960     		str	r1, [r3, #4]
 761              		.loc 1 608 0
 762 001e 1860     		str	r0, [r3]
 763              		.loc 1 610 0
 764 0020 2268     		ldr	r2, [r4]
 765              	.LVL48:
 766 0022 42F00102 		orr	r2, r2, #1
 767 0026 2260     		str	r2, [r4]
 768              		.loc 1 611 0
 769 0028 1A68     		ldr	r2, [r3]
 770 002a 42F00102 		orr	r2, r2, #1
 771 002e 1A60     		str	r2, [r3]
 772              		.loc 1 612 0
 773 0030 70BC     		pop	{r4, r5, r6}
 774 0032 7047     		bx	lr
 775              	.L63:
 776              		.align	2
 777              	.L62:
 778 0034 00000000 		.word	.LANCHOR0
 779              		.cfi_endproc
 780              	.LFE128:
 781              		.size	spi_lld_receive, .-spi_lld_receive
 782 0038 AFF30080 		.section	.text.spi_lld_polled_exchange,"ax",%progbits
 782      AFF30080 
 783              		.align	2
 784              		.p2align 4,,15
 785              		.global	spi_lld_polled_exchange
ARM GAS  /tmp/ccPJkY7a.s 			page 15


 786              		.thumb
 787              		.thumb_func
 788              		.type	spi_lld_polled_exchange, %function
 789              	spi_lld_polled_exchange:
 790              	.LFB129:
 791              		.loc 1 626 0
 792              		.cfi_startproc
 793              		@ args = 0, pretend = 0, frame = 0
 794              		@ frame_needed = 0, uses_anonymous_args = 0
 795              		@ link register save eliminated.
 796              	.LVL49:
 797              		.loc 1 628 0
 798 0000 C269     		ldr	r2, [r0, #28]
 799 0002 9181     		strh	r1, [r2, #12]	@ movhi
 800              	.L66:
 801              		.loc 1 629 0 discriminator 1
 802 0004 1389     		ldrh	r3, [r2, #8]
 803 0006 DB07     		lsls	r3, r3, #31
 804 0008 FCD5     		bpl	.L66
 805              		.loc 1 631 0
 806 000a 9089     		ldrh	r0, [r2, #12]
 807              	.LVL50:
 808              		.loc 1 632 0
 809 000c 80B2     		uxth	r0, r0
 810 000e 7047     		bx	lr
 811              		.cfi_endproc
 812              	.LFE129:
 813              		.size	spi_lld_polled_exchange, .-spi_lld_polled_exchange
 814              		.global	SPID2
 815              		.section	.bss.dummytx,"aw",%nobits
 816              		.align	1
 817              		.set	.LANCHOR0,. + 0
 818              		.type	dummytx, %object
 819              		.size	dummytx, 2
 820              	dummytx:
 821 0000 0000     		.space	2
 822              		.section	.bss.SPID2,"aw",%nobits
 823              		.align	2
 824              		.set	.LANCHOR1,. + 0
 825              		.type	SPID2, %object
 826              		.size	SPID2, 48
 827              	SPID2:
 828 0000 00000000 		.space	48
 828      00000000 
 828      00000000 
 828      00000000 
 828      00000000 
 829              		.section	.rodata.str1.4,"aMS",%progbits,1
 830              		.align	2
 831              	.LC0:
 832 0000 7370695F 		.ascii	"spi_lld_start(), #3\000"
 832      6C6C645F 
 832      73746172 
 832      7428292C 
 832      20233300 
 833              	.LC1:
 834 0014 7370695F 		.ascii	"spi_lld_start(), #4\000"
ARM GAS  /tmp/ccPJkY7a.s 			page 16


 834      6C6C645F 
 834      73746172 
 834      7428292C 
 834      20233400 
 835              		.section	.bss.dummyrx,"aw",%nobits
 836              		.align	1
 837              		.set	.LANCHOR2,. + 0
 838              		.type	dummyrx, %object
 839              		.size	dummyrx, 2
 840              	dummyrx:
 841 0000 0000     		.space	2
 842              		.text
 843              	.Letext0:
 844              		.file 2 "/opt/ARM/lib/gcc/arm-none-eabi/4.8.4/include/stddef.h"
 845              		.file 3 "/opt/ARM/arm-none-eabi/include/machine/_default_types.h"
 846              		.file 4 "/opt/ARM/arm-none-eabi/include/stdint.h"
 847              		.file 5 "../../os/ports/GCC/ARMCMx/chtypes.h"
 848              		.file 6 "../../os/kernel/include/chlists.h"
 849              		.file 7 "../../os/kernel/include/chthreads.h"
 850              		.file 8 "../../os/ports/GCC/ARMCMx/chcore_v7m.h"
 851              		.file 9 "../../os/kernel/include/chmtx.h"
 852              		.file 10 "../../os/hal/platforms/STM32F4xx/stm32f4xx.h"
 853              		.file 11 "../../os/hal/platforms/STM32F4xx/stm32_dma.h"
 854              		.file 12 "../../os/hal/platforms/STM32/GPIOv2/pal_lld.h"
 855              		.file 13 "../../os/hal/include/spi.h"
 856              		.file 14 "../../os/hal/platforms/STM32/SPIv1/spi_lld.h"
 857              		.file 15 "../../os/ports/common/ARMCMx/CMSIS/include/core_cm4.h"
 858              		.file 16 "../../os/kernel/include/chdebug.h"
 859              		.file 17 "../../os/kernel/include/chschd.h"
 860              		.section	.debug_info,"",%progbits
 861              	.Ldebug_info0:
 862 0000 360F0000 		.4byte	0xf36
 863 0004 0400     		.2byte	0x4
 864 0006 00000000 		.4byte	.Ldebug_abbrev0
 865 000a 04       		.byte	0x4
 866 000b 01       		.uleb128 0x1
 867 000c B0060000 		.4byte	.LASF176
 868 0010 01       		.byte	0x1
 869 0011 00000000 		.4byte	.LASF177
 870 0015 1A060000 		.4byte	.LASF178
 871 0019 00000000 		.4byte	.Ldebug_ranges0+0
 872 001d 00000000 		.4byte	0
 873 0021 00000000 		.4byte	.Ldebug_line0
 874 0025 02       		.uleb128 0x2
 875 0026 04       		.byte	0x4
 876 0027 05       		.byte	0x5
 877 0028 696E7400 		.ascii	"int\000"
 878 002c 03       		.uleb128 0x3
 879 002d 32000000 		.4byte	.LASF2
 880 0031 02       		.byte	0x2
 881 0032 D4       		.byte	0xd4
 882 0033 37000000 		.4byte	0x37
 883 0037 04       		.uleb128 0x4
 884 0038 04       		.byte	0x4
 885 0039 07       		.byte	0x7
 886 003a 50020000 		.4byte	.LASF0
 887 003e 04       		.uleb128 0x4
ARM GAS  /tmp/ccPJkY7a.s 			page 17


 888 003f 01       		.byte	0x1
 889 0040 06       		.byte	0x6
 890 0041 1F010000 		.4byte	.LASF1
 891 0045 03       		.uleb128 0x3
 892 0046 63000000 		.4byte	.LASF3
 893 004a 03       		.byte	0x3
 894 004b 1C       		.byte	0x1c
 895 004c 50000000 		.4byte	0x50
 896 0050 04       		.uleb128 0x4
 897 0051 01       		.byte	0x1
 898 0052 08       		.byte	0x8
 899 0053 5C040000 		.4byte	.LASF4
 900 0057 04       		.uleb128 0x4
 901 0058 02       		.byte	0x2
 902 0059 05       		.byte	0x5
 903 005a 9D040000 		.4byte	.LASF5
 904 005e 03       		.uleb128 0x3
 905 005f 7A050000 		.4byte	.LASF6
 906 0063 03       		.byte	0x3
 907 0064 26       		.byte	0x26
 908 0065 69000000 		.4byte	0x69
 909 0069 04       		.uleb128 0x4
 910 006a 02       		.byte	0x2
 911 006b 07       		.byte	0x7
 912 006c C2020000 		.4byte	.LASF7
 913 0070 03       		.uleb128 0x3
 914 0071 B5050000 		.4byte	.LASF8
 915 0075 03       		.byte	0x3
 916 0076 37       		.byte	0x37
 917 0077 7B000000 		.4byte	0x7b
 918 007b 04       		.uleb128 0x4
 919 007c 04       		.byte	0x4
 920 007d 05       		.byte	0x5
 921 007e 6F010000 		.4byte	.LASF9
 922 0082 03       		.uleb128 0x3
 923 0083 FA010000 		.4byte	.LASF10
 924 0087 03       		.byte	0x3
 925 0088 38       		.byte	0x38
 926 0089 8D000000 		.4byte	0x8d
 927 008d 04       		.uleb128 0x4
 928 008e 04       		.byte	0x4
 929 008f 07       		.byte	0x7
 930 0090 27050000 		.4byte	.LASF11
 931 0094 04       		.uleb128 0x4
 932 0095 08       		.byte	0x8
 933 0096 05       		.byte	0x5
 934 0097 11010000 		.4byte	.LASF12
 935 009b 03       		.uleb128 0x3
 936 009c BB030000 		.4byte	.LASF13
 937 00a0 03       		.byte	0x3
 938 00a1 4E       		.byte	0x4e
 939 00a2 A6000000 		.4byte	0xa6
 940 00a6 04       		.uleb128 0x4
 941 00a7 08       		.byte	0x8
 942 00a8 07       		.byte	0x7
 943 00a9 8B000000 		.4byte	.LASF14
 944 00ad 03       		.uleb128 0x3
ARM GAS  /tmp/ccPJkY7a.s 			page 18


 945 00ae A3060000 		.4byte	.LASF15
 946 00b2 04       		.byte	0x4
 947 00b3 2A       		.byte	0x2a
 948 00b4 45000000 		.4byte	0x45
 949 00b8 03       		.uleb128 0x3
 950 00b9 FE020000 		.4byte	.LASF16
 951 00bd 04       		.byte	0x4
 952 00be 36       		.byte	0x36
 953 00bf 5E000000 		.4byte	0x5e
 954 00c3 03       		.uleb128 0x3
 955 00c4 54040000 		.4byte	.LASF17
 956 00c8 04       		.byte	0x4
 957 00c9 41       		.byte	0x41
 958 00ca 70000000 		.4byte	0x70
 959 00ce 03       		.uleb128 0x3
 960 00cf 0A050000 		.4byte	.LASF18
 961 00d3 04       		.byte	0x4
 962 00d4 42       		.byte	0x42
 963 00d5 82000000 		.4byte	0x82
 964 00d9 03       		.uleb128 0x3
 965 00da 4C000000 		.4byte	.LASF19
 966 00de 04       		.byte	0x4
 967 00df 4E       		.byte	0x4e
 968 00e0 9B000000 		.4byte	0x9b
 969 00e4 03       		.uleb128 0x3
 970 00e5 4A010000 		.4byte	.LASF20
 971 00e9 05       		.byte	0x5
 972 00ea 2B       		.byte	0x2b
 973 00eb EF000000 		.4byte	0xef
 974 00ef 04       		.uleb128 0x4
 975 00f0 01       		.byte	0x1
 976 00f1 02       		.byte	0x2
 977 00f2 4E040000 		.4byte	.LASF21
 978 00f6 03       		.uleb128 0x3
 979 00f7 F6020000 		.4byte	.LASF22
 980 00fb 05       		.byte	0x5
 981 00fc 2C       		.byte	0x2c
 982 00fd AD000000 		.4byte	0xad
 983 0101 03       		.uleb128 0x3
 984 0102 A6010000 		.4byte	.LASF23
 985 0106 05       		.byte	0x5
 986 0107 2D       		.byte	0x2d
 987 0108 AD000000 		.4byte	0xad
 988 010c 03       		.uleb128 0x3
 989 010d E1030000 		.4byte	.LASF24
 990 0111 05       		.byte	0x5
 991 0112 2E       		.byte	0x2e
 992 0113 AD000000 		.4byte	0xad
 993 0117 03       		.uleb128 0x3
 994 0118 59010000 		.4byte	.LASF25
 995 011c 05       		.byte	0x5
 996 011d 2F       		.byte	0x2f
 997 011e AD000000 		.4byte	0xad
 998 0122 03       		.uleb128 0x3
 999 0123 40040000 		.4byte	.LASF26
 1000 0127 05       		.byte	0x5
 1001 0128 30       		.byte	0x30
ARM GAS  /tmp/ccPJkY7a.s 			page 19


 1002 0129 CE000000 		.4byte	0xce
 1003 012d 03       		.uleb128 0x3
 1004 012e E0020000 		.4byte	.LASF27
 1005 0132 05       		.byte	0x5
 1006 0133 31       		.byte	0x31
 1007 0134 C3000000 		.4byte	0xc3
 1008 0138 03       		.uleb128 0x3
 1009 0139 18030000 		.4byte	.LASF28
 1010 013d 05       		.byte	0x5
 1011 013e 33       		.byte	0x33
 1012 013f CE000000 		.4byte	0xce
 1013 0143 03       		.uleb128 0x3
 1014 0144 A0050000 		.4byte	.LASF29
 1015 0148 05       		.byte	0x5
 1016 0149 35       		.byte	0x35
 1017 014a CE000000 		.4byte	0xce
 1018 014e 03       		.uleb128 0x3
 1019 014f E9040000 		.4byte	.LASF30
 1020 0153 06       		.byte	0x6
 1021 0154 2A       		.byte	0x2a
 1022 0155 59010000 		.4byte	0x159
 1023 0159 05       		.uleb128 0x5
 1024 015a E9040000 		.4byte	.LASF30
 1025 015e 4C       		.byte	0x4c
 1026 015f 07       		.byte	0x7
 1027 0160 5E       		.byte	0x5e
 1028 0161 62020000 		.4byte	0x262
 1029 0165 06       		.uleb128 0x6
 1030 0166 78030000 		.4byte	.LASF31
 1031 016a 07       		.byte	0x7
 1032 016b 5F       		.byte	0x5f
 1033 016c 83020000 		.4byte	0x283
 1034 0170 00       		.byte	0
 1035 0171 06       		.uleb128 0x6
 1036 0172 1B040000 		.4byte	.LASF32
 1037 0176 07       		.byte	0x7
 1038 0177 61       		.byte	0x61
 1039 0178 83020000 		.4byte	0x283
 1040 017c 04       		.byte	0x4
 1041 017d 06       		.uleb128 0x6
 1042 017e FC000000 		.4byte	.LASF33
 1043 0182 07       		.byte	0x7
 1044 0183 63       		.byte	0x63
 1045 0184 22010000 		.4byte	0x122
 1046 0188 08       		.byte	0x8
 1047 0189 06       		.uleb128 0x6
 1048 018a 5A080000 		.4byte	.LASF34
 1049 018e 07       		.byte	0x7
 1050 018f 64       		.byte	0x64
 1051 0190 18040000 		.4byte	0x418
 1052 0194 0C       		.byte	0xc
 1053 0195 06       		.uleb128 0x6
 1054 0196 BB010000 		.4byte	.LASF35
 1055 019a 07       		.byte	0x7
 1056 019b 66       		.byte	0x66
 1057 019c 83020000 		.4byte	0x283
 1058 01a0 10       		.byte	0x10
ARM GAS  /tmp/ccPJkY7a.s 			page 20


 1059 01a1 06       		.uleb128 0x6
 1060 01a2 8C030000 		.4byte	.LASF36
 1061 01a6 07       		.byte	0x7
 1062 01a7 67       		.byte	0x67
 1063 01a8 83020000 		.4byte	0x283
 1064 01ac 14       		.byte	0x14
 1065 01ad 06       		.uleb128 0x6
 1066 01ae 09080000 		.4byte	.LASF37
 1067 01b2 07       		.byte	0x7
 1068 01b3 6E       		.byte	0x6e
 1069 01b4 C1040000 		.4byte	0x4c1
 1070 01b8 18       		.byte	0x18
 1071 01b9 06       		.uleb128 0x6
 1072 01ba 45020000 		.4byte	.LASF38
 1073 01be 07       		.byte	0x7
 1074 01bf 74       		.byte	0x74
 1075 01c0 D3040000 		.4byte	0x4d3
 1076 01c4 1C       		.byte	0x1c
 1077 01c5 06       		.uleb128 0x6
 1078 01c6 8B040000 		.4byte	.LASF39
 1079 01ca 07       		.byte	0x7
 1080 01cb 79       		.byte	0x79
 1081 01cc 01010000 		.4byte	0x101
 1082 01d0 20       		.byte	0x20
 1083 01d1 06       		.uleb128 0x6
 1084 01d2 D0040000 		.4byte	.LASF40
 1085 01d6 07       		.byte	0x7
 1086 01d7 7D       		.byte	0x7d
 1087 01d8 F6000000 		.4byte	0xf6
 1088 01dc 21       		.byte	0x21
 1089 01dd 06       		.uleb128 0x6
 1090 01de AB030000 		.4byte	.LASF41
 1091 01e2 07       		.byte	0x7
 1092 01e3 82       		.byte	0x82
 1093 01e4 0C010000 		.4byte	0x10c
 1094 01e8 22       		.byte	0x22
 1095 01e9 06       		.uleb128 0x6
 1096 01ea A7040000 		.4byte	.LASF42
 1097 01ee 07       		.byte	0x7
 1098 01ef 88       		.byte	0x88
 1099 01f0 17010000 		.4byte	0x117
 1100 01f4 23       		.byte	0x23
 1101 01f5 06       		.uleb128 0x6
 1102 01f6 79020000 		.4byte	.LASF43
 1103 01fa 07       		.byte	0x7
 1104 01fb 8F       		.byte	0x8f
 1105 01fc 45040000 		.4byte	0x445
 1106 0200 24       		.byte	0x24
 1107 0201 07       		.uleb128 0x7
 1108 0202 705F7500 		.ascii	"p_u\000"
 1109 0206 07       		.byte	0x7
 1110 0207 B4       		.byte	0xb4
 1111 0208 8C040000 		.4byte	0x48c
 1112 020c 28       		.byte	0x28
 1113 020d 06       		.uleb128 0x6
 1114 020e 60080000 		.4byte	.LASF44
 1115 0212 07       		.byte	0x7
ARM GAS  /tmp/ccPJkY7a.s 			page 21


 1116 0213 B9       		.byte	0xb9
 1117 0214 A9020000 		.4byte	0x2a9
 1118 0218 2C       		.byte	0x2c
 1119 0219 06       		.uleb128 0x6
 1120 021a 8F020000 		.4byte	.LASF45
 1121 021e 07       		.byte	0x7
 1122 021f BF       		.byte	0xbf
 1123 0220 89020000 		.4byte	0x289
 1124 0224 30       		.byte	0x30
 1125 0225 06       		.uleb128 0x6
 1126 0226 3A080000 		.4byte	.LASF46
 1127 022a 07       		.byte	0x7
 1128 022b C3       		.byte	0xc3
 1129 022c 2D010000 		.4byte	0x12d
 1130 0230 38       		.byte	0x38
 1131 0231 06       		.uleb128 0x6
 1132 0232 F0040000 		.4byte	.LASF47
 1133 0236 07       		.byte	0x7
 1134 0237 C9       		.byte	0xc9
 1135 0238 38010000 		.4byte	0x138
 1136 023c 3C       		.byte	0x3c
 1137 023d 06       		.uleb128 0x6
 1138 023e 93040000 		.4byte	.LASF48
 1139 0242 07       		.byte	0x7
 1140 0243 D0       		.byte	0xd0
 1141 0244 D9040000 		.4byte	0x4d9
 1142 0248 40       		.byte	0x40
 1143 0249 06       		.uleb128 0x6
 1144 024a AA050000 		.4byte	.LASF49
 1145 024e 07       		.byte	0x7
 1146 024f D4       		.byte	0xd4
 1147 0250 22010000 		.4byte	0x122
 1148 0254 44       		.byte	0x44
 1149 0255 06       		.uleb128 0x6
 1150 0256 05020000 		.4byte	.LASF50
 1151 025a 07       		.byte	0x7
 1152 025b DA       		.byte	0xda
 1153 025c BF020000 		.4byte	0x2bf
 1154 0260 48       		.byte	0x48
 1155 0261 00       		.byte	0
 1156 0262 08       		.uleb128 0x8
 1157 0263 08       		.byte	0x8
 1158 0264 06       		.byte	0x6
 1159 0265 61       		.byte	0x61
 1160 0266 83020000 		.4byte	0x283
 1161 026a 06       		.uleb128 0x6
 1162 026b 78030000 		.4byte	.LASF31
 1163 026f 06       		.byte	0x6
 1164 0270 62       		.byte	0x62
 1165 0271 83020000 		.4byte	0x283
 1166 0275 00       		.byte	0
 1167 0276 06       		.uleb128 0x6
 1168 0277 1B040000 		.4byte	.LASF32
 1169 027b 06       		.byte	0x6
 1170 027c 64       		.byte	0x64
 1171 027d 83020000 		.4byte	0x283
 1172 0281 04       		.byte	0x4
ARM GAS  /tmp/ccPJkY7a.s 			page 22


 1173 0282 00       		.byte	0
 1174 0283 09       		.uleb128 0x9
 1175 0284 04       		.byte	0x4
 1176 0285 4E010000 		.4byte	0x14e
 1177 0289 03       		.uleb128 0x3
 1178 028a 94030000 		.4byte	.LASF51
 1179 028e 06       		.byte	0x6
 1180 028f 66       		.byte	0x66
 1181 0290 62020000 		.4byte	0x262
 1182 0294 08       		.uleb128 0x8
 1183 0295 04       		.byte	0x4
 1184 0296 06       		.byte	0x6
 1185 0297 6B       		.byte	0x6b
 1186 0298 A9020000 		.4byte	0x2a9
 1187 029c 06       		.uleb128 0x6
 1188 029d 78030000 		.4byte	.LASF31
 1189 02a1 06       		.byte	0x6
 1190 02a2 6D       		.byte	0x6d
 1191 02a3 83020000 		.4byte	0x283
 1192 02a7 00       		.byte	0
 1193 02a8 00       		.byte	0
 1194 02a9 03       		.uleb128 0x3
 1195 02aa 39000000 		.4byte	.LASF52
 1196 02ae 06       		.byte	0x6
 1197 02af 70       		.byte	0x70
 1198 02b0 94020000 		.4byte	0x294
 1199 02b4 03       		.uleb128 0x3
 1200 02b5 0D020000 		.4byte	.LASF53
 1201 02b9 08       		.byte	0x8
 1202 02ba E5       		.byte	0xe5
 1203 02bb BF020000 		.4byte	0x2bf
 1204 02bf 0A       		.uleb128 0xa
 1205 02c0 04       		.byte	0x4
 1206 02c1 03       		.uleb128 0x3
 1207 02c2 2A030000 		.4byte	.LASF54
 1208 02c6 08       		.byte	0x8
 1209 02c7 EB       		.byte	0xeb
 1210 02c8 D9000000 		.4byte	0xd9
 1211 02cc 0B       		.uleb128 0xb
 1212 02cd 5D060000 		.4byte	.LASF55
 1213 02d1 64       		.byte	0x64
 1214 02d2 08       		.byte	0x8
 1215 02d3 0C01     		.2byte	0x10c
 1216 02d5 18040000 		.4byte	0x418
 1217 02d9 0C       		.uleb128 0xc
 1218 02da 73313600 		.ascii	"s16\000"
 1219 02de 08       		.byte	0x8
 1220 02df 0E01     		.2byte	0x10e
 1221 02e1 B4020000 		.4byte	0x2b4
 1222 02e5 00       		.byte	0
 1223 02e6 0C       		.uleb128 0xc
 1224 02e7 73313700 		.ascii	"s17\000"
 1225 02eb 08       		.byte	0x8
 1226 02ec 0F01     		.2byte	0x10f
 1227 02ee B4020000 		.4byte	0x2b4
 1228 02f2 04       		.byte	0x4
 1229 02f3 0C       		.uleb128 0xc
ARM GAS  /tmp/ccPJkY7a.s 			page 23


 1230 02f4 73313800 		.ascii	"s18\000"
 1231 02f8 08       		.byte	0x8
 1232 02f9 1001     		.2byte	0x110
 1233 02fb B4020000 		.4byte	0x2b4
 1234 02ff 08       		.byte	0x8
 1235 0300 0C       		.uleb128 0xc
 1236 0301 73313900 		.ascii	"s19\000"
 1237 0305 08       		.byte	0x8
 1238 0306 1101     		.2byte	0x111
 1239 0308 B4020000 		.4byte	0x2b4
 1240 030c 0C       		.byte	0xc
 1241 030d 0C       		.uleb128 0xc
 1242 030e 73323000 		.ascii	"s20\000"
 1243 0312 08       		.byte	0x8
 1244 0313 1201     		.2byte	0x112
 1245 0315 B4020000 		.4byte	0x2b4
 1246 0319 10       		.byte	0x10
 1247 031a 0C       		.uleb128 0xc
 1248 031b 73323100 		.ascii	"s21\000"
 1249 031f 08       		.byte	0x8
 1250 0320 1301     		.2byte	0x113
 1251 0322 B4020000 		.4byte	0x2b4
 1252 0326 14       		.byte	0x14
 1253 0327 0C       		.uleb128 0xc
 1254 0328 73323200 		.ascii	"s22\000"
 1255 032c 08       		.byte	0x8
 1256 032d 1401     		.2byte	0x114
 1257 032f B4020000 		.4byte	0x2b4
 1258 0333 18       		.byte	0x18
 1259 0334 0C       		.uleb128 0xc
 1260 0335 73323300 		.ascii	"s23\000"
 1261 0339 08       		.byte	0x8
 1262 033a 1501     		.2byte	0x115
 1263 033c B4020000 		.4byte	0x2b4
 1264 0340 1C       		.byte	0x1c
 1265 0341 0C       		.uleb128 0xc
 1266 0342 73323400 		.ascii	"s24\000"
 1267 0346 08       		.byte	0x8
 1268 0347 1601     		.2byte	0x116
 1269 0349 B4020000 		.4byte	0x2b4
 1270 034d 20       		.byte	0x20
 1271 034e 0C       		.uleb128 0xc
 1272 034f 73323500 		.ascii	"s25\000"
 1273 0353 08       		.byte	0x8
 1274 0354 1701     		.2byte	0x117
 1275 0356 B4020000 		.4byte	0x2b4
 1276 035a 24       		.byte	0x24
 1277 035b 0C       		.uleb128 0xc
 1278 035c 73323600 		.ascii	"s26\000"
 1279 0360 08       		.byte	0x8
 1280 0361 1801     		.2byte	0x118
 1281 0363 B4020000 		.4byte	0x2b4
 1282 0367 28       		.byte	0x28
 1283 0368 0C       		.uleb128 0xc
 1284 0369 73323700 		.ascii	"s27\000"
 1285 036d 08       		.byte	0x8
 1286 036e 1901     		.2byte	0x119
ARM GAS  /tmp/ccPJkY7a.s 			page 24


 1287 0370 B4020000 		.4byte	0x2b4
 1288 0374 2C       		.byte	0x2c
 1289 0375 0C       		.uleb128 0xc
 1290 0376 73323800 		.ascii	"s28\000"
 1291 037a 08       		.byte	0x8
 1292 037b 1A01     		.2byte	0x11a
 1293 037d B4020000 		.4byte	0x2b4
 1294 0381 30       		.byte	0x30
 1295 0382 0C       		.uleb128 0xc
 1296 0383 73323900 		.ascii	"s29\000"
 1297 0387 08       		.byte	0x8
 1298 0388 1B01     		.2byte	0x11b
 1299 038a B4020000 		.4byte	0x2b4
 1300 038e 34       		.byte	0x34
 1301 038f 0C       		.uleb128 0xc
 1302 0390 73333000 		.ascii	"s30\000"
 1303 0394 08       		.byte	0x8
 1304 0395 1C01     		.2byte	0x11c
 1305 0397 B4020000 		.4byte	0x2b4
 1306 039b 38       		.byte	0x38
 1307 039c 0C       		.uleb128 0xc
 1308 039d 73333100 		.ascii	"s31\000"
 1309 03a1 08       		.byte	0x8
 1310 03a2 1D01     		.2byte	0x11d
 1311 03a4 B4020000 		.4byte	0x2b4
 1312 03a8 3C       		.byte	0x3c
 1313 03a9 0C       		.uleb128 0xc
 1314 03aa 723400   		.ascii	"r4\000"
 1315 03ad 08       		.byte	0x8
 1316 03ae 1F01     		.2byte	0x11f
 1317 03b0 B4020000 		.4byte	0x2b4
 1318 03b4 40       		.byte	0x40
 1319 03b5 0C       		.uleb128 0xc
 1320 03b6 723500   		.ascii	"r5\000"
 1321 03b9 08       		.byte	0x8
 1322 03ba 2001     		.2byte	0x120
 1323 03bc B4020000 		.4byte	0x2b4
 1324 03c0 44       		.byte	0x44
 1325 03c1 0C       		.uleb128 0xc
 1326 03c2 723600   		.ascii	"r6\000"
 1327 03c5 08       		.byte	0x8
 1328 03c6 2101     		.2byte	0x121
 1329 03c8 B4020000 		.4byte	0x2b4
 1330 03cc 48       		.byte	0x48
 1331 03cd 0C       		.uleb128 0xc
 1332 03ce 723700   		.ascii	"r7\000"
 1333 03d1 08       		.byte	0x8
 1334 03d2 2201     		.2byte	0x122
 1335 03d4 B4020000 		.4byte	0x2b4
 1336 03d8 4C       		.byte	0x4c
 1337 03d9 0C       		.uleb128 0xc
 1338 03da 723800   		.ascii	"r8\000"
 1339 03dd 08       		.byte	0x8
 1340 03de 2301     		.2byte	0x123
 1341 03e0 B4020000 		.4byte	0x2b4
 1342 03e4 50       		.byte	0x50
 1343 03e5 0C       		.uleb128 0xc
ARM GAS  /tmp/ccPJkY7a.s 			page 25


 1344 03e6 723900   		.ascii	"r9\000"
 1345 03e9 08       		.byte	0x8
 1346 03ea 2401     		.2byte	0x124
 1347 03ec B4020000 		.4byte	0x2b4
 1348 03f0 54       		.byte	0x54
 1349 03f1 0C       		.uleb128 0xc
 1350 03f2 72313000 		.ascii	"r10\000"
 1351 03f6 08       		.byte	0x8
 1352 03f7 2501     		.2byte	0x125
 1353 03f9 B4020000 		.4byte	0x2b4
 1354 03fd 58       		.byte	0x58
 1355 03fe 0C       		.uleb128 0xc
 1356 03ff 72313100 		.ascii	"r11\000"
 1357 0403 08       		.byte	0x8
 1358 0404 2601     		.2byte	0x126
 1359 0406 B4020000 		.4byte	0x2b4
 1360 040a 5C       		.byte	0x5c
 1361 040b 0C       		.uleb128 0xc
 1362 040c 6C7200   		.ascii	"lr\000"
 1363 040f 08       		.byte	0x8
 1364 0410 2701     		.2byte	0x127
 1365 0412 B4020000 		.4byte	0x2b4
 1366 0416 60       		.byte	0x60
 1367 0417 00       		.byte	0
 1368 0418 0B       		.uleb128 0xb
 1369 0419 BA020000 		.4byte	.LASF56
 1370 041d 04       		.byte	0x4
 1371 041e 08       		.byte	0x8
 1372 041f 3101     		.2byte	0x131
 1373 0421 33040000 		.4byte	0x433
 1374 0425 0C       		.uleb128 0xc
 1375 0426 72313300 		.ascii	"r13\000"
 1376 042a 08       		.byte	0x8
 1377 042b 3201     		.2byte	0x132
 1378 042d 33040000 		.4byte	0x433
 1379 0431 00       		.byte	0
 1380 0432 00       		.byte	0
 1381 0433 09       		.uleb128 0x9
 1382 0434 04       		.byte	0x4
 1383 0435 CC020000 		.4byte	0x2cc
 1384 0439 0D       		.uleb128 0xd
 1385 043a CE000000 		.4byte	0xce
 1386 043e 04       		.uleb128 0x4
 1387 043f 04       		.byte	0x4
 1388 0440 07       		.byte	0x7
 1389 0441 58030000 		.4byte	.LASF57
 1390 0445 0D       		.uleb128 0xd
 1391 0446 43010000 		.4byte	0x143
 1392 044a 05       		.uleb128 0x5
 1393 044b 24030000 		.4byte	.LASF58
 1394 044f 10       		.byte	0x10
 1395 0450 09       		.byte	0x9
 1396 0451 2C       		.byte	0x2c
 1397 0452 7B040000 		.4byte	0x47b
 1398 0456 06       		.uleb128 0x6
 1399 0457 51010000 		.4byte	.LASF59
 1400 045b 09       		.byte	0x9
ARM GAS  /tmp/ccPJkY7a.s 			page 26


 1401 045c 2D       		.byte	0x2d
 1402 045d 89020000 		.4byte	0x289
 1403 0461 00       		.byte	0
 1404 0462 06       		.uleb128 0x6
 1405 0463 40080000 		.4byte	.LASF60
 1406 0467 09       		.byte	0x9
 1407 0468 2F       		.byte	0x2f
 1408 0469 83020000 		.4byte	0x283
 1409 046d 08       		.byte	0x8
 1410 046e 06       		.uleb128 0x6
 1411 046f 99050000 		.4byte	.LASF61
 1412 0473 09       		.byte	0x9
 1413 0474 31       		.byte	0x31
 1414 0475 7B040000 		.4byte	0x47b
 1415 0479 0C       		.byte	0xc
 1416 047a 00       		.byte	0
 1417 047b 09       		.uleb128 0x9
 1418 047c 04       		.byte	0x4
 1419 047d 4A040000 		.4byte	0x44a
 1420 0481 03       		.uleb128 0x3
 1421 0482 24030000 		.4byte	.LASF58
 1422 0486 09       		.byte	0x9
 1423 0487 33       		.byte	0x33
 1424 0488 4A040000 		.4byte	0x44a
 1425 048c 0E       		.uleb128 0xe
 1426 048d 04       		.byte	0x4
 1427 048e 07       		.byte	0x7
 1428 048f 96       		.byte	0x96
 1429 0490 C1040000 		.4byte	0x4c1
 1430 0494 0F       		.uleb128 0xf
 1431 0495 45000000 		.4byte	.LASF62
 1432 0499 07       		.byte	0x7
 1433 049a 9D       		.byte	0x9d
 1434 049b 2D010000 		.4byte	0x12d
 1435 049f 0F       		.uleb128 0xf
 1436 04a0 B2000000 		.4byte	.LASF63
 1437 04a4 07       		.byte	0x7
 1438 04a5 A4       		.byte	0xa4
 1439 04a6 2D010000 		.4byte	0x12d
 1440 04aa 0F       		.uleb128 0xf
 1441 04ab E7070000 		.4byte	.LASF64
 1442 04af 07       		.byte	0x7
 1443 04b0 AB       		.byte	0xab
 1444 04b1 BF020000 		.4byte	0x2bf
 1445 04b5 0F       		.uleb128 0xf
 1446 04b6 C9040000 		.4byte	.LASF65
 1447 04ba 07       		.byte	0x7
 1448 04bb B2       		.byte	0xb2
 1449 04bc 38010000 		.4byte	0x138
 1450 04c0 00       		.byte	0
 1451 04c1 09       		.uleb128 0x9
 1452 04c2 04       		.byte	0x4
 1453 04c3 C7040000 		.4byte	0x4c7
 1454 04c7 10       		.uleb128 0x10
 1455 04c8 CC040000 		.4byte	0x4cc
 1456 04cc 04       		.uleb128 0x4
 1457 04cd 01       		.byte	0x1
ARM GAS  /tmp/ccPJkY7a.s 			page 27


 1458 04ce 08       		.byte	0x8
 1459 04cf 39050000 		.4byte	.LASF66
 1460 04d3 09       		.uleb128 0x9
 1461 04d4 04       		.byte	0x4
 1462 04d5 C1020000 		.4byte	0x2c1
 1463 04d9 09       		.uleb128 0x9
 1464 04da 04       		.byte	0x4
 1465 04db 81040000 		.4byte	0x481
 1466 04df 11       		.uleb128 0x11
 1467 04e0 CE000000 		.4byte	0xce
 1468 04e4 EF040000 		.4byte	0x4ef
 1469 04e8 12       		.uleb128 0x12
 1470 04e9 3E040000 		.4byte	0x43e
 1471 04ed 01       		.byte	0x1
 1472 04ee 00       		.byte	0
 1473 04ef 0D       		.uleb128 0xd
 1474 04f0 B8000000 		.4byte	0xb8
 1475 04f4 0D       		.uleb128 0xd
 1476 04f5 C3000000 		.4byte	0xc3
 1477 04f9 13       		.uleb128 0x13
 1478 04fa 18       		.byte	0x18
 1479 04fb 0A       		.byte	0xa
 1480 04fc B102     		.2byte	0x2b1
 1481 04fe 50050000 		.4byte	0x550
 1482 0502 0C       		.uleb128 0xc
 1483 0503 435200   		.ascii	"CR\000"
 1484 0506 0A       		.byte	0xa
 1485 0507 B302     		.2byte	0x2b3
 1486 0509 39040000 		.4byte	0x439
 1487 050d 00       		.byte	0
 1488 050e 14       		.uleb128 0x14
 1489 050f C6050000 		.4byte	.LASF67
 1490 0513 0A       		.byte	0xa
 1491 0514 B402     		.2byte	0x2b4
 1492 0516 39040000 		.4byte	0x439
 1493 051a 04       		.byte	0x4
 1494 051b 0C       		.uleb128 0xc
 1495 051c 50415200 		.ascii	"PAR\000"
 1496 0520 0A       		.byte	0xa
 1497 0521 B502     		.2byte	0x2b5
 1498 0523 39040000 		.4byte	0x439
 1499 0527 08       		.byte	0x8
 1500 0528 14       		.uleb128 0x14
 1501 0529 2D000000 		.4byte	.LASF68
 1502 052d 0A       		.byte	0xa
 1503 052e B602     		.2byte	0x2b6
 1504 0530 39040000 		.4byte	0x439
 1505 0534 0C       		.byte	0xc
 1506 0535 14       		.uleb128 0x14
 1507 0536 64060000 		.4byte	.LASF69
 1508 053a 0A       		.byte	0xa
 1509 053b B702     		.2byte	0x2b7
 1510 053d 39040000 		.4byte	0x439
 1511 0541 10       		.byte	0x10
 1512 0542 0C       		.uleb128 0xc
 1513 0543 46435200 		.ascii	"FCR\000"
 1514 0547 0A       		.byte	0xa
ARM GAS  /tmp/ccPJkY7a.s 			page 28


 1515 0548 B802     		.2byte	0x2b8
 1516 054a 39040000 		.4byte	0x439
 1517 054e 14       		.byte	0x14
 1518 054f 00       		.byte	0
 1519 0550 15       		.uleb128 0x15
 1520 0551 CB050000 		.4byte	.LASF70
 1521 0555 0A       		.byte	0xa
 1522 0556 B902     		.2byte	0x2b9
 1523 0558 F9040000 		.4byte	0x4f9
 1524 055c 13       		.uleb128 0x13
 1525 055d 90       		.byte	0x90
 1526 055e 0A       		.byte	0xa
 1527 055f 5804     		.2byte	0x458
 1528 0561 05070000 		.4byte	0x705
 1529 0565 0C       		.uleb128 0xc
 1530 0566 435200   		.ascii	"CR\000"
 1531 0569 0A       		.byte	0xa
 1532 056a 5A04     		.2byte	0x45a
 1533 056c 39040000 		.4byte	0x439
 1534 0570 00       		.byte	0
 1535 0571 14       		.uleb128 0x14
 1536 0572 E6020000 		.4byte	.LASF71
 1537 0576 0A       		.byte	0xa
 1538 0577 5B04     		.2byte	0x45b
 1539 0579 39040000 		.4byte	0x439
 1540 057d 04       		.byte	0x4
 1541 057e 14       		.uleb128 0x14
 1542 057f 74020000 		.4byte	.LASF72
 1543 0583 0A       		.byte	0xa
 1544 0584 5C04     		.2byte	0x45c
 1545 0586 39040000 		.4byte	0x439
 1546 058a 08       		.byte	0x8
 1547 058b 0C       		.uleb128 0xc
 1548 058c 43495200 		.ascii	"CIR\000"
 1549 0590 0A       		.byte	0xa
 1550 0591 5D04     		.2byte	0x45d
 1551 0593 39040000 		.4byte	0x439
 1552 0597 0C       		.byte	0xc
 1553 0598 14       		.uleb128 0x14
 1554 0599 30010000 		.4byte	.LASF73
 1555 059d 0A       		.byte	0xa
 1556 059e 5E04     		.2byte	0x45e
 1557 05a0 39040000 		.4byte	0x439
 1558 05a4 10       		.byte	0x10
 1559 05a5 14       		.uleb128 0x14
 1560 05a6 85050000 		.4byte	.LASF74
 1561 05aa 0A       		.byte	0xa
 1562 05ab 5F04     		.2byte	0x45f
 1563 05ad 39040000 		.4byte	0x439
 1564 05b1 14       		.byte	0x14
 1565 05b2 14       		.uleb128 0x14
 1566 05b3 E0040000 		.4byte	.LASF75
 1567 05b7 0A       		.byte	0xa
 1568 05b8 6004     		.2byte	0x460
 1569 05ba 39040000 		.4byte	0x439
 1570 05be 18       		.byte	0x18
 1571 05bf 14       		.uleb128 0x14
ARM GAS  /tmp/ccPJkY7a.s 			page 29


 1572 05c0 E9030000 		.4byte	.LASF76
 1573 05c4 0A       		.byte	0xa
 1574 05c5 6104     		.2byte	0x461
 1575 05c7 CE000000 		.4byte	0xce
 1576 05cb 1C       		.byte	0x1c
 1577 05cc 14       		.uleb128 0x14
 1578 05cd B2030000 		.4byte	.LASF77
 1579 05d1 0A       		.byte	0xa
 1580 05d2 6204     		.2byte	0x462
 1581 05d4 39040000 		.4byte	0x439
 1582 05d8 20       		.byte	0x20
 1583 05d9 14       		.uleb128 0x14
 1584 05da 93010000 		.4byte	.LASF78
 1585 05de 0A       		.byte	0xa
 1586 05df 6304     		.2byte	0x463
 1587 05e1 39040000 		.4byte	0x439
 1588 05e5 24       		.byte	0x24
 1589 05e6 14       		.uleb128 0x14
 1590 05e7 F3030000 		.4byte	.LASF79
 1591 05eb 0A       		.byte	0xa
 1592 05ec 6404     		.2byte	0x464
 1593 05ee DF040000 		.4byte	0x4df
 1594 05f2 28       		.byte	0x28
 1595 05f3 14       		.uleb128 0x14
 1596 05f4 10080000 		.4byte	.LASF80
 1597 05f8 0A       		.byte	0xa
 1598 05f9 6504     		.2byte	0x465
 1599 05fb 39040000 		.4byte	0x439
 1600 05ff 30       		.byte	0x30
 1601 0600 14       		.uleb128 0x14
 1602 0601 E9050000 		.4byte	.LASF81
 1603 0605 0A       		.byte	0xa
 1604 0606 6604     		.2byte	0x466
 1605 0608 39040000 		.4byte	0x439
 1606 060c 34       		.byte	0x34
 1607 060d 14       		.uleb128 0x14
 1608 060e 9A020000 		.4byte	.LASF82
 1609 0612 0A       		.byte	0xa
 1610 0613 6704     		.2byte	0x467
 1611 0615 39040000 		.4byte	0x439
 1612 0619 38       		.byte	0x38
 1613 061a 14       		.uleb128 0x14
 1614 061b FD030000 		.4byte	.LASF83
 1615 061f 0A       		.byte	0xa
 1616 0620 6804     		.2byte	0x468
 1617 0622 CE000000 		.4byte	0xce
 1618 0626 3C       		.byte	0x3c
 1619 0627 14       		.uleb128 0x14
 1620 0628 1F050000 		.4byte	.LASF84
 1621 062c 0A       		.byte	0xa
 1622 062d 6904     		.2byte	0x469
 1623 062f 39040000 		.4byte	0x439
 1624 0633 40       		.byte	0x40
 1625 0634 14       		.uleb128 0x14
 1626 0635 D8040000 		.4byte	.LASF85
 1627 0639 0A       		.byte	0xa
 1628 063a 6A04     		.2byte	0x46a
ARM GAS  /tmp/ccPJkY7a.s 			page 30


 1629 063c 39040000 		.4byte	0x439
 1630 0640 44       		.byte	0x44
 1631 0641 14       		.uleb128 0x14
 1632 0642 07040000 		.4byte	.LASF86
 1633 0646 0A       		.byte	0xa
 1634 0647 6B04     		.2byte	0x46b
 1635 0649 DF040000 		.4byte	0x4df
 1636 064d 48       		.byte	0x48
 1637 064e 14       		.uleb128 0x14
 1638 064f F2000000 		.4byte	.LASF87
 1639 0653 0A       		.byte	0xa
 1640 0654 6C04     		.2byte	0x46c
 1641 0656 39040000 		.4byte	0x439
 1642 065a 50       		.byte	0x50
 1643 065b 14       		.uleb128 0x14
 1644 065c A1030000 		.4byte	.LASF88
 1645 0660 0A       		.byte	0xa
 1646 0661 6D04     		.2byte	0x46d
 1647 0663 39040000 		.4byte	0x439
 1648 0667 54       		.byte	0x54
 1649 0668 14       		.uleb128 0x14
 1650 0669 B1040000 		.4byte	.LASF89
 1651 066d 0A       		.byte	0xa
 1652 066e 6E04     		.2byte	0x46e
 1653 0670 39040000 		.4byte	0x439
 1654 0674 58       		.byte	0x58
 1655 0675 14       		.uleb128 0x14
 1656 0676 11040000 		.4byte	.LASF90
 1657 067a 0A       		.byte	0xa
 1658 067b 6F04     		.2byte	0x46f
 1659 067d CE000000 		.4byte	0xce
 1660 0681 5C       		.byte	0x5c
 1661 0682 14       		.uleb128 0x14
 1662 0683 9C010000 		.4byte	.LASF91
 1663 0687 0A       		.byte	0xa
 1664 0688 7004     		.2byte	0x470
 1665 068a 39040000 		.4byte	0x439
 1666 068e 60       		.byte	0x60
 1667 068f 14       		.uleb128 0x14
 1668 0690 07030000 		.4byte	.LASF92
 1669 0694 0A       		.byte	0xa
 1670 0695 7104     		.2byte	0x471
 1671 0697 39040000 		.4byte	0x439
 1672 069b 64       		.byte	0x64
 1673 069c 14       		.uleb128 0x14
 1674 069d 00050000 		.4byte	.LASF93
 1675 06a1 0A       		.byte	0xa
 1676 06a2 7204     		.2byte	0x472
 1677 06a4 DF040000 		.4byte	0x4df
 1678 06a8 68       		.byte	0x68
 1679 06a9 14       		.uleb128 0x14
 1680 06aa 89060000 		.4byte	.LASF94
 1681 06ae 0A       		.byte	0xa
 1682 06af 7304     		.2byte	0x473
 1683 06b1 39040000 		.4byte	0x439
 1684 06b5 70       		.byte	0x70
 1685 06b6 0C       		.uleb128 0xc
ARM GAS  /tmp/ccPJkY7a.s 			page 31


 1686 06b7 43535200 		.ascii	"CSR\000"
 1687 06bb 0A       		.byte	0xa
 1688 06bc 7404     		.2byte	0x474
 1689 06be 39040000 		.4byte	0x439
 1690 06c2 74       		.byte	0x74
 1691 06c3 14       		.uleb128 0x14
 1692 06c4 22040000 		.4byte	.LASF95
 1693 06c8 0A       		.byte	0xa
 1694 06c9 7504     		.2byte	0x475
 1695 06cb DF040000 		.4byte	0x4df
 1696 06cf 78       		.byte	0x78
 1697 06d0 14       		.uleb128 0x14
 1698 06d1 74060000 		.4byte	.LASF96
 1699 06d5 0A       		.byte	0xa
 1700 06d6 7604     		.2byte	0x476
 1701 06d8 39040000 		.4byte	0x439
 1702 06dc 80       		.byte	0x80
 1703 06dd 14       		.uleb128 0x14
 1704 06de D5020000 		.4byte	.LASF97
 1705 06e2 0A       		.byte	0xa
 1706 06e3 7704     		.2byte	0x477
 1707 06e5 39040000 		.4byte	0x439
 1708 06e9 84       		.byte	0x84
 1709 06ea 14       		.uleb128 0x14
 1710 06eb D6030000 		.4byte	.LASF98
 1711 06ef 0A       		.byte	0xa
 1712 06f0 7804     		.2byte	0x478
 1713 06f2 39040000 		.4byte	0x439
 1714 06f6 88       		.byte	0x88
 1715 06f7 14       		.uleb128 0x14
 1716 06f8 09010000 		.4byte	.LASF99
 1717 06fc 0A       		.byte	0xa
 1718 06fd 7904     		.2byte	0x479
 1719 06ff 39040000 		.4byte	0x439
 1720 0703 8C       		.byte	0x8c
 1721 0704 00       		.byte	0
 1722 0705 15       		.uleb128 0x15
 1723 0706 A2020000 		.4byte	.LASF100
 1724 070a 0A       		.byte	0xa
 1725 070b 7B04     		.2byte	0x47b
 1726 070d 5C050000 		.4byte	0x55c
 1727 0711 13       		.uleb128 0x13
 1728 0712 24       		.byte	0x24
 1729 0713 0A       		.byte	0xa
 1730 0714 E304     		.2byte	0x4e3
 1731 0716 03080000 		.4byte	0x803
 1732 071a 0C       		.uleb128 0xc
 1733 071b 43523100 		.ascii	"CR1\000"
 1734 071f 0A       		.byte	0xa
 1735 0720 E504     		.2byte	0x4e5
 1736 0722 EF040000 		.4byte	0x4ef
 1737 0726 00       		.byte	0
 1738 0727 14       		.uleb128 0x14
 1739 0728 E9030000 		.4byte	.LASF76
 1740 072c 0A       		.byte	0xa
 1741 072d E604     		.2byte	0x4e6
 1742 072f B8000000 		.4byte	0xb8
ARM GAS  /tmp/ccPJkY7a.s 			page 32


 1743 0733 02       		.byte	0x2
 1744 0734 0C       		.uleb128 0xc
 1745 0735 43523200 		.ascii	"CR2\000"
 1746 0739 0A       		.byte	0xa
 1747 073a E704     		.2byte	0x4e7
 1748 073c EF040000 		.4byte	0x4ef
 1749 0740 04       		.byte	0x4
 1750 0741 14       		.uleb128 0x14
 1751 0742 F3030000 		.4byte	.LASF79
 1752 0746 0A       		.byte	0xa
 1753 0747 E804     		.2byte	0x4e8
 1754 0749 B8000000 		.4byte	0xb8
 1755 074d 06       		.byte	0x6
 1756 074e 0C       		.uleb128 0xc
 1757 074f 535200   		.ascii	"SR\000"
 1758 0752 0A       		.byte	0xa
 1759 0753 E904     		.2byte	0x4e9
 1760 0755 EF040000 		.4byte	0x4ef
 1761 0759 08       		.byte	0x8
 1762 075a 14       		.uleb128 0x14
 1763 075b FD030000 		.4byte	.LASF83
 1764 075f 0A       		.byte	0xa
 1765 0760 EA04     		.2byte	0x4ea
 1766 0762 B8000000 		.4byte	0xb8
 1767 0766 0A       		.byte	0xa
 1768 0767 0C       		.uleb128 0xc
 1769 0768 445200   		.ascii	"DR\000"
 1770 076b 0A       		.byte	0xa
 1771 076c EB04     		.2byte	0x4eb
 1772 076e EF040000 		.4byte	0x4ef
 1773 0772 0C       		.byte	0xc
 1774 0773 14       		.uleb128 0x14
 1775 0774 07040000 		.4byte	.LASF86
 1776 0778 0A       		.byte	0xa
 1777 0779 EC04     		.2byte	0x4ec
 1778 077b B8000000 		.4byte	0xb8
 1779 077f 0E       		.byte	0xe
 1780 0780 14       		.uleb128 0x14
 1781 0781 CB030000 		.4byte	.LASF101
 1782 0785 0A       		.byte	0xa
 1783 0786 ED04     		.2byte	0x4ed
 1784 0788 EF040000 		.4byte	0x4ef
 1785 078c 10       		.byte	0x10
 1786 078d 14       		.uleb128 0x14
 1787 078e 11040000 		.4byte	.LASF90
 1788 0792 0A       		.byte	0xa
 1789 0793 EE04     		.2byte	0x4ee
 1790 0795 B8000000 		.4byte	0xb8
 1791 0799 12       		.byte	0x12
 1792 079a 14       		.uleb128 0x14
 1793 079b 8E060000 		.4byte	.LASF102
 1794 079f 0A       		.byte	0xa
 1795 07a0 EF04     		.2byte	0x4ef
 1796 07a2 EF040000 		.4byte	0x4ef
 1797 07a6 14       		.byte	0x14
 1798 07a7 14       		.uleb128 0x14
 1799 07a8 00050000 		.4byte	.LASF93
ARM GAS  /tmp/ccPJkY7a.s 			page 33


 1800 07ac 0A       		.byte	0xa
 1801 07ad F004     		.2byte	0x4f0
 1802 07af B8000000 		.4byte	0xb8
 1803 07b3 16       		.byte	0x16
 1804 07b4 14       		.uleb128 0x14
 1805 07b5 11030000 		.4byte	.LASF103
 1806 07b9 0A       		.byte	0xa
 1807 07ba F104     		.2byte	0x4f1
 1808 07bc EF040000 		.4byte	0x4ef
 1809 07c0 18       		.byte	0x18
 1810 07c1 14       		.uleb128 0x14
 1811 07c2 22040000 		.4byte	.LASF95
 1812 07c6 0A       		.byte	0xa
 1813 07c7 F204     		.2byte	0x4f2
 1814 07c9 B8000000 		.4byte	0xb8
 1815 07cd 1A       		.byte	0x1a
 1816 07ce 14       		.uleb128 0x14
 1817 07cf 42010000 		.4byte	.LASF104
 1818 07d3 0A       		.byte	0xa
 1819 07d4 F304     		.2byte	0x4f3
 1820 07d6 EF040000 		.4byte	0x4ef
 1821 07da 1C       		.byte	0x1c
 1822 07db 14       		.uleb128 0x14
 1823 07dc 2C040000 		.4byte	.LASF105
 1824 07e0 0A       		.byte	0xa
 1825 07e1 F404     		.2byte	0x4f4
 1826 07e3 B8000000 		.4byte	0xb8
 1827 07e7 1E       		.byte	0x1e
 1828 07e8 14       		.uleb128 0x14
 1829 07e9 52030000 		.4byte	.LASF106
 1830 07ed 0A       		.byte	0xa
 1831 07ee F504     		.2byte	0x4f5
 1832 07f0 EF040000 		.4byte	0x4ef
 1833 07f4 20       		.byte	0x20
 1834 07f5 14       		.uleb128 0x14
 1835 07f6 36040000 		.4byte	.LASF107
 1836 07fa 0A       		.byte	0xa
 1837 07fb F604     		.2byte	0x4f6
 1838 07fd B8000000 		.4byte	0xb8
 1839 0801 22       		.byte	0x22
 1840 0802 00       		.byte	0
 1841 0803 15       		.uleb128 0x15
 1842 0804 AF010000 		.4byte	.LASF108
 1843 0808 0A       		.byte	0xa
 1844 0809 F704     		.2byte	0x4f7
 1845 080b 11070000 		.4byte	0x711
 1846 080f 08       		.uleb128 0x8
 1847 0810 0C       		.byte	0xc
 1848 0811 0B       		.byte	0xb
 1849 0812 DA       		.byte	0xda
 1850 0813 54080000 		.4byte	0x854
 1851 0817 06       		.uleb128 0x6
 1852 0818 78000000 		.4byte	.LASF109
 1853 081c 0B       		.byte	0xb
 1854 081d DB       		.byte	0xdb
 1855 081e 54080000 		.4byte	0x854
 1856 0822 00       		.byte	0
ARM GAS  /tmp/ccPJkY7a.s 			page 34


 1857 0823 06       		.uleb128 0x6
 1858 0824 FB040000 		.4byte	.LASF110
 1859 0828 0B       		.byte	0xb
 1860 0829 DC       		.byte	0xdc
 1861 082a 5A080000 		.4byte	0x85a
 1862 082e 04       		.byte	0x4
 1863 082f 06       		.uleb128 0x6
 1864 0830 B3020000 		.4byte	.LASF111
 1865 0834 0B       		.byte	0xb
 1866 0835 DD       		.byte	0xdd
 1867 0836 AD000000 		.4byte	0xad
 1868 083a 08       		.byte	0x8
 1869 083b 06       		.uleb128 0x6
 1870 083c 16020000 		.4byte	.LASF112
 1871 0840 0B       		.byte	0xb
 1872 0841 DF       		.byte	0xdf
 1873 0842 AD000000 		.4byte	0xad
 1874 0846 09       		.byte	0x9
 1875 0847 06       		.uleb128 0x6
 1876 0848 55000000 		.4byte	.LASF113
 1877 084c 0B       		.byte	0xb
 1878 084d E0       		.byte	0xe0
 1879 084e AD000000 		.4byte	0xad
 1880 0852 0A       		.byte	0xa
 1881 0853 00       		.byte	0
 1882 0854 09       		.uleb128 0x9
 1883 0855 04       		.byte	0x4
 1884 0856 50050000 		.4byte	0x550
 1885 085a 09       		.uleb128 0x9
 1886 085b 04       		.byte	0x4
 1887 085c 39040000 		.4byte	0x439
 1888 0860 03       		.uleb128 0x3
 1889 0861 6A040000 		.4byte	.LASF114
 1890 0865 0B       		.byte	0xb
 1891 0866 E1       		.byte	0xe1
 1892 0867 0F080000 		.4byte	0x80f
 1893 086b 03       		.uleb128 0x3
 1894 086c 80020000 		.4byte	.LASF115
 1895 0870 0B       		.byte	0xb
 1896 0871 EA       		.byte	0xea
 1897 0872 76080000 		.4byte	0x876
 1898 0876 09       		.uleb128 0x9
 1899 0877 04       		.byte	0x4
 1900 0878 7C080000 		.4byte	0x87c
 1901 087c 16       		.uleb128 0x16
 1902 087d 8C080000 		.4byte	0x88c
 1903 0881 17       		.uleb128 0x17
 1904 0882 BF020000 		.4byte	0x2bf
 1905 0886 17       		.uleb128 0x17
 1906 0887 CE000000 		.4byte	0xce
 1907 088b 00       		.byte	0
 1908 088c 08       		.uleb128 0x8
 1909 088d 04       		.byte	0x4
 1910 088e 0C       		.byte	0xc
 1911 088f 96       		.byte	0x96
 1912 0890 AD080000 		.4byte	0x8ad
 1913 0894 07       		.uleb128 0x7
ARM GAS  /tmp/ccPJkY7a.s 			page 35


 1914 0895 73657400 		.ascii	"set\000"
 1915 0899 0C       		.byte	0xc
 1916 089a 97       		.byte	0x97
 1917 089b B8000000 		.4byte	0xb8
 1918 089f 00       		.byte	0
 1919 08a0 06       		.uleb128 0x6
 1920 08a1 61030000 		.4byte	.LASF116
 1921 08a5 0C       		.byte	0xc
 1922 08a6 98       		.byte	0x98
 1923 08a7 B8000000 		.4byte	0xb8
 1924 08ab 02       		.byte	0x2
 1925 08ac 00       		.byte	0
 1926 08ad 0E       		.uleb128 0xe
 1927 08ae 04       		.byte	0x4
 1928 08af 0C       		.byte	0xc
 1929 08b0 94       		.byte	0x94
 1930 08b1 C8080000 		.4byte	0x8c8
 1931 08b5 18       		.uleb128 0x18
 1932 08b6 5700     		.ascii	"W\000"
 1933 08b8 0C       		.byte	0xc
 1934 08b9 95       		.byte	0x95
 1935 08ba CE000000 		.4byte	0xce
 1936 08be 18       		.uleb128 0x18
 1937 08bf 4800     		.ascii	"H\000"
 1938 08c1 0C       		.byte	0xc
 1939 08c2 99       		.byte	0x99
 1940 08c3 8C080000 		.4byte	0x88c
 1941 08c7 00       		.byte	0
 1942 08c8 08       		.uleb128 0x8
 1943 08c9 28       		.byte	0x28
 1944 08ca 0C       		.byte	0xc
 1945 08cb 8C       		.byte	0x8c
 1946 08cc 49090000 		.4byte	0x949
 1947 08d0 06       		.uleb128 0x6
 1948 08d1 85000000 		.4byte	.LASF117
 1949 08d5 0C       		.byte	0xc
 1950 08d6 8E       		.byte	0x8e
 1951 08d7 39040000 		.4byte	0x439
 1952 08db 00       		.byte	0
 1953 08dc 06       		.uleb128 0x6
 1954 08dd 5C000000 		.4byte	.LASF118
 1955 08e1 0C       		.byte	0xc
 1956 08e2 8F       		.byte	0x8f
 1957 08e3 39040000 		.4byte	0x439
 1958 08e7 04       		.byte	0x4
 1959 08e8 06       		.uleb128 0x6
 1960 08e9 F2010000 		.4byte	.LASF119
 1961 08ed 0C       		.byte	0xc
 1962 08ee 90       		.byte	0x90
 1963 08ef 39040000 		.4byte	0x439
 1964 08f3 08       		.byte	0x8
 1965 08f4 06       		.uleb128 0x6
 1966 08f5 AC000000 		.4byte	.LASF120
 1967 08f9 0C       		.byte	0xc
 1968 08fa 91       		.byte	0x91
 1969 08fb 39040000 		.4byte	0x439
 1970 08ff 0C       		.byte	0xc
ARM GAS  /tmp/ccPJkY7a.s 			page 36


 1971 0900 07       		.uleb128 0x7
 1972 0901 49445200 		.ascii	"IDR\000"
 1973 0905 0C       		.byte	0xc
 1974 0906 92       		.byte	0x92
 1975 0907 39040000 		.4byte	0x439
 1976 090b 10       		.byte	0x10
 1977 090c 07       		.uleb128 0x7
 1978 090d 4F445200 		.ascii	"ODR\000"
 1979 0911 0C       		.byte	0xc
 1980 0912 93       		.byte	0x93
 1981 0913 39040000 		.4byte	0x439
 1982 0917 14       		.byte	0x14
 1983 0918 06       		.uleb128 0x6
 1984 0919 2B010000 		.4byte	.LASF121
 1985 091d 0C       		.byte	0xc
 1986 091e 9A       		.byte	0x9a
 1987 091f 49090000 		.4byte	0x949
 1988 0923 18       		.byte	0x18
 1989 0924 06       		.uleb128 0x6
 1990 0925 AE020000 		.4byte	.LASF122
 1991 0929 0C       		.byte	0xc
 1992 092a 9B       		.byte	0x9b
 1993 092b 39040000 		.4byte	0x439
 1994 092f 1C       		.byte	0x1c
 1995 0930 06       		.uleb128 0x6
 1996 0931 D1030000 		.4byte	.LASF123
 1997 0935 0C       		.byte	0xc
 1998 0936 9C       		.byte	0x9c
 1999 0937 39040000 		.4byte	0x439
 2000 093b 20       		.byte	0x20
 2001 093c 06       		.uleb128 0x6
 2002 093d C6030000 		.4byte	.LASF124
 2003 0941 0C       		.byte	0xc
 2004 0942 9D       		.byte	0x9d
 2005 0943 39040000 		.4byte	0x439
 2006 0947 24       		.byte	0x24
 2007 0948 00       		.byte	0
 2008 0949 0D       		.uleb128 0xd
 2009 094a AD080000 		.4byte	0x8ad
 2010 094e 03       		.uleb128 0x3
 2011 094f D4010000 		.4byte	.LASF125
 2012 0953 0C       		.byte	0xc
 2013 0954 9E       		.byte	0x9e
 2014 0955 C8080000 		.4byte	0x8c8
 2015 0959 03       		.uleb128 0x3
 2016 095a 7F030000 		.4byte	.LASF126
 2017 095e 0C       		.byte	0xc
 2018 095f F0       		.byte	0xf0
 2019 0960 CE000000 		.4byte	0xce
 2020 0964 03       		.uleb128 0x3
 2021 0965 DE050000 		.4byte	.LASF127
 2022 0969 0C       		.byte	0xc
 2023 096a FD       		.byte	0xfd
 2024 096b 6F090000 		.4byte	0x96f
 2025 096f 09       		.uleb128 0x9
 2026 0970 04       		.byte	0x4
 2027 0971 4E090000 		.4byte	0x94e
ARM GAS  /tmp/ccPJkY7a.s 			page 37


 2028 0975 19       		.uleb128 0x19
 2029 0976 01       		.byte	0x1
 2030 0977 0D       		.byte	0xd
 2031 0978 55       		.byte	0x55
 2032 0979 9C090000 		.4byte	0x99c
 2033 097d 1A       		.uleb128 0x1a
 2034 097e 69060000 		.4byte	.LASF128
 2035 0982 00       		.sleb128 0
 2036 0983 1A       		.uleb128 0x1a
 2037 0984 39010000 		.4byte	.LASF129
 2038 0988 01       		.sleb128 1
 2039 0989 1A       		.uleb128 0x1a
 2040 098a A2000000 		.4byte	.LASF130
 2041 098e 02       		.sleb128 2
 2042 098f 1A       		.uleb128 0x1a
 2043 0990 6D000000 		.4byte	.LASF131
 2044 0994 03       		.sleb128 3
 2045 0995 1A       		.uleb128 0x1a
 2046 0996 5C050000 		.4byte	.LASF132
 2047 099a 04       		.sleb128 4
 2048 099b 00       		.byte	0
 2049 099c 03       		.uleb128 0x3
 2050 099d 8E050000 		.4byte	.LASF133
 2051 09a1 0D       		.byte	0xd
 2052 09a2 5B       		.byte	0x5b
 2053 09a3 75090000 		.4byte	0x975
 2054 09a7 15       		.uleb128 0x15
 2055 09a8 CE000000 		.4byte	.LASF134
 2056 09ac 0E       		.byte	0xe
 2057 09ad E701     		.2byte	0x1e7
 2058 09af B3090000 		.4byte	0x9b3
 2059 09b3 0B       		.uleb128 0xb
 2060 09b4 CE000000 		.4byte	.LASF134
 2061 09b8 30       		.byte	0x30
 2062 09b9 0E       		.byte	0xe
 2063 09ba 0B02     		.2byte	0x20b
 2064 09bc 360A0000 		.4byte	0xa36
 2065 09c0 14       		.uleb128 0x14
 2066 09c1 69010000 		.4byte	.LASF135
 2067 09c5 0E       		.byte	0xe
 2068 09c6 0F02     		.2byte	0x20f
 2069 09c8 9C090000 		.4byte	0x99c
 2070 09cc 00       		.byte	0
 2071 09cd 14       		.uleb128 0x14
 2072 09ce 69050000 		.4byte	.LASF136
 2073 09d2 0E       		.byte	0xe
 2074 09d3 1302     		.2byte	0x213
 2075 09d5 A30A0000 		.4byte	0xaa3
 2076 09d9 04       		.byte	0x4
 2077 09da 14       		.uleb128 0x14
 2078 09db BF050000 		.4byte	.LASF137
 2079 09df 0E       		.byte	0xe
 2080 09e0 1802     		.2byte	0x218
 2081 09e2 83020000 		.4byte	0x283
 2082 09e6 08       		.byte	0x8
 2083 09e7 14       		.uleb128 0x14
 2084 09e8 48040000 		.4byte	.LASF138
ARM GAS  /tmp/ccPJkY7a.s 			page 38


 2085 09ec 0E       		.byte	0xe
 2086 09ed 1F02     		.2byte	0x21f
 2087 09ef 81040000 		.4byte	0x481
 2088 09f3 0C       		.byte	0xc
 2089 09f4 0C       		.uleb128 0xc
 2090 09f5 73706900 		.ascii	"spi\000"
 2091 09f9 0E       		.byte	0xe
 2092 09fa 2B02     		.2byte	0x22b
 2093 09fc AE0A0000 		.4byte	0xaae
 2094 0a00 1C       		.byte	0x1c
 2095 0a01 14       		.uleb128 0x14
 2096 0a02 7F000000 		.4byte	.LASF139
 2097 0a06 0E       		.byte	0xe
 2098 0a07 2F02     		.2byte	0x22f
 2099 0a09 B40A0000 		.4byte	0xab4
 2100 0a0d 20       		.byte	0x20
 2101 0a0e 14       		.uleb128 0x14
 2102 0a0f E1010000 		.4byte	.LASF140
 2103 0a13 0E       		.byte	0xe
 2104 0a14 3302     		.2byte	0x233
 2105 0a16 B40A0000 		.4byte	0xab4
 2106 0a1a 24       		.byte	0x24
 2107 0a1b 14       		.uleb128 0x14
 2108 0a1c CA010000 		.4byte	.LASF141
 2109 0a20 0E       		.byte	0xe
 2110 0a21 3702     		.2byte	0x237
 2111 0a23 CE000000 		.4byte	0xce
 2112 0a27 28       		.byte	0x28
 2113 0a28 14       		.uleb128 0x14
 2114 0a29 2E020000 		.4byte	.LASF142
 2115 0a2d 0E       		.byte	0xe
 2116 0a2e 3B02     		.2byte	0x23b
 2117 0a30 CE000000 		.4byte	0xce
 2118 0a34 2C       		.byte	0x2c
 2119 0a35 00       		.byte	0
 2120 0a36 15       		.uleb128 0x15
 2121 0a37 20020000 		.4byte	.LASF143
 2122 0a3b 0E       		.byte	0xe
 2123 0a3c EF01     		.2byte	0x1ef
 2124 0a3e 420A0000 		.4byte	0xa42
 2125 0a42 09       		.uleb128 0x9
 2126 0a43 04       		.byte	0x4
 2127 0a44 480A0000 		.4byte	0xa48
 2128 0a48 16       		.uleb128 0x16
 2129 0a49 530A0000 		.4byte	0xa53
 2130 0a4d 17       		.uleb128 0x17
 2131 0a4e 530A0000 		.4byte	0xa53
 2132 0a52 00       		.byte	0
 2133 0a53 09       		.uleb128 0x9
 2134 0a54 04       		.byte	0x4
 2135 0a55 A7090000 		.4byte	0x9a7
 2136 0a59 13       		.uleb128 0x13
 2137 0a5a 0C       		.byte	0xc
 2138 0a5b 0E       		.byte	0xe
 2139 0a5c F401     		.2byte	0x1f4
 2140 0a5e 970A0000 		.4byte	0xa97
 2141 0a62 14       		.uleb128 0x14
ARM GAS  /tmp/ccPJkY7a.s 			page 39


 2142 0a63 C3010000 		.4byte	.LASF144
 2143 0a67 0E       		.byte	0xe
 2144 0a68 F801     		.2byte	0x1f8
 2145 0a6a 360A0000 		.4byte	0xa36
 2146 0a6e 00       		.byte	0
 2147 0a6f 14       		.uleb128 0x14
 2148 0a70 D8000000 		.4byte	.LASF145
 2149 0a74 0E       		.byte	0xe
 2150 0a75 FD01     		.2byte	0x1fd
 2151 0a77 64090000 		.4byte	0x964
 2152 0a7b 04       		.byte	0x4
 2153 0a7c 14       		.uleb128 0x14
 2154 0a7d 03010000 		.4byte	.LASF146
 2155 0a81 0E       		.byte	0xe
 2156 0a82 0102     		.2byte	0x201
 2157 0a84 B8000000 		.4byte	0xb8
 2158 0a88 08       		.byte	0x8
 2159 0a89 0C       		.uleb128 0xc
 2160 0a8a 63723100 		.ascii	"cr1\000"
 2161 0a8e 0E       		.byte	0xe
 2162 0a8f 0502     		.2byte	0x205
 2163 0a91 B8000000 		.4byte	0xb8
 2164 0a95 0A       		.byte	0xa
 2165 0a96 00       		.byte	0
 2166 0a97 15       		.uleb128 0x15
 2167 0a98 30080000 		.4byte	.LASF147
 2168 0a9c 0E       		.byte	0xe
 2169 0a9d 0602     		.2byte	0x206
 2170 0a9f 590A0000 		.4byte	0xa59
 2171 0aa3 09       		.uleb128 0x9
 2172 0aa4 04       		.byte	0x4
 2173 0aa5 A90A0000 		.4byte	0xaa9
 2174 0aa9 10       		.uleb128 0x10
 2175 0aaa 970A0000 		.4byte	0xa97
 2176 0aae 09       		.uleb128 0x9
 2177 0aaf 04       		.byte	0x4
 2178 0ab0 03080000 		.4byte	0x803
 2179 0ab4 09       		.uleb128 0x9
 2180 0ab5 04       		.byte	0x4
 2181 0ab6 BA0A0000 		.4byte	0xaba
 2182 0aba 10       		.uleb128 0x10
 2183 0abb 60080000 		.4byte	0x860
 2184 0abf 1B       		.uleb128 0x1b
 2185 0ac0 EE070000 		.4byte	.LASF150
 2186 0ac4 01       		.byte	0x1
 2187 0ac5 9F       		.byte	0x9f
 2188 0ac6 00000000 		.4byte	.LFB119
 2189 0aca 0C000000 		.4byte	.LFE119-.LFB119
 2190 0ace 01       		.uleb128 0x1
 2191 0acf 9C       		.byte	0x9c
 2192 0ad0 FC0A0000 		.4byte	0xafc
 2193 0ad4 1C       		.uleb128 0x1c
 2194 0ad5 AB060000 		.4byte	.LASF148
 2195 0ad9 01       		.byte	0x1
 2196 0ada 9F       		.byte	0x9f
 2197 0adb 530A0000 		.4byte	0xa53
 2198 0adf 00000000 		.4byte	.LLST0
ARM GAS  /tmp/ccPJkY7a.s 			page 40


 2199 0ae3 1C       		.uleb128 0x1c
 2200 0ae4 C9070000 		.4byte	.LASF149
 2201 0ae8 01       		.byte	0x1
 2202 0ae9 9F       		.byte	0x9f
 2203 0aea CE000000 		.4byte	0xce
 2204 0aee 21000000 		.4byte	.LLST1
 2205 0af2 1D       		.uleb128 0x1d
 2206 0af3 0C000000 		.4byte	.LVL1
 2207 0af7 B80E0000 		.4byte	0xeb8
 2208 0afb 00       		.byte	0
 2209 0afc 1B       		.uleb128 0x1b
 2210 0afd 78010000 		.4byte	.LASF151
 2211 0b01 01       		.byte	0x1
 2212 0b02 85       		.byte	0x85
 2213 0b03 00000000 		.4byte	.LFB118
 2214 0b07 88000000 		.4byte	.LFE118-.LFB118
 2215 0b0b 01       		.uleb128 0x1
 2216 0b0c 9C       		.byte	0x9c
 2217 0b0d B60B0000 		.4byte	0xbb6
 2218 0b11 1C       		.uleb128 0x1c
 2219 0b12 AB060000 		.4byte	.LASF148
 2220 0b16 01       		.byte	0x1
 2221 0b17 85       		.byte	0x85
 2222 0b18 530A0000 		.4byte	0xa53
 2223 0b1c 42000000 		.4byte	.LLST2
 2224 0b20 1C       		.uleb128 0x1c
 2225 0b21 C9070000 		.4byte	.LASF149
 2226 0b25 01       		.byte	0x1
 2227 0b26 85       		.byte	0x85
 2228 0b27 CE000000 		.4byte	0xce
 2229 0b2b 76000000 		.4byte	.LLST3
 2230 0b2f 1E       		.uleb128 0x1e
 2231 0b30 56000000 		.4byte	.LBB2
 2232 0b34 06000000 		.4byte	.LBE2-.LBB2
 2233 0b38 4A0B0000 		.4byte	0xb4a
 2234 0b3c 1F       		.uleb128 0x1f
 2235 0b3d 746D7000 		.ascii	"tmp\000"
 2236 0b41 01       		.byte	0x1
 2237 0b42 96       		.byte	0x96
 2238 0b43 CE000000 		.4byte	0xce
 2239 0b47 01       		.uleb128 0x1
 2240 0b48 53       		.byte	0x53
 2241 0b49 00       		.byte	0
 2242 0b4a 1E       		.uleb128 0x1e
 2243 0b4b 64000000 		.4byte	.LBB3
 2244 0b4f 0C000000 		.4byte	.LBE3-.LBB3
 2245 0b53 6F0B0000 		.4byte	0xb6f
 2246 0b57 20       		.uleb128 0x20
 2247 0b58 747000   		.ascii	"tp\000"
 2248 0b5b 01       		.byte	0x1
 2249 0b5c 96       		.byte	0x96
 2250 0b5d 83020000 		.4byte	0x283
 2251 0b61 B0000000 		.4byte	.LLST4
 2252 0b65 21       		.uleb128 0x21
 2253 0b66 70000000 		.4byte	.LVL7
 2254 0b6a C00E0000 		.4byte	0xec0
 2255 0b6e 00       		.byte	0
ARM GAS  /tmp/ccPJkY7a.s 			page 41


 2256 0b6f 1E       		.uleb128 0x1e
 2257 0b70 74000000 		.4byte	.LBB4
 2258 0b74 08000000 		.4byte	.LBE4-.LBB4
 2259 0b78 8A0B0000 		.4byte	0xb8a
 2260 0b7c 1F       		.uleb128 0x1f
 2261 0b7d 746D7000 		.ascii	"tmp\000"
 2262 0b81 01       		.byte	0x1
 2263 0b82 96       		.byte	0x96
 2264 0b83 CE000000 		.4byte	0xce
 2265 0b87 01       		.uleb128 0x1
 2266 0b88 53       		.byte	0x53
 2267 0b89 00       		.byte	0
 2268 0b8a 22       		.uleb128 0x22
 2269 0b8b 50000000 		.4byte	.LVL4
 2270 0b8f 9A0B0000 		.4byte	0xb9a
 2271 0b93 23       		.uleb128 0x23
 2272 0b94 01       		.uleb128 0x1
 2273 0b95 50       		.byte	0x50
 2274 0b96 02       		.uleb128 0x2
 2275 0b97 74       		.byte	0x74
 2276 0b98 00       		.sleb128 0
 2277 0b99 00       		.byte	0
 2278 0b9a 21       		.uleb128 0x21
 2279 0b9b 60000000 		.4byte	.LVL5
 2280 0b9f D50E0000 		.4byte	0xed5
 2281 0ba3 21       		.uleb128 0x21
 2282 0ba4 74000000 		.4byte	.LVL8
 2283 0ba8 DC0E0000 		.4byte	0xedc
 2284 0bac 21       		.uleb128 0x21
 2285 0bad 86000000 		.4byte	.LVL11
 2286 0bb1 B80E0000 		.4byte	0xeb8
 2287 0bb5 00       		.byte	0
 2288 0bb6 24       		.uleb128 0x24
 2289 0bb7 35030000 		.4byte	.LASF152
 2290 0bbb 01       		.byte	0x1
 2291 0bbc BA       		.byte	0xba
 2292 0bbd 00000000 		.4byte	.LFB120
 2293 0bc1 44000000 		.4byte	.LFE120-.LFB120
 2294 0bc5 01       		.uleb128 0x1
 2295 0bc6 9C       		.byte	0x9c
 2296 0bc7 DC0B0000 		.4byte	0xbdc
 2297 0bcb 25       		.uleb128 0x25
 2298 0bcc 12000000 		.4byte	.LVL12
 2299 0bd0 E30E0000 		.4byte	0xee3
 2300 0bd4 23       		.uleb128 0x23
 2301 0bd5 01       		.uleb128 0x1
 2302 0bd6 50       		.byte	0x50
 2303 0bd7 02       		.uleb128 0x2
 2304 0bd8 74       		.byte	0x74
 2305 0bd9 00       		.sleb128 0
 2306 0bda 00       		.byte	0
 2307 0bdb 00       		.byte	0
 2308 0bdc 26       		.uleb128 0x26
 2309 0bdd 95060000 		.4byte	.LASF153
 2310 0be1 01       		.byte	0x1
 2311 0be2 3201     		.2byte	0x132
 2312 0be4 00000000 		.4byte	.LFB121
ARM GAS  /tmp/ccPJkY7a.s 			page 42


 2313 0be8 B0000000 		.4byte	.LFE121-.LFB121
 2314 0bec 01       		.uleb128 0x1
 2315 0bed 9C       		.byte	0x9c
 2316 0bee 890C0000 		.4byte	0xc89
 2317 0bf2 27       		.uleb128 0x27
 2318 0bf3 AB060000 		.4byte	.LASF148
 2319 0bf7 01       		.byte	0x1
 2320 0bf8 3201     		.2byte	0x132
 2321 0bfa 530A0000 		.4byte	0xa53
 2322 0bfe C3000000 		.4byte	.LLST5
 2323 0c02 28       		.uleb128 0x28
 2324 0c03 60000000 		.4byte	.LBB5
 2325 0c07 50000000 		.4byte	.LBE5-.LBB5
 2326 0c0b 29       		.uleb128 0x29
 2327 0c0c 6200     		.ascii	"b\000"
 2328 0c0e 01       		.byte	0x1
 2329 0c0f 4801     		.2byte	0x148
 2330 0c11 E4000000 		.4byte	0xe4
 2331 0c15 0D010000 		.4byte	.LLST6
 2332 0c19 2A       		.uleb128 0x2a
 2333 0c1a 6C000000 		.4byte	.LVL19
 2334 0c1e F50E0000 		.4byte	0xef5
 2335 0c22 3B0C0000 		.4byte	0xc3b
 2336 0c26 23       		.uleb128 0x23
 2337 0c27 01       		.uleb128 0x1
 2338 0c28 53       		.byte	0x53
 2339 0c29 02       		.uleb128 0x2
 2340 0c2a 74       		.byte	0x74
 2341 0c2b 00       		.sleb128 0
 2342 0c2c 23       		.uleb128 0x23
 2343 0c2d 01       		.uleb128 0x1
 2344 0c2e 52       		.byte	0x52
 2345 0c2f 05       		.uleb128 0x5
 2346 0c30 03       		.byte	0x3
 2347 0c31 00000000 		.4byte	spi_lld_serve_rx_interrupt
 2348 0c35 23       		.uleb128 0x23
 2349 0c36 01       		.uleb128 0x1
 2350 0c37 51       		.byte	0x51
 2351 0c38 01       		.uleb128 0x1
 2352 0c39 3A       		.byte	0x3a
 2353 0c3a 00       		.byte	0
 2354 0c3b 2A       		.uleb128 0x2a
 2355 0c3c 7A000000 		.4byte	.LVL21
 2356 0c40 F50E0000 		.4byte	0xef5
 2357 0c44 5D0C0000 		.4byte	0xc5d
 2358 0c48 23       		.uleb128 0x23
 2359 0c49 01       		.uleb128 0x1
 2360 0c4a 53       		.byte	0x53
 2361 0c4b 02       		.uleb128 0x2
 2362 0c4c 75       		.byte	0x75
 2363 0c4d 00       		.sleb128 0
 2364 0c4e 23       		.uleb128 0x23
 2365 0c4f 01       		.uleb128 0x1
 2366 0c50 52       		.byte	0x52
 2367 0c51 05       		.uleb128 0x5
 2368 0c52 03       		.byte	0x3
 2369 0c53 00000000 		.4byte	spi_lld_serve_tx_interrupt
ARM GAS  /tmp/ccPJkY7a.s 			page 43


 2370 0c57 23       		.uleb128 0x23
 2371 0c58 01       		.uleb128 0x1
 2372 0c59 51       		.byte	0x51
 2373 0c5a 01       		.uleb128 0x1
 2374 0c5b 3A       		.byte	0x3a
 2375 0c5c 00       		.byte	0
 2376 0c5d 2A       		.uleb128 0x2a
 2377 0c5e 8E000000 		.4byte	.LVL25
 2378 0c62 1A0F0000 		.4byte	0xf1a
 2379 0c66 740C0000 		.4byte	0xc74
 2380 0c6a 23       		.uleb128 0x23
 2381 0c6b 01       		.uleb128 0x1
 2382 0c6c 50       		.byte	0x50
 2383 0c6d 05       		.uleb128 0x5
 2384 0c6e 03       		.byte	0x3
 2385 0c6f 00000000 		.4byte	.LC0
 2386 0c73 00       		.byte	0
 2387 0c74 25       		.uleb128 0x25
 2388 0c75 96000000 		.4byte	.LVL28
 2389 0c79 1A0F0000 		.4byte	0xf1a
 2390 0c7d 23       		.uleb128 0x23
 2391 0c7e 01       		.uleb128 0x1
 2392 0c7f 50       		.byte	0x50
 2393 0c80 05       		.uleb128 0x5
 2394 0c81 03       		.byte	0x3
 2395 0c82 14000000 		.4byte	.LC1
 2396 0c86 00       		.byte	0
 2397 0c87 00       		.byte	0
 2398 0c88 00       		.byte	0
 2399 0c89 26       		.uleb128 0x26
 2400 0c8a 3E050000 		.4byte	.LASF154
 2401 0c8e 01       		.byte	0x1
 2402 0c8f BA01     		.2byte	0x1ba
 2403 0c91 00000000 		.4byte	.LFB122
 2404 0c95 3C000000 		.4byte	.LFE122-.LFB122
 2405 0c99 01       		.uleb128 0x1
 2406 0c9a 9C       		.byte	0x9c
 2407 0c9b C20C0000 		.4byte	0xcc2
 2408 0c9f 27       		.uleb128 0x27
 2409 0ca0 AB060000 		.4byte	.LASF148
 2410 0ca4 01       		.byte	0x1
 2411 0ca5 BA01     		.2byte	0x1ba
 2412 0ca7 530A0000 		.4byte	0xa53
 2413 0cab 41010000 		.4byte	.LLST7
 2414 0caf 21       		.uleb128 0x21
 2415 0cb0 1A000000 		.4byte	.LVL33
 2416 0cb4 2B0F0000 		.4byte	0xf2b
 2417 0cb8 21       		.uleb128 0x21
 2418 0cb9 20000000 		.4byte	.LVL34
 2419 0cbd 2B0F0000 		.4byte	0xf2b
 2420 0cc1 00       		.byte	0
 2421 0cc2 26       		.uleb128 0x26
 2422 0cc3 F1050000 		.4byte	.LASF155
 2423 0cc7 01       		.byte	0x1
 2424 0cc8 E701     		.2byte	0x1e7
 2425 0cca 00000000 		.4byte	.LFB123
 2426 0cce 12000000 		.4byte	.LFE123-.LFB123
ARM GAS  /tmp/ccPJkY7a.s 			page 44


 2427 0cd2 01       		.uleb128 0x1
 2428 0cd3 9C       		.byte	0x9c
 2429 0cd4 E70C0000 		.4byte	0xce7
 2430 0cd8 2B       		.uleb128 0x2b
 2431 0cd9 AB060000 		.4byte	.LASF148
 2432 0cdd 01       		.byte	0x1
 2433 0cde E701     		.2byte	0x1e7
 2434 0ce0 530A0000 		.4byte	0xa53
 2435 0ce4 01       		.uleb128 0x1
 2436 0ce5 50       		.byte	0x50
 2437 0ce6 00       		.byte	0
 2438 0ce7 26       		.uleb128 0x26
 2439 0ce8 5D020000 		.4byte	.LASF156
 2440 0cec 01       		.byte	0x1
 2441 0ced F401     		.2byte	0x1f4
 2442 0cef 00000000 		.4byte	.LFB124
 2443 0cf3 12000000 		.4byte	.LFE124-.LFB124
 2444 0cf7 01       		.uleb128 0x1
 2445 0cf8 9C       		.byte	0x9c
 2446 0cf9 0C0D0000 		.4byte	0xd0c
 2447 0cfd 2B       		.uleb128 0x2b
 2448 0cfe AB060000 		.4byte	.LASF148
 2449 0d02 01       		.byte	0x1
 2450 0d03 F401     		.2byte	0x1f4
 2451 0d05 530A0000 		.4byte	0xa53
 2452 0d09 01       		.uleb128 0x1
 2453 0d0a 50       		.byte	0x50
 2454 0d0b 00       		.byte	0
 2455 0d0c 26       		.uleb128 0x26
 2456 0d0d 7A060000 		.4byte	.LASF157
 2457 0d11 01       		.byte	0x1
 2458 0d12 0402     		.2byte	0x204
 2459 0d14 00000000 		.4byte	.LFB125
 2460 0d18 3C000000 		.4byte	.LFE125-.LFB125
 2461 0d1c 01       		.uleb128 0x1
 2462 0d1d 9C       		.byte	0x9c
 2463 0d1e 410D0000 		.4byte	0xd41
 2464 0d22 27       		.uleb128 0x27
 2465 0d23 AB060000 		.4byte	.LASF148
 2466 0d27 01       		.byte	0x1
 2467 0d28 0402     		.2byte	0x204
 2468 0d2a 530A0000 		.4byte	0xa53
 2469 0d2e 75010000 		.4byte	.LLST8
 2470 0d32 2C       		.uleb128 0x2c
 2471 0d33 6E00     		.ascii	"n\000"
 2472 0d35 01       		.byte	0x1
 2473 0d36 0402     		.2byte	0x204
 2474 0d38 2C000000 		.4byte	0x2c
 2475 0d3c 96010000 		.4byte	.LLST9
 2476 0d40 00       		.byte	0
 2477 0d41 26       		.uleb128 0x26
 2478 0d42 67030000 		.4byte	.LASF158
 2479 0d46 01       		.byte	0x1
 2480 0d47 2102     		.2byte	0x221
 2481 0d49 00000000 		.4byte	.LFB126
 2482 0d4d 36000000 		.4byte	.LFE126-.LFB126
 2483 0d51 01       		.uleb128 0x1
ARM GAS  /tmp/ccPJkY7a.s 			page 45


 2484 0d52 9C       		.byte	0x9c
 2485 0d53 920D0000 		.4byte	0xd92
 2486 0d57 27       		.uleb128 0x27
 2487 0d58 AB060000 		.4byte	.LASF148
 2488 0d5c 01       		.byte	0x1
 2489 0d5d 2102     		.2byte	0x221
 2490 0d5f 530A0000 		.4byte	0xa53
 2491 0d63 B7010000 		.4byte	.LLST10
 2492 0d67 2D       		.uleb128 0x2d
 2493 0d68 6E00     		.ascii	"n\000"
 2494 0d6a 01       		.byte	0x1
 2495 0d6b 2102     		.2byte	0x221
 2496 0d6d 2C000000 		.4byte	0x2c
 2497 0d71 01       		.uleb128 0x1
 2498 0d72 51       		.byte	0x51
 2499 0d73 2B       		.uleb128 0x2b
 2500 0d74 6E020000 		.4byte	.LASF159
 2501 0d78 01       		.byte	0x1
 2502 0d79 2202     		.2byte	0x222
 2503 0d7b 920D0000 		.4byte	0xd92
 2504 0d7f 01       		.uleb128 0x1
 2505 0d80 52       		.byte	0x52
 2506 0d81 27       		.uleb128 0x27
 2507 0d82 EC000000 		.4byte	.LASF160
 2508 0d86 01       		.byte	0x1
 2509 0d87 2202     		.2byte	0x222
 2510 0d89 BF020000 		.4byte	0x2bf
 2511 0d8d D8010000 		.4byte	.LLST11
 2512 0d91 00       		.byte	0
 2513 0d92 09       		.uleb128 0x9
 2514 0d93 04       		.byte	0x4
 2515 0d94 980D0000 		.4byte	0xd98
 2516 0d98 2E       		.uleb128 0x2e
 2517 0d99 26       		.uleb128 0x26
 2518 0d9a 38020000 		.4byte	.LASF161
 2519 0d9e 01       		.byte	0x1
 2520 0d9f 3D02     		.2byte	0x23d
 2521 0da1 00000000 		.4byte	.LFB127
 2522 0da5 38000000 		.4byte	.LFE127-.LFB127
 2523 0da9 01       		.uleb128 0x1
 2524 0daa 9C       		.byte	0x9c
 2525 0dab DC0D0000 		.4byte	0xddc
 2526 0daf 27       		.uleb128 0x27
 2527 0db0 AB060000 		.4byte	.LASF148
 2528 0db4 01       		.byte	0x1
 2529 0db5 3D02     		.2byte	0x23d
 2530 0db7 530A0000 		.4byte	0xa53
 2531 0dbb F9010000 		.4byte	.LLST12
 2532 0dbf 2D       		.uleb128 0x2d
 2533 0dc0 6E00     		.ascii	"n\000"
 2534 0dc2 01       		.byte	0x1
 2535 0dc3 3D02     		.2byte	0x23d
 2536 0dc5 2C000000 		.4byte	0x2c
 2537 0dc9 01       		.uleb128 0x1
 2538 0dca 51       		.byte	0x51
 2539 0dcb 27       		.uleb128 0x27
 2540 0dcc 6E020000 		.4byte	.LASF159
ARM GAS  /tmp/ccPJkY7a.s 			page 46


 2541 0dd0 01       		.byte	0x1
 2542 0dd1 3D02     		.2byte	0x23d
 2543 0dd3 920D0000 		.4byte	0xd92
 2544 0dd7 1A020000 		.4byte	.LLST13
 2545 0ddb 00       		.byte	0
 2546 0ddc 26       		.uleb128 0x26
 2547 0ddd 42030000 		.4byte	.LASF162
 2548 0de1 01       		.byte	0x1
 2549 0de2 5802     		.2byte	0x258
 2550 0de4 00000000 		.4byte	.LFB128
 2551 0de8 38000000 		.4byte	.LFE128-.LFB128
 2552 0dec 01       		.uleb128 0x1
 2553 0ded 9C       		.byte	0x9c
 2554 0dee 1F0E0000 		.4byte	0xe1f
 2555 0df2 27       		.uleb128 0x27
 2556 0df3 AB060000 		.4byte	.LASF148
 2557 0df7 01       		.byte	0x1
 2558 0df8 5802     		.2byte	0x258
 2559 0dfa 530A0000 		.4byte	0xa53
 2560 0dfe 3B020000 		.4byte	.LLST14
 2561 0e02 2D       		.uleb128 0x2d
 2562 0e03 6E00     		.ascii	"n\000"
 2563 0e05 01       		.byte	0x1
 2564 0e06 5802     		.2byte	0x258
 2565 0e08 2C000000 		.4byte	0x2c
 2566 0e0c 01       		.uleb128 0x1
 2567 0e0d 51       		.byte	0x51
 2568 0e0e 27       		.uleb128 0x27
 2569 0e0f EC000000 		.4byte	.LASF160
 2570 0e13 01       		.byte	0x1
 2571 0e14 5802     		.2byte	0x258
 2572 0e16 BF020000 		.4byte	0x2bf
 2573 0e1a 5C020000 		.4byte	.LLST15
 2574 0e1e 00       		.byte	0
 2575 0e1f 2F       		.uleb128 0x2f
 2576 0e20 18080000 		.4byte	.LASF179
 2577 0e24 01       		.byte	0x1
 2578 0e25 7202     		.2byte	0x272
 2579 0e27 B8000000 		.4byte	0xb8
 2580 0e2b 00000000 		.4byte	.LFB129
 2581 0e2f 10000000 		.4byte	.LFE129-.LFB129
 2582 0e33 01       		.uleb128 0x1
 2583 0e34 9C       		.byte	0x9c
 2584 0e35 580E0000 		.4byte	0xe58
 2585 0e39 27       		.uleb128 0x27
 2586 0e3a AB060000 		.4byte	.LASF148
 2587 0e3e 01       		.byte	0x1
 2588 0e3f 7202     		.2byte	0x272
 2589 0e41 530A0000 		.4byte	0xa53
 2590 0e45 7D020000 		.4byte	.LLST16
 2591 0e49 2B       		.uleb128 0x2b
 2592 0e4a 63010000 		.4byte	.LASF163
 2593 0e4e 01       		.byte	0x1
 2594 0e4f 7202     		.2byte	0x272
 2595 0e51 B8000000 		.4byte	0xb8
 2596 0e55 01       		.uleb128 0x1
 2597 0e56 51       		.byte	0x51
ARM GAS  /tmp/ccPJkY7a.s 			page 47


 2598 0e57 00       		.byte	0
 2599 0e58 30       		.uleb128 0x30
 2600 0e59 83040000 		.4byte	.LASF164
 2601 0e5d 01       		.byte	0x1
 2602 0e5e 78       		.byte	0x78
 2603 0e5f B8000000 		.4byte	0xb8
 2604 0e63 05       		.uleb128 0x5
 2605 0e64 03       		.byte	0x3
 2606 0e65 00000000 		.4byte	dummytx
 2607 0e69 30       		.uleb128 0x30
 2608 0e6a EE020000 		.4byte	.LASF165
 2609 0e6e 01       		.byte	0x1
 2610 0e6f 79       		.byte	0x79
 2611 0e70 B8000000 		.4byte	0xb8
 2612 0e74 05       		.uleb128 0x5
 2613 0e75 03       		.byte	0x3
 2614 0e76 00000000 		.4byte	dummyrx
 2615 0e7a 31       		.uleb128 0x31
 2616 0e7b DF000000 		.4byte	.LASF166
 2617 0e7f 0F       		.byte	0xf
 2618 0e80 9806     		.2byte	0x698
 2619 0e82 F4040000 		.4byte	0x4f4
 2620 0e86 11       		.uleb128 0x11
 2621 0e87 60080000 		.4byte	0x860
 2622 0e8b 960E0000 		.4byte	0xe96
 2623 0e8f 12       		.uleb128 0x12
 2624 0e90 3E040000 		.4byte	0x43e
 2625 0e94 0F       		.byte	0xf
 2626 0e95 00       		.byte	0
 2627 0e96 31       		.uleb128 0x31
 2628 0e97 BB000000 		.4byte	.LASF167
 2629 0e9b 0B       		.byte	0xb
 2630 0e9c BB01     		.2byte	0x1bb
 2631 0e9e A20E0000 		.4byte	0xea2
 2632 0ea2 10       		.uleb128 0x10
 2633 0ea3 860E0000 		.4byte	0xe86
 2634 0ea7 32       		.uleb128 0x32
 2635 0ea8 7D040000 		.4byte	.LASF168
 2636 0eac 01       		.byte	0x1
 2637 0ead 5D       		.byte	0x5d
 2638 0eae A7090000 		.4byte	0x9a7
 2639 0eb2 05       		.uleb128 0x5
 2640 0eb3 03       		.byte	0x3
 2641 0eb4 00000000 		.4byte	SPID2
 2642 0eb8 33       		.uleb128 0x33
 2643 0eb9 70050000 		.4byte	.LASF169
 2644 0ebd 08       		.byte	0x8
 2645 0ebe 0102     		.2byte	0x201
 2646 0ec0 34       		.uleb128 0x34
 2647 0ec1 13050000 		.4byte	.LASF172
 2648 0ec5 11       		.byte	0x11
 2649 0ec6 90       		.byte	0x90
 2650 0ec7 83020000 		.4byte	0x283
 2651 0ecb D50E0000 		.4byte	0xed5
 2652 0ecf 17       		.uleb128 0x17
 2653 0ed0 83020000 		.4byte	0x283
 2654 0ed4 00       		.byte	0
ARM GAS  /tmp/ccPJkY7a.s 			page 48


 2655 0ed5 35       		.uleb128 0x35
 2656 0ed6 CF070000 		.4byte	.LASF170
 2657 0eda 10       		.byte	0x10
 2658 0edb E9       		.byte	0xe9
 2659 0edc 35       		.uleb128 0x35
 2660 0edd 00060000 		.4byte	.LASF171
 2661 0ee1 10       		.byte	0x10
 2662 0ee2 EA       		.byte	0xea
 2663 0ee3 36       		.uleb128 0x36
 2664 0ee4 BB040000 		.4byte	.LASF174
 2665 0ee8 0D       		.byte	0xd
 2666 0ee9 2F01     		.2byte	0x12f
 2667 0eeb F50E0000 		.4byte	0xef5
 2668 0eef 17       		.uleb128 0x17
 2669 0ef0 530A0000 		.4byte	0xa53
 2670 0ef4 00       		.byte	0
 2671 0ef5 37       		.uleb128 0x37
 2672 0ef6 48080000 		.4byte	.LASF173
 2673 0efa 0B       		.byte	0xb
 2674 0efb C201     		.2byte	0x1c2
 2675 0efd E4000000 		.4byte	0xe4
 2676 0f01 1A0F0000 		.4byte	0xf1a
 2677 0f05 17       		.uleb128 0x17
 2678 0f06 B40A0000 		.4byte	0xab4
 2679 0f0a 17       		.uleb128 0x17
 2680 0f0b CE000000 		.4byte	0xce
 2681 0f0f 17       		.uleb128 0x17
 2682 0f10 6B080000 		.4byte	0x86b
 2683 0f14 17       		.uleb128 0x17
 2684 0f15 BF020000 		.4byte	0x2bf
 2685 0f19 00       		.byte	0
 2686 0f1a 38       		.uleb128 0x38
 2687 0f1b E7010000 		.4byte	.LASF175
 2688 0f1f 10       		.byte	0x10
 2689 0f20 F6       		.byte	0xf6
 2690 0f21 2B0F0000 		.4byte	0xf2b
 2691 0f25 17       		.uleb128 0x17
 2692 0f26 C1040000 		.4byte	0x4c1
 2693 0f2a 00       		.byte	0
 2694 0f2b 39       		.uleb128 0x39
 2695 0f2c 4B050000 		.4byte	.LASF180
 2696 0f30 0B       		.byte	0xb
 2697 0f31 C601     		.2byte	0x1c6
 2698 0f33 17       		.uleb128 0x17
 2699 0f34 B40A0000 		.4byte	0xab4
 2700 0f38 00       		.byte	0
 2701 0f39 00       		.byte	0
 2702              		.section	.debug_abbrev,"",%progbits
 2703              	.Ldebug_abbrev0:
 2704 0000 01       		.uleb128 0x1
 2705 0001 11       		.uleb128 0x11
 2706 0002 01       		.byte	0x1
 2707 0003 25       		.uleb128 0x25
 2708 0004 0E       		.uleb128 0xe
 2709 0005 13       		.uleb128 0x13
 2710 0006 0B       		.uleb128 0xb
 2711 0007 03       		.uleb128 0x3
ARM GAS  /tmp/ccPJkY7a.s 			page 49


 2712 0008 0E       		.uleb128 0xe
 2713 0009 1B       		.uleb128 0x1b
 2714 000a 0E       		.uleb128 0xe
 2715 000b 55       		.uleb128 0x55
 2716 000c 17       		.uleb128 0x17
 2717 000d 11       		.uleb128 0x11
 2718 000e 01       		.uleb128 0x1
 2719 000f 10       		.uleb128 0x10
 2720 0010 17       		.uleb128 0x17
 2721 0011 00       		.byte	0
 2722 0012 00       		.byte	0
 2723 0013 02       		.uleb128 0x2
 2724 0014 24       		.uleb128 0x24
 2725 0015 00       		.byte	0
 2726 0016 0B       		.uleb128 0xb
 2727 0017 0B       		.uleb128 0xb
 2728 0018 3E       		.uleb128 0x3e
 2729 0019 0B       		.uleb128 0xb
 2730 001a 03       		.uleb128 0x3
 2731 001b 08       		.uleb128 0x8
 2732 001c 00       		.byte	0
 2733 001d 00       		.byte	0
 2734 001e 03       		.uleb128 0x3
 2735 001f 16       		.uleb128 0x16
 2736 0020 00       		.byte	0
 2737 0021 03       		.uleb128 0x3
 2738 0022 0E       		.uleb128 0xe
 2739 0023 3A       		.uleb128 0x3a
 2740 0024 0B       		.uleb128 0xb
 2741 0025 3B       		.uleb128 0x3b
 2742 0026 0B       		.uleb128 0xb
 2743 0027 49       		.uleb128 0x49
 2744 0028 13       		.uleb128 0x13
 2745 0029 00       		.byte	0
 2746 002a 00       		.byte	0
 2747 002b 04       		.uleb128 0x4
 2748 002c 24       		.uleb128 0x24
 2749 002d 00       		.byte	0
 2750 002e 0B       		.uleb128 0xb
 2751 002f 0B       		.uleb128 0xb
 2752 0030 3E       		.uleb128 0x3e
 2753 0031 0B       		.uleb128 0xb
 2754 0032 03       		.uleb128 0x3
 2755 0033 0E       		.uleb128 0xe
 2756 0034 00       		.byte	0
 2757 0035 00       		.byte	0
 2758 0036 05       		.uleb128 0x5
 2759 0037 13       		.uleb128 0x13
 2760 0038 01       		.byte	0x1
 2761 0039 03       		.uleb128 0x3
 2762 003a 0E       		.uleb128 0xe
 2763 003b 0B       		.uleb128 0xb
 2764 003c 0B       		.uleb128 0xb
 2765 003d 3A       		.uleb128 0x3a
 2766 003e 0B       		.uleb128 0xb
 2767 003f 3B       		.uleb128 0x3b
 2768 0040 0B       		.uleb128 0xb
ARM GAS  /tmp/ccPJkY7a.s 			page 50


 2769 0041 01       		.uleb128 0x1
 2770 0042 13       		.uleb128 0x13
 2771 0043 00       		.byte	0
 2772 0044 00       		.byte	0
 2773 0045 06       		.uleb128 0x6
 2774 0046 0D       		.uleb128 0xd
 2775 0047 00       		.byte	0
 2776 0048 03       		.uleb128 0x3
 2777 0049 0E       		.uleb128 0xe
 2778 004a 3A       		.uleb128 0x3a
 2779 004b 0B       		.uleb128 0xb
 2780 004c 3B       		.uleb128 0x3b
 2781 004d 0B       		.uleb128 0xb
 2782 004e 49       		.uleb128 0x49
 2783 004f 13       		.uleb128 0x13
 2784 0050 38       		.uleb128 0x38
 2785 0051 0B       		.uleb128 0xb
 2786 0052 00       		.byte	0
 2787 0053 00       		.byte	0
 2788 0054 07       		.uleb128 0x7
 2789 0055 0D       		.uleb128 0xd
 2790 0056 00       		.byte	0
 2791 0057 03       		.uleb128 0x3
 2792 0058 08       		.uleb128 0x8
 2793 0059 3A       		.uleb128 0x3a
 2794 005a 0B       		.uleb128 0xb
 2795 005b 3B       		.uleb128 0x3b
 2796 005c 0B       		.uleb128 0xb
 2797 005d 49       		.uleb128 0x49
 2798 005e 13       		.uleb128 0x13
 2799 005f 38       		.uleb128 0x38
 2800 0060 0B       		.uleb128 0xb
 2801 0061 00       		.byte	0
 2802 0062 00       		.byte	0
 2803 0063 08       		.uleb128 0x8
 2804 0064 13       		.uleb128 0x13
 2805 0065 01       		.byte	0x1
 2806 0066 0B       		.uleb128 0xb
 2807 0067 0B       		.uleb128 0xb
 2808 0068 3A       		.uleb128 0x3a
 2809 0069 0B       		.uleb128 0xb
 2810 006a 3B       		.uleb128 0x3b
 2811 006b 0B       		.uleb128 0xb
 2812 006c 01       		.uleb128 0x1
 2813 006d 13       		.uleb128 0x13
 2814 006e 00       		.byte	0
 2815 006f 00       		.byte	0
 2816 0070 09       		.uleb128 0x9
 2817 0071 0F       		.uleb128 0xf
 2818 0072 00       		.byte	0
 2819 0073 0B       		.uleb128 0xb
 2820 0074 0B       		.uleb128 0xb
 2821 0075 49       		.uleb128 0x49
 2822 0076 13       		.uleb128 0x13
 2823 0077 00       		.byte	0
 2824 0078 00       		.byte	0
 2825 0079 0A       		.uleb128 0xa
ARM GAS  /tmp/ccPJkY7a.s 			page 51


 2826 007a 0F       		.uleb128 0xf
 2827 007b 00       		.byte	0
 2828 007c 0B       		.uleb128 0xb
 2829 007d 0B       		.uleb128 0xb
 2830 007e 00       		.byte	0
 2831 007f 00       		.byte	0
 2832 0080 0B       		.uleb128 0xb
 2833 0081 13       		.uleb128 0x13
 2834 0082 01       		.byte	0x1
 2835 0083 03       		.uleb128 0x3
 2836 0084 0E       		.uleb128 0xe
 2837 0085 0B       		.uleb128 0xb
 2838 0086 0B       		.uleb128 0xb
 2839 0087 3A       		.uleb128 0x3a
 2840 0088 0B       		.uleb128 0xb
 2841 0089 3B       		.uleb128 0x3b
 2842 008a 05       		.uleb128 0x5
 2843 008b 01       		.uleb128 0x1
 2844 008c 13       		.uleb128 0x13
 2845 008d 00       		.byte	0
 2846 008e 00       		.byte	0
 2847 008f 0C       		.uleb128 0xc
 2848 0090 0D       		.uleb128 0xd
 2849 0091 00       		.byte	0
 2850 0092 03       		.uleb128 0x3
 2851 0093 08       		.uleb128 0x8
 2852 0094 3A       		.uleb128 0x3a
 2853 0095 0B       		.uleb128 0xb
 2854 0096 3B       		.uleb128 0x3b
 2855 0097 05       		.uleb128 0x5
 2856 0098 49       		.uleb128 0x49
 2857 0099 13       		.uleb128 0x13
 2858 009a 38       		.uleb128 0x38
 2859 009b 0B       		.uleb128 0xb
 2860 009c 00       		.byte	0
 2861 009d 00       		.byte	0
 2862 009e 0D       		.uleb128 0xd
 2863 009f 35       		.uleb128 0x35
 2864 00a0 00       		.byte	0
 2865 00a1 49       		.uleb128 0x49
 2866 00a2 13       		.uleb128 0x13
 2867 00a3 00       		.byte	0
 2868 00a4 00       		.byte	0
 2869 00a5 0E       		.uleb128 0xe
 2870 00a6 17       		.uleb128 0x17
 2871 00a7 01       		.byte	0x1
 2872 00a8 0B       		.uleb128 0xb
 2873 00a9 0B       		.uleb128 0xb
 2874 00aa 3A       		.uleb128 0x3a
 2875 00ab 0B       		.uleb128 0xb
 2876 00ac 3B       		.uleb128 0x3b
 2877 00ad 0B       		.uleb128 0xb
 2878 00ae 01       		.uleb128 0x1
 2879 00af 13       		.uleb128 0x13
 2880 00b0 00       		.byte	0
 2881 00b1 00       		.byte	0
 2882 00b2 0F       		.uleb128 0xf
ARM GAS  /tmp/ccPJkY7a.s 			page 52


 2883 00b3 0D       		.uleb128 0xd
 2884 00b4 00       		.byte	0
 2885 00b5 03       		.uleb128 0x3
 2886 00b6 0E       		.uleb128 0xe
 2887 00b7 3A       		.uleb128 0x3a
 2888 00b8 0B       		.uleb128 0xb
 2889 00b9 3B       		.uleb128 0x3b
 2890 00ba 0B       		.uleb128 0xb
 2891 00bb 49       		.uleb128 0x49
 2892 00bc 13       		.uleb128 0x13
 2893 00bd 00       		.byte	0
 2894 00be 00       		.byte	0
 2895 00bf 10       		.uleb128 0x10
 2896 00c0 26       		.uleb128 0x26
 2897 00c1 00       		.byte	0
 2898 00c2 49       		.uleb128 0x49
 2899 00c3 13       		.uleb128 0x13
 2900 00c4 00       		.byte	0
 2901 00c5 00       		.byte	0
 2902 00c6 11       		.uleb128 0x11
 2903 00c7 01       		.uleb128 0x1
 2904 00c8 01       		.byte	0x1
 2905 00c9 49       		.uleb128 0x49
 2906 00ca 13       		.uleb128 0x13
 2907 00cb 01       		.uleb128 0x1
 2908 00cc 13       		.uleb128 0x13
 2909 00cd 00       		.byte	0
 2910 00ce 00       		.byte	0
 2911 00cf 12       		.uleb128 0x12
 2912 00d0 21       		.uleb128 0x21
 2913 00d1 00       		.byte	0
 2914 00d2 49       		.uleb128 0x49
 2915 00d3 13       		.uleb128 0x13
 2916 00d4 2F       		.uleb128 0x2f
 2917 00d5 0B       		.uleb128 0xb
 2918 00d6 00       		.byte	0
 2919 00d7 00       		.byte	0
 2920 00d8 13       		.uleb128 0x13
 2921 00d9 13       		.uleb128 0x13
 2922 00da 01       		.byte	0x1
 2923 00db 0B       		.uleb128 0xb
 2924 00dc 0B       		.uleb128 0xb
 2925 00dd 3A       		.uleb128 0x3a
 2926 00de 0B       		.uleb128 0xb
 2927 00df 3B       		.uleb128 0x3b
 2928 00e0 05       		.uleb128 0x5
 2929 00e1 01       		.uleb128 0x1
 2930 00e2 13       		.uleb128 0x13
 2931 00e3 00       		.byte	0
 2932 00e4 00       		.byte	0
 2933 00e5 14       		.uleb128 0x14
 2934 00e6 0D       		.uleb128 0xd
 2935 00e7 00       		.byte	0
 2936 00e8 03       		.uleb128 0x3
 2937 00e9 0E       		.uleb128 0xe
 2938 00ea 3A       		.uleb128 0x3a
 2939 00eb 0B       		.uleb128 0xb
ARM GAS  /tmp/ccPJkY7a.s 			page 53


 2940 00ec 3B       		.uleb128 0x3b
 2941 00ed 05       		.uleb128 0x5
 2942 00ee 49       		.uleb128 0x49
 2943 00ef 13       		.uleb128 0x13
 2944 00f0 38       		.uleb128 0x38
 2945 00f1 0B       		.uleb128 0xb
 2946 00f2 00       		.byte	0
 2947 00f3 00       		.byte	0
 2948 00f4 15       		.uleb128 0x15
 2949 00f5 16       		.uleb128 0x16
 2950 00f6 00       		.byte	0
 2951 00f7 03       		.uleb128 0x3
 2952 00f8 0E       		.uleb128 0xe
 2953 00f9 3A       		.uleb128 0x3a
 2954 00fa 0B       		.uleb128 0xb
 2955 00fb 3B       		.uleb128 0x3b
 2956 00fc 05       		.uleb128 0x5
 2957 00fd 49       		.uleb128 0x49
 2958 00fe 13       		.uleb128 0x13
 2959 00ff 00       		.byte	0
 2960 0100 00       		.byte	0
 2961 0101 16       		.uleb128 0x16
 2962 0102 15       		.uleb128 0x15
 2963 0103 01       		.byte	0x1
 2964 0104 27       		.uleb128 0x27
 2965 0105 19       		.uleb128 0x19
 2966 0106 01       		.uleb128 0x1
 2967 0107 13       		.uleb128 0x13
 2968 0108 00       		.byte	0
 2969 0109 00       		.byte	0
 2970 010a 17       		.uleb128 0x17
 2971 010b 05       		.uleb128 0x5
 2972 010c 00       		.byte	0
 2973 010d 49       		.uleb128 0x49
 2974 010e 13       		.uleb128 0x13
 2975 010f 00       		.byte	0
 2976 0110 00       		.byte	0
 2977 0111 18       		.uleb128 0x18
 2978 0112 0D       		.uleb128 0xd
 2979 0113 00       		.byte	0
 2980 0114 03       		.uleb128 0x3
 2981 0115 08       		.uleb128 0x8
 2982 0116 3A       		.uleb128 0x3a
 2983 0117 0B       		.uleb128 0xb
 2984 0118 3B       		.uleb128 0x3b
 2985 0119 0B       		.uleb128 0xb
 2986 011a 49       		.uleb128 0x49
 2987 011b 13       		.uleb128 0x13
 2988 011c 00       		.byte	0
 2989 011d 00       		.byte	0
 2990 011e 19       		.uleb128 0x19
 2991 011f 04       		.uleb128 0x4
 2992 0120 01       		.byte	0x1
 2993 0121 0B       		.uleb128 0xb
 2994 0122 0B       		.uleb128 0xb
 2995 0123 3A       		.uleb128 0x3a
 2996 0124 0B       		.uleb128 0xb
ARM GAS  /tmp/ccPJkY7a.s 			page 54


 2997 0125 3B       		.uleb128 0x3b
 2998 0126 0B       		.uleb128 0xb
 2999 0127 01       		.uleb128 0x1
 3000 0128 13       		.uleb128 0x13
 3001 0129 00       		.byte	0
 3002 012a 00       		.byte	0
 3003 012b 1A       		.uleb128 0x1a
 3004 012c 28       		.uleb128 0x28
 3005 012d 00       		.byte	0
 3006 012e 03       		.uleb128 0x3
 3007 012f 0E       		.uleb128 0xe
 3008 0130 1C       		.uleb128 0x1c
 3009 0131 0D       		.uleb128 0xd
 3010 0132 00       		.byte	0
 3011 0133 00       		.byte	0
 3012 0134 1B       		.uleb128 0x1b
 3013 0135 2E       		.uleb128 0x2e
 3014 0136 01       		.byte	0x1
 3015 0137 03       		.uleb128 0x3
 3016 0138 0E       		.uleb128 0xe
 3017 0139 3A       		.uleb128 0x3a
 3018 013a 0B       		.uleb128 0xb
 3019 013b 3B       		.uleb128 0x3b
 3020 013c 0B       		.uleb128 0xb
 3021 013d 27       		.uleb128 0x27
 3022 013e 19       		.uleb128 0x19
 3023 013f 11       		.uleb128 0x11
 3024 0140 01       		.uleb128 0x1
 3025 0141 12       		.uleb128 0x12
 3026 0142 06       		.uleb128 0x6
 3027 0143 40       		.uleb128 0x40
 3028 0144 18       		.uleb128 0x18
 3029 0145 9742     		.uleb128 0x2117
 3030 0147 19       		.uleb128 0x19
 3031 0148 01       		.uleb128 0x1
 3032 0149 13       		.uleb128 0x13
 3033 014a 00       		.byte	0
 3034 014b 00       		.byte	0
 3035 014c 1C       		.uleb128 0x1c
 3036 014d 05       		.uleb128 0x5
 3037 014e 00       		.byte	0
 3038 014f 03       		.uleb128 0x3
 3039 0150 0E       		.uleb128 0xe
 3040 0151 3A       		.uleb128 0x3a
 3041 0152 0B       		.uleb128 0xb
 3042 0153 3B       		.uleb128 0x3b
 3043 0154 0B       		.uleb128 0xb
 3044 0155 49       		.uleb128 0x49
 3045 0156 13       		.uleb128 0x13
 3046 0157 02       		.uleb128 0x2
 3047 0158 17       		.uleb128 0x17
 3048 0159 00       		.byte	0
 3049 015a 00       		.byte	0
 3050 015b 1D       		.uleb128 0x1d
 3051 015c 898201   		.uleb128 0x4109
 3052 015f 00       		.byte	0
 3053 0160 11       		.uleb128 0x11
ARM GAS  /tmp/ccPJkY7a.s 			page 55


 3054 0161 01       		.uleb128 0x1
 3055 0162 9542     		.uleb128 0x2115
 3056 0164 19       		.uleb128 0x19
 3057 0165 31       		.uleb128 0x31
 3058 0166 13       		.uleb128 0x13
 3059 0167 00       		.byte	0
 3060 0168 00       		.byte	0
 3061 0169 1E       		.uleb128 0x1e
 3062 016a 0B       		.uleb128 0xb
 3063 016b 01       		.byte	0x1
 3064 016c 11       		.uleb128 0x11
 3065 016d 01       		.uleb128 0x1
 3066 016e 12       		.uleb128 0x12
 3067 016f 06       		.uleb128 0x6
 3068 0170 01       		.uleb128 0x1
 3069 0171 13       		.uleb128 0x13
 3070 0172 00       		.byte	0
 3071 0173 00       		.byte	0
 3072 0174 1F       		.uleb128 0x1f
 3073 0175 34       		.uleb128 0x34
 3074 0176 00       		.byte	0
 3075 0177 03       		.uleb128 0x3
 3076 0178 08       		.uleb128 0x8
 3077 0179 3A       		.uleb128 0x3a
 3078 017a 0B       		.uleb128 0xb
 3079 017b 3B       		.uleb128 0x3b
 3080 017c 0B       		.uleb128 0xb
 3081 017d 49       		.uleb128 0x49
 3082 017e 13       		.uleb128 0x13
 3083 017f 02       		.uleb128 0x2
 3084 0180 18       		.uleb128 0x18
 3085 0181 00       		.byte	0
 3086 0182 00       		.byte	0
 3087 0183 20       		.uleb128 0x20
 3088 0184 34       		.uleb128 0x34
 3089 0185 00       		.byte	0
 3090 0186 03       		.uleb128 0x3
 3091 0187 08       		.uleb128 0x8
 3092 0188 3A       		.uleb128 0x3a
 3093 0189 0B       		.uleb128 0xb
 3094 018a 3B       		.uleb128 0x3b
 3095 018b 0B       		.uleb128 0xb
 3096 018c 49       		.uleb128 0x49
 3097 018d 13       		.uleb128 0x13
 3098 018e 02       		.uleb128 0x2
 3099 018f 17       		.uleb128 0x17
 3100 0190 00       		.byte	0
 3101 0191 00       		.byte	0
 3102 0192 21       		.uleb128 0x21
 3103 0193 898201   		.uleb128 0x4109
 3104 0196 00       		.byte	0
 3105 0197 11       		.uleb128 0x11
 3106 0198 01       		.uleb128 0x1
 3107 0199 31       		.uleb128 0x31
 3108 019a 13       		.uleb128 0x13
 3109 019b 00       		.byte	0
 3110 019c 00       		.byte	0
ARM GAS  /tmp/ccPJkY7a.s 			page 56


 3111 019d 22       		.uleb128 0x22
 3112 019e 898201   		.uleb128 0x4109
 3113 01a1 01       		.byte	0x1
 3114 01a2 11       		.uleb128 0x11
 3115 01a3 01       		.uleb128 0x1
 3116 01a4 01       		.uleb128 0x1
 3117 01a5 13       		.uleb128 0x13
 3118 01a6 00       		.byte	0
 3119 01a7 00       		.byte	0
 3120 01a8 23       		.uleb128 0x23
 3121 01a9 8A8201   		.uleb128 0x410a
 3122 01ac 00       		.byte	0
 3123 01ad 02       		.uleb128 0x2
 3124 01ae 18       		.uleb128 0x18
 3125 01af 9142     		.uleb128 0x2111
 3126 01b1 18       		.uleb128 0x18
 3127 01b2 00       		.byte	0
 3128 01b3 00       		.byte	0
 3129 01b4 24       		.uleb128 0x24
 3130 01b5 2E       		.uleb128 0x2e
 3131 01b6 01       		.byte	0x1
 3132 01b7 3F       		.uleb128 0x3f
 3133 01b8 19       		.uleb128 0x19
 3134 01b9 03       		.uleb128 0x3
 3135 01ba 0E       		.uleb128 0xe
 3136 01bb 3A       		.uleb128 0x3a
 3137 01bc 0B       		.uleb128 0xb
 3138 01bd 3B       		.uleb128 0x3b
 3139 01be 0B       		.uleb128 0xb
 3140 01bf 27       		.uleb128 0x27
 3141 01c0 19       		.uleb128 0x19
 3142 01c1 11       		.uleb128 0x11
 3143 01c2 01       		.uleb128 0x1
 3144 01c3 12       		.uleb128 0x12
 3145 01c4 06       		.uleb128 0x6
 3146 01c5 40       		.uleb128 0x40
 3147 01c6 18       		.uleb128 0x18
 3148 01c7 9742     		.uleb128 0x2117
 3149 01c9 19       		.uleb128 0x19
 3150 01ca 01       		.uleb128 0x1
 3151 01cb 13       		.uleb128 0x13
 3152 01cc 00       		.byte	0
 3153 01cd 00       		.byte	0
 3154 01ce 25       		.uleb128 0x25
 3155 01cf 898201   		.uleb128 0x4109
 3156 01d2 01       		.byte	0x1
 3157 01d3 11       		.uleb128 0x11
 3158 01d4 01       		.uleb128 0x1
 3159 01d5 31       		.uleb128 0x31
 3160 01d6 13       		.uleb128 0x13
 3161 01d7 00       		.byte	0
 3162 01d8 00       		.byte	0
 3163 01d9 26       		.uleb128 0x26
 3164 01da 2E       		.uleb128 0x2e
 3165 01db 01       		.byte	0x1
 3166 01dc 3F       		.uleb128 0x3f
 3167 01dd 19       		.uleb128 0x19
ARM GAS  /tmp/ccPJkY7a.s 			page 57


 3168 01de 03       		.uleb128 0x3
 3169 01df 0E       		.uleb128 0xe
 3170 01e0 3A       		.uleb128 0x3a
 3171 01e1 0B       		.uleb128 0xb
 3172 01e2 3B       		.uleb128 0x3b
 3173 01e3 05       		.uleb128 0x5
 3174 01e4 27       		.uleb128 0x27
 3175 01e5 19       		.uleb128 0x19
 3176 01e6 11       		.uleb128 0x11
 3177 01e7 01       		.uleb128 0x1
 3178 01e8 12       		.uleb128 0x12
 3179 01e9 06       		.uleb128 0x6
 3180 01ea 40       		.uleb128 0x40
 3181 01eb 18       		.uleb128 0x18
 3182 01ec 9742     		.uleb128 0x2117
 3183 01ee 19       		.uleb128 0x19
 3184 01ef 01       		.uleb128 0x1
 3185 01f0 13       		.uleb128 0x13
 3186 01f1 00       		.byte	0
 3187 01f2 00       		.byte	0
 3188 01f3 27       		.uleb128 0x27
 3189 01f4 05       		.uleb128 0x5
 3190 01f5 00       		.byte	0
 3191 01f6 03       		.uleb128 0x3
 3192 01f7 0E       		.uleb128 0xe
 3193 01f8 3A       		.uleb128 0x3a
 3194 01f9 0B       		.uleb128 0xb
 3195 01fa 3B       		.uleb128 0x3b
 3196 01fb 05       		.uleb128 0x5
 3197 01fc 49       		.uleb128 0x49
 3198 01fd 13       		.uleb128 0x13
 3199 01fe 02       		.uleb128 0x2
 3200 01ff 17       		.uleb128 0x17
 3201 0200 00       		.byte	0
 3202 0201 00       		.byte	0
 3203 0202 28       		.uleb128 0x28
 3204 0203 0B       		.uleb128 0xb
 3205 0204 01       		.byte	0x1
 3206 0205 11       		.uleb128 0x11
 3207 0206 01       		.uleb128 0x1
 3208 0207 12       		.uleb128 0x12
 3209 0208 06       		.uleb128 0x6
 3210 0209 00       		.byte	0
 3211 020a 00       		.byte	0
 3212 020b 29       		.uleb128 0x29
 3213 020c 34       		.uleb128 0x34
 3214 020d 00       		.byte	0
 3215 020e 03       		.uleb128 0x3
 3216 020f 08       		.uleb128 0x8
 3217 0210 3A       		.uleb128 0x3a
 3218 0211 0B       		.uleb128 0xb
 3219 0212 3B       		.uleb128 0x3b
 3220 0213 05       		.uleb128 0x5
 3221 0214 49       		.uleb128 0x49
 3222 0215 13       		.uleb128 0x13
 3223 0216 02       		.uleb128 0x2
 3224 0217 17       		.uleb128 0x17
ARM GAS  /tmp/ccPJkY7a.s 			page 58


 3225 0218 00       		.byte	0
 3226 0219 00       		.byte	0
 3227 021a 2A       		.uleb128 0x2a
 3228 021b 898201   		.uleb128 0x4109
 3229 021e 01       		.byte	0x1
 3230 021f 11       		.uleb128 0x11
 3231 0220 01       		.uleb128 0x1
 3232 0221 31       		.uleb128 0x31
 3233 0222 13       		.uleb128 0x13
 3234 0223 01       		.uleb128 0x1
 3235 0224 13       		.uleb128 0x13
 3236 0225 00       		.byte	0
 3237 0226 00       		.byte	0
 3238 0227 2B       		.uleb128 0x2b
 3239 0228 05       		.uleb128 0x5
 3240 0229 00       		.byte	0
 3241 022a 03       		.uleb128 0x3
 3242 022b 0E       		.uleb128 0xe
 3243 022c 3A       		.uleb128 0x3a
 3244 022d 0B       		.uleb128 0xb
 3245 022e 3B       		.uleb128 0x3b
 3246 022f 05       		.uleb128 0x5
 3247 0230 49       		.uleb128 0x49
 3248 0231 13       		.uleb128 0x13
 3249 0232 02       		.uleb128 0x2
 3250 0233 18       		.uleb128 0x18
 3251 0234 00       		.byte	0
 3252 0235 00       		.byte	0
 3253 0236 2C       		.uleb128 0x2c
 3254 0237 05       		.uleb128 0x5
 3255 0238 00       		.byte	0
 3256 0239 03       		.uleb128 0x3
 3257 023a 08       		.uleb128 0x8
 3258 023b 3A       		.uleb128 0x3a
 3259 023c 0B       		.uleb128 0xb
 3260 023d 3B       		.uleb128 0x3b
 3261 023e 05       		.uleb128 0x5
 3262 023f 49       		.uleb128 0x49
 3263 0240 13       		.uleb128 0x13
 3264 0241 02       		.uleb128 0x2
 3265 0242 17       		.uleb128 0x17
 3266 0243 00       		.byte	0
 3267 0244 00       		.byte	0
 3268 0245 2D       		.uleb128 0x2d
 3269 0246 05       		.uleb128 0x5
 3270 0247 00       		.byte	0
 3271 0248 03       		.uleb128 0x3
 3272 0249 08       		.uleb128 0x8
 3273 024a 3A       		.uleb128 0x3a
 3274 024b 0B       		.uleb128 0xb
 3275 024c 3B       		.uleb128 0x3b
 3276 024d 05       		.uleb128 0x5
 3277 024e 49       		.uleb128 0x49
 3278 024f 13       		.uleb128 0x13
 3279 0250 02       		.uleb128 0x2
 3280 0251 18       		.uleb128 0x18
 3281 0252 00       		.byte	0
ARM GAS  /tmp/ccPJkY7a.s 			page 59


 3282 0253 00       		.byte	0
 3283 0254 2E       		.uleb128 0x2e
 3284 0255 26       		.uleb128 0x26
 3285 0256 00       		.byte	0
 3286 0257 00       		.byte	0
 3287 0258 00       		.byte	0
 3288 0259 2F       		.uleb128 0x2f
 3289 025a 2E       		.uleb128 0x2e
 3290 025b 01       		.byte	0x1
 3291 025c 3F       		.uleb128 0x3f
 3292 025d 19       		.uleb128 0x19
 3293 025e 03       		.uleb128 0x3
 3294 025f 0E       		.uleb128 0xe
 3295 0260 3A       		.uleb128 0x3a
 3296 0261 0B       		.uleb128 0xb
 3297 0262 3B       		.uleb128 0x3b
 3298 0263 05       		.uleb128 0x5
 3299 0264 27       		.uleb128 0x27
 3300 0265 19       		.uleb128 0x19
 3301 0266 49       		.uleb128 0x49
 3302 0267 13       		.uleb128 0x13
 3303 0268 11       		.uleb128 0x11
 3304 0269 01       		.uleb128 0x1
 3305 026a 12       		.uleb128 0x12
 3306 026b 06       		.uleb128 0x6
 3307 026c 40       		.uleb128 0x40
 3308 026d 18       		.uleb128 0x18
 3309 026e 9742     		.uleb128 0x2117
 3310 0270 19       		.uleb128 0x19
 3311 0271 01       		.uleb128 0x1
 3312 0272 13       		.uleb128 0x13
 3313 0273 00       		.byte	0
 3314 0274 00       		.byte	0
 3315 0275 30       		.uleb128 0x30
 3316 0276 34       		.uleb128 0x34
 3317 0277 00       		.byte	0
 3318 0278 03       		.uleb128 0x3
 3319 0279 0E       		.uleb128 0xe
 3320 027a 3A       		.uleb128 0x3a
 3321 027b 0B       		.uleb128 0xb
 3322 027c 3B       		.uleb128 0x3b
 3323 027d 0B       		.uleb128 0xb
 3324 027e 49       		.uleb128 0x49
 3325 027f 13       		.uleb128 0x13
 3326 0280 02       		.uleb128 0x2
 3327 0281 18       		.uleb128 0x18
 3328 0282 00       		.byte	0
 3329 0283 00       		.byte	0
 3330 0284 31       		.uleb128 0x31
 3331 0285 34       		.uleb128 0x34
 3332 0286 00       		.byte	0
 3333 0287 03       		.uleb128 0x3
 3334 0288 0E       		.uleb128 0xe
 3335 0289 3A       		.uleb128 0x3a
 3336 028a 0B       		.uleb128 0xb
 3337 028b 3B       		.uleb128 0x3b
 3338 028c 05       		.uleb128 0x5
ARM GAS  /tmp/ccPJkY7a.s 			page 60


 3339 028d 49       		.uleb128 0x49
 3340 028e 13       		.uleb128 0x13
 3341 028f 3F       		.uleb128 0x3f
 3342 0290 19       		.uleb128 0x19
 3343 0291 3C       		.uleb128 0x3c
 3344 0292 19       		.uleb128 0x19
 3345 0293 00       		.byte	0
 3346 0294 00       		.byte	0
 3347 0295 32       		.uleb128 0x32
 3348 0296 34       		.uleb128 0x34
 3349 0297 00       		.byte	0
 3350 0298 03       		.uleb128 0x3
 3351 0299 0E       		.uleb128 0xe
 3352 029a 3A       		.uleb128 0x3a
 3353 029b 0B       		.uleb128 0xb
 3354 029c 3B       		.uleb128 0x3b
 3355 029d 0B       		.uleb128 0xb
 3356 029e 49       		.uleb128 0x49
 3357 029f 13       		.uleb128 0x13
 3358 02a0 3F       		.uleb128 0x3f
 3359 02a1 19       		.uleb128 0x19
 3360 02a2 02       		.uleb128 0x2
 3361 02a3 18       		.uleb128 0x18
 3362 02a4 00       		.byte	0
 3363 02a5 00       		.byte	0
 3364 02a6 33       		.uleb128 0x33
 3365 02a7 2E       		.uleb128 0x2e
 3366 02a8 00       		.byte	0
 3367 02a9 3F       		.uleb128 0x3f
 3368 02aa 19       		.uleb128 0x19
 3369 02ab 03       		.uleb128 0x3
 3370 02ac 0E       		.uleb128 0xe
 3371 02ad 3A       		.uleb128 0x3a
 3372 02ae 0B       		.uleb128 0xb
 3373 02af 3B       		.uleb128 0x3b
 3374 02b0 05       		.uleb128 0x5
 3375 02b1 27       		.uleb128 0x27
 3376 02b2 19       		.uleb128 0x19
 3377 02b3 3C       		.uleb128 0x3c
 3378 02b4 19       		.uleb128 0x19
 3379 02b5 00       		.byte	0
 3380 02b6 00       		.byte	0
 3381 02b7 34       		.uleb128 0x34
 3382 02b8 2E       		.uleb128 0x2e
 3383 02b9 01       		.byte	0x1
 3384 02ba 3F       		.uleb128 0x3f
 3385 02bb 19       		.uleb128 0x19
 3386 02bc 03       		.uleb128 0x3
 3387 02bd 0E       		.uleb128 0xe
 3388 02be 3A       		.uleb128 0x3a
 3389 02bf 0B       		.uleb128 0xb
 3390 02c0 3B       		.uleb128 0x3b
 3391 02c1 0B       		.uleb128 0xb
 3392 02c2 27       		.uleb128 0x27
 3393 02c3 19       		.uleb128 0x19
 3394 02c4 49       		.uleb128 0x49
 3395 02c5 13       		.uleb128 0x13
ARM GAS  /tmp/ccPJkY7a.s 			page 61


 3396 02c6 3C       		.uleb128 0x3c
 3397 02c7 19       		.uleb128 0x19
 3398 02c8 01       		.uleb128 0x1
 3399 02c9 13       		.uleb128 0x13
 3400 02ca 00       		.byte	0
 3401 02cb 00       		.byte	0
 3402 02cc 35       		.uleb128 0x35
 3403 02cd 2E       		.uleb128 0x2e
 3404 02ce 00       		.byte	0
 3405 02cf 3F       		.uleb128 0x3f
 3406 02d0 19       		.uleb128 0x19
 3407 02d1 03       		.uleb128 0x3
 3408 02d2 0E       		.uleb128 0xe
 3409 02d3 3A       		.uleb128 0x3a
 3410 02d4 0B       		.uleb128 0xb
 3411 02d5 3B       		.uleb128 0x3b
 3412 02d6 0B       		.uleb128 0xb
 3413 02d7 27       		.uleb128 0x27
 3414 02d8 19       		.uleb128 0x19
 3415 02d9 3C       		.uleb128 0x3c
 3416 02da 19       		.uleb128 0x19
 3417 02db 00       		.byte	0
 3418 02dc 00       		.byte	0
 3419 02dd 36       		.uleb128 0x36
 3420 02de 2E       		.uleb128 0x2e
 3421 02df 01       		.byte	0x1
 3422 02e0 3F       		.uleb128 0x3f
 3423 02e1 19       		.uleb128 0x19
 3424 02e2 03       		.uleb128 0x3
 3425 02e3 0E       		.uleb128 0xe
 3426 02e4 3A       		.uleb128 0x3a
 3427 02e5 0B       		.uleb128 0xb
 3428 02e6 3B       		.uleb128 0x3b
 3429 02e7 05       		.uleb128 0x5
 3430 02e8 27       		.uleb128 0x27
 3431 02e9 19       		.uleb128 0x19
 3432 02ea 3C       		.uleb128 0x3c
 3433 02eb 19       		.uleb128 0x19
 3434 02ec 01       		.uleb128 0x1
 3435 02ed 13       		.uleb128 0x13
 3436 02ee 00       		.byte	0
 3437 02ef 00       		.byte	0
 3438 02f0 37       		.uleb128 0x37
 3439 02f1 2E       		.uleb128 0x2e
 3440 02f2 01       		.byte	0x1
 3441 02f3 3F       		.uleb128 0x3f
 3442 02f4 19       		.uleb128 0x19
 3443 02f5 03       		.uleb128 0x3
 3444 02f6 0E       		.uleb128 0xe
 3445 02f7 3A       		.uleb128 0x3a
 3446 02f8 0B       		.uleb128 0xb
 3447 02f9 3B       		.uleb128 0x3b
 3448 02fa 05       		.uleb128 0x5
 3449 02fb 27       		.uleb128 0x27
 3450 02fc 19       		.uleb128 0x19
 3451 02fd 49       		.uleb128 0x49
 3452 02fe 13       		.uleb128 0x13
ARM GAS  /tmp/ccPJkY7a.s 			page 62


 3453 02ff 3C       		.uleb128 0x3c
 3454 0300 19       		.uleb128 0x19
 3455 0301 01       		.uleb128 0x1
 3456 0302 13       		.uleb128 0x13
 3457 0303 00       		.byte	0
 3458 0304 00       		.byte	0
 3459 0305 38       		.uleb128 0x38
 3460 0306 2E       		.uleb128 0x2e
 3461 0307 01       		.byte	0x1
 3462 0308 3F       		.uleb128 0x3f
 3463 0309 19       		.uleb128 0x19
 3464 030a 03       		.uleb128 0x3
 3465 030b 0E       		.uleb128 0xe
 3466 030c 3A       		.uleb128 0x3a
 3467 030d 0B       		.uleb128 0xb
 3468 030e 3B       		.uleb128 0x3b
 3469 030f 0B       		.uleb128 0xb
 3470 0310 27       		.uleb128 0x27
 3471 0311 19       		.uleb128 0x19
 3472 0312 3C       		.uleb128 0x3c
 3473 0313 19       		.uleb128 0x19
 3474 0314 01       		.uleb128 0x1
 3475 0315 13       		.uleb128 0x13
 3476 0316 00       		.byte	0
 3477 0317 00       		.byte	0
 3478 0318 39       		.uleb128 0x39
 3479 0319 2E       		.uleb128 0x2e
 3480 031a 01       		.byte	0x1
 3481 031b 3F       		.uleb128 0x3f
 3482 031c 19       		.uleb128 0x19
 3483 031d 03       		.uleb128 0x3
 3484 031e 0E       		.uleb128 0xe
 3485 031f 3A       		.uleb128 0x3a
 3486 0320 0B       		.uleb128 0xb
 3487 0321 3B       		.uleb128 0x3b
 3488 0322 05       		.uleb128 0x5
 3489 0323 27       		.uleb128 0x27
 3490 0324 19       		.uleb128 0x19
 3491 0325 3C       		.uleb128 0x3c
 3492 0326 19       		.uleb128 0x19
 3493 0327 00       		.byte	0
 3494 0328 00       		.byte	0
 3495 0329 00       		.byte	0
 3496              		.section	.debug_loc,"",%progbits
 3497              	.Ldebug_loc0:
 3498              	.LLST0:
 3499 0000 00000000 		.4byte	.LVL0
 3500 0004 0B000000 		.4byte	.LVL1-1
 3501 0008 0100     		.2byte	0x1
 3502 000a 50       		.byte	0x50
 3503 000b 0B000000 		.4byte	.LVL1-1
 3504 000f 0C000000 		.4byte	.LFE119
 3505 0013 0400     		.2byte	0x4
 3506 0015 F3       		.byte	0xf3
 3507 0016 01       		.uleb128 0x1
 3508 0017 50       		.byte	0x50
 3509 0018 9F       		.byte	0x9f
ARM GAS  /tmp/ccPJkY7a.s 			page 63


 3510 0019 00000000 		.4byte	0
 3511 001d 00000000 		.4byte	0
 3512              	.LLST1:
 3513 0021 00000000 		.4byte	.LVL0
 3514 0025 0B000000 		.4byte	.LVL1-1
 3515 0029 0100     		.2byte	0x1
 3516 002b 51       		.byte	0x51
 3517 002c 0B000000 		.4byte	.LVL1-1
 3518 0030 0C000000 		.4byte	.LFE119
 3519 0034 0400     		.2byte	0x4
 3520 0036 F3       		.byte	0xf3
 3521 0037 01       		.uleb128 0x1
 3522 0038 51       		.byte	0x51
 3523 0039 9F       		.byte	0x9f
 3524 003a 00000000 		.4byte	0
 3525 003e 00000000 		.4byte	0
 3526              	.LLST2:
 3527 0042 00000000 		.4byte	.LVL2
 3528 0046 0A000000 		.4byte	.LVL3
 3529 004a 0100     		.2byte	0x1
 3530 004c 50       		.byte	0x50
 3531 004d 0A000000 		.4byte	.LVL3
 3532 0051 82000000 		.4byte	.LVL10
 3533 0055 0100     		.2byte	0x1
 3534 0057 54       		.byte	0x54
 3535 0058 82000000 		.4byte	.LVL10
 3536 005c 85000000 		.4byte	.LVL11-1
 3537 0060 0100     		.2byte	0x1
 3538 0062 50       		.byte	0x50
 3539 0063 85000000 		.4byte	.LVL11-1
 3540 0067 88000000 		.4byte	.LFE118
 3541 006b 0100     		.2byte	0x1
 3542 006d 54       		.byte	0x54
 3543 006e 00000000 		.4byte	0
 3544 0072 00000000 		.4byte	0
 3545              	.LLST3:
 3546 0076 00000000 		.4byte	.LVL2
 3547 007a 0A000000 		.4byte	.LVL3
 3548 007e 0100     		.2byte	0x1
 3549 0080 51       		.byte	0x51
 3550 0081 0A000000 		.4byte	.LVL3
 3551 0085 82000000 		.4byte	.LVL10
 3552 0089 0400     		.2byte	0x4
 3553 008b F3       		.byte	0xf3
 3554 008c 01       		.uleb128 0x1
 3555 008d 51       		.byte	0x51
 3556 008e 9F       		.byte	0x9f
 3557 008f 82000000 		.4byte	.LVL10
 3558 0093 85000000 		.4byte	.LVL11-1
 3559 0097 0100     		.2byte	0x1
 3560 0099 51       		.byte	0x51
 3561 009a 85000000 		.4byte	.LVL11-1
 3562 009e 88000000 		.4byte	.LFE118
 3563 00a2 0400     		.2byte	0x4
 3564 00a4 F3       		.byte	0xf3
 3565 00a5 01       		.uleb128 0x1
 3566 00a6 51       		.byte	0x51
ARM GAS  /tmp/ccPJkY7a.s 			page 64


 3567 00a7 9F       		.byte	0x9f
 3568 00a8 00000000 		.4byte	0
 3569 00ac 00000000 		.4byte	0
 3570              	.LLST4:
 3571 00b0 64000000 		.4byte	.LVL6
 3572 00b4 6F000000 		.4byte	.LVL7-1
 3573 00b8 0100     		.2byte	0x1
 3574 00ba 53       		.byte	0x53
 3575 00bb 00000000 		.4byte	0
 3576 00bf 00000000 		.4byte	0
 3577              	.LLST5:
 3578 00c3 00000000 		.4byte	.LVL13
 3579 00c7 0C000000 		.4byte	.LVL14
 3580 00cb 0100     		.2byte	0x1
 3581 00cd 50       		.byte	0x50
 3582 00ce 0C000000 		.4byte	.LVL14
 3583 00d2 46000000 		.4byte	.LVL15
 3584 00d6 0100     		.2byte	0x1
 3585 00d8 54       		.byte	0x54
 3586 00d9 46000000 		.4byte	.LVL15
 3587 00dd 4C000000 		.4byte	.LVL16
 3588 00e1 0100     		.2byte	0x1
 3589 00e3 50       		.byte	0x50
 3590 00e4 4C000000 		.4byte	.LVL16
 3591 00e8 60000000 		.4byte	.LVL17
 3592 00ec 0100     		.2byte	0x1
 3593 00ee 54       		.byte	0x54
 3594 00ef 60000000 		.4byte	.LVL17
 3595 00f3 62000000 		.4byte	.LVL18
 3596 00f7 0100     		.2byte	0x1
 3597 00f9 50       		.byte	0x50
 3598 00fa 62000000 		.4byte	.LVL18
 3599 00fe B0000000 		.4byte	.LFE121
 3600 0102 0100     		.2byte	0x1
 3601 0104 54       		.byte	0x54
 3602 0105 00000000 		.4byte	0
 3603 0109 00000000 		.4byte	0
 3604              	.LLST6:
 3605 010d 6C000000 		.4byte	.LVL19
 3606 0111 6E000000 		.4byte	.LVL20
 3607 0115 0100     		.2byte	0x1
 3608 0117 50       		.byte	0x50
 3609 0118 7A000000 		.4byte	.LVL21
 3610 011c 7C000000 		.4byte	.LVL22
 3611 0120 0100     		.2byte	0x1
 3612 0122 50       		.byte	0x50
 3613 0123 88000000 		.4byte	.LVL23
 3614 0127 8A000000 		.4byte	.LVL24
 3615 012b 0100     		.2byte	0x1
 3616 012d 50       		.byte	0x50
 3617 012e 90000000 		.4byte	.LVL26
 3618 0132 92000000 		.4byte	.LVL27
 3619 0136 0100     		.2byte	0x1
 3620 0138 50       		.byte	0x50
 3621 0139 00000000 		.4byte	0
 3622 013d 00000000 		.4byte	0
 3623              	.LLST7:
ARM GAS  /tmp/ccPJkY7a.s 			page 65


 3624 0141 00000000 		.4byte	.LVL29
 3625 0145 0A000000 		.4byte	.LVL30
 3626 0149 0100     		.2byte	0x1
 3627 014b 50       		.byte	0x50
 3628 014c 0A000000 		.4byte	.LVL30
 3629 0150 0C000000 		.4byte	.LVL31
 3630 0154 0100     		.2byte	0x1
 3631 0156 54       		.byte	0x54
 3632 0157 0C000000 		.4byte	.LVL31
 3633 015b 10000000 		.4byte	.LVL32
 3634 015f 0100     		.2byte	0x1
 3635 0161 50       		.byte	0x50
 3636 0162 10000000 		.4byte	.LVL32
 3637 0166 3C000000 		.4byte	.LFE122
 3638 016a 0100     		.2byte	0x1
 3639 016c 54       		.byte	0x54
 3640 016d 00000000 		.4byte	0
 3641 0171 00000000 		.4byte	0
 3642              	.LLST8:
 3643 0175 00000000 		.4byte	.LVL37
 3644 0179 10000000 		.4byte	.LVL38
 3645 017d 0100     		.2byte	0x1
 3646 017f 50       		.byte	0x50
 3647 0180 10000000 		.4byte	.LVL38
 3648 0184 3C000000 		.4byte	.LFE125
 3649 0188 0400     		.2byte	0x4
 3650 018a F3       		.byte	0xf3
 3651 018b 01       		.uleb128 0x1
 3652 018c 50       		.byte	0x50
 3653 018d 9F       		.byte	0x9f
 3654 018e 00000000 		.4byte	0
 3655 0192 00000000 		.4byte	0
 3656              	.LLST9:
 3657 0196 00000000 		.4byte	.LVL37
 3658 019a 20000000 		.4byte	.LVL39
 3659 019e 0100     		.2byte	0x1
 3660 01a0 51       		.byte	0x51
 3661 01a1 20000000 		.4byte	.LVL39
 3662 01a5 3C000000 		.4byte	.LFE125
 3663 01a9 0400     		.2byte	0x4
 3664 01ab F3       		.byte	0xf3
 3665 01ac 01       		.uleb128 0x1
 3666 01ad 51       		.byte	0x51
 3667 01ae 9F       		.byte	0x9f
 3668 01af 00000000 		.4byte	0
 3669 01b3 00000000 		.4byte	0
 3670              	.LLST10:
 3671 01b7 00000000 		.4byte	.LVL40
 3672 01bb 0E000000 		.4byte	.LVL41
 3673 01bf 0100     		.2byte	0x1
 3674 01c1 50       		.byte	0x50
 3675 01c2 0E000000 		.4byte	.LVL41
 3676 01c6 36000000 		.4byte	.LFE126
 3677 01ca 0400     		.2byte	0x4
 3678 01cc F3       		.byte	0xf3
 3679 01cd 01       		.uleb128 0x1
 3680 01ce 50       		.byte	0x50
ARM GAS  /tmp/ccPJkY7a.s 			page 66


 3681 01cf 9F       		.byte	0x9f
 3682 01d0 00000000 		.4byte	0
 3683 01d4 00000000 		.4byte	0
 3684              	.LLST11:
 3685 01d8 00000000 		.4byte	.LVL40
 3686 01dc 24000000 		.4byte	.LVL42
 3687 01e0 0100     		.2byte	0x1
 3688 01e2 53       		.byte	0x53
 3689 01e3 24000000 		.4byte	.LVL42
 3690 01e7 36000000 		.4byte	.LFE126
 3691 01eb 0400     		.2byte	0x4
 3692 01ed F3       		.byte	0xf3
 3693 01ee 01       		.uleb128 0x1
 3694 01ef 53       		.byte	0x53
 3695 01f0 9F       		.byte	0x9f
 3696 01f1 00000000 		.4byte	0
 3697 01f5 00000000 		.4byte	0
 3698              	.LLST12:
 3699 01f9 00000000 		.4byte	.LVL43
 3700 01fd 0E000000 		.4byte	.LVL44
 3701 0201 0100     		.2byte	0x1
 3702 0203 50       		.byte	0x50
 3703 0204 0E000000 		.4byte	.LVL44
 3704 0208 38000000 		.4byte	.LFE127
 3705 020c 0400     		.2byte	0x4
 3706 020e F3       		.byte	0xf3
 3707 020f 01       		.uleb128 0x1
 3708 0210 50       		.byte	0x50
 3709 0211 9F       		.byte	0x9f
 3710 0212 00000000 		.4byte	0
 3711 0216 00000000 		.4byte	0
 3712              	.LLST13:
 3713 021a 00000000 		.4byte	.LVL43
 3714 021e 22000000 		.4byte	.LVL45
 3715 0222 0100     		.2byte	0x1
 3716 0224 52       		.byte	0x52
 3717 0225 22000000 		.4byte	.LVL45
 3718 0229 38000000 		.4byte	.LFE127
 3719 022d 0400     		.2byte	0x4
 3720 022f F3       		.byte	0xf3
 3721 0230 01       		.uleb128 0x1
 3722 0231 52       		.byte	0x52
 3723 0232 9F       		.byte	0x9f
 3724 0233 00000000 		.4byte	0
 3725 0237 00000000 		.4byte	0
 3726              	.LLST14:
 3727 023b 00000000 		.4byte	.LVL46
 3728 023f 0E000000 		.4byte	.LVL47
 3729 0243 0100     		.2byte	0x1
 3730 0245 50       		.byte	0x50
 3731 0246 0E000000 		.4byte	.LVL47
 3732 024a 38000000 		.4byte	.LFE128
 3733 024e 0400     		.2byte	0x4
 3734 0250 F3       		.byte	0xf3
 3735 0251 01       		.uleb128 0x1
 3736 0252 50       		.byte	0x50
 3737 0253 9F       		.byte	0x9f
ARM GAS  /tmp/ccPJkY7a.s 			page 67


 3738 0254 00000000 		.4byte	0
 3739 0258 00000000 		.4byte	0
 3740              	.LLST15:
 3741 025c 00000000 		.4byte	.LVL46
 3742 0260 22000000 		.4byte	.LVL48
 3743 0264 0100     		.2byte	0x1
 3744 0266 52       		.byte	0x52
 3745 0267 22000000 		.4byte	.LVL48
 3746 026b 38000000 		.4byte	.LFE128
 3747 026f 0400     		.2byte	0x4
 3748 0271 F3       		.byte	0xf3
 3749 0272 01       		.uleb128 0x1
 3750 0273 52       		.byte	0x52
 3751 0274 9F       		.byte	0x9f
 3752 0275 00000000 		.4byte	0
 3753 0279 00000000 		.4byte	0
 3754              	.LLST16:
 3755 027d 00000000 		.4byte	.LVL49
 3756 0281 0C000000 		.4byte	.LVL50
 3757 0285 0100     		.2byte	0x1
 3758 0287 50       		.byte	0x50
 3759 0288 0C000000 		.4byte	.LVL50
 3760 028c 10000000 		.4byte	.LFE129
 3761 0290 0400     		.2byte	0x4
 3762 0292 F3       		.byte	0xf3
 3763 0293 01       		.uleb128 0x1
 3764 0294 50       		.byte	0x50
 3765 0295 9F       		.byte	0x9f
 3766 0296 00000000 		.4byte	0
 3767 029a 00000000 		.4byte	0
 3768              		.section	.debug_aranges,"",%progbits
 3769 0000 74000000 		.4byte	0x74
 3770 0004 0200     		.2byte	0x2
 3771 0006 00000000 		.4byte	.Ldebug_info0
 3772 000a 04       		.byte	0x4
 3773 000b 00       		.byte	0
 3774 000c 0000     		.2byte	0
 3775 000e 0000     		.2byte	0
 3776 0010 00000000 		.4byte	.LFB119
 3777 0014 0C000000 		.4byte	.LFE119-.LFB119
 3778 0018 00000000 		.4byte	.LFB118
 3779 001c 88000000 		.4byte	.LFE118-.LFB118
 3780 0020 00000000 		.4byte	.LFB120
 3781 0024 44000000 		.4byte	.LFE120-.LFB120
 3782 0028 00000000 		.4byte	.LFB121
 3783 002c B0000000 		.4byte	.LFE121-.LFB121
 3784 0030 00000000 		.4byte	.LFB122
 3785 0034 3C000000 		.4byte	.LFE122-.LFB122
 3786 0038 00000000 		.4byte	.LFB123
 3787 003c 12000000 		.4byte	.LFE123-.LFB123
 3788 0040 00000000 		.4byte	.LFB124
 3789 0044 12000000 		.4byte	.LFE124-.LFB124
 3790 0048 00000000 		.4byte	.LFB125
 3791 004c 3C000000 		.4byte	.LFE125-.LFB125
 3792 0050 00000000 		.4byte	.LFB126
 3793 0054 36000000 		.4byte	.LFE126-.LFB126
 3794 0058 00000000 		.4byte	.LFB127
ARM GAS  /tmp/ccPJkY7a.s 			page 68


 3795 005c 38000000 		.4byte	.LFE127-.LFB127
 3796 0060 00000000 		.4byte	.LFB128
 3797 0064 38000000 		.4byte	.LFE128-.LFB128
 3798 0068 00000000 		.4byte	.LFB129
 3799 006c 10000000 		.4byte	.LFE129-.LFB129
 3800 0070 00000000 		.4byte	0
 3801 0074 00000000 		.4byte	0
 3802              		.section	.debug_ranges,"",%progbits
 3803              	.Ldebug_ranges0:
 3804 0000 00000000 		.4byte	.LFB119
 3805 0004 0C000000 		.4byte	.LFE119
 3806 0008 00000000 		.4byte	.LFB118
 3807 000c 88000000 		.4byte	.LFE118
 3808 0010 00000000 		.4byte	.LFB120
 3809 0014 44000000 		.4byte	.LFE120
 3810 0018 00000000 		.4byte	.LFB121
 3811 001c B0000000 		.4byte	.LFE121
 3812 0020 00000000 		.4byte	.LFB122
 3813 0024 3C000000 		.4byte	.LFE122
 3814 0028 00000000 		.4byte	.LFB123
 3815 002c 12000000 		.4byte	.LFE123
 3816 0030 00000000 		.4byte	.LFB124
 3817 0034 12000000 		.4byte	.LFE124
 3818 0038 00000000 		.4byte	.LFB125
 3819 003c 3C000000 		.4byte	.LFE125
 3820 0040 00000000 		.4byte	.LFB126
 3821 0044 36000000 		.4byte	.LFE126
 3822 0048 00000000 		.4byte	.LFB127
 3823 004c 38000000 		.4byte	.LFE127
 3824 0050 00000000 		.4byte	.LFB128
 3825 0054 38000000 		.4byte	.LFE128
 3826 0058 00000000 		.4byte	.LFB129
 3827 005c 10000000 		.4byte	.LFE129
 3828 0060 00000000 		.4byte	0
 3829 0064 00000000 		.4byte	0
 3830              		.section	.debug_line,"",%progbits
 3831              	.Ldebug_line0:
 3832 0000 1D040000 		.section	.debug_str,"MS",%progbits,1
 3832      02004502 
 3832      00000201 
 3832      FB0E0D00 
 3832      01010101 
 3833              	.LASF177:
 3834 0000 2E2E2F2E 		.ascii	"../../os/hal/platforms/STM32/SPIv1/spi_lld.c\000"
 3834      2E2F6F73 
 3834      2F68616C 
 3834      2F706C61 
 3834      74666F72 
 3835              	.LASF68:
 3836 002d 4D304152 		.ascii	"M0AR\000"
 3836      00
 3837              	.LASF2:
 3838 0032 73697A65 		.ascii	"size_t\000"
 3838      5F7400
 3839              	.LASF52:
 3840 0039 54687265 		.ascii	"ThreadsList\000"
 3840      6164734C 
ARM GAS  /tmp/ccPJkY7a.s 			page 69


 3840      69737400 
 3841              	.LASF62:
 3842 0045 7264796D 		.ascii	"rdymsg\000"
 3842      736700
 3843              	.LASF19:
 3844 004c 75696E74 		.ascii	"uint64_t\000"
 3844      36345F74 
 3844      00
 3845              	.LASF113:
 3846 0055 76656374 		.ascii	"vector\000"
 3846      6F7200
 3847              	.LASF118:
 3848 005c 4F545950 		.ascii	"OTYPER\000"
 3848      455200
 3849              	.LASF3:
 3850 0063 5F5F7569 		.ascii	"__uint8_t\000"
 3850      6E74385F 
 3850      7400
 3851              	.LASF131:
 3852 006d 5350495F 		.ascii	"SPI_ACTIVE\000"
 3852      41435449 
 3852      564500
 3853              	.LASF109:
 3854 0078 73747265 		.ascii	"stream\000"
 3854      616D00
 3855              	.LASF139:
 3856 007f 646D6172 		.ascii	"dmarx\000"
 3856      7800
 3857              	.LASF117:
 3858 0085 4D4F4445 		.ascii	"MODER\000"
 3858      5200
 3859              	.LASF14:
 3860 008b 6C6F6E67 		.ascii	"long long unsigned int\000"
 3860      206C6F6E 
 3860      6720756E 
 3860      7369676E 
 3860      65642069 
 3861              	.LASF130:
 3862 00a2 5350495F 		.ascii	"SPI_READY\000"
 3862      52454144 
 3862      5900
 3863              	.LASF120:
 3864 00ac 50555044 		.ascii	"PUPDR\000"
 3864      5200
 3865              	.LASF63:
 3866 00b2 65786974 		.ascii	"exitcode\000"
 3866      636F6465 
 3866      00
 3867              	.LASF167:
 3868 00bb 5F73746D 		.ascii	"_stm32_dma_streams\000"
 3868      33325F64 
 3868      6D615F73 
 3868      74726561 
 3868      6D7300
 3869              	.LASF134:
 3870 00ce 53504944 		.ascii	"SPIDriver\000"
 3870      72697665 
ARM GAS  /tmp/ccPJkY7a.s 			page 70


 3870      7200
 3871              	.LASF145:
 3872 00d8 7373706F 		.ascii	"ssport\000"
 3872      727400
 3873              	.LASF166:
 3874 00df 49544D5F 		.ascii	"ITM_RxBuffer\000"
 3874      52784275 
 3874      66666572 
 3874      00
 3875              	.LASF160:
 3876 00ec 72786275 		.ascii	"rxbuf\000"
 3876      6600
 3877              	.LASF87:
 3878 00f2 41484231 		.ascii	"AHB1LPENR\000"
 3878      4C50454E 
 3878      5200
 3879              	.LASF33:
 3880 00fc 705F7072 		.ascii	"p_prio\000"
 3880      696F00
 3881              	.LASF146:
 3882 0103 73737061 		.ascii	"sspad\000"
 3882      6400
 3883              	.LASF99:
 3884 0109 44434B43 		.ascii	"DCKCFGR\000"
 3884      46475200 
 3885              	.LASF12:
 3886 0111 6C6F6E67 		.ascii	"long long int\000"
 3886      206C6F6E 
 3886      6720696E 
 3886      7400
 3887              	.LASF1:
 3888 011f 7369676E 		.ascii	"signed char\000"
 3888      65642063 
 3888      68617200 
 3889              	.LASF121:
 3890 012b 42535252 		.ascii	"BSRR\000"
 3890      00
 3891              	.LASF73:
 3892 0130 41484231 		.ascii	"AHB1RSTR\000"
 3892      52535452 
 3892      00
 3893              	.LASF129:
 3894 0139 5350495F 		.ascii	"SPI_STOP\000"
 3894      53544F50 
 3894      00
 3895              	.LASF104:
 3896 0142 49325343 		.ascii	"I2SCFGR\000"
 3896      46475200 
 3897              	.LASF20:
 3898 014a 626F6F6C 		.ascii	"bool_t\000"
 3898      5F7400
 3899              	.LASF59:
 3900 0151 6D5F7175 		.ascii	"m_queue\000"
 3900      65756500 
 3901              	.LASF25:
 3902 0159 74736C69 		.ascii	"tslices_t\000"
 3902      6365735F 
ARM GAS  /tmp/ccPJkY7a.s 			page 71


 3902      7400
 3903              	.LASF163:
 3904 0163 6672616D 		.ascii	"frame\000"
 3904      6500
 3905              	.LASF135:
 3906 0169 73746174 		.ascii	"state\000"
 3906      6500
 3907              	.LASF9:
 3908 016f 6C6F6E67 		.ascii	"long int\000"
 3908      20696E74 
 3908      00
 3909              	.LASF151:
 3910 0178 7370695F 		.ascii	"spi_lld_serve_rx_interrupt\000"
 3910      6C6C645F 
 3910      73657276 
 3910      655F7278 
 3910      5F696E74 
 3911              	.LASF78:
 3912 0193 41504232 		.ascii	"APB2RSTR\000"
 3912      52535452 
 3912      00
 3913              	.LASF91:
 3914 019c 41504231 		.ascii	"APB1LPENR\000"
 3914      4C50454E 
 3914      5200
 3915              	.LASF23:
 3916 01a6 74737461 		.ascii	"tstate_t\000"
 3916      74655F74 
 3916      00
 3917              	.LASF108:
 3918 01af 5350495F 		.ascii	"SPI_TypeDef\000"
 3918      54797065 
 3918      44656600 
 3919              	.LASF35:
 3920 01bb 705F6E65 		.ascii	"p_newer\000"
 3920      77657200 
 3921              	.LASF144:
 3922 01c3 656E645F 		.ascii	"end_cb\000"
 3922      636200
 3923              	.LASF141:
 3924 01ca 7278646D 		.ascii	"rxdmamode\000"
 3924      616D6F64 
 3924      6500
 3925              	.LASF125:
 3926 01d4 4750494F 		.ascii	"GPIO_TypeDef\000"
 3926      5F547970 
 3926      65446566 
 3926      00
 3927              	.LASF140:
 3928 01e1 646D6174 		.ascii	"dmatx\000"
 3928      7800
 3929              	.LASF175:
 3930 01e7 63684462 		.ascii	"chDbgPanic\000"
 3930      6750616E 
 3930      696300
 3931              	.LASF119:
 3932 01f2 4F535045 		.ascii	"OSPEEDR\000"
ARM GAS  /tmp/ccPJkY7a.s 			page 72


 3932      45445200 
 3933              	.LASF10:
 3934 01fa 5F5F7569 		.ascii	"__uint32_t\000"
 3934      6E743332 
 3934      5F7400
 3935              	.LASF50:
 3936 0205 705F6D70 		.ascii	"p_mpool\000"
 3936      6F6F6C00 
 3937              	.LASF53:
 3938 020d 72656761 		.ascii	"regarm_t\000"
 3938      726D5F74 
 3938      00
 3939              	.LASF112:
 3940 0216 73656C66 		.ascii	"selfindex\000"
 3940      696E6465 
 3940      7800
 3941              	.LASF143:
 3942 0220 73706963 		.ascii	"spicallback_t\000"
 3942      616C6C62 
 3942      61636B5F 
 3942      7400
 3943              	.LASF142:
 3944 022e 7478646D 		.ascii	"txdmamode\000"
 3944      616D6F64 
 3944      6500
 3945              	.LASF161:
 3946 0238 7370695F 		.ascii	"spi_lld_send\000"
 3946      6C6C645F 
 3946      73656E64 
 3946      00
 3947              	.LASF38:
 3948 0245 705F7374 		.ascii	"p_stklimit\000"
 3948      6B6C696D 
 3948      697400
 3949              	.LASF0:
 3950 0250 756E7369 		.ascii	"unsigned int\000"
 3950      676E6564 
 3950      20696E74 
 3950      00
 3951              	.LASF156:
 3952 025d 7370695F 		.ascii	"spi_lld_unselect\000"
 3952      6C6C645F 
 3952      756E7365 
 3952      6C656374 
 3952      00
 3953              	.LASF159:
 3954 026e 74786275 		.ascii	"txbuf\000"
 3954      6600
 3955              	.LASF72:
 3956 0274 43464752 		.ascii	"CFGR\000"
 3956      00
 3957              	.LASF43:
 3958 0279 705F7469 		.ascii	"p_time\000"
 3958      6D6500
 3959              	.LASF115:
 3960 0280 73746D33 		.ascii	"stm32_dmaisr_t\000"
 3960      325F646D 
ARM GAS  /tmp/ccPJkY7a.s 			page 73


 3960      61697372 
 3960      5F7400
 3961              	.LASF45:
 3962 028f 705F6D73 		.ascii	"p_msgqueue\000"
 3962      67717565 
 3962      756500
 3963              	.LASF82:
 3964 029a 41484233 		.ascii	"AHB3ENR\000"
 3964      454E5200 
 3965              	.LASF100:
 3966 02a2 5243435F 		.ascii	"RCC_TypeDef\000"
 3966      54797065 
 3966      44656600 
 3967              	.LASF122:
 3968 02ae 4C434B52 		.ascii	"LCKR\000"
 3968      00
 3969              	.LASF111:
 3970 02b3 69736869 		.ascii	"ishift\000"
 3970      667400
 3971              	.LASF56:
 3972 02ba 636F6E74 		.ascii	"context\000"
 3972      65787400 
 3973              	.LASF7:
 3974 02c2 73686F72 		.ascii	"short unsigned int\000"
 3974      7420756E 
 3974      7369676E 
 3974      65642069 
 3974      6E7400
 3975              	.LASF97:
 3976 02d5 504C4C49 		.ascii	"PLLI2SCFGR\000"
 3976      32534346 
 3976      475200
 3977              	.LASF27:
 3978 02e0 6D73675F 		.ascii	"msg_t\000"
 3978      7400
 3979              	.LASF71:
 3980 02e6 504C4C43 		.ascii	"PLLCFGR\000"
 3980      46475200 
 3981              	.LASF165:
 3982 02ee 64756D6D 		.ascii	"dummyrx\000"
 3982      79727800 
 3983              	.LASF22:
 3984 02f6 746D6F64 		.ascii	"tmode_t\000"
 3984      655F7400 
 3985              	.LASF16:
 3986 02fe 75696E74 		.ascii	"uint16_t\000"
 3986      31365F74 
 3986      00
 3987              	.LASF92:
 3988 0307 41504232 		.ascii	"APB2LPENR\000"
 3988      4C50454E 
 3988      5200
 3989              	.LASF103:
 3990 0311 54584352 		.ascii	"TXCRCR\000"
 3990      435200
 3991              	.LASF28:
 3992 0318 6576656E 		.ascii	"eventmask_t\000"
ARM GAS  /tmp/ccPJkY7a.s 			page 74


 3992      746D6173 
 3992      6B5F7400 
 3993              	.LASF58:
 3994 0324 4D757465 		.ascii	"Mutex\000"
 3994      7800
 3995              	.LASF54:
 3996 032a 73746B61 		.ascii	"stkalign_t\000"
 3996      6C69676E 
 3996      5F7400
 3997              	.LASF152:
 3998 0335 7370695F 		.ascii	"spi_lld_init\000"
 3998      6C6C645F 
 3998      696E6974 
 3998      00
 3999              	.LASF162:
 4000 0342 7370695F 		.ascii	"spi_lld_receive\000"
 4000      6C6C645F 
 4000      72656365 
 4000      69766500 
 4001              	.LASF106:
 4002 0352 49325350 		.ascii	"I2SPR\000"
 4002      5200
 4003              	.LASF57:
 4004 0358 73697A65 		.ascii	"sizetype\000"
 4004      74797065 
 4004      00
 4005              	.LASF116:
 4006 0361 636C6561 		.ascii	"clear\000"
 4006      7200
 4007              	.LASF158:
 4008 0367 7370695F 		.ascii	"spi_lld_exchange\000"
 4008      6C6C645F 
 4008      65786368 
 4008      616E6765 
 4008      00
 4009              	.LASF31:
 4010 0378 705F6E65 		.ascii	"p_next\000"
 4010      787400
 4011              	.LASF126:
 4012 037f 696F706F 		.ascii	"ioportmask_t\000"
 4012      72746D61 
 4012      736B5F74 
 4012      00
 4013              	.LASF36:
 4014 038c 705F6F6C 		.ascii	"p_older\000"
 4014      64657200 
 4015              	.LASF51:
 4016 0394 54687265 		.ascii	"ThreadsQueue\000"
 4016      61647351 
 4016      75657565 
 4016      00
 4017              	.LASF88:
 4018 03a1 41484232 		.ascii	"AHB2LPENR\000"
 4018      4C50454E 
 4018      5200
 4019              	.LASF41:
 4020 03ab 705F7265 		.ascii	"p_refs\000"
ARM GAS  /tmp/ccPJkY7a.s 			page 75


 4020      667300
 4021              	.LASF77:
 4022 03b2 41504231 		.ascii	"APB1RSTR\000"
 4022      52535452 
 4022      00
 4023              	.LASF13:
 4024 03bb 5F5F7569 		.ascii	"__uint64_t\000"
 4024      6E743634 
 4024      5F7400
 4025              	.LASF124:
 4026 03c6 41465248 		.ascii	"AFRH\000"
 4026      00
 4027              	.LASF101:
 4028 03cb 43524350 		.ascii	"CRCPR\000"
 4028      5200
 4029              	.LASF123:
 4030 03d1 4146524C 		.ascii	"AFRL\000"
 4030      00
 4031              	.LASF98:
 4032 03d6 504C4C53 		.ascii	"PLLSAICFGR\000"
 4032      41494346 
 4032      475200
 4033              	.LASF24:
 4034 03e1 74726566 		.ascii	"trefs_t\000"
 4034      735F7400 
 4035              	.LASF76:
 4036 03e9 52455345 		.ascii	"RESERVED0\000"
 4036      52564544 
 4036      3000
 4037              	.LASF79:
 4038 03f3 52455345 		.ascii	"RESERVED1\000"
 4038      52564544 
 4038      3100
 4039              	.LASF83:
 4040 03fd 52455345 		.ascii	"RESERVED2\000"
 4040      52564544 
 4040      3200
 4041              	.LASF86:
 4042 0407 52455345 		.ascii	"RESERVED3\000"
 4042      52564544 
 4042      3300
 4043              	.LASF90:
 4044 0411 52455345 		.ascii	"RESERVED4\000"
 4044      52564544 
 4044      3400
 4045              	.LASF32:
 4046 041b 705F7072 		.ascii	"p_prev\000"
 4046      657600
 4047              	.LASF95:
 4048 0422 52455345 		.ascii	"RESERVED6\000"
 4048      52564544 
 4048      3600
 4049              	.LASF105:
 4050 042c 52455345 		.ascii	"RESERVED7\000"
 4050      52564544 
 4050      3700
 4051              	.LASF107:
ARM GAS  /tmp/ccPJkY7a.s 			page 76


 4052 0436 52455345 		.ascii	"RESERVED8\000"
 4052      52564544 
 4052      3800
 4053              	.LASF26:
 4054 0440 74707269 		.ascii	"tprio_t\000"
 4054      6F5F7400 
 4055              	.LASF138:
 4056 0448 6D757465 		.ascii	"mutex\000"
 4056      7800
 4057              	.LASF21:
 4058 044e 5F426F6F 		.ascii	"_Bool\000"
 4058      6C00
 4059              	.LASF17:
 4060 0454 696E7433 		.ascii	"int32_t\000"
 4060      325F7400 
 4061              	.LASF4:
 4062 045c 756E7369 		.ascii	"unsigned char\000"
 4062      676E6564 
 4062      20636861 
 4062      7200
 4063              	.LASF114:
 4064 046a 73746D33 		.ascii	"stm32_dma_stream_t\000"
 4064      325F646D 
 4064      615F7374 
 4064      7265616D 
 4064      5F7400
 4065              	.LASF168:
 4066 047d 53504944 		.ascii	"SPID2\000"
 4066      3200
 4067              	.LASF164:
 4068 0483 64756D6D 		.ascii	"dummytx\000"
 4068      79747800 
 4069              	.LASF39:
 4070 048b 705F7374 		.ascii	"p_state\000"
 4070      61746500 
 4071              	.LASF48:
 4072 0493 705F6D74 		.ascii	"p_mtxlist\000"
 4072      786C6973 
 4072      7400
 4073              	.LASF5:
 4074 049d 73686F72 		.ascii	"short int\000"
 4074      7420696E 
 4074      7400
 4075              	.LASF42:
 4076 04a7 705F7072 		.ascii	"p_preempt\000"
 4076      65656D70 
 4076      7400
 4077              	.LASF89:
 4078 04b1 41484233 		.ascii	"AHB3LPENR\000"
 4078      4C50454E 
 4078      5200
 4079              	.LASF174:
 4080 04bb 7370694F 		.ascii	"spiObjectInit\000"
 4080      626A6563 
 4080      74496E69 
 4080      7400
 4081              	.LASF65:
ARM GAS  /tmp/ccPJkY7a.s 			page 77


 4082 04c9 65776D61 		.ascii	"ewmask\000"
 4082      736B00
 4083              	.LASF40:
 4084 04d0 705F666C 		.ascii	"p_flags\000"
 4084      61677300 
 4085              	.LASF85:
 4086 04d8 41504232 		.ascii	"APB2ENR\000"
 4086      454E5200 
 4087              	.LASF75:
 4088 04e0 41484233 		.ascii	"AHB3RSTR\000"
 4088      52535452 
 4088      00
 4089              	.LASF30:
 4090 04e9 54687265 		.ascii	"Thread\000"
 4090      616400
 4091              	.LASF47:
 4092 04f0 705F6570 		.ascii	"p_epending\000"
 4092      656E6469 
 4092      6E6700
 4093              	.LASF110:
 4094 04fb 69666372 		.ascii	"ifcr\000"
 4094      00
 4095              	.LASF93:
 4096 0500 52455345 		.ascii	"RESERVED5\000"
 4096      52564544 
 4096      3500
 4097              	.LASF18:
 4098 050a 75696E74 		.ascii	"uint32_t\000"
 4098      33325F74 
 4098      00
 4099              	.LASF172:
 4100 0513 63685363 		.ascii	"chSchReadyI\000"
 4100      68526561 
 4100      64794900 
 4101              	.LASF84:
 4102 051f 41504231 		.ascii	"APB1ENR\000"
 4102      454E5200 
 4103              	.LASF11:
 4104 0527 6C6F6E67 		.ascii	"long unsigned int\000"
 4104      20756E73 
 4104      69676E65 
 4104      6420696E 
 4104      7400
 4105              	.LASF66:
 4106 0539 63686172 		.ascii	"char\000"
 4106      00
 4107              	.LASF154:
 4108 053e 7370695F 		.ascii	"spi_lld_stop\000"
 4108      6C6C645F 
 4108      73746F70 
 4108      00
 4109              	.LASF180:
 4110 054b 646D6153 		.ascii	"dmaStreamRelease\000"
 4110      74726561 
 4110      6D52656C 
 4110      65617365 
 4110      00
ARM GAS  /tmp/ccPJkY7a.s 			page 78


 4111              	.LASF132:
 4112 055c 5350495F 		.ascii	"SPI_COMPLETE\000"
 4112      434F4D50 
 4112      4C455445 
 4112      00
 4113              	.LASF136:
 4114 0569 636F6E66 		.ascii	"config\000"
 4114      696700
 4115              	.LASF169:
 4116 0570 706F7274 		.ascii	"port_halt\000"
 4116      5F68616C 
 4116      7400
 4117              	.LASF6:
 4118 057a 5F5F7569 		.ascii	"__uint16_t\000"
 4118      6E743136 
 4118      5F7400
 4119              	.LASF74:
 4120 0585 41484232 		.ascii	"AHB2RSTR\000"
 4120      52535452 
 4120      00
 4121              	.LASF133:
 4122 058e 73706973 		.ascii	"spistate_t\000"
 4122      74617465 
 4122      5F7400
 4123              	.LASF61:
 4124 0599 6D5F6E65 		.ascii	"m_next\000"
 4124      787400
 4125              	.LASF29:
 4126 05a0 73797374 		.ascii	"systime_t\000"
 4126      696D655F 
 4126      7400
 4127              	.LASF49:
 4128 05aa 705F7265 		.ascii	"p_realprio\000"
 4128      616C7072 
 4128      696F00
 4129              	.LASF8:
 4130 05b5 5F5F696E 		.ascii	"__int32_t\000"
 4130      7433325F 
 4130      7400
 4131              	.LASF137:
 4132 05bf 74687265 		.ascii	"thread\000"
 4132      616400
 4133              	.LASF67:
 4134 05c6 4E445452 		.ascii	"NDTR\000"
 4134      00
 4135              	.LASF70:
 4136 05cb 444D415F 		.ascii	"DMA_Stream_TypeDef\000"
 4136      53747265 
 4136      616D5F54 
 4136      79706544 
 4136      656600
 4137              	.LASF127:
 4138 05de 696F706F 		.ascii	"ioportid_t\000"
 4138      72746964 
 4138      5F7400
 4139              	.LASF81:
 4140 05e9 41484232 		.ascii	"AHB2ENR\000"
ARM GAS  /tmp/ccPJkY7a.s 			page 79


 4140      454E5200 
 4141              	.LASF155:
 4142 05f1 7370695F 		.ascii	"spi_lld_select\000"
 4142      6C6C645F 
 4142      73656C65 
 4142      637400
 4143              	.LASF171:
 4144 0600 6462675F 		.ascii	"dbg_check_unlock_from_isr\000"
 4144      63686563 
 4144      6B5F756E 
 4144      6C6F636B 
 4144      5F66726F 
 4145              	.LASF178:
 4146 061a 2F686F6D 		.ascii	"/home/makkmarci/devel/ChibiOS_2.6.5/projects/STM32F"
 4146      652F6D61 
 4146      6B6B6D61 
 4146      7263692F 
 4146      64657665 
 4147 064d 345F4368 		.ascii	"4_ChibiOS_uGFX/\000"
 4147      6962694F 
 4147      535F7547 
 4147      46582F00 
 4148              	.LASF55:
 4149 065d 696E7463 		.ascii	"intctx\000"
 4149      747800
 4150              	.LASF69:
 4151 0664 4D314152 		.ascii	"M1AR\000"
 4151      00
 4152              	.LASF128:
 4153 0669 5350495F 		.ascii	"SPI_UNINIT\000"
 4153      554E494E 
 4153      495400
 4154              	.LASF96:
 4155 0674 53534347 		.ascii	"SSCGR\000"
 4155      5200
 4156              	.LASF157:
 4157 067a 7370695F 		.ascii	"spi_lld_ignore\000"
 4157      6C6C645F 
 4157      69676E6F 
 4157      726500
 4158              	.LASF94:
 4159 0689 42444352 		.ascii	"BDCR\000"
 4159      00
 4160              	.LASF102:
 4161 068e 52584352 		.ascii	"RXCRCR\000"
 4161      435200
 4162              	.LASF153:
 4163 0695 7370695F 		.ascii	"spi_lld_start\000"
 4163      6C6C645F 
 4163      73746172 
 4163      7400
 4164              	.LASF15:
 4165 06a3 75696E74 		.ascii	"uint8_t\000"
 4165      385F7400 
 4166              	.LASF148:
 4167 06ab 73706970 		.ascii	"spip\000"
 4167      00
ARM GAS  /tmp/ccPJkY7a.s 			page 80


 4168              	.LASF176:
 4169 06b0 474E5520 		.ascii	"GNU C 4.8.4 20140526 (release) [ARM/embedded-4_8-br"
 4169      4320342E 
 4169      382E3420 
 4169      32303134 
 4169      30353236 
 4170 06e3 616E6368 		.ascii	"anch revision 211358] -mcpu=cortex-m4 -mfloat-abi=h"
 4170      20726576 
 4170      6973696F 
 4170      6E203231 
 4170      31333538 
 4171 0716 61726420 		.ascii	"ard -mfpu=fpv4-sp-d16 -mno-thumb-interwork -mthumb "
 4171      2D6D6670 
 4171      753D6670 
 4171      76342D73 
 4171      702D6431 
 4172 0749 2D676764 		.ascii	"-ggdb -O2 -fomit-frame-pointer -falign-functions=16"
 4172      62202D4F 
 4172      32202D66 
 4172      6F6D6974 
 4172      2D667261 
 4173 077c 202D6666 		.ascii	" -ffunction-sections -fdata-sections -fno-common -f"
 4173      756E6374 
 4173      696F6E2D 
 4173      73656374 
 4173      696F6E73 
 4174 07af 73696E67 		.ascii	"single-precision-constant\000"
 4174      6C652D70 
 4174      72656369 
 4174      73696F6E 
 4174      2D636F6E 
 4175              	.LASF149:
 4176 07c9 666C6167 		.ascii	"flags\000"
 4176      7300
 4177              	.LASF170:
 4178 07cf 6462675F 		.ascii	"dbg_check_lock_from_isr\000"
 4178      63686563 
 4178      6B5F6C6F 
 4178      636B5F66 
 4178      726F6D5F 
 4179              	.LASF64:
 4180 07e7 77746F62 		.ascii	"wtobjp\000"
 4180      6A7000
 4181              	.LASF150:
 4182 07ee 7370695F 		.ascii	"spi_lld_serve_tx_interrupt\000"
 4182      6C6C645F 
 4182      73657276 
 4182      655F7478 
 4182      5F696E74 
 4183              	.LASF37:
 4184 0809 705F6E61 		.ascii	"p_name\000"
 4184      6D6500
 4185              	.LASF80:
 4186 0810 41484231 		.ascii	"AHB1ENR\000"
 4186      454E5200 
 4187              	.LASF179:
 4188 0818 7370695F 		.ascii	"spi_lld_polled_exchange\000"
ARM GAS  /tmp/ccPJkY7a.s 			page 81


 4188      6C6C645F 
 4188      706F6C6C 
 4188      65645F65 
 4188      78636861 
 4189              	.LASF147:
 4190 0830 53504943 		.ascii	"SPIConfig\000"
 4190      6F6E6669 
 4190      6700
 4191              	.LASF46:
 4192 083a 705F6D73 		.ascii	"p_msg\000"
 4192      6700
 4193              	.LASF60:
 4194 0840 6D5F6F77 		.ascii	"m_owner\000"
 4194      6E657200 
 4195              	.LASF173:
 4196 0848 646D6153 		.ascii	"dmaStreamAllocate\000"
 4196      74726561 
 4196      6D416C6C 
 4196      6F636174 
 4196      6500
 4197              	.LASF34:
 4198 085a 705F6374 		.ascii	"p_ctx\000"
 4198      7800
 4199              	.LASF44:
 4200 0860 705F7761 		.ascii	"p_waiting\000"
 4200      6974696E 
 4200      6700
 4201              		.ident	"GCC: (GNU Tools for ARM Embedded Processors) 4.8.4 20140526 (release) [ARM/embedded-4_8-br
ARM GAS  /tmp/ccPJkY7a.s 			page 82


DEFINED SYMBOLS
                            *ABS*:00000000 spi_lld.c
     /tmp/ccPJkY7a.s:21     .text.spi_lld_serve_tx_interrupt:00000000 $t
     /tmp/ccPJkY7a.s:26     .text.spi_lld_serve_tx_interrupt:00000000 spi_lld_serve_tx_interrupt
     /tmp/ccPJkY7a.s:47     .text.spi_lld_serve_rx_interrupt:00000000 $t
     /tmp/ccPJkY7a.s:52     .text.spi_lld_serve_rx_interrupt:00000000 spi_lld_serve_rx_interrupt
     /tmp/ccPJkY7a.s:176    .text.spi_lld_init:00000000 $t
     /tmp/ccPJkY7a.s:182    .text.spi_lld_init:00000000 spi_lld_init
     /tmp/ccPJkY7a.s:228    .text.spi_lld_init:0000002c $d
     /tmp/ccPJkY7a.s:238    .text.spi_lld_start:00000000 $t
     /tmp/ccPJkY7a.s:244    .text.spi_lld_start:00000000 spi_lld_start
     /tmp/ccPJkY7a.s:382    .text.spi_lld_start:00000098 $d
     /tmp/ccPJkY7a.s:393    .text.spi_lld_stop:00000000 $t
     /tmp/ccPJkY7a.s:399    .text.spi_lld_stop:00000000 spi_lld_stop
     /tmp/ccPJkY7a.s:453    .text.spi_lld_stop:00000034 $d
     /tmp/ccPJkY7a.s:459    .text.spi_lld_select:00000000 $t
     /tmp/ccPJkY7a.s:465    .text.spi_lld_select:00000000 spi_lld_select
     /tmp/ccPJkY7a.s:486    .text.spi_lld_unselect:00000000 $t
     /tmp/ccPJkY7a.s:492    .text.spi_lld_unselect:00000000 spi_lld_unselect
     /tmp/ccPJkY7a.s:513    .text.spi_lld_ignore:00000000 $t
     /tmp/ccPJkY7a.s:519    .text.spi_lld_ignore:00000000 spi_lld_ignore
     /tmp/ccPJkY7a.s:577    .text.spi_lld_ignore:00000034 $d
     /tmp/ccPJkY7a.s:583    .text.spi_lld_exchange:00000000 $t
     /tmp/ccPJkY7a.s:589    .text.spi_lld_exchange:00000000 spi_lld_exchange
     /tmp/ccPJkY7a.s:648    .text.spi_lld_send:00000000 $t
     /tmp/ccPJkY7a.s:654    .text.spi_lld_send:00000000 spi_lld_send
     /tmp/ccPJkY7a.s:710    .text.spi_lld_send:00000034 $d
     /tmp/ccPJkY7a.s:715    .text.spi_lld_receive:00000000 $t
     /tmp/ccPJkY7a.s:721    .text.spi_lld_receive:00000000 spi_lld_receive
     /tmp/ccPJkY7a.s:778    .text.spi_lld_receive:00000034 $d
     /tmp/ccPJkY7a.s:783    .text.spi_lld_polled_exchange:00000000 $t
     /tmp/ccPJkY7a.s:789    .text.spi_lld_polled_exchange:00000000 spi_lld_polled_exchange
     /tmp/ccPJkY7a.s:827    .bss.SPID2:00000000 SPID2
     /tmp/ccPJkY7a.s:816    .bss.dummytx:00000000 $d
     /tmp/ccPJkY7a.s:820    .bss.dummytx:00000000 dummytx
     /tmp/ccPJkY7a.s:823    .bss.SPID2:00000000 $d
     /tmp/ccPJkY7a.s:830    .rodata.str1.4:00000000 $d
     /tmp/ccPJkY7a.s:836    .bss.dummyrx:00000000 $d
     /tmp/ccPJkY7a.s:840    .bss.dummyrx:00000000 dummyrx
                     .debug_frame:00000010 $d
     /tmp/ccPJkY7a.s:237    .text.spi_lld_init:00000044 $t
     /tmp/ccPJkY7a.s:458    .text.spi_lld_stop:0000003c $t
     /tmp/ccPJkY7a.s:582    .text.spi_lld_ignore:0000003c $t
     /tmp/ccPJkY7a.s:714    .text.spi_lld_send:00000038 $t
     /tmp/ccPJkY7a.s:782    .text.spi_lld_receive:00000038 $t

UNDEFINED SYMBOLS
port_halt
dbg_check_lock_from_isr
chSchReadyI
dbg_check_unlock_from_isr
spiObjectInit
_stm32_dma_streams
dmaStreamAllocate
chDbgPanic
dmaStreamRelease
