ARM GAS  /tmp/ccmAmUmk.s 			page 1


   1              		.syntax unified
   2              		.cpu cortex-m4
   3              		.eabi_attribute 27, 1
   4              		.eabi_attribute 28, 1
   5              		.fpu fpv4-sp-d16
   6              		.eabi_attribute 20, 1
   7              		.eabi_attribute 21, 1
   8              		.eabi_attribute 23, 3
   9              		.eabi_attribute 24, 1
  10              		.eabi_attribute 25, 1
  11              		.eabi_attribute 26, 1
  12              		.eabi_attribute 30, 6
  13              		.eabi_attribute 34, 1
  14              		.eabi_attribute 18, 4
  15              		.thumb
  16              		.file	"sram.c"
  17              		.text
  18              	.Ltext0:
  19              		.cfi_sections	.debug_frame
  20              		.section	.text.write_to_backup_sram,"ax",%progbits
  21              		.align	2
  22              		.p2align 4,,15
  23              		.global	write_to_backup_sram
  24              		.thumb
  25              		.thumb_func
  26              		.type	write_to_backup_sram, %function
  27              	write_to_backup_sram:
  28              	.LFB111:
  29              		.file 1 "sram.c"
  30              		.loc 1 13 0
  31              		.cfi_startproc
  32              		@ args = 0, pretend = 0, frame = 16
  33              		@ frame_needed = 0, uses_anonymous_args = 0
  34              		@ link register save eliminated.
  35 0000 84B0     		sub	sp, sp, #16
  36              		.cfi_def_cfa_offset 16
  37 0002 0190     		str	r0, [sp, #4]
  38 0004 0B46     		mov	r3, r1
  39 0006 ADF80230 		strh	r3, [sp, #2]	@ movhi
  40 000a 1346     		mov	r3, r2	@ movhi
  41 000c ADF80030 		strh	r3, [sp]	@ movhi
  42              		.loc 1 14 0
  43 0010 4FF48053 		mov	r3, #4096
  44 0014 ADF80C30 		strh	r3, [sp, #12]	@ movhi
  45              		.loc 1 15 0
  46 0018 164B     		ldr	r3, .L6
  47 001a 0293     		str	r3, [sp, #8]
  48              		.loc 1 17 0
  49 001c BDF80220 		ldrh	r2, [sp, #2]
  50 0020 BDF80030 		ldrh	r3, [sp]
  51 0024 1A44     		add	r2, r2, r3
  52 0026 BDF80C30 		ldrh	r3, [sp, #12]
  53 002a 9A42     		cmp	r2, r3
  54 002c 01DB     		blt	.L2
  55              		.loc 1 19 0
  56 002e FF23     		movs	r3, #255
  57 0030 1CE0     		b	.L3
ARM GAS  /tmp/ccmAmUmk.s 			page 2


  58              	.L2:
  59              		.loc 1 31 0
  60 0032 0023     		movs	r3, #0
  61 0034 ADF80E30 		strh	r3, [sp, #14]	@ movhi
  62 0038 11E0     		b	.L4
  63              	.L5:
  64              		.loc 1 32 0 discriminator 3
  65 003a BDF80020 		ldrh	r2, [sp]
  66 003e BDF80E30 		ldrh	r3, [sp, #14]
  67 0042 1344     		add	r3, r3, r2
  68 0044 029A     		ldr	r2, [sp, #8]
  69 0046 1344     		add	r3, r3, r2
  70 0048 BDF80E20 		ldrh	r2, [sp, #14]
  71 004c 0199     		ldr	r1, [sp, #4]
  72 004e 0A44     		add	r2, r2, r1
  73 0050 1278     		ldrb	r2, [r2]	@ zero_extendqisi2
  74 0052 1A70     		strb	r2, [r3]
  75              		.loc 1 31 0 discriminator 3
  76 0054 BDF80E30 		ldrh	r3, [sp, #14]
  77 0058 0133     		adds	r3, r3, #1
  78 005a ADF80E30 		strh	r3, [sp, #14]	@ movhi
  79              	.L4:
  80              		.loc 1 31 0 is_stmt 0 discriminator 1
  81 005e BDF80E20 		ldrh	r2, [sp, #14]
  82 0062 BDF80230 		ldrh	r3, [sp, #2]
  83 0066 9A42     		cmp	r2, r3
  84 0068 E7D3     		bcc	.L5
  85              		.loc 1 35 0 is_stmt 1
  86 006a 0023     		movs	r3, #0
  87              	.L3:
  88 006c 5BB2     		sxtb	r3, r3
  89              		.loc 1 36 0
  90 006e 1846     		mov	r0, r3
  91 0070 04B0     		add	sp, sp, #16
  92              		.cfi_def_cfa_offset 0
  93              		@ sp needed
  94 0072 7047     		bx	lr
  95              	.L7:
  96              		.align	2
  97              	.L6:
  98 0074 00400240 		.word	1073889280
  99              		.cfi_endproc
 100              	.LFE111:
 101              		.size	write_to_backup_sram, .-write_to_backup_sram
 102 0078 AFF30080 		.section	.text.read_from_backup_sram,"ax",%progbits
 102      AFF30080 
 103              		.align	2
 104              		.p2align 4,,15
 105              		.global	read_from_backup_sram
 106              		.thumb
 107              		.thumb_func
 108              		.type	read_from_backup_sram, %function
 109              	read_from_backup_sram:
 110              	.LFB112:
 111              		.loc 1 38 0
 112              		.cfi_startproc
 113              		@ args = 0, pretend = 0, frame = 16
ARM GAS  /tmp/ccmAmUmk.s 			page 3


 114              		@ frame_needed = 0, uses_anonymous_args = 0
 115              		@ link register save eliminated.
 116 0000 84B0     		sub	sp, sp, #16
 117              		.cfi_def_cfa_offset 16
 118 0002 0190     		str	r0, [sp, #4]
 119 0004 0B46     		mov	r3, r1
 120 0006 ADF80230 		strh	r3, [sp, #2]	@ movhi
 121 000a 1346     		mov	r3, r2	@ movhi
 122 000c ADF80030 		strh	r3, [sp]	@ movhi
 123              		.loc 1 39 0
 124 0010 4FF48053 		mov	r3, #4096
 125 0014 ADF80C30 		strh	r3, [sp, #12]	@ movhi
 126              		.loc 1 40 0
 127 0018 164B     		ldr	r3, .L13
 128 001a 0293     		str	r3, [sp, #8]
 129              		.loc 1 42 0
 130 001c BDF80220 		ldrh	r2, [sp, #2]
 131 0020 BDF80030 		ldrh	r3, [sp]
 132 0024 1A44     		add	r2, r2, r3
 133 0026 BDF80C30 		ldrh	r3, [sp, #12]
 134 002a 9A42     		cmp	r2, r3
 135 002c 01DB     		blt	.L9
 136              		.loc 1 44 0
 137 002e FF23     		movs	r3, #255
 138 0030 1CE0     		b	.L10
 139              	.L9:
 140              		.loc 1 47 0
 141 0032 0023     		movs	r3, #0
 142 0034 ADF80E30 		strh	r3, [sp, #14]	@ movhi
 143 0038 11E0     		b	.L11
 144              	.L12:
 145              		.loc 1 48 0 discriminator 3
 146 003a BDF80E30 		ldrh	r3, [sp, #14]
 147 003e 019A     		ldr	r2, [sp, #4]
 148 0040 1344     		add	r3, r3, r2
 149 0042 BDF80010 		ldrh	r1, [sp]
 150 0046 BDF80E20 		ldrh	r2, [sp, #14]
 151 004a 0A44     		add	r2, r2, r1
 152 004c 0299     		ldr	r1, [sp, #8]
 153 004e 0A44     		add	r2, r2, r1
 154 0050 1278     		ldrb	r2, [r2]	@ zero_extendqisi2
 155 0052 1A70     		strb	r2, [r3]
 156              		.loc 1 47 0 discriminator 3
 157 0054 BDF80E30 		ldrh	r3, [sp, #14]
 158 0058 0133     		adds	r3, r3, #1
 159 005a ADF80E30 		strh	r3, [sp, #14]	@ movhi
 160              	.L11:
 161              		.loc 1 47 0 is_stmt 0 discriminator 1
 162 005e BDF80E20 		ldrh	r2, [sp, #14]
 163 0062 BDF80230 		ldrh	r3, [sp, #2]
 164 0066 9A42     		cmp	r2, r3
 165 0068 E7D3     		bcc	.L12
 166              		.loc 1 50 0 is_stmt 1
 167 006a 0023     		movs	r3, #0
 168              	.L10:
 169 006c 5BB2     		sxtb	r3, r3
 170              		.loc 1 51 0
ARM GAS  /tmp/ccmAmUmk.s 			page 4


 171 006e 1846     		mov	r0, r3
 172 0070 04B0     		add	sp, sp, #16
 173              		.cfi_def_cfa_offset 0
 174              		@ sp needed
 175 0072 7047     		bx	lr
 176              	.L14:
 177              		.align	2
 178              	.L13:
 179 0074 00400240 		.word	1073889280
 180              		.cfi_endproc
 181              	.LFE112:
 182              		.size	read_from_backup_sram, .-read_from_backup_sram
 183 0078 AFF30080 		.section	.text.write_to_backup_rtc,"ax",%progbits
 183      AFF30080 
 184              		.align	2
 185              		.p2align 4,,15
 186              		.global	write_to_backup_rtc
 187              		.thumb
 188              		.thumb_func
 189              		.type	write_to_backup_rtc, %function
 190              	write_to_backup_rtc:
 191              	.LFB113:
 192              		.loc 1 53 0
 193              		.cfi_startproc
 194              		@ args = 0, pretend = 0, frame = 16
 195              		@ frame_needed = 0, uses_anonymous_args = 0
 196              		@ link register save eliminated.
 197 0000 84B0     		sub	sp, sp, #16
 198              		.cfi_def_cfa_offset 16
 199 0002 0190     		str	r0, [sp, #4]
 200 0004 0B46     		mov	r3, r1
 201 0006 ADF80230 		strh	r3, [sp, #2]	@ movhi
 202 000a 1346     		mov	r3, r2	@ movhi
 203 000c ADF80030 		strh	r3, [sp]	@ movhi
 204              		.loc 1 54 0
 205 0010 5023     		movs	r3, #80
 206 0012 ADF80C30 		strh	r3, [sp, #12]	@ movhi
 207              		.loc 1 55 0
 208 0016 224B     		ldr	r3, .L22
 209 0018 0293     		str	r3, [sp, #8]
 210              		.loc 1 57 0
 211 001a BDF80220 		ldrh	r2, [sp, #2]
 212 001e BDF80030 		ldrh	r3, [sp]
 213 0022 1A44     		add	r2, r2, r3
 214 0024 BDF80C30 		ldrh	r3, [sp, #12]
 215 0028 9A42     		cmp	r2, r3
 216 002a 01DB     		blt	.L16
 217              		.loc 1 59 0
 218 002c FF23     		movs	r3, #255
 219 002e 33E0     		b	.L17
 220              	.L16:
 221              		.loc 1 60 0
 222 0030 BDF80030 		ldrh	r3, [sp]	@ movhi
 223 0034 03F00303 		and	r3, r3, #3
 224 0038 9BB2     		uxth	r3, r3
 225 003a 002B     		cmp	r3, #0
 226 003c 06D1     		bne	.L18
ARM GAS  /tmp/ccmAmUmk.s 			page 5


 227              		.loc 1 60 0 is_stmt 0 discriminator 1
 228 003e BDF80230 		ldrh	r3, [sp, #2]	@ movhi
 229 0042 03F00303 		and	r3, r3, #3
 230 0046 9BB2     		uxth	r3, r3
 231 0048 002B     		cmp	r3, #0
 232 004a 01D0     		beq	.L19
 233              	.L18:
 234              		.loc 1 62 0 is_stmt 1
 235 004c FE23     		movs	r3, #254
 236 004e 23E0     		b	.L17
 237              	.L19:
 238              		.loc 1 64 0
 239 0050 BDF80230 		ldrh	r3, [sp, #2]
 240 0054 9B08     		lsrs	r3, r3, #2
 241 0056 ADF80230 		strh	r3, [sp, #2]	@ movhi
 242              		.loc 1 69 0
 243 005a 0023     		movs	r3, #0
 244 005c ADF80E30 		strh	r3, [sp, #14]	@ movhi
 245 0060 13E0     		b	.L20
 246              	.L21:
 247              		.loc 1 70 0 discriminator 3
 248 0062 BDF80020 		ldrh	r2, [sp]
 249 0066 BDF80E30 		ldrh	r3, [sp, #14]
 250 006a 1344     		add	r3, r3, r2
 251 006c 9B00     		lsls	r3, r3, #2
 252 006e 029A     		ldr	r2, [sp, #8]
 253 0070 1344     		add	r3, r3, r2
 254 0072 BDF80E20 		ldrh	r2, [sp, #14]
 255 0076 9200     		lsls	r2, r2, #2
 256 0078 0199     		ldr	r1, [sp, #4]
 257 007a 0A44     		add	r2, r2, r1
 258 007c 1268     		ldr	r2, [r2]
 259 007e 1A60     		str	r2, [r3]
 260              		.loc 1 69 0 discriminator 3
 261 0080 BDF80E30 		ldrh	r3, [sp, #14]
 262 0084 0133     		adds	r3, r3, #1
 263 0086 ADF80E30 		strh	r3, [sp, #14]	@ movhi
 264              	.L20:
 265              		.loc 1 69 0 is_stmt 0 discriminator 1
 266 008a BDF80E20 		ldrh	r2, [sp, #14]
 267 008e BDF80230 		ldrh	r3, [sp, #2]
 268 0092 9A42     		cmp	r2, r3
 269 0094 E5D3     		bcc	.L21
 270              		.loc 1 74 0 is_stmt 1
 271 0096 0023     		movs	r3, #0
 272              	.L17:
 273 0098 5BB2     		sxtb	r3, r3
 274              		.loc 1 75 0
 275 009a 1846     		mov	r0, r3
 276 009c 04B0     		add	sp, sp, #16
 277              		.cfi_def_cfa_offset 0
 278              		@ sp needed
 279 009e 7047     		bx	lr
 280              	.L23:
 281              		.align	2
 282              	.L22:
 283 00a0 50280040 		.word	1073752144
ARM GAS  /tmp/ccmAmUmk.s 			page 6


 284              		.cfi_endproc
 285              	.LFE113:
 286              		.size	write_to_backup_rtc, .-write_to_backup_rtc
 287 00a4 AFF30080 		.section	.text.read_from_backup_rtc,"ax",%progbits
 287      AFF30080 
 287      AFF30080 
 288              		.align	2
 289              		.p2align 4,,15
 290              		.global	read_from_backup_rtc
 291              		.thumb
 292              		.thumb_func
 293              		.type	read_from_backup_rtc, %function
 294              	read_from_backup_rtc:
 295              	.LFB114:
 296              		.loc 1 77 0
 297              		.cfi_startproc
 298              		@ args = 0, pretend = 0, frame = 16
 299              		@ frame_needed = 0, uses_anonymous_args = 0
 300              		@ link register save eliminated.
 301 0000 84B0     		sub	sp, sp, #16
 302              		.cfi_def_cfa_offset 16
 303 0002 0190     		str	r0, [sp, #4]
 304 0004 0B46     		mov	r3, r1
 305 0006 ADF80230 		strh	r3, [sp, #2]	@ movhi
 306 000a 1346     		mov	r3, r2	@ movhi
 307 000c ADF80030 		strh	r3, [sp]	@ movhi
 308              		.loc 1 78 0
 309 0010 5023     		movs	r3, #80
 310 0012 ADF80C30 		strh	r3, [sp, #12]	@ movhi
 311              		.loc 1 79 0
 312 0016 224B     		ldr	r3, .L31
 313 0018 0293     		str	r3, [sp, #8]
 314              		.loc 1 81 0
 315 001a BDF80220 		ldrh	r2, [sp, #2]
 316 001e BDF80030 		ldrh	r3, [sp]
 317 0022 1A44     		add	r2, r2, r3
 318 0024 BDF80C30 		ldrh	r3, [sp, #12]
 319 0028 9A42     		cmp	r2, r3
 320 002a 01DB     		blt	.L25
 321              		.loc 1 83 0
 322 002c FF23     		movs	r3, #255
 323 002e 33E0     		b	.L26
 324              	.L25:
 325              		.loc 1 84 0
 326 0030 BDF80030 		ldrh	r3, [sp]	@ movhi
 327 0034 03F00303 		and	r3, r3, #3
 328 0038 9BB2     		uxth	r3, r3
 329 003a 002B     		cmp	r3, #0
 330 003c 06D1     		bne	.L27
 331              		.loc 1 84 0 is_stmt 0 discriminator 1
 332 003e BDF80230 		ldrh	r3, [sp, #2]	@ movhi
 333 0042 03F00303 		and	r3, r3, #3
 334 0046 9BB2     		uxth	r3, r3
 335 0048 002B     		cmp	r3, #0
 336 004a 01D0     		beq	.L28
 337              	.L27:
 338              		.loc 1 86 0 is_stmt 1
ARM GAS  /tmp/ccmAmUmk.s 			page 7


 339 004c FE23     		movs	r3, #254
 340 004e 23E0     		b	.L26
 341              	.L28:
 342              		.loc 1 88 0
 343 0050 BDF80230 		ldrh	r3, [sp, #2]
 344 0054 9B08     		lsrs	r3, r3, #2
 345 0056 ADF80230 		strh	r3, [sp, #2]	@ movhi
 346              		.loc 1 91 0
 347 005a 0023     		movs	r3, #0
 348 005c ADF80E30 		strh	r3, [sp, #14]	@ movhi
 349 0060 13E0     		b	.L29
 350              	.L30:
 351              		.loc 1 92 0 discriminator 3
 352 0062 BDF80E30 		ldrh	r3, [sp, #14]
 353 0066 9B00     		lsls	r3, r3, #2
 354 0068 019A     		ldr	r2, [sp, #4]
 355 006a 1344     		add	r3, r3, r2
 356 006c BDF80010 		ldrh	r1, [sp]
 357 0070 BDF80E20 		ldrh	r2, [sp, #14]
 358 0074 0A44     		add	r2, r2, r1
 359 0076 9200     		lsls	r2, r2, #2
 360 0078 0299     		ldr	r1, [sp, #8]
 361 007a 0A44     		add	r2, r2, r1
 362 007c 1268     		ldr	r2, [r2]
 363 007e 1A60     		str	r2, [r3]
 364              		.loc 1 91 0 discriminator 3
 365 0080 BDF80E30 		ldrh	r3, [sp, #14]
 366 0084 0133     		adds	r3, r3, #1
 367 0086 ADF80E30 		strh	r3, [sp, #14]	@ movhi
 368              	.L29:
 369              		.loc 1 91 0 is_stmt 0 discriminator 1
 370 008a BDF80E20 		ldrh	r2, [sp, #14]
 371 008e BDF80230 		ldrh	r3, [sp, #2]
 372 0092 9A42     		cmp	r2, r3
 373 0094 E5D3     		bcc	.L30
 374              		.loc 1 94 0 is_stmt 1
 375 0096 0023     		movs	r3, #0
 376              	.L26:
 377 0098 5BB2     		sxtb	r3, r3
 378              		.loc 1 95 0
 379 009a 1846     		mov	r0, r3
 380 009c 04B0     		add	sp, sp, #16
 381              		.cfi_def_cfa_offset 0
 382              		@ sp needed
 383 009e 7047     		bx	lr
 384              	.L32:
 385              		.align	2
 386              	.L31:
 387 00a0 50280040 		.word	1073752144
 388              		.cfi_endproc
 389              	.LFE114:
 390              		.size	read_from_backup_rtc, .-read_from_backup_rtc
 391 00a4 AFF30080 		.text
 391      AFF30080 
 391      AFF30080 
 392              	.Letext0:
 393              		.file 2 "/opt/gcc-arm-none-eabi/arm-none-eabi/include/machine/_default_types.h"
ARM GAS  /tmp/ccmAmUmk.s 			page 8


 394              		.file 3 "/opt/gcc-arm-none-eabi/arm-none-eabi/include/stdint.h"
 395              		.file 4 "/home/makkmarci/workspace/ChibiOS_2.6.8/os/hal/platforms/STM32F4xx/stm32f4xx.h"
 396              		.file 5 "/home/makkmarci/workspace/ChibiOS_2.6.8/os/ports/common/ARMCMx/CMSIS/include/core_cm4.h"