ARM GAS  /tmp/ccypgcYJ.s 			page 1


   1              		.syntax unified
   2              		.cpu cortex-m4
   3              		.eabi_attribute 27, 3
   4              		.eabi_attribute 28, 1
   5              		.fpu fpv4-sp-d16
   6              		.eabi_attribute 20, 1
   7              		.eabi_attribute 21, 1
   8              		.eabi_attribute 23, 3
   9              		.eabi_attribute 24, 1
  10              		.eabi_attribute 25, 1
  11              		.eabi_attribute 26, 1
  12              		.eabi_attribute 30, 2
  13              		.eabi_attribute 34, 1
  14              		.eabi_attribute 18, 4
  15              		.thumb
  16              		.file	"sram.c"
  17              		.text
  18              	.Ltext0:
  19              		.cfi_sections	.debug_frame
  20              		.section	.text.write_to_backup_sram,"ax",%progbits
  21              		.align	2
  22              		.p2align 4,,15
  23              		.global	write_to_backup_sram
  24              		.thumb
  25              		.thumb_func
  26              		.type	write_to_backup_sram, %function
  27              	write_to_backup_sram:
  28              	.LFB111:
  29              		.file 1 "sram.c"
  30              		.loc 1 13 0
  31              		.cfi_startproc
  32              		@ args = 0, pretend = 0, frame = 0
  33              		@ frame_needed = 0, uses_anonymous_args = 0
  34              		@ link register save eliminated.
  35              	.LVL0:
  36              		.loc 1 17 0
  37 0000 8B18     		adds	r3, r1, r2
  38 0002 B3F5805F 		cmp	r3, #4096
  39              		.loc 1 13 0
  40 0006 10B4     		push	{r4}
  41              		.cfi_def_cfa_offset 4
  42              		.cfi_offset 4, -4
  43              		.loc 1 17 0
  44 0008 0FDA     		bge	.L6
  45              	.LVL1:
  46              		.loc 1 31 0 discriminator 1
  47 000a 49B1     		cbz	r1, .L4
  48 000c 084C     		ldr	r4, .L8
  49              		.loc 1 31 0 is_stmt 0
  50 000e 0023     		movs	r3, #0
  51 0010 1444     		add	r4, r4, r2
  52              	.LVL2:
  53              	.L5:
  54              		.loc 1 32 0 is_stmt 1 discriminator 2
  55 0012 C25C     		ldrb	r2, [r0, r3]	@ zero_extendqisi2
  56 0014 04F8012F 		strb	r2, [r4, #1]!
  57              	.LVL3:
ARM GAS  /tmp/ccypgcYJ.s 			page 2


  58 0018 0133     		adds	r3, r3, #1
  59              	.LVL4:
  60              		.loc 1 31 0 discriminator 2
  61 001a 9AB2     		uxth	r2, r3
  62 001c 9142     		cmp	r1, r2
  63 001e F8D8     		bhi	.L5
  64              	.LVL5:
  65              	.L4:
  66              		.loc 1 35 0
  67 0020 0020     		movs	r0, #0
  68              	.LVL6:
  69              	.L2:
  70              		.loc 1 36 0
  71 0022 40B2     		sxtb	r0, r0
  72 0024 5DF8044B 		ldr	r4, [sp], #4
  73 0028 7047     		bx	lr
  74              	.LVL7:
  75              	.L6:
  76              		.loc 1 19 0
  77 002a FF20     		movs	r0, #255
  78              	.LVL8:
  79 002c F9E7     		b	.L2
  80              	.L9:
  81 002e 00BF     		.align	2
  82              	.L8:
  83 0030 FF3F0240 		.word	1073889279
  84              		.cfi_endproc
  85              	.LFE111:
  86              		.size	write_to_backup_sram, .-write_to_backup_sram
  87 0034 AFF30080 		.section	.text.read_from_backup_sram,"ax",%progbits
  87      AFF30080 
  87      AFF30080 
  88              		.align	2
  89              		.p2align 4,,15
  90              		.global	read_from_backup_sram
  91              		.thumb
  92              		.thumb_func
  93              		.type	read_from_backup_sram, %function
  94              	read_from_backup_sram:
  95              	.LFB112:
  96              		.loc 1 38 0
  97              		.cfi_startproc
  98              		@ args = 0, pretend = 0, frame = 0
  99              		@ frame_needed = 0, uses_anonymous_args = 0
 100              		@ link register save eliminated.
 101              	.LVL9:
 102              		.loc 1 42 0
 103 0000 8B18     		adds	r3, r1, r2
 104 0002 B3F5805F 		cmp	r3, #4096
 105              		.loc 1 38 0
 106 0006 10B4     		push	{r4}
 107              		.cfi_def_cfa_offset 4
 108              		.cfi_offset 4, -4
 109              		.loc 1 42 0
 110 0008 0FDA     		bge	.L15
 111              	.LVL10:
 112              		.loc 1 47 0 discriminator 1
ARM GAS  /tmp/ccypgcYJ.s 			page 3


 113 000a 49B1     		cbz	r1, .L13
 114 000c 084C     		ldr	r4, .L16
 115              		.loc 1 47 0 is_stmt 0
 116 000e 0023     		movs	r3, #0
 117 0010 1444     		add	r4, r4, r2
 118              	.LVL11:
 119              	.L14:
 120              		.loc 1 48 0 is_stmt 1 discriminator 2
 121 0012 14F8012F 		ldrb	r2, [r4, #1]!	@ zero_extendqisi2
 122 0016 C254     		strb	r2, [r0, r3]
 123              	.LVL12:
 124 0018 0133     		adds	r3, r3, #1
 125              	.LVL13:
 126              		.loc 1 47 0 discriminator 2
 127 001a 9AB2     		uxth	r2, r3
 128 001c 9142     		cmp	r1, r2
 129 001e F8D8     		bhi	.L14
 130              	.LVL14:
 131              	.L13:
 132              		.loc 1 50 0
 133 0020 0020     		movs	r0, #0
 134              	.LVL15:
 135              	.L11:
 136              		.loc 1 51 0
 137 0022 40B2     		sxtb	r0, r0
 138 0024 5DF8044B 		ldr	r4, [sp], #4
 139 0028 7047     		bx	lr
 140              	.LVL16:
 141              	.L15:
 142              		.loc 1 44 0
 143 002a FF20     		movs	r0, #255
 144              	.LVL17:
 145 002c F9E7     		b	.L11
 146              	.L17:
 147 002e 00BF     		.align	2
 148              	.L16:
 149 0030 FF3F0240 		.word	1073889279
 150              		.cfi_endproc
 151              	.LFE112:
 152              		.size	read_from_backup_sram, .-read_from_backup_sram
 153 0034 AFF30080 		.section	.text.write_to_backup_rtc,"ax",%progbits
 153      AFF30080 
 153      AFF30080 
 154              		.align	2
 155              		.p2align 4,,15
 156              		.global	write_to_backup_rtc
 157              		.thumb
 158              		.thumb_func
 159              		.type	write_to_backup_rtc, %function
 160              	write_to_backup_rtc:
 161              	.LFB113:
 162              		.loc 1 53 0
 163              		.cfi_startproc
 164              		@ args = 0, pretend = 0, frame = 0
 165              		@ frame_needed = 0, uses_anonymous_args = 0
 166              		@ link register save eliminated.
 167              	.LVL18:
ARM GAS  /tmp/ccypgcYJ.s 			page 4


 168              		.loc 1 57 0
 169 0000 8B18     		adds	r3, r1, r2
 170 0002 4F2B     		cmp	r3, #79
 171              		.loc 1 53 0
 172 0004 10B4     		push	{r4}
 173              		.cfi_def_cfa_offset 4
 174              		.cfi_offset 4, -4
 175              		.loc 1 57 0
 176 0006 19DC     		bgt	.L23
 177 0008 41EA0203 		orr	r3, r1, r2
 178              		.loc 1 60 0
 179 000c 9B07     		lsls	r3, r3, #30
 180 000e 17D1     		bne	.L24
 181              	.LVL19:
 182              		.loc 1 69 0
 183 0010 8908     		lsrs	r1, r1, #2
 184              	.LVL20:
 185 0012 0ED0     		beq	.L21
 186 0014 4C1E     		subs	r4, r1, #1
 187 0016 0B49     		ldr	r1, .L25
 188 0018 C0EB8202 		rsb	r2, r0, r2, lsl #2
 189              	.LVL21:
 190 001c A4B2     		uxth	r4, r4
 191 001e 031D     		adds	r3, r0, #4
 192 0020 03EB8404 		add	r4, r3, r4, lsl #2
 193 0024 1144     		add	r1, r1, r2
 194              	.LVL22:
 195              	.L22:
 196 0026 0B18     		adds	r3, r1, r0
 197              		.loc 1 70 0 discriminator 2
 198 0028 50F8042B 		ldr	r2, [r0], #4
 199 002c 1A60     		str	r2, [r3]
 200              		.loc 1 69 0 discriminator 2
 201 002e A042     		cmp	r0, r4
 202 0030 F9D1     		bne	.L22
 203              	.L21:
 204              		.loc 1 74 0
 205 0032 0020     		movs	r0, #0
 206              	.L19:
 207              		.loc 1 75 0
 208 0034 40B2     		sxtb	r0, r0
 209 0036 5DF8044B 		ldr	r4, [sp], #4
 210 003a 7047     		bx	lr
 211              	.LVL23:
 212              	.L23:
 213              		.loc 1 59 0
 214 003c FF20     		movs	r0, #255
 215              	.LVL24:
 216 003e F9E7     		b	.L19
 217              	.LVL25:
 218              	.L24:
 219              		.loc 1 62 0
 220 0040 FE20     		movs	r0, #254
 221              	.LVL26:
 222 0042 F7E7     		b	.L19
 223              	.L26:
 224              		.align	2
ARM GAS  /tmp/ccypgcYJ.s 			page 5


 225              	.L25:
 226 0044 50280040 		.word	1073752144
 227              		.cfi_endproc
 228              	.LFE113:
 229              		.size	write_to_backup_rtc, .-write_to_backup_rtc
 230 0048 AFF30080 		.section	.text.read_from_backup_rtc,"ax",%progbits
 230      AFF30080 
 231              		.align	2
 232              		.p2align 4,,15
 233              		.global	read_from_backup_rtc
 234              		.thumb
 235              		.thumb_func
 236              		.type	read_from_backup_rtc, %function
 237              	read_from_backup_rtc:
 238              	.LFB114:
 239              		.loc 1 77 0
 240              		.cfi_startproc
 241              		@ args = 0, pretend = 0, frame = 0
 242              		@ frame_needed = 0, uses_anonymous_args = 0
 243              		@ link register save eliminated.
 244              	.LVL27:
 245              		.loc 1 81 0
 246 0000 8B18     		adds	r3, r1, r2
 247 0002 4F2B     		cmp	r3, #79
 248              		.loc 1 77 0
 249 0004 10B4     		push	{r4}
 250              		.cfi_def_cfa_offset 4
 251              		.cfi_offset 4, -4
 252              		.loc 1 81 0
 253 0006 18DC     		bgt	.L32
 254 0008 41EA0203 		orr	r3, r1, r2
 255              		.loc 1 84 0
 256 000c 9B07     		lsls	r3, r3, #30
 257 000e 16D1     		bne	.L33
 258              	.LVL28:
 259              		.loc 1 91 0
 260 0010 8908     		lsrs	r1, r1, #2
 261              	.LVL29:
 262 0012 0DD0     		beq	.L30
 263 0014 4C1E     		subs	r4, r1, #1
 264 0016 0B49     		ldr	r1, .L34
 265 0018 C0EB8202 		rsb	r2, r0, r2, lsl #2
 266              	.LVL30:
 267 001c A4B2     		uxth	r4, r4
 268 001e 031D     		adds	r3, r0, #4
 269 0020 03EB8404 		add	r4, r3, r4, lsl #2
 270 0024 1144     		add	r1, r1, r2
 271              	.LVL31:
 272              	.L31:
 273              		.loc 1 92 0 discriminator 2
 274 0026 0B58     		ldr	r3, [r1, r0]
 275 0028 40F8043B 		str	r3, [r0], #4
 276              		.loc 1 91 0 discriminator 2
 277 002c A042     		cmp	r0, r4
 278 002e FAD1     		bne	.L31
 279              	.L30:
 280              		.loc 1 94 0
ARM GAS  /tmp/ccypgcYJ.s 			page 6


 281 0030 0020     		movs	r0, #0
 282              	.L28:
 283              		.loc 1 95 0
 284 0032 40B2     		sxtb	r0, r0
 285 0034 5DF8044B 		ldr	r4, [sp], #4
 286 0038 7047     		bx	lr
 287              	.LVL32:
 288              	.L32:
 289              		.loc 1 83 0
 290 003a FF20     		movs	r0, #255
 291              	.LVL33:
 292 003c F9E7     		b	.L28
 293              	.LVL34:
 294              	.L33:
 295              		.loc 1 86 0
 296 003e FE20     		movs	r0, #254
 297              	.LVL35:
 298 0040 F7E7     		b	.L28
 299              	.L35:
 300 0042 00BF     		.align	2
 301              	.L34:
 302 0044 50280040 		.word	1073752144
 303              		.cfi_endproc
 304              	.LFE114:
 305              		.size	read_from_backup_rtc, .-read_from_backup_rtc
 306 0048 AFF30080 		.text
 306      AFF30080 
 307              	.Letext0:
 308              		.file 2 "/opt/ARM/arm-none-eabi/include/machine/_default_types.h"
 309              		.file 3 "/opt/ARM/arm-none-eabi/include/stdint.h"
 310              		.file 4 "../../os/hal/platforms/STM32F4xx/stm32f4xx.h"
 311              		.file 5 "../../os/ports/common/ARMCMx/CMSIS/include/core_cm4.h"
 312              		.section	.debug_info,"",%progbits
 313              	.Ldebug_info0:
 314 0000 ED040000 		.4byte	0x4ed
 315 0004 0400     		.2byte	0x4
 316 0006 00000000 		.4byte	.Ldebug_abbrev0
 317 000a 04       		.byte	0x4
 318 000b 01       		.uleb128 0x1
 319 000c 62020000 		.4byte	.LASF66
 320 0010 01       		.byte	0x1
 321 0011 C4030000 		.4byte	.LASF67
 322 0015 30010000 		.4byte	.LASF68
 323 0019 00000000 		.4byte	.Ldebug_ranges0+0
 324 001d 00000000 		.4byte	0
 325 0021 00000000 		.4byte	.Ldebug_line0
 326 0025 02       		.uleb128 0x2
 327 0026 04       		.byte	0x4
 328 0027 05       		.byte	0x5
 329 0028 696E7400 		.ascii	"int\000"
 330 002c 03       		.uleb128 0x3
 331 002d 04       		.byte	0x4
 332 002e 07       		.byte	0x7
 333 002f 7A010000 		.4byte	.LASF0
 334 0033 04       		.uleb128 0x4
 335 0034 C1010000 		.4byte	.LASF2
 336 0038 02       		.byte	0x2
ARM GAS  /tmp/ccypgcYJ.s 			page 7


 337 0039 1B       		.byte	0x1b
 338 003a 3E000000 		.4byte	0x3e
 339 003e 03       		.uleb128 0x3
 340 003f 01       		.byte	0x1
 341 0040 06       		.byte	0x6
 342 0041 FD000000 		.4byte	.LASF1
 343 0045 04       		.uleb128 0x4
 344 0046 B4000000 		.4byte	.LASF3
 345 004a 02       		.byte	0x2
 346 004b 1C       		.byte	0x1c
 347 004c 50000000 		.4byte	0x50
 348 0050 03       		.uleb128 0x3
 349 0051 01       		.byte	0x1
 350 0052 08       		.byte	0x8
 351 0053 E2000000 		.4byte	.LASF4
 352 0057 03       		.uleb128 0x3
 353 0058 02       		.byte	0x2
 354 0059 05       		.byte	0x5
 355 005a 1D000000 		.4byte	.LASF5
 356 005e 04       		.uleb128 0x4
 357 005f 4C000000 		.4byte	.LASF6
 358 0063 02       		.byte	0x2
 359 0064 26       		.byte	0x26
 360 0065 69000000 		.4byte	0x69
 361 0069 03       		.uleb128 0x3
 362 006a 02       		.byte	0x2
 363 006b 07       		.byte	0x7
 364 006c AE010000 		.4byte	.LASF7
 365 0070 04       		.uleb128 0x4
 366 0071 DD010000 		.4byte	.LASF8
 367 0075 02       		.byte	0x2
 368 0076 37       		.byte	0x37
 369 0077 7B000000 		.4byte	0x7b
 370 007b 03       		.uleb128 0x3
 371 007c 04       		.byte	0x4
 372 007d 05       		.byte	0x5
 373 007e 97000000 		.4byte	.LASF9
 374 0082 04       		.uleb128 0x4
 375 0083 3A000000 		.4byte	.LASF10
 376 0087 02       		.byte	0x2
 377 0088 38       		.byte	0x38
 378 0089 8D000000 		.4byte	0x8d
 379 008d 03       		.uleb128 0x3
 380 008e 04       		.byte	0x4
 381 008f 07       		.byte	0x7
 382 0090 23020000 		.4byte	.LASF11
 383 0094 03       		.uleb128 0x3
 384 0095 08       		.byte	0x8
 385 0096 05       		.byte	0x5
 386 0097 82000000 		.4byte	.LASF12
 387 009b 03       		.uleb128 0x3
 388 009c 08       		.byte	0x8
 389 009d 07       		.byte	0x7
 390 009e 09010000 		.4byte	.LASF13
 391 00a2 04       		.uleb128 0x4
 392 00a3 16000000 		.4byte	.LASF14
 393 00a7 03       		.byte	0x3
ARM GAS  /tmp/ccypgcYJ.s 			page 8


 394 00a8 29       		.byte	0x29
 395 00a9 33000000 		.4byte	0x33
 396 00ad 04       		.uleb128 0x4
 397 00ae 57000000 		.4byte	.LASF15
 398 00b2 03       		.byte	0x3
 399 00b3 2A       		.byte	0x2a
 400 00b4 45000000 		.4byte	0x45
 401 00b8 04       		.uleb128 0x4
 402 00b9 87010000 		.4byte	.LASF16
 403 00bd 03       		.byte	0x3
 404 00be 36       		.byte	0x36
 405 00bf 5E000000 		.4byte	0x5e
 406 00c3 04       		.uleb128 0x4
 407 00c4 D5010000 		.4byte	.LASF17
 408 00c8 03       		.byte	0x3
 409 00c9 41       		.byte	0x41
 410 00ca 70000000 		.4byte	0x70
 411 00ce 04       		.uleb128 0x4
 412 00cf 20010000 		.4byte	.LASF18
 413 00d3 03       		.byte	0x3
 414 00d4 42       		.byte	0x42
 415 00d5 82000000 		.4byte	0x82
 416 00d9 03       		.uleb128 0x3
 417 00da 01       		.byte	0x1
 418 00db 02       		.byte	0x2
 419 00dc F0010000 		.4byte	.LASF19
 420 00e0 05       		.uleb128 0x5
 421 00e1 CE000000 		.4byte	0xce
 422 00e5 03       		.uleb128 0x3
 423 00e6 04       		.byte	0x4
 424 00e7 07       		.byte	0x7
 425 00e8 27000000 		.4byte	.LASF20
 426 00ec 03       		.uleb128 0x3
 427 00ed 01       		.byte	0x1
 428 00ee 08       		.byte	0x8
 429 00ef CA010000 		.4byte	.LASF21
 430 00f3 06       		.uleb128 0x6
 431 00f4 04       		.byte	0x4
 432 00f5 AD000000 		.4byte	0xad
 433 00f9 05       		.uleb128 0x5
 434 00fa C3000000 		.4byte	0xc3
 435 00fe 07       		.uleb128 0x7
 436 00ff B8000000 		.4byte	0xb8
 437 0103 08       		.uleb128 0x8
 438 0104 A0       		.byte	0xa0
 439 0105 04       		.byte	0x4
 440 0106 8104     		.2byte	0x481
 441 0108 12030000 		.4byte	0x312
 442 010c 09       		.uleb128 0x9
 443 010d 545200   		.ascii	"TR\000"
 444 0110 04       		.byte	0x4
 445 0111 8304     		.2byte	0x483
 446 0113 E0000000 		.4byte	0xe0
 447 0117 00       		.byte	0
 448 0118 09       		.uleb128 0x9
 449 0119 445200   		.ascii	"DR\000"
 450 011c 04       		.byte	0x4
ARM GAS  /tmp/ccypgcYJ.s 			page 9


 451 011d 8404     		.2byte	0x484
 452 011f E0000000 		.4byte	0xe0
 453 0123 04       		.byte	0x4
 454 0124 09       		.uleb128 0x9
 455 0125 435200   		.ascii	"CR\000"
 456 0128 04       		.byte	0x4
 457 0129 8504     		.2byte	0x485
 458 012b E0000000 		.4byte	0xe0
 459 012f 08       		.byte	0x8
 460 0130 09       		.uleb128 0x9
 461 0131 49535200 		.ascii	"ISR\000"
 462 0135 04       		.byte	0x4
 463 0136 8604     		.2byte	0x486
 464 0138 E0000000 		.4byte	0xe0
 465 013c 0C       		.byte	0xc
 466 013d 0A       		.uleb128 0xa
 467 013e 71000000 		.4byte	.LASF22
 468 0142 04       		.byte	0x4
 469 0143 8704     		.2byte	0x487
 470 0145 E0000000 		.4byte	0xe0
 471 0149 10       		.byte	0x10
 472 014a 0A       		.uleb128 0xa
 473 014b 35000000 		.4byte	.LASF23
 474 014f 04       		.byte	0x4
 475 0150 8804     		.2byte	0x488
 476 0152 E0000000 		.4byte	0xe0
 477 0156 14       		.byte	0x14
 478 0157 0A       		.uleb128 0xa
 479 0158 90000000 		.4byte	.LASF24
 480 015c 04       		.byte	0x4
 481 015d 8904     		.2byte	0x489
 482 015f E0000000 		.4byte	0xe0
 483 0163 18       		.byte	0x18
 484 0164 0A       		.uleb128 0xa
 485 0165 29010000 		.4byte	.LASF25
 486 0169 04       		.byte	0x4
 487 016a 8A04     		.2byte	0x48a
 488 016c E0000000 		.4byte	0xe0
 489 0170 1C       		.byte	0x1c
 490 0171 0A       		.uleb128 0xa
 491 0172 7B030000 		.4byte	.LASF26
 492 0176 04       		.byte	0x4
 493 0177 8B04     		.2byte	0x48b
 494 0179 E0000000 		.4byte	0xe0
 495 017d 20       		.byte	0x20
 496 017e 09       		.uleb128 0x9
 497 017f 57505200 		.ascii	"WPR\000"
 498 0183 04       		.byte	0x4
 499 0184 8C04     		.2byte	0x48c
 500 0186 E0000000 		.4byte	0xe0
 501 018a 24       		.byte	0x24
 502 018b 09       		.uleb128 0x9
 503 018c 53535200 		.ascii	"SSR\000"
 504 0190 04       		.byte	0x4
 505 0191 8D04     		.2byte	0x48d
 506 0193 E0000000 		.4byte	0xe0
 507 0197 28       		.byte	0x28
ARM GAS  /tmp/ccypgcYJ.s 			page 10


 508 0198 0A       		.uleb128 0xa
 509 0199 9C010000 		.4byte	.LASF27
 510 019d 04       		.byte	0x4
 511 019e 8E04     		.2byte	0x48e
 512 01a0 E0000000 		.4byte	0xe0
 513 01a4 2C       		.byte	0x2c
 514 01a5 0A       		.uleb128 0xa
 515 01a6 A9010000 		.4byte	.LASF28
 516 01aa 04       		.byte	0x4
 517 01ab 8F04     		.2byte	0x48f
 518 01ad E0000000 		.4byte	0xe0
 519 01b1 30       		.byte	0x30
 520 01b2 0A       		.uleb128 0xa
 521 01b3 66000000 		.4byte	.LASF29
 522 01b7 04       		.byte	0x4
 523 01b8 9004     		.2byte	0x490
 524 01ba E0000000 		.4byte	0xe0
 525 01be 34       		.byte	0x34
 526 01bf 0A       		.uleb128 0xa
 527 01c0 A4030000 		.4byte	.LASF30
 528 01c4 04       		.byte	0x4
 529 01c5 9104     		.2byte	0x491
 530 01c7 E0000000 		.4byte	0xe0
 531 01cb 38       		.byte	0x38
 532 01cc 0A       		.uleb128 0xa
 533 01cd 30000000 		.4byte	.LASF31
 534 01d1 04       		.byte	0x4
 535 01d2 9204     		.2byte	0x492
 536 01d4 E0000000 		.4byte	0xe0
 537 01d8 3C       		.byte	0x3c
 538 01d9 0A       		.uleb128 0xa
 539 01da 6B000000 		.4byte	.LASF32
 540 01de 04       		.byte	0x4
 541 01df 9304     		.2byte	0x493
 542 01e1 E0000000 		.4byte	0xe0
 543 01e5 40       		.byte	0x40
 544 01e6 0A       		.uleb128 0xa
 545 01e7 BE000000 		.4byte	.LASF33
 546 01eb 04       		.byte	0x4
 547 01ec 9404     		.2byte	0x494
 548 01ee E0000000 		.4byte	0xe0
 549 01f2 44       		.byte	0x44
 550 01f3 0A       		.uleb128 0xa
 551 01f4 E7010000 		.4byte	.LASF34
 552 01f8 04       		.byte	0x4
 553 01f9 9504     		.2byte	0x495
 554 01fb E0000000 		.4byte	0xe0
 555 01ff 48       		.byte	0x48
 556 0200 0A       		.uleb128 0xa
 557 0201 35020000 		.4byte	.LASF35
 558 0205 04       		.byte	0x4
 559 0206 9604     		.2byte	0x496
 560 0208 CE000000 		.4byte	0xce
 561 020c 4C       		.byte	0x4c
 562 020d 0A       		.uleb128 0xa
 563 020e F7000000 		.4byte	.LASF36
 564 0212 04       		.byte	0x4
ARM GAS  /tmp/ccypgcYJ.s 			page 11


 565 0213 9704     		.2byte	0x497
 566 0215 E0000000 		.4byte	0xe0
 567 0219 50       		.byte	0x50
 568 021a 0A       		.uleb128 0xa
 569 021b 7C000000 		.4byte	.LASF37
 570 021f 04       		.byte	0x4
 571 0220 9804     		.2byte	0x498
 572 0222 E0000000 		.4byte	0xe0
 573 0226 54       		.byte	0x54
 574 0227 0A       		.uleb128 0xa
 575 0228 10000000 		.4byte	.LASF38
 576 022c 04       		.byte	0x4
 577 022d 9904     		.2byte	0x499
 578 022f E0000000 		.4byte	0xe0
 579 0233 58       		.byte	0x58
 580 0234 0A       		.uleb128 0xa
 581 0235 76000000 		.4byte	.LASF39
 582 0239 04       		.byte	0x4
 583 023a 9A04     		.2byte	0x49a
 584 023c E0000000 		.4byte	0xe0
 585 0240 5C       		.byte	0x5c
 586 0241 0A       		.uleb128 0xa
 587 0242 A3010000 		.4byte	.LASF40
 588 0246 04       		.byte	0x4
 589 0247 9B04     		.2byte	0x49b
 590 0249 E0000000 		.4byte	0xe0
 591 024d 60       		.byte	0x60
 592 024e 0A       		.uleb128 0xa
 593 024f 89030000 		.4byte	.LASF41
 594 0253 04       		.byte	0x4
 595 0254 9C04     		.2byte	0x49c
 596 0256 E0000000 		.4byte	0xe0
 597 025a 64       		.byte	0x64
 598 025b 0A       		.uleb128 0xa
 599 025c 00000000 		.4byte	.LASF42
 600 0260 04       		.byte	0x4
 601 0261 9D04     		.2byte	0x49d
 602 0263 E0000000 		.4byte	0xe0
 603 0267 68       		.byte	0x68
 604 0268 0A       		.uleb128 0xa
 605 0269 A7000000 		.4byte	.LASF43
 606 026d 04       		.byte	0x4
 607 026e 9E04     		.2byte	0x49e
 608 0270 E0000000 		.4byte	0xe0
 609 0274 6C       		.byte	0x6c
 610 0275 0A       		.uleb128 0xa
 611 0276 CF010000 		.4byte	.LASF44
 612 027a 04       		.byte	0x4
 613 027b 9F04     		.2byte	0x49f
 614 027d E0000000 		.4byte	0xe0
 615 0281 70       		.byte	0x70
 616 0282 0A       		.uleb128 0xa
 617 0283 B1030000 		.4byte	.LASF45
 618 0287 04       		.byte	0x4
 619 0288 A004     		.2byte	0x4a0
 620 028a E0000000 		.4byte	0xe0
 621 028e 74       		.byte	0x74
ARM GAS  /tmp/ccypgcYJ.s 			page 12


 622 028f 0A       		.uleb128 0xa
 623 0290 A0000000 		.4byte	.LASF46
 624 0294 04       		.byte	0x4
 625 0295 A104     		.2byte	0x4a1
 626 0297 E0000000 		.4byte	0xe0
 627 029b 78       		.byte	0x78
 628 029c 0A       		.uleb128 0xa
 629 029d 82030000 		.4byte	.LASF47
 630 02a1 04       		.byte	0x4
 631 02a2 A204     		.2byte	0x4a2
 632 02a4 E0000000 		.4byte	0xe0
 633 02a8 7C       		.byte	0x7c
 634 02a9 0A       		.uleb128 0xa
 635 02aa AA030000 		.4byte	.LASF48
 636 02ae 04       		.byte	0x4
 637 02af A304     		.2byte	0x4a3
 638 02b1 E0000000 		.4byte	0xe0
 639 02b5 80       		.byte	0x80
 640 02b6 0A       		.uleb128 0xa
 641 02b7 45000000 		.4byte	.LASF49
 642 02bb 04       		.byte	0x4
 643 02bc A404     		.2byte	0x4a4
 644 02be E0000000 		.4byte	0xe0
 645 02c2 84       		.byte	0x84
 646 02c3 0A       		.uleb128 0xa
 647 02c4 C7000000 		.4byte	.LASF50
 648 02c8 04       		.byte	0x4
 649 02c9 A504     		.2byte	0x4a5
 650 02cb E0000000 		.4byte	0xe0
 651 02cf 88       		.byte	0x88
 652 02d0 0A       		.uleb128 0xa
 653 02d1 F6010000 		.4byte	.LASF51
 654 02d5 04       		.byte	0x4
 655 02d6 A604     		.2byte	0x4a6
 656 02d8 E0000000 		.4byte	0xe0
 657 02dc 8C       		.byte	0x8c
 658 02dd 0A       		.uleb128 0xa
 659 02de CB030000 		.4byte	.LASF52
 660 02e2 04       		.byte	0x4
 661 02e3 A704     		.2byte	0x4a7
 662 02e5 E0000000 		.4byte	0xe0
 663 02e9 90       		.byte	0x90
 664 02ea 0A       		.uleb128 0xa
 665 02eb 5F000000 		.4byte	.LASF53
 666 02ef 04       		.byte	0x4
 667 02f0 A804     		.2byte	0x4a8
 668 02f2 E0000000 		.4byte	0xe0
 669 02f6 94       		.byte	0x94
 670 02f7 0A       		.uleb128 0xa
 671 02f8 F0000000 		.4byte	.LASF54
 672 02fc 04       		.byte	0x4
 673 02fd A904     		.2byte	0x4a9
 674 02ff E0000000 		.4byte	0xe0
 675 0303 98       		.byte	0x98
 676 0304 0A       		.uleb128 0xa
 677 0305 5B020000 		.4byte	.LASF55
 678 0309 04       		.byte	0x4
ARM GAS  /tmp/ccypgcYJ.s 			page 13


 679 030a AA04     		.2byte	0x4aa
 680 030c E0000000 		.4byte	0xe0
 681 0310 9C       		.byte	0x9c
 682 0311 00       		.byte	0
 683 0312 0B       		.uleb128 0xb
 684 0313 02020000 		.4byte	.LASF56
 685 0317 04       		.byte	0x4
 686 0318 AB04     		.2byte	0x4ab
 687 031a 03010000 		.4byte	0x103
 688 031e 06       		.uleb128 0x6
 689 031f 04       		.byte	0x4
 690 0320 E0000000 		.4byte	0xe0
 691 0324 0C       		.uleb128 0xc
 692 0325 8F030000 		.4byte	.LASF62
 693 0329 01       		.byte	0x1
 694 032a 0D       		.byte	0xd
 695 032b A2000000 		.4byte	0xa2
 696 032f 00000000 		.4byte	.LFB111
 697 0333 34000000 		.4byte	.LFE111-.LFB111
 698 0337 01       		.uleb128 0x1
 699 0338 9C       		.byte	0x9c
 700 0339 92030000 		.4byte	0x392
 701 033d 0D       		.uleb128 0xd
 702 033e FD010000 		.4byte	.LASF57
 703 0342 01       		.byte	0x1
 704 0343 0D       		.byte	0xd
 705 0344 F3000000 		.4byte	0xf3
 706 0348 00000000 		.4byte	.LLST0
 707 034c 0E       		.uleb128 0xe
 708 034d 3F020000 		.4byte	.LASF58
 709 0351 01       		.byte	0x1
 710 0352 0D       		.byte	0xd
 711 0353 B8000000 		.4byte	0xb8
 712 0357 01       		.uleb128 0x1
 713 0358 51       		.byte	0x51
 714 0359 0D       		.uleb128 0xd
 715 035a AD000000 		.4byte	.LASF59
 716 035e 01       		.byte	0x1
 717 035f 0D       		.byte	0xd
 718 0360 B8000000 		.4byte	0xb8
 719 0364 3A000000 		.4byte	.LLST1
 720 0368 0F       		.uleb128 0xf
 721 0369 90010000 		.4byte	.LASF60
 722 036d 01       		.byte	0x1
 723 036e 0E       		.byte	0xe
 724 036f FE000000 		.4byte	0xfe
 725 0373 0010     		.2byte	0x1000
 726 0375 10       		.uleb128 0x10
 727 0376 06000000 		.4byte	.LASF61
 728 037a 01       		.byte	0x1
 729 037b 0F       		.byte	0xf
 730 037c F3000000 		.4byte	0xf3
 731 0380 00400240 		.4byte	0x40024000
 732 0384 11       		.uleb128 0x11
 733 0385 6900     		.ascii	"i\000"
 734 0387 01       		.byte	0x1
 735 0388 10       		.byte	0x10
ARM GAS  /tmp/ccypgcYJ.s 			page 14


 736 0389 B8000000 		.4byte	0xb8
 737 038d 66000000 		.4byte	.LLST2
 738 0391 00       		.byte	0
 739 0392 0C       		.uleb128 0xc
 740 0393 45020000 		.4byte	.LASF63
 741 0397 01       		.byte	0x1
 742 0398 26       		.byte	0x26
 743 0399 A2000000 		.4byte	0xa2
 744 039d 00000000 		.4byte	.LFB112
 745 03a1 34000000 		.4byte	.LFE112-.LFB112
 746 03a5 01       		.uleb128 0x1
 747 03a6 9C       		.byte	0x9c
 748 03a7 00040000 		.4byte	0x400
 749 03ab 0D       		.uleb128 0xd
 750 03ac FD010000 		.4byte	.LASF57
 751 03b0 01       		.byte	0x1
 752 03b1 26       		.byte	0x26
 753 03b2 F3000000 		.4byte	0xf3
 754 03b6 9F000000 		.4byte	.LLST3
 755 03ba 0E       		.uleb128 0xe
 756 03bb 3F020000 		.4byte	.LASF58
 757 03bf 01       		.byte	0x1
 758 03c0 26       		.byte	0x26
 759 03c1 B8000000 		.4byte	0xb8
 760 03c5 01       		.uleb128 0x1
 761 03c6 51       		.byte	0x51
 762 03c7 0D       		.uleb128 0xd
 763 03c8 AD000000 		.4byte	.LASF59
 764 03cc 01       		.byte	0x1
 765 03cd 26       		.byte	0x26
 766 03ce B8000000 		.4byte	0xb8
 767 03d2 D9000000 		.4byte	.LLST4
 768 03d6 0F       		.uleb128 0xf
 769 03d7 90010000 		.4byte	.LASF60
 770 03db 01       		.byte	0x1
 771 03dc 27       		.byte	0x27
 772 03dd FE000000 		.4byte	0xfe
 773 03e1 0010     		.2byte	0x1000
 774 03e3 10       		.uleb128 0x10
 775 03e4 06000000 		.4byte	.LASF61
 776 03e8 01       		.byte	0x1
 777 03e9 28       		.byte	0x28
 778 03ea F3000000 		.4byte	0xf3
 779 03ee 00400240 		.4byte	0x40024000
 780 03f2 11       		.uleb128 0x11
 781 03f3 6900     		.ascii	"i\000"
 782 03f5 01       		.byte	0x1
 783 03f6 29       		.byte	0x29
 784 03f7 B8000000 		.4byte	0xb8
 785 03fb 05010000 		.4byte	.LLST5
 786 03ff 00       		.byte	0
 787 0400 0C       		.uleb128 0xc
 788 0401 CE000000 		.4byte	.LASF64
 789 0405 01       		.byte	0x1
 790 0406 35       		.byte	0x35
 791 0407 A2000000 		.4byte	0xa2
 792 040b 00000000 		.4byte	.LFB113
ARM GAS  /tmp/ccypgcYJ.s 			page 15


 793 040f 48000000 		.4byte	.LFE113-.LFB113
 794 0413 01       		.uleb128 0x1
 795 0414 9C       		.byte	0x9c
 796 0415 6F040000 		.4byte	0x46f
 797 0419 0D       		.uleb128 0xd
 798 041a FD010000 		.4byte	.LASF57
 799 041e 01       		.byte	0x1
 800 041f 35       		.byte	0x35
 801 0420 6F040000 		.4byte	0x46f
 802 0424 3E010000 		.4byte	.LLST6
 803 0428 0D       		.uleb128 0xd
 804 0429 3F020000 		.4byte	.LASF58
 805 042d 01       		.byte	0x1
 806 042e 35       		.byte	0x35
 807 042f B8000000 		.4byte	0xb8
 808 0433 91010000 		.4byte	.LLST7
 809 0437 0D       		.uleb128 0xd
 810 0438 AD000000 		.4byte	.LASF59
 811 043c 01       		.byte	0x1
 812 043d 35       		.byte	0x35
 813 043e B8000000 		.4byte	0xb8
 814 0442 BE010000 		.4byte	.LLST8
 815 0446 12       		.uleb128 0x12
 816 0447 90010000 		.4byte	.LASF60
 817 044b 01       		.byte	0x1
 818 044c 36       		.byte	0x36
 819 044d FE000000 		.4byte	0xfe
 820 0451 50       		.byte	0x50
 821 0452 10       		.uleb128 0x10
 822 0453 06000000 		.4byte	.LASF61
 823 0457 01       		.byte	0x1
 824 0458 37       		.byte	0x37
 825 0459 1E030000 		.4byte	0x31e
 826 045d 50280040 		.4byte	0x40002850
 827 0461 11       		.uleb128 0x11
 828 0462 6900     		.ascii	"i\000"
 829 0464 01       		.byte	0x1
 830 0465 38       		.byte	0x38
 831 0466 B8000000 		.4byte	0xb8
 832 046a EA010000 		.4byte	.LLST9
 833 046e 00       		.byte	0
 834 046f 06       		.uleb128 0x6
 835 0470 04       		.byte	0x4
 836 0471 CE000000 		.4byte	0xce
 837 0475 0C       		.uleb128 0xc
 838 0476 0E020000 		.4byte	.LASF65
 839 047a 01       		.byte	0x1
 840 047b 4D       		.byte	0x4d
 841 047c A2000000 		.4byte	0xa2
 842 0480 00000000 		.4byte	.LFB114
 843 0484 48000000 		.4byte	.LFE114-.LFB114
 844 0488 01       		.uleb128 0x1
 845 0489 9C       		.byte	0x9c
 846 048a E4040000 		.4byte	0x4e4
 847 048e 0D       		.uleb128 0xd
 848 048f FD010000 		.4byte	.LASF57
 849 0493 01       		.byte	0x1
ARM GAS  /tmp/ccypgcYJ.s 			page 16


 850 0494 4D       		.byte	0x4d
 851 0495 6F040000 		.4byte	0x46f
 852 0499 FE010000 		.4byte	.LLST10
 853 049d 0D       		.uleb128 0xd
 854 049e 3F020000 		.4byte	.LASF58
 855 04a2 01       		.byte	0x1
 856 04a3 4D       		.byte	0x4d
 857 04a4 B8000000 		.4byte	0xb8
 858 04a8 51020000 		.4byte	.LLST11
 859 04ac 0D       		.uleb128 0xd
 860 04ad AD000000 		.4byte	.LASF59
 861 04b1 01       		.byte	0x1
 862 04b2 4D       		.byte	0x4d
 863 04b3 B8000000 		.4byte	0xb8
 864 04b7 7E020000 		.4byte	.LLST12
 865 04bb 12       		.uleb128 0x12
 866 04bc 90010000 		.4byte	.LASF60
 867 04c0 01       		.byte	0x1
 868 04c1 4E       		.byte	0x4e
 869 04c2 FE000000 		.4byte	0xfe
 870 04c6 50       		.byte	0x50
 871 04c7 10       		.uleb128 0x10
 872 04c8 06000000 		.4byte	.LASF61
 873 04cc 01       		.byte	0x1
 874 04cd 4F       		.byte	0x4f
 875 04ce 1E030000 		.4byte	0x31e
 876 04d2 50280040 		.4byte	0x40002850
 877 04d6 11       		.uleb128 0x11
 878 04d7 6900     		.ascii	"i\000"
 879 04d9 01       		.byte	0x1
 880 04da 50       		.byte	0x50
 881 04db B8000000 		.4byte	0xb8
 882 04df AA020000 		.4byte	.LLST13
 883 04e3 00       		.byte	0
 884 04e4 13       		.uleb128 0x13
 885 04e5 B7030000 		.4byte	.LASF69
 886 04e9 05       		.byte	0x5
 887 04ea 9806     		.2byte	0x698
 888 04ec F9000000 		.4byte	0xf9
 889 04f0 00       		.byte	0
 890              		.section	.debug_abbrev,"",%progbits
 891              	.Ldebug_abbrev0:
 892 0000 01       		.uleb128 0x1
 893 0001 11       		.uleb128 0x11
 894 0002 01       		.byte	0x1
 895 0003 25       		.uleb128 0x25
 896 0004 0E       		.uleb128 0xe
 897 0005 13       		.uleb128 0x13
 898 0006 0B       		.uleb128 0xb
 899 0007 03       		.uleb128 0x3
 900 0008 0E       		.uleb128 0xe
 901 0009 1B       		.uleb128 0x1b
 902 000a 0E       		.uleb128 0xe
 903 000b 55       		.uleb128 0x55
 904 000c 17       		.uleb128 0x17
 905 000d 11       		.uleb128 0x11
 906 000e 01       		.uleb128 0x1
ARM GAS  /tmp/ccypgcYJ.s 			page 17


 907 000f 10       		.uleb128 0x10
 908 0010 17       		.uleb128 0x17
 909 0011 00       		.byte	0
 910 0012 00       		.byte	0
 911 0013 02       		.uleb128 0x2
 912 0014 24       		.uleb128 0x24
 913 0015 00       		.byte	0
 914 0016 0B       		.uleb128 0xb
 915 0017 0B       		.uleb128 0xb
 916 0018 3E       		.uleb128 0x3e
 917 0019 0B       		.uleb128 0xb
 918 001a 03       		.uleb128 0x3
 919 001b 08       		.uleb128 0x8
 920 001c 00       		.byte	0
 921 001d 00       		.byte	0
 922 001e 03       		.uleb128 0x3
 923 001f 24       		.uleb128 0x24
 924 0020 00       		.byte	0
 925 0021 0B       		.uleb128 0xb
 926 0022 0B       		.uleb128 0xb
 927 0023 3E       		.uleb128 0x3e
 928 0024 0B       		.uleb128 0xb
 929 0025 03       		.uleb128 0x3
 930 0026 0E       		.uleb128 0xe
 931 0027 00       		.byte	0
 932 0028 00       		.byte	0
 933 0029 04       		.uleb128 0x4
 934 002a 16       		.uleb128 0x16
 935 002b 00       		.byte	0
 936 002c 03       		.uleb128 0x3
 937 002d 0E       		.uleb128 0xe
 938 002e 3A       		.uleb128 0x3a
 939 002f 0B       		.uleb128 0xb
 940 0030 3B       		.uleb128 0x3b
 941 0031 0B       		.uleb128 0xb
 942 0032 49       		.uleb128 0x49
 943 0033 13       		.uleb128 0x13
 944 0034 00       		.byte	0
 945 0035 00       		.byte	0
 946 0036 05       		.uleb128 0x5
 947 0037 35       		.uleb128 0x35
 948 0038 00       		.byte	0
 949 0039 49       		.uleb128 0x49
 950 003a 13       		.uleb128 0x13
 951 003b 00       		.byte	0
 952 003c 00       		.byte	0
 953 003d 06       		.uleb128 0x6
 954 003e 0F       		.uleb128 0xf
 955 003f 00       		.byte	0
 956 0040 0B       		.uleb128 0xb
 957 0041 0B       		.uleb128 0xb
 958 0042 49       		.uleb128 0x49
 959 0043 13       		.uleb128 0x13
 960 0044 00       		.byte	0
 961 0045 00       		.byte	0
 962 0046 07       		.uleb128 0x7
 963 0047 26       		.uleb128 0x26
ARM GAS  /tmp/ccypgcYJ.s 			page 18


 964 0048 00       		.byte	0
 965 0049 49       		.uleb128 0x49
 966 004a 13       		.uleb128 0x13
 967 004b 00       		.byte	0
 968 004c 00       		.byte	0
 969 004d 08       		.uleb128 0x8
 970 004e 13       		.uleb128 0x13
 971 004f 01       		.byte	0x1
 972 0050 0B       		.uleb128 0xb
 973 0051 0B       		.uleb128 0xb
 974 0052 3A       		.uleb128 0x3a
 975 0053 0B       		.uleb128 0xb
 976 0054 3B       		.uleb128 0x3b
 977 0055 05       		.uleb128 0x5
 978 0056 01       		.uleb128 0x1
 979 0057 13       		.uleb128 0x13
 980 0058 00       		.byte	0
 981 0059 00       		.byte	0
 982 005a 09       		.uleb128 0x9
 983 005b 0D       		.uleb128 0xd
 984 005c 00       		.byte	0
 985 005d 03       		.uleb128 0x3
 986 005e 08       		.uleb128 0x8
 987 005f 3A       		.uleb128 0x3a
 988 0060 0B       		.uleb128 0xb
 989 0061 3B       		.uleb128 0x3b
 990 0062 05       		.uleb128 0x5
 991 0063 49       		.uleb128 0x49
 992 0064 13       		.uleb128 0x13
 993 0065 38       		.uleb128 0x38
 994 0066 0B       		.uleb128 0xb
 995 0067 00       		.byte	0
 996 0068 00       		.byte	0
 997 0069 0A       		.uleb128 0xa
 998 006a 0D       		.uleb128 0xd
 999 006b 00       		.byte	0
 1000 006c 03       		.uleb128 0x3
 1001 006d 0E       		.uleb128 0xe
 1002 006e 3A       		.uleb128 0x3a
 1003 006f 0B       		.uleb128 0xb
 1004 0070 3B       		.uleb128 0x3b
 1005 0071 05       		.uleb128 0x5
 1006 0072 49       		.uleb128 0x49
 1007 0073 13       		.uleb128 0x13
 1008 0074 38       		.uleb128 0x38
 1009 0075 0B       		.uleb128 0xb
 1010 0076 00       		.byte	0
 1011 0077 00       		.byte	0
 1012 0078 0B       		.uleb128 0xb
 1013 0079 16       		.uleb128 0x16
 1014 007a 00       		.byte	0
 1015 007b 03       		.uleb128 0x3
 1016 007c 0E       		.uleb128 0xe
 1017 007d 3A       		.uleb128 0x3a
 1018 007e 0B       		.uleb128 0xb
 1019 007f 3B       		.uleb128 0x3b
 1020 0080 05       		.uleb128 0x5
ARM GAS  /tmp/ccypgcYJ.s 			page 19


 1021 0081 49       		.uleb128 0x49
 1022 0082 13       		.uleb128 0x13
 1023 0083 00       		.byte	0
 1024 0084 00       		.byte	0
 1025 0085 0C       		.uleb128 0xc
 1026 0086 2E       		.uleb128 0x2e
 1027 0087 01       		.byte	0x1
 1028 0088 3F       		.uleb128 0x3f
 1029 0089 19       		.uleb128 0x19
 1030 008a 03       		.uleb128 0x3
 1031 008b 0E       		.uleb128 0xe
 1032 008c 3A       		.uleb128 0x3a
 1033 008d 0B       		.uleb128 0xb
 1034 008e 3B       		.uleb128 0x3b
 1035 008f 0B       		.uleb128 0xb
 1036 0090 27       		.uleb128 0x27
 1037 0091 19       		.uleb128 0x19
 1038 0092 49       		.uleb128 0x49
 1039 0093 13       		.uleb128 0x13
 1040 0094 11       		.uleb128 0x11
 1041 0095 01       		.uleb128 0x1
 1042 0096 12       		.uleb128 0x12
 1043 0097 06       		.uleb128 0x6
 1044 0098 40       		.uleb128 0x40
 1045 0099 18       		.uleb128 0x18
 1046 009a 9742     		.uleb128 0x2117
 1047 009c 19       		.uleb128 0x19
 1048 009d 01       		.uleb128 0x1
 1049 009e 13       		.uleb128 0x13
 1050 009f 00       		.byte	0
 1051 00a0 00       		.byte	0
 1052 00a1 0D       		.uleb128 0xd
 1053 00a2 05       		.uleb128 0x5
 1054 00a3 00       		.byte	0
 1055 00a4 03       		.uleb128 0x3
 1056 00a5 0E       		.uleb128 0xe
 1057 00a6 3A       		.uleb128 0x3a
 1058 00a7 0B       		.uleb128 0xb
 1059 00a8 3B       		.uleb128 0x3b
 1060 00a9 0B       		.uleb128 0xb
 1061 00aa 49       		.uleb128 0x49
 1062 00ab 13       		.uleb128 0x13
 1063 00ac 02       		.uleb128 0x2
 1064 00ad 17       		.uleb128 0x17
 1065 00ae 00       		.byte	0
 1066 00af 00       		.byte	0
 1067 00b0 0E       		.uleb128 0xe
 1068 00b1 05       		.uleb128 0x5
 1069 00b2 00       		.byte	0
 1070 00b3 03       		.uleb128 0x3
 1071 00b4 0E       		.uleb128 0xe
 1072 00b5 3A       		.uleb128 0x3a
 1073 00b6 0B       		.uleb128 0xb
 1074 00b7 3B       		.uleb128 0x3b
 1075 00b8 0B       		.uleb128 0xb
 1076 00b9 49       		.uleb128 0x49
 1077 00ba 13       		.uleb128 0x13
ARM GAS  /tmp/ccypgcYJ.s 			page 20


 1078 00bb 02       		.uleb128 0x2
 1079 00bc 18       		.uleb128 0x18
 1080 00bd 00       		.byte	0
 1081 00be 00       		.byte	0
 1082 00bf 0F       		.uleb128 0xf
 1083 00c0 34       		.uleb128 0x34
 1084 00c1 00       		.byte	0
 1085 00c2 03       		.uleb128 0x3
 1086 00c3 0E       		.uleb128 0xe
 1087 00c4 3A       		.uleb128 0x3a
 1088 00c5 0B       		.uleb128 0xb
 1089 00c6 3B       		.uleb128 0x3b
 1090 00c7 0B       		.uleb128 0xb
 1091 00c8 49       		.uleb128 0x49
 1092 00c9 13       		.uleb128 0x13
 1093 00ca 1C       		.uleb128 0x1c
 1094 00cb 05       		.uleb128 0x5
 1095 00cc 00       		.byte	0
 1096 00cd 00       		.byte	0
 1097 00ce 10       		.uleb128 0x10
 1098 00cf 34       		.uleb128 0x34
 1099 00d0 00       		.byte	0
 1100 00d1 03       		.uleb128 0x3
 1101 00d2 0E       		.uleb128 0xe
 1102 00d3 3A       		.uleb128 0x3a
 1103 00d4 0B       		.uleb128 0xb
 1104 00d5 3B       		.uleb128 0x3b
 1105 00d6 0B       		.uleb128 0xb
 1106 00d7 49       		.uleb128 0x49
 1107 00d8 13       		.uleb128 0x13
 1108 00d9 1C       		.uleb128 0x1c
 1109 00da 06       		.uleb128 0x6
 1110 00db 00       		.byte	0
 1111 00dc 00       		.byte	0
 1112 00dd 11       		.uleb128 0x11
 1113 00de 34       		.uleb128 0x34
 1114 00df 00       		.byte	0
 1115 00e0 03       		.uleb128 0x3
 1116 00e1 08       		.uleb128 0x8
 1117 00e2 3A       		.uleb128 0x3a
 1118 00e3 0B       		.uleb128 0xb
 1119 00e4 3B       		.uleb128 0x3b
 1120 00e5 0B       		.uleb128 0xb
 1121 00e6 49       		.uleb128 0x49
 1122 00e7 13       		.uleb128 0x13
 1123 00e8 02       		.uleb128 0x2
 1124 00e9 17       		.uleb128 0x17
 1125 00ea 00       		.byte	0
 1126 00eb 00       		.byte	0
 1127 00ec 12       		.uleb128 0x12
 1128 00ed 34       		.uleb128 0x34
 1129 00ee 00       		.byte	0
 1130 00ef 03       		.uleb128 0x3
 1131 00f0 0E       		.uleb128 0xe
 1132 00f1 3A       		.uleb128 0x3a
 1133 00f2 0B       		.uleb128 0xb
 1134 00f3 3B       		.uleb128 0x3b
ARM GAS  /tmp/ccypgcYJ.s 			page 21


 1135 00f4 0B       		.uleb128 0xb
 1136 00f5 49       		.uleb128 0x49
 1137 00f6 13       		.uleb128 0x13
 1138 00f7 1C       		.uleb128 0x1c
 1139 00f8 0B       		.uleb128 0xb
 1140 00f9 00       		.byte	0
 1141 00fa 00       		.byte	0
 1142 00fb 13       		.uleb128 0x13
 1143 00fc 34       		.uleb128 0x34
 1144 00fd 00       		.byte	0
 1145 00fe 03       		.uleb128 0x3
 1146 00ff 0E       		.uleb128 0xe
 1147 0100 3A       		.uleb128 0x3a
 1148 0101 0B       		.uleb128 0xb
 1149 0102 3B       		.uleb128 0x3b
 1150 0103 05       		.uleb128 0x5
 1151 0104 49       		.uleb128 0x49
 1152 0105 13       		.uleb128 0x13
 1153 0106 3F       		.uleb128 0x3f
 1154 0107 19       		.uleb128 0x19
 1155 0108 3C       		.uleb128 0x3c
 1156 0109 19       		.uleb128 0x19
 1157 010a 00       		.byte	0
 1158 010b 00       		.byte	0
 1159 010c 00       		.byte	0
 1160              		.section	.debug_loc,"",%progbits
 1161              	.Ldebug_loc0:
 1162              	.LLST0:
 1163 0000 00000000 		.4byte	.LVL0
 1164 0004 22000000 		.4byte	.LVL6
 1165 0008 0100     		.2byte	0x1
 1166 000a 50       		.byte	0x50
 1167 000b 22000000 		.4byte	.LVL6
 1168 000f 2A000000 		.4byte	.LVL7
 1169 0013 0400     		.2byte	0x4
 1170 0015 F3       		.byte	0xf3
 1171 0016 01       		.uleb128 0x1
 1172 0017 50       		.byte	0x50
 1173 0018 9F       		.byte	0x9f
 1174 0019 2A000000 		.4byte	.LVL7
 1175 001d 2C000000 		.4byte	.LVL8
 1176 0021 0100     		.2byte	0x1
 1177 0023 50       		.byte	0x50
 1178 0024 2C000000 		.4byte	.LVL8
 1179 0028 34000000 		.4byte	.LFE111
 1180 002c 0400     		.2byte	0x4
 1181 002e F3       		.byte	0xf3
 1182 002f 01       		.uleb128 0x1
 1183 0030 50       		.byte	0x50
 1184 0031 9F       		.byte	0x9f
 1185 0032 00000000 		.4byte	0
 1186 0036 00000000 		.4byte	0
 1187              	.LLST1:
 1188 003a 00000000 		.4byte	.LVL0
 1189 003e 12000000 		.4byte	.LVL2
 1190 0042 0100     		.2byte	0x1
 1191 0044 52       		.byte	0x52
ARM GAS  /tmp/ccypgcYJ.s 			page 22


 1192 0045 12000000 		.4byte	.LVL2
 1193 0049 2A000000 		.4byte	.LVL7
 1194 004d 0400     		.2byte	0x4
 1195 004f F3       		.byte	0xf3
 1196 0050 01       		.uleb128 0x1
 1197 0051 52       		.byte	0x52
 1198 0052 9F       		.byte	0x9f
 1199 0053 2A000000 		.4byte	.LVL7
 1200 0057 34000000 		.4byte	.LFE111
 1201 005b 0100     		.2byte	0x1
 1202 005d 52       		.byte	0x52
 1203 005e 00000000 		.4byte	0
 1204 0062 00000000 		.4byte	0
 1205              	.LLST2:
 1206 0066 0A000000 		.4byte	.LVL1
 1207 006a 12000000 		.4byte	.LVL2
 1208 006e 0200     		.2byte	0x2
 1209 0070 30       		.byte	0x30
 1210 0071 9F       		.byte	0x9f
 1211 0072 12000000 		.4byte	.LVL2
 1212 0076 18000000 		.4byte	.LVL3
 1213 007a 0100     		.2byte	0x1
 1214 007c 53       		.byte	0x53
 1215 007d 18000000 		.4byte	.LVL3
 1216 0081 1A000000 		.4byte	.LVL4
 1217 0085 0300     		.2byte	0x3
 1218 0087 73       		.byte	0x73
 1219 0088 01       		.sleb128 1
 1220 0089 9F       		.byte	0x9f
 1221 008a 1A000000 		.4byte	.LVL4
 1222 008e 20000000 		.4byte	.LVL5
 1223 0092 0300     		.2byte	0x3
 1224 0094 73       		.byte	0x73
 1225 0095 00       		.sleb128 0
 1226 0096 9F       		.byte	0x9f
 1227 0097 00000000 		.4byte	0
 1228 009b 00000000 		.4byte	0
 1229              	.LLST3:
 1230 009f 00000000 		.4byte	.LVL9
 1231 00a3 22000000 		.4byte	.LVL15
 1232 00a7 0100     		.2byte	0x1
 1233 00a9 50       		.byte	0x50
 1234 00aa 22000000 		.4byte	.LVL15
 1235 00ae 2A000000 		.4byte	.LVL16
 1236 00b2 0400     		.2byte	0x4
 1237 00b4 F3       		.byte	0xf3
 1238 00b5 01       		.uleb128 0x1
 1239 00b6 50       		.byte	0x50
 1240 00b7 9F       		.byte	0x9f
 1241 00b8 2A000000 		.4byte	.LVL16
 1242 00bc 2C000000 		.4byte	.LVL17
 1243 00c0 0100     		.2byte	0x1
 1244 00c2 50       		.byte	0x50
 1245 00c3 2C000000 		.4byte	.LVL17
 1246 00c7 34000000 		.4byte	.LFE112
 1247 00cb 0400     		.2byte	0x4
 1248 00cd F3       		.byte	0xf3
ARM GAS  /tmp/ccypgcYJ.s 			page 23


 1249 00ce 01       		.uleb128 0x1
 1250 00cf 50       		.byte	0x50
 1251 00d0 9F       		.byte	0x9f
 1252 00d1 00000000 		.4byte	0
 1253 00d5 00000000 		.4byte	0
 1254              	.LLST4:
 1255 00d9 00000000 		.4byte	.LVL9
 1256 00dd 12000000 		.4byte	.LVL11
 1257 00e1 0100     		.2byte	0x1
 1258 00e3 52       		.byte	0x52
 1259 00e4 12000000 		.4byte	.LVL11
 1260 00e8 2A000000 		.4byte	.LVL16
 1261 00ec 0400     		.2byte	0x4
 1262 00ee F3       		.byte	0xf3
 1263 00ef 01       		.uleb128 0x1
 1264 00f0 52       		.byte	0x52
 1265 00f1 9F       		.byte	0x9f
 1266 00f2 2A000000 		.4byte	.LVL16
 1267 00f6 34000000 		.4byte	.LFE112
 1268 00fa 0100     		.2byte	0x1
 1269 00fc 52       		.byte	0x52
 1270 00fd 00000000 		.4byte	0
 1271 0101 00000000 		.4byte	0
 1272              	.LLST5:
 1273 0105 0A000000 		.4byte	.LVL10
 1274 0109 12000000 		.4byte	.LVL11
 1275 010d 0200     		.2byte	0x2
 1276 010f 30       		.byte	0x30
 1277 0110 9F       		.byte	0x9f
 1278 0111 12000000 		.4byte	.LVL11
 1279 0115 18000000 		.4byte	.LVL12
 1280 0119 0100     		.2byte	0x1
 1281 011b 53       		.byte	0x53
 1282 011c 18000000 		.4byte	.LVL12
 1283 0120 1A000000 		.4byte	.LVL13
 1284 0124 0300     		.2byte	0x3
 1285 0126 73       		.byte	0x73
 1286 0127 01       		.sleb128 1
 1287 0128 9F       		.byte	0x9f
 1288 0129 1A000000 		.4byte	.LVL13
 1289 012d 20000000 		.4byte	.LVL14
 1290 0131 0300     		.2byte	0x3
 1291 0133 73       		.byte	0x73
 1292 0134 00       		.sleb128 0
 1293 0135 9F       		.byte	0x9f
 1294 0136 00000000 		.4byte	0
 1295 013a 00000000 		.4byte	0
 1296              	.LLST6:
 1297 013e 00000000 		.4byte	.LVL18
 1298 0142 26000000 		.4byte	.LVL22
 1299 0146 0100     		.2byte	0x1
 1300 0148 50       		.byte	0x50
 1301 0149 26000000 		.4byte	.LVL22
 1302 014d 3C000000 		.4byte	.LVL23
 1303 0151 0400     		.2byte	0x4
 1304 0153 F3       		.byte	0xf3
 1305 0154 01       		.uleb128 0x1
ARM GAS  /tmp/ccypgcYJ.s 			page 24


 1306 0155 50       		.byte	0x50
 1307 0156 9F       		.byte	0x9f
 1308 0157 3C000000 		.4byte	.LVL23
 1309 015b 3E000000 		.4byte	.LVL24
 1310 015f 0100     		.2byte	0x1
 1311 0161 50       		.byte	0x50
 1312 0162 3E000000 		.4byte	.LVL24
 1313 0166 40000000 		.4byte	.LVL25
 1314 016a 0400     		.2byte	0x4
 1315 016c F3       		.byte	0xf3
 1316 016d 01       		.uleb128 0x1
 1317 016e 50       		.byte	0x50
 1318 016f 9F       		.byte	0x9f
 1319 0170 40000000 		.4byte	.LVL25
 1320 0174 42000000 		.4byte	.LVL26
 1321 0178 0100     		.2byte	0x1
 1322 017a 50       		.byte	0x50
 1323 017b 42000000 		.4byte	.LVL26
 1324 017f 48000000 		.4byte	.LFE113
 1325 0183 0400     		.2byte	0x4
 1326 0185 F3       		.byte	0xf3
 1327 0186 01       		.uleb128 0x1
 1328 0187 50       		.byte	0x50
 1329 0188 9F       		.byte	0x9f
 1330 0189 00000000 		.4byte	0
 1331 018d 00000000 		.4byte	0
 1332              	.LLST7:
 1333 0191 00000000 		.4byte	.LVL18
 1334 0195 10000000 		.4byte	.LVL19
 1335 0199 0100     		.2byte	0x1
 1336 019b 51       		.byte	0x51
 1337 019c 10000000 		.4byte	.LVL19
 1338 01a0 12000000 		.4byte	.LVL20
 1339 01a4 0500     		.2byte	0x5
 1340 01a6 71       		.byte	0x71
 1341 01a7 00       		.sleb128 0
 1342 01a8 32       		.byte	0x32
 1343 01a9 25       		.byte	0x25
 1344 01aa 9F       		.byte	0x9f
 1345 01ab 3C000000 		.4byte	.LVL23
 1346 01af 48000000 		.4byte	.LFE113
 1347 01b3 0100     		.2byte	0x1
 1348 01b5 51       		.byte	0x51
 1349 01b6 00000000 		.4byte	0
 1350 01ba 00000000 		.4byte	0
 1351              	.LLST8:
 1352 01be 00000000 		.4byte	.LVL18
 1353 01c2 1C000000 		.4byte	.LVL21
 1354 01c6 0100     		.2byte	0x1
 1355 01c8 52       		.byte	0x52
 1356 01c9 1C000000 		.4byte	.LVL21
 1357 01cd 3C000000 		.4byte	.LVL23
 1358 01d1 0400     		.2byte	0x4
 1359 01d3 F3       		.byte	0xf3
 1360 01d4 01       		.uleb128 0x1
 1361 01d5 52       		.byte	0x52
 1362 01d6 9F       		.byte	0x9f
ARM GAS  /tmp/ccypgcYJ.s 			page 25


 1363 01d7 3C000000 		.4byte	.LVL23
 1364 01db 48000000 		.4byte	.LFE113
 1365 01df 0100     		.2byte	0x1
 1366 01e1 52       		.byte	0x52
 1367 01e2 00000000 		.4byte	0
 1368 01e6 00000000 		.4byte	0
 1369              	.LLST9:
 1370 01ea 10000000 		.4byte	.LVL19
 1371 01ee 26000000 		.4byte	.LVL22
 1372 01f2 0200     		.2byte	0x2
 1373 01f4 30       		.byte	0x30
 1374 01f5 9F       		.byte	0x9f
 1375 01f6 00000000 		.4byte	0
 1376 01fa 00000000 		.4byte	0
 1377              	.LLST10:
 1378 01fe 00000000 		.4byte	.LVL27
 1379 0202 26000000 		.4byte	.LVL31
 1380 0206 0100     		.2byte	0x1
 1381 0208 50       		.byte	0x50
 1382 0209 26000000 		.4byte	.LVL31
 1383 020d 3A000000 		.4byte	.LVL32
 1384 0211 0400     		.2byte	0x4
 1385 0213 F3       		.byte	0xf3
 1386 0214 01       		.uleb128 0x1
 1387 0215 50       		.byte	0x50
 1388 0216 9F       		.byte	0x9f
 1389 0217 3A000000 		.4byte	.LVL32
 1390 021b 3C000000 		.4byte	.LVL33
 1391 021f 0100     		.2byte	0x1
 1392 0221 50       		.byte	0x50
 1393 0222 3C000000 		.4byte	.LVL33
 1394 0226 3E000000 		.4byte	.LVL34
 1395 022a 0400     		.2byte	0x4
 1396 022c F3       		.byte	0xf3
 1397 022d 01       		.uleb128 0x1
 1398 022e 50       		.byte	0x50
 1399 022f 9F       		.byte	0x9f
 1400 0230 3E000000 		.4byte	.LVL34
 1401 0234 40000000 		.4byte	.LVL35
 1402 0238 0100     		.2byte	0x1
 1403 023a 50       		.byte	0x50
 1404 023b 40000000 		.4byte	.LVL35
 1405 023f 48000000 		.4byte	.LFE114
 1406 0243 0400     		.2byte	0x4
 1407 0245 F3       		.byte	0xf3
 1408 0246 01       		.uleb128 0x1
 1409 0247 50       		.byte	0x50
 1410 0248 9F       		.byte	0x9f
 1411 0249 00000000 		.4byte	0
 1412 024d 00000000 		.4byte	0
 1413              	.LLST11:
 1414 0251 00000000 		.4byte	.LVL27
 1415 0255 10000000 		.4byte	.LVL28
 1416 0259 0100     		.2byte	0x1
 1417 025b 51       		.byte	0x51
 1418 025c 10000000 		.4byte	.LVL28
 1419 0260 12000000 		.4byte	.LVL29
ARM GAS  /tmp/ccypgcYJ.s 			page 26


 1420 0264 0500     		.2byte	0x5
 1421 0266 71       		.byte	0x71
 1422 0267 00       		.sleb128 0
 1423 0268 32       		.byte	0x32
 1424 0269 25       		.byte	0x25
 1425 026a 9F       		.byte	0x9f
 1426 026b 3A000000 		.4byte	.LVL32
 1427 026f 48000000 		.4byte	.LFE114
 1428 0273 0100     		.2byte	0x1
 1429 0275 51       		.byte	0x51
 1430 0276 00000000 		.4byte	0
 1431 027a 00000000 		.4byte	0
 1432              	.LLST12:
 1433 027e 00000000 		.4byte	.LVL27
 1434 0282 1C000000 		.4byte	.LVL30
 1435 0286 0100     		.2byte	0x1
 1436 0288 52       		.byte	0x52
 1437 0289 1C000000 		.4byte	.LVL30
 1438 028d 3A000000 		.4byte	.LVL32
 1439 0291 0400     		.2byte	0x4
 1440 0293 F3       		.byte	0xf3
 1441 0294 01       		.uleb128 0x1
 1442 0295 52       		.byte	0x52
 1443 0296 9F       		.byte	0x9f
 1444 0297 3A000000 		.4byte	.LVL32
 1445 029b 48000000 		.4byte	.LFE114
 1446 029f 0100     		.2byte	0x1
 1447 02a1 52       		.byte	0x52
 1448 02a2 00000000 		.4byte	0
 1449 02a6 00000000 		.4byte	0
 1450              	.LLST13:
 1451 02aa 10000000 		.4byte	.LVL28
 1452 02ae 26000000 		.4byte	.LVL31
 1453 02b2 0200     		.2byte	0x2
 1454 02b4 30       		.byte	0x30
 1455 02b5 9F       		.byte	0x9f
 1456 02b6 00000000 		.4byte	0
 1457 02ba 00000000 		.4byte	0
 1458              		.section	.debug_aranges,"",%progbits
 1459 0000 34000000 		.4byte	0x34
 1460 0004 0200     		.2byte	0x2
 1461 0006 00000000 		.4byte	.Ldebug_info0
 1462 000a 04       		.byte	0x4
 1463 000b 00       		.byte	0
 1464 000c 0000     		.2byte	0
 1465 000e 0000     		.2byte	0
 1466 0010 00000000 		.4byte	.LFB111
 1467 0014 34000000 		.4byte	.LFE111-.LFB111
 1468 0018 00000000 		.4byte	.LFB112
 1469 001c 34000000 		.4byte	.LFE112-.LFB112
 1470 0020 00000000 		.4byte	.LFB113
 1471 0024 48000000 		.4byte	.LFE113-.LFB113
 1472 0028 00000000 		.4byte	.LFB114
 1473 002c 48000000 		.4byte	.LFE114-.LFB114
 1474 0030 00000000 		.4byte	0
 1475 0034 00000000 		.4byte	0
 1476              		.section	.debug_ranges,"",%progbits
ARM GAS  /tmp/ccypgcYJ.s 			page 27


 1477              	.Ldebug_ranges0:
 1478 0000 00000000 		.4byte	.LFB111
 1479 0004 34000000 		.4byte	.LFE111
 1480 0008 00000000 		.4byte	.LFB112
 1481 000c 34000000 		.4byte	.LFE112
 1482 0010 00000000 		.4byte	.LFB113
 1483 0014 48000000 		.4byte	.LFE113
 1484 0018 00000000 		.4byte	.LFB114
 1485 001c 48000000 		.4byte	.LFE114
 1486 0020 00000000 		.4byte	0
 1487 0024 00000000 		.4byte	0
 1488              		.section	.debug_line,"",%progbits
 1489              	.Ldebug_line0:
 1490 0000 91010000 		.section	.debug_str,"MS",%progbits,1
 1490      0200EC00 
 1490      00000201 
 1490      FB0E0D00 
 1490      01010101 
 1491              	.LASF42:
 1492 0000 424B5036 		.ascii	"BKP6R\000"
 1492      5200
 1493              	.LASF61:
 1494 0006 62617365 		.ascii	"base_addr\000"
 1494      5F616464 
 1494      7200
 1495              	.LASF38:
 1496 0010 424B5032 		.ascii	"BKP2R\000"
 1496      5200
 1497              	.LASF14:
 1498 0016 696E7438 		.ascii	"int8_t\000"
 1498      5F7400
 1499              	.LASF5:
 1500 001d 73686F72 		.ascii	"short int\000"
 1500      7420696E 
 1500      7400
 1501              	.LASF20:
 1502 0027 73697A65 		.ascii	"sizetype\000"
 1502      74797065 
 1502      00
 1503              	.LASF31:
 1504 0030 43414C52 		.ascii	"CALR\000"
 1504      00
 1505              	.LASF23:
 1506 0035 57555452 		.ascii	"WUTR\000"
 1506      00
 1507              	.LASF10:
 1508 003a 5F5F7569 		.ascii	"__uint32_t\000"
 1508      6E743332 
 1508      5F7400
 1509              	.LASF49:
 1510 0045 424B5031 		.ascii	"BKP13R\000"
 1510      335200
 1511              	.LASF6:
 1512 004c 5F5F7569 		.ascii	"__uint16_t\000"
 1512      6E743136 
 1512      5F7400
 1513              	.LASF15:
ARM GAS  /tmp/ccypgcYJ.s 			page 28


 1514 0057 75696E74 		.ascii	"uint8_t\000"
 1514      385F7400 
 1515              	.LASF53:
 1516 005f 424B5031 		.ascii	"BKP17R\000"
 1516      375200
 1517              	.LASF29:
 1518 0066 54534452 		.ascii	"TSDR\000"
 1518      00
 1519              	.LASF32:
 1520 006b 54414643 		.ascii	"TAFCR\000"
 1520      5200
 1521              	.LASF22:
 1522 0071 50524552 		.ascii	"PRER\000"
 1522      00
 1523              	.LASF39:
 1524 0076 424B5033 		.ascii	"BKP3R\000"
 1524      5200
 1525              	.LASF37:
 1526 007c 424B5031 		.ascii	"BKP1R\000"
 1526      5200
 1527              	.LASF12:
 1528 0082 6C6F6E67 		.ascii	"long long int\000"
 1528      206C6F6E 
 1528      6720696E 
 1528      7400
 1529              	.LASF24:
 1530 0090 43414C49 		.ascii	"CALIBR\000"
 1530      425200
 1531              	.LASF9:
 1532 0097 6C6F6E67 		.ascii	"long int\000"
 1532      20696E74 
 1532      00
 1533              	.LASF46:
 1534 00a0 424B5031 		.ascii	"BKP10R\000"
 1534      305200
 1535              	.LASF43:
 1536 00a7 424B5037 		.ascii	"BKP7R\000"
 1536      5200
 1537              	.LASF59:
 1538 00ad 6F666673 		.ascii	"offset\000"
 1538      657400
 1539              	.LASF3:
 1540 00b4 5F5F7569 		.ascii	"__uint8_t\000"
 1540      6E74385F 
 1540      7400
 1541              	.LASF33:
 1542 00be 414C524D 		.ascii	"ALRMASSR\000"
 1542      41535352 
 1542      00
 1543              	.LASF50:
 1544 00c7 424B5031 		.ascii	"BKP14R\000"
 1544      345200
 1545              	.LASF64:
 1546 00ce 77726974 		.ascii	"write_to_backup_rtc\000"
 1546      655F746F 
 1546      5F626163 
 1546      6B75705F 
ARM GAS  /tmp/ccypgcYJ.s 			page 29


 1546      72746300 
 1547              	.LASF4:
 1548 00e2 756E7369 		.ascii	"unsigned char\000"
 1548      676E6564 
 1548      20636861 
 1548      7200
 1549              	.LASF54:
 1550 00f0 424B5031 		.ascii	"BKP18R\000"
 1550      385200
 1551              	.LASF36:
 1552 00f7 424B5030 		.ascii	"BKP0R\000"
 1552      5200
 1553              	.LASF1:
 1554 00fd 7369676E 		.ascii	"signed char\000"
 1554      65642063 
 1554      68617200 
 1555              	.LASF13:
 1556 0109 6C6F6E67 		.ascii	"long long unsigned int\000"
 1556      206C6F6E 
 1556      6720756E 
 1556      7369676E 
 1556      65642069 
 1557              	.LASF18:
 1558 0120 75696E74 		.ascii	"uint32_t\000"
 1558      33325F74 
 1558      00
 1559              	.LASF25:
 1560 0129 414C524D 		.ascii	"ALRMAR\000"
 1560      415200
 1561              	.LASF68:
 1562 0130 2F686F6D 		.ascii	"/home/makkmarci/devel/ChibiOS_2.6.5/projects/STM32F"
 1562      652F6D61 
 1562      6B6B6D61 
 1562      7263692F 
 1562      64657665 
 1563 0163 345F4368 		.ascii	"4_ChibiOS_uGFX_gwin_2/\000"
 1563      6962694F 
 1563      535F7547 
 1563      46585F67 
 1563      77696E5F 
 1564              	.LASF0:
 1565 017a 756E7369 		.ascii	"unsigned int\000"
 1565      676E6564 
 1565      20696E74 
 1565      00
 1566              	.LASF16:
 1567 0187 75696E74 		.ascii	"uint16_t\000"
 1567      31365F74 
 1567      00
 1568              	.LASF60:
 1569 0190 6261636B 		.ascii	"backup_size\000"
 1569      75705F73 
 1569      697A6500 
 1570              	.LASF27:
 1571 019c 53484946 		.ascii	"SHIFTR\000"
 1571      545200
 1572              	.LASF40:
ARM GAS  /tmp/ccypgcYJ.s 			page 30


 1573 01a3 424B5034 		.ascii	"BKP4R\000"
 1573      5200
 1574              	.LASF28:
 1575 01a9 54535452 		.ascii	"TSTR\000"
 1575      00
 1576              	.LASF7:
 1577 01ae 73686F72 		.ascii	"short unsigned int\000"
 1577      7420756E 
 1577      7369676E 
 1577      65642069 
 1577      6E7400
 1578              	.LASF2:
 1579 01c1 5F5F696E 		.ascii	"__int8_t\000"
 1579      74385F74 
 1579      00
 1580              	.LASF21:
 1581 01ca 63686172 		.ascii	"char\000"
 1581      00
 1582              	.LASF44:
 1583 01cf 424B5038 		.ascii	"BKP8R\000"
 1583      5200
 1584              	.LASF17:
 1585 01d5 696E7433 		.ascii	"int32_t\000"
 1585      325F7400 
 1586              	.LASF8:
 1587 01dd 5F5F696E 		.ascii	"__int32_t\000"
 1587      7433325F 
 1587      7400
 1588              	.LASF34:
 1589 01e7 414C524D 		.ascii	"ALRMBSSR\000"
 1589      42535352 
 1589      00
 1590              	.LASF19:
 1591 01f0 5F426F6F 		.ascii	"_Bool\000"
 1591      6C00
 1592              	.LASF51:
 1593 01f6 424B5031 		.ascii	"BKP15R\000"
 1593      355200
 1594              	.LASF57:
 1595 01fd 64617461 		.ascii	"data\000"
 1595      00
 1596              	.LASF56:
 1597 0202 5254435F 		.ascii	"RTC_TypeDef\000"
 1597      54797065 
 1597      44656600 
 1598              	.LASF65:
 1599 020e 72656164 		.ascii	"read_from_backup_rtc\000"
 1599      5F66726F 
 1599      6D5F6261 
 1599      636B7570 
 1599      5F727463 
 1600              	.LASF11:
 1601 0223 6C6F6E67 		.ascii	"long unsigned int\000"
 1601      20756E73 
 1601      69676E65 
 1601      6420696E 
 1601      7400
ARM GAS  /tmp/ccypgcYJ.s 			page 31


 1602              	.LASF35:
 1603 0235 52455345 		.ascii	"RESERVED7\000"
 1603      52564544 
 1603      3700
 1604              	.LASF58:
 1605 023f 62797465 		.ascii	"bytes\000"
 1605      7300
 1606              	.LASF63:
 1607 0245 72656164 		.ascii	"read_from_backup_sram\000"
 1607      5F66726F 
 1607      6D5F6261 
 1607      636B7570 
 1607      5F737261 
 1608              	.LASF55:
 1609 025b 424B5031 		.ascii	"BKP19R\000"
 1609      395200
 1610              	.LASF66:
 1611 0262 474E5520 		.ascii	"GNU C 4.8.4 20140526 (release) [ARM/embedded-4_8-br"
 1611      4320342E 
 1611      382E3420 
 1611      32303134 
 1611      30353236 
 1612 0295 616E6368 		.ascii	"anch revision 211358] -mcpu=cortex-m4 -mfloat-abi=h"
 1612      20726576 
 1612      6973696F 
 1612      6E203231 
 1612      31333538 
 1613 02c8 61726420 		.ascii	"ard -mfpu=fpv4-sp-d16 -mno-thumb-interwork -mthumb "
 1613      2D6D6670 
 1613      753D6670 
 1613      76342D73 
 1613      702D6431 
 1614 02fb 2D676764 		.ascii	"-ggdb -O2 -fomit-frame-pointer -falign-functions=16"
 1614      62202D4F 
 1614      32202D66 
 1614      6F6D6974 
 1614      2D667261 
 1615 032e 202D6666 		.ascii	" -ffunction-sections -fdata-sections -fno-common -f"
 1615      756E6374 
 1615      696F6E2D 
 1615      73656374 
 1615      696F6E73 
 1616 0361 73696E67 		.ascii	"single-precision-constant\000"
 1616      6C652D70 
 1616      72656369 
 1616      73696F6E 
 1616      2D636F6E 
 1617              	.LASF26:
 1618 037b 414C524D 		.ascii	"ALRMBR\000"
 1618      425200
 1619              	.LASF47:
 1620 0382 424B5031 		.ascii	"BKP11R\000"
 1620      315200
 1621              	.LASF41:
 1622 0389 424B5035 		.ascii	"BKP5R\000"
 1622      5200
 1623              	.LASF62:
ARM GAS  /tmp/ccypgcYJ.s 			page 32


 1624 038f 77726974 		.ascii	"write_to_backup_sram\000"
 1624      655F746F 
 1624      5F626163 
 1624      6B75705F 
 1624      7372616D 
 1625              	.LASF30:
 1626 03a4 54535353 		.ascii	"TSSSR\000"
 1626      5200
 1627              	.LASF48:
 1628 03aa 424B5031 		.ascii	"BKP12R\000"
 1628      325200
 1629              	.LASF45:
 1630 03b1 424B5039 		.ascii	"BKP9R\000"
 1630      5200
 1631              	.LASF69:
 1632 03b7 49544D5F 		.ascii	"ITM_RxBuffer\000"
 1632      52784275 
 1632      66666572 
 1632      00
 1633              	.LASF67:
 1634 03c4 7372616D 		.ascii	"sram.c\000"
 1634      2E6300
 1635              	.LASF52:
 1636 03cb 424B5031 		.ascii	"BKP16R\000"
 1636      365200
 1637              		.ident	"GCC: (GNU Tools for ARM Embedded Processors) 4.8.4 20140526 (release) [ARM/embedded-4_8-br
ARM GAS  /tmp/ccypgcYJ.s 			page 33


DEFINED SYMBOLS
                            *ABS*:00000000 sram.c
     /tmp/ccypgcYJ.s:21     .text.write_to_backup_sram:00000000 $t
     /tmp/ccypgcYJ.s:27     .text.write_to_backup_sram:00000000 write_to_backup_sram
     /tmp/ccypgcYJ.s:83     .text.write_to_backup_sram:00000030 $d
     /tmp/ccypgcYJ.s:88     .text.read_from_backup_sram:00000000 $t
     /tmp/ccypgcYJ.s:94     .text.read_from_backup_sram:00000000 read_from_backup_sram
     /tmp/ccypgcYJ.s:149    .text.read_from_backup_sram:00000030 $d
     /tmp/ccypgcYJ.s:154    .text.write_to_backup_rtc:00000000 $t
     /tmp/ccypgcYJ.s:160    .text.write_to_backup_rtc:00000000 write_to_backup_rtc
     /tmp/ccypgcYJ.s:226    .text.write_to_backup_rtc:00000044 $d
     /tmp/ccypgcYJ.s:231    .text.read_from_backup_rtc:00000000 $t
     /tmp/ccypgcYJ.s:237    .text.read_from_backup_rtc:00000000 read_from_backup_rtc
     /tmp/ccypgcYJ.s:302    .text.read_from_backup_rtc:00000044 $d
                     .debug_frame:00000010 $d
     /tmp/ccypgcYJ.s:87     .text.write_to_backup_sram:00000034 $t
     /tmp/ccypgcYJ.s:153    .text.read_from_backup_sram:00000034 $t
     /tmp/ccypgcYJ.s:230    .text.write_to_backup_rtc:00000048 $t
     /tmp/ccypgcYJ.s:306    .text.read_from_backup_rtc:00000048 $t

NO UNDEFINED SYMBOLS
