ARM GAS  /tmp/ccFyFdsa.s 			page 1


   1              		.syntax unified
   2              		.cpu cortex-m4
   3              		.eabi_attribute 27, 3
   4              		.eabi_attribute 28, 1
   5              		.fpu fpv4-sp-d16
   6              		.eabi_attribute 20, 1
   7              		.eabi_attribute 21, 1
   8              		.eabi_attribute 23, 3
   9              		.eabi_attribute 24, 1
  10              		.eabi_attribute 25, 1
  11              		.eabi_attribute 26, 1
  12              		.eabi_attribute 30, 2
  13              		.eabi_attribute 34, 1
  14              		.eabi_attribute 18, 4
  15              		.thumb
  16              		.file	"testthd.c"
  17              		.text
  18              	.Ltext0:
  19              		.cfi_sections	.debug_frame
  20              		.section	.text.thd1_execute,"ax",%progbits
  21              		.align	2
  22              		.p2align 4,,15
  23              		.thumb
  24              		.thumb_func
  25              		.type	thd1_execute, %function
  26              	thd1_execute:
  27              	.LFB8:
  28              		.file 1 "../../test/testthd.c"
  29              		.loc 1 66 0
  30              		.cfi_startproc
  31              		@ args = 0, pretend = 0, frame = 0
  32              		@ frame_needed = 0, uses_anonymous_args = 0
  33 0000 F0B5     		push	{r4, r5, r6, r7, lr}
  34              		.cfi_def_cfa_offset 20
  35              		.cfi_offset 4, -20
  36              		.cfi_offset 5, -16
  37              		.cfi_offset 6, -12
  38              		.cfi_offset 7, -8
  39              		.cfi_offset 14, -4
  40              		.loc 1 68 0
  41 0002 274F     		ldr	r7, .L2
  42 0004 274E     		ldr	r6, .L2+4
  43 0006 BB69     		ldr	r3, [r7, #24]
  44 0008 274D     		ldr	r5, .L2+8
  45 000a 9A68     		ldr	r2, [r3, #8]
  46 000c 274B     		ldr	r3, .L2+12
  47 000e 3068     		ldr	r0, [r6]
  48 0010 274C     		ldr	r4, .L2+16
  49              		.loc 1 66 0
  50 0012 83B0     		sub	sp, sp, #12
  51              		.cfi_def_cfa_offset 32
  52              		.loc 1 68 0
  53 0014 053A     		subs	r2, r2, #5
  54 0016 0093     		str	r3, [sp]
  55 0018 4FF4EC71 		mov	r1, #472
  56 001c 2B46     		mov	r3, r5
  57 001e FFF7FEFF 		bl	chThdCreateStatic
ARM GAS  /tmp/ccFyFdsa.s 			page 2


  58              	.LVL0:
  59              		.loc 1 69 0
  60 0022 BB69     		ldr	r3, [r7, #24]
  61 0024 2349     		ldr	r1, .L2+20
  62 0026 9A68     		ldr	r2, [r3, #8]
  63 0028 7368     		ldr	r3, [r6, #4]
  64              		.loc 1 68 0
  65 002a 2060     		str	r0, [r4]
  66              		.loc 1 69 0
  67 002c 0091     		str	r1, [sp]
  68 002e 043A     		subs	r2, r2, #4
  69 0030 1846     		mov	r0, r3
  70 0032 4FF4EC71 		mov	r1, #472
  71 0036 2B46     		mov	r3, r5
  72 0038 FFF7FEFF 		bl	chThdCreateStatic
  73              	.LVL1:
  74              		.loc 1 70 0
  75 003c BA69     		ldr	r2, [r7, #24]
  76 003e B368     		ldr	r3, [r6, #8]
  77 0040 9268     		ldr	r2, [r2, #8]
  78 0042 1D49     		ldr	r1, .L2+24
  79              		.loc 1 69 0
  80 0044 6060     		str	r0, [r4, #4]
  81              		.loc 1 70 0
  82 0046 0091     		str	r1, [sp]
  83 0048 033A     		subs	r2, r2, #3
  84 004a 1846     		mov	r0, r3
  85 004c 4FF4EC71 		mov	r1, #472
  86 0050 2B46     		mov	r3, r5
  87 0052 FFF7FEFF 		bl	chThdCreateStatic
  88              	.LVL2:
  89              		.loc 1 71 0
  90 0056 BA69     		ldr	r2, [r7, #24]
  91 0058 F368     		ldr	r3, [r6, #12]
  92 005a 9268     		ldr	r2, [r2, #8]
  93 005c 1749     		ldr	r1, .L2+28
  94              		.loc 1 70 0
  95 005e A060     		str	r0, [r4, #8]
  96              		.loc 1 71 0
  97 0060 0091     		str	r1, [sp]
  98 0062 023A     		subs	r2, r2, #2
  99 0064 1846     		mov	r0, r3
 100 0066 4FF4EC71 		mov	r1, #472
 101 006a 2B46     		mov	r3, r5
 102 006c FFF7FEFF 		bl	chThdCreateStatic
 103              	.LVL3:
 104              		.loc 1 72 0
 105 0070 BA69     		ldr	r2, [r7, #24]
 106 0072 3369     		ldr	r3, [r6, #16]
 107 0074 9268     		ldr	r2, [r2, #8]
 108 0076 1249     		ldr	r1, .L2+32
 109              		.loc 1 71 0
 110 0078 E060     		str	r0, [r4, #12]
 111              		.loc 1 72 0
 112 007a 013A     		subs	r2, r2, #1
 113 007c 0091     		str	r1, [sp]
 114 007e 1846     		mov	r0, r3
ARM GAS  /tmp/ccFyFdsa.s 			page 3


 115 0080 4FF4EC71 		mov	r1, #472
 116 0084 2B46     		mov	r3, r5
 117 0086 FFF7FEFF 		bl	chThdCreateStatic
 118              	.LVL4:
 119 008a 2061     		str	r0, [r4, #16]
 120              		.loc 1 73 0
 121 008c FFF7FEFF 		bl	test_wait_threads
 122              	.LVL5:
 123              		.loc 1 74 0
 124 0090 0C49     		ldr	r1, .L2+36
 125 0092 0120     		movs	r0, #1
 126              		.loc 1 75 0
 127 0094 03B0     		add	sp, sp, #12
 128              		@ sp needed
 129 0096 BDE8F040 		pop	{r4, r5, r6, r7, lr}
 130              		.loc 1 74 0
 131 009a FFF7FEBF 		b	_test_assert_sequence
 132              	.LVL6:
 133              	.L3:
 134 009e 00BF     		.align	2
 135              	.L2:
 136 00a0 00000000 		.word	rlist
 137 00a4 00000000 		.word	wa
 138 00a8 00000000 		.word	thread
 139 00ac 00000000 		.word	.LC0
 140 00b0 00000000 		.word	threads
 141 00b4 04000000 		.word	.LC1
 142 00b8 08000000 		.word	.LC2
 143 00bc 0C000000 		.word	.LC3
 144 00c0 10000000 		.word	.LC4
 145 00c4 14000000 		.word	.LC5
 146              		.cfi_endproc
 147              	.LFE8:
 148              		.size	thd1_execute, .-thd1_execute
 149              		.section	.text.thread,"ax",%progbits
 150              		.align	2
 151              		.p2align 4,,15
 152              		.thumb
 153              		.thumb_func
 154              		.type	thread, %function
 155              	thread:
 156              	.LFB7:
 157              		.loc 1 60 0
 158              		.cfi_startproc
 159              		@ args = 0, pretend = 0, frame = 0
 160              		@ frame_needed = 0, uses_anonymous_args = 0
 161              	.LVL7:
 162 0000 08B5     		push	{r3, lr}
 163              		.cfi_def_cfa_offset 8
 164              		.cfi_offset 3, -8
 165              		.cfi_offset 14, -4
 166              		.loc 1 62 0
 167 0002 0078     		ldrb	r0, [r0]	@ zero_extendqisi2
 168              	.LVL8:
 169 0004 FFF7FEFF 		bl	test_emit_token
 170              	.LVL9:
 171              		.loc 1 64 0
ARM GAS  /tmp/ccFyFdsa.s 			page 4


 172 0008 0020     		movs	r0, #0
 173 000a 08BD     		pop	{r3, pc}
 174              		.cfi_endproc
 175              	.LFE7:
 176              		.size	thread, .-thread
 177 000c AFF30080 		.section	.text.thd2_execute,"ax",%progbits
 178              		.align	2
 179              		.p2align 4,,15
 180              		.thumb
 181              		.thumb_func
 182              		.type	thd2_execute, %function
 183              	thd2_execute:
 184              	.LFB9:
 185              		.loc 1 94 0
 186              		.cfi_startproc
 187              		@ args = 0, pretend = 0, frame = 0
 188              		@ frame_needed = 0, uses_anonymous_args = 0
 189 0000 F0B5     		push	{r4, r5, r6, r7, lr}
 190              		.cfi_def_cfa_offset 20
 191              		.cfi_offset 4, -20
 192              		.cfi_offset 5, -16
 193              		.cfi_offset 6, -12
 194              		.cfi_offset 7, -8
 195              		.cfi_offset 14, -4
 196              		.loc 1 96 0
 197 0002 2D4F     		ldr	r7, .L6
 198 0004 2D4E     		ldr	r6, .L6+4
 199 0006 BB69     		ldr	r3, [r7, #24]
 200 0008 2D4D     		ldr	r5, .L6+8
 201 000a 9A68     		ldr	r2, [r3, #8]
 202 000c 2D4B     		ldr	r3, .L6+12
 203 000e 7068     		ldr	r0, [r6, #4]
 204 0010 2D4C     		ldr	r4, .L6+16
 205              		.loc 1 94 0
 206 0012 83B0     		sub	sp, sp, #12
 207              		.cfi_def_cfa_offset 32
 208              		.loc 1 96 0
 209 0014 043A     		subs	r2, r2, #4
 210 0016 0093     		str	r3, [sp]
 211 0018 4FF4EC71 		mov	r1, #472
 212 001c 2B46     		mov	r3, r5
 213 001e FFF7FEFF 		bl	chThdCreateStatic
 214              	.LVL10:
 215              		.loc 1 97 0
 216 0022 BB69     		ldr	r3, [r7, #24]
 217 0024 2949     		ldr	r1, .L6+20
 218 0026 9A68     		ldr	r2, [r3, #8]
 219 0028 3368     		ldr	r3, [r6]
 220              		.loc 1 96 0
 221 002a 6060     		str	r0, [r4, #4]
 222              		.loc 1 97 0
 223 002c 0091     		str	r1, [sp]
 224 002e 053A     		subs	r2, r2, #5
 225 0030 1846     		mov	r0, r3
 226 0032 4FF4EC71 		mov	r1, #472
 227 0036 2B46     		mov	r3, r5
 228 0038 FFF7FEFF 		bl	chThdCreateStatic
ARM GAS  /tmp/ccFyFdsa.s 			page 5


 229              	.LVL11:
 230              		.loc 1 98 0
 231 003c BA69     		ldr	r2, [r7, #24]
 232 003e 3369     		ldr	r3, [r6, #16]
 233 0040 9268     		ldr	r2, [r2, #8]
 234 0042 2349     		ldr	r1, .L6+24
 235              		.loc 1 97 0
 236 0044 2060     		str	r0, [r4]
 237              		.loc 1 98 0
 238 0046 0091     		str	r1, [sp]
 239 0048 013A     		subs	r2, r2, #1
 240 004a 1846     		mov	r0, r3
 241 004c 4FF4EC71 		mov	r1, #472
 242 0050 2B46     		mov	r3, r5
 243 0052 FFF7FEFF 		bl	chThdCreateStatic
 244              	.LVL12:
 245              		.loc 1 99 0
 246 0056 BA69     		ldr	r2, [r7, #24]
 247 0058 F368     		ldr	r3, [r6, #12]
 248 005a 9268     		ldr	r2, [r2, #8]
 249 005c 1D49     		ldr	r1, .L6+28
 250              		.loc 1 98 0
 251 005e 2061     		str	r0, [r4, #16]
 252              		.loc 1 99 0
 253 0060 0091     		str	r1, [sp]
 254 0062 023A     		subs	r2, r2, #2
 255 0064 1846     		mov	r0, r3
 256 0066 4FF4EC71 		mov	r1, #472
 257 006a 2B46     		mov	r3, r5
 258 006c FFF7FEFF 		bl	chThdCreateStatic
 259              	.LVL13:
 260              	.LBB2:
 261              		.loc 1 101 0
 262 0070 2023     		movs	r3, #32
 263              	.LBE2:
 264              		.loc 1 99 0
 265 0072 E060     		str	r0, [r4, #12]
 266              	.LBB3:
 267              		.loc 1 101 0
 268              	@ 101 "../../test/testthd.c" 1
 269 0074 83F31188 		msr     BASEPRI, r3
 270              	@ 0 "" 2
 271              		.thumb
 272              	.LBE3:
 273 0078 FFF7FEFF 		bl	dbg_check_lock
 274              	.LVL14:
 275              		.loc 1 102 0
 276 007c BB69     		ldr	r3, [r7, #24]
 277 007e B068     		ldr	r0, [r6, #8]
 278 0080 9A68     		ldr	r2, [r3, #8]
 279 0082 154B     		ldr	r3, .L6+32
 280 0084 0093     		str	r3, [sp]
 281 0086 033A     		subs	r2, r2, #3
 282 0088 2B46     		mov	r3, r5
 283 008a 4FF4EC71 		mov	r1, #472
 284 008e FFF7FEFF 		bl	chThdCreateI
 285              	.LVL15:
ARM GAS  /tmp/ccFyFdsa.s 			page 6


 286 0092 A060     		str	r0, [r4, #8]
 287              		.loc 1 103 0
 288 0094 FFF7FEFF 		bl	dbg_check_unlock
 289              	.LVL16:
 290              	.LBB4:
 291 0098 0023     		movs	r3, #0
 292              	@ 103 "../../test/testthd.c" 1
 293 009a 83F31188 		msr     BASEPRI, r3
 294              	@ 0 "" 2
 295              		.thumb
 296              	.LBE4:
 297              		.loc 1 104 0
 298 009e A068     		ldr	r0, [r4, #8]
 299 00a0 FFF7FEFF 		bl	chThdResume
 300              	.LVL17:
 301              		.loc 1 105 0
 302 00a4 FFF7FEFF 		bl	test_wait_threads
 303              	.LVL18:
 304              		.loc 1 106 0
 305 00a8 0C49     		ldr	r1, .L6+36
 306 00aa 0120     		movs	r0, #1
 307              		.loc 1 107 0
 308 00ac 03B0     		add	sp, sp, #12
 309              		@ sp needed
 310 00ae BDE8F040 		pop	{r4, r5, r6, r7, lr}
 311              		.loc 1 106 0
 312 00b2 FFF7FEBF 		b	_test_assert_sequence
 313              	.LVL19:
 314              	.L7:
 315 00b6 00BF     		.align	2
 316              	.L6:
 317 00b8 00000000 		.word	rlist
 318 00bc 00000000 		.word	wa
 319 00c0 00000000 		.word	thread
 320 00c4 04000000 		.word	.LC1
 321 00c8 00000000 		.word	threads
 322 00cc 00000000 		.word	.LC0
 323 00d0 10000000 		.word	.LC4
 324 00d4 0C000000 		.word	.LC3
 325 00d8 08000000 		.word	.LC2
 326 00dc 14000000 		.word	.LC5
 327              		.cfi_endproc
 328              	.LFE9:
 329              		.size	thd2_execute, .-thd2_execute
 330              		.section	.text.thd3_execute,"ax",%progbits
 331              		.align	2
 332              		.p2align 4,,15
 333              		.thumb
 334              		.thumb_func
 335              		.type	thd3_execute, %function
 336              	thd3_execute:
 337              	.LFB10:
 338              		.loc 1 126 0
 339              		.cfi_startproc
 340              		@ args = 0, pretend = 0, frame = 0
 341              		@ frame_needed = 0, uses_anonymous_args = 0
 342 0000 F8B5     		push	{r3, r4, r5, r6, r7, lr}
ARM GAS  /tmp/ccFyFdsa.s 			page 7


 343              		.cfi_def_cfa_offset 24
 344              		.cfi_offset 3, -24
 345              		.cfi_offset 4, -20
 346              		.cfi_offset 5, -16
 347              		.cfi_offset 6, -12
 348              		.cfi_offset 7, -8
 349              		.cfi_offset 14, -4
 350              		.loc 1 129 0
 351 0002 534E     		ldr	r6, .L14
 352 0004 B369     		ldr	r3, [r6, #24]
 353 0006 9C68     		ldr	r4, [r3, #8]
 354              	.LVL20:
 355              		.loc 1 130 0
 356 0008 651C     		adds	r5, r4, #1
 357 000a 2846     		mov	r0, r5
 358 000c FFF7FEFF 		bl	chThdSetPriority
 359              	.LVL21:
 360              		.loc 1 131 0
 361 0010 B0EB040C 		subs	ip, r0, r4
 362 0014 DCF10001 		rsbs	r1, ip, #0
 363              		.loc 1 130 0
 364 0018 0746     		mov	r7, r0
 365              	.LVL22:
 366              		.loc 1 131 0
 367 001a 51EB0C01 		adcs	r1, r1, ip
 368 001e 0120     		movs	r0, #1
 369              	.LVL23:
 370 0020 FFF7FEFF 		bl	_test_assert
 371              	.LVL24:
 372 0024 00B1     		cbz	r0, .L13
 373              	.LVL25:
 374              	.L8:
 375 0026 F8BD     		pop	{r3, r4, r5, r6, r7, pc}
 376              	.LVL26:
 377              	.L13:
 378              		.loc 1 133 0
 379 0028 B369     		ldr	r3, [r6, #24]
 380 002a 9968     		ldr	r1, [r3, #8]
 381 002c B5EB010E 		subs	lr, r5, r1
 382 0030 DEF10001 		rsbs	r1, lr, #0
 383 0034 51EB0E01 		adcs	r1, r1, lr
 384 0038 0220     		movs	r0, #2
 385 003a FFF7FEFF 		bl	_test_assert
 386              	.LVL27:
 387 003e 0028     		cmp	r0, #0
 388 0040 F1D1     		bne	.L8
 389              		.loc 1 135 0
 390 0042 3846     		mov	r0, r7
 391 0044 FFF7FEFF 		bl	chThdSetPriority
 392              	.LVL28:
 393              		.loc 1 136 0
 394 0048 281A     		subs	r0, r5, r0
 395              	.LVL29:
 396 004a 4142     		rsbs	r1, r0, #0
 397 004c 4141     		adcs	r1, r1, r0
 398 004e 0320     		movs	r0, #3
 399 0050 FFF7FEFF 		bl	_test_assert
ARM GAS  /tmp/ccFyFdsa.s 			page 8


 400              	.LVL30:
 401 0054 0028     		cmp	r0, #0
 402 0056 E6D1     		bne	.L8
 403              		.loc 1 138 0
 404 0058 B369     		ldr	r3, [r6, #24]
 405 005a 9968     		ldr	r1, [r3, #8]
 406 005c 0A1B     		subs	r2, r1, r4
 407 005e 5142     		rsbs	r1, r2, #0
 408 0060 4FF00400 		mov	r0, #4
 409 0064 5141     		adcs	r1, r1, r2
 410 0066 FFF7FEFF 		bl	_test_assert
 411              	.LVL31:
 412 006a 0746     		mov	r7, r0
 413 006c 0028     		cmp	r0, #0
 414 006e DAD1     		bne	.L8
 415              	.LBB5:
 416              		.loc 1 143 0
 417 0070 2023     		movs	r3, #32
 418              	@ 143 "../../test/testthd.c" 1
 419 0072 83F31188 		msr     BASEPRI, r3
 420              	@ 0 "" 2
 421              		.thumb
 422              	.LBE5:
 423 0076 FFF7FEFF 		bl	dbg_check_lock
 424              	.LVL32:
 425              		.loc 1 144 0
 426 007a B369     		ldr	r3, [r6, #24]
 427 007c 9A68     		ldr	r2, [r3, #8]
 428 007e 0232     		adds	r2, r2, #2
 429 0080 9A60     		str	r2, [r3, #8]
 430              		.loc 1 145 0
 431 0082 FFF7FEFF 		bl	dbg_check_unlock
 432              	.LVL33:
 433              	.LBB6:
 434 0086 3B46     		mov	r3, r7
 435              	@ 145 "../../test/testthd.c" 1
 436 0088 83F31188 		msr     BASEPRI, r3
 437              	@ 0 "" 2
 438              		.thumb
 439              	.LBE6:
 440              		.loc 1 146 0
 441 008c B369     		ldr	r3, [r6, #24]
 442 008e 9968     		ldr	r1, [r3, #8]
 443 0090 A71C     		adds	r7, r4, #2
 444 0092 CB1B     		subs	r3, r1, r7
 445 0094 5942     		rsbs	r1, r3, #0
 446 0096 5941     		adcs	r1, r1, r3
 447 0098 0520     		movs	r0, #5
 448 009a FFF7FEFF 		bl	_test_assert
 449              	.LVL34:
 450 009e 0028     		cmp	r0, #0
 451 00a0 C1D1     		bne	.L8
 452              		.loc 1 150 0
 453 00a2 2846     		mov	r0, r5
 454 00a4 FFF7FEFF 		bl	chThdSetPriority
 455              	.LVL35:
 456              		.loc 1 151 0
ARM GAS  /tmp/ccFyFdsa.s 			page 9


 457 00a8 B0EB040C 		subs	ip, r0, r4
 458 00ac DCF10001 		rsbs	r1, ip, #0
 459 00b0 51EB0C01 		adcs	r1, r1, ip
 460 00b4 0620     		movs	r0, #6
 461              	.LVL36:
 462 00b6 FFF7FEFF 		bl	_test_assert
 463              	.LVL37:
 464 00ba 0028     		cmp	r0, #0
 465 00bc B3D1     		bne	.L8
 466              		.loc 1 153 0
 467 00be B369     		ldr	r3, [r6, #24]
 468 00c0 9968     		ldr	r1, [r3, #8]
 469 00c2 B7EB010E 		subs	lr, r7, r1
 470 00c6 DEF10001 		rsbs	r1, lr, #0
 471 00ca 51EB0E01 		adcs	r1, r1, lr
 472 00ce 0720     		movs	r0, #7
 473 00d0 FFF7FEFF 		bl	_test_assert
 474              	.LVL38:
 475 00d4 0028     		cmp	r0, #0
 476 00d6 A6D1     		bne	.L8
 477              		.loc 1 155 0
 478 00d8 B369     		ldr	r3, [r6, #24]
 479 00da 596C     		ldr	r1, [r3, #68]
 480 00dc 6F1A     		subs	r7, r5, r1
 481 00de 7942     		rsbs	r1, r7, #0
 482 00e0 7941     		adcs	r1, r1, r7
 483 00e2 0820     		movs	r0, #8
 484 00e4 FFF7FEFF 		bl	_test_assert
 485              	.LVL39:
 486 00e8 0028     		cmp	r0, #0
 487 00ea 9CD1     		bne	.L8
 488              		.loc 1 159 0
 489 00ec E71C     		adds	r7, r4, #3
 490 00ee 3846     		mov	r0, r7
 491 00f0 FFF7FEFF 		bl	chThdSetPriority
 492              	.LVL40:
 493              		.loc 1 160 0
 494 00f4 281A     		subs	r0, r5, r0
 495              	.LVL41:
 496 00f6 4142     		rsbs	r1, r0, #0
 497 00f8 4141     		adcs	r1, r1, r0
 498 00fa 0920     		movs	r0, #9
 499 00fc FFF7FEFF 		bl	_test_assert
 500              	.LVL42:
 501 0100 0028     		cmp	r0, #0
 502 0102 90D1     		bne	.L8
 503              		.loc 1 162 0
 504 0104 B369     		ldr	r3, [r6, #24]
 505 0106 9968     		ldr	r1, [r3, #8]
 506 0108 7A1A     		subs	r2, r7, r1
 507 010a 5142     		rsbs	r1, r2, #0
 508 010c 5141     		adcs	r1, r1, r2
 509 010e 0A20     		movs	r0, #10
 510 0110 FFF7FEFF 		bl	_test_assert
 511              	.LVL43:
 512 0114 0028     		cmp	r0, #0
 513 0116 86D1     		bne	.L8
ARM GAS  /tmp/ccFyFdsa.s 			page 10


 514              		.loc 1 164 0
 515 0118 B369     		ldr	r3, [r6, #24]
 516 011a 596C     		ldr	r1, [r3, #68]
 517 011c 7B1A     		subs	r3, r7, r1
 518 011e 5942     		rsbs	r1, r3, #0
 519 0120 4FF00B00 		mov	r0, #11
 520 0124 5941     		adcs	r1, r1, r3
 521 0126 FFF7FEFF 		bl	_test_assert
 522              	.LVL44:
 523 012a 0546     		mov	r5, r0
 524 012c 0028     		cmp	r0, #0
 525 012e 7FF47AAF 		bne	.L8
 526              	.LBB7:
 527              		.loc 1 167 0
 528 0132 2023     		movs	r3, #32
 529              	@ 167 "../../test/testthd.c" 1
 530 0134 83F31188 		msr     BASEPRI, r3
 531              	@ 0 "" 2
 532              		.thumb
 533              	.LBE7:
 534 0138 FFF7FEFF 		bl	dbg_check_lock
 535              	.LVL45:
 536              		.loc 1 168 0
 537 013c B369     		ldr	r3, [r6, #24]
 538 013e 9C60     		str	r4, [r3, #8]
 539              		.loc 1 169 0
 540 0140 5C64     		str	r4, [r3, #68]
 541              		.loc 1 170 0
 542 0142 FFF7FEFF 		bl	dbg_check_unlock
 543              	.LVL46:
 544              	.LBB8:
 545 0146 2B46     		mov	r3, r5
 546              	@ 170 "../../test/testthd.c" 1
 547 0148 83F31188 		msr     BASEPRI, r3
 548              	@ 0 "" 2
 549              		.thumb
 550 014c 6BE7     		b	.L8
 551              	.L15:
 552 014e 00BF     		.align	2
 553              	.L14:
 554 0150 00000000 		.word	rlist
 555              	.LBE8:
 556              		.cfi_endproc
 557              	.LFE10:
 558              		.size	thd3_execute, .-thd3_execute
 559 0154 AFF30080 		.section	.text.thd4_execute,"ax",%progbits
 559      AFF30080 
 559      AFF30080 
 560              		.align	2
 561              		.p2align 4,,15
 562              		.thumb
 563              		.thumb_func
 564              		.type	thd4_execute, %function
 565              	thd4_execute:
 566              	.LFB11:
 567              		.loc 1 189 0
 568              		.cfi_startproc
ARM GAS  /tmp/ccFyFdsa.s 			page 11


 569              		@ args = 0, pretend = 0, frame = 0
 570              		@ frame_needed = 0, uses_anonymous_args = 0
 571 0000 38B5     		push	{r3, r4, r5, lr}
 572              		.cfi_def_cfa_offset 16
 573              		.cfi_offset 3, -16
 574              		.cfi_offset 4, -12
 575              		.cfi_offset 5, -8
 576              		.cfi_offset 14, -4
 577              		.loc 1 195 0
 578 0002 1C4D     		ldr	r5, .L21
 579              		.loc 1 192 0
 580 0004 FFF7FEFF 		bl	test_wait_tick
 581              	.LVL47:
 582              		.loc 1 195 0
 583 0008 EC68     		ldr	r4, [r5, #12]
 584              	.LVL48:
 585              		.loc 1 196 0
 586 000a 6420     		movs	r0, #100
 587 000c FFF7FEFF 		bl	chThdSleep
 588              	.LVL49:
 589              		.loc 1 197 0
 590 0010 04F16401 		add	r1, r4, #100
 591 0014 04F16502 		add	r2, r4, #101
 592 0018 0120     		movs	r0, #1
 593 001a FFF7FEFF 		bl	_test_assert_time_window
 594              	.LVL50:
 595 001e 00B1     		cbz	r0, .L20
 596              	.LVL51:
 597              	.L16:
 598 0020 38BD     		pop	{r3, r4, r5, pc}
 599              	.LVL52:
 600              	.L20:
 601              		.loc 1 200 0
 602 0022 EC68     		ldr	r4, [r5, #12]
 603              	.LVL53:
 604              		.loc 1 201 0
 605 0024 6420     		movs	r0, #100
 606 0026 FFF7FEFF 		bl	chThdSleep
 607              	.LVL54:
 608              		.loc 1 202 0
 609 002a 04F16401 		add	r1, r4, #100
 610 002e 04F16502 		add	r2, r4, #101
 611 0032 0220     		movs	r0, #2
 612 0034 FFF7FEFF 		bl	_test_assert_time_window
 613              	.LVL55:
 614 0038 0028     		cmp	r0, #0
 615 003a F1D1     		bne	.L16
 616              	.LBB11:
 617              	.LBB12:
 618              		.loc 1 205 0
 619 003c EC68     		ldr	r4, [r5, #12]
 620              	.LVL56:
 621              		.loc 1 206 0
 622 003e 4FF47A70 		mov	r0, #1000
 623 0042 FFF7FEFF 		bl	chThdSleep
 624              	.LVL57:
 625              		.loc 1 207 0
ARM GAS  /tmp/ccFyFdsa.s 			page 12


 626 0046 04F57A71 		add	r1, r4, #1000
 627 004a 04F2E932 		addw	r2, r4, #1001
 628 004e 0320     		movs	r0, #3
 629 0050 FFF7FEFF 		bl	_test_assert_time_window
 630              	.LVL58:
 631 0054 0028     		cmp	r0, #0
 632 0056 E3D1     		bne	.L16
 633              		.loc 1 210 0
 634 0058 EC68     		ldr	r4, [r5, #12]
 635              	.LVL59:
 636 005a 04F16405 		add	r5, r4, #100
 637              	.LVL60:
 638              		.loc 1 211 0
 639 005e 2846     		mov	r0, r5
 640 0060 FFF7FEFF 		bl	chThdSleepUntil
 641              	.LVL61:
 642              		.loc 1 212 0
 643 0064 2946     		mov	r1, r5
 644 0066 04F16502 		add	r2, r4, #101
 645 006a 0420     		movs	r0, #4
 646              	.LBE12:
 647              	.LBE11:
 648              		.loc 1 213 0
 649 006c BDE83840 		pop	{r3, r4, r5, lr}
 650              	.LVL62:
 651              	.LBB14:
 652              	.LBB13:
 653              		.loc 1 212 0
 654 0070 FFF7FEBF 		b	_test_assert_time_window
 655              	.LVL63:
 656              	.L22:
 657              		.align	2
 658              	.L21:
 659 0074 00000000 		.word	vtlist
 660              	.LBE13:
 661              	.LBE14:
 662              		.cfi_endproc
 663              	.LFE11:
 664              		.size	thd4_execute, .-thd4_execute
 665              		.global	patternthd
 666              		.global	testthd4
 667              		.global	testthd3
 668              		.global	testthd2
 669              		.global	testthd1
 670 0078 AFF30080 		.section	.rodata.testthd1,"a",%progbits
 670      AFF30080 
 671              		.align	2
 672              		.type	testthd1, %object
 673              		.size	testthd1, 16
 674              	testthd1:
 675 0000 64000000 		.word	.LC9
 676 0004 00000000 		.word	0
 677 0008 00000000 		.word	0
 678 000c 00000000 		.word	thd1_execute
 679              		.section	.rodata.testthd2,"a",%progbits
 680              		.align	2
 681              		.type	testthd2, %object
ARM GAS  /tmp/ccFyFdsa.s 			page 13


 682              		.size	testthd2, 16
 683              	testthd2:
 684 0000 48000000 		.word	.LC8
 685 0004 00000000 		.word	0
 686 0008 00000000 		.word	0
 687 000c 00000000 		.word	thd2_execute
 688              		.section	.rodata.testthd3,"a",%progbits
 689              		.align	2
 690              		.type	testthd3, %object
 691              		.size	testthd3, 16
 692              	testthd3:
 693 0000 2C000000 		.word	.LC7
 694 0004 00000000 		.word	0
 695 0008 00000000 		.word	0
 696 000c 00000000 		.word	thd3_execute
 697              		.section	.rodata.testthd4,"a",%progbits
 698              		.align	2
 699              		.type	testthd4, %object
 700              		.size	testthd4, 16
 701              	testthd4:
 702 0000 1C000000 		.word	.LC6
 703 0004 00000000 		.word	0
 704 0008 00000000 		.word	0
 705 000c 00000000 		.word	thd4_execute
 706              		.section	.rodata.patternthd,"a",%progbits
 707              		.align	2
 708              		.type	patternthd, %object
 709              		.size	patternthd, 20
 710              	patternthd:
 711 0000 00000000 		.word	testthd1
 712 0004 00000000 		.word	testthd2
 713 0008 00000000 		.word	testthd3
 714 000c 00000000 		.word	testthd4
 715 0010 00000000 		.word	0
 716              		.section	.rodata.str1.4,"aMS",%progbits,1
 717              		.align	2
 718              	.LC0:
 719 0000 4500     		.ascii	"E\000"
 720 0002 0000     		.space	2
 721              	.LC1:
 722 0004 4400     		.ascii	"D\000"
 723 0006 0000     		.space	2
 724              	.LC2:
 725 0008 4300     		.ascii	"C\000"
 726 000a 0000     		.space	2
 727              	.LC3:
 728 000c 4200     		.ascii	"B\000"
 729 000e 0000     		.space	2
 730              	.LC4:
 731 0010 4100     		.ascii	"A\000"
 732 0012 0000     		.space	2
 733              	.LC5:
 734 0014 41424344 		.ascii	"ABCDE\000"
 734      4500
 735 001a 0000     		.space	2
 736              	.LC6:
 737 001c 54687265 		.ascii	"Threads, delays\000"
ARM GAS  /tmp/ccFyFdsa.s 			page 14


 737      6164732C 
 737      2064656C 
 737      61797300 
 738              	.LC7:
 739 002c 54687265 		.ascii	"Threads, priority change\000"
 739      6164732C 
 739      20707269 
 739      6F726974 
 739      79206368 
 740 0045 000000   		.space	3
 741              	.LC8:
 742 0048 54687265 		.ascii	"Threads, enqueuing test #2\000"
 742      6164732C 
 742      20656E71 
 742      75657569 
 742      6E672074 
 743 0063 00       		.space	1
 744              	.LC9:
 745 0064 54687265 		.ascii	"Threads, enqueuing test #1\000"
 745      6164732C 
 745      20656E71 
 745      75657569 
 745      6E672074 
 746 007f 00       		.text
 747              	.Letext0:
 748              		.file 2 "/opt/ARM/lib/gcc/arm-none-eabi/4.8.4/include/stddef.h"
 749              		.file 3 "/opt/ARM/arm-none-eabi/include/machine/_default_types.h"
 750              		.file 4 "/opt/ARM/arm-none-eabi/include/stdint.h"
 751              		.file 5 "../../os/ports/GCC/ARMCMx/chtypes.h"
 752              		.file 6 "../../os/kernel/include/chlists.h"
 753              		.file 7 "../../os/kernel/include/chthreads.h"
 754              		.file 8 "../../os/ports/GCC/ARMCMx/chcore_v7m.h"
 755              		.file 9 "../../os/kernel/include/chvt.h"
 756              		.file 10 "../../os/kernel/include/chschd.h"
 757              		.file 11 "../../os/kernel/include/chmtx.h"
 758              		.file 12 "../../test/test.h"
 759              		.file 13 "../../os/kernel/include/chdebug.h"
 760              		.section	.debug_info,"",%progbits
 761              	.Ldebug_info0:
 762 0000 D10D0000 		.4byte	0xdd1
 763 0004 0400     		.2byte	0x4
 764 0006 00000000 		.4byte	.Ldebug_abbrev0
 765 000a 04       		.byte	0x4
 766 000b 01       		.uleb128 0x1
 767 000c 31020000 		.4byte	.LASF112
 768 0010 01       		.byte	0x1
 769 0011 87050000 		.4byte	.LASF113
 770 0015 EC040000 		.4byte	.LASF114
 771 0019 30000000 		.4byte	.Ldebug_ranges0+0x30
 772 001d 00000000 		.4byte	0
 773 0021 00000000 		.4byte	.Ldebug_line0
 774 0025 02       		.uleb128 0x2
 775 0026 04       		.byte	0x4
 776 0027 05       		.byte	0x5
 777 0028 696E7400 		.ascii	"int\000"
 778 002c 03       		.uleb128 0x3
 779 002d 51010000 		.4byte	.LASF2
ARM GAS  /tmp/ccFyFdsa.s 			page 15


 780 0031 02       		.byte	0x2
 781 0032 D4       		.byte	0xd4
 782 0033 37000000 		.4byte	0x37
 783 0037 04       		.uleb128 0x4
 784 0038 04       		.byte	0x4
 785 0039 07       		.byte	0x7
 786 003a 89000000 		.4byte	.LASF0
 787 003e 04       		.uleb128 0x4
 788 003f 01       		.byte	0x1
 789 0040 06       		.byte	0x6
 790 0041 9C050000 		.4byte	.LASF1
 791 0045 03       		.uleb128 0x3
 792 0046 57040000 		.4byte	.LASF3
 793 004a 03       		.byte	0x3
 794 004b 1C       		.byte	0x1c
 795 004c 50000000 		.4byte	0x50
 796 0050 04       		.uleb128 0x4
 797 0051 01       		.byte	0x1
 798 0052 08       		.byte	0x8
 799 0053 D8030000 		.4byte	.LASF4
 800 0057 04       		.uleb128 0x4
 801 0058 02       		.byte	0x2
 802 0059 05       		.byte	0x5
 803 005a FE030000 		.4byte	.LASF5
 804 005e 04       		.uleb128 0x4
 805 005f 02       		.byte	0x2
 806 0060 07       		.byte	0x7
 807 0061 A8050000 		.4byte	.LASF6
 808 0065 03       		.uleb128 0x3
 809 0066 A3000000 		.4byte	.LASF7
 810 006a 03       		.byte	0x3
 811 006b 37       		.byte	0x37
 812 006c 70000000 		.4byte	0x70
 813 0070 04       		.uleb128 0x4
 814 0071 04       		.byte	0x4
 815 0072 05       		.byte	0x5
 816 0073 25040000 		.4byte	.LASF8
 817 0077 03       		.uleb128 0x3
 818 0078 47050000 		.4byte	.LASF9
 819 007c 03       		.byte	0x3
 820 007d 38       		.byte	0x38
 821 007e 82000000 		.4byte	0x82
 822 0082 04       		.uleb128 0x4
 823 0083 04       		.byte	0x4
 824 0084 07       		.byte	0x7
 825 0085 7E040000 		.4byte	.LASF10
 826 0089 04       		.uleb128 0x4
 827 008a 08       		.byte	0x8
 828 008b 05       		.byte	0x5
 829 008c 4A030000 		.4byte	.LASF11
 830 0090 03       		.uleb128 0x3
 831 0091 7C010000 		.4byte	.LASF12
 832 0095 03       		.byte	0x3
 833 0096 4E       		.byte	0x4e
 834 0097 9B000000 		.4byte	0x9b
 835 009b 04       		.uleb128 0x4
 836 009c 08       		.byte	0x8
ARM GAS  /tmp/ccFyFdsa.s 			page 16


 837 009d 07       		.byte	0x7
 838 009e 1E010000 		.4byte	.LASF13
 839 00a2 03       		.uleb128 0x3
 840 00a3 0F020000 		.4byte	.LASF14
 841 00a7 04       		.byte	0x4
 842 00a8 2A       		.byte	0x2a
 843 00a9 45000000 		.4byte	0x45
 844 00ad 03       		.uleb128 0x3
 845 00ae BE040000 		.4byte	.LASF15
 846 00b2 04       		.byte	0x4
 847 00b3 41       		.byte	0x41
 848 00b4 65000000 		.4byte	0x65
 849 00b8 03       		.uleb128 0x3
 850 00b9 D7000000 		.4byte	.LASF16
 851 00bd 04       		.byte	0x4
 852 00be 42       		.byte	0x42
 853 00bf 77000000 		.4byte	0x77
 854 00c3 03       		.uleb128 0x3
 855 00c4 35040000 		.4byte	.LASF17
 856 00c8 04       		.byte	0x4
 857 00c9 4E       		.byte	0x4e
 858 00ca 90000000 		.4byte	0x90
 859 00ce 03       		.uleb128 0x3
 860 00cf 5F010000 		.4byte	.LASF18
 861 00d3 05       		.byte	0x5
 862 00d4 2B       		.byte	0x2b
 863 00d5 D9000000 		.4byte	0xd9
 864 00d9 04       		.uleb128 0x4
 865 00da 01       		.byte	0x1
 866 00db 02       		.byte	0x2
 867 00dc 66010000 		.4byte	.LASF19
 868 00e0 03       		.uleb128 0x3
 869 00e1 C9030000 		.4byte	.LASF20
 870 00e5 05       		.byte	0x5
 871 00e6 2C       		.byte	0x2c
 872 00e7 A2000000 		.4byte	0xa2
 873 00eb 03       		.uleb128 0x3
 874 00ec C7010000 		.4byte	.LASF21
 875 00f0 05       		.byte	0x5
 876 00f1 2D       		.byte	0x2d
 877 00f2 A2000000 		.4byte	0xa2
 878 00f6 03       		.uleb128 0x3
 879 00f7 76040000 		.4byte	.LASF22
 880 00fb 05       		.byte	0x5
 881 00fc 2E       		.byte	0x2e
 882 00fd A2000000 		.4byte	0xa2
 883 0101 03       		.uleb128 0x3
 884 0102 8E030000 		.4byte	.LASF23
 885 0106 05       		.byte	0x5
 886 0107 2F       		.byte	0x2f
 887 0108 A2000000 		.4byte	0xa2
 888 010c 03       		.uleb128 0x3
 889 010d FA000000 		.4byte	.LASF24
 890 0111 05       		.byte	0x5
 891 0112 30       		.byte	0x30
 892 0113 B8000000 		.4byte	0xb8
 893 0117 03       		.uleb128 0x3
ARM GAS  /tmp/ccFyFdsa.s 			page 17


 894 0118 60030000 		.4byte	.LASF25
 895 011c 05       		.byte	0x5
 896 011d 31       		.byte	0x31
 897 011e AD000000 		.4byte	0xad
 898 0122 03       		.uleb128 0x3
 899 0123 E0000000 		.4byte	.LASF26
 900 0127 05       		.byte	0x5
 901 0128 33       		.byte	0x33
 902 0129 B8000000 		.4byte	0xb8
 903 012d 03       		.uleb128 0x3
 904 012e 61000000 		.4byte	.LASF27
 905 0132 05       		.byte	0x5
 906 0133 35       		.byte	0x35
 907 0134 B8000000 		.4byte	0xb8
 908 0138 03       		.uleb128 0x3
 909 0139 C0010000 		.4byte	.LASF28
 910 013d 06       		.byte	0x6
 911 013e 2A       		.byte	0x2a
 912 013f 43010000 		.4byte	0x143
 913 0143 05       		.uleb128 0x5
 914 0144 C0010000 		.4byte	.LASF28
 915 0148 4C       		.byte	0x4c
 916 0149 07       		.byte	0x7
 917 014a 5E       		.byte	0x5e
 918 014b 4C020000 		.4byte	0x24c
 919 014f 06       		.uleb128 0x6
 920 0150 2E040000 		.4byte	.LASF29
 921 0154 07       		.byte	0x7
 922 0155 5F       		.byte	0x5f
 923 0156 6D020000 		.4byte	0x26d
 924 015a 00       		.byte	0
 925 015b 06       		.uleb128 0x6
 926 015c 66040000 		.4byte	.LASF30
 927 0160 07       		.byte	0x7
 928 0161 61       		.byte	0x61
 929 0162 6D020000 		.4byte	0x26d
 930 0166 04       		.byte	0x4
 931 0167 06       		.uleb128 0x6
 932 0168 41000000 		.4byte	.LASF31
 933 016c 07       		.byte	0x7
 934 016d 63       		.byte	0x63
 935 016e 0C010000 		.4byte	0x10c
 936 0172 08       		.byte	0x8
 937 0173 06       		.uleb128 0x6
 938 0174 3E040000 		.4byte	.LASF32
 939 0178 07       		.byte	0x7
 940 0179 64       		.byte	0x64
 941 017a 02040000 		.4byte	0x402
 942 017e 0C       		.byte	0xc
 943 017f 06       		.uleb128 0x6
 944 0180 49010000 		.4byte	.LASF33
 945 0184 07       		.byte	0x7
 946 0185 66       		.byte	0x66
 947 0186 6D020000 		.4byte	0x26d
 948 018a 10       		.byte	0x10
 949 018b 06       		.uleb128 0x6
 950 018c E3010000 		.4byte	.LASF34
ARM GAS  /tmp/ccFyFdsa.s 			page 18


 951 0190 07       		.byte	0x7
 952 0191 67       		.byte	0x67
 953 0192 6D020000 		.4byte	0x26d
 954 0196 14       		.byte	0x14
 955 0197 06       		.uleb128 0x6
 956 0198 9A010000 		.4byte	.LASF35
 957 019c 07       		.byte	0x7
 958 019d 6E       		.byte	0x6e
 959 019e BC050000 		.4byte	0x5bc
 960 01a2 18       		.byte	0x18
 961 01a3 06       		.uleb128 0x6
 962 01a4 04020000 		.4byte	.LASF36
 963 01a8 07       		.byte	0x7
 964 01a9 74       		.byte	0x74
 965 01aa CE050000 		.4byte	0x5ce
 966 01ae 1C       		.byte	0x1c
 967 01af 06       		.uleb128 0x6
 968 01b0 FC010000 		.4byte	.LASF37
 969 01b4 07       		.byte	0x7
 970 01b5 79       		.byte	0x79
 971 01b6 EB000000 		.4byte	0xeb
 972 01ba 20       		.byte	0x20
 973 01bb 06       		.uleb128 0x6
 974 01bc 86030000 		.4byte	.LASF38
 975 01c0 07       		.byte	0x7
 976 01c1 7D       		.byte	0x7d
 977 01c2 E0000000 		.4byte	0xe0
 978 01c6 21       		.byte	0x21
 979 01c7 06       		.uleb128 0x6
 980 01c8 52050000 		.4byte	.LASF39
 981 01cc 07       		.byte	0x7
 982 01cd 82       		.byte	0x82
 983 01ce F6000000 		.4byte	0xf6
 984 01d2 22       		.byte	0x22
 985 01d3 06       		.uleb128 0x6
 986 01d4 6E050000 		.4byte	.LASF40
 987 01d8 07       		.byte	0x7
 988 01d9 88       		.byte	0x88
 989 01da 01010000 		.4byte	0x101
 990 01de 23       		.byte	0x23
 991 01df 06       		.uleb128 0x6
 992 01e0 31000000 		.4byte	.LASF41
 993 01e4 07       		.byte	0x7
 994 01e5 8F       		.byte	0x8f
 995 01e6 D9040000 		.4byte	0x4d9
 996 01ea 24       		.byte	0x24
 997 01eb 07       		.uleb128 0x7
 998 01ec 705F7500 		.ascii	"p_u\000"
 999 01f0 07       		.byte	0x7
 1000 01f1 B4       		.byte	0xb4
 1001 01f2 87050000 		.4byte	0x587
 1002 01f6 28       		.byte	0x28
 1003 01f7 06       		.uleb128 0x6
 1004 01f8 27000000 		.4byte	.LASF42
 1005 01fc 07       		.byte	0x7
 1006 01fd B9       		.byte	0xb9
 1007 01fe 93020000 		.4byte	0x293
ARM GAS  /tmp/ccFyFdsa.s 			page 19


 1008 0202 2C       		.byte	0x2c
 1009 0203 06       		.uleb128 0x6
 1010 0204 7E000000 		.4byte	.LASF43
 1011 0208 07       		.byte	0x7
 1012 0209 BF       		.byte	0xbf
 1013 020a 73020000 		.4byte	0x273
 1014 020e 30       		.byte	0x30
 1015 020f 06       		.uleb128 0x6
 1016 0210 C3030000 		.4byte	.LASF44
 1017 0214 07       		.byte	0x7
 1018 0215 C3       		.byte	0xc3
 1019 0216 17010000 		.4byte	0x117
 1020 021a 38       		.byte	0x38
 1021 021b 06       		.uleb128 0x6
 1022 021c 12040000 		.4byte	.LASF45
 1023 0220 07       		.byte	0x7
 1024 0221 C9       		.byte	0xc9
 1025 0222 22010000 		.4byte	0x122
 1026 0226 3C       		.byte	0x3c
 1027 0227 06       		.uleb128 0x6
 1028 0228 1F020000 		.4byte	.LASF46
 1029 022c 07       		.byte	0x7
 1030 022d D0       		.byte	0xd0
 1031 022e D4050000 		.4byte	0x5d4
 1032 0232 40       		.byte	0x40
 1033 0233 06       		.uleb128 0x6
 1034 0234 F3030000 		.4byte	.LASF47
 1035 0238 07       		.byte	0x7
 1036 0239 D4       		.byte	0xd4
 1037 023a 0C010000 		.4byte	0x10c
 1038 023e 44       		.byte	0x44
 1039 023f 06       		.uleb128 0x6
 1040 0240 17020000 		.4byte	.LASF48
 1041 0244 07       		.byte	0x7
 1042 0245 DA       		.byte	0xda
 1043 0246 A9020000 		.4byte	0x2a9
 1044 024a 48       		.byte	0x48
 1045 024b 00       		.byte	0
 1046 024c 08       		.uleb128 0x8
 1047 024d 08       		.byte	0x8
 1048 024e 06       		.byte	0x6
 1049 024f 61       		.byte	0x61
 1050 0250 6D020000 		.4byte	0x26d
 1051 0254 06       		.uleb128 0x6
 1052 0255 2E040000 		.4byte	.LASF29
 1053 0259 06       		.byte	0x6
 1054 025a 62       		.byte	0x62
 1055 025b 6D020000 		.4byte	0x26d
 1056 025f 00       		.byte	0
 1057 0260 06       		.uleb128 0x6
 1058 0261 66040000 		.4byte	.LASF30
 1059 0265 06       		.byte	0x6
 1060 0266 64       		.byte	0x64
 1061 0267 6D020000 		.4byte	0x26d
 1062 026b 04       		.byte	0x4
 1063 026c 00       		.byte	0
 1064 026d 09       		.uleb128 0x9
ARM GAS  /tmp/ccFyFdsa.s 			page 20


 1065 026e 04       		.byte	0x4
 1066 026f 38010000 		.4byte	0x138
 1067 0273 03       		.uleb128 0x3
 1068 0274 A6010000 		.4byte	.LASF49
 1069 0278 06       		.byte	0x6
 1070 0279 66       		.byte	0x66
 1071 027a 4C020000 		.4byte	0x24c
 1072 027e 08       		.uleb128 0x8
 1073 027f 04       		.byte	0x4
 1074 0280 06       		.byte	0x6
 1075 0281 6B       		.byte	0x6b
 1076 0282 93020000 		.4byte	0x293
 1077 0286 06       		.uleb128 0x6
 1078 0287 2E040000 		.4byte	.LASF29
 1079 028b 06       		.byte	0x6
 1080 028c 6D       		.byte	0x6d
 1081 028d 6D020000 		.4byte	0x26d
 1082 0291 00       		.byte	0
 1083 0292 00       		.byte	0
 1084 0293 03       		.uleb128 0x3
 1085 0294 1B000000 		.4byte	.LASF50
 1086 0298 06       		.byte	0x6
 1087 0299 70       		.byte	0x70
 1088 029a 7E020000 		.4byte	0x27e
 1089 029e 03       		.uleb128 0x3
 1090 029f 38000000 		.4byte	.LASF51
 1091 02a3 08       		.byte	0x8
 1092 02a4 E5       		.byte	0xe5
 1093 02a5 A9020000 		.4byte	0x2a9
 1094 02a9 0A       		.uleb128 0xa
 1095 02aa 04       		.byte	0x4
 1096 02ab 03       		.uleb128 0x3
 1097 02ac C1050000 		.4byte	.LASF52
 1098 02b0 08       		.byte	0x8
 1099 02b1 EB       		.byte	0xeb
 1100 02b2 C3000000 		.4byte	0xc3
 1101 02b6 0B       		.uleb128 0xb
 1102 02b7 D1030000 		.4byte	.LASF53
 1103 02bb 64       		.byte	0x64
 1104 02bc 08       		.byte	0x8
 1105 02bd 0C01     		.2byte	0x10c
 1106 02bf 02040000 		.4byte	0x402
 1107 02c3 0C       		.uleb128 0xc
 1108 02c4 73313600 		.ascii	"s16\000"
 1109 02c8 08       		.byte	0x8
 1110 02c9 0E01     		.2byte	0x10e
 1111 02cb 9E020000 		.4byte	0x29e
 1112 02cf 00       		.byte	0
 1113 02d0 0C       		.uleb128 0xc
 1114 02d1 73313700 		.ascii	"s17\000"
 1115 02d5 08       		.byte	0x8
 1116 02d6 0F01     		.2byte	0x10f
 1117 02d8 9E020000 		.4byte	0x29e
 1118 02dc 04       		.byte	0x4
 1119 02dd 0C       		.uleb128 0xc
 1120 02de 73313800 		.ascii	"s18\000"
 1121 02e2 08       		.byte	0x8
ARM GAS  /tmp/ccFyFdsa.s 			page 21


 1122 02e3 1001     		.2byte	0x110
 1123 02e5 9E020000 		.4byte	0x29e
 1124 02e9 08       		.byte	0x8
 1125 02ea 0C       		.uleb128 0xc
 1126 02eb 73313900 		.ascii	"s19\000"
 1127 02ef 08       		.byte	0x8
 1128 02f0 1101     		.2byte	0x111
 1129 02f2 9E020000 		.4byte	0x29e
 1130 02f6 0C       		.byte	0xc
 1131 02f7 0C       		.uleb128 0xc
 1132 02f8 73323000 		.ascii	"s20\000"
 1133 02fc 08       		.byte	0x8
 1134 02fd 1201     		.2byte	0x112
 1135 02ff 9E020000 		.4byte	0x29e
 1136 0303 10       		.byte	0x10
 1137 0304 0C       		.uleb128 0xc
 1138 0305 73323100 		.ascii	"s21\000"
 1139 0309 08       		.byte	0x8
 1140 030a 1301     		.2byte	0x113
 1141 030c 9E020000 		.4byte	0x29e
 1142 0310 14       		.byte	0x14
 1143 0311 0C       		.uleb128 0xc
 1144 0312 73323200 		.ascii	"s22\000"
 1145 0316 08       		.byte	0x8
 1146 0317 1401     		.2byte	0x114
 1147 0319 9E020000 		.4byte	0x29e
 1148 031d 18       		.byte	0x18
 1149 031e 0C       		.uleb128 0xc
 1150 031f 73323300 		.ascii	"s23\000"
 1151 0323 08       		.byte	0x8
 1152 0324 1501     		.2byte	0x115
 1153 0326 9E020000 		.4byte	0x29e
 1154 032a 1C       		.byte	0x1c
 1155 032b 0C       		.uleb128 0xc
 1156 032c 73323400 		.ascii	"s24\000"
 1157 0330 08       		.byte	0x8
 1158 0331 1601     		.2byte	0x116
 1159 0333 9E020000 		.4byte	0x29e
 1160 0337 20       		.byte	0x20
 1161 0338 0C       		.uleb128 0xc
 1162 0339 73323500 		.ascii	"s25\000"
 1163 033d 08       		.byte	0x8
 1164 033e 1701     		.2byte	0x117
 1165 0340 9E020000 		.4byte	0x29e
 1166 0344 24       		.byte	0x24
 1167 0345 0C       		.uleb128 0xc
 1168 0346 73323600 		.ascii	"s26\000"
 1169 034a 08       		.byte	0x8
 1170 034b 1801     		.2byte	0x118
 1171 034d 9E020000 		.4byte	0x29e
 1172 0351 28       		.byte	0x28
 1173 0352 0C       		.uleb128 0xc
 1174 0353 73323700 		.ascii	"s27\000"
 1175 0357 08       		.byte	0x8
 1176 0358 1901     		.2byte	0x119
 1177 035a 9E020000 		.4byte	0x29e
 1178 035e 2C       		.byte	0x2c
ARM GAS  /tmp/ccFyFdsa.s 			page 22


 1179 035f 0C       		.uleb128 0xc
 1180 0360 73323800 		.ascii	"s28\000"
 1181 0364 08       		.byte	0x8
 1182 0365 1A01     		.2byte	0x11a
 1183 0367 9E020000 		.4byte	0x29e
 1184 036b 30       		.byte	0x30
 1185 036c 0C       		.uleb128 0xc
 1186 036d 73323900 		.ascii	"s29\000"
 1187 0371 08       		.byte	0x8
 1188 0372 1B01     		.2byte	0x11b
 1189 0374 9E020000 		.4byte	0x29e
 1190 0378 34       		.byte	0x34
 1191 0379 0C       		.uleb128 0xc
 1192 037a 73333000 		.ascii	"s30\000"
 1193 037e 08       		.byte	0x8
 1194 037f 1C01     		.2byte	0x11c
 1195 0381 9E020000 		.4byte	0x29e
 1196 0385 38       		.byte	0x38
 1197 0386 0C       		.uleb128 0xc
 1198 0387 73333100 		.ascii	"s31\000"
 1199 038b 08       		.byte	0x8
 1200 038c 1D01     		.2byte	0x11d
 1201 038e 9E020000 		.4byte	0x29e
 1202 0392 3C       		.byte	0x3c
 1203 0393 0C       		.uleb128 0xc
 1204 0394 723400   		.ascii	"r4\000"
 1205 0397 08       		.byte	0x8
 1206 0398 1F01     		.2byte	0x11f
 1207 039a 9E020000 		.4byte	0x29e
 1208 039e 40       		.byte	0x40
 1209 039f 0C       		.uleb128 0xc
 1210 03a0 723500   		.ascii	"r5\000"
 1211 03a3 08       		.byte	0x8
 1212 03a4 2001     		.2byte	0x120
 1213 03a6 9E020000 		.4byte	0x29e
 1214 03aa 44       		.byte	0x44
 1215 03ab 0C       		.uleb128 0xc
 1216 03ac 723600   		.ascii	"r6\000"
 1217 03af 08       		.byte	0x8
 1218 03b0 2101     		.2byte	0x121
 1219 03b2 9E020000 		.4byte	0x29e
 1220 03b6 48       		.byte	0x48
 1221 03b7 0C       		.uleb128 0xc
 1222 03b8 723700   		.ascii	"r7\000"
 1223 03bb 08       		.byte	0x8
 1224 03bc 2201     		.2byte	0x122
 1225 03be 9E020000 		.4byte	0x29e
 1226 03c2 4C       		.byte	0x4c
 1227 03c3 0C       		.uleb128 0xc
 1228 03c4 723800   		.ascii	"r8\000"
 1229 03c7 08       		.byte	0x8
 1230 03c8 2301     		.2byte	0x123
 1231 03ca 9E020000 		.4byte	0x29e
 1232 03ce 50       		.byte	0x50
 1233 03cf 0C       		.uleb128 0xc
 1234 03d0 723900   		.ascii	"r9\000"
 1235 03d3 08       		.byte	0x8
ARM GAS  /tmp/ccFyFdsa.s 			page 23


 1236 03d4 2401     		.2byte	0x124
 1237 03d6 9E020000 		.4byte	0x29e
 1238 03da 54       		.byte	0x54
 1239 03db 0C       		.uleb128 0xc
 1240 03dc 72313000 		.ascii	"r10\000"
 1241 03e0 08       		.byte	0x8
 1242 03e1 2501     		.2byte	0x125
 1243 03e3 9E020000 		.4byte	0x29e
 1244 03e7 58       		.byte	0x58
 1245 03e8 0C       		.uleb128 0xc
 1246 03e9 72313100 		.ascii	"r11\000"
 1247 03ed 08       		.byte	0x8
 1248 03ee 2601     		.2byte	0x126
 1249 03f0 9E020000 		.4byte	0x29e
 1250 03f4 5C       		.byte	0x5c
 1251 03f5 0C       		.uleb128 0xc
 1252 03f6 6C7200   		.ascii	"lr\000"
 1253 03f9 08       		.byte	0x8
 1254 03fa 2701     		.2byte	0x127
 1255 03fc 9E020000 		.4byte	0x29e
 1256 0400 60       		.byte	0x60
 1257 0401 00       		.byte	0
 1258 0402 0B       		.uleb128 0xb
 1259 0403 66030000 		.4byte	.LASF54
 1260 0407 04       		.byte	0x4
 1261 0408 08       		.byte	0x8
 1262 0409 3101     		.2byte	0x131
 1263 040b 1D040000 		.4byte	0x41d
 1264 040f 0C       		.uleb128 0xc
 1265 0410 72313300 		.ascii	"r13\000"
 1266 0414 08       		.byte	0x8
 1267 0415 3201     		.2byte	0x132
 1268 0417 1D040000 		.4byte	0x41d
 1269 041b 00       		.byte	0
 1270 041c 00       		.byte	0
 1271 041d 09       		.uleb128 0x9
 1272 041e 04       		.byte	0x4
 1273 041f B6020000 		.4byte	0x2b6
 1274 0423 04       		.uleb128 0x4
 1275 0424 04       		.byte	0x4
 1276 0425 07       		.byte	0x7
 1277 0426 6D040000 		.4byte	.LASF55
 1278 042a 03       		.uleb128 0x3
 1279 042b 12000000 		.4byte	.LASF56
 1280 042f 09       		.byte	0x9
 1281 0430 58       		.byte	0x58
 1282 0431 35040000 		.4byte	0x435
 1283 0435 09       		.uleb128 0x9
 1284 0436 04       		.byte	0x4
 1285 0437 3B040000 		.4byte	0x43b
 1286 043b 0D       		.uleb128 0xd
 1287 043c 46040000 		.4byte	0x446
 1288 0440 0E       		.uleb128 0xe
 1289 0441 A9020000 		.4byte	0x2a9
 1290 0445 00       		.byte	0
 1291 0446 03       		.uleb128 0x3
 1292 0447 4A040000 		.4byte	.LASF57
ARM GAS  /tmp/ccFyFdsa.s 			page 24


 1293 044b 09       		.byte	0x9
 1294 044c 5D       		.byte	0x5d
 1295 044d 51040000 		.4byte	0x451
 1296 0451 05       		.uleb128 0x5
 1297 0452 4A040000 		.4byte	.LASF57
 1298 0456 14       		.byte	0x14
 1299 0457 09       		.byte	0x9
 1300 0458 64       		.byte	0x64
 1301 0459 9A040000 		.4byte	0x49a
 1302 045d 06       		.uleb128 0x6
 1303 045e 78050000 		.4byte	.LASF58
 1304 0462 09       		.byte	0x9
 1305 0463 65       		.byte	0x65
 1306 0464 9A040000 		.4byte	0x49a
 1307 0468 00       		.byte	0
 1308 0469 06       		.uleb128 0x6
 1309 046a E1050000 		.4byte	.LASF59
 1310 046e 09       		.byte	0x9
 1311 046f 67       		.byte	0x67
 1312 0470 9A040000 		.4byte	0x49a
 1313 0474 04       		.byte	0x4
 1314 0475 06       		.uleb128 0x6
 1315 0476 CF000000 		.4byte	.LASF60
 1316 047a 09       		.byte	0x9
 1317 047b 69       		.byte	0x69
 1318 047c 2D010000 		.4byte	0x12d
 1319 0480 08       		.byte	0x8
 1320 0481 06       		.uleb128 0x6
 1321 0482 CC050000 		.4byte	.LASF61
 1322 0486 09       		.byte	0x9
 1323 0487 6A       		.byte	0x6a
 1324 0488 2A040000 		.4byte	0x42a
 1325 048c 0C       		.byte	0xc
 1326 048d 06       		.uleb128 0x6
 1327 048e F3000000 		.4byte	.LASF62
 1328 0492 09       		.byte	0x9
 1329 0493 6C       		.byte	0x6c
 1330 0494 A9020000 		.4byte	0x2a9
 1331 0498 10       		.byte	0x10
 1332 0499 00       		.byte	0
 1333 049a 09       		.uleb128 0x9
 1334 049b 04       		.byte	0x4
 1335 049c 46040000 		.4byte	0x446
 1336 04a0 08       		.uleb128 0x8
 1337 04a1 10       		.byte	0x10
 1338 04a2 09       		.byte	0x9
 1339 04a3 76       		.byte	0x76
 1340 04a4 D9040000 		.4byte	0x4d9
 1341 04a8 06       		.uleb128 0x6
 1342 04a9 78050000 		.4byte	.LASF58
 1343 04ad 09       		.byte	0x9
 1344 04ae 77       		.byte	0x77
 1345 04af 9A040000 		.4byte	0x49a
 1346 04b3 00       		.byte	0
 1347 04b4 06       		.uleb128 0x6
 1348 04b5 E1050000 		.4byte	.LASF59
 1349 04b9 09       		.byte	0x9
ARM GAS  /tmp/ccFyFdsa.s 			page 25


 1350 04ba 79       		.byte	0x79
 1351 04bb 9A040000 		.4byte	0x49a
 1352 04bf 04       		.byte	0x4
 1353 04c0 06       		.uleb128 0x6
 1354 04c1 CF000000 		.4byte	.LASF60
 1355 04c5 09       		.byte	0x9
 1356 04c6 7B       		.byte	0x7b
 1357 04c7 2D010000 		.4byte	0x12d
 1358 04cb 08       		.byte	0x8
 1359 04cc 06       		.uleb128 0x6
 1360 04cd 73000000 		.4byte	.LASF63
 1361 04d1 09       		.byte	0x9
 1362 04d2 7C       		.byte	0x7c
 1363 04d3 D9040000 		.4byte	0x4d9
 1364 04d7 0C       		.byte	0xc
 1365 04d8 00       		.byte	0
 1366 04d9 0F       		.uleb128 0xf
 1367 04da 2D010000 		.4byte	0x12d
 1368 04de 03       		.uleb128 0x3
 1369 04df D0010000 		.4byte	.LASF64
 1370 04e3 09       		.byte	0x9
 1371 04e4 7D       		.byte	0x7d
 1372 04e5 A0040000 		.4byte	0x4a0
 1373 04e9 08       		.uleb128 0x8
 1374 04ea 1C       		.byte	0x1c
 1375 04eb 0A       		.byte	0xa
 1376 04ec 5E       		.byte	0x5e
 1377 04ed 3A050000 		.4byte	0x53a
 1378 04f1 06       		.uleb128 0x6
 1379 04f2 58030000 		.4byte	.LASF65
 1380 04f6 0A       		.byte	0xa
 1381 04f7 5F       		.byte	0x5f
 1382 04f8 73020000 		.4byte	0x273
 1383 04fc 00       		.byte	0
 1384 04fd 06       		.uleb128 0x6
 1385 04fe EC000000 		.4byte	.LASF66
 1386 0502 0A       		.byte	0xa
 1387 0503 60       		.byte	0x60
 1388 0504 0C010000 		.4byte	0x10c
 1389 0508 08       		.byte	0x8
 1390 0509 06       		.uleb128 0x6
 1391 050a BB050000 		.4byte	.LASF67
 1392 050e 0A       		.byte	0xa
 1393 050f 62       		.byte	0x62
 1394 0510 02040000 		.4byte	0x402
 1395 0514 0C       		.byte	0xc
 1396 0515 06       		.uleb128 0x6
 1397 0516 B8010000 		.4byte	.LASF68
 1398 051a 0A       		.byte	0xa
 1399 051b 65       		.byte	0x65
 1400 051c 6D020000 		.4byte	0x26d
 1401 0520 10       		.byte	0x10
 1402 0521 06       		.uleb128 0x6
 1403 0522 98030000 		.4byte	.LASF69
 1404 0526 0A       		.byte	0xa
 1405 0527 66       		.byte	0x66
 1406 0528 6D020000 		.4byte	0x26d
ARM GAS  /tmp/ccFyFdsa.s 			page 26


 1407 052c 14       		.byte	0x14
 1408 052d 06       		.uleb128 0x6
 1409 052e 08040000 		.4byte	.LASF70
 1410 0532 0A       		.byte	0xa
 1411 0533 69       		.byte	0x69
 1412 0534 6D020000 		.4byte	0x26d
 1413 0538 18       		.byte	0x18
 1414 0539 00       		.byte	0
 1415 053a 03       		.uleb128 0x3
 1416 053b 59050000 		.4byte	.LASF71
 1417 053f 0A       		.byte	0xa
 1418 0540 6B       		.byte	0x6b
 1419 0541 E9040000 		.4byte	0x4e9
 1420 0545 05       		.uleb128 0x5
 1421 0546 94010000 		.4byte	.LASF72
 1422 054a 10       		.byte	0x10
 1423 054b 0B       		.byte	0xb
 1424 054c 2C       		.byte	0x2c
 1425 054d 76050000 		.4byte	0x576
 1426 0551 06       		.uleb128 0x6
 1427 0552 1D040000 		.4byte	.LASF73
 1428 0556 0B       		.byte	0xb
 1429 0557 2D       		.byte	0x2d
 1430 0558 73020000 		.4byte	0x273
 1431 055c 00       		.byte	0
 1432 055d 06       		.uleb128 0x6
 1433 055e 6B000000 		.4byte	.LASF74
 1434 0562 0B       		.byte	0xb
 1435 0563 2F       		.byte	0x2f
 1436 0564 6D020000 		.4byte	0x26d
 1437 0568 08       		.byte	0x8
 1438 0569 06       		.uleb128 0x6
 1439 056a 80050000 		.4byte	.LASF75
 1440 056e 0B       		.byte	0xb
 1441 056f 31       		.byte	0x31
 1442 0570 76050000 		.4byte	0x576
 1443 0574 0C       		.byte	0xc
 1444 0575 00       		.byte	0
 1445 0576 09       		.uleb128 0x9
 1446 0577 04       		.byte	0x4
 1447 0578 45050000 		.4byte	0x545
 1448 057c 03       		.uleb128 0x3
 1449 057d 94010000 		.4byte	.LASF72
 1450 0581 0B       		.byte	0xb
 1451 0582 33       		.byte	0x33
 1452 0583 45050000 		.4byte	0x545
 1453 0587 10       		.uleb128 0x10
 1454 0588 04       		.byte	0x4
 1455 0589 07       		.byte	0x7
 1456 058a 96       		.byte	0x96
 1457 058b BC050000 		.4byte	0x5bc
 1458 058f 11       		.uleb128 0x11
 1459 0590 58010000 		.4byte	.LASF76
 1460 0594 07       		.byte	0x7
 1461 0595 9D       		.byte	0x9d
 1462 0596 17010000 		.4byte	0x117
 1463 059a 11       		.uleb128 0x11
ARM GAS  /tmp/ccFyFdsa.s 			page 27


 1464 059b E9050000 		.4byte	.LASF77
 1465 059f 07       		.byte	0x7
 1466 05a0 A4       		.byte	0xa4
 1467 05a1 17010000 		.4byte	0x117
 1468 05a5 11       		.uleb128 0x11
 1469 05a6 AD000000 		.4byte	.LASF78
 1470 05aa 07       		.byte	0x7
 1471 05ab AB       		.byte	0xab
 1472 05ac A9020000 		.4byte	0x2a9
 1473 05b0 11       		.uleb128 0x11
 1474 05b1 C8000000 		.4byte	.LASF79
 1475 05b5 07       		.byte	0x7
 1476 05b6 B2       		.byte	0xb2
 1477 05b7 22010000 		.4byte	0x122
 1478 05bb 00       		.byte	0
 1479 05bc 09       		.uleb128 0x9
 1480 05bd 04       		.byte	0x4
 1481 05be C2050000 		.4byte	0x5c2
 1482 05c2 12       		.uleb128 0x12
 1483 05c3 C7050000 		.4byte	0x5c7
 1484 05c7 04       		.uleb128 0x4
 1485 05c8 01       		.byte	0x1
 1486 05c9 08       		.byte	0x8
 1487 05ca B3010000 		.4byte	.LASF80
 1488 05ce 09       		.uleb128 0x9
 1489 05cf 04       		.byte	0x4
 1490 05d0 AB020000 		.4byte	0x2ab
 1491 05d4 09       		.uleb128 0x9
 1492 05d5 04       		.byte	0x4
 1493 05d6 7C050000 		.4byte	0x57c
 1494 05da 03       		.uleb128 0x3
 1495 05db 07010000 		.4byte	.LASF81
 1496 05df 07       		.byte	0x7
 1497 05e0 E5       		.byte	0xe5
 1498 05e1 E5050000 		.4byte	0x5e5
 1499 05e5 09       		.uleb128 0x9
 1500 05e6 04       		.byte	0x4
 1501 05e7 EB050000 		.4byte	0x5eb
 1502 05eb 13       		.uleb128 0x13
 1503 05ec 17010000 		.4byte	0x117
 1504 05f0 FA050000 		.4byte	0x5fa
 1505 05f4 0E       		.uleb128 0xe
 1506 05f5 A9020000 		.4byte	0x2a9
 1507 05f9 00       		.byte	0
 1508 05fa 05       		.uleb128 0x5
 1509 05fb 40010000 		.4byte	.LASF82
 1510 05ff 10       		.byte	0x10
 1511 0600 0C       		.byte	0xc
 1512 0601 3B       		.byte	0x3b
 1513 0602 37060000 		.4byte	0x637
 1514 0606 06       		.uleb128 0x6
 1515 0607 61040000 		.4byte	.LASF83
 1516 060b 0C       		.byte	0xc
 1517 060c 3C       		.byte	0x3c
 1518 060d BC050000 		.4byte	0x5bc
 1519 0611 00       		.byte	0
 1520 0612 06       		.uleb128 0x6
ARM GAS  /tmp/ccFyFdsa.s 			page 28


 1521 0613 2F050000 		.4byte	.LASF84
 1522 0617 0C       		.byte	0xc
 1523 0618 3D       		.byte	0x3d
 1524 0619 38060000 		.4byte	0x638
 1525 061d 04       		.byte	0x4
 1526 061e 06       		.uleb128 0x6
 1527 061f 7D030000 		.4byte	.LASF85
 1528 0623 0C       		.byte	0xc
 1529 0624 3E       		.byte	0x3e
 1530 0625 38060000 		.4byte	0x638
 1531 0629 08       		.byte	0x8
 1532 062a 06       		.uleb128 0x6
 1533 062b 29020000 		.4byte	.LASF86
 1534 062f 0C       		.byte	0xc
 1535 0630 3F       		.byte	0x3f
 1536 0631 38060000 		.4byte	0x638
 1537 0635 0C       		.byte	0xc
 1538 0636 00       		.byte	0
 1539 0637 14       		.uleb128 0x14
 1540 0638 09       		.uleb128 0x9
 1541 0639 04       		.byte	0x4
 1542 063a 37060000 		.4byte	0x637
 1543 063e 15       		.uleb128 0x15
 1544 063f D4050000 		.4byte	.LASF115
 1545 0643 01       		.byte	0x1
 1546 0644 BD       		.byte	0xbd
 1547 0645 01       		.byte	0x1
 1548 0646 56060000 		.4byte	0x656
 1549 064a 16       		.uleb128 0x16
 1550 064b 02010000 		.4byte	.LASF116
 1551 064f 01       		.byte	0x1
 1552 0650 BE       		.byte	0xbe
 1553 0651 2D010000 		.4byte	0x12d
 1554 0655 00       		.byte	0
 1555 0656 17       		.uleb128 0x17
 1556 0657 96000000 		.4byte	.LASF87
 1557 065b 01       		.byte	0x1
 1558 065c 42       		.byte	0x42
 1559 065d 00000000 		.4byte	.LFB8
 1560 0661 C8000000 		.4byte	.LFE8-.LFB8
 1561 0665 01       		.uleb128 0x1
 1562 0666 9C       		.byte	0x9c
 1563 0667 69070000 		.4byte	0x769
 1564 066b 18       		.uleb128 0x18
 1565 066c 22000000 		.4byte	.LVL0
 1566 0670 A60C0000 		.4byte	0xca6
 1567 0674 97060000 		.4byte	0x697
 1568 0678 19       		.uleb128 0x19
 1569 0679 01       		.uleb128 0x1
 1570 067a 53       		.byte	0x53
 1571 067b 02       		.uleb128 0x2
 1572 067c 75       		.byte	0x75
 1573 067d 00       		.sleb128 0
 1574 067e 19       		.uleb128 0x19
 1575 067f 01       		.uleb128 0x1
 1576 0680 51       		.byte	0x51
 1577 0681 03       		.uleb128 0x3
ARM GAS  /tmp/ccFyFdsa.s 			page 29


 1578 0682 0A       		.byte	0xa
 1579 0683 D801     		.2byte	0x1d8
 1580 0685 19       		.uleb128 0x19
 1581 0686 01       		.uleb128 0x1
 1582 0687 50       		.byte	0x50
 1583 0688 03       		.uleb128 0x3
 1584 0689 76       		.byte	0x76
 1585 068a 00       		.sleb128 0
 1586 068b 06       		.byte	0x6
 1587 068c 19       		.uleb128 0x19
 1588 068d 02       		.uleb128 0x2
 1589 068e 7D       		.byte	0x7d
 1590 068f 00       		.sleb128 0
 1591 0690 05       		.uleb128 0x5
 1592 0691 03       		.byte	0x3
 1593 0692 00000000 		.4byte	.LC0
 1594 0696 00       		.byte	0
 1595 0697 18       		.uleb128 0x18
 1596 0698 3C000000 		.4byte	.LVL1
 1597 069c A60C0000 		.4byte	0xca6
 1598 06a0 C3060000 		.4byte	0x6c3
 1599 06a4 19       		.uleb128 0x19
 1600 06a5 01       		.uleb128 0x1
 1601 06a6 53       		.byte	0x53
 1602 06a7 02       		.uleb128 0x2
 1603 06a8 75       		.byte	0x75
 1604 06a9 00       		.sleb128 0
 1605 06aa 19       		.uleb128 0x19
 1606 06ab 01       		.uleb128 0x1
 1607 06ac 51       		.byte	0x51
 1608 06ad 03       		.uleb128 0x3
 1609 06ae 0A       		.byte	0xa
 1610 06af D801     		.2byte	0x1d8
 1611 06b1 19       		.uleb128 0x19
 1612 06b2 01       		.uleb128 0x1
 1613 06b3 50       		.byte	0x50
 1614 06b4 03       		.uleb128 0x3
 1615 06b5 76       		.byte	0x76
 1616 06b6 04       		.sleb128 4
 1617 06b7 06       		.byte	0x6
 1618 06b8 19       		.uleb128 0x19
 1619 06b9 02       		.uleb128 0x2
 1620 06ba 7D       		.byte	0x7d
 1621 06bb 00       		.sleb128 0
 1622 06bc 05       		.uleb128 0x5
 1623 06bd 03       		.byte	0x3
 1624 06be 04000000 		.4byte	.LC1
 1625 06c2 00       		.byte	0
 1626 06c3 18       		.uleb128 0x18
 1627 06c4 56000000 		.4byte	.LVL2
 1628 06c8 A60C0000 		.4byte	0xca6
 1629 06cc EF060000 		.4byte	0x6ef
 1630 06d0 19       		.uleb128 0x19
 1631 06d1 01       		.uleb128 0x1
 1632 06d2 53       		.byte	0x53
 1633 06d3 02       		.uleb128 0x2
 1634 06d4 75       		.byte	0x75
ARM GAS  /tmp/ccFyFdsa.s 			page 30


 1635 06d5 00       		.sleb128 0
 1636 06d6 19       		.uleb128 0x19
 1637 06d7 01       		.uleb128 0x1
 1638 06d8 51       		.byte	0x51
 1639 06d9 03       		.uleb128 0x3
 1640 06da 0A       		.byte	0xa
 1641 06db D801     		.2byte	0x1d8
 1642 06dd 19       		.uleb128 0x19
 1643 06de 01       		.uleb128 0x1
 1644 06df 50       		.byte	0x50
 1645 06e0 03       		.uleb128 0x3
 1646 06e1 76       		.byte	0x76
 1647 06e2 08       		.sleb128 8
 1648 06e3 06       		.byte	0x6
 1649 06e4 19       		.uleb128 0x19
 1650 06e5 02       		.uleb128 0x2
 1651 06e6 7D       		.byte	0x7d
 1652 06e7 00       		.sleb128 0
 1653 06e8 05       		.uleb128 0x5
 1654 06e9 03       		.byte	0x3
 1655 06ea 08000000 		.4byte	.LC2
 1656 06ee 00       		.byte	0
 1657 06ef 18       		.uleb128 0x18
 1658 06f0 70000000 		.4byte	.LVL3
 1659 06f4 A60C0000 		.4byte	0xca6
 1660 06f8 1B070000 		.4byte	0x71b
 1661 06fc 19       		.uleb128 0x19
 1662 06fd 01       		.uleb128 0x1
 1663 06fe 53       		.byte	0x53
 1664 06ff 02       		.uleb128 0x2
 1665 0700 75       		.byte	0x75
 1666 0701 00       		.sleb128 0
 1667 0702 19       		.uleb128 0x19
 1668 0703 01       		.uleb128 0x1
 1669 0704 51       		.byte	0x51
 1670 0705 03       		.uleb128 0x3
 1671 0706 0A       		.byte	0xa
 1672 0707 D801     		.2byte	0x1d8
 1673 0709 19       		.uleb128 0x19
 1674 070a 01       		.uleb128 0x1
 1675 070b 50       		.byte	0x50
 1676 070c 03       		.uleb128 0x3
 1677 070d 76       		.byte	0x76
 1678 070e 0C       		.sleb128 12
 1679 070f 06       		.byte	0x6
 1680 0710 19       		.uleb128 0x19
 1681 0711 02       		.uleb128 0x2
 1682 0712 7D       		.byte	0x7d
 1683 0713 00       		.sleb128 0
 1684 0714 05       		.uleb128 0x5
 1685 0715 03       		.byte	0x3
 1686 0716 0C000000 		.4byte	.LC3
 1687 071a 00       		.byte	0
 1688 071b 18       		.uleb128 0x18
 1689 071c 8A000000 		.4byte	.LVL4
 1690 0720 A60C0000 		.4byte	0xca6
 1691 0724 47070000 		.4byte	0x747
ARM GAS  /tmp/ccFyFdsa.s 			page 31


 1692 0728 19       		.uleb128 0x19
 1693 0729 01       		.uleb128 0x1
 1694 072a 53       		.byte	0x53
 1695 072b 02       		.uleb128 0x2
 1696 072c 75       		.byte	0x75
 1697 072d 00       		.sleb128 0
 1698 072e 19       		.uleb128 0x19
 1699 072f 01       		.uleb128 0x1
 1700 0730 51       		.byte	0x51
 1701 0731 03       		.uleb128 0x3
 1702 0732 0A       		.byte	0xa
 1703 0733 D801     		.2byte	0x1d8
 1704 0735 19       		.uleb128 0x19
 1705 0736 01       		.uleb128 0x1
 1706 0737 50       		.byte	0x50
 1707 0738 03       		.uleb128 0x3
 1708 0739 76       		.byte	0x76
 1709 073a 10       		.sleb128 16
 1710 073b 06       		.byte	0x6
 1711 073c 19       		.uleb128 0x19
 1712 073d 02       		.uleb128 0x2
 1713 073e 7D       		.byte	0x7d
 1714 073f 00       		.sleb128 0
 1715 0740 05       		.uleb128 0x5
 1716 0741 03       		.byte	0x3
 1717 0742 10000000 		.4byte	.LC4
 1718 0746 00       		.byte	0
 1719 0747 1A       		.uleb128 0x1a
 1720 0748 90000000 		.4byte	.LVL5
 1721 074c D00C0000 		.4byte	0xcd0
 1722 0750 1B       		.uleb128 0x1b
 1723 0751 9E000000 		.4byte	.LVL6
 1724 0755 D70C0000 		.4byte	0xcd7
 1725 0759 19       		.uleb128 0x19
 1726 075a 01       		.uleb128 0x1
 1727 075b 51       		.byte	0x51
 1728 075c 05       		.uleb128 0x5
 1729 075d 03       		.byte	0x3
 1730 075e 14000000 		.4byte	.LC5
 1731 0762 19       		.uleb128 0x19
 1732 0763 01       		.uleb128 0x1
 1733 0764 50       		.byte	0x50
 1734 0765 01       		.uleb128 0x1
 1735 0766 31       		.byte	0x31
 1736 0767 00       		.byte	0
 1737 0768 00       		.byte	0
 1738 0769 1C       		.uleb128 0x1c
 1739 076a CF040000 		.4byte	.LASF117
 1740 076e 01       		.byte	0x1
 1741 076f 3C       		.byte	0x3c
 1742 0770 17010000 		.4byte	0x117
 1743 0774 00000000 		.4byte	.LFB7
 1744 0778 0C000000 		.4byte	.LFE7-.LFB7
 1745 077c 01       		.uleb128 0x1
 1746 077d 9C       		.byte	0x9c
 1747 077e 99070000 		.4byte	0x799
 1748 0782 1D       		.uleb128 0x1d
ARM GAS  /tmp/ccFyFdsa.s 			page 32


 1749 0783 7000     		.ascii	"p\000"
 1750 0785 01       		.byte	0x1
 1751 0786 3C       		.byte	0x3c
 1752 0787 A9020000 		.4byte	0x2a9
 1753 078b 00000000 		.4byte	.LLST0
 1754 078f 1A       		.uleb128 0x1a
 1755 0790 08000000 		.4byte	.LVL9
 1756 0794 F70C0000 		.4byte	0xcf7
 1757 0798 00       		.byte	0
 1758 0799 17       		.uleb128 0x17
 1759 079a 87010000 		.4byte	.LASF88
 1760 079e 01       		.byte	0x1
 1761 079f 5E       		.byte	0x5e
 1762 07a0 00000000 		.4byte	.LFB9
 1763 07a4 E0000000 		.4byte	.LFE9-.LFB9
 1764 07a8 01       		.uleb128 0x1
 1765 07a9 9C       		.byte	0x9c
 1766 07aa F9080000 		.4byte	0x8f9
 1767 07ae 1E       		.uleb128 0x1e
 1768 07af 00000000 		.4byte	.Ldebug_ranges0+0
 1769 07b3 C5070000 		.4byte	0x7c5
 1770 07b7 1F       		.uleb128 0x1f
 1771 07b8 746D7000 		.ascii	"tmp\000"
 1772 07bc 01       		.byte	0x1
 1773 07bd 65       		.byte	0x65
 1774 07be B8000000 		.4byte	0xb8
 1775 07c2 01       		.uleb128 0x1
 1776 07c3 53       		.byte	0x53
 1777 07c4 00       		.byte	0
 1778 07c5 20       		.uleb128 0x20
 1779 07c6 98000000 		.4byte	.LBB4
 1780 07ca 06000000 		.4byte	.LBE4-.LBB4
 1781 07ce E0070000 		.4byte	0x7e0
 1782 07d2 1F       		.uleb128 0x1f
 1783 07d3 746D7000 		.ascii	"tmp\000"
 1784 07d7 01       		.byte	0x1
 1785 07d8 67       		.byte	0x67
 1786 07d9 B8000000 		.4byte	0xb8
 1787 07dd 01       		.uleb128 0x1
 1788 07de 53       		.byte	0x53
 1789 07df 00       		.byte	0
 1790 07e0 18       		.uleb128 0x18
 1791 07e1 22000000 		.4byte	.LVL10
 1792 07e5 A60C0000 		.4byte	0xca6
 1793 07e9 0C080000 		.4byte	0x80c
 1794 07ed 19       		.uleb128 0x19
 1795 07ee 01       		.uleb128 0x1
 1796 07ef 53       		.byte	0x53
 1797 07f0 02       		.uleb128 0x2
 1798 07f1 75       		.byte	0x75
 1799 07f2 00       		.sleb128 0
 1800 07f3 19       		.uleb128 0x19
 1801 07f4 01       		.uleb128 0x1
 1802 07f5 51       		.byte	0x51
 1803 07f6 03       		.uleb128 0x3
 1804 07f7 0A       		.byte	0xa
 1805 07f8 D801     		.2byte	0x1d8
ARM GAS  /tmp/ccFyFdsa.s 			page 33


 1806 07fa 19       		.uleb128 0x19
 1807 07fb 01       		.uleb128 0x1
 1808 07fc 50       		.byte	0x50
 1809 07fd 03       		.uleb128 0x3
 1810 07fe 76       		.byte	0x76
 1811 07ff 04       		.sleb128 4
 1812 0800 06       		.byte	0x6
 1813 0801 19       		.uleb128 0x19
 1814 0802 02       		.uleb128 0x2
 1815 0803 7D       		.byte	0x7d
 1816 0804 00       		.sleb128 0
 1817 0805 05       		.uleb128 0x5
 1818 0806 03       		.byte	0x3
 1819 0807 04000000 		.4byte	.LC1
 1820 080b 00       		.byte	0
 1821 080c 18       		.uleb128 0x18
 1822 080d 3C000000 		.4byte	.LVL11
 1823 0811 A60C0000 		.4byte	0xca6
 1824 0815 38080000 		.4byte	0x838
 1825 0819 19       		.uleb128 0x19
 1826 081a 01       		.uleb128 0x1
 1827 081b 53       		.byte	0x53
 1828 081c 02       		.uleb128 0x2
 1829 081d 75       		.byte	0x75
 1830 081e 00       		.sleb128 0
 1831 081f 19       		.uleb128 0x19
 1832 0820 01       		.uleb128 0x1
 1833 0821 51       		.byte	0x51
 1834 0822 03       		.uleb128 0x3
 1835 0823 0A       		.byte	0xa
 1836 0824 D801     		.2byte	0x1d8
 1837 0826 19       		.uleb128 0x19
 1838 0827 01       		.uleb128 0x1
 1839 0828 50       		.byte	0x50
 1840 0829 03       		.uleb128 0x3
 1841 082a 76       		.byte	0x76
 1842 082b 00       		.sleb128 0
 1843 082c 06       		.byte	0x6
 1844 082d 19       		.uleb128 0x19
 1845 082e 02       		.uleb128 0x2
 1846 082f 7D       		.byte	0x7d
 1847 0830 00       		.sleb128 0
 1848 0831 05       		.uleb128 0x5
 1849 0832 03       		.byte	0x3
 1850 0833 00000000 		.4byte	.LC0
 1851 0837 00       		.byte	0
 1852 0838 18       		.uleb128 0x18
 1853 0839 56000000 		.4byte	.LVL12
 1854 083d A60C0000 		.4byte	0xca6
 1855 0841 64080000 		.4byte	0x864
 1856 0845 19       		.uleb128 0x19
 1857 0846 01       		.uleb128 0x1
 1858 0847 53       		.byte	0x53
 1859 0848 02       		.uleb128 0x2
 1860 0849 75       		.byte	0x75
 1861 084a 00       		.sleb128 0
 1862 084b 19       		.uleb128 0x19
ARM GAS  /tmp/ccFyFdsa.s 			page 34


 1863 084c 01       		.uleb128 0x1
 1864 084d 51       		.byte	0x51
 1865 084e 03       		.uleb128 0x3
 1866 084f 0A       		.byte	0xa
 1867 0850 D801     		.2byte	0x1d8
 1868 0852 19       		.uleb128 0x19
 1869 0853 01       		.uleb128 0x1
 1870 0854 50       		.byte	0x50
 1871 0855 03       		.uleb128 0x3
 1872 0856 76       		.byte	0x76
 1873 0857 10       		.sleb128 16
 1874 0858 06       		.byte	0x6
 1875 0859 19       		.uleb128 0x19
 1876 085a 02       		.uleb128 0x2
 1877 085b 7D       		.byte	0x7d
 1878 085c 00       		.sleb128 0
 1879 085d 05       		.uleb128 0x5
 1880 085e 03       		.byte	0x3
 1881 085f 10000000 		.4byte	.LC4
 1882 0863 00       		.byte	0
 1883 0864 18       		.uleb128 0x18
 1884 0865 70000000 		.4byte	.LVL13
 1885 0869 A60C0000 		.4byte	0xca6
 1886 086d 90080000 		.4byte	0x890
 1887 0871 19       		.uleb128 0x19
 1888 0872 01       		.uleb128 0x1
 1889 0873 53       		.byte	0x53
 1890 0874 02       		.uleb128 0x2
 1891 0875 75       		.byte	0x75
 1892 0876 00       		.sleb128 0
 1893 0877 19       		.uleb128 0x19
 1894 0878 01       		.uleb128 0x1
 1895 0879 51       		.byte	0x51
 1896 087a 03       		.uleb128 0x3
 1897 087b 0A       		.byte	0xa
 1898 087c D801     		.2byte	0x1d8
 1899 087e 19       		.uleb128 0x19
 1900 087f 01       		.uleb128 0x1
 1901 0880 50       		.byte	0x50
 1902 0881 03       		.uleb128 0x3
 1903 0882 76       		.byte	0x76
 1904 0883 0C       		.sleb128 12
 1905 0884 06       		.byte	0x6
 1906 0885 19       		.uleb128 0x19
 1907 0886 02       		.uleb128 0x2
 1908 0887 7D       		.byte	0x7d
 1909 0888 00       		.sleb128 0
 1910 0889 05       		.uleb128 0x5
 1911 088a 03       		.byte	0x3
 1912 088b 0C000000 		.4byte	.LC3
 1913 088f 00       		.byte	0
 1914 0890 1A       		.uleb128 0x1a
 1915 0891 7C000000 		.4byte	.LVL14
 1916 0895 080D0000 		.4byte	0xd08
 1917 0899 18       		.uleb128 0x18
 1918 089a 92000000 		.4byte	.LVL15
 1919 089e 0F0D0000 		.4byte	0xd0f
ARM GAS  /tmp/ccFyFdsa.s 			page 35


 1920 08a2 C5080000 		.4byte	0x8c5
 1921 08a6 19       		.uleb128 0x19
 1922 08a7 01       		.uleb128 0x1
 1923 08a8 53       		.byte	0x53
 1924 08a9 02       		.uleb128 0x2
 1925 08aa 75       		.byte	0x75
 1926 08ab 00       		.sleb128 0
 1927 08ac 19       		.uleb128 0x19
 1928 08ad 01       		.uleb128 0x1
 1929 08ae 51       		.byte	0x51
 1930 08af 03       		.uleb128 0x3
 1931 08b0 0A       		.byte	0xa
 1932 08b1 D801     		.2byte	0x1d8
 1933 08b3 19       		.uleb128 0x19
 1934 08b4 01       		.uleb128 0x1
 1935 08b5 50       		.byte	0x50
 1936 08b6 03       		.uleb128 0x3
 1937 08b7 76       		.byte	0x76
 1938 08b8 08       		.sleb128 8
 1939 08b9 06       		.byte	0x6
 1940 08ba 19       		.uleb128 0x19
 1941 08bb 02       		.uleb128 0x2
 1942 08bc 7D       		.byte	0x7d
 1943 08bd 00       		.sleb128 0
 1944 08be 05       		.uleb128 0x5
 1945 08bf 03       		.byte	0x3
 1946 08c0 08000000 		.4byte	.LC2
 1947 08c4 00       		.byte	0
 1948 08c5 1A       		.uleb128 0x1a
 1949 08c6 98000000 		.4byte	.LVL16
 1950 08ca 390D0000 		.4byte	0xd39
 1951 08ce 1A       		.uleb128 0x1a
 1952 08cf A4000000 		.4byte	.LVL17
 1953 08d3 400D0000 		.4byte	0xd40
 1954 08d7 1A       		.uleb128 0x1a
 1955 08d8 A8000000 		.4byte	.LVL18
 1956 08dc D00C0000 		.4byte	0xcd0
 1957 08e0 1B       		.uleb128 0x1b
 1958 08e1 B6000000 		.4byte	.LVL19
 1959 08e5 D70C0000 		.4byte	0xcd7
 1960 08e9 19       		.uleb128 0x19
 1961 08ea 01       		.uleb128 0x1
 1962 08eb 51       		.byte	0x51
 1963 08ec 05       		.uleb128 0x5
 1964 08ed 03       		.byte	0x3
 1965 08ee 14000000 		.4byte	.LC5
 1966 08f2 19       		.uleb128 0x19
 1967 08f3 01       		.uleb128 0x1
 1968 08f4 50       		.byte	0x50
 1969 08f5 01       		.uleb128 0x1
 1970 08f6 31       		.byte	0x31
 1971 08f7 00       		.byte	0
 1972 08f8 00       		.byte	0
 1973 08f9 17       		.uleb128 0x17
 1974 08fa E6030000 		.4byte	.LASF89
 1975 08fe 01       		.byte	0x1
 1976 08ff 7E       		.byte	0x7e
ARM GAS  /tmp/ccFyFdsa.s 			page 36


 1977 0900 00000000 		.4byte	.LFB10
 1978 0904 54010000 		.4byte	.LFE10-.LFB10
 1979 0908 01       		.uleb128 0x1
 1980 0909 9C       		.byte	0x9c
 1981 090a EE0A0000 		.4byte	0xaee
 1982 090e 21       		.uleb128 0x21
 1983 090f A1010000 		.4byte	.LASF90
 1984 0913 01       		.byte	0x1
 1985 0914 7F       		.byte	0x7f
 1986 0915 0C010000 		.4byte	0x10c
 1987 0919 01       		.uleb128 0x1
 1988 091a 54       		.byte	0x54
 1989 091b 22       		.uleb128 0x22
 1990 091c 703100   		.ascii	"p1\000"
 1991 091f 01       		.byte	0x1
 1992 0920 7F       		.byte	0x7f
 1993 0921 0C010000 		.4byte	0x10c
 1994 0925 21000000 		.4byte	.LLST1
 1995 0929 20       		.uleb128 0x20
 1996 092a 70000000 		.4byte	.LBB5
 1997 092e 06000000 		.4byte	.LBE5-.LBB5
 1998 0932 44090000 		.4byte	0x944
 1999 0936 1F       		.uleb128 0x1f
 2000 0937 746D7000 		.ascii	"tmp\000"
 2001 093b 01       		.byte	0x1
 2002 093c 8F       		.byte	0x8f
 2003 093d B8000000 		.4byte	0xb8
 2004 0941 01       		.uleb128 0x1
 2005 0942 53       		.byte	0x53
 2006 0943 00       		.byte	0
 2007 0944 20       		.uleb128 0x20
 2008 0945 86000000 		.4byte	.LBB6
 2009 0949 06000000 		.4byte	.LBE6-.LBB6
 2010 094d 5F090000 		.4byte	0x95f
 2011 0951 1F       		.uleb128 0x1f
 2012 0952 746D7000 		.ascii	"tmp\000"
 2013 0956 01       		.byte	0x1
 2014 0957 91       		.byte	0x91
 2015 0958 B8000000 		.4byte	0xb8
 2016 095c 01       		.uleb128 0x1
 2017 095d 53       		.byte	0x53
 2018 095e 00       		.byte	0
 2019 095f 20       		.uleb128 0x20
 2020 0960 32010000 		.4byte	.LBB7
 2021 0964 06000000 		.4byte	.LBE7-.LBB7
 2022 0968 7A090000 		.4byte	0x97a
 2023 096c 1F       		.uleb128 0x1f
 2024 096d 746D7000 		.ascii	"tmp\000"
 2025 0971 01       		.byte	0x1
 2026 0972 A7       		.byte	0xa7
 2027 0973 B8000000 		.4byte	0xb8
 2028 0977 01       		.uleb128 0x1
 2029 0978 53       		.byte	0x53
 2030 0979 00       		.byte	0
 2031 097a 20       		.uleb128 0x20
 2032 097b 46010000 		.4byte	.LBB8
 2033 097f 0E000000 		.4byte	.LBE8-.LBB8
ARM GAS  /tmp/ccFyFdsa.s 			page 37


 2034 0983 95090000 		.4byte	0x995
 2035 0987 1F       		.uleb128 0x1f
 2036 0988 746D7000 		.ascii	"tmp\000"
 2037 098c 01       		.byte	0x1
 2038 098d AA       		.byte	0xaa
 2039 098e B8000000 		.4byte	0xb8
 2040 0992 01       		.uleb128 0x1
 2041 0993 53       		.byte	0x53
 2042 0994 00       		.byte	0
 2043 0995 18       		.uleb128 0x18
 2044 0996 10000000 		.4byte	.LVL21
 2045 099a 560D0000 		.4byte	0xd56
 2046 099e A9090000 		.4byte	0x9a9
 2047 09a2 19       		.uleb128 0x19
 2048 09a3 01       		.uleb128 0x1
 2049 09a4 50       		.byte	0x50
 2050 09a5 02       		.uleb128 0x2
 2051 09a6 75       		.byte	0x75
 2052 09a7 00       		.sleb128 0
 2053 09a8 00       		.byte	0
 2054 09a9 18       		.uleb128 0x18
 2055 09aa 24000000 		.4byte	.LVL24
 2056 09ae 6C0D0000 		.4byte	0xd6c
 2057 09b2 C7090000 		.4byte	0x9c7
 2058 09b6 19       		.uleb128 0x19
 2059 09b7 01       		.uleb128 0x1
 2060 09b8 51       		.byte	0x51
 2061 09b9 07       		.uleb128 0x7
 2062 09ba 77       		.byte	0x77
 2063 09bb 00       		.sleb128 0
 2064 09bc 74       		.byte	0x74
 2065 09bd 00       		.sleb128 0
 2066 09be 1C       		.byte	0x1c
 2067 09bf 30       		.byte	0x30
 2068 09c0 29       		.byte	0x29
 2069 09c1 19       		.uleb128 0x19
 2070 09c2 01       		.uleb128 0x1
 2071 09c3 50       		.byte	0x50
 2072 09c4 01       		.uleb128 0x1
 2073 09c5 31       		.byte	0x31
 2074 09c6 00       		.byte	0
 2075 09c7 18       		.uleb128 0x18
 2076 09c8 3E000000 		.4byte	.LVL27
 2077 09cc 6C0D0000 		.4byte	0xd6c
 2078 09d0 DA090000 		.4byte	0x9da
 2079 09d4 19       		.uleb128 0x19
 2080 09d5 01       		.uleb128 0x1
 2081 09d6 50       		.byte	0x50
 2082 09d7 01       		.uleb128 0x1
 2083 09d8 32       		.byte	0x32
 2084 09d9 00       		.byte	0
 2085 09da 18       		.uleb128 0x18
 2086 09db 48000000 		.4byte	.LVL28
 2087 09df 560D0000 		.4byte	0xd56
 2088 09e3 EE090000 		.4byte	0x9ee
 2089 09e7 19       		.uleb128 0x19
 2090 09e8 01       		.uleb128 0x1
ARM GAS  /tmp/ccFyFdsa.s 			page 38


 2091 09e9 50       		.byte	0x50
 2092 09ea 02       		.uleb128 0x2
 2093 09eb 77       		.byte	0x77
 2094 09ec 00       		.sleb128 0
 2095 09ed 00       		.byte	0
 2096 09ee 18       		.uleb128 0x18
 2097 09ef 54000000 		.4byte	.LVL30
 2098 09f3 6C0D0000 		.4byte	0xd6c
 2099 09f7 010A0000 		.4byte	0xa01
 2100 09fb 19       		.uleb128 0x19
 2101 09fc 01       		.uleb128 0x1
 2102 09fd 50       		.byte	0x50
 2103 09fe 01       		.uleb128 0x1
 2104 09ff 33       		.byte	0x33
 2105 0a00 00       		.byte	0
 2106 0a01 18       		.uleb128 0x18
 2107 0a02 6A000000 		.4byte	.LVL31
 2108 0a06 6C0D0000 		.4byte	0xd6c
 2109 0a0a 140A0000 		.4byte	0xa14
 2110 0a0e 19       		.uleb128 0x19
 2111 0a0f 01       		.uleb128 0x1
 2112 0a10 50       		.byte	0x50
 2113 0a11 01       		.uleb128 0x1
 2114 0a12 34       		.byte	0x34
 2115 0a13 00       		.byte	0
 2116 0a14 1A       		.uleb128 0x1a
 2117 0a15 7A000000 		.4byte	.LVL32
 2118 0a19 080D0000 		.4byte	0xd08
 2119 0a1d 1A       		.uleb128 0x1a
 2120 0a1e 86000000 		.4byte	.LVL33
 2121 0a22 390D0000 		.4byte	0xd39
 2122 0a26 18       		.uleb128 0x18
 2123 0a27 9E000000 		.4byte	.LVL34
 2124 0a2b 6C0D0000 		.4byte	0xd6c
 2125 0a2f 390A0000 		.4byte	0xa39
 2126 0a33 19       		.uleb128 0x19
 2127 0a34 01       		.uleb128 0x1
 2128 0a35 50       		.byte	0x50
 2129 0a36 01       		.uleb128 0x1
 2130 0a37 35       		.byte	0x35
 2131 0a38 00       		.byte	0
 2132 0a39 18       		.uleb128 0x18
 2133 0a3a A8000000 		.4byte	.LVL35
 2134 0a3e 560D0000 		.4byte	0xd56
 2135 0a42 4D0A0000 		.4byte	0xa4d
 2136 0a46 19       		.uleb128 0x19
 2137 0a47 01       		.uleb128 0x1
 2138 0a48 50       		.byte	0x50
 2139 0a49 02       		.uleb128 0x2
 2140 0a4a 75       		.byte	0x75
 2141 0a4b 00       		.sleb128 0
 2142 0a4c 00       		.byte	0
 2143 0a4d 18       		.uleb128 0x18
 2144 0a4e BA000000 		.4byte	.LVL37
 2145 0a52 6C0D0000 		.4byte	0xd6c
 2146 0a56 600A0000 		.4byte	0xa60
 2147 0a5a 19       		.uleb128 0x19
ARM GAS  /tmp/ccFyFdsa.s 			page 39


 2148 0a5b 01       		.uleb128 0x1
 2149 0a5c 50       		.byte	0x50
 2150 0a5d 01       		.uleb128 0x1
 2151 0a5e 36       		.byte	0x36
 2152 0a5f 00       		.byte	0
 2153 0a60 18       		.uleb128 0x18
 2154 0a61 D4000000 		.4byte	.LVL38
 2155 0a65 6C0D0000 		.4byte	0xd6c
 2156 0a69 730A0000 		.4byte	0xa73
 2157 0a6d 19       		.uleb128 0x19
 2158 0a6e 01       		.uleb128 0x1
 2159 0a6f 50       		.byte	0x50
 2160 0a70 01       		.uleb128 0x1
 2161 0a71 37       		.byte	0x37
 2162 0a72 00       		.byte	0
 2163 0a73 18       		.uleb128 0x18
 2164 0a74 E8000000 		.4byte	.LVL39
 2165 0a78 6C0D0000 		.4byte	0xd6c
 2166 0a7c 8E0A0000 		.4byte	0xa8e
 2167 0a80 19       		.uleb128 0x19
 2168 0a81 01       		.uleb128 0x1
 2169 0a82 51       		.byte	0x51
 2170 0a83 04       		.uleb128 0x4
 2171 0a84 77       		.byte	0x77
 2172 0a85 00       		.sleb128 0
 2173 0a86 30       		.byte	0x30
 2174 0a87 29       		.byte	0x29
 2175 0a88 19       		.uleb128 0x19
 2176 0a89 01       		.uleb128 0x1
 2177 0a8a 50       		.byte	0x50
 2178 0a8b 01       		.uleb128 0x1
 2179 0a8c 38       		.byte	0x38
 2180 0a8d 00       		.byte	0
 2181 0a8e 18       		.uleb128 0x18
 2182 0a8f F4000000 		.4byte	.LVL40
 2183 0a93 560D0000 		.4byte	0xd56
 2184 0a97 A20A0000 		.4byte	0xaa2
 2185 0a9b 19       		.uleb128 0x19
 2186 0a9c 01       		.uleb128 0x1
 2187 0a9d 50       		.byte	0x50
 2188 0a9e 02       		.uleb128 0x2
 2189 0a9f 77       		.byte	0x77
 2190 0aa0 00       		.sleb128 0
 2191 0aa1 00       		.byte	0
 2192 0aa2 18       		.uleb128 0x18
 2193 0aa3 00010000 		.4byte	.LVL42
 2194 0aa7 6C0D0000 		.4byte	0xd6c
 2195 0aab B50A0000 		.4byte	0xab5
 2196 0aaf 19       		.uleb128 0x19
 2197 0ab0 01       		.uleb128 0x1
 2198 0ab1 50       		.byte	0x50
 2199 0ab2 01       		.uleb128 0x1
 2200 0ab3 39       		.byte	0x39
 2201 0ab4 00       		.byte	0
 2202 0ab5 18       		.uleb128 0x18
 2203 0ab6 14010000 		.4byte	.LVL43
 2204 0aba 6C0D0000 		.4byte	0xd6c
ARM GAS  /tmp/ccFyFdsa.s 			page 40


 2205 0abe C80A0000 		.4byte	0xac8
 2206 0ac2 19       		.uleb128 0x19
 2207 0ac3 01       		.uleb128 0x1
 2208 0ac4 50       		.byte	0x50
 2209 0ac5 01       		.uleb128 0x1
 2210 0ac6 3A       		.byte	0x3a
 2211 0ac7 00       		.byte	0
 2212 0ac8 18       		.uleb128 0x18
 2213 0ac9 2A010000 		.4byte	.LVL44
 2214 0acd 6C0D0000 		.4byte	0xd6c
 2215 0ad1 DB0A0000 		.4byte	0xadb
 2216 0ad5 19       		.uleb128 0x19
 2217 0ad6 01       		.uleb128 0x1
 2218 0ad7 50       		.byte	0x50
 2219 0ad8 01       		.uleb128 0x1
 2220 0ad9 3B       		.byte	0x3b
 2221 0ada 00       		.byte	0
 2222 0adb 1A       		.uleb128 0x1a
 2223 0adc 3C010000 		.4byte	.LVL45
 2224 0ae0 080D0000 		.4byte	0xd08
 2225 0ae4 1A       		.uleb128 0x1a
 2226 0ae5 46010000 		.4byte	.LVL46
 2227 0ae9 390D0000 		.4byte	0xd39
 2228 0aed 00       		.byte	0
 2229 0aee 23       		.uleb128 0x23
 2230 0aef 3E060000 		.4byte	0x63e
 2231 0af3 00000000 		.4byte	.LFB11
 2232 0af7 78000000 		.4byte	.LFE11-.LFB11
 2233 0afb 01       		.uleb128 0x1
 2234 0afc 9C       		.byte	0x9c
 2235 0afd E60B0000 		.4byte	0xbe6
 2236 0b01 24       		.uleb128 0x24
 2237 0b02 4A060000 		.4byte	0x64a
 2238 0b06 6B000000 		.4byte	.LLST2
 2239 0b0a 1E       		.uleb128 0x1e
 2240 0b0b 18000000 		.4byte	.Ldebug_ranges0+0x18
 2241 0b0f 760B0000 		.4byte	0xb76
 2242 0b13 24       		.uleb128 0x24
 2243 0b14 4A060000 		.4byte	0x64a
 2244 0b18 89000000 		.4byte	.LLST3
 2245 0b1c 18       		.uleb128 0x18
 2246 0b1d 46000000 		.4byte	.LVL57
 2247 0b21 860D0000 		.4byte	0xd86
 2248 0b25 310B0000 		.4byte	0xb31
 2249 0b29 19       		.uleb128 0x19
 2250 0b2a 01       		.uleb128 0x1
 2251 0b2b 50       		.byte	0x50
 2252 0b2c 03       		.uleb128 0x3
 2253 0b2d 0A       		.byte	0xa
 2254 0b2e E803     		.2byte	0x3e8
 2255 0b30 00       		.byte	0
 2256 0b31 18       		.uleb128 0x18
 2257 0b32 54000000 		.4byte	.LVL58
 2258 0b36 980D0000 		.4byte	0xd98
 2259 0b3a 520B0000 		.4byte	0xb52
 2260 0b3e 19       		.uleb128 0x19
 2261 0b3f 01       		.uleb128 0x1
ARM GAS  /tmp/ccFyFdsa.s 			page 41


 2262 0b40 52       		.byte	0x52
 2263 0b41 03       		.uleb128 0x3
 2264 0b42 74       		.byte	0x74
 2265 0b43 E907     		.sleb128 1001
 2266 0b45 19       		.uleb128 0x19
 2267 0b46 01       		.uleb128 0x1
 2268 0b47 51       		.byte	0x51
 2269 0b48 03       		.uleb128 0x3
 2270 0b49 74       		.byte	0x74
 2271 0b4a E807     		.sleb128 1000
 2272 0b4c 19       		.uleb128 0x19
 2273 0b4d 01       		.uleb128 0x1
 2274 0b4e 50       		.byte	0x50
 2275 0b4f 01       		.uleb128 0x1
 2276 0b50 33       		.byte	0x33
 2277 0b51 00       		.byte	0
 2278 0b52 18       		.uleb128 0x18
 2279 0b53 64000000 		.4byte	.LVL61
 2280 0b57 B70D0000 		.4byte	0xdb7
 2281 0b5b 660B0000 		.4byte	0xb66
 2282 0b5f 19       		.uleb128 0x19
 2283 0b60 01       		.uleb128 0x1
 2284 0b61 50       		.byte	0x50
 2285 0b62 02       		.uleb128 0x2
 2286 0b63 75       		.byte	0x75
 2287 0b64 00       		.sleb128 0
 2288 0b65 00       		.byte	0
 2289 0b66 1B       		.uleb128 0x1b
 2290 0b67 74000000 		.4byte	.LVL63
 2291 0b6b 980D0000 		.4byte	0xd98
 2292 0b6f 19       		.uleb128 0x19
 2293 0b70 01       		.uleb128 0x1
 2294 0b71 50       		.byte	0x50
 2295 0b72 01       		.uleb128 0x1
 2296 0b73 34       		.byte	0x34
 2297 0b74 00       		.byte	0
 2298 0b75 00       		.byte	0
 2299 0b76 1A       		.uleb128 0x1a
 2300 0b77 08000000 		.4byte	.LVL47
 2301 0b7b C90D0000 		.4byte	0xdc9
 2302 0b7f 18       		.uleb128 0x18
 2303 0b80 10000000 		.4byte	.LVL49
 2304 0b84 860D0000 		.4byte	0xd86
 2305 0b88 930B0000 		.4byte	0xb93
 2306 0b8c 19       		.uleb128 0x19
 2307 0b8d 01       		.uleb128 0x1
 2308 0b8e 50       		.byte	0x50
 2309 0b8f 02       		.uleb128 0x2
 2310 0b90 08       		.byte	0x8
 2311 0b91 64       		.byte	0x64
 2312 0b92 00       		.byte	0
 2313 0b93 18       		.uleb128 0x18
 2314 0b94 1E000000 		.4byte	.LVL50
 2315 0b98 980D0000 		.4byte	0xd98
 2316 0b9c B40B0000 		.4byte	0xbb4
 2317 0ba0 19       		.uleb128 0x19
 2318 0ba1 01       		.uleb128 0x1
ARM GAS  /tmp/ccFyFdsa.s 			page 42


 2319 0ba2 52       		.byte	0x52
 2320 0ba3 03       		.uleb128 0x3
 2321 0ba4 74       		.byte	0x74
 2322 0ba5 E500     		.sleb128 101
 2323 0ba7 19       		.uleb128 0x19
 2324 0ba8 01       		.uleb128 0x1
 2325 0ba9 51       		.byte	0x51
 2326 0baa 03       		.uleb128 0x3
 2327 0bab 74       		.byte	0x74
 2328 0bac E400     		.sleb128 100
 2329 0bae 19       		.uleb128 0x19
 2330 0baf 01       		.uleb128 0x1
 2331 0bb0 50       		.byte	0x50
 2332 0bb1 01       		.uleb128 0x1
 2333 0bb2 31       		.byte	0x31
 2334 0bb3 00       		.byte	0
 2335 0bb4 18       		.uleb128 0x18
 2336 0bb5 2A000000 		.4byte	.LVL54
 2337 0bb9 860D0000 		.4byte	0xd86
 2338 0bbd C80B0000 		.4byte	0xbc8
 2339 0bc1 19       		.uleb128 0x19
 2340 0bc2 01       		.uleb128 0x1
 2341 0bc3 50       		.byte	0x50
 2342 0bc4 02       		.uleb128 0x2
 2343 0bc5 08       		.byte	0x8
 2344 0bc6 64       		.byte	0x64
 2345 0bc7 00       		.byte	0
 2346 0bc8 25       		.uleb128 0x25
 2347 0bc9 38000000 		.4byte	.LVL55
 2348 0bcd 980D0000 		.4byte	0xd98
 2349 0bd1 19       		.uleb128 0x19
 2350 0bd2 01       		.uleb128 0x1
 2351 0bd3 52       		.byte	0x52
 2352 0bd4 03       		.uleb128 0x3
 2353 0bd5 74       		.byte	0x74
 2354 0bd6 E500     		.sleb128 101
 2355 0bd8 19       		.uleb128 0x19
 2356 0bd9 01       		.uleb128 0x1
 2357 0bda 51       		.byte	0x51
 2358 0bdb 03       		.uleb128 0x3
 2359 0bdc 74       		.byte	0x74
 2360 0bdd E400     		.sleb128 100
 2361 0bdf 19       		.uleb128 0x19
 2362 0be0 01       		.uleb128 0x1
 2363 0be1 50       		.byte	0x50
 2364 0be2 01       		.uleb128 0x1
 2365 0be3 32       		.byte	0x32
 2366 0be4 00       		.byte	0
 2367 0be5 00       		.byte	0
 2368 0be6 26       		.uleb128 0x26
 2369 0be7 B4000000 		.4byte	.LASF91
 2370 0beb 09       		.byte	0x9
 2371 0bec F5       		.byte	0xf5
 2372 0bed DE040000 		.4byte	0x4de
 2373 0bf1 26       		.uleb128 0x26
 2374 0bf2 44040000 		.4byte	.LASF92
 2375 0bf6 0A       		.byte	0xa
ARM GAS  /tmp/ccFyFdsa.s 			page 43


 2376 0bf7 6F       		.byte	0x6f
 2377 0bf8 3A050000 		.4byte	0x53a
 2378 0bfc 27       		.uleb128 0x27
 2379 0bfd 6D020000 		.4byte	0x26d
 2380 0c01 0C0C0000 		.4byte	0xc0c
 2381 0c05 28       		.uleb128 0x28
 2382 0c06 23040000 		.4byte	0x423
 2383 0c0a 04       		.byte	0x4
 2384 0c0b 00       		.byte	0
 2385 0c0c 26       		.uleb128 0x26
 2386 0c0d A0040000 		.4byte	.LASF93
 2387 0c11 0C       		.byte	0xc
 2388 0c12 A5       		.byte	0xa5
 2389 0c13 FC0B0000 		.4byte	0xbfc
 2390 0c17 27       		.uleb128 0x27
 2391 0c18 A9020000 		.4byte	0x2a9
 2392 0c1c 220C0000 		.4byte	0xc22
 2393 0c20 29       		.uleb128 0x29
 2394 0c21 00       		.byte	0
 2395 0c22 2A       		.uleb128 0x2a
 2396 0c23 776100   		.ascii	"wa\000"
 2397 0c26 0C       		.byte	0xc
 2398 0c27 A7       		.byte	0xa7
 2399 0c28 2C0C0000 		.4byte	0xc2c
 2400 0c2c 12       		.uleb128 0x12
 2401 0c2d 170C0000 		.4byte	0xc17
 2402 0c31 2B       		.uleb128 0x2b
 2403 0c32 C6040000 		.4byte	.LASF94
 2404 0c36 01       		.byte	0x1
 2405 0c37 4D       		.byte	0x4d
 2406 0c38 420C0000 		.4byte	0xc42
 2407 0c3c 05       		.uleb128 0x5
 2408 0c3d 03       		.byte	0x3
 2409 0c3e 00000000 		.4byte	testthd1
 2410 0c42 12       		.uleb128 0x12
 2411 0c43 FA050000 		.4byte	0x5fa
 2412 0c47 2B       		.uleb128 0x2b
 2413 0c48 35050000 		.4byte	.LASF95
 2414 0c4c 01       		.byte	0x1
 2415 0c4d 6D       		.byte	0x6d
 2416 0c4e 420C0000 		.4byte	0xc42
 2417 0c52 05       		.uleb128 0x5
 2418 0c53 03       		.byte	0x3
 2419 0c54 00000000 		.4byte	testthd2
 2420 0c58 2B       		.uleb128 0x2b
 2421 0c59 3E050000 		.4byte	.LASF96
 2422 0c5d 01       		.byte	0x1
 2423 0c5e AE       		.byte	0xae
 2424 0c5f 420C0000 		.4byte	0xc42
 2425 0c63 05       		.uleb128 0x5
 2426 0c64 03       		.byte	0x3
 2427 0c65 00000000 		.4byte	testthd3
 2428 0c69 2B       		.uleb128 0x2b
 2429 0c6a D6040000 		.4byte	.LASF97
 2430 0c6e 01       		.byte	0x1
 2431 0c6f D7       		.byte	0xd7
 2432 0c70 420C0000 		.4byte	0xc42
ARM GAS  /tmp/ccFyFdsa.s 			page 44


 2433 0c74 05       		.uleb128 0x5
 2434 0c75 03       		.byte	0x3
 2435 0c76 00000000 		.4byte	testthd4
 2436 0c7a 27       		.uleb128 0x27
 2437 0c7b 8A0C0000 		.4byte	0xc8a
 2438 0c7f 8A0C0000 		.4byte	0xc8a
 2439 0c83 28       		.uleb128 0x28
 2440 0c84 23040000 		.4byte	0x423
 2441 0c88 04       		.byte	0x4
 2442 0c89 00       		.byte	0
 2443 0c8a 09       		.uleb128 0x9
 2444 0c8b 04       		.byte	0x4
 2445 0c8c 420C0000 		.4byte	0xc42
 2446 0c90 2B       		.uleb128 0x2b
 2447 0c91 35010000 		.4byte	.LASF98
 2448 0c95 01       		.byte	0x1
 2449 0c96 E1       		.byte	0xe1
 2450 0c97 A10C0000 		.4byte	0xca1
 2451 0c9b 05       		.uleb128 0x5
 2452 0c9c 03       		.byte	0x3
 2453 0c9d 00000000 		.4byte	patternthd
 2454 0ca1 12       		.uleb128 0x12
 2455 0ca2 7A0C0000 		.4byte	0xc7a
 2456 0ca6 2C       		.uleb128 0x2c
 2457 0ca7 B1030000 		.4byte	.LASF99
 2458 0cab 07       		.byte	0x7
 2459 0cac 7001     		.2byte	0x170
 2460 0cae 6D020000 		.4byte	0x26d
 2461 0cb2 D00C0000 		.4byte	0xcd0
 2462 0cb6 0E       		.uleb128 0xe
 2463 0cb7 A9020000 		.4byte	0x2a9
 2464 0cbb 0E       		.uleb128 0xe
 2465 0cbc 2C000000 		.4byte	0x2c
 2466 0cc0 0E       		.uleb128 0xe
 2467 0cc1 0C010000 		.4byte	0x10c
 2468 0cc5 0E       		.uleb128 0xe
 2469 0cc6 DA050000 		.4byte	0x5da
 2470 0cca 0E       		.uleb128 0xe
 2471 0ccb A9020000 		.4byte	0x2a9
 2472 0ccf 00       		.byte	0
 2473 0cd0 2D       		.uleb128 0x2d
 2474 0cd1 00000000 		.4byte	.LASF101
 2475 0cd5 0C       		.byte	0xc
 2476 0cd6 5C       		.byte	0x5c
 2477 0cd7 2E       		.uleb128 0x2e
 2478 0cd8 A8040000 		.4byte	.LASF100
 2479 0cdc 0C       		.byte	0xc
 2480 0cdd 59       		.byte	0x59
 2481 0cde CE000000 		.4byte	0xce
 2482 0ce2 F10C0000 		.4byte	0xcf1
 2483 0ce6 0E       		.uleb128 0xe
 2484 0ce7 37000000 		.4byte	0x37
 2485 0ceb 0E       		.uleb128 0xe
 2486 0cec F10C0000 		.4byte	0xcf1
 2487 0cf0 00       		.byte	0
 2488 0cf1 09       		.uleb128 0x9
 2489 0cf2 04       		.byte	0x4
ARM GAS  /tmp/ccFyFdsa.s 			page 45


 2490 0cf3 C7050000 		.4byte	0x5c7
 2491 0cf7 2F       		.uleb128 0x2f
 2492 0cf8 90040000 		.4byte	.LASF108
 2493 0cfc 0C       		.byte	0xc
 2494 0cfd 56       		.byte	0x56
 2495 0cfe 080D0000 		.4byte	0xd08
 2496 0d02 0E       		.uleb128 0xe
 2497 0d03 C7050000 		.4byte	0x5c7
 2498 0d07 00       		.byte	0
 2499 0d08 2D       		.uleb128 0x2d
 2500 0d09 6E030000 		.4byte	.LASF102
 2501 0d0d 0D       		.byte	0xd
 2502 0d0e E7       		.byte	0xe7
 2503 0d0f 2C       		.uleb128 0x2c
 2504 0d10 DF040000 		.4byte	.LASF103
 2505 0d14 07       		.byte	0x7
 2506 0d15 6E01     		.2byte	0x16e
 2507 0d17 6D020000 		.4byte	0x26d
 2508 0d1b 390D0000 		.4byte	0xd39
 2509 0d1f 0E       		.uleb128 0xe
 2510 0d20 A9020000 		.4byte	0x2a9
 2511 0d24 0E       		.uleb128 0xe
 2512 0d25 2C000000 		.4byte	0x2c
 2513 0d29 0E       		.uleb128 0xe
 2514 0d2a 0C010000 		.4byte	0x10c
 2515 0d2e 0E       		.uleb128 0xe
 2516 0d2f DA050000 		.4byte	0x5da
 2517 0d33 0E       		.uleb128 0xe
 2518 0d34 A9020000 		.4byte	0x2a9
 2519 0d38 00       		.byte	0
 2520 0d39 2D       		.uleb128 0x2d
 2521 0d3a EB010000 		.4byte	.LASF104
 2522 0d3e 0D       		.byte	0xd
 2523 0d3f E8       		.byte	0xe8
 2524 0d40 2C       		.uleb128 0x2c
 2525 0d41 D7010000 		.4byte	.LASF105
 2526 0d45 07       		.byte	0x7
 2527 0d46 7301     		.2byte	0x173
 2528 0d48 6D020000 		.4byte	0x26d
 2529 0d4c 560D0000 		.4byte	0xd56
 2530 0d50 0E       		.uleb128 0xe
 2531 0d51 6D020000 		.4byte	0x26d
 2532 0d55 00       		.byte	0
 2533 0d56 2C       		.uleb128 0x2c
 2534 0d57 A0030000 		.4byte	.LASF106
 2535 0d5b 07       		.byte	0x7
 2536 0d5c 7201     		.2byte	0x172
 2537 0d5e 0C010000 		.4byte	0x10c
 2538 0d62 6C0D0000 		.4byte	0xd6c
 2539 0d66 0E       		.uleb128 0xe
 2540 0d67 0C010000 		.4byte	0x10c
 2541 0d6b 00       		.byte	0
 2542 0d6c 2E       		.uleb128 0x2e
 2543 0d6d BB000000 		.4byte	.LASF107
 2544 0d71 0C       		.byte	0xc
 2545 0d72 58       		.byte	0x58
 2546 0d73 CE000000 		.4byte	0xce
ARM GAS  /tmp/ccFyFdsa.s 			page 46


 2547 0d77 860D0000 		.4byte	0xd86
 2548 0d7b 0E       		.uleb128 0xe
 2549 0d7c 37000000 		.4byte	0x37
 2550 0d80 0E       		.uleb128 0xe
 2551 0d81 CE000000 		.4byte	0xce
 2552 0d85 00       		.byte	0
 2553 0d86 30       		.uleb128 0x30
 2554 0d87 63050000 		.4byte	.LASF109
 2555 0d8b 07       		.byte	0x7
 2556 0d8c 7501     		.2byte	0x175
 2557 0d8e 980D0000 		.4byte	0xd98
 2558 0d92 0E       		.uleb128 0xe
 2559 0d93 2D010000 		.4byte	0x12d
 2560 0d97 00       		.byte	0
 2561 0d98 2E       		.uleb128 0x2e
 2562 0d99 48000000 		.4byte	.LASF110
 2563 0d9d 0C       		.byte	0xc
 2564 0d9e 5A       		.byte	0x5a
 2565 0d9f CE000000 		.4byte	0xce
 2566 0da3 B70D0000 		.4byte	0xdb7
 2567 0da7 0E       		.uleb128 0xe
 2568 0da8 37000000 		.4byte	0x37
 2569 0dac 0E       		.uleb128 0xe
 2570 0dad 2D010000 		.4byte	0x12d
 2571 0db1 0E       		.uleb128 0xe
 2572 0db2 2D010000 		.4byte	0x12d
 2573 0db6 00       		.byte	0
 2574 0db7 30       		.uleb128 0x30
 2575 0db8 6C010000 		.4byte	.LASF111
 2576 0dbc 07       		.byte	0x7
 2577 0dbd 7601     		.2byte	0x176
 2578 0dbf C90D0000 		.4byte	0xdc9
 2579 0dc3 0E       		.uleb128 0xe
 2580 0dc4 2D010000 		.4byte	0x12d
 2581 0dc8 00       		.byte	0
 2582 0dc9 31       		.uleb128 0x31
 2583 0dca 0F010000 		.4byte	.LASF118
 2584 0dce 0C       		.byte	0xc
 2585 0dcf 5D       		.byte	0x5d
 2586 0dd0 2D010000 		.4byte	0x12d
 2587 0dd4 00       		.byte	0
 2588              		.section	.debug_abbrev,"",%progbits
 2589              	.Ldebug_abbrev0:
 2590 0000 01       		.uleb128 0x1
 2591 0001 11       		.uleb128 0x11
 2592 0002 01       		.byte	0x1
 2593 0003 25       		.uleb128 0x25
 2594 0004 0E       		.uleb128 0xe
 2595 0005 13       		.uleb128 0x13
 2596 0006 0B       		.uleb128 0xb
 2597 0007 03       		.uleb128 0x3
 2598 0008 0E       		.uleb128 0xe
 2599 0009 1B       		.uleb128 0x1b
 2600 000a 0E       		.uleb128 0xe
 2601 000b 55       		.uleb128 0x55
 2602 000c 17       		.uleb128 0x17
 2603 000d 11       		.uleb128 0x11
ARM GAS  /tmp/ccFyFdsa.s 			page 47


 2604 000e 01       		.uleb128 0x1
 2605 000f 10       		.uleb128 0x10
 2606 0010 17       		.uleb128 0x17
 2607 0011 00       		.byte	0
 2608 0012 00       		.byte	0
 2609 0013 02       		.uleb128 0x2
 2610 0014 24       		.uleb128 0x24
 2611 0015 00       		.byte	0
 2612 0016 0B       		.uleb128 0xb
 2613 0017 0B       		.uleb128 0xb
 2614 0018 3E       		.uleb128 0x3e
 2615 0019 0B       		.uleb128 0xb
 2616 001a 03       		.uleb128 0x3
 2617 001b 08       		.uleb128 0x8
 2618 001c 00       		.byte	0
 2619 001d 00       		.byte	0
 2620 001e 03       		.uleb128 0x3
 2621 001f 16       		.uleb128 0x16
 2622 0020 00       		.byte	0
 2623 0021 03       		.uleb128 0x3
 2624 0022 0E       		.uleb128 0xe
 2625 0023 3A       		.uleb128 0x3a
 2626 0024 0B       		.uleb128 0xb
 2627 0025 3B       		.uleb128 0x3b
 2628 0026 0B       		.uleb128 0xb
 2629 0027 49       		.uleb128 0x49
 2630 0028 13       		.uleb128 0x13
 2631 0029 00       		.byte	0
 2632 002a 00       		.byte	0
 2633 002b 04       		.uleb128 0x4
 2634 002c 24       		.uleb128 0x24
 2635 002d 00       		.byte	0
 2636 002e 0B       		.uleb128 0xb
 2637 002f 0B       		.uleb128 0xb
 2638 0030 3E       		.uleb128 0x3e
 2639 0031 0B       		.uleb128 0xb
 2640 0032 03       		.uleb128 0x3
 2641 0033 0E       		.uleb128 0xe
 2642 0034 00       		.byte	0
 2643 0035 00       		.byte	0
 2644 0036 05       		.uleb128 0x5
 2645 0037 13       		.uleb128 0x13
 2646 0038 01       		.byte	0x1
 2647 0039 03       		.uleb128 0x3
 2648 003a 0E       		.uleb128 0xe
 2649 003b 0B       		.uleb128 0xb
 2650 003c 0B       		.uleb128 0xb
 2651 003d 3A       		.uleb128 0x3a
 2652 003e 0B       		.uleb128 0xb
 2653 003f 3B       		.uleb128 0x3b
 2654 0040 0B       		.uleb128 0xb
 2655 0041 01       		.uleb128 0x1
 2656 0042 13       		.uleb128 0x13
 2657 0043 00       		.byte	0
 2658 0044 00       		.byte	0
 2659 0045 06       		.uleb128 0x6
 2660 0046 0D       		.uleb128 0xd
ARM GAS  /tmp/ccFyFdsa.s 			page 48


 2661 0047 00       		.byte	0
 2662 0048 03       		.uleb128 0x3
 2663 0049 0E       		.uleb128 0xe
 2664 004a 3A       		.uleb128 0x3a
 2665 004b 0B       		.uleb128 0xb
 2666 004c 3B       		.uleb128 0x3b
 2667 004d 0B       		.uleb128 0xb
 2668 004e 49       		.uleb128 0x49
 2669 004f 13       		.uleb128 0x13
 2670 0050 38       		.uleb128 0x38
 2671 0051 0B       		.uleb128 0xb
 2672 0052 00       		.byte	0
 2673 0053 00       		.byte	0
 2674 0054 07       		.uleb128 0x7
 2675 0055 0D       		.uleb128 0xd
 2676 0056 00       		.byte	0
 2677 0057 03       		.uleb128 0x3
 2678 0058 08       		.uleb128 0x8
 2679 0059 3A       		.uleb128 0x3a
 2680 005a 0B       		.uleb128 0xb
 2681 005b 3B       		.uleb128 0x3b
 2682 005c 0B       		.uleb128 0xb
 2683 005d 49       		.uleb128 0x49
 2684 005e 13       		.uleb128 0x13
 2685 005f 38       		.uleb128 0x38
 2686 0060 0B       		.uleb128 0xb
 2687 0061 00       		.byte	0
 2688 0062 00       		.byte	0
 2689 0063 08       		.uleb128 0x8
 2690 0064 13       		.uleb128 0x13
 2691 0065 01       		.byte	0x1
 2692 0066 0B       		.uleb128 0xb
 2693 0067 0B       		.uleb128 0xb
 2694 0068 3A       		.uleb128 0x3a
 2695 0069 0B       		.uleb128 0xb
 2696 006a 3B       		.uleb128 0x3b
 2697 006b 0B       		.uleb128 0xb
 2698 006c 01       		.uleb128 0x1
 2699 006d 13       		.uleb128 0x13
 2700 006e 00       		.byte	0
 2701 006f 00       		.byte	0
 2702 0070 09       		.uleb128 0x9
 2703 0071 0F       		.uleb128 0xf
 2704 0072 00       		.byte	0
 2705 0073 0B       		.uleb128 0xb
 2706 0074 0B       		.uleb128 0xb
 2707 0075 49       		.uleb128 0x49
 2708 0076 13       		.uleb128 0x13
 2709 0077 00       		.byte	0
 2710 0078 00       		.byte	0
 2711 0079 0A       		.uleb128 0xa
 2712 007a 0F       		.uleb128 0xf
 2713 007b 00       		.byte	0
 2714 007c 0B       		.uleb128 0xb
 2715 007d 0B       		.uleb128 0xb
 2716 007e 00       		.byte	0
 2717 007f 00       		.byte	0
ARM GAS  /tmp/ccFyFdsa.s 			page 49


 2718 0080 0B       		.uleb128 0xb
 2719 0081 13       		.uleb128 0x13
 2720 0082 01       		.byte	0x1
 2721 0083 03       		.uleb128 0x3
 2722 0084 0E       		.uleb128 0xe
 2723 0085 0B       		.uleb128 0xb
 2724 0086 0B       		.uleb128 0xb
 2725 0087 3A       		.uleb128 0x3a
 2726 0088 0B       		.uleb128 0xb
 2727 0089 3B       		.uleb128 0x3b
 2728 008a 05       		.uleb128 0x5
 2729 008b 01       		.uleb128 0x1
 2730 008c 13       		.uleb128 0x13
 2731 008d 00       		.byte	0
 2732 008e 00       		.byte	0
 2733 008f 0C       		.uleb128 0xc
 2734 0090 0D       		.uleb128 0xd
 2735 0091 00       		.byte	0
 2736 0092 03       		.uleb128 0x3
 2737 0093 08       		.uleb128 0x8
 2738 0094 3A       		.uleb128 0x3a
 2739 0095 0B       		.uleb128 0xb
 2740 0096 3B       		.uleb128 0x3b
 2741 0097 05       		.uleb128 0x5
 2742 0098 49       		.uleb128 0x49
 2743 0099 13       		.uleb128 0x13
 2744 009a 38       		.uleb128 0x38
 2745 009b 0B       		.uleb128 0xb
 2746 009c 00       		.byte	0
 2747 009d 00       		.byte	0
 2748 009e 0D       		.uleb128 0xd
 2749 009f 15       		.uleb128 0x15
 2750 00a0 01       		.byte	0x1
 2751 00a1 27       		.uleb128 0x27
 2752 00a2 19       		.uleb128 0x19
 2753 00a3 01       		.uleb128 0x1
 2754 00a4 13       		.uleb128 0x13
 2755 00a5 00       		.byte	0
 2756 00a6 00       		.byte	0
 2757 00a7 0E       		.uleb128 0xe
 2758 00a8 05       		.uleb128 0x5
 2759 00a9 00       		.byte	0
 2760 00aa 49       		.uleb128 0x49
 2761 00ab 13       		.uleb128 0x13
 2762 00ac 00       		.byte	0
 2763 00ad 00       		.byte	0
 2764 00ae 0F       		.uleb128 0xf
 2765 00af 35       		.uleb128 0x35
 2766 00b0 00       		.byte	0
 2767 00b1 49       		.uleb128 0x49
 2768 00b2 13       		.uleb128 0x13
 2769 00b3 00       		.byte	0
 2770 00b4 00       		.byte	0
 2771 00b5 10       		.uleb128 0x10
 2772 00b6 17       		.uleb128 0x17
 2773 00b7 01       		.byte	0x1
 2774 00b8 0B       		.uleb128 0xb
ARM GAS  /tmp/ccFyFdsa.s 			page 50


 2775 00b9 0B       		.uleb128 0xb
 2776 00ba 3A       		.uleb128 0x3a
 2777 00bb 0B       		.uleb128 0xb
 2778 00bc 3B       		.uleb128 0x3b
 2779 00bd 0B       		.uleb128 0xb
 2780 00be 01       		.uleb128 0x1
 2781 00bf 13       		.uleb128 0x13
 2782 00c0 00       		.byte	0
 2783 00c1 00       		.byte	0
 2784 00c2 11       		.uleb128 0x11
 2785 00c3 0D       		.uleb128 0xd
 2786 00c4 00       		.byte	0
 2787 00c5 03       		.uleb128 0x3
 2788 00c6 0E       		.uleb128 0xe
 2789 00c7 3A       		.uleb128 0x3a
 2790 00c8 0B       		.uleb128 0xb
 2791 00c9 3B       		.uleb128 0x3b
 2792 00ca 0B       		.uleb128 0xb
 2793 00cb 49       		.uleb128 0x49
 2794 00cc 13       		.uleb128 0x13
 2795 00cd 00       		.byte	0
 2796 00ce 00       		.byte	0
 2797 00cf 12       		.uleb128 0x12
 2798 00d0 26       		.uleb128 0x26
 2799 00d1 00       		.byte	0
 2800 00d2 49       		.uleb128 0x49
 2801 00d3 13       		.uleb128 0x13
 2802 00d4 00       		.byte	0
 2803 00d5 00       		.byte	0
 2804 00d6 13       		.uleb128 0x13
 2805 00d7 15       		.uleb128 0x15
 2806 00d8 01       		.byte	0x1
 2807 00d9 27       		.uleb128 0x27
 2808 00da 19       		.uleb128 0x19
 2809 00db 49       		.uleb128 0x49
 2810 00dc 13       		.uleb128 0x13
 2811 00dd 01       		.uleb128 0x1
 2812 00de 13       		.uleb128 0x13
 2813 00df 00       		.byte	0
 2814 00e0 00       		.byte	0
 2815 00e1 14       		.uleb128 0x14
 2816 00e2 15       		.uleb128 0x15
 2817 00e3 00       		.byte	0
 2818 00e4 27       		.uleb128 0x27
 2819 00e5 19       		.uleb128 0x19
 2820 00e6 00       		.byte	0
 2821 00e7 00       		.byte	0
 2822 00e8 15       		.uleb128 0x15
 2823 00e9 2E       		.uleb128 0x2e
 2824 00ea 01       		.byte	0x1
 2825 00eb 03       		.uleb128 0x3
 2826 00ec 0E       		.uleb128 0xe
 2827 00ed 3A       		.uleb128 0x3a
 2828 00ee 0B       		.uleb128 0xb
 2829 00ef 3B       		.uleb128 0x3b
 2830 00f0 0B       		.uleb128 0xb
 2831 00f1 27       		.uleb128 0x27
ARM GAS  /tmp/ccFyFdsa.s 			page 51


 2832 00f2 19       		.uleb128 0x19
 2833 00f3 20       		.uleb128 0x20
 2834 00f4 0B       		.uleb128 0xb
 2835 00f5 01       		.uleb128 0x1
 2836 00f6 13       		.uleb128 0x13
 2837 00f7 00       		.byte	0
 2838 00f8 00       		.byte	0
 2839 00f9 16       		.uleb128 0x16
 2840 00fa 34       		.uleb128 0x34
 2841 00fb 00       		.byte	0
 2842 00fc 03       		.uleb128 0x3
 2843 00fd 0E       		.uleb128 0xe
 2844 00fe 3A       		.uleb128 0x3a
 2845 00ff 0B       		.uleb128 0xb
 2846 0100 3B       		.uleb128 0x3b
 2847 0101 0B       		.uleb128 0xb
 2848 0102 49       		.uleb128 0x49
 2849 0103 13       		.uleb128 0x13
 2850 0104 00       		.byte	0
 2851 0105 00       		.byte	0
 2852 0106 17       		.uleb128 0x17
 2853 0107 2E       		.uleb128 0x2e
 2854 0108 01       		.byte	0x1
 2855 0109 03       		.uleb128 0x3
 2856 010a 0E       		.uleb128 0xe
 2857 010b 3A       		.uleb128 0x3a
 2858 010c 0B       		.uleb128 0xb
 2859 010d 3B       		.uleb128 0x3b
 2860 010e 0B       		.uleb128 0xb
 2861 010f 27       		.uleb128 0x27
 2862 0110 19       		.uleb128 0x19
 2863 0111 11       		.uleb128 0x11
 2864 0112 01       		.uleb128 0x1
 2865 0113 12       		.uleb128 0x12
 2866 0114 06       		.uleb128 0x6
 2867 0115 40       		.uleb128 0x40
 2868 0116 18       		.uleb128 0x18
 2869 0117 9742     		.uleb128 0x2117
 2870 0119 19       		.uleb128 0x19
 2871 011a 01       		.uleb128 0x1
 2872 011b 13       		.uleb128 0x13
 2873 011c 00       		.byte	0
 2874 011d 00       		.byte	0
 2875 011e 18       		.uleb128 0x18
 2876 011f 898201   		.uleb128 0x4109
 2877 0122 01       		.byte	0x1
 2878 0123 11       		.uleb128 0x11
 2879 0124 01       		.uleb128 0x1
 2880 0125 31       		.uleb128 0x31
 2881 0126 13       		.uleb128 0x13
 2882 0127 01       		.uleb128 0x1
 2883 0128 13       		.uleb128 0x13
 2884 0129 00       		.byte	0
 2885 012a 00       		.byte	0
 2886 012b 19       		.uleb128 0x19
 2887 012c 8A8201   		.uleb128 0x410a
 2888 012f 00       		.byte	0
ARM GAS  /tmp/ccFyFdsa.s 			page 52


 2889 0130 02       		.uleb128 0x2
 2890 0131 18       		.uleb128 0x18
 2891 0132 9142     		.uleb128 0x2111
 2892 0134 18       		.uleb128 0x18
 2893 0135 00       		.byte	0
 2894 0136 00       		.byte	0
 2895 0137 1A       		.uleb128 0x1a
 2896 0138 898201   		.uleb128 0x4109
 2897 013b 00       		.byte	0
 2898 013c 11       		.uleb128 0x11
 2899 013d 01       		.uleb128 0x1
 2900 013e 31       		.uleb128 0x31
 2901 013f 13       		.uleb128 0x13
 2902 0140 00       		.byte	0
 2903 0141 00       		.byte	0
 2904 0142 1B       		.uleb128 0x1b
 2905 0143 898201   		.uleb128 0x4109
 2906 0146 01       		.byte	0x1
 2907 0147 11       		.uleb128 0x11
 2908 0148 01       		.uleb128 0x1
 2909 0149 9542     		.uleb128 0x2115
 2910 014b 19       		.uleb128 0x19
 2911 014c 31       		.uleb128 0x31
 2912 014d 13       		.uleb128 0x13
 2913 014e 00       		.byte	0
 2914 014f 00       		.byte	0
 2915 0150 1C       		.uleb128 0x1c
 2916 0151 2E       		.uleb128 0x2e
 2917 0152 01       		.byte	0x1
 2918 0153 03       		.uleb128 0x3
 2919 0154 0E       		.uleb128 0xe
 2920 0155 3A       		.uleb128 0x3a
 2921 0156 0B       		.uleb128 0xb
 2922 0157 3B       		.uleb128 0x3b
 2923 0158 0B       		.uleb128 0xb
 2924 0159 27       		.uleb128 0x27
 2925 015a 19       		.uleb128 0x19
 2926 015b 49       		.uleb128 0x49
 2927 015c 13       		.uleb128 0x13
 2928 015d 11       		.uleb128 0x11
 2929 015e 01       		.uleb128 0x1
 2930 015f 12       		.uleb128 0x12
 2931 0160 06       		.uleb128 0x6
 2932 0161 40       		.uleb128 0x40
 2933 0162 18       		.uleb128 0x18
 2934 0163 9742     		.uleb128 0x2117
 2935 0165 19       		.uleb128 0x19
 2936 0166 01       		.uleb128 0x1
 2937 0167 13       		.uleb128 0x13
 2938 0168 00       		.byte	0
 2939 0169 00       		.byte	0
 2940 016a 1D       		.uleb128 0x1d
 2941 016b 05       		.uleb128 0x5
 2942 016c 00       		.byte	0
 2943 016d 03       		.uleb128 0x3
 2944 016e 08       		.uleb128 0x8
 2945 016f 3A       		.uleb128 0x3a
ARM GAS  /tmp/ccFyFdsa.s 			page 53


 2946 0170 0B       		.uleb128 0xb
 2947 0171 3B       		.uleb128 0x3b
 2948 0172 0B       		.uleb128 0xb
 2949 0173 49       		.uleb128 0x49
 2950 0174 13       		.uleb128 0x13
 2951 0175 02       		.uleb128 0x2
 2952 0176 17       		.uleb128 0x17
 2953 0177 00       		.byte	0
 2954 0178 00       		.byte	0
 2955 0179 1E       		.uleb128 0x1e
 2956 017a 0B       		.uleb128 0xb
 2957 017b 01       		.byte	0x1
 2958 017c 55       		.uleb128 0x55
 2959 017d 17       		.uleb128 0x17
 2960 017e 01       		.uleb128 0x1
 2961 017f 13       		.uleb128 0x13
 2962 0180 00       		.byte	0
 2963 0181 00       		.byte	0
 2964 0182 1F       		.uleb128 0x1f
 2965 0183 34       		.uleb128 0x34
 2966 0184 00       		.byte	0
 2967 0185 03       		.uleb128 0x3
 2968 0186 08       		.uleb128 0x8
 2969 0187 3A       		.uleb128 0x3a
 2970 0188 0B       		.uleb128 0xb
 2971 0189 3B       		.uleb128 0x3b
 2972 018a 0B       		.uleb128 0xb
 2973 018b 49       		.uleb128 0x49
 2974 018c 13       		.uleb128 0x13
 2975 018d 02       		.uleb128 0x2
 2976 018e 18       		.uleb128 0x18
 2977 018f 00       		.byte	0
 2978 0190 00       		.byte	0
 2979 0191 20       		.uleb128 0x20
 2980 0192 0B       		.uleb128 0xb
 2981 0193 01       		.byte	0x1
 2982 0194 11       		.uleb128 0x11
 2983 0195 01       		.uleb128 0x1
 2984 0196 12       		.uleb128 0x12
 2985 0197 06       		.uleb128 0x6
 2986 0198 01       		.uleb128 0x1
 2987 0199 13       		.uleb128 0x13
 2988 019a 00       		.byte	0
 2989 019b 00       		.byte	0
 2990 019c 21       		.uleb128 0x21
 2991 019d 34       		.uleb128 0x34
 2992 019e 00       		.byte	0
 2993 019f 03       		.uleb128 0x3
 2994 01a0 0E       		.uleb128 0xe
 2995 01a1 3A       		.uleb128 0x3a
 2996 01a2 0B       		.uleb128 0xb
 2997 01a3 3B       		.uleb128 0x3b
 2998 01a4 0B       		.uleb128 0xb
 2999 01a5 49       		.uleb128 0x49
 3000 01a6 13       		.uleb128 0x13
 3001 01a7 02       		.uleb128 0x2
 3002 01a8 18       		.uleb128 0x18
ARM GAS  /tmp/ccFyFdsa.s 			page 54


 3003 01a9 00       		.byte	0
 3004 01aa 00       		.byte	0
 3005 01ab 22       		.uleb128 0x22
 3006 01ac 34       		.uleb128 0x34
 3007 01ad 00       		.byte	0
 3008 01ae 03       		.uleb128 0x3
 3009 01af 08       		.uleb128 0x8
 3010 01b0 3A       		.uleb128 0x3a
 3011 01b1 0B       		.uleb128 0xb
 3012 01b2 3B       		.uleb128 0x3b
 3013 01b3 0B       		.uleb128 0xb
 3014 01b4 49       		.uleb128 0x49
 3015 01b5 13       		.uleb128 0x13
 3016 01b6 02       		.uleb128 0x2
 3017 01b7 17       		.uleb128 0x17
 3018 01b8 00       		.byte	0
 3019 01b9 00       		.byte	0
 3020 01ba 23       		.uleb128 0x23
 3021 01bb 2E       		.uleb128 0x2e
 3022 01bc 01       		.byte	0x1
 3023 01bd 31       		.uleb128 0x31
 3024 01be 13       		.uleb128 0x13
 3025 01bf 11       		.uleb128 0x11
 3026 01c0 01       		.uleb128 0x1
 3027 01c1 12       		.uleb128 0x12
 3028 01c2 06       		.uleb128 0x6
 3029 01c3 40       		.uleb128 0x40
 3030 01c4 18       		.uleb128 0x18
 3031 01c5 9742     		.uleb128 0x2117
 3032 01c7 19       		.uleb128 0x19
 3033 01c8 01       		.uleb128 0x1
 3034 01c9 13       		.uleb128 0x13
 3035 01ca 00       		.byte	0
 3036 01cb 00       		.byte	0
 3037 01cc 24       		.uleb128 0x24
 3038 01cd 34       		.uleb128 0x34
 3039 01ce 00       		.byte	0
 3040 01cf 31       		.uleb128 0x31
 3041 01d0 13       		.uleb128 0x13
 3042 01d1 02       		.uleb128 0x2
 3043 01d2 17       		.uleb128 0x17
 3044 01d3 00       		.byte	0
 3045 01d4 00       		.byte	0
 3046 01d5 25       		.uleb128 0x25
 3047 01d6 898201   		.uleb128 0x4109
 3048 01d9 01       		.byte	0x1
 3049 01da 11       		.uleb128 0x11
 3050 01db 01       		.uleb128 0x1
 3051 01dc 31       		.uleb128 0x31
 3052 01dd 13       		.uleb128 0x13
 3053 01de 00       		.byte	0
 3054 01df 00       		.byte	0
 3055 01e0 26       		.uleb128 0x26
 3056 01e1 34       		.uleb128 0x34
 3057 01e2 00       		.byte	0
 3058 01e3 03       		.uleb128 0x3
 3059 01e4 0E       		.uleb128 0xe
ARM GAS  /tmp/ccFyFdsa.s 			page 55


 3060 01e5 3A       		.uleb128 0x3a
 3061 01e6 0B       		.uleb128 0xb
 3062 01e7 3B       		.uleb128 0x3b
 3063 01e8 0B       		.uleb128 0xb
 3064 01e9 49       		.uleb128 0x49
 3065 01ea 13       		.uleb128 0x13
 3066 01eb 3F       		.uleb128 0x3f
 3067 01ec 19       		.uleb128 0x19
 3068 01ed 3C       		.uleb128 0x3c
 3069 01ee 19       		.uleb128 0x19
 3070 01ef 00       		.byte	0
 3071 01f0 00       		.byte	0
 3072 01f1 27       		.uleb128 0x27
 3073 01f2 01       		.uleb128 0x1
 3074 01f3 01       		.byte	0x1
 3075 01f4 49       		.uleb128 0x49
 3076 01f5 13       		.uleb128 0x13
 3077 01f6 01       		.uleb128 0x1
 3078 01f7 13       		.uleb128 0x13
 3079 01f8 00       		.byte	0
 3080 01f9 00       		.byte	0
 3081 01fa 28       		.uleb128 0x28
 3082 01fb 21       		.uleb128 0x21
 3083 01fc 00       		.byte	0
 3084 01fd 49       		.uleb128 0x49
 3085 01fe 13       		.uleb128 0x13
 3086 01ff 2F       		.uleb128 0x2f
 3087 0200 0B       		.uleb128 0xb
 3088 0201 00       		.byte	0
 3089 0202 00       		.byte	0
 3090 0203 29       		.uleb128 0x29
 3091 0204 21       		.uleb128 0x21
 3092 0205 00       		.byte	0
 3093 0206 00       		.byte	0
 3094 0207 00       		.byte	0
 3095 0208 2A       		.uleb128 0x2a
 3096 0209 34       		.uleb128 0x34
 3097 020a 00       		.byte	0
 3098 020b 03       		.uleb128 0x3
 3099 020c 08       		.uleb128 0x8
 3100 020d 3A       		.uleb128 0x3a
 3101 020e 0B       		.uleb128 0xb
 3102 020f 3B       		.uleb128 0x3b
 3103 0210 0B       		.uleb128 0xb
 3104 0211 49       		.uleb128 0x49
 3105 0212 13       		.uleb128 0x13
 3106 0213 3F       		.uleb128 0x3f
 3107 0214 19       		.uleb128 0x19
 3108 0215 3C       		.uleb128 0x3c
 3109 0216 19       		.uleb128 0x19
 3110 0217 00       		.byte	0
 3111 0218 00       		.byte	0
 3112 0219 2B       		.uleb128 0x2b
 3113 021a 34       		.uleb128 0x34
 3114 021b 00       		.byte	0
 3115 021c 03       		.uleb128 0x3
 3116 021d 0E       		.uleb128 0xe
ARM GAS  /tmp/ccFyFdsa.s 			page 56


 3117 021e 3A       		.uleb128 0x3a
 3118 021f 0B       		.uleb128 0xb
 3119 0220 3B       		.uleb128 0x3b
 3120 0221 0B       		.uleb128 0xb
 3121 0222 49       		.uleb128 0x49
 3122 0223 13       		.uleb128 0x13
 3123 0224 3F       		.uleb128 0x3f
 3124 0225 19       		.uleb128 0x19
 3125 0226 02       		.uleb128 0x2
 3126 0227 18       		.uleb128 0x18
 3127 0228 00       		.byte	0
 3128 0229 00       		.byte	0
 3129 022a 2C       		.uleb128 0x2c
 3130 022b 2E       		.uleb128 0x2e
 3131 022c 01       		.byte	0x1
 3132 022d 3F       		.uleb128 0x3f
 3133 022e 19       		.uleb128 0x19
 3134 022f 03       		.uleb128 0x3
 3135 0230 0E       		.uleb128 0xe
 3136 0231 3A       		.uleb128 0x3a
 3137 0232 0B       		.uleb128 0xb
 3138 0233 3B       		.uleb128 0x3b
 3139 0234 05       		.uleb128 0x5
 3140 0235 27       		.uleb128 0x27
 3141 0236 19       		.uleb128 0x19
 3142 0237 49       		.uleb128 0x49
 3143 0238 13       		.uleb128 0x13
 3144 0239 3C       		.uleb128 0x3c
 3145 023a 19       		.uleb128 0x19
 3146 023b 01       		.uleb128 0x1
 3147 023c 13       		.uleb128 0x13
 3148 023d 00       		.byte	0
 3149 023e 00       		.byte	0
 3150 023f 2D       		.uleb128 0x2d
 3151 0240 2E       		.uleb128 0x2e
 3152 0241 00       		.byte	0
 3153 0242 3F       		.uleb128 0x3f
 3154 0243 19       		.uleb128 0x19
 3155 0244 03       		.uleb128 0x3
 3156 0245 0E       		.uleb128 0xe
 3157 0246 3A       		.uleb128 0x3a
 3158 0247 0B       		.uleb128 0xb
 3159 0248 3B       		.uleb128 0x3b
 3160 0249 0B       		.uleb128 0xb
 3161 024a 27       		.uleb128 0x27
 3162 024b 19       		.uleb128 0x19
 3163 024c 3C       		.uleb128 0x3c
 3164 024d 19       		.uleb128 0x19
 3165 024e 00       		.byte	0
 3166 024f 00       		.byte	0
 3167 0250 2E       		.uleb128 0x2e
 3168 0251 2E       		.uleb128 0x2e
 3169 0252 01       		.byte	0x1
 3170 0253 3F       		.uleb128 0x3f
 3171 0254 19       		.uleb128 0x19
 3172 0255 03       		.uleb128 0x3
 3173 0256 0E       		.uleb128 0xe
ARM GAS  /tmp/ccFyFdsa.s 			page 57


 3174 0257 3A       		.uleb128 0x3a
 3175 0258 0B       		.uleb128 0xb
 3176 0259 3B       		.uleb128 0x3b
 3177 025a 0B       		.uleb128 0xb
 3178 025b 27       		.uleb128 0x27
 3179 025c 19       		.uleb128 0x19
 3180 025d 49       		.uleb128 0x49
 3181 025e 13       		.uleb128 0x13
 3182 025f 3C       		.uleb128 0x3c
 3183 0260 19       		.uleb128 0x19
 3184 0261 01       		.uleb128 0x1
 3185 0262 13       		.uleb128 0x13
 3186 0263 00       		.byte	0
 3187 0264 00       		.byte	0
 3188 0265 2F       		.uleb128 0x2f
 3189 0266 2E       		.uleb128 0x2e
 3190 0267 01       		.byte	0x1
 3191 0268 3F       		.uleb128 0x3f
 3192 0269 19       		.uleb128 0x19
 3193 026a 03       		.uleb128 0x3
 3194 026b 0E       		.uleb128 0xe
 3195 026c 3A       		.uleb128 0x3a
 3196 026d 0B       		.uleb128 0xb
 3197 026e 3B       		.uleb128 0x3b
 3198 026f 0B       		.uleb128 0xb
 3199 0270 27       		.uleb128 0x27
 3200 0271 19       		.uleb128 0x19
 3201 0272 3C       		.uleb128 0x3c
 3202 0273 19       		.uleb128 0x19
 3203 0274 01       		.uleb128 0x1
 3204 0275 13       		.uleb128 0x13
 3205 0276 00       		.byte	0
 3206 0277 00       		.byte	0
 3207 0278 30       		.uleb128 0x30
 3208 0279 2E       		.uleb128 0x2e
 3209 027a 01       		.byte	0x1
 3210 027b 3F       		.uleb128 0x3f
 3211 027c 19       		.uleb128 0x19
 3212 027d 03       		.uleb128 0x3
 3213 027e 0E       		.uleb128 0xe
 3214 027f 3A       		.uleb128 0x3a
 3215 0280 0B       		.uleb128 0xb
 3216 0281 3B       		.uleb128 0x3b
 3217 0282 05       		.uleb128 0x5
 3218 0283 27       		.uleb128 0x27
 3219 0284 19       		.uleb128 0x19
 3220 0285 3C       		.uleb128 0x3c
 3221 0286 19       		.uleb128 0x19
 3222 0287 01       		.uleb128 0x1
 3223 0288 13       		.uleb128 0x13
 3224 0289 00       		.byte	0
 3225 028a 00       		.byte	0
 3226 028b 31       		.uleb128 0x31
 3227 028c 2E       		.uleb128 0x2e
 3228 028d 00       		.byte	0
 3229 028e 3F       		.uleb128 0x3f
 3230 028f 19       		.uleb128 0x19
ARM GAS  /tmp/ccFyFdsa.s 			page 58


 3231 0290 03       		.uleb128 0x3
 3232 0291 0E       		.uleb128 0xe
 3233 0292 3A       		.uleb128 0x3a
 3234 0293 0B       		.uleb128 0xb
 3235 0294 3B       		.uleb128 0x3b
 3236 0295 0B       		.uleb128 0xb
 3237 0296 27       		.uleb128 0x27
 3238 0297 19       		.uleb128 0x19
 3239 0298 49       		.uleb128 0x49
 3240 0299 13       		.uleb128 0x13
 3241 029a 3C       		.uleb128 0x3c
 3242 029b 19       		.uleb128 0x19
 3243 029c 00       		.byte	0
 3244 029d 00       		.byte	0
 3245 029e 00       		.byte	0
 3246              		.section	.debug_loc,"",%progbits
 3247              	.Ldebug_loc0:
 3248              	.LLST0:
 3249 0000 00000000 		.4byte	.LVL7
 3250 0004 04000000 		.4byte	.LVL8
 3251 0008 0100     		.2byte	0x1
 3252 000a 50       		.byte	0x50
 3253 000b 04000000 		.4byte	.LVL8
 3254 000f 0C000000 		.4byte	.LFE7
 3255 0013 0400     		.2byte	0x4
 3256 0015 F3       		.byte	0xf3
 3257 0016 01       		.uleb128 0x1
 3258 0017 50       		.byte	0x50
 3259 0018 9F       		.byte	0x9f
 3260 0019 00000000 		.4byte	0
 3261 001d 00000000 		.4byte	0
 3262              	.LLST1:
 3263 0021 1A000000 		.4byte	.LVL22
 3264 0025 20000000 		.4byte	.LVL23
 3265 0029 0100     		.2byte	0x1
 3266 002b 50       		.byte	0x50
 3267 002c 20000000 		.4byte	.LVL23
 3268 0030 26000000 		.4byte	.LVL25
 3269 0034 0100     		.2byte	0x1
 3270 0036 57       		.byte	0x57
 3271 0037 28000000 		.4byte	.LVL26
 3272 003b 48000000 		.4byte	.LVL28
 3273 003f 0100     		.2byte	0x1
 3274 0041 57       		.byte	0x57
 3275 0042 48000000 		.4byte	.LVL28
 3276 0046 4A000000 		.4byte	.LVL29
 3277 004a 0100     		.2byte	0x1
 3278 004c 50       		.byte	0x50
 3279 004d A8000000 		.4byte	.LVL35
 3280 0051 B6000000 		.4byte	.LVL36
 3281 0055 0100     		.2byte	0x1
 3282 0057 50       		.byte	0x50
 3283 0058 F4000000 		.4byte	.LVL40
 3284 005c F6000000 		.4byte	.LVL41
 3285 0060 0100     		.2byte	0x1
 3286 0062 50       		.byte	0x50
 3287 0063 00000000 		.4byte	0
ARM GAS  /tmp/ccFyFdsa.s 			page 59


 3288 0067 00000000 		.4byte	0
 3289              	.LLST2:
 3290 006b 0A000000 		.4byte	.LVL48
 3291 006f 20000000 		.4byte	.LVL51
 3292 0073 0100     		.2byte	0x1
 3293 0075 54       		.byte	0x54
 3294 0076 22000000 		.4byte	.LVL52
 3295 007a 3E000000 		.4byte	.LVL56
 3296 007e 0100     		.2byte	0x1
 3297 0080 54       		.byte	0x54
 3298 0081 00000000 		.4byte	0
 3299 0085 00000000 		.4byte	0
 3300              	.LLST3:
 3301 0089 3E000000 		.4byte	.LVL56
 3302 008d 5A000000 		.4byte	.LVL59
 3303 0091 0100     		.2byte	0x1
 3304 0093 54       		.byte	0x54
 3305 0094 5E000000 		.4byte	.LVL60
 3306 0098 70000000 		.4byte	.LVL62
 3307 009c 0100     		.2byte	0x1
 3308 009e 55       		.byte	0x55
 3309 009f 70000000 		.4byte	.LVL62
 3310 00a3 73000000 		.4byte	.LVL63-1
 3311 00a7 0100     		.2byte	0x1
 3312 00a9 51       		.byte	0x51
 3313 00aa 00000000 		.4byte	0
 3314 00ae 00000000 		.4byte	0
 3315              		.section	.debug_aranges,"",%progbits
 3316 0000 3C000000 		.4byte	0x3c
 3317 0004 0200     		.2byte	0x2
 3318 0006 00000000 		.4byte	.Ldebug_info0
 3319 000a 04       		.byte	0x4
 3320 000b 00       		.byte	0
 3321 000c 0000     		.2byte	0
 3322 000e 0000     		.2byte	0
 3323 0010 00000000 		.4byte	.LFB8
 3324 0014 C8000000 		.4byte	.LFE8-.LFB8
 3325 0018 00000000 		.4byte	.LFB7
 3326 001c 0C000000 		.4byte	.LFE7-.LFB7
 3327 0020 00000000 		.4byte	.LFB9
 3328 0024 E0000000 		.4byte	.LFE9-.LFB9
 3329 0028 00000000 		.4byte	.LFB10
 3330 002c 54010000 		.4byte	.LFE10-.LFB10
 3331 0030 00000000 		.4byte	.LFB11
 3332 0034 78000000 		.4byte	.LFE11-.LFB11
 3333 0038 00000000 		.4byte	0
 3334 003c 00000000 		.4byte	0
 3335              		.section	.debug_ranges,"",%progbits
 3336              	.Ldebug_ranges0:
 3337 0000 70000000 		.4byte	.LBB2
 3338 0004 72000000 		.4byte	.LBE2
 3339 0008 74000000 		.4byte	.LBB3
 3340 000c 78000000 		.4byte	.LBE3
 3341 0010 00000000 		.4byte	0
 3342 0014 00000000 		.4byte	0
 3343 0018 3C000000 		.4byte	.LBB12
 3344 001c 6C000000 		.4byte	.LBE12
ARM GAS  /tmp/ccFyFdsa.s 			page 60


 3345 0020 70000000 		.4byte	.LBB13
 3346 0024 78000000 		.4byte	.LBE13
 3347 0028 00000000 		.4byte	0
 3348 002c 00000000 		.4byte	0
 3349 0030 00000000 		.4byte	.LFB8
 3350 0034 C8000000 		.4byte	.LFE8
 3351 0038 00000000 		.4byte	.LFB7
 3352 003c 0C000000 		.4byte	.LFE7
 3353 0040 00000000 		.4byte	.LFB9
 3354 0044 E0000000 		.4byte	.LFE9
 3355 0048 00000000 		.4byte	.LFB10
 3356 004c 54010000 		.4byte	.LFE10
 3357 0050 00000000 		.4byte	.LFB11
 3358 0054 78000000 		.4byte	.LFE11
 3359 0058 00000000 		.4byte	0
 3360 005c 00000000 		.4byte	0
 3361              		.section	.debug_line,"",%progbits
 3362              	.Ldebug_line0:
 3363 0000 16020000 		.section	.debug_str,"MS",%progbits,1
 3363      02006D01 
 3363      00000201 
 3363      FB0E0D00 
 3363      01010101 
 3364              	.LASF101:
 3365 0000 74657374 		.ascii	"test_wait_threads\000"
 3365      5F776169 
 3365      745F7468 
 3365      72656164 
 3365      7300
 3366              	.LASF56:
 3367 0012 76746675 		.ascii	"vtfunc_t\000"
 3367      6E635F74 
 3367      00
 3368              	.LASF50:
 3369 001b 54687265 		.ascii	"ThreadsList\000"
 3369      6164734C 
 3369      69737400 
 3370              	.LASF42:
 3371 0027 705F7761 		.ascii	"p_waiting\000"
 3371      6974696E 
 3371      6700
 3372              	.LASF41:
 3373 0031 705F7469 		.ascii	"p_time\000"
 3373      6D6500
 3374              	.LASF51:
 3375 0038 72656761 		.ascii	"regarm_t\000"
 3375      726D5F74 
 3375      00
 3376              	.LASF31:
 3377 0041 705F7072 		.ascii	"p_prio\000"
 3377      696F00
 3378              	.LASF110:
 3379 0048 5F746573 		.ascii	"_test_assert_time_window\000"
 3379      745F6173 
 3379      73657274 
 3379      5F74696D 
 3379      655F7769 
ARM GAS  /tmp/ccFyFdsa.s 			page 61


 3380              	.LASF27:
 3381 0061 73797374 		.ascii	"systime_t\000"
 3381      696D655F 
 3381      7400
 3382              	.LASF74:
 3383 006b 6D5F6F77 		.ascii	"m_owner\000"
 3383      6E657200 
 3384              	.LASF63:
 3385 0073 76745F73 		.ascii	"vt_systime\000"
 3385      79737469 
 3385      6D6500
 3386              	.LASF43:
 3387 007e 705F6D73 		.ascii	"p_msgqueue\000"
 3387      67717565 
 3387      756500
 3388              	.LASF0:
 3389 0089 756E7369 		.ascii	"unsigned int\000"
 3389      676E6564 
 3389      20696E74 
 3389      00
 3390              	.LASF87:
 3391 0096 74686431 		.ascii	"thd1_execute\000"
 3391      5F657865 
 3391      63757465 
 3391      00
 3392              	.LASF7:
 3393 00a3 5F5F696E 		.ascii	"__int32_t\000"
 3393      7433325F 
 3393      7400
 3394              	.LASF78:
 3395 00ad 77746F62 		.ascii	"wtobjp\000"
 3395      6A7000
 3396              	.LASF91:
 3397 00b4 76746C69 		.ascii	"vtlist\000"
 3397      737400
 3398              	.LASF107:
 3399 00bb 5F746573 		.ascii	"_test_assert\000"
 3399      745F6173 
 3399      73657274 
 3399      00
 3400              	.LASF79:
 3401 00c8 65776D61 		.ascii	"ewmask\000"
 3401      736B00
 3402              	.LASF60:
 3403 00cf 76745F74 		.ascii	"vt_time\000"
 3403      696D6500 
 3404              	.LASF16:
 3405 00d7 75696E74 		.ascii	"uint32_t\000"
 3405      33325F74 
 3405      00
 3406              	.LASF26:
 3407 00e0 6576656E 		.ascii	"eventmask_t\000"
 3407      746D6173 
 3407      6B5F7400 
 3408              	.LASF66:
 3409 00ec 725F7072 		.ascii	"r_prio\000"
 3409      696F00
ARM GAS  /tmp/ccFyFdsa.s 			page 62


 3410              	.LASF62:
 3411 00f3 76745F70 		.ascii	"vt_par\000"
 3411      617200
 3412              	.LASF24:
 3413 00fa 74707269 		.ascii	"tprio_t\000"
 3413      6F5F7400 
 3414              	.LASF116:
 3415 0102 74696D65 		.ascii	"time\000"
 3415      00
 3416              	.LASF81:
 3417 0107 7466756E 		.ascii	"tfunc_t\000"
 3417      635F7400 
 3418              	.LASF118:
 3419 010f 74657374 		.ascii	"test_wait_tick\000"
 3419      5F776169 
 3419      745F7469 
 3419      636B00
 3420              	.LASF13:
 3421 011e 6C6F6E67 		.ascii	"long long unsigned int\000"
 3421      206C6F6E 
 3421      6720756E 
 3421      7369676E 
 3421      65642069 
 3422              	.LASF98:
 3423 0135 70617474 		.ascii	"patternthd\000"
 3423      65726E74 
 3423      686400
 3424              	.LASF82:
 3425 0140 74657374 		.ascii	"testcase\000"
 3425      63617365 
 3425      00
 3426              	.LASF33:
 3427 0149 705F6E65 		.ascii	"p_newer\000"
 3427      77657200 
 3428              	.LASF2:
 3429 0151 73697A65 		.ascii	"size_t\000"
 3429      5F7400
 3430              	.LASF76:
 3431 0158 7264796D 		.ascii	"rdymsg\000"
 3431      736700
 3432              	.LASF18:
 3433 015f 626F6F6C 		.ascii	"bool_t\000"
 3433      5F7400
 3434              	.LASF19:
 3435 0166 5F426F6F 		.ascii	"_Bool\000"
 3435      6C00
 3436              	.LASF111:
 3437 016c 63685468 		.ascii	"chThdSleepUntil\000"
 3437      64536C65 
 3437      6570556E 
 3437      74696C00 
 3438              	.LASF12:
 3439 017c 5F5F7569 		.ascii	"__uint64_t\000"
 3439      6E743634 
 3439      5F7400
 3440              	.LASF88:
 3441 0187 74686432 		.ascii	"thd2_execute\000"
ARM GAS  /tmp/ccFyFdsa.s 			page 63


 3441      5F657865 
 3441      63757465 
 3441      00
 3442              	.LASF72:
 3443 0194 4D757465 		.ascii	"Mutex\000"
 3443      7800
 3444              	.LASF35:
 3445 019a 705F6E61 		.ascii	"p_name\000"
 3445      6D6500
 3446              	.LASF90:
 3447 01a1 7072696F 		.ascii	"prio\000"
 3447      00
 3448              	.LASF49:
 3449 01a6 54687265 		.ascii	"ThreadsQueue\000"
 3449      61647351 
 3449      75657565 
 3449      00
 3450              	.LASF80:
 3451 01b3 63686172 		.ascii	"char\000"
 3451      00
 3452              	.LASF68:
 3453 01b8 725F6E65 		.ascii	"r_newer\000"
 3453      77657200 
 3454              	.LASF28:
 3455 01c0 54687265 		.ascii	"Thread\000"
 3455      616400
 3456              	.LASF21:
 3457 01c7 74737461 		.ascii	"tstate_t\000"
 3457      74655F74 
 3457      00
 3458              	.LASF64:
 3459 01d0 56544C69 		.ascii	"VTList\000"
 3459      737400
 3460              	.LASF105:
 3461 01d7 63685468 		.ascii	"chThdResume\000"
 3461      64526573 
 3461      756D6500 
 3462              	.LASF34:
 3463 01e3 705F6F6C 		.ascii	"p_older\000"
 3463      64657200 
 3464              	.LASF104:
 3465 01eb 6462675F 		.ascii	"dbg_check_unlock\000"
 3465      63686563 
 3465      6B5F756E 
 3465      6C6F636B 
 3465      00
 3466              	.LASF37:
 3467 01fc 705F7374 		.ascii	"p_state\000"
 3467      61746500 
 3468              	.LASF36:
 3469 0204 705F7374 		.ascii	"p_stklimit\000"
 3469      6B6C696D 
 3469      697400
 3470              	.LASF14:
 3471 020f 75696E74 		.ascii	"uint8_t\000"
 3471      385F7400 
 3472              	.LASF48:
ARM GAS  /tmp/ccFyFdsa.s 			page 64


 3473 0217 705F6D70 		.ascii	"p_mpool\000"
 3473      6F6F6C00 
 3474              	.LASF46:
 3475 021f 705F6D74 		.ascii	"p_mtxlist\000"
 3475      786C6973 
 3475      7400
 3476              	.LASF86:
 3477 0229 65786563 		.ascii	"execute\000"
 3477      75746500 
 3478              	.LASF112:
 3479 0231 474E5520 		.ascii	"GNU C 4.8.4 20140526 (release) [ARM/embedded-4_8-br"
 3479      4320342E 
 3479      382E3420 
 3479      32303134 
 3479      30353236 
 3480 0264 616E6368 		.ascii	"anch revision 211358] -mcpu=cortex-m4 -mfloat-abi=h"
 3480      20726576 
 3480      6973696F 
 3480      6E203231 
 3480      31333538 
 3481 0297 61726420 		.ascii	"ard -mfpu=fpv4-sp-d16 -mno-thumb-interwork -mthumb "
 3481      2D6D6670 
 3481      753D6670 
 3481      76342D73 
 3481      702D6431 
 3482 02ca 2D676764 		.ascii	"-ggdb -O2 -fomit-frame-pointer -falign-functions=16"
 3482      62202D4F 
 3482      32202D66 
 3482      6F6D6974 
 3482      2D667261 
 3483 02fd 202D6666 		.ascii	" -ffunction-sections -fdata-sections -fno-common -f"
 3483      756E6374 
 3483      696F6E2D 
 3483      73656374 
 3483      696F6E73 
 3484 0330 73696E67 		.ascii	"single-precision-constant\000"
 3484      6C652D70 
 3484      72656369 
 3484      73696F6E 
 3484      2D636F6E 
 3485              	.LASF11:
 3486 034a 6C6F6E67 		.ascii	"long long int\000"
 3486      206C6F6E 
 3486      6720696E 
 3486      7400
 3487              	.LASF65:
 3488 0358 725F7175 		.ascii	"r_queue\000"
 3488      65756500 
 3489              	.LASF25:
 3490 0360 6D73675F 		.ascii	"msg_t\000"
 3490      7400
 3491              	.LASF54:
 3492 0366 636F6E74 		.ascii	"context\000"
 3492      65787400 
 3493              	.LASF102:
 3494 036e 6462675F 		.ascii	"dbg_check_lock\000"
 3494      63686563 
ARM GAS  /tmp/ccFyFdsa.s 			page 65


 3494      6B5F6C6F 
 3494      636B00
 3495              	.LASF85:
 3496 037d 74656172 		.ascii	"teardown\000"
 3496      646F776E 
 3496      00
 3497              	.LASF38:
 3498 0386 705F666C 		.ascii	"p_flags\000"
 3498      61677300 
 3499              	.LASF23:
 3500 038e 74736C69 		.ascii	"tslices_t\000"
 3500      6365735F 
 3500      7400
 3501              	.LASF69:
 3502 0398 725F6F6C 		.ascii	"r_older\000"
 3502      64657200 
 3503              	.LASF106:
 3504 03a0 63685468 		.ascii	"chThdSetPriority\000"
 3504      64536574 
 3504      5072696F 
 3504      72697479 
 3504      00
 3505              	.LASF99:
 3506 03b1 63685468 		.ascii	"chThdCreateStatic\000"
 3506      64437265 
 3506      61746553 
 3506      74617469 
 3506      6300
 3507              	.LASF44:
 3508 03c3 705F6D73 		.ascii	"p_msg\000"
 3508      6700
 3509              	.LASF20:
 3510 03c9 746D6F64 		.ascii	"tmode_t\000"
 3510      655F7400 
 3511              	.LASF53:
 3512 03d1 696E7463 		.ascii	"intctx\000"
 3512      747800
 3513              	.LASF4:
 3514 03d8 756E7369 		.ascii	"unsigned char\000"
 3514      676E6564 
 3514      20636861 
 3514      7200
 3515              	.LASF89:
 3516 03e6 74686433 		.ascii	"thd3_execute\000"
 3516      5F657865 
 3516      63757465 
 3516      00
 3517              	.LASF47:
 3518 03f3 705F7265 		.ascii	"p_realprio\000"
 3518      616C7072 
 3518      696F00
 3519              	.LASF5:
 3520 03fe 73686F72 		.ascii	"short int\000"
 3520      7420696E 
 3520      7400
 3521              	.LASF70:
 3522 0408 725F6375 		.ascii	"r_current\000"
ARM GAS  /tmp/ccFyFdsa.s 			page 66


 3522      7272656E 
 3522      7400
 3523              	.LASF45:
 3524 0412 705F6570 		.ascii	"p_epending\000"
 3524      656E6469 
 3524      6E6700
 3525              	.LASF73:
 3526 041d 6D5F7175 		.ascii	"m_queue\000"
 3526      65756500 
 3527              	.LASF8:
 3528 0425 6C6F6E67 		.ascii	"long int\000"
 3528      20696E74 
 3528      00
 3529              	.LASF29:
 3530 042e 705F6E65 		.ascii	"p_next\000"
 3530      787400
 3531              	.LASF17:
 3532 0435 75696E74 		.ascii	"uint64_t\000"
 3532      36345F74 
 3532      00
 3533              	.LASF32:
 3534 043e 705F6374 		.ascii	"p_ctx\000"
 3534      7800
 3535              	.LASF92:
 3536 0444 726C6973 		.ascii	"rlist\000"
 3536      7400
 3537              	.LASF57:
 3538 044a 56697274 		.ascii	"VirtualTimer\000"
 3538      75616C54 
 3538      696D6572 
 3538      00
 3539              	.LASF3:
 3540 0457 5F5F7569 		.ascii	"__uint8_t\000"
 3540      6E74385F 
 3540      7400
 3541              	.LASF83:
 3542 0461 6E616D65 		.ascii	"name\000"
 3542      00
 3543              	.LASF30:
 3544 0466 705F7072 		.ascii	"p_prev\000"
 3544      657600
 3545              	.LASF55:
 3546 046d 73697A65 		.ascii	"sizetype\000"
 3546      74797065 
 3546      00
 3547              	.LASF22:
 3548 0476 74726566 		.ascii	"trefs_t\000"
 3548      735F7400 
 3549              	.LASF10:
 3550 047e 6C6F6E67 		.ascii	"long unsigned int\000"
 3550      20756E73 
 3550      69676E65 
 3550      6420696E 
 3550      7400
 3551              	.LASF108:
 3552 0490 74657374 		.ascii	"test_emit_token\000"
 3552      5F656D69 
ARM GAS  /tmp/ccFyFdsa.s 			page 67


 3552      745F746F 
 3552      6B656E00 
 3553              	.LASF93:
 3554 04a0 74687265 		.ascii	"threads\000"
 3554      61647300 
 3555              	.LASF100:
 3556 04a8 5F746573 		.ascii	"_test_assert_sequence\000"
 3556      745F6173 
 3556      73657274 
 3556      5F736571 
 3556      75656E63 
 3557              	.LASF15:
 3558 04be 696E7433 		.ascii	"int32_t\000"
 3558      325F7400 
 3559              	.LASF94:
 3560 04c6 74657374 		.ascii	"testthd1\000"
 3560      74686431 
 3560      00
 3561              	.LASF117:
 3562 04cf 74687265 		.ascii	"thread\000"
 3562      616400
 3563              	.LASF97:
 3564 04d6 74657374 		.ascii	"testthd4\000"
 3564      74686434 
 3564      00
 3565              	.LASF103:
 3566 04df 63685468 		.ascii	"chThdCreateI\000"
 3566      64437265 
 3566      61746549 
 3566      00
 3567              	.LASF114:
 3568 04ec 2F686F6D 		.ascii	"/home/makkmarci/devel/ChibiOS_2.6.5/projects/STM32F"
 3568      652F6D61 
 3568      6B6B6D61 
 3568      7263692F 
 3568      64657665 
 3569 051f 345F4368 		.ascii	"4_ChibiOS_uGFX/\000"
 3569      6962694F 
 3569      535F7547 
 3569      46582F00 
 3570              	.LASF84:
 3571 052f 73657475 		.ascii	"setup\000"
 3571      7000
 3572              	.LASF95:
 3573 0535 74657374 		.ascii	"testthd2\000"
 3573      74686432 
 3573      00
 3574              	.LASF96:
 3575 053e 74657374 		.ascii	"testthd3\000"
 3575      74686433 
 3575      00
 3576              	.LASF9:
 3577 0547 5F5F7569 		.ascii	"__uint32_t\000"
 3577      6E743332 
 3577      5F7400
 3578              	.LASF39:
 3579 0552 705F7265 		.ascii	"p_refs\000"
ARM GAS  /tmp/ccFyFdsa.s 			page 68


 3579      667300
 3580              	.LASF71:
 3581 0559 52656164 		.ascii	"ReadyList\000"
 3581      794C6973 
 3581      7400
 3582              	.LASF109:
 3583 0563 63685468 		.ascii	"chThdSleep\000"
 3583      64536C65 
 3583      657000
 3584              	.LASF40:
 3585 056e 705F7072 		.ascii	"p_preempt\000"
 3585      65656D70 
 3585      7400
 3586              	.LASF58:
 3587 0578 76745F6E 		.ascii	"vt_next\000"
 3587      65787400 
 3588              	.LASF75:
 3589 0580 6D5F6E65 		.ascii	"m_next\000"
 3589      787400
 3590              	.LASF113:
 3591 0587 2E2E2F2E 		.ascii	"../../test/testthd.c\000"
 3591      2E2F7465 
 3591      73742F74 
 3591      65737474 
 3591      68642E63 
 3592              	.LASF1:
 3593 059c 7369676E 		.ascii	"signed char\000"
 3593      65642063 
 3593      68617200 
 3594              	.LASF6:
 3595 05a8 73686F72 		.ascii	"short unsigned int\000"
 3595      7420756E 
 3595      7369676E 
 3595      65642069 
 3595      6E7400
 3596              	.LASF67:
 3597 05bb 725F6374 		.ascii	"r_ctx\000"
 3597      7800
 3598              	.LASF52:
 3599 05c1 73746B61 		.ascii	"stkalign_t\000"
 3599      6C69676E 
 3599      5F7400
 3600              	.LASF61:
 3601 05cc 76745F66 		.ascii	"vt_func\000"
 3601      756E6300 
 3602              	.LASF115:
 3603 05d4 74686434 		.ascii	"thd4_execute\000"
 3603      5F657865 
 3603      63757465 
 3603      00
 3604              	.LASF59:
 3605 05e1 76745F70 		.ascii	"vt_prev\000"
 3605      72657600 
 3606              	.LASF77:
 3607 05e9 65786974 		.ascii	"exitcode\000"
 3607      636F6465 
 3607      00
ARM GAS  /tmp/ccFyFdsa.s 			page 69


 3608              		.ident	"GCC: (GNU Tools for ARM Embedded Processors) 4.8.4 20140526 (release) [ARM/embedded-4_8-br
ARM GAS  /tmp/ccFyFdsa.s 			page 70


DEFINED SYMBOLS
                            *ABS*:00000000 testthd.c
     /tmp/ccFyFdsa.s:21     .text.thd1_execute:00000000 $t
     /tmp/ccFyFdsa.s:26     .text.thd1_execute:00000000 thd1_execute
     /tmp/ccFyFdsa.s:136    .text.thd1_execute:000000a0 $d
     /tmp/ccFyFdsa.s:155    .text.thread:00000000 thread
     /tmp/ccFyFdsa.s:150    .text.thread:00000000 $t
     /tmp/ccFyFdsa.s:178    .text.thd2_execute:00000000 $t
     /tmp/ccFyFdsa.s:183    .text.thd2_execute:00000000 thd2_execute
     /tmp/ccFyFdsa.s:317    .text.thd2_execute:000000b8 $d
     /tmp/ccFyFdsa.s:331    .text.thd3_execute:00000000 $t
     /tmp/ccFyFdsa.s:336    .text.thd3_execute:00000000 thd3_execute
     /tmp/ccFyFdsa.s:554    .text.thd3_execute:00000150 $d
     /tmp/ccFyFdsa.s:560    .text.thd4_execute:00000000 $t
     /tmp/ccFyFdsa.s:565    .text.thd4_execute:00000000 thd4_execute
     /tmp/ccFyFdsa.s:659    .text.thd4_execute:00000074 $d
     /tmp/ccFyFdsa.s:710    .rodata.patternthd:00000000 patternthd
     /tmp/ccFyFdsa.s:701    .rodata.testthd4:00000000 testthd4
     /tmp/ccFyFdsa.s:692    .rodata.testthd3:00000000 testthd3
     /tmp/ccFyFdsa.s:683    .rodata.testthd2:00000000 testthd2
     /tmp/ccFyFdsa.s:674    .rodata.testthd1:00000000 testthd1
     /tmp/ccFyFdsa.s:671    .rodata.testthd1:00000000 $d
     /tmp/ccFyFdsa.s:680    .rodata.testthd2:00000000 $d
     /tmp/ccFyFdsa.s:689    .rodata.testthd3:00000000 $d
     /tmp/ccFyFdsa.s:698    .rodata.testthd4:00000000 $d
     /tmp/ccFyFdsa.s:707    .rodata.patternthd:00000000 $d
     /tmp/ccFyFdsa.s:717    .rodata.str1.4:00000000 $d
                     .debug_frame:00000010 $d
     /tmp/ccFyFdsa.s:3608   .text.thd1_execute:000000c8 $t
     /tmp/ccFyFdsa.s:559    .text.thd3_execute:00000154 $t
     /tmp/ccFyFdsa.s:670    .text.thd4_execute:00000078 $t

UNDEFINED SYMBOLS
chThdCreateStatic
test_wait_threads
_test_assert_sequence
rlist
wa
threads
test_emit_token
dbg_check_lock
chThdCreateI
dbg_check_unlock
chThdResume
chThdSetPriority
_test_assert
test_wait_tick
chThdSleep
_test_assert_time_window
chThdSleepUntil
vtlist
