ARM GAS  /tmp/ccFyFdsa.s 			page 1


   1              		.syntax unified
   2              		.cpu cortex-m4
   3              		.eabi_attribute 27, 3
   4              		.eabi_attribute 28, 1
   5              		.fpu fpv4-sp-d16
   6              		.eabi_attribute 20, 1
   7              		.eabi_attribute 21, 1
   8              		.eabi_attribute 23, 3
   9              		.eabi_attribute 24, 1
  10              		.eabi_attribute 25, 1
  11              		.eabi_attribute 26, 1
  12              		.eabi_attribute 30, 2
  13              		.eabi_attribute 34, 1
  14              		.eabi_attribute 18, 4
  15              		.thumb
  16              		.file	"testthd.c"
  17              		.text
  18              	.Ltext0:
  19              		.cfi_sections	.debug_frame
  20              		.section	.text.thd1_execute,"ax",%progbits
  21              		.align	2
  22              		.p2align 4,,15
  23              		.thumb
  24              		.thumb_func
  25              		.type	thd1_execute, %function
  26              	thd1_execute:
  27              	.LFB8:
  28              		.file 1 "../../test/testthd.c"
  29              		.loc 1 66 0
  30              		.cfi_startproc
  31              		@ args = 0, pretend = 0, frame = 0
  32              		@ frame_needed = 0, uses_anonymous_args = 0
  33 0000 F0B5     		push	{r4, r5, r6, r7, lr}
  34              		.cfi_def_cfa_offset 20
  35              		.cfi_offset 4, -20
  36              		.cfi_offset 5, -16
  37              		.cfi_offset 6, -12
  38              		.cfi_offset 7, -8
  39              		.cfi_offset 14, -4
  40              		.loc 1 68 0
  41 0002 274F     		ldr	r7, .L2
  42 0004 274E     		ldr	r6, .L2+4
  43 0006 BB69     		ldr	r3, [r7, #24]
  44 0008 274D     		ldr	r5, .L2+8
  45 000a 9A68     		ldr	r2, [r3, #8]
  46 000c 274B     		ldr	r3, .L2+12
  47 000e 3068     		ldr	r0, [r6]
  48 0010 274C     		ldr	r4, .L2+16
  49              		.loc 1 66 0
  50 0012 83B0     		sub	sp, sp, #12
  51              		.cfi_def_cfa_offset 32
  52              		.loc 1 68 0
  53 0014 053A     		subs	r2, r2, #5
  54 0016 0093     		str	r3, [sp]
  55 0018 4FF4EC71 		mov	r1, #472
  56 001c 2B46     		mov	r3, r5
  57 001e FFF7FEFF 		bl	chThdCreateStatic
ARM GAS  /tmp/ccFyFdsa.s 			page 2


  58              	.LVL0:
  59              		.loc 1 69 0
  60 0022 BB69     		ldr	r3, [r7, #24]
  61 0024 2349     		ldr	r1, .L2+20
  62 0026 9A68     		ldr	r2, [r3, #8]
  63 0028 7368     		ldr	r3, [r6, #4]
  64              		.loc 1 68 0
  65 002a 2060     		str	r0, [r4]
  66              		.loc 1 69 0
  67 002c 0091     		str	r1, [sp]
  68 002e 043A     		subs	r2, r2, #4
  69 0030 1846     		mov	r0, r3
  70 0032 4FF4EC71 		mov	r1, #472
  71 0036 2B46     		mov	r3, r5
  72 0038 FFF7FEFF 		bl	chThdCreateStatic
  73              	.LVL1:
  74              		.loc 1 70 0
  75 003c BA69     		ldr	r2, [r7, #24]
  76 003e B368     		ldr	r3, [r6, #8]
  77 0040 9268     		ldr	r2, [r2, #8]
  78 0042 1D49     		ldr	r1, .L2+24
  79              		.loc 1 69 0
  80 0044 6060     		str	r0, [r4, #4]
  81              		.loc 1 70 0
  82 0046 0091     		str	r1, [sp]
  83 0048 033A     		subs	r2, r2, #3
  84 004a 1846     		mov	r0, r3
  85 004c 4FF4EC71 		mov	r1, #472
  86 0050 2B46     		mov	r3, r5
  87 0052 FFF7FEFF 		bl	chThdCreateStatic
  88              	.LVL2:
  89              		.loc 1 71 0
  90 0056 BA69     		ldr	r2, [r7, #24]
  91 0058 F368     		ldr	r3, [r6, #12]
  92 005a 9268     		ldr	r2, [r2, #8]
  93 005c 1749     		ldr	r1, .L2+28
  94              		.loc 1 70 0
  95 005e A060     		str	r0, [r4, #8]
  96              		.loc 1 71 0
  97 0060 0091     		str	r1, [sp]
  98 0062 023A     		subs	r2, r2, #2
  99 0064 1846     		mov	r0, r3
 100 0066 4FF4EC71 		mov	r1, #472
 101 006a 2B46     		mov	r3, r5
 102 006c FFF7FEFF 		bl	chThdCreateStatic
 103              	.LVL3:
 104              		.loc 1 72 0
 105 0070 BA69     		ldr	r2, [r7, #24]
 106 0072 3369     		ldr	r3, [r6, #16]
 107 0074 9268     		ldr	r2, [r2, #8]
 108 0076 1249     		ldr	r1, .L2+32
 109              		.loc 1 71 0
 110 0078 E060     		str	r0, [r4, #12]
 111              		.loc 1 72 0
 112 007a 013A     		subs	r2, r2, #1
 113 007c 0091     		str	r1, [sp]
 114 007e 1846     		mov	r0, r3
ARM GAS  /tmp/ccFyFdsa.s 			page 3


 115 0080 4FF4EC71 		mov	r1, #472
 116 0084 2B46     		mov	r3, r5
 117 0086 FFF7FEFF 		bl	chThdCreateStatic
 118              	.LVL4:
 119 008a 2061     		str	r0, [r4, #16]
 120              		.loc 1 73 0
 121 008c FFF7FEFF 		bl	test_wait_threads
 122              	.LVL5:
 123              		.loc 1 74 0
 124 0090 0C49     		ldr	r1, .L2+36
 125 0092 0120     		movs	r0, #1
 126              		.loc 1 75 0
 127 0094 03B0     		add	sp, sp, #12
 128              		@ sp needed
 129 0096 BDE8F040 		pop	{r4, r5, r6, r7, lr}
 130              		.loc 1 74 0
 131 009a FFF7FEBF 		b	_test_assert_sequence
 132              	.LVL6:
 133              	.L3:
 134 009e 00BF     		.align	2
 135              	.L2:
 136 00a0 00000000 		.word	rlist
 137 00a4 00000000 		.word	wa
 138 00a8 00000000 		.word	thread
 139 00ac 00000000 		.word	.LC0
 140 00b0 00000000 		.word	threads
 141 00b4 04000000 		.word	.LC1
 142 00b8 08000000 		.word	.LC2
 143 00bc 0C000000 		.word	.LC3
 144 00c0 10000000 		.word	.LC4
 145 00c4 14000000 		.word	.LC5
 146              		.cfi_endproc
 147              	.LFE8:
 148              		.size	thd1_execute, .-thd1_execute
 149              		.section	.text.thread,"ax",%progbits
 150              		.align	2
 151              		.p2align 4,,15
 152              		.thumb
 153              		.thumb_func
 154              		.type	thread, %function
 155              	thread:
 156              	.LFB7:
 157              		.loc 1 60 0
 158              		.cfi_startproc
 159              		@ args = 0, pretend = 0, frame = 0
 160              		@ frame_needed = 0, uses_anonymous_args = 0
 161              	.LVL7:
 162 0000 08B5     		push	{r3, lr}
 163              		.cfi_def_cfa_offset 8
 164              		.cfi_offset 3, -8
 165              		.cfi_offset 14, -4
 166              		.loc 1 62 0
 167 0002 0078     		ldrb	r0, [r0]	@ zero_extendqisi2
 168              	.LVL8:
 169 0004 FFF7FEFF 		bl	test_emit_token
 170              	.LVL9:
 171              		.loc 1 64 0
ARM GAS  /tmp/ccFyFdsa.s 			page 4


 172 0008 0020     		movs	r0, #0
 173 000a 08BD     		pop	{r3, pc}
 174              		.cfi_endproc
 175              	.LFE7:
 176              		.size	thread, .-thread
 177 000c AFF30080 		.section	.text.thd2_execute,"ax",%progbits
 178              		.align	2
 179              		.p2align 4,,15
 180              		.thumb
 181              		.thumb_func
 182              		.type	thd2_execute, %function
 183              	thd2_execute:
 184              	.LFB9:
 185              		.loc 1 94 0
 186              		.cfi_startproc
 187              		@ args = 0, pretend = 0, frame = 0
 188              		@ frame_needed = 0, uses_anonymous_args = 0
 189 0000 F0B5     		push	{r4, r5, r6, r7, lr}
 190              		.cfi_def_cfa_offset 20
 191              		.cfi_offset 4, -20
 192              		.cfi_offset 5, -16
 193              		.cfi_offset 6, -12
 194              		.cfi_offset 7, -8
 195              		.cfi_offset 14, -4
 196              		.loc 1 96 0
 197 0002 2D4F     		ldr	r7, .L6
 198 0004 2D4E     		ldr	r6, .L6+4
 199 0006 BB69     		ldr	r3, [r7, #24]
 200 0008 2D4D     		ldr	r5, .L6+8
 201 000a 9A68     		ldr	r2, [r3, #8]
 202 000c 2D4B     		ldr	r3, .L6+12
 203 000e 7068     		ldr	r0, [r6, #4]
 204 0010 2D4C     		ldr	r4, .L6+16
 205              		.loc 1 94 0
 206 0012 83B0     		sub	sp, sp, #12
 207              		.cfi_def_cfa_offset 32
 208              		.loc 1 96 0
 209 0014 043A     		subs	r2, r2, #4
 210 0016 0093     		str	r3, [sp]
 211 0018 4FF4EC71 		mov	r1, #472
 212 001c 2B46     		mov	r3, r5
 213 001e FFF7FEFF 		bl	chThdCreateStatic
 214              	.LVL10:
 215              		.loc 1 97 0
 216 0022 BB69     		ldr	r3, [r7, #24]
 217 0024 2949     		ldr	r1, .L6+20
 218 0026 9A68     		ldr	r2, [r3, #8]
 219 0028 3368     		ldr	r3, [r6]
 220              		.loc 1 96 0
 221 002a 6060     		str	r0, [r4, #4]
 222              		.loc 1 97 0
 223 002c 0091     		str	r1, [sp]
 224 002e 053A     		subs	r2, r2, #5
 225 0030 1846     		mov	r0, r3
 226 0032 4FF4EC71 		mov	r1, #472
 227 0036 2B46     		mov	r3, r5
 228 0038 FFF7FEFF 		bl	chThdCreateStatic
ARM GAS  /tmp/ccFyFdsa.s 			page 5


 229              	.LVL11:
 230              		.loc 1 98 0
 231 003c BA69     		ldr	r2, [r7, #24]
 232 003e 3369     		ldr	r3, [r6, #16]
 233 0040 9268     		ldr	r2, [r2, #8]
 234 0042 2349     		ldr	r1, .L6+24
 235              		.loc 1 97 0
 236 0044 2060     		str	r0, [r4]
 237              		.loc 1 98 0
 238 0046 0091     		str	r1, [sp]
 239 0048 013A     		subs	r2, r2, #1
 240 004a 1846     		mov	r0, r3
 241 004c 4FF4EC71 		mov	r1, #472
 242 0050 2B46     		mov	r3, r5
 243 0052 FFF7FEFF 		bl	chThdCreateStatic
 244              	.LVL12:
 245              		.loc 1 99 0
 246 0056 BA69     		ldr	r2, [r7, #24]
 247 0058 F368     		ldr	r3, [r6, #12]
 248 005a 9268     		ldr	r2, [r2, #8]
 249 005c 1D49     		ldr	r1, .L6+28
 250              		.loc 1 98 0
 251 005e 2061     		str	r0, [r4, #16]
 252              		.loc 1 99 0
 253 0060 0091     		str	r1, [sp]
 254 0062 023A     		subs	r2, r2, #2
 255 0064 1846     		mov	r0, r3
 256 0066 4FF4EC71 		mov	r1, #472
 257 006a 2B46     		mov	r3, r5
 258 006c FFF7FEFF 		bl	chThdCreateStatic
 259              	.LVL13:
 260              	.LBB2:
 261              		.loc 1 101 0
 262 0070 2023     		movs	r3, #32
 263              	.LBE2:
 264              		.loc 1 99 0
 265 0072 E060     		str	r0, [r4, #12]
 266              	.LBB3:
 267              		.loc 1 101 0
 268              	@ 101 "../../test/testthd.c" 1
 269 0074 83F31188 		msr     BASEPRI, r3
 270              	@ 0 "" 2
 271              		.thumb
 272              	.LBE3:
 273 0078 FFF7FEFF 		bl	dbg_check_lock
 274              	.LVL14:
 275              		.loc 1 102 0
 276 007c BB69     		ldr	r3, [r7, #24]
 277 007e B068     		ldr	r0, [r6, #8]
 278 0080 9A68     		ldr	r2, [r3, #8]
 279 0082 154B     		ldr	r3, .L6+32
 280 0084 0093     		str	r3, [sp]
 281 0086 033A     		subs	r2, r2, #3
 282 0088 2B46     		mov	r3, r5
 283 008a 4FF4EC71 		mov	r1, #472
 284 008e FFF7FEFF 		bl	chThdCreateI
 285              	.LVL15:
ARM GAS  /tmp/ccFyFdsa.s 			page 6


 286 0092 A060     		str	r0, [r4, #8]
 287              		.loc 1 103 0
 288 0094 FFF7FEFF 		bl	dbg_check_unlock
 289              	.LVL16:
 290              	.LBB4:
 291 0098 0023     		movs	r3, #0
 292              	@ 103 "../../test/testthd.c" 1
 293 009a 83F31188 		msr     BASEPRI, r3
 294              	@ 0 "" 2
 295              		.thumb
 296              	.LBE4:
 297              		.loc 1 104 0
 298 009e A068     		ldr	r0, [r4, #8]
 299 00a0 FFF7FEFF 		bl	chThdResume
 300              	.LVL17:
 301              		.loc 1 105 0
 302 00a4 FFF7FEFF 		bl	test_wait_threads
 303              	.LVL18:
 304              		.loc 1 106 0
 305 00a8 0C49     		ldr	r1, .L6+36
 306 00aa 0120     		movs	r0, #1
 307              		.loc 1 107 0
 308 00ac 03B0     		add	sp, sp, #12
 309              		@ sp needed
 310 00ae BDE8F040 		pop	{r4, r5, r6, r7, lr}
 311              		.loc 1 106 0
 312 00b2 FFF7FEBF 		b	_test_assert_sequence
 313              	.LVL19:
 314              	.L7:
 315 00b6 00BF     		.align	2
 316              	.L6:
 317 00b8 00000000 		.word	rlist
 318 00bc 00000000 		.word	wa
 319 00c0 00000000 		.word	thread
 320 00c4 04000000 		.word	.LC1
 321 00c8 00000000 		.word	threads
 322 00cc 00000000 		.word	.LC0
 323 00d0 10000000 		.word	.LC4
 324 00d4 0C000000 		.word	.LC3
 325 00d8 08000000 		.word	.LC2
 326 00dc 14000000 		.word	.LC5
 327              		.cfi_endproc
 328              	.LFE9:
 329              		.size	thd2_execute, .-thd2_execute
 330              		.section	.text.thd3_execute,"ax",%progbits
 331              		.align	2
 332              		.p2align 4,,15
 333              		.thumb
 334              		.thumb_func
 335              		.type	thd3_execute, %function
 336              	thd3_execute:
 337              	.LFB10:
 338              		.loc 1 126 0
 339              		.cfi_startproc
 340              		@ args = 0, pretend = 0, frame = 0
 341              		@ frame_needed = 0, uses_anonymous_args = 0
 342 0000 F8B5     		push	{r3, r4, r5, r6, r7, lr}
ARM GAS  /tmp/ccFyFdsa.s 			page 7


 343              		.cfi_def_cfa_offset 24
 344              		.cfi_offset 3, -24
 345              		.cfi_offset 4, -20
 346              		.cfi_offset 5, -16
 347              		.cfi_offset 6, -12
 348              		.cfi_offset 7, -8
 349              		.cfi_offset 14, -4
 350              		.loc 1 129 0
 351 0002 534E     		ldr	r6, .L14
 352 0004 B369     		ldr	r3, [r6, #24]
 353 0006 9C68     		ldr	r4, [r3, #8]
 354              	.LVL20:
 355              		.loc 1 130 0
 356 0008 651C     		adds	r5, r4, #1
 357 000a 2846     		mov	r0, r5
 358 000c FFF7FEFF 		bl	chThdSetPriority
 359              	.LVL21:
 360              		.loc 1 131 0
 361 0010 B0EB040C 		subs	ip, r0, r4
 362 0014 DCF10001 		rsbs	r1, ip, #0
 363              		.loc 1 130 0
 364 0018 0746     		mov	r7, r0
 365              	.LVL22:
 366              		.loc 1 131 0
 367 001a 51EB0C01 		adcs	r1, r1, ip
 368 001e 0120     		movs	r0, #1
 369              	.LVL23:
 370 0020 FFF7FEFF 		bl	_test_assert
 371              	.LVL24:
 372 0024 00B1     		cbz	r0, .L13
 373              	.LVL25:
 374              	.L8:
 375 0026 F8BD     		pop	{r3, r4, r5, r6, r7, pc}
 376              	.LVL26:
 377              	.L13:
 378              		.loc 1 133 0
 379 0028 B369     		ldr	r3, [r6, #24]
 380 002a 9968     		ldr	r1, [r3, #8]
 381 002c B5EB010E 		subs	lr, r5, r1
 382 0030 DEF10001 		rsbs	r1, lr, #0
 383 0034 51EB0E01 		adcs	r1, r1, lr
 384 0038 0220     		movs	r0, #2
 385 003a FFF7FEFF 		bl	_test_assert
 386              	.LVL27:
 387 003e 0028     		cmp	r0, #0
 388 0040 F1D1     		bne	.L8
 389              		.loc 1 135 0
 390 0042 3846     		mov	r0, r7
 391 0044 FFF7FEFF 		bl	chThdSetPriority
 392              	.LVL28:
 393              		.loc 1 136 0
 394 0048 281A     		subs	r0, r5, r0
 395              	.LVL29:
 396 004a 4142     		rsbs	r1, r0, #0
 397 004c 4141     		adcs	r1, r1, r0
 398 004e 0320     		movs	r0, #3
 399 0050 FFF7FEFF 		bl	_test_assert
ARM GAS  /tmp/ccFyFdsa.s 			page 8


 400              	.LVL30:
 401 0054 0028     		cmp	r0, #0
 402 0056 E6D1     		bne	.L8
 403              		.loc 1 138 0
 404 0058 B369     		ldr	r3, [r6, #24]
 405 005a 9968     		ldr	r1, [r3, #8]
 406 005c 0A1B     		subs	r2, r1, r4
 407 005e 5142     		rsbs	r1, r2, #0
 408 0060 4FF00400 		mov	r0, #4
 409 0064 5141     		adcs	r1, r1, r2
 410 0066 FFF7FEFF 		bl	_test_assert
 411              	.LVL31:
 412 006a 0746     		mov	r7, r0
 413 006c 0028     		cmp	r0, #0
 414 006e DAD1     		bne	.L8
 415              	.LBB5:
 416              		.loc 1 143 0
 417 0070 2023     		movs	r3, #32
 418              	@ 143 "../../test/testthd.c" 1
 419 0072 83F31188 		msr     BASEPRI, r3
 420              	@ 0 "" 2
 421              		.thumb
 422              	.LBE5:
 423 0076 FFF7FEFF 		bl	dbg_check_lock
 424              	.LVL32:
 425              		.loc 1 144 0
 426 007a B369     		ldr	r3, [r6, #24]
 427 007c 9A68     		ldr	r2, [r3, #8]
 428 007e 0232     		adds	r2, r2, #2
 429 0080 9A60     		str	r2, [r3, #8]
 430              		.loc 1 145 0
 431 0082 FFF7FEFF 		bl	dbg_check_unlock
 432              	.LVL33:
 433              	.LBB6:
 434 0086 3B46     		mov	r3, r7
 435              	@ 145 "../../test/testthd.c" 1
 436 0088 83F31188 		msr     BASEPRI, r3
 437              	@ 0 "" 2
 438              		.thumb
 439              	.LBE6:
 440              		.loc 1 146 0
 441 008c B369     		ldr	r3, [r6, #24]
 442 008e 9968     		ldr	r1, [r3, #8]
 443 0090 A71C     		adds	r7, r4, #2
 444 0092 CB1B     		subs	r3, r1, r7
 445 0094 5942     		rsbs	r1, r3, #0
 446 0096 5941     		adcs	r1, r1, r3
 447 0098 0520     		movs	r0, #5
 448 009a FFF7FEFF 		bl	_test_assert
 449              	.LVL34:
 450 009e 0028     		cmp	r0, #0
 451 00a0 C1D1     		bne	.L8
 452              		.loc 1 150 0
 453 00a2 2846     		mov	r0, r5
 454 00a4 FFF7FEFF 		bl	chThdSetPriority
 455              	.LVL35:
 456              		.loc 1 151 0
ARM GAS  /tmp/ccFyFdsa.s 			page 9


 457 00a8 B0EB040C 		subs	ip, r0, r4
 458 00ac DCF10001 		rsbs	r1, ip, #0
 459 00b0 51EB0C01 		adcs	r1, r1, ip
 460 00b4 0620     		movs	r0, #6
 461              	.LVL36:
 462 00b6 FFF7FEFF 		bl	_test_assert
 463              	.LVL37:
 464 00ba 0028     		cmp	r0, #0
 465 00bc B3D1     		bne	.L8
 466              		.loc 1 153 0
 467 00be B369     		ldr	r3, [r6, #24]
 468 00c0 9968     		ldr	r1, [r3, #8]
 469 00c2 B7EB010E 		subs	lr, r7, r1
 470 00c6 DEF10001 		rsbs	r1, lr, #0
 471 00ca 51EB0E01 		adcs	r1, r1, lr
 472 00ce 0720     		movs	r0, #7
 473 00d0 FFF7FEFF 		bl	_test_assert
 474              	.LVL38:
 475 00d4 0028     		cmp	r0, #0
 476 00d6 A6D1     		bne	.L8
 477              		.loc 1 155 0
 478 00d8 B369     		ldr	r3, [r6, #24]
 479 00da 596C     		ldr	r1, [r3, #68]
 480 00dc 6F1A     		subs	r7, r5, r1
 481 00de 7942     		rsbs	r1, r7, #0
 482 00e0 7941     		adcs	r1, r1, r7
 483 00e2 0820     		movs	r0, #8
 484 00e4 FFF7FEFF 		bl	_test_assert
 485              	.LVL39:
 486 00e8 0028     		cmp	r0, #0
 487 00ea 9CD1     		bne	.L8
 488              		.loc 1 159 0
 489 00ec E71C     		adds	r7, r4, #3
 490 00ee 3846     		mov	r0, r7
 491 00f0 FFF7FEFF 		bl	chThdSetPriority
 492              	.LVL40:
 493              		.loc 1 160 0
 494 00f4 281A     		subs	r0, r5, r0
 495              	.LVL41:
 496 00f6 4142     		rsbs	r1, r0, #0
 497 00f8 4141     		adcs	r1, r1, r0
 498 00fa 0920     		movs	r0, #9
 499 00fc FFF7FEFF 		bl	_test_assert
 500              	.LVL42:
 501 0100 0028     		cmp	r0, #0
 502 0102 90D1     		bne	.L8
 503              		.loc 1 162 0
 504 0104 B369     		ldr	r3, [r6, #24]
 505 0106 9968     		ldr	r1, [r3, #8]
 506 0108 7A1A     		subs	r2, r7, r1
 507 010a 5142     		rsbs	r1, r2, #0
 508 010c 5141     		adcs	r1, r1, r2
 509 010e 0A20     		movs	r0, #10
 510 0110 FFF7FEFF 		bl	_test_assert
 511              	.LVL43:
 512 0114 0028     		cmp	r0, #0
 513 0116 86D1     		bne	.L8
ARM GAS  /tmp/ccFyFdsa.s 			page 10


 514              		.loc 1 164 0
 515 0118 B369     		ldr	r3, [r6, #24]
 516 011a 596C     		ldr	r1, [r3, #68]
 517 011c 7B1A     		subs	r3, r7, r1
 518 011e 5942     		rsbs	r1, r3, #0
 519 0120 4FF00B00 		mov	r0, #11
 520 0124 5941     		adcs	r1, r1, r3
 521 0126 FFF7FEFF 		bl	_test_assert
 522              	.LVL44:
 523 012a 0546     		mov	r5, r0
 524 012c 0028     		cmp	r0, #0
 525 012e 7FF47AAF 		bne	.L8
 526              	.LBB7:
 527              		.loc 1 167 0
 528 0132 2023     		movs	r3, #32
 529              	@ 167 "../../test/testthd.c" 1
 530 0134 83F31188 		msr     BASEPRI, r3
 531              	@ 0 "" 2
 532              		.thumb
 533              	.LBE7:
 534 0138 FFF7FEFF 		bl	dbg_check_lock
 535              	.LVL45:
 536              		.loc 1 168 0
 537 013c B369     		ldr	r3, [r6, #24]
 538 013e 9C60     		str	r4, [r3, #8]
 539              		.loc 1 169 0
 540 0140 5C64     		str	r4, [r3, #68]
 541              		.loc 1 170 0
 542 0142 FFF7FEFF 		bl	dbg_check_unlock
 543              	.LVL46:
 544              	.LBB8:
 545 0146 2B46     		mov	r3, r5
 546              	@ 170 "../../test/testthd.c" 1
 547 0148 83F31188 		msr     BASEPRI, r3
 548              	@ 0 "" 2
 549              		.thumb
 550 014c 6BE7     		b	.L8
 551              	.L15:
 552 014e 00BF     		.align	2
 553              	.L14:
 554 0150 00000000 		.word	rlist
 555              	.LBE8:
 556              		.cfi_endproc
 557              	.LFE10:
 558              		.size	thd3_execute, .-thd3_execute
 559 0154 AFF30080 		.section	.text.thd4_execute,"ax",%progbits
 559      AFF30080 
 559      AFF30080 
 560              		.align	2
 561              		.p2align 4,,15
 562              		.thumb
 563              		.thumb_func
 564              		.type	thd4_execute, %function
 565              	thd4_execute:
 566              	.LFB11:
 567              		.loc 1 189 0
 568              		.cfi_startproc
ARM GAS  /tmp/ccFyFdsa.s 			page 11


 569              		@ args = 0, pretend = 0, frame = 0
 570              		@ frame_needed = 0, uses_anonymous_args = 0
 571 0000 38B5     		push	{r3, r4, r5, lr}
 572              		.cfi_def_cfa_offset 16
 573              		.cfi_offset 3, -16
 574              		.cfi_offset 4, -12
 575              		.cfi_offset 5, -8
 576              		.cfi_offset 14, -4
 577              		.loc 1 195 0
 578 0002 1C4D     		ldr	r5, .L21
 579              		.loc 1 192 0
 580 0004 FFF7FEFF 		bl	test_wait_tick
 581              	.LVL47:
 582              		.loc 1 195 0
 583 0008 EC68     		ldr	r4, [r5, #12]
 584              	.LVL48:
 585              		.loc 1 196 0
 586 000a 6420     		movs	r0, #100
 587 000c FFF7FEFF 		bl	chThdSleep
 588              	.LVL49:
 589              		.loc 1 197 0
 590 0010 04F16401 		add	r1, r4, #100
 591 0014 04F16502 		add	r2, r4, #101
 592 0018 0120     		movs	r0, #1
 593 001a FFF7FEFF 		bl	_test_assert_time_window
 594              	.LVL50:
 595 001e 00B1     		cbz	r0, .L20
 596              	.LVL51:
 597              	.L16:
 598 0020 38BD     		pop	{r3, r4, r5, pc}
 599              	.LVL52:
 600              	.L20:
 601              		.loc 1 200 0
 602 0022 EC68     		ldr	r4, [r5, #12]
 603              	.LVL53:
 604              		.loc 1 201 0
 605 0024 6420     		movs	r0, #100
 606 0026 FFF7FEFF 		bl	chThdSleep
 607              	.LVL54:
 608              		.loc 1 202 0
 609 002a 04F16401 		add	r1, r4, #100
 610 002e 04F16502 		add	r2, r4, #101
 611 0032 0220     		movs	r0, #2
 612 0034 FFF7FEFF 		bl	_test_assert_time_window
 613              	.LVL55:
 614 0038 0028     		cmp	r0, #0
 615 003a F1D1     		bne	.L16
 616              	.LBB11:
 617              	.LBB12:
 618              		.loc 1 205 0
 619 003c EC68     		ldr	r4, [r5, #12]
 620              	.LVL56:
 621              		.loc 1 206 0
 622 003e 4FF47A70 		mov	r0, #1000
 623 0042 FFF7FEFF 		bl	chThdSleep
 624              	.LVL57:
 625              		.loc 1 207 0
ARM GAS  /tmp/ccFyFdsa.s 			page 12


 626 0046 04F57A71 		add	r1, r4, #1000
 627 004a 04F2E932 		addw	r2, r4, #1001
 628 004e 0320     		movs	r0, #3
 629 0050 FFF7FEFF 		bl	_test_assert_time_window
 630              	.LVL58:
 631 0054 0028     		cmp	r0, #0
 632 0056 E3D1     		bne	.L16
 633              		.loc 1 210 0
 634 0058 EC68     		ldr	r4, [r5, #12]
 635              	.LVL59:
 636 005a 04F16405 		add	r5, r4, #100
 637              	.LVL60:
 638              		.loc 1 211 0
 639 005e 2846     		mov	r0, r5
 640 0060 FFF7FEFF 		bl	chThdSleepUntil
 641              	.LVL61:
 642              		.loc 1 212 0
 643 0064 2946     		mov	r1, r5
 644 0066 04F16502 		add	r2, r4, #101
 645 006a 0420     		movs	r0, #4
 646              	.LBE12:
 647              	.LBE11:
 648              		.loc 1 213 0
 649 006c BDE83840 		pop	{r3, r4, r5, lr}
 650              	.LVL62:
 651              	.LBB14:
 652              	.LBB13:
 653              		.loc 1 212 0
 654 0070 FFF7FEBF 		b	_test_assert_time_window
 655              	.LVL63:
 656              	.L22:
 657              		.align	2
 658              	.L21:
 659 0074 00000000 		.word	vtlist
 660              	.LBE13:
 661              	.LBE14:
 662              		.cfi_endproc
 663              	.LFE11:
 664              		.size	thd4_execute, .-thd4_execute
 665              		.global	patternthd
 666              		.global	testthd4
 667              		.global	testthd3
 668              		.global	testthd2
 669              		.global	testthd1
 670 0078 AFF30080 		.section	.rodata.testthd1,"a",%progbits
 670      AFF30080 
 671              		.align	2
 672              		.type	testthd1, %object
 673              		.size	testthd1, 16
 674              	testthd1:
 675 0000 64000000 		.word	.LC9
 676 0004 00000000 		.word	0
 677 0008 00000000 		.word	0
 678 000c 00000000 		.word	thd1_execute
 679              		.section	.rodata.testthd2,"a",%progbits
 680              		.align	2
 681              		.type	testthd2, %object
ARM GAS  /tmp/ccFyFdsa.s 			page 13


 682              		.size	testthd2, 16
 683              	testthd2:
 684 0000 48000000 		.word	.LC8
 685 0004 00000000 		.word	0
 686 0008 00000000 		.word	0
 687 000c 00000000 		.word	thd2_execute
 688              		.section	.rodata.testthd3,"a",%progbits
 689              		.align	2
 690              		.type	testthd3, %object
 691              		.size	testthd3, 16
 692              	testthd3:
 693 0000 2C000000 		.word	.LC7
 694 0004 00000000 		.word	0
 695 0008 00000000 		.word	0
 696 000c 00000000 		.word	thd3_execute
 697              		.section	.rodata.testthd4,"a",%progbits
 698              		.align	2
 699              		.type	testthd4, %object
 700              		.size	testthd4, 16
 701              	testthd4:
 702 0000 1C000000 		.word	.LC6
 703 0004 00000000 		.word	0
 704 0008 00000000 		.word	0
 705 000c 00000000 		.word	thd4_execute
 706              		.section	.rodata.patternthd,"a",%progbits
 707              		.align	2
 708              		.type	patternthd, %object
 709              		.size	patternthd, 20
 710              	patternthd:
 711 0000 00000000 		.word	testthd1
 712 0004 00000000 		.word	testthd2
 713 0008 00000000 		.word	testthd3
 714 000c 00000000 		.word	testthd4
 715 0010 00000000 		.word	0
 716              		.section	.rodata.str1.4,"aMS",%progbits,1
 717              		.align	2
 718              	.LC0:
 719 0000 4500     		.ascii	"E\000"
 720 0002 0000     		.space	2
 721              	.LC1:
 722 0004 4400     		.ascii	"D\000"
 723 0006 0000     		.space	2
 724              	.LC2:
 725 0008 4300     		.ascii	"C\000"
 726 000a 0000     		.space	2
 727              	.LC3:
 728 000c 4200     		.ascii	"B\000"
 729 000e 0000     		.space	2
 730              	.LC4:
 731 0010 4100     		.ascii	"A\000"
 732 0012 0000     		.space	2
 733              	.LC5:
 734 0014 41424344 		.ascii	"ABCDE\000"
 734      4500
 735 001a 0000     		.space	2
 736              	.LC6:
 737 001c 54687265 		.ascii	"Threads, delays\000"
ARM GAS  /tmp/ccFyFdsa.s 			page 14


 737      6164732C 
 737      2064656C 
 737      61797300 
 738              	.LC7:
 739 002c 54687265 		.ascii	"Threads, priority change\000"
 739      6164732C 
 739      20707269 
 739      6F726974 
 739      79206368 
 740 0045 000000   		.space	3
 741              	.LC8:
 742 0048 54687265 		.ascii	"Threads, enqueuing test #2\000"
 742      6164732C 
 742      20656E71 
 742      75657569 
 742      6E672074 
 743 0063 00       		.space	1
 744              	.LC9:
 745 0064 54687265 		.ascii	"Threads, enqueuing test #1\000"
 745      6164732C 
 745      20656E71 
 745      75657569 
 745      6E672074 
 746 007f 00       		.text
 747              	.Letext0:
 748              		.file 2 "/opt/ARM/lib/gcc/arm-none-eabi/4.8.4/include/stddef.h"
 749              		.file 3 "/opt/ARM/arm-none-eabi/include/machine/_default_types.h"
 750              		.file 4 "/opt/ARM/arm-none-eabi/include/stdint.h"
 751              		.file 5 "../../os/ports/GCC/ARMCMx/chtypes.h"
 752              		.file 6 "../../os/kernel/include/chlists.h"
 753              		.file 7 "../../os/kernel/include/chthreads.h"
 754              		.file 8 "../../os/ports/GCC/ARMCMx/chcore_v7m.h"
 755              		.file 9 "../../os/kernel/include/chvt.h"
 756              		.file 10 "../../os/kernel/include/chschd.h"
 757              		.file 11 "../../os/kernel/include/chmtx.h"
 758              		.file 12 "../../test/test.h"
 759              		.file 13 "../../os/kernel/include/chdebug.h"