ARM GAS  /tmp/cc0psXLf.s 			page 1


   1              		.syntax unified
   2              		.cpu cortex-m4
   3              		.eabi_attribute 27, 3
   4              		.eabi_attribute 28, 1
   5              		.fpu fpv4-sp-d16
   6              		.eabi_attribute 20, 1
   7              		.eabi_attribute 21, 1
   8              		.eabi_attribute 23, 3
   9              		.eabi_attribute 24, 1
  10              		.eabi_attribute 25, 1
  11              		.eabi_attribute 26, 1
  12              		.eabi_attribute 30, 2
  13              		.eabi_attribute 34, 1
  14              		.eabi_attribute 18, 4
  15              		.thumb
  16              		.file	"testheap.c"
  17              		.text
  18              	.Ltext0:
  19              		.cfi_sections	.debug_frame
  20              		.section	.text.heap1_execute,"ax",%progbits
  21              		.align	2
  22              		.p2align 4,,15
  23              		.thumb
  24              		.thumb_func
  25              		.type	heap1_execute, %function
  26              	heap1_execute:
  27              	.LFB8:
  28              		.file 1 "../../test/testheap.c"
  29              		.loc 1 69 0
  30              		.cfi_startproc
  31              		@ args = 0, pretend = 0, frame = 8
  32              		@ frame_needed = 0, uses_anonymous_args = 0
  33 0000 70B5     		push	{r4, r5, r6, lr}
  34              		.cfi_def_cfa_offset 16
  35              		.cfi_offset 4, -16
  36              		.cfi_offset 5, -12
  37              		.cfi_offset 6, -8
  38              		.cfi_offset 14, -4
  39 0002 82B0     		sub	sp, sp, #8
  40              		.cfi_def_cfa_offset 24
  41              		.loc 1 74 0
  42 0004 FFF7FEFF 		bl	chCoreStatus
  43              	.LVL0:
  44              		.loc 1 80 0
  45 0008 01A9     		add	r1, sp, #4
  46 000a 0020     		movs	r0, #0
  47 000c FFF7FEFF 		bl	chHeapStatus
  48              	.LVL1:
  49              		.loc 1 81 0
  50 0010 1021     		movs	r1, #16
  51 0012 0020     		movs	r0, #0
  52 0014 FFF7FEFF 		bl	chHeapAlloc
  53              	.LVL2:
  54              		.loc 1 82 0
  55 0018 011C     		adds	r1, r0, #0
  56 001a 0446     		mov	r4, r0
  57 001c 18BF     		it	ne
ARM GAS  /tmp/cc0psXLf.s 			page 2


  58 001e 0121     		movne	r1, #1
  59 0020 0120     		movs	r0, #1
  60              	.LVL3:
  61 0022 FFF7FEFF 		bl	_test_assert
  62              	.LVL4:
  63 0026 0546     		mov	r5, r0
  64 0028 08B1     		cbz	r0, .L7
  65              	.LVL5:
  66              	.L1:
  67              		.loc 1 140 0
  68 002a 02B0     		add	sp, sp, #8
  69              		@ sp needed
  70 002c 70BD     		pop	{r4, r5, r6, pc}
  71              	.LVL6:
  72              	.L7:
  73              		.loc 1 83 0
  74 002e 2046     		mov	r0, r4
  75 0030 FFF7FEFF 		bl	chHeapFree
  76              	.LVL7:
  77              		.loc 1 84 0
  78 0034 6FF0FF01 		mvn	r1, #255
  79 0038 2846     		mov	r0, r5
  80 003a FFF7FEFF 		bl	chHeapAlloc
  81              	.LVL8:
  82              		.loc 1 85 0
  83 003e D0F10101 		rsbs	r1, r0, #1
  84 0042 38BF     		it	cc
  85 0044 0021     		movcc	r1, #0
  86 0046 0220     		movs	r0, #2
  87              	.LVL9:
  88 0048 FFF7FEFF 		bl	_test_assert
  89              	.LVL10:
  90 004c 0028     		cmp	r0, #0
  91 004e ECD1     		bne	.L1
  92              		.loc 1 88 0
  93 0050 01A9     		add	r1, sp, #4
  94 0052 7B48     		ldr	r0, .L8
  95 0054 FFF7FEFF 		bl	chHeapStatus
  96              	.LVL11:
  97              		.loc 1 91 0
  98 0058 1021     		movs	r1, #16
  99 005a 7948     		ldr	r0, .L8
 100 005c FFF7FEFF 		bl	chHeapAlloc
 101              	.LVL12:
 102              		.loc 1 92 0
 103 0060 1021     		movs	r1, #16
 104              		.loc 1 91 0
 105 0062 0546     		mov	r5, r0
 106              	.LVL13:
 107              		.loc 1 92 0
 108 0064 7648     		ldr	r0, .L8
 109              	.LVL14:
 110 0066 FFF7FEFF 		bl	chHeapAlloc
 111              	.LVL15:
 112              		.loc 1 93 0
 113 006a 1021     		movs	r1, #16
 114              		.loc 1 92 0
ARM GAS  /tmp/cc0psXLf.s 			page 3


 115 006c 0446     		mov	r4, r0
 116              	.LVL16:
 117              		.loc 1 93 0
 118 006e 7448     		ldr	r0, .L8
 119              	.LVL17:
 120 0070 FFF7FEFF 		bl	chHeapAlloc
 121              	.LVL18:
 122 0074 0646     		mov	r6, r0
 123              	.LVL19:
 124              		.loc 1 94 0
 125 0076 2846     		mov	r0, r5
 126              	.LVL20:
 127 0078 FFF7FEFF 		bl	chHeapFree
 128              	.LVL21:
 129              		.loc 1 95 0
 130 007c 2046     		mov	r0, r4
 131 007e FFF7FEFF 		bl	chHeapFree
 132              	.LVL22:
 133              		.loc 1 96 0
 134 0082 3046     		mov	r0, r6
 135 0084 FFF7FEFF 		bl	chHeapFree
 136              	.LVL23:
 137              		.loc 1 97 0
 138 0088 6946     		mov	r1, sp
 139 008a 6D48     		ldr	r0, .L8
 140 008c FFF7FEFF 		bl	chHeapStatus
 141              	.LVL24:
 142 0090 421E     		subs	r2, r0, #1
 143 0092 5142     		rsbs	r1, r2, #0
 144 0094 5141     		adcs	r1, r1, r2
 145 0096 0320     		movs	r0, #3
 146 0098 FFF7FEFF 		bl	_test_assert
 147              	.LVL25:
 148 009c 0028     		cmp	r0, #0
 149 009e C4D1     		bne	.L1
 150              		.loc 1 100 0
 151 00a0 1021     		movs	r1, #16
 152 00a2 6748     		ldr	r0, .L8
 153 00a4 FFF7FEFF 		bl	chHeapAlloc
 154              	.LVL26:
 155              		.loc 1 101 0
 156 00a8 1021     		movs	r1, #16
 157              		.loc 1 100 0
 158 00aa 0446     		mov	r4, r0
 159              	.LVL27:
 160              		.loc 1 101 0
 161 00ac 6448     		ldr	r0, .L8
 162              	.LVL28:
 163 00ae FFF7FEFF 		bl	chHeapAlloc
 164              	.LVL29:
 165              		.loc 1 102 0
 166 00b2 1021     		movs	r1, #16
 167              		.loc 1 101 0
 168 00b4 0546     		mov	r5, r0
 169              	.LVL30:
 170              		.loc 1 102 0
 171 00b6 6248     		ldr	r0, .L8
ARM GAS  /tmp/cc0psXLf.s 			page 4


 172              	.LVL31:
 173 00b8 FFF7FEFF 		bl	chHeapAlloc
 174              	.LVL32:
 175              		.loc 1 103 0
 176 00bc FFF7FEFF 		bl	chHeapFree
 177              	.LVL33:
 178              		.loc 1 104 0
 179 00c0 2846     		mov	r0, r5
 180 00c2 FFF7FEFF 		bl	chHeapFree
 181              	.LVL34:
 182              		.loc 1 105 0
 183 00c6 2046     		mov	r0, r4
 184 00c8 FFF7FEFF 		bl	chHeapFree
 185              	.LVL35:
 186              		.loc 1 106 0
 187 00cc 6946     		mov	r1, sp
 188 00ce 5C48     		ldr	r0, .L8
 189 00d0 FFF7FEFF 		bl	chHeapStatus
 190              	.LVL36:
 191 00d4 431E     		subs	r3, r0, #1
 192 00d6 5942     		rsbs	r1, r3, #0
 193 00d8 5941     		adcs	r1, r1, r3
 194 00da 0420     		movs	r0, #4
 195 00dc FFF7FEFF 		bl	_test_assert
 196              	.LVL37:
 197 00e0 0028     		cmp	r0, #0
 198 00e2 A2D1     		bne	.L1
 199              		.loc 1 109 0
 200 00e4 1121     		movs	r1, #17
 201 00e6 5648     		ldr	r0, .L8
 202 00e8 FFF7FEFF 		bl	chHeapAlloc
 203              	.LVL38:
 204              		.loc 1 110 0
 205 00ec 1021     		movs	r1, #16
 206              		.loc 1 109 0
 207 00ee 0446     		mov	r4, r0
 208              	.LVL39:
 209              		.loc 1 110 0
 210 00f0 5348     		ldr	r0, .L8
 211              	.LVL40:
 212 00f2 FFF7FEFF 		bl	chHeapAlloc
 213              	.LVL41:
 214 00f6 0546     		mov	r5, r0
 215              	.LVL42:
 216              		.loc 1 111 0
 217 00f8 2046     		mov	r0, r4
 218              	.LVL43:
 219 00fa FFF7FEFF 		bl	chHeapFree
 220              	.LVL44:
 221              		.loc 1 112 0
 222 00fe 6946     		mov	r1, sp
 223 0100 4F48     		ldr	r0, .L8
 224 0102 FFF7FEFF 		bl	chHeapStatus
 225              	.LVL45:
 226 0106 B0F1020C 		subs	ip, r0, #2
 227 010a DCF10001 		rsbs	r1, ip, #0
 228 010e 51EB0C01 		adcs	r1, r1, ip
ARM GAS  /tmp/cc0psXLf.s 			page 5


 229 0112 0520     		movs	r0, #5
 230 0114 FFF7FEFF 		bl	_test_assert
 231              	.LVL46:
 232 0118 0028     		cmp	r0, #0
 233 011a 86D1     		bne	.L1
 234              		.loc 1 113 0
 235 011c 1021     		movs	r1, #16
 236 011e 4848     		ldr	r0, .L8
 237 0120 FFF7FEFF 		bl	chHeapAlloc
 238              	.LVL47:
 239              		.loc 1 116 0
 240 0124 6946     		mov	r1, sp
 241              		.loc 1 113 0
 242 0126 0446     		mov	r4, r0
 243              	.LVL48:
 244              		.loc 1 116 0
 245 0128 4548     		ldr	r0, .L8
 246              	.LVL49:
 247 012a FFF7FEFF 		bl	chHeapStatus
 248              	.LVL50:
 249 012e 0128     		cmp	r0, #1
 250 0130 00F08380 		beq	.L5
 251              		.loc 1 116 0 is_stmt 0 discriminator 2
 252 0134 6946     		mov	r1, sp
 253 0136 4248     		ldr	r0, .L8
 254 0138 FFF7FEFF 		bl	chHeapStatus
 255              	.LVL51:
 256 013c B0F1020E 		subs	lr, r0, #2
 257 0140 DEF10001 		rsbs	r1, lr, #0
 258 0144 51EB0E01 		adcs	r1, r1, lr
 259              	.L3:
 260              		.loc 1 116 0 discriminator 4
 261 0148 0620     		movs	r0, #6
 262 014a FFF7FEFF 		bl	_test_assert
 263              	.LVL52:
 264 014e 0028     		cmp	r0, #0
 265 0150 7FF46BAF 		bne	.L1
 266              		.loc 1 118 0 is_stmt 1
 267 0154 2846     		mov	r0, r5
 268 0156 FFF7FEFF 		bl	chHeapFree
 269              	.LVL53:
 270              		.loc 1 119 0
 271 015a 2046     		mov	r0, r4
 272 015c FFF7FEFF 		bl	chHeapFree
 273              	.LVL54:
 274              		.loc 1 120 0
 275 0160 6946     		mov	r1, sp
 276 0162 3748     		ldr	r0, .L8
 277 0164 FFF7FEFF 		bl	chHeapStatus
 278              	.LVL55:
 279 0168 461E     		subs	r6, r0, #1
 280 016a 7142     		rsbs	r1, r6, #0
 281 016c 7141     		adcs	r1, r1, r6
 282 016e 0720     		movs	r0, #7
 283 0170 FFF7FEFF 		bl	_test_assert
 284              	.LVL56:
 285 0174 0028     		cmp	r0, #0
ARM GAS  /tmp/cc0psXLf.s 			page 6


 286 0176 7FF458AF 		bne	.L1
 287              		.loc 1 123 0
 288 017a 1021     		movs	r1, #16
 289 017c 3048     		ldr	r0, .L8
 290 017e FFF7FEFF 		bl	chHeapAlloc
 291              	.LVL57:
 292              		.loc 1 124 0
 293 0182 1021     		movs	r1, #16
 294              		.loc 1 123 0
 295 0184 0546     		mov	r5, r0
 296              	.LVL58:
 297              		.loc 1 124 0
 298 0186 2E48     		ldr	r0, .L8
 299              	.LVL59:
 300 0188 FFF7FEFF 		bl	chHeapAlloc
 301              	.LVL60:
 302 018c 0446     		mov	r4, r0
 303              	.LVL61:
 304              		.loc 1 125 0
 305 018e 2846     		mov	r0, r5
 306              	.LVL62:
 307 0190 FFF7FEFF 		bl	chHeapFree
 308              	.LVL63:
 309              		.loc 1 126 0
 310 0194 6946     		mov	r1, sp
 311 0196 2A48     		ldr	r0, .L8
 312 0198 FFF7FEFF 		bl	chHeapStatus
 313              	.LVL64:
 314 019c 851E     		subs	r5, r0, #2
 315              	.LVL65:
 316 019e 6942     		rsbs	r1, r5, #0
 317 01a0 6941     		adcs	r1, r1, r5
 318 01a2 0820     		movs	r0, #8
 319 01a4 FFF7FEFF 		bl	_test_assert
 320              	.LVL66:
 321 01a8 0028     		cmp	r0, #0
 322 01aa 7FF43EAF 		bne	.L1
 323              		.loc 1 127 0
 324 01ae 2021     		movs	r1, #32
 325 01b0 2348     		ldr	r0, .L8
 326 01b2 FFF7FEFF 		bl	chHeapAlloc
 327              	.LVL67:
 328              		.loc 1 128 0
 329 01b6 FFF7FEFF 		bl	chHeapFree
 330              	.LVL68:
 331              		.loc 1 129 0
 332 01ba 2046     		mov	r0, r4
 333 01bc FFF7FEFF 		bl	chHeapFree
 334              	.LVL69:
 335              		.loc 1 130 0
 336 01c0 6946     		mov	r1, sp
 337 01c2 1F48     		ldr	r0, .L8
 338 01c4 FFF7FEFF 		bl	chHeapStatus
 339              	.LVL70:
 340 01c8 0138     		subs	r0, r0, #1
 341 01ca 4142     		rsbs	r1, r0, #0
 342 01cc 4141     		adcs	r1, r1, r0
ARM GAS  /tmp/cc0psXLf.s 			page 7


 343 01ce 0920     		movs	r0, #9
 344 01d0 FFF7FEFF 		bl	_test_assert
 345              	.LVL71:
 346 01d4 0028     		cmp	r0, #0
 347 01d6 7FF428AF 		bne	.L1
 348              		.loc 1 133 0
 349 01da 6946     		mov	r1, sp
 350 01dc 1848     		ldr	r0, .L8
 351 01de FFF7FEFF 		bl	chHeapStatus
 352              	.LVL72:
 353              		.loc 1 134 0
 354 01e2 0099     		ldr	r1, [sp]
 355 01e4 1648     		ldr	r0, .L8
 356 01e6 FFF7FEFF 		bl	chHeapAlloc
 357              	.LVL73:
 358              		.loc 1 135 0
 359 01ea 6946     		mov	r1, sp
 360              		.loc 1 134 0
 361 01ec 0446     		mov	r4, r0
 362              	.LVL74:
 363              		.loc 1 135 0
 364 01ee 1448     		ldr	r0, .L8
 365              	.LVL75:
 366 01f0 FFF7FEFF 		bl	chHeapStatus
 367              	.LVL76:
 368 01f4 D0F10101 		rsbs	r1, r0, #1
 369 01f8 38BF     		it	cc
 370 01fa 0021     		movcc	r1, #0
 371 01fc 0A20     		movs	r0, #10
 372 01fe FFF7FEFF 		bl	_test_assert
 373              	.LVL77:
 374 0202 0028     		cmp	r0, #0
 375 0204 7FF411AF 		bne	.L1
 376              		.loc 1 136 0
 377 0208 2046     		mov	r0, r4
 378 020a FFF7FEFF 		bl	chHeapFree
 379              	.LVL78:
 380              		.loc 1 138 0
 381 020e 6946     		mov	r1, sp
 382 0210 0B48     		ldr	r0, .L8
 383 0212 FFF7FEFF 		bl	chHeapStatus
 384              	.LVL79:
 385 0216 421E     		subs	r2, r0, #1
 386 0218 5142     		rsbs	r1, r2, #0
 387 021a 5141     		adcs	r1, r1, r2
 388 021c 0B20     		movs	r0, #11
 389 021e FFF7FEFF 		bl	_test_assert
 390              	.LVL80:
 391 0222 0028     		cmp	r0, #0
 392 0224 7FF401AF 		bne	.L1
 393              		.loc 1 139 0
 394 0228 9DE80A00 		ldmia	sp, {r1, r3}
 395 022c CB1A     		subs	r3, r1, r3
 396 022e 5942     		rsbs	r1, r3, #0
 397 0230 5941     		adcs	r1, r1, r3
 398 0232 0C20     		movs	r0, #12
 399 0234 FFF7FEFF 		bl	_test_assert
ARM GAS  /tmp/cc0psXLf.s 			page 8


 400              	.LVL81:
 401 0238 F7E6     		b	.L1
 402              	.LVL82:
 403              	.L5:
 404 023a 0146     		mov	r1, r0
 405 023c 84E7     		b	.L3
 406              	.L9:
 407 023e 00BF     		.align	2
 408              	.L8:
 409 0240 00000000 		.word	.LANCHOR0
 410              		.cfi_endproc
 411              	.LFE8:
 412              		.size	heap1_execute, .-heap1_execute
 413 0244 AFF30080 		.section	.text.heap1_setup,"ax",%progbits
 413      AFF30080 
 413      AFF30080 
 414              		.align	2
 415              		.p2align 4,,15
 416              		.thumb
 417              		.thumb_func
 418              		.type	heap1_setup, %function
 419              	heap1_setup:
 420              	.LFB7:
 421              		.loc 1 64 0
 422              		.cfi_startproc
 423              		@ args = 0, pretend = 0, frame = 0
 424              		@ frame_needed = 0, uses_anonymous_args = 0
 425              		@ link register save eliminated.
 426              		.loc 1 66 0
 427 0000 0248     		ldr	r0, .L11
 428 0002 0349     		ldr	r1, .L11+4
 429 0004 40F63812 		movw	r2, #2360
 430 0008 FFF7FEBF 		b	chHeapInit
 431              	.LVL83:
 432              	.L12:
 433              		.align	2
 434              	.L11:
 435 000c 00000000 		.word	.LANCHOR0
 436 0010 00000000 		.word	test
 437              		.cfi_endproc
 438              	.LFE7:
 439              		.size	heap1_setup, .-heap1_setup
 440              		.global	patternheap
 441              		.global	testheap1
 442 0014 AFF30080 		.section	.rodata.patternheap,"a",%progbits
 442      AFF30080 
 442      AFF30080 
 443              		.align	2
 444              		.type	patternheap, %object
 445              		.size	patternheap, 8
 446              	patternheap:
 447 0000 00000000 		.word	testheap1
 448 0004 00000000 		.word	0
 449              		.section	.rodata.str1.4,"aMS",%progbits,1
 450              		.align	2
 451              	.LC0:
 452 0000 48656170 		.ascii	"Heap, allocation and fragmentation test\000"
ARM GAS  /tmp/cc0psXLf.s 			page 9


 452      2C20616C 
 452      6C6F6361 
 452      74696F6E 
 452      20616E64 
 453              		.section	.rodata.testheap1,"a",%progbits
 454              		.align	2
 455              		.type	testheap1, %object
 456              		.size	testheap1, 16
 457              	testheap1:
 458 0000 00000000 		.word	.LC0
 459 0004 00000000 		.word	heap1_setup
 460 0008 00000000 		.word	0
 461 000c 00000000 		.word	heap1_execute
 462              		.section	.bss.test_heap,"aw",%nobits
 463              		.align	3
 464              		.set	.LANCHOR0,. + 0
 465              		.type	test_heap, %object
 466              		.size	test_heap, 32
 467              	test_heap:
 468 0000 00000000 		.space	32
 468      00000000 
 468      00000000 
 468      00000000 
 468      00000000 
 469              		.text
 470              	.Letext0:
 471              		.file 2 "/opt/ARM/lib/gcc/arm-none-eabi/4.8.4/include/stddef.h"
 472              		.file 3 "/opt/ARM/arm-none-eabi/include/machine/_default_types.h"
 473              		.file 4 "/opt/ARM/arm-none-eabi/include/stdint.h"
 474              		.file 5 "../../os/ports/GCC/ARMCMx/chtypes.h"
 475              		.file 6 "../../os/kernel/include/chlists.h"
 476              		.file 7 "../../os/kernel/include/chthreads.h"
 477              		.file 8 "../../os/ports/GCC/ARMCMx/chcore_v7m.h"
 478              		.file 9 "../../os/kernel/include/chmtx.h"
 479              		.file 10 "../../os/kernel/include/chmemcore.h"
 480              		.file 11 "../../os/kernel/include/chheap.h"
 481              		.file 12 "../../test/test.h"