ARM GAS  /tmp/cc0psXLf.s 			page 1


   1              		.syntax unified
   2              		.cpu cortex-m4
   3              		.eabi_attribute 27, 3
   4              		.eabi_attribute 28, 1
   5              		.fpu fpv4-sp-d16
   6              		.eabi_attribute 20, 1
   7              		.eabi_attribute 21, 1
   8              		.eabi_attribute 23, 3
   9              		.eabi_attribute 24, 1
  10              		.eabi_attribute 25, 1
  11              		.eabi_attribute 26, 1
  12              		.eabi_attribute 30, 2
  13              		.eabi_attribute 34, 1
  14              		.eabi_attribute 18, 4
  15              		.thumb
  16              		.file	"testheap.c"
  17              		.text
  18              	.Ltext0:
  19              		.cfi_sections	.debug_frame
  20              		.section	.text.heap1_execute,"ax",%progbits
  21              		.align	2
  22              		.p2align 4,,15
  23              		.thumb
  24              		.thumb_func
  25              		.type	heap1_execute, %function
  26              	heap1_execute:
  27              	.LFB8:
  28              		.file 1 "../../test/testheap.c"
  29              		.loc 1 69 0
  30              		.cfi_startproc
  31              		@ args = 0, pretend = 0, frame = 8
  32              		@ frame_needed = 0, uses_anonymous_args = 0
  33 0000 70B5     		push	{r4, r5, r6, lr}
  34              		.cfi_def_cfa_offset 16
  35              		.cfi_offset 4, -16
  36              		.cfi_offset 5, -12
  37              		.cfi_offset 6, -8
  38              		.cfi_offset 14, -4
  39 0002 82B0     		sub	sp, sp, #8
  40              		.cfi_def_cfa_offset 24
  41              		.loc 1 74 0
  42 0004 FFF7FEFF 		bl	chCoreStatus
  43              	.LVL0:
  44              		.loc 1 80 0
  45 0008 01A9     		add	r1, sp, #4
  46 000a 0020     		movs	r0, #0
  47 000c FFF7FEFF 		bl	chHeapStatus
  48              	.LVL1:
  49              		.loc 1 81 0
  50 0010 1021     		movs	r1, #16
  51 0012 0020     		movs	r0, #0
  52 0014 FFF7FEFF 		bl	chHeapAlloc
  53              	.LVL2:
  54              		.loc 1 82 0
  55 0018 011C     		adds	r1, r0, #0
  56 001a 0446     		mov	r4, r0
  57 001c 18BF     		it	ne
ARM GAS  /tmp/cc0psXLf.s 			page 2


  58 001e 0121     		movne	r1, #1
  59 0020 0120     		movs	r0, #1
  60              	.LVL3:
  61 0022 FFF7FEFF 		bl	_test_assert
  62              	.LVL4:
  63 0026 0546     		mov	r5, r0
  64 0028 08B1     		cbz	r0, .L7
  65              	.LVL5:
  66              	.L1:
  67              		.loc 1 140 0
  68 002a 02B0     		add	sp, sp, #8
  69              		@ sp needed
  70 002c 70BD     		pop	{r4, r5, r6, pc}
  71              	.LVL6:
  72              	.L7:
  73              		.loc 1 83 0
  74 002e 2046     		mov	r0, r4
  75 0030 FFF7FEFF 		bl	chHeapFree
  76              	.LVL7:
  77              		.loc 1 84 0
  78 0034 6FF0FF01 		mvn	r1, #255
  79 0038 2846     		mov	r0, r5
  80 003a FFF7FEFF 		bl	chHeapAlloc
  81              	.LVL8:
  82              		.loc 1 85 0
  83 003e D0F10101 		rsbs	r1, r0, #1
  84 0042 38BF     		it	cc
  85 0044 0021     		movcc	r1, #0
  86 0046 0220     		movs	r0, #2
  87              	.LVL9:
  88 0048 FFF7FEFF 		bl	_test_assert
  89              	.LVL10:
  90 004c 0028     		cmp	r0, #0
  91 004e ECD1     		bne	.L1
  92              		.loc 1 88 0
  93 0050 01A9     		add	r1, sp, #4
  94 0052 7B48     		ldr	r0, .L8
  95 0054 FFF7FEFF 		bl	chHeapStatus
  96              	.LVL11:
  97              		.loc 1 91 0
  98 0058 1021     		movs	r1, #16
  99 005a 7948     		ldr	r0, .L8
 100 005c FFF7FEFF 		bl	chHeapAlloc
 101              	.LVL12:
 102              		.loc 1 92 0
 103 0060 1021     		movs	r1, #16
 104              		.loc 1 91 0
 105 0062 0546     		mov	r5, r0
 106              	.LVL13:
 107              		.loc 1 92 0
 108 0064 7648     		ldr	r0, .L8
 109              	.LVL14:
 110 0066 FFF7FEFF 		bl	chHeapAlloc
 111              	.LVL15:
 112              		.loc 1 93 0
 113 006a 1021     		movs	r1, #16
 114              		.loc 1 92 0
ARM GAS  /tmp/cc0psXLf.s 			page 3


 115 006c 0446     		mov	r4, r0
 116              	.LVL16:
 117              		.loc 1 93 0
 118 006e 7448     		ldr	r0, .L8
 119              	.LVL17:
 120 0070 FFF7FEFF 		bl	chHeapAlloc
 121              	.LVL18:
 122 0074 0646     		mov	r6, r0
 123              	.LVL19:
 124              		.loc 1 94 0
 125 0076 2846     		mov	r0, r5
 126              	.LVL20:
 127 0078 FFF7FEFF 		bl	chHeapFree
 128              	.LVL21:
 129              		.loc 1 95 0
 130 007c 2046     		mov	r0, r4
 131 007e FFF7FEFF 		bl	chHeapFree
 132              	.LVL22:
 133              		.loc 1 96 0
 134 0082 3046     		mov	r0, r6
 135 0084 FFF7FEFF 		bl	chHeapFree
 136              	.LVL23:
 137              		.loc 1 97 0
 138 0088 6946     		mov	r1, sp
 139 008a 6D48     		ldr	r0, .L8
 140 008c FFF7FEFF 		bl	chHeapStatus
 141              	.LVL24:
 142 0090 421E     		subs	r2, r0, #1
 143 0092 5142     		rsbs	r1, r2, #0
 144 0094 5141     		adcs	r1, r1, r2
 145 0096 0320     		movs	r0, #3
 146 0098 FFF7FEFF 		bl	_test_assert
 147              	.LVL25:
 148 009c 0028     		cmp	r0, #0
 149 009e C4D1     		bne	.L1
 150              		.loc 1 100 0
 151 00a0 1021     		movs	r1, #16
 152 00a2 6748     		ldr	r0, .L8
 153 00a4 FFF7FEFF 		bl	chHeapAlloc
 154              	.LVL26:
 155              		.loc 1 101 0
 156 00a8 1021     		movs	r1, #16
 157              		.loc 1 100 0
 158 00aa 0446     		mov	r4, r0
 159              	.LVL27:
 160              		.loc 1 101 0
 161 00ac 6448     		ldr	r0, .L8
 162              	.LVL28:
 163 00ae FFF7FEFF 		bl	chHeapAlloc
 164              	.LVL29:
 165              		.loc 1 102 0
 166 00b2 1021     		movs	r1, #16
 167              		.loc 1 101 0
 168 00b4 0546     		mov	r5, r0
 169              	.LVL30:
 170              		.loc 1 102 0
 171 00b6 6248     		ldr	r0, .L8
ARM GAS  /tmp/cc0psXLf.s 			page 4


 172              	.LVL31:
 173 00b8 FFF7FEFF 		bl	chHeapAlloc
 174              	.LVL32:
 175              		.loc 1 103 0
 176 00bc FFF7FEFF 		bl	chHeapFree
 177              	.LVL33:
 178              		.loc 1 104 0
 179 00c0 2846     		mov	r0, r5
 180 00c2 FFF7FEFF 		bl	chHeapFree
 181              	.LVL34:
 182              		.loc 1 105 0
 183 00c6 2046     		mov	r0, r4
 184 00c8 FFF7FEFF 		bl	chHeapFree
 185              	.LVL35:
 186              		.loc 1 106 0
 187 00cc 6946     		mov	r1, sp
 188 00ce 5C48     		ldr	r0, .L8
 189 00d0 FFF7FEFF 		bl	chHeapStatus
 190              	.LVL36:
 191 00d4 431E     		subs	r3, r0, #1
 192 00d6 5942     		rsbs	r1, r3, #0
 193 00d8 5941     		adcs	r1, r1, r3
 194 00da 0420     		movs	r0, #4
 195 00dc FFF7FEFF 		bl	_test_assert
 196              	.LVL37:
 197 00e0 0028     		cmp	r0, #0
 198 00e2 A2D1     		bne	.L1
 199              		.loc 1 109 0
 200 00e4 1121     		movs	r1, #17
 201 00e6 5648     		ldr	r0, .L8
 202 00e8 FFF7FEFF 		bl	chHeapAlloc
 203              	.LVL38:
 204              		.loc 1 110 0
 205 00ec 1021     		movs	r1, #16
 206              		.loc 1 109 0
 207 00ee 0446     		mov	r4, r0
 208              	.LVL39:
 209              		.loc 1 110 0
 210 00f0 5348     		ldr	r0, .L8
 211              	.LVL40:
 212 00f2 FFF7FEFF 		bl	chHeapAlloc
 213              	.LVL41:
 214 00f6 0546     		mov	r5, r0
 215              	.LVL42:
 216              		.loc 1 111 0
 217 00f8 2046     		mov	r0, r4
 218              	.LVL43:
 219 00fa FFF7FEFF 		bl	chHeapFree
 220              	.LVL44:
 221              		.loc 1 112 0
 222 00fe 6946     		mov	r1, sp
 223 0100 4F48     		ldr	r0, .L8
 224 0102 FFF7FEFF 		bl	chHeapStatus
 225              	.LVL45:
 226 0106 B0F1020C 		subs	ip, r0, #2
 227 010a DCF10001 		rsbs	r1, ip, #0
 228 010e 51EB0C01 		adcs	r1, r1, ip
ARM GAS  /tmp/cc0psXLf.s 			page 5


 229 0112 0520     		movs	r0, #5
 230 0114 FFF7FEFF 		bl	_test_assert
 231              	.LVL46:
 232 0118 0028     		cmp	r0, #0
 233 011a 86D1     		bne	.L1
 234              		.loc 1 113 0
 235 011c 1021     		movs	r1, #16
 236 011e 4848     		ldr	r0, .L8
 237 0120 FFF7FEFF 		bl	chHeapAlloc
 238              	.LVL47:
 239              		.loc 1 116 0
 240 0124 6946     		mov	r1, sp
 241              		.loc 1 113 0
 242 0126 0446     		mov	r4, r0
 243              	.LVL48:
 244              		.loc 1 116 0
 245 0128 4548     		ldr	r0, .L8
 246              	.LVL49:
 247 012a FFF7FEFF 		bl	chHeapStatus
 248              	.LVL50:
 249 012e 0128     		cmp	r0, #1
 250 0130 00F08380 		beq	.L5
 251              		.loc 1 116 0 is_stmt 0 discriminator 2
 252 0134 6946     		mov	r1, sp
 253 0136 4248     		ldr	r0, .L8
 254 0138 FFF7FEFF 		bl	chHeapStatus
 255              	.LVL51:
 256 013c B0F1020E 		subs	lr, r0, #2
 257 0140 DEF10001 		rsbs	r1, lr, #0
 258 0144 51EB0E01 		adcs	r1, r1, lr
 259              	.L3:
 260              		.loc 1 116 0 discriminator 4
 261 0148 0620     		movs	r0, #6
 262 014a FFF7FEFF 		bl	_test_assert
 263              	.LVL52:
 264 014e 0028     		cmp	r0, #0
 265 0150 7FF46BAF 		bne	.L1
 266              		.loc 1 118 0 is_stmt 1
 267 0154 2846     		mov	r0, r5
 268 0156 FFF7FEFF 		bl	chHeapFree
 269              	.LVL53:
 270              		.loc 1 119 0
 271 015a 2046     		mov	r0, r4
 272 015c FFF7FEFF 		bl	chHeapFree
 273              	.LVL54:
 274              		.loc 1 120 0
 275 0160 6946     		mov	r1, sp
 276 0162 3748     		ldr	r0, .L8
 277 0164 FFF7FEFF 		bl	chHeapStatus
 278              	.LVL55:
 279 0168 461E     		subs	r6, r0, #1
 280 016a 7142     		rsbs	r1, r6, #0
 281 016c 7141     		adcs	r1, r1, r6
 282 016e 0720     		movs	r0, #7
 283 0170 FFF7FEFF 		bl	_test_assert
 284              	.LVL56:
 285 0174 0028     		cmp	r0, #0
ARM GAS  /tmp/cc0psXLf.s 			page 6


 286 0176 7FF458AF 		bne	.L1
 287              		.loc 1 123 0
 288 017a 1021     		movs	r1, #16
 289 017c 3048     		ldr	r0, .L8
 290 017e FFF7FEFF 		bl	chHeapAlloc
 291              	.LVL57:
 292              		.loc 1 124 0
 293 0182 1021     		movs	r1, #16
 294              		.loc 1 123 0
 295 0184 0546     		mov	r5, r0
 296              	.LVL58:
 297              		.loc 1 124 0
 298 0186 2E48     		ldr	r0, .L8
 299              	.LVL59:
 300 0188 FFF7FEFF 		bl	chHeapAlloc
 301              	.LVL60:
 302 018c 0446     		mov	r4, r0
 303              	.LVL61:
 304              		.loc 1 125 0
 305 018e 2846     		mov	r0, r5
 306              	.LVL62:
 307 0190 FFF7FEFF 		bl	chHeapFree
 308              	.LVL63:
 309              		.loc 1 126 0
 310 0194 6946     		mov	r1, sp
 311 0196 2A48     		ldr	r0, .L8
 312 0198 FFF7FEFF 		bl	chHeapStatus
 313              	.LVL64:
 314 019c 851E     		subs	r5, r0, #2
 315              	.LVL65:
 316 019e 6942     		rsbs	r1, r5, #0
 317 01a0 6941     		adcs	r1, r1, r5
 318 01a2 0820     		movs	r0, #8
 319 01a4 FFF7FEFF 		bl	_test_assert
 320              	.LVL66:
 321 01a8 0028     		cmp	r0, #0
 322 01aa 7FF43EAF 		bne	.L1
 323              		.loc 1 127 0
 324 01ae 2021     		movs	r1, #32
 325 01b0 2348     		ldr	r0, .L8
 326 01b2 FFF7FEFF 		bl	chHeapAlloc
 327              	.LVL67:
 328              		.loc 1 128 0
 329 01b6 FFF7FEFF 		bl	chHeapFree
 330              	.LVL68:
 331              		.loc 1 129 0
 332 01ba 2046     		mov	r0, r4
 333 01bc FFF7FEFF 		bl	chHeapFree
 334              	.LVL69:
 335              		.loc 1 130 0
 336 01c0 6946     		mov	r1, sp
 337 01c2 1F48     		ldr	r0, .L8
 338 01c4 FFF7FEFF 		bl	chHeapStatus
 339              	.LVL70:
 340 01c8 0138     		subs	r0, r0, #1
 341 01ca 4142     		rsbs	r1, r0, #0
 342 01cc 4141     		adcs	r1, r1, r0
ARM GAS  /tmp/cc0psXLf.s 			page 7


 343 01ce 0920     		movs	r0, #9
 344 01d0 FFF7FEFF 		bl	_test_assert
 345              	.LVL71:
 346 01d4 0028     		cmp	r0, #0
 347 01d6 7FF428AF 		bne	.L1
 348              		.loc 1 133 0
 349 01da 6946     		mov	r1, sp
 350 01dc 1848     		ldr	r0, .L8
 351 01de FFF7FEFF 		bl	chHeapStatus
 352              	.LVL72:
 353              		.loc 1 134 0
 354 01e2 0099     		ldr	r1, [sp]
 355 01e4 1648     		ldr	r0, .L8
 356 01e6 FFF7FEFF 		bl	chHeapAlloc
 357              	.LVL73:
 358              		.loc 1 135 0
 359 01ea 6946     		mov	r1, sp
 360              		.loc 1 134 0
 361 01ec 0446     		mov	r4, r0
 362              	.LVL74:
 363              		.loc 1 135 0
 364 01ee 1448     		ldr	r0, .L8
 365              	.LVL75:
 366 01f0 FFF7FEFF 		bl	chHeapStatus
 367              	.LVL76:
 368 01f4 D0F10101 		rsbs	r1, r0, #1
 369 01f8 38BF     		it	cc
 370 01fa 0021     		movcc	r1, #0
 371 01fc 0A20     		movs	r0, #10
 372 01fe FFF7FEFF 		bl	_test_assert
 373              	.LVL77:
 374 0202 0028     		cmp	r0, #0
 375 0204 7FF411AF 		bne	.L1
 376              		.loc 1 136 0
 377 0208 2046     		mov	r0, r4
 378 020a FFF7FEFF 		bl	chHeapFree
 379              	.LVL78:
 380              		.loc 1 138 0
 381 020e 6946     		mov	r1, sp
 382 0210 0B48     		ldr	r0, .L8
 383 0212 FFF7FEFF 		bl	chHeapStatus
 384              	.LVL79:
 385 0216 421E     		subs	r2, r0, #1
 386 0218 5142     		rsbs	r1, r2, #0
 387 021a 5141     		adcs	r1, r1, r2
 388 021c 0B20     		movs	r0, #11
 389 021e FFF7FEFF 		bl	_test_assert
 390              	.LVL80:
 391 0222 0028     		cmp	r0, #0
 392 0224 7FF401AF 		bne	.L1
 393              		.loc 1 139 0
 394 0228 9DE80A00 		ldmia	sp, {r1, r3}
 395 022c CB1A     		subs	r3, r1, r3
 396 022e 5942     		rsbs	r1, r3, #0
 397 0230 5941     		adcs	r1, r1, r3
 398 0232 0C20     		movs	r0, #12
 399 0234 FFF7FEFF 		bl	_test_assert
ARM GAS  /tmp/cc0psXLf.s 			page 8


 400              	.LVL81:
 401 0238 F7E6     		b	.L1
 402              	.LVL82:
 403              	.L5:
 404 023a 0146     		mov	r1, r0
 405 023c 84E7     		b	.L3
 406              	.L9:
 407 023e 00BF     		.align	2
 408              	.L8:
 409 0240 00000000 		.word	.LANCHOR0
 410              		.cfi_endproc
 411              	.LFE8:
 412              		.size	heap1_execute, .-heap1_execute
 413 0244 AFF30080 		.section	.text.heap1_setup,"ax",%progbits
 413      AFF30080 
 413      AFF30080 
 414              		.align	2
 415              		.p2align 4,,15
 416              		.thumb
 417              		.thumb_func
 418              		.type	heap1_setup, %function
 419              	heap1_setup:
 420              	.LFB7:
 421              		.loc 1 64 0
 422              		.cfi_startproc
 423              		@ args = 0, pretend = 0, frame = 0
 424              		@ frame_needed = 0, uses_anonymous_args = 0
 425              		@ link register save eliminated.
 426              		.loc 1 66 0
 427 0000 0248     		ldr	r0, .L11
 428 0002 0349     		ldr	r1, .L11+4
 429 0004 40F63812 		movw	r2, #2360
 430 0008 FFF7FEBF 		b	chHeapInit
 431              	.LVL83:
 432              	.L12:
 433              		.align	2
 434              	.L11:
 435 000c 00000000 		.word	.LANCHOR0
 436 0010 00000000 		.word	test
 437              		.cfi_endproc
 438              	.LFE7:
 439              		.size	heap1_setup, .-heap1_setup
 440              		.global	patternheap
 441              		.global	testheap1
 442 0014 AFF30080 		.section	.rodata.patternheap,"a",%progbits
 442      AFF30080 
 442      AFF30080 
 443              		.align	2
 444              		.type	patternheap, %object
 445              		.size	patternheap, 8
 446              	patternheap:
 447 0000 00000000 		.word	testheap1
 448 0004 00000000 		.word	0
 449              		.section	.rodata.str1.4,"aMS",%progbits,1
 450              		.align	2
 451              	.LC0:
 452 0000 48656170 		.ascii	"Heap, allocation and fragmentation test\000"
ARM GAS  /tmp/cc0psXLf.s 			page 9


 452      2C20616C 
 452      6C6F6361 
 452      74696F6E 
 452      20616E64 
 453              		.section	.rodata.testheap1,"a",%progbits
 454              		.align	2
 455              		.type	testheap1, %object
 456              		.size	testheap1, 16
 457              	testheap1:
 458 0000 00000000 		.word	.LC0
 459 0004 00000000 		.word	heap1_setup
 460 0008 00000000 		.word	0
 461 000c 00000000 		.word	heap1_execute
 462              		.section	.bss.test_heap,"aw",%nobits
 463              		.align	3
 464              		.set	.LANCHOR0,. + 0
 465              		.type	test_heap, %object
 466              		.size	test_heap, 32
 467              	test_heap:
 468 0000 00000000 		.space	32
 468      00000000 
 468      00000000 
 468      00000000 
 468      00000000 
 469              		.text
 470              	.Letext0:
 471              		.file 2 "/opt/ARM/lib/gcc/arm-none-eabi/4.8.4/include/stddef.h"
 472              		.file 3 "/opt/ARM/arm-none-eabi/include/machine/_default_types.h"
 473              		.file 4 "/opt/ARM/arm-none-eabi/include/stdint.h"
 474              		.file 5 "../../os/ports/GCC/ARMCMx/chtypes.h"
 475              		.file 6 "../../os/kernel/include/chlists.h"
 476              		.file 7 "../../os/kernel/include/chthreads.h"
 477              		.file 8 "../../os/ports/GCC/ARMCMx/chcore_v7m.h"
 478              		.file 9 "../../os/kernel/include/chmtx.h"
 479              		.file 10 "../../os/kernel/include/chmemcore.h"
 480              		.file 11 "../../os/kernel/include/chheap.h"
 481              		.file 12 "../../test/test.h"
 482              		.section	.debug_info,"",%progbits
 483              	.Ldebug_info0:
 484 0000 DE0C0000 		.4byte	0xcde
 485 0004 0400     		.2byte	0x4
 486 0006 00000000 		.4byte	.Ldebug_abbrev0
 487 000a 04       		.byte	0x4
 488 000b 01       		.uleb128 0x1
 489 000c A8020000 		.4byte	.LASF92
 490 0010 01       		.byte	0x1
 491 0011 23020000 		.4byte	.LASF93
 492 0015 35040000 		.4byte	.LASF94
 493 0019 00000000 		.4byte	.Ldebug_ranges0+0
 494 001d 00000000 		.4byte	0
 495 0021 00000000 		.4byte	.Ldebug_line0
 496 0025 02       		.uleb128 0x2
 497 0026 04       		.byte	0x4
 498 0027 05       		.byte	0x5
 499 0028 696E7400 		.ascii	"int\000"
 500 002c 03       		.uleb128 0x3
 501 002d 06000000 		.4byte	.LASF2
ARM GAS  /tmp/cc0psXLf.s 			page 10


 502 0031 02       		.byte	0x2
 503 0032 D4       		.byte	0xd4
 504 0033 37000000 		.4byte	0x37
 505 0037 04       		.uleb128 0x4
 506 0038 04       		.byte	0x4
 507 0039 07       		.byte	0x7
 508 003a 2F010000 		.4byte	.LASF0
 509 003e 04       		.uleb128 0x4
 510 003f 01       		.byte	0x1
 511 0040 06       		.byte	0x6
 512 0041 88000000 		.4byte	.LASF1
 513 0045 03       		.uleb128 0x3
 514 0046 1D000000 		.4byte	.LASF3
 515 004a 03       		.byte	0x3
 516 004b 1C       		.byte	0x1c
 517 004c 50000000 		.4byte	0x50
 518 0050 04       		.uleb128 0x4
 519 0051 01       		.byte	0x1
 520 0052 08       		.byte	0x8
 521 0053 47020000 		.4byte	.LASF4
 522 0057 04       		.uleb128 0x4
 523 0058 02       		.byte	0x2
 524 0059 05       		.byte	0x5
 525 005a 6A020000 		.4byte	.LASF5
 526 005e 04       		.uleb128 0x4
 527 005f 02       		.byte	0x2
 528 0060 07       		.byte	0x7
 529 0061 69010000 		.4byte	.LASF6
 530 0065 03       		.uleb128 0x3
 531 0066 24040000 		.4byte	.LASF7
 532 006a 03       		.byte	0x3
 533 006b 37       		.byte	0x37
 534 006c 70000000 		.4byte	0x70
 535 0070 04       		.uleb128 0x4
 536 0071 04       		.byte	0x4
 537 0072 05       		.byte	0x5
 538 0073 D2000000 		.4byte	.LASF8
 539 0077 03       		.uleb128 0x3
 540 0078 FC000000 		.4byte	.LASF9
 541 007c 03       		.byte	0x3
 542 007d 38       		.byte	0x38
 543 007e 82000000 		.4byte	0x82
 544 0082 04       		.uleb128 0x4
 545 0083 04       		.byte	0x4
 546 0084 07       		.byte	0x7
 547 0085 3C010000 		.4byte	.LASF10
 548 0089 04       		.uleb128 0x4
 549 008a 08       		.byte	0x8
 550 008b 05       		.byte	0x5
 551 008c 7A000000 		.4byte	.LASF11
 552 0090 03       		.uleb128 0x3
 553 0091 F9010000 		.4byte	.LASF12
 554 0095 03       		.byte	0x3
 555 0096 4E       		.byte	0x4e
 556 0097 9B000000 		.4byte	0x9b
 557 009b 04       		.uleb128 0x4
 558 009c 08       		.byte	0x8
ARM GAS  /tmp/cc0psXLf.s 			page 11


 559 009d 07       		.byte	0x7
 560 009e 34000000 		.4byte	.LASF13
 561 00a2 03       		.uleb128 0x3
 562 00a3 9E040000 		.4byte	.LASF14
 563 00a7 04       		.byte	0x4
 564 00a8 2A       		.byte	0x2a
 565 00a9 45000000 		.4byte	0x45
 566 00ad 03       		.uleb128 0x3
 567 00ae 3F020000 		.4byte	.LASF15
 568 00b2 04       		.byte	0x4
 569 00b3 41       		.byte	0x41
 570 00b4 65000000 		.4byte	0x65
 571 00b8 03       		.uleb128 0x3
 572 00b9 E8030000 		.4byte	.LASF16
 573 00bd 04       		.byte	0x4
 574 00be 42       		.byte	0x42
 575 00bf 77000000 		.4byte	0x77
 576 00c3 03       		.uleb128 0x3
 577 00c4 14000000 		.4byte	.LASF17
 578 00c8 04       		.byte	0x4
 579 00c9 4E       		.byte	0x4e
 580 00ca 90000000 		.4byte	0x90
 581 00ce 03       		.uleb128 0x3
 582 00cf A2000000 		.4byte	.LASF18
 583 00d3 05       		.byte	0x5
 584 00d4 2B       		.byte	0x2b
 585 00d5 D9000000 		.4byte	0xd9
 586 00d9 04       		.uleb128 0x4
 587 00da 01       		.byte	0x1
 588 00db 02       		.byte	0x2
 589 00dc 39020000 		.4byte	.LASF19
 590 00e0 03       		.uleb128 0x3
 591 00e1 82010000 		.4byte	.LASF20
 592 00e5 05       		.byte	0x5
 593 00e6 2C       		.byte	0x2c
 594 00e7 A2000000 		.4byte	0xa2
 595 00eb 03       		.uleb128 0x3
 596 00ec DB000000 		.4byte	.LASF21
 597 00f0 05       		.byte	0x5
 598 00f1 2D       		.byte	0x2d
 599 00f2 A2000000 		.4byte	0xa2
 600 00f6 03       		.uleb128 0x3
 601 00f7 04020000 		.4byte	.LASF22
 602 00fb 05       		.byte	0x5
 603 00fc 2E       		.byte	0x2e
 604 00fd A2000000 		.4byte	0xa2
 605 0101 03       		.uleb128 0x3
 606 0102 C8000000 		.4byte	.LASF23
 607 0106 05       		.byte	0x5
 608 0107 2F       		.byte	0x2f
 609 0108 A2000000 		.4byte	0xa2
 610 010c 03       		.uleb128 0x3
 611 010d 1B020000 		.4byte	.LASF24
 612 0111 05       		.byte	0x5
 613 0112 30       		.byte	0x30
 614 0113 B8000000 		.4byte	0xb8
 615 0117 03       		.uleb128 0x3
ARM GAS  /tmp/cc0psXLf.s 			page 12


 616 0118 7C010000 		.4byte	.LASF25
 617 011c 05       		.byte	0x5
 618 011d 31       		.byte	0x31
 619 011e AD000000 		.4byte	0xad
 620 0122 03       		.uleb128 0x3
 621 0123 96010000 		.4byte	.LASF26
 622 0127 05       		.byte	0x5
 623 0128 33       		.byte	0x33
 624 0129 B8000000 		.4byte	0xb8
 625 012d 03       		.uleb128 0x3
 626 012e 0F040000 		.4byte	.LASF27
 627 0132 05       		.byte	0x5
 628 0133 35       		.byte	0x35
 629 0134 B8000000 		.4byte	0xb8
 630 0138 03       		.uleb128 0x3
 631 0139 C1030000 		.4byte	.LASF28
 632 013d 06       		.byte	0x6
 633 013e 2A       		.byte	0x2a
 634 013f 43010000 		.4byte	0x143
 635 0143 05       		.uleb128 0x5
 636 0144 C1030000 		.4byte	.LASF28
 637 0148 4C       		.byte	0x4c
 638 0149 07       		.byte	0x7
 639 014a 5E       		.byte	0x5e
 640 014b 4C020000 		.4byte	0x24c
 641 014f 06       		.uleb128 0x6
 642 0150 99020000 		.4byte	.LASF29
 643 0154 07       		.byte	0x7
 644 0155 5F       		.byte	0x5f
 645 0156 6D020000 		.4byte	0x26d
 646 015a 00       		.byte	0
 647 015b 06       		.uleb128 0x6
 648 015c 0C020000 		.4byte	.LASF30
 649 0160 07       		.byte	0x7
 650 0161 61       		.byte	0x61
 651 0162 6D020000 		.4byte	0x26d
 652 0166 04       		.byte	0x4
 653 0167 06       		.uleb128 0x6
 654 0168 67000000 		.4byte	.LASF31
 655 016c 07       		.byte	0x7
 656 016d 63       		.byte	0x63
 657 016e 0C010000 		.4byte	0x10c
 658 0172 08       		.byte	0x8
 659 0173 06       		.uleb128 0x6
 660 0174 D3040000 		.4byte	.LASF32
 661 0178 07       		.byte	0x7
 662 0179 64       		.byte	0x64
 663 017a 02040000 		.4byte	0x402
 664 017e 0C       		.byte	0xc
 665 017f 06       		.uleb128 0x6
 666 0180 EB000000 		.4byte	.LASF33
 667 0184 07       		.byte	0x7
 668 0185 66       		.byte	0x66
 669 0186 6D020000 		.4byte	0x26d
 670 018a 10       		.byte	0x10
 671 018b 06       		.uleb128 0x6
 672 018c D3010000 		.4byte	.LASF34
ARM GAS  /tmp/cc0psXLf.s 			page 13


 673 0190 07       		.byte	0x7
 674 0191 67       		.byte	0x67
 675 0192 6D020000 		.4byte	0x26d
 676 0196 14       		.byte	0x14
 677 0197 06       		.uleb128 0x6
 678 0198 B7040000 		.4byte	.LASF35
 679 019c 07       		.byte	0x7
 680 019d 6E       		.byte	0x6e
 681 019e 6D050000 		.4byte	0x56d
 682 01a2 18       		.byte	0x18
 683 01a3 06       		.uleb128 0x6
 684 01a4 24010000 		.4byte	.LASF36
 685 01a8 07       		.byte	0x7
 686 01a9 74       		.byte	0x74
 687 01aa 7F050000 		.4byte	0x57f
 688 01ae 1C       		.byte	0x1c
 689 01af 06       		.uleb128 0x6
 690 01b0 74020000 		.4byte	.LASF37
 691 01b4 07       		.byte	0x7
 692 01b5 79       		.byte	0x79
 693 01b6 EB000000 		.4byte	0xeb
 694 01ba 20       		.byte	0x20
 695 01bb 06       		.uleb128 0x6
 696 01bc A0020000 		.4byte	.LASF38
 697 01c0 07       		.byte	0x7
 698 01c1 7D       		.byte	0x7d
 699 01c2 E0000000 		.4byte	0xe0
 700 01c6 21       		.byte	0x21
 701 01c7 06       		.uleb128 0x6
 702 01c8 97040000 		.4byte	.LASF39
 703 01cc 07       		.byte	0x7
 704 01cd 82       		.byte	0x82
 705 01ce F6000000 		.4byte	0xf6
 706 01d2 22       		.byte	0x22
 707 01d3 06       		.uleb128 0x6
 708 01d4 7C020000 		.4byte	.LASF40
 709 01d8 07       		.byte	0x7
 710 01d9 88       		.byte	0x88
 711 01da 01010000 		.4byte	0x101
 712 01de 23       		.byte	0x23
 713 01df 06       		.uleb128 0x6
 714 01e0 2E040000 		.4byte	.LASF41
 715 01e4 07       		.byte	0x7
 716 01e5 8F       		.byte	0x8f
 717 01e6 2A040000 		.4byte	0x42a
 718 01ea 24       		.byte	0x24
 719 01eb 07       		.uleb128 0x7
 720 01ec 705F7500 		.ascii	"p_u\000"
 721 01f0 07       		.byte	0x7
 722 01f1 B4       		.byte	0xb4
 723 01f2 38050000 		.4byte	0x538
 724 01f6 28       		.byte	0x28
 725 01f7 06       		.uleb128 0x6
 726 01f8 D9040000 		.4byte	.LASF42
 727 01fc 07       		.byte	0x7
 728 01fd B9       		.byte	0xb9
 729 01fe 93020000 		.4byte	0x293
ARM GAS  /tmp/cc0psXLf.s 			page 14


 730 0202 2C       		.byte	0x2c
 731 0203 06       		.uleb128 0x6
 732 0204 7F040000 		.4byte	.LASF43
 733 0208 07       		.byte	0x7
 734 0209 BF       		.byte	0xbf
 735 020a 73020000 		.4byte	0x273
 736 020e 30       		.byte	0x30
 737 020f 06       		.uleb128 0x6
 738 0210 00000000 		.4byte	.LASF44
 739 0214 07       		.byte	0x7
 740 0215 C3       		.byte	0xc3
 741 0216 17010000 		.4byte	0x117
 742 021a 38       		.byte	0x38
 743 021b 06       		.uleb128 0x6
 744 021c DD030000 		.4byte	.LASF45
 745 0220 07       		.byte	0x7
 746 0221 C9       		.byte	0xc9
 747 0222 22010000 		.4byte	0x122
 748 0226 3C       		.byte	0x3c
 749 0227 06       		.uleb128 0x6
 750 0228 60020000 		.4byte	.LASF46
 751 022c 07       		.byte	0x7
 752 022d D0       		.byte	0xd0
 753 022e 85050000 		.4byte	0x585
 754 0232 40       		.byte	0x40
 755 0233 06       		.uleb128 0x6
 756 0234 19040000 		.4byte	.LASF47
 757 0238 07       		.byte	0x7
 758 0239 D4       		.byte	0xd4
 759 023a 0C010000 		.4byte	0x10c
 760 023e 44       		.byte	0x44
 761 023f 06       		.uleb128 0x6
 762 0240 9A000000 		.4byte	.LASF48
 763 0244 07       		.byte	0x7
 764 0245 DA       		.byte	0xda
 765 0246 A9020000 		.4byte	0x2a9
 766 024a 48       		.byte	0x48
 767 024b 00       		.byte	0
 768 024c 08       		.uleb128 0x8
 769 024d 08       		.byte	0x8
 770 024e 06       		.byte	0x6
 771 024f 61       		.byte	0x61
 772 0250 6D020000 		.4byte	0x26d
 773 0254 06       		.uleb128 0x6
 774 0255 99020000 		.4byte	.LASF29
 775 0259 06       		.byte	0x6
 776 025a 62       		.byte	0x62
 777 025b 6D020000 		.4byte	0x26d
 778 025f 00       		.byte	0
 779 0260 06       		.uleb128 0x6
 780 0261 0C020000 		.4byte	.LASF30
 781 0265 06       		.byte	0x6
 782 0266 64       		.byte	0x64
 783 0267 6D020000 		.4byte	0x26d
 784 026b 04       		.byte	0x4
 785 026c 00       		.byte	0
 786 026d 09       		.uleb128 0x9
ARM GAS  /tmp/cc0psXLf.s 			page 15


 787 026e 04       		.byte	0x4
 788 026f 38010000 		.4byte	0x138
 789 0273 03       		.uleb128 0x3
 790 0274 DB010000 		.4byte	.LASF49
 791 0278 06       		.byte	0x6
 792 0279 66       		.byte	0x66
 793 027a 4C020000 		.4byte	0x24c
 794 027e 08       		.uleb128 0x8
 795 027f 04       		.byte	0x4
 796 0280 06       		.byte	0x6
 797 0281 6B       		.byte	0x6b
 798 0282 93020000 		.4byte	0x293
 799 0286 06       		.uleb128 0x6
 800 0287 99020000 		.4byte	.LASF29
 801 028b 06       		.byte	0x6
 802 028c 6D       		.byte	0x6d
 803 028d 6D020000 		.4byte	0x26d
 804 0291 00       		.byte	0
 805 0292 00       		.byte	0
 806 0293 03       		.uleb128 0x3
 807 0294 8A010000 		.4byte	.LASF50
 808 0298 06       		.byte	0x6
 809 0299 70       		.byte	0x70
 810 029a 7E020000 		.4byte	0x27e
 811 029e 03       		.uleb128 0x3
 812 029f 07010000 		.4byte	.LASF51
 813 02a3 08       		.byte	0x8
 814 02a4 E5       		.byte	0xe5
 815 02a5 A9020000 		.4byte	0x2a9
 816 02a9 0A       		.uleb128 0xa
 817 02aa 04       		.byte	0x4
 818 02ab 03       		.uleb128 0x3
 819 02ac A8010000 		.4byte	.LASF52
 820 02b0 08       		.byte	0x8
 821 02b1 EB       		.byte	0xeb
 822 02b2 C3000000 		.4byte	0xc3
 823 02b6 0B       		.uleb128 0xb
 824 02b7 78040000 		.4byte	.LASF53
 825 02bb 64       		.byte	0x64
 826 02bc 08       		.byte	0x8
 827 02bd 0C01     		.2byte	0x10c
 828 02bf 02040000 		.4byte	0x402
 829 02c3 0C       		.uleb128 0xc
 830 02c4 73313600 		.ascii	"s16\000"
 831 02c8 08       		.byte	0x8
 832 02c9 0E01     		.2byte	0x10e
 833 02cb 9E020000 		.4byte	0x29e
 834 02cf 00       		.byte	0
 835 02d0 0C       		.uleb128 0xc
 836 02d1 73313700 		.ascii	"s17\000"
 837 02d5 08       		.byte	0x8
 838 02d6 0F01     		.2byte	0x10f
 839 02d8 9E020000 		.4byte	0x29e
 840 02dc 04       		.byte	0x4
 841 02dd 0C       		.uleb128 0xc
 842 02de 73313800 		.ascii	"s18\000"
 843 02e2 08       		.byte	0x8
ARM GAS  /tmp/cc0psXLf.s 			page 16


 844 02e3 1001     		.2byte	0x110
 845 02e5 9E020000 		.4byte	0x29e
 846 02e9 08       		.byte	0x8
 847 02ea 0C       		.uleb128 0xc
 848 02eb 73313900 		.ascii	"s19\000"
 849 02ef 08       		.byte	0x8
 850 02f0 1101     		.2byte	0x111
 851 02f2 9E020000 		.4byte	0x29e
 852 02f6 0C       		.byte	0xc
 853 02f7 0C       		.uleb128 0xc
 854 02f8 73323000 		.ascii	"s20\000"
 855 02fc 08       		.byte	0x8
 856 02fd 1201     		.2byte	0x112
 857 02ff 9E020000 		.4byte	0x29e
 858 0303 10       		.byte	0x10
 859 0304 0C       		.uleb128 0xc
 860 0305 73323100 		.ascii	"s21\000"
 861 0309 08       		.byte	0x8
 862 030a 1301     		.2byte	0x113
 863 030c 9E020000 		.4byte	0x29e
 864 0310 14       		.byte	0x14
 865 0311 0C       		.uleb128 0xc
 866 0312 73323200 		.ascii	"s22\000"
 867 0316 08       		.byte	0x8
 868 0317 1401     		.2byte	0x114
 869 0319 9E020000 		.4byte	0x29e
 870 031d 18       		.byte	0x18
 871 031e 0C       		.uleb128 0xc
 872 031f 73323300 		.ascii	"s23\000"
 873 0323 08       		.byte	0x8
 874 0324 1501     		.2byte	0x115
 875 0326 9E020000 		.4byte	0x29e
 876 032a 1C       		.byte	0x1c
 877 032b 0C       		.uleb128 0xc
 878 032c 73323400 		.ascii	"s24\000"
 879 0330 08       		.byte	0x8
 880 0331 1601     		.2byte	0x116
 881 0333 9E020000 		.4byte	0x29e
 882 0337 20       		.byte	0x20
 883 0338 0C       		.uleb128 0xc
 884 0339 73323500 		.ascii	"s25\000"
 885 033d 08       		.byte	0x8
 886 033e 1701     		.2byte	0x117
 887 0340 9E020000 		.4byte	0x29e
 888 0344 24       		.byte	0x24
 889 0345 0C       		.uleb128 0xc
 890 0346 73323600 		.ascii	"s26\000"
 891 034a 08       		.byte	0x8
 892 034b 1801     		.2byte	0x118
 893 034d 9E020000 		.4byte	0x29e
 894 0351 28       		.byte	0x28
 895 0352 0C       		.uleb128 0xc
 896 0353 73323700 		.ascii	"s27\000"
 897 0357 08       		.byte	0x8
 898 0358 1901     		.2byte	0x119
 899 035a 9E020000 		.4byte	0x29e
 900 035e 2C       		.byte	0x2c
ARM GAS  /tmp/cc0psXLf.s 			page 17


 901 035f 0C       		.uleb128 0xc
 902 0360 73323800 		.ascii	"s28\000"
 903 0364 08       		.byte	0x8
 904 0365 1A01     		.2byte	0x11a
 905 0367 9E020000 		.4byte	0x29e
 906 036b 30       		.byte	0x30
 907 036c 0C       		.uleb128 0xc
 908 036d 73323900 		.ascii	"s29\000"
 909 0371 08       		.byte	0x8
 910 0372 1B01     		.2byte	0x11b
 911 0374 9E020000 		.4byte	0x29e
 912 0378 34       		.byte	0x34
 913 0379 0C       		.uleb128 0xc
 914 037a 73333000 		.ascii	"s30\000"
 915 037e 08       		.byte	0x8
 916 037f 1C01     		.2byte	0x11c
 917 0381 9E020000 		.4byte	0x29e
 918 0385 38       		.byte	0x38
 919 0386 0C       		.uleb128 0xc
 920 0387 73333100 		.ascii	"s31\000"
 921 038b 08       		.byte	0x8
 922 038c 1D01     		.2byte	0x11d
 923 038e 9E020000 		.4byte	0x29e
 924 0392 3C       		.byte	0x3c
 925 0393 0C       		.uleb128 0xc
 926 0394 723400   		.ascii	"r4\000"
 927 0397 08       		.byte	0x8
 928 0398 1F01     		.2byte	0x11f
 929 039a 9E020000 		.4byte	0x29e
 930 039e 40       		.byte	0x40
 931 039f 0C       		.uleb128 0xc
 932 03a0 723500   		.ascii	"r5\000"
 933 03a3 08       		.byte	0x8
 934 03a4 2001     		.2byte	0x120
 935 03a6 9E020000 		.4byte	0x29e
 936 03aa 44       		.byte	0x44
 937 03ab 0C       		.uleb128 0xc
 938 03ac 723600   		.ascii	"r6\000"
 939 03af 08       		.byte	0x8
 940 03b0 2101     		.2byte	0x121
 941 03b2 9E020000 		.4byte	0x29e
 942 03b6 48       		.byte	0x48
 943 03b7 0C       		.uleb128 0xc
 944 03b8 723700   		.ascii	"r7\000"
 945 03bb 08       		.byte	0x8
 946 03bc 2201     		.2byte	0x122
 947 03be 9E020000 		.4byte	0x29e
 948 03c2 4C       		.byte	0x4c
 949 03c3 0C       		.uleb128 0xc
 950 03c4 723800   		.ascii	"r8\000"
 951 03c7 08       		.byte	0x8
 952 03c8 2301     		.2byte	0x123
 953 03ca 9E020000 		.4byte	0x29e
 954 03ce 50       		.byte	0x50
 955 03cf 0C       		.uleb128 0xc
 956 03d0 723900   		.ascii	"r9\000"
 957 03d3 08       		.byte	0x8
ARM GAS  /tmp/cc0psXLf.s 			page 18


 958 03d4 2401     		.2byte	0x124
 959 03d6 9E020000 		.4byte	0x29e
 960 03da 54       		.byte	0x54
 961 03db 0C       		.uleb128 0xc
 962 03dc 72313000 		.ascii	"r10\000"
 963 03e0 08       		.byte	0x8
 964 03e1 2501     		.2byte	0x125
 965 03e3 9E020000 		.4byte	0x29e
 966 03e7 58       		.byte	0x58
 967 03e8 0C       		.uleb128 0xc
 968 03e9 72313100 		.ascii	"r11\000"
 969 03ed 08       		.byte	0x8
 970 03ee 2601     		.2byte	0x126
 971 03f0 9E020000 		.4byte	0x29e
 972 03f4 5C       		.byte	0x5c
 973 03f5 0C       		.uleb128 0xc
 974 03f6 6C7200   		.ascii	"lr\000"
 975 03f9 08       		.byte	0x8
 976 03fa 2701     		.2byte	0x127
 977 03fc 9E020000 		.4byte	0x29e
 978 0400 60       		.byte	0x60
 979 0401 00       		.byte	0
 980 0402 0B       		.uleb128 0xb
 981 0403 5C010000 		.4byte	.LASF54
 982 0407 04       		.byte	0x4
 983 0408 08       		.byte	0x8
 984 0409 3101     		.2byte	0x131
 985 040b 1D040000 		.4byte	0x41d
 986 040f 0C       		.uleb128 0xc
 987 0410 72313300 		.ascii	"r13\000"
 988 0414 08       		.byte	0x8
 989 0415 3201     		.2byte	0x132
 990 0417 1D040000 		.4byte	0x41d
 991 041b 00       		.byte	0
 992 041c 00       		.byte	0
 993 041d 09       		.uleb128 0x9
 994 041e 04       		.byte	0x4
 995 041f B6020000 		.4byte	0x2b6
 996 0423 04       		.uleb128 0x4
 997 0424 04       		.byte	0x4
 998 0425 07       		.byte	0x7
 999 0426 BD010000 		.4byte	.LASF55
 1000 042a 0D       		.uleb128 0xd
 1001 042b 2D010000 		.4byte	0x12d
 1002 042f 05       		.uleb128 0x5
 1003 0430 A2010000 		.4byte	.LASF56
 1004 0434 10       		.byte	0x10
 1005 0435 09       		.byte	0x9
 1006 0436 2C       		.byte	0x2c
 1007 0437 60040000 		.4byte	0x460
 1008 043b 06       		.uleb128 0x6
 1009 043c A9000000 		.4byte	.LASF57
 1010 0440 09       		.byte	0x9
 1011 0441 2D       		.byte	0x2d
 1012 0442 73020000 		.4byte	0x273
 1013 0446 00       		.byte	0
 1014 0447 06       		.uleb128 0x6
ARM GAS  /tmp/cc0psXLf.s 			page 19


 1015 0448 CB040000 		.4byte	.LASF58
 1016 044c 09       		.byte	0x9
 1017 044d 2F       		.byte	0x2f
 1018 044e 6D020000 		.4byte	0x26d
 1019 0452 08       		.byte	0x8
 1020 0453 06       		.uleb128 0x6
 1021 0454 08040000 		.4byte	.LASF59
 1022 0458 09       		.byte	0x9
 1023 0459 31       		.byte	0x31
 1024 045a 60040000 		.4byte	0x460
 1025 045e 0C       		.byte	0xc
 1026 045f 00       		.byte	0
 1027 0460 09       		.uleb128 0x9
 1028 0461 04       		.byte	0x4
 1029 0462 2F040000 		.4byte	0x42f
 1030 0466 03       		.uleb128 0x3
 1031 0467 A2010000 		.4byte	.LASF56
 1032 046b 09       		.byte	0x9
 1033 046c 33       		.byte	0x33
 1034 046d 2F040000 		.4byte	0x42f
 1035 0471 03       		.uleb128 0x3
 1036 0472 27000000 		.4byte	.LASF60
 1037 0476 0A       		.byte	0xa
 1038 0477 2C       		.byte	0x2c
 1039 0478 7C040000 		.4byte	0x47c
 1040 047c 09       		.uleb128 0x9
 1041 047d 04       		.byte	0x4
 1042 047e 82040000 		.4byte	0x482
 1043 0482 0E       		.uleb128 0xe
 1044 0483 A9020000 		.4byte	0x2a9
 1045 0487 91040000 		.4byte	0x491
 1046 048b 0F       		.uleb128 0xf
 1047 048c 2C000000 		.4byte	0x2c
 1048 0490 00       		.byte	0
 1049 0491 03       		.uleb128 0x3
 1050 0492 EE010000 		.4byte	.LASF61
 1051 0496 0B       		.byte	0xb
 1052 0497 34       		.byte	0x34
 1053 0498 9C040000 		.4byte	0x49c
 1054 049c 05       		.uleb128 0x5
 1055 049d E3040000 		.4byte	.LASF62
 1056 04a1 20       		.byte	0x20
 1057 04a2 0B       		.byte	0xb
 1058 04a3 47       		.byte	0x47
 1059 04a4 CD040000 		.4byte	0x4cd
 1060 04a8 06       		.uleb128 0x6
 1061 04a9 55020000 		.4byte	.LASF63
 1062 04ad 0B       		.byte	0xb
 1063 04ae 48       		.byte	0x48
 1064 04af 71040000 		.4byte	0x471
 1065 04b3 00       		.byte	0
 1066 04b4 06       		.uleb128 0x6
 1067 04b5 4B000000 		.4byte	.LASF64
 1068 04b9 0B       		.byte	0xb
 1069 04ba 4A       		.byte	0x4a
 1070 04bb EC040000 		.4byte	0x4ec
 1071 04bf 08       		.byte	0x8
ARM GAS  /tmp/cc0psXLf.s 			page 20


 1072 04c0 06       		.uleb128 0x6
 1073 04c1 94000000 		.4byte	.LASF65
 1074 04c5 0B       		.byte	0xb
 1075 04c6 4C       		.byte	0x4c
 1076 04c7 66040000 		.4byte	0x466
 1077 04cb 10       		.byte	0x10
 1078 04cc 00       		.byte	0
 1079 04cd 10       		.uleb128 0x10
 1080 04ce 04       		.byte	0x4
 1081 04cf 0B       		.byte	0xb
 1082 04d0 3C       		.byte	0x3c
 1083 04d1 EC040000 		.4byte	0x4ec
 1084 04d5 11       		.uleb128 0x11
 1085 04d6 62000000 		.4byte	.LASF66
 1086 04da 0B       		.byte	0xb
 1087 04db 3D       		.byte	0x3d
 1088 04dc 0D050000 		.4byte	0x50d
 1089 04e0 11       		.uleb128 0x11
 1090 04e1 F1030000 		.4byte	.LASF67
 1091 04e5 0B       		.byte	0xb
 1092 04e6 3E       		.byte	0x3e
 1093 04e7 13050000 		.4byte	0x513
 1094 04eb 00       		.byte	0
 1095 04ec 12       		.uleb128 0x12
 1096 04ed 86020000 		.4byte	.LASF80
 1097 04f1 08       		.byte	0x8
 1098 04f2 0B       		.byte	0xb
 1099 04f3 39       		.byte	0x39
 1100 04f4 0D050000 		.4byte	0x50d
 1101 04f8 11       		.uleb128 0x11
 1102 04f9 1E010000 		.4byte	.LASF68
 1103 04fd 0B       		.byte	0xb
 1104 04fe 3A       		.byte	0x3a
 1105 04ff AB020000 		.4byte	0x2ab
 1106 0503 13       		.uleb128 0x13
 1107 0504 6800     		.ascii	"h\000"
 1108 0506 0B       		.byte	0xb
 1109 0507 41       		.byte	0x41
 1110 0508 19050000 		.4byte	0x519
 1111 050c 00       		.byte	0
 1112 050d 09       		.uleb128 0x9
 1113 050e 04       		.byte	0x4
 1114 050f EC040000 		.4byte	0x4ec
 1115 0513 09       		.uleb128 0x9
 1116 0514 04       		.byte	0x4
 1117 0515 91040000 		.4byte	0x491
 1118 0519 08       		.uleb128 0x8
 1119 051a 08       		.byte	0x8
 1120 051b 0B       		.byte	0xb
 1121 051c 3B       		.byte	0x3b
 1122 051d 38050000 		.4byte	0x538
 1123 0521 07       		.uleb128 0x7
 1124 0522 7500     		.ascii	"u\000"
 1125 0524 0B       		.byte	0xb
 1126 0525 3F       		.byte	0x3f
 1127 0526 CD040000 		.4byte	0x4cd
 1128 052a 00       		.byte	0
ARM GAS  /tmp/cc0psXLf.s 			page 21


 1129 052b 06       		.uleb128 0x6
 1130 052c 64010000 		.4byte	.LASF69
 1131 0530 0B       		.byte	0xb
 1132 0531 40       		.byte	0x40
 1133 0532 2C000000 		.4byte	0x2c
 1134 0536 04       		.byte	0x4
 1135 0537 00       		.byte	0
 1136 0538 10       		.uleb128 0x10
 1137 0539 04       		.byte	0x4
 1138 053a 07       		.byte	0x7
 1139 053b 96       		.byte	0x96
 1140 053c 6D050000 		.4byte	0x56d
 1141 0540 11       		.uleb128 0x11
 1142 0541 0D000000 		.4byte	.LASF70
 1143 0545 07       		.byte	0x7
 1144 0546 9D       		.byte	0x9d
 1145 0547 17010000 		.4byte	0x117
 1146 054b 11       		.uleb128 0x11
 1147 054c F3000000 		.4byte	.LASF71
 1148 0550 07       		.byte	0x7
 1149 0551 A4       		.byte	0xa4
 1150 0552 17010000 		.4byte	0x117
 1151 0556 11       		.uleb128 0x11
 1152 0557 B0040000 		.4byte	.LASF72
 1153 055b 07       		.byte	0x7
 1154 055c AB       		.byte	0xab
 1155 055d A9020000 		.4byte	0x2a9
 1156 0561 11       		.uleb128 0x11
 1157 0562 92020000 		.4byte	.LASF73
 1158 0566 07       		.byte	0x7
 1159 0567 B2       		.byte	0xb2
 1160 0568 22010000 		.4byte	0x122
 1161 056c 00       		.byte	0
 1162 056d 09       		.uleb128 0x9
 1163 056e 04       		.byte	0x4
 1164 056f 73050000 		.4byte	0x573
 1165 0573 14       		.uleb128 0x14
 1166 0574 78050000 		.4byte	0x578
 1167 0578 04       		.uleb128 0x4
 1168 0579 01       		.byte	0x1
 1169 057a 08       		.byte	0x8
 1170 057b F6030000 		.4byte	.LASF74
 1171 057f 09       		.uleb128 0x9
 1172 0580 04       		.byte	0x4
 1173 0581 AB020000 		.4byte	0x2ab
 1174 0585 09       		.uleb128 0x9
 1175 0586 04       		.byte	0x4
 1176 0587 66040000 		.4byte	0x466
 1177 058b 05       		.uleb128 0x5
 1178 058c D4030000 		.4byte	.LASF75
 1179 0590 10       		.byte	0x10
 1180 0591 0C       		.byte	0xc
 1181 0592 3B       		.byte	0x3b
 1182 0593 C8050000 		.4byte	0x5c8
 1183 0597 06       		.uleb128 0x6
 1184 0598 57010000 		.4byte	.LASF76
 1185 059c 0C       		.byte	0xc
ARM GAS  /tmp/cc0psXLf.s 			page 22


 1186 059d 3C       		.byte	0x3c
 1187 059e 6D050000 		.4byte	0x56d
 1188 05a2 00       		.byte	0
 1189 05a3 06       		.uleb128 0x6
 1190 05a4 E8010000 		.4byte	.LASF77
 1191 05a8 0C       		.byte	0xc
 1192 05a9 3D       		.byte	0x3d
 1193 05aa C9050000 		.4byte	0x5c9
 1194 05ae 04       		.byte	0x4
 1195 05af 06       		.uleb128 0x6
 1196 05b0 4E010000 		.4byte	.LASF78
 1197 05b4 0C       		.byte	0xc
 1198 05b5 3E       		.byte	0x3e
 1199 05b6 C9050000 		.4byte	0x5c9
 1200 05ba 08       		.byte	0x8
 1201 05bb 06       		.uleb128 0x6
 1202 05bc 13020000 		.4byte	.LASF79
 1203 05c0 0C       		.byte	0xc
 1204 05c1 3F       		.byte	0x3f
 1205 05c2 C9050000 		.4byte	0x5c9
 1206 05c6 0C       		.byte	0xc
 1207 05c7 00       		.byte	0
 1208 05c8 15       		.uleb128 0x15
 1209 05c9 09       		.uleb128 0x9
 1210 05ca 04       		.byte	0x4
 1211 05cb C8050000 		.4byte	0x5c8
 1212 05cf 16       		.uleb128 0x16
 1213 05d0 3809     		.2byte	0x938
 1214 05d2 0C       		.byte	0xc
 1215 05d3 44       		.byte	0x44
 1216 05d4 14060000 		.4byte	0x614
 1217 05d8 07       		.uleb128 0x7
 1218 05d9 543000   		.ascii	"T0\000"
 1219 05dc 0C       		.byte	0xc
 1220 05dd 45       		.byte	0x45
 1221 05de 14060000 		.4byte	0x614
 1222 05e2 00       		.byte	0
 1223 05e3 17       		.uleb128 0x17
 1224 05e4 543100   		.ascii	"T1\000"
 1225 05e7 0C       		.byte	0xc
 1226 05e8 46       		.byte	0x46
 1227 05e9 14060000 		.4byte	0x614
 1228 05ed D801     		.2byte	0x1d8
 1229 05ef 17       		.uleb128 0x17
 1230 05f0 543200   		.ascii	"T2\000"
 1231 05f3 0C       		.byte	0xc
 1232 05f4 47       		.byte	0x47
 1233 05f5 14060000 		.4byte	0x614
 1234 05f9 B003     		.2byte	0x3b0
 1235 05fb 17       		.uleb128 0x17
 1236 05fc 543300   		.ascii	"T3\000"
 1237 05ff 0C       		.byte	0xc
 1238 0600 48       		.byte	0x48
 1239 0601 14060000 		.4byte	0x614
 1240 0605 8805     		.2byte	0x588
 1241 0607 17       		.uleb128 0x17
 1242 0608 543400   		.ascii	"T4\000"
ARM GAS  /tmp/cc0psXLf.s 			page 23


 1243 060b 0C       		.byte	0xc
 1244 060c 49       		.byte	0x49
 1245 060d 14060000 		.4byte	0x614
 1246 0611 6007     		.2byte	0x760
 1247 0613 00       		.byte	0
 1248 0614 18       		.uleb128 0x18
 1249 0615 AB020000 		.4byte	0x2ab
 1250 0619 24060000 		.4byte	0x624
 1251 061d 19       		.uleb128 0x19
 1252 061e 23040000 		.4byte	0x423
 1253 0622 3A       		.byte	0x3a
 1254 0623 00       		.byte	0
 1255 0624 1A       		.uleb128 0x1a
 1256 0625 8A040000 		.4byte	.LASF81
 1257 0629 3809     		.2byte	0x938
 1258 062b 0C       		.byte	0xc
 1259 062c 43       		.byte	0x43
 1260 062d 47060000 		.4byte	0x647
 1261 0631 13       		.uleb128 0x13
 1262 0632 776100   		.ascii	"wa\000"
 1263 0635 0C       		.byte	0xc
 1264 0636 4A       		.byte	0x4a
 1265 0637 CF050000 		.4byte	0x5cf
 1266 063b 11       		.uleb128 0x11
 1267 063c E4000000 		.4byte	.LASF82
 1268 0640 0C       		.byte	0xc
 1269 0641 4B       		.byte	0x4b
 1270 0642 47060000 		.4byte	0x647
 1271 0646 00       		.byte	0
 1272 0647 18       		.uleb128 0x18
 1273 0648 A2000000 		.4byte	0xa2
 1274 064c 58060000 		.4byte	0x658
 1275 0650 1B       		.uleb128 0x1b
 1276 0651 23040000 		.4byte	0x423
 1277 0655 3709     		.2byte	0x937
 1278 0657 00       		.byte	0
 1279 0658 1C       		.uleb128 0x1c
 1280 0659 10010000 		.4byte	.LASF83
 1281 065d 01       		.byte	0x1
 1282 065e 45       		.byte	0x45
 1283 065f 00000000 		.4byte	.LFB8
 1284 0663 44020000 		.4byte	.LFE8-.LFB8
 1285 0667 01       		.uleb128 0x1
 1286 0668 9C       		.byte	0x9c
 1287 0669 CC0B0000 		.4byte	0xbcc
 1288 066d 1D       		.uleb128 0x1d
 1289 066e 703100   		.ascii	"p1\000"
 1290 0671 01       		.byte	0x1
 1291 0672 46       		.byte	0x46
 1292 0673 A9020000 		.4byte	0x2a9
 1293 0677 00000000 		.4byte	.LLST0
 1294 067b 1D       		.uleb128 0x1d
 1295 067c 703200   		.ascii	"p2\000"
 1296 067f 01       		.byte	0x1
 1297 0680 46       		.byte	0x46
 1298 0681 A9020000 		.4byte	0x2a9
 1299 0685 C3000000 		.4byte	.LLST1
ARM GAS  /tmp/cc0psXLf.s 			page 24


 1300 0689 1D       		.uleb128 0x1d
 1301 068a 703300   		.ascii	"p3\000"
 1302 068d 01       		.byte	0x1
 1303 068e 46       		.byte	0x46
 1304 068f A9020000 		.4byte	0x2a9
 1305 0693 2E010000 		.4byte	.LLST2
 1306 0697 1E       		.uleb128 0x1e
 1307 0698 6E00     		.ascii	"n\000"
 1308 069a 01       		.byte	0x1
 1309 069b 47       		.byte	0x47
 1310 069c 2C000000 		.4byte	0x2c
 1311 06a0 02       		.uleb128 0x2
 1312 06a1 91       		.byte	0x91
 1313 06a2 68       		.sleb128 -24
 1314 06a3 1E       		.uleb128 0x1e
 1315 06a4 737A00   		.ascii	"sz\000"
 1316 06a7 01       		.byte	0x1
 1317 06a8 47       		.byte	0x47
 1318 06a9 2C000000 		.4byte	0x2c
 1319 06ad 02       		.uleb128 0x2
 1320 06ae 91       		.byte	0x91
 1321 06af 6C       		.sleb128 -20
 1322 06b0 1F       		.uleb128 0x1f
 1323 06b1 08000000 		.4byte	.LVL0
 1324 06b5 5A0C0000 		.4byte	0xc5a
 1325 06b9 20       		.uleb128 0x20
 1326 06ba 10000000 		.4byte	.LVL1
 1327 06be 650C0000 		.4byte	0xc65
 1328 06c2 D2060000 		.4byte	0x6d2
 1329 06c6 21       		.uleb128 0x21
 1330 06c7 01       		.uleb128 0x1
 1331 06c8 51       		.byte	0x51
 1332 06c9 02       		.uleb128 0x2
 1333 06ca 91       		.byte	0x91
 1334 06cb 6C       		.sleb128 -20
 1335 06cc 21       		.uleb128 0x21
 1336 06cd 01       		.uleb128 0x1
 1337 06ce 50       		.byte	0x50
 1338 06cf 01       		.uleb128 0x1
 1339 06d0 30       		.byte	0x30
 1340 06d1 00       		.byte	0
 1341 06d2 20       		.uleb128 0x20
 1342 06d3 18000000 		.4byte	.LVL2
 1343 06d7 850C0000 		.4byte	0xc85
 1344 06db EA060000 		.4byte	0x6ea
 1345 06df 21       		.uleb128 0x21
 1346 06e0 01       		.uleb128 0x1
 1347 06e1 51       		.byte	0x51
 1348 06e2 01       		.uleb128 0x1
 1349 06e3 40       		.byte	0x40
 1350 06e4 21       		.uleb128 0x21
 1351 06e5 01       		.uleb128 0x1
 1352 06e6 50       		.byte	0x50
 1353 06e7 01       		.uleb128 0x1
 1354 06e8 30       		.byte	0x30
 1355 06e9 00       		.byte	0
 1356 06ea 20       		.uleb128 0x20
ARM GAS  /tmp/cc0psXLf.s 			page 25


 1357 06eb 26000000 		.4byte	.LVL4
 1358 06ef 9F0C0000 		.4byte	0xc9f
 1359 06f3 0D070000 		.4byte	0x70d
 1360 06f7 21       		.uleb128 0x21
 1361 06f8 01       		.uleb128 0x1
 1362 06f9 51       		.byte	0x51
 1363 06fa 0C       		.uleb128 0xc
 1364 06fb 31       		.byte	0x31
 1365 06fc 74       		.byte	0x74
 1366 06fd 00       		.sleb128 0
 1367 06fe 74       		.byte	0x74
 1368 06ff 00       		.sleb128 0
 1369 0700 30       		.byte	0x30
 1370 0701 2E       		.byte	0x2e
 1371 0702 28       		.byte	0x28
 1372 0703 0100     		.2byte	0x1
 1373 0705 16       		.byte	0x16
 1374 0706 13       		.byte	0x13
 1375 0707 21       		.uleb128 0x21
 1376 0708 01       		.uleb128 0x1
 1377 0709 50       		.byte	0x50
 1378 070a 01       		.uleb128 0x1
 1379 070b 31       		.byte	0x31
 1380 070c 00       		.byte	0
 1381 070d 20       		.uleb128 0x20
 1382 070e 34000000 		.4byte	.LVL7
 1383 0712 B90C0000 		.4byte	0xcb9
 1384 0716 21070000 		.4byte	0x721
 1385 071a 21       		.uleb128 0x21
 1386 071b 01       		.uleb128 0x1
 1387 071c 50       		.byte	0x50
 1388 071d 02       		.uleb128 0x2
 1389 071e 74       		.byte	0x74
 1390 071f 00       		.sleb128 0
 1391 0720 00       		.byte	0
 1392 0721 20       		.uleb128 0x20
 1393 0722 3E000000 		.4byte	.LVL8
 1394 0726 850C0000 		.4byte	0xc85
 1395 072a 3C070000 		.4byte	0x73c
 1396 072e 21       		.uleb128 0x21
 1397 072f 01       		.uleb128 0x1
 1398 0730 51       		.byte	0x51
 1399 0731 03       		.uleb128 0x3
 1400 0732 0B       		.byte	0xb
 1401 0733 00FF     		.2byte	0xff00
 1402 0735 21       		.uleb128 0x21
 1403 0736 01       		.uleb128 0x1
 1404 0737 50       		.byte	0x50
 1405 0738 02       		.uleb128 0x2
 1406 0739 75       		.byte	0x75
 1407 073a 00       		.sleb128 0
 1408 073b 00       		.byte	0
 1409 073c 20       		.uleb128 0x20
 1410 073d 4C000000 		.4byte	.LVL10
 1411 0741 9F0C0000 		.4byte	0xc9f
 1412 0745 4F070000 		.4byte	0x74f
 1413 0749 21       		.uleb128 0x21
ARM GAS  /tmp/cc0psXLf.s 			page 26


 1414 074a 01       		.uleb128 0x1
 1415 074b 50       		.byte	0x50
 1416 074c 01       		.uleb128 0x1
 1417 074d 32       		.byte	0x32
 1418 074e 00       		.byte	0
 1419 074f 20       		.uleb128 0x20
 1420 0750 58000000 		.4byte	.LVL11
 1421 0754 650C0000 		.4byte	0xc65
 1422 0758 6C070000 		.4byte	0x76c
 1423 075c 21       		.uleb128 0x21
 1424 075d 01       		.uleb128 0x1
 1425 075e 51       		.byte	0x51
 1426 075f 02       		.uleb128 0x2
 1427 0760 91       		.byte	0x91
 1428 0761 6C       		.sleb128 -20
 1429 0762 21       		.uleb128 0x21
 1430 0763 01       		.uleb128 0x1
 1431 0764 50       		.byte	0x50
 1432 0765 05       		.uleb128 0x5
 1433 0766 03       		.byte	0x3
 1434 0767 00000000 		.4byte	.LANCHOR0
 1435 076b 00       		.byte	0
 1436 076c 20       		.uleb128 0x20
 1437 076d 60000000 		.4byte	.LVL12
 1438 0771 850C0000 		.4byte	0xc85
 1439 0775 88070000 		.4byte	0x788
 1440 0779 21       		.uleb128 0x21
 1441 077a 01       		.uleb128 0x1
 1442 077b 51       		.byte	0x51
 1443 077c 01       		.uleb128 0x1
 1444 077d 40       		.byte	0x40
 1445 077e 21       		.uleb128 0x21
 1446 077f 01       		.uleb128 0x1
 1447 0780 50       		.byte	0x50
 1448 0781 05       		.uleb128 0x5
 1449 0782 03       		.byte	0x3
 1450 0783 00000000 		.4byte	.LANCHOR0
 1451 0787 00       		.byte	0
 1452 0788 20       		.uleb128 0x20
 1453 0789 6A000000 		.4byte	.LVL15
 1454 078d 850C0000 		.4byte	0xc85
 1455 0791 A4070000 		.4byte	0x7a4
 1456 0795 21       		.uleb128 0x21
 1457 0796 01       		.uleb128 0x1
 1458 0797 51       		.byte	0x51
 1459 0798 01       		.uleb128 0x1
 1460 0799 40       		.byte	0x40
 1461 079a 21       		.uleb128 0x21
 1462 079b 01       		.uleb128 0x1
 1463 079c 50       		.byte	0x50
 1464 079d 05       		.uleb128 0x5
 1465 079e 03       		.byte	0x3
 1466 079f 00000000 		.4byte	.LANCHOR0
 1467 07a3 00       		.byte	0
 1468 07a4 20       		.uleb128 0x20
 1469 07a5 74000000 		.4byte	.LVL18
 1470 07a9 850C0000 		.4byte	0xc85
ARM GAS  /tmp/cc0psXLf.s 			page 27


 1471 07ad C0070000 		.4byte	0x7c0
 1472 07b1 21       		.uleb128 0x21
 1473 07b2 01       		.uleb128 0x1
 1474 07b3 51       		.byte	0x51
 1475 07b4 01       		.uleb128 0x1
 1476 07b5 40       		.byte	0x40
 1477 07b6 21       		.uleb128 0x21
 1478 07b7 01       		.uleb128 0x1
 1479 07b8 50       		.byte	0x50
 1480 07b9 05       		.uleb128 0x5
 1481 07ba 03       		.byte	0x3
 1482 07bb 00000000 		.4byte	.LANCHOR0
 1483 07bf 00       		.byte	0
 1484 07c0 20       		.uleb128 0x20
 1485 07c1 7C000000 		.4byte	.LVL21
 1486 07c5 B90C0000 		.4byte	0xcb9
 1487 07c9 D4070000 		.4byte	0x7d4
 1488 07cd 21       		.uleb128 0x21
 1489 07ce 01       		.uleb128 0x1
 1490 07cf 50       		.byte	0x50
 1491 07d0 02       		.uleb128 0x2
 1492 07d1 75       		.byte	0x75
 1493 07d2 00       		.sleb128 0
 1494 07d3 00       		.byte	0
 1495 07d4 20       		.uleb128 0x20
 1496 07d5 82000000 		.4byte	.LVL22
 1497 07d9 B90C0000 		.4byte	0xcb9
 1498 07dd E8070000 		.4byte	0x7e8
 1499 07e1 21       		.uleb128 0x21
 1500 07e2 01       		.uleb128 0x1
 1501 07e3 50       		.byte	0x50
 1502 07e4 02       		.uleb128 0x2
 1503 07e5 74       		.byte	0x74
 1504 07e6 00       		.sleb128 0
 1505 07e7 00       		.byte	0
 1506 07e8 20       		.uleb128 0x20
 1507 07e9 88000000 		.4byte	.LVL23
 1508 07ed B90C0000 		.4byte	0xcb9
 1509 07f1 FC070000 		.4byte	0x7fc
 1510 07f5 21       		.uleb128 0x21
 1511 07f6 01       		.uleb128 0x1
 1512 07f7 50       		.byte	0x50
 1513 07f8 02       		.uleb128 0x2
 1514 07f9 76       		.byte	0x76
 1515 07fa 00       		.sleb128 0
 1516 07fb 00       		.byte	0
 1517 07fc 20       		.uleb128 0x20
 1518 07fd 90000000 		.4byte	.LVL24
 1519 0801 650C0000 		.4byte	0xc65
 1520 0805 19080000 		.4byte	0x819
 1521 0809 21       		.uleb128 0x21
 1522 080a 01       		.uleb128 0x1
 1523 080b 51       		.byte	0x51
 1524 080c 02       		.uleb128 0x2
 1525 080d 7D       		.byte	0x7d
 1526 080e 00       		.sleb128 0
 1527 080f 21       		.uleb128 0x21
ARM GAS  /tmp/cc0psXLf.s 			page 28


 1528 0810 01       		.uleb128 0x1
 1529 0811 50       		.byte	0x50
 1530 0812 05       		.uleb128 0x5
 1531 0813 03       		.byte	0x3
 1532 0814 00000000 		.4byte	.LANCHOR0
 1533 0818 00       		.byte	0
 1534 0819 20       		.uleb128 0x20
 1535 081a 9C000000 		.4byte	.LVL25
 1536 081e 9F0C0000 		.4byte	0xc9f
 1537 0822 2C080000 		.4byte	0x82c
 1538 0826 21       		.uleb128 0x21
 1539 0827 01       		.uleb128 0x1
 1540 0828 50       		.byte	0x50
 1541 0829 01       		.uleb128 0x1
 1542 082a 33       		.byte	0x33
 1543 082b 00       		.byte	0
 1544 082c 20       		.uleb128 0x20
 1545 082d A8000000 		.4byte	.LVL26
 1546 0831 850C0000 		.4byte	0xc85
 1547 0835 48080000 		.4byte	0x848
 1548 0839 21       		.uleb128 0x21
 1549 083a 01       		.uleb128 0x1
 1550 083b 51       		.byte	0x51
 1551 083c 01       		.uleb128 0x1
 1552 083d 40       		.byte	0x40
 1553 083e 21       		.uleb128 0x21
 1554 083f 01       		.uleb128 0x1
 1555 0840 50       		.byte	0x50
 1556 0841 05       		.uleb128 0x5
 1557 0842 03       		.byte	0x3
 1558 0843 00000000 		.4byte	.LANCHOR0
 1559 0847 00       		.byte	0
 1560 0848 20       		.uleb128 0x20
 1561 0849 B2000000 		.4byte	.LVL29
 1562 084d 850C0000 		.4byte	0xc85
 1563 0851 64080000 		.4byte	0x864
 1564 0855 21       		.uleb128 0x21
 1565 0856 01       		.uleb128 0x1
 1566 0857 51       		.byte	0x51
 1567 0858 01       		.uleb128 0x1
 1568 0859 40       		.byte	0x40
 1569 085a 21       		.uleb128 0x21
 1570 085b 01       		.uleb128 0x1
 1571 085c 50       		.byte	0x50
 1572 085d 05       		.uleb128 0x5
 1573 085e 03       		.byte	0x3
 1574 085f 00000000 		.4byte	.LANCHOR0
 1575 0863 00       		.byte	0
 1576 0864 20       		.uleb128 0x20
 1577 0865 BC000000 		.4byte	.LVL32
 1578 0869 850C0000 		.4byte	0xc85
 1579 086d 80080000 		.4byte	0x880
 1580 0871 21       		.uleb128 0x21
 1581 0872 01       		.uleb128 0x1
 1582 0873 51       		.byte	0x51
 1583 0874 01       		.uleb128 0x1
 1584 0875 40       		.byte	0x40
ARM GAS  /tmp/cc0psXLf.s 			page 29


 1585 0876 21       		.uleb128 0x21
 1586 0877 01       		.uleb128 0x1
 1587 0878 50       		.byte	0x50
 1588 0879 05       		.uleb128 0x5
 1589 087a 03       		.byte	0x3
 1590 087b 00000000 		.4byte	.LANCHOR0
 1591 087f 00       		.byte	0
 1592 0880 1F       		.uleb128 0x1f
 1593 0881 C0000000 		.4byte	.LVL33
 1594 0885 B90C0000 		.4byte	0xcb9
 1595 0889 20       		.uleb128 0x20
 1596 088a C6000000 		.4byte	.LVL34
 1597 088e B90C0000 		.4byte	0xcb9
 1598 0892 9D080000 		.4byte	0x89d
 1599 0896 21       		.uleb128 0x21
 1600 0897 01       		.uleb128 0x1
 1601 0898 50       		.byte	0x50
 1602 0899 02       		.uleb128 0x2
 1603 089a 75       		.byte	0x75
 1604 089b 00       		.sleb128 0
 1605 089c 00       		.byte	0
 1606 089d 20       		.uleb128 0x20
 1607 089e CC000000 		.4byte	.LVL35
 1608 08a2 B90C0000 		.4byte	0xcb9
 1609 08a6 B1080000 		.4byte	0x8b1
 1610 08aa 21       		.uleb128 0x21
 1611 08ab 01       		.uleb128 0x1
 1612 08ac 50       		.byte	0x50
 1613 08ad 02       		.uleb128 0x2
 1614 08ae 74       		.byte	0x74
 1615 08af 00       		.sleb128 0
 1616 08b0 00       		.byte	0
 1617 08b1 20       		.uleb128 0x20
 1618 08b2 D4000000 		.4byte	.LVL36
 1619 08b6 650C0000 		.4byte	0xc65
 1620 08ba CE080000 		.4byte	0x8ce
 1621 08be 21       		.uleb128 0x21
 1622 08bf 01       		.uleb128 0x1
 1623 08c0 51       		.byte	0x51
 1624 08c1 02       		.uleb128 0x2
 1625 08c2 7D       		.byte	0x7d
 1626 08c3 00       		.sleb128 0
 1627 08c4 21       		.uleb128 0x21
 1628 08c5 01       		.uleb128 0x1
 1629 08c6 50       		.byte	0x50
 1630 08c7 05       		.uleb128 0x5
 1631 08c8 03       		.byte	0x3
 1632 08c9 00000000 		.4byte	.LANCHOR0
 1633 08cd 00       		.byte	0
 1634 08ce 20       		.uleb128 0x20
 1635 08cf E0000000 		.4byte	.LVL37
 1636 08d3 9F0C0000 		.4byte	0xc9f
 1637 08d7 E1080000 		.4byte	0x8e1
 1638 08db 21       		.uleb128 0x21
 1639 08dc 01       		.uleb128 0x1
 1640 08dd 50       		.byte	0x50
 1641 08de 01       		.uleb128 0x1
ARM GAS  /tmp/cc0psXLf.s 			page 30


 1642 08df 34       		.byte	0x34
 1643 08e0 00       		.byte	0
 1644 08e1 20       		.uleb128 0x20
 1645 08e2 EC000000 		.4byte	.LVL38
 1646 08e6 850C0000 		.4byte	0xc85
 1647 08ea FD080000 		.4byte	0x8fd
 1648 08ee 21       		.uleb128 0x21
 1649 08ef 01       		.uleb128 0x1
 1650 08f0 51       		.byte	0x51
 1651 08f1 01       		.uleb128 0x1
 1652 08f2 41       		.byte	0x41
 1653 08f3 21       		.uleb128 0x21
 1654 08f4 01       		.uleb128 0x1
 1655 08f5 50       		.byte	0x50
 1656 08f6 05       		.uleb128 0x5
 1657 08f7 03       		.byte	0x3
 1658 08f8 00000000 		.4byte	.LANCHOR0
 1659 08fc 00       		.byte	0
 1660 08fd 20       		.uleb128 0x20
 1661 08fe F6000000 		.4byte	.LVL41
 1662 0902 850C0000 		.4byte	0xc85
 1663 0906 19090000 		.4byte	0x919
 1664 090a 21       		.uleb128 0x21
 1665 090b 01       		.uleb128 0x1
 1666 090c 51       		.byte	0x51
 1667 090d 01       		.uleb128 0x1
 1668 090e 40       		.byte	0x40
 1669 090f 21       		.uleb128 0x21
 1670 0910 01       		.uleb128 0x1
 1671 0911 50       		.byte	0x50
 1672 0912 05       		.uleb128 0x5
 1673 0913 03       		.byte	0x3
 1674 0914 00000000 		.4byte	.LANCHOR0
 1675 0918 00       		.byte	0
 1676 0919 20       		.uleb128 0x20
 1677 091a FE000000 		.4byte	.LVL44
 1678 091e B90C0000 		.4byte	0xcb9
 1679 0922 2D090000 		.4byte	0x92d
 1680 0926 21       		.uleb128 0x21
 1681 0927 01       		.uleb128 0x1
 1682 0928 50       		.byte	0x50
 1683 0929 02       		.uleb128 0x2
 1684 092a 74       		.byte	0x74
 1685 092b 00       		.sleb128 0
 1686 092c 00       		.byte	0
 1687 092d 20       		.uleb128 0x20
 1688 092e 06010000 		.4byte	.LVL45
 1689 0932 650C0000 		.4byte	0xc65
 1690 0936 4A090000 		.4byte	0x94a
 1691 093a 21       		.uleb128 0x21
 1692 093b 01       		.uleb128 0x1
 1693 093c 51       		.byte	0x51
 1694 093d 02       		.uleb128 0x2
 1695 093e 7D       		.byte	0x7d
 1696 093f 00       		.sleb128 0
 1697 0940 21       		.uleb128 0x21
 1698 0941 01       		.uleb128 0x1
ARM GAS  /tmp/cc0psXLf.s 			page 31


 1699 0942 50       		.byte	0x50
 1700 0943 05       		.uleb128 0x5
 1701 0944 03       		.byte	0x3
 1702 0945 00000000 		.4byte	.LANCHOR0
 1703 0949 00       		.byte	0
 1704 094a 20       		.uleb128 0x20
 1705 094b 18010000 		.4byte	.LVL46
 1706 094f 9F0C0000 		.4byte	0xc9f
 1707 0953 5D090000 		.4byte	0x95d
 1708 0957 21       		.uleb128 0x21
 1709 0958 01       		.uleb128 0x1
 1710 0959 50       		.byte	0x50
 1711 095a 01       		.uleb128 0x1
 1712 095b 35       		.byte	0x35
 1713 095c 00       		.byte	0
 1714 095d 20       		.uleb128 0x20
 1715 095e 24010000 		.4byte	.LVL47
 1716 0962 850C0000 		.4byte	0xc85
 1717 0966 79090000 		.4byte	0x979
 1718 096a 21       		.uleb128 0x21
 1719 096b 01       		.uleb128 0x1
 1720 096c 51       		.byte	0x51
 1721 096d 01       		.uleb128 0x1
 1722 096e 40       		.byte	0x40
 1723 096f 21       		.uleb128 0x21
 1724 0970 01       		.uleb128 0x1
 1725 0971 50       		.byte	0x50
 1726 0972 05       		.uleb128 0x5
 1727 0973 03       		.byte	0x3
 1728 0974 00000000 		.4byte	.LANCHOR0
 1729 0978 00       		.byte	0
 1730 0979 20       		.uleb128 0x20
 1731 097a 2E010000 		.4byte	.LVL50
 1732 097e 650C0000 		.4byte	0xc65
 1733 0982 96090000 		.4byte	0x996
 1734 0986 21       		.uleb128 0x21
 1735 0987 01       		.uleb128 0x1
 1736 0988 51       		.byte	0x51
 1737 0989 02       		.uleb128 0x2
 1738 098a 7D       		.byte	0x7d
 1739 098b 00       		.sleb128 0
 1740 098c 21       		.uleb128 0x21
 1741 098d 01       		.uleb128 0x1
 1742 098e 50       		.byte	0x50
 1743 098f 05       		.uleb128 0x5
 1744 0990 03       		.byte	0x3
 1745 0991 00000000 		.4byte	.LANCHOR0
 1746 0995 00       		.byte	0
 1747 0996 20       		.uleb128 0x20
 1748 0997 3C010000 		.4byte	.LVL51
 1749 099b 650C0000 		.4byte	0xc65
 1750 099f B3090000 		.4byte	0x9b3
 1751 09a3 21       		.uleb128 0x21
 1752 09a4 01       		.uleb128 0x1
 1753 09a5 51       		.byte	0x51
 1754 09a6 02       		.uleb128 0x2
 1755 09a7 7D       		.byte	0x7d
ARM GAS  /tmp/cc0psXLf.s 			page 32


 1756 09a8 00       		.sleb128 0
 1757 09a9 21       		.uleb128 0x21
 1758 09aa 01       		.uleb128 0x1
 1759 09ab 50       		.byte	0x50
 1760 09ac 05       		.uleb128 0x5
 1761 09ad 03       		.byte	0x3
 1762 09ae 00000000 		.4byte	.LANCHOR0
 1763 09b2 00       		.byte	0
 1764 09b3 20       		.uleb128 0x20
 1765 09b4 4E010000 		.4byte	.LVL52
 1766 09b8 9F0C0000 		.4byte	0xc9f
 1767 09bc C6090000 		.4byte	0x9c6
 1768 09c0 21       		.uleb128 0x21
 1769 09c1 01       		.uleb128 0x1
 1770 09c2 50       		.byte	0x50
 1771 09c3 01       		.uleb128 0x1
 1772 09c4 36       		.byte	0x36
 1773 09c5 00       		.byte	0
 1774 09c6 20       		.uleb128 0x20
 1775 09c7 5A010000 		.4byte	.LVL53
 1776 09cb B90C0000 		.4byte	0xcb9
 1777 09cf DA090000 		.4byte	0x9da
 1778 09d3 21       		.uleb128 0x21
 1779 09d4 01       		.uleb128 0x1
 1780 09d5 50       		.byte	0x50
 1781 09d6 02       		.uleb128 0x2
 1782 09d7 75       		.byte	0x75
 1783 09d8 00       		.sleb128 0
 1784 09d9 00       		.byte	0
 1785 09da 20       		.uleb128 0x20
 1786 09db 60010000 		.4byte	.LVL54
 1787 09df B90C0000 		.4byte	0xcb9
 1788 09e3 EE090000 		.4byte	0x9ee
 1789 09e7 21       		.uleb128 0x21
 1790 09e8 01       		.uleb128 0x1
 1791 09e9 50       		.byte	0x50
 1792 09ea 02       		.uleb128 0x2
 1793 09eb 74       		.byte	0x74
 1794 09ec 00       		.sleb128 0
 1795 09ed 00       		.byte	0
 1796 09ee 20       		.uleb128 0x20
 1797 09ef 68010000 		.4byte	.LVL55
 1798 09f3 650C0000 		.4byte	0xc65
 1799 09f7 0B0A0000 		.4byte	0xa0b
 1800 09fb 21       		.uleb128 0x21
 1801 09fc 01       		.uleb128 0x1
 1802 09fd 51       		.byte	0x51
 1803 09fe 02       		.uleb128 0x2
 1804 09ff 7D       		.byte	0x7d
 1805 0a00 00       		.sleb128 0
 1806 0a01 21       		.uleb128 0x21
 1807 0a02 01       		.uleb128 0x1
 1808 0a03 50       		.byte	0x50
 1809 0a04 05       		.uleb128 0x5
 1810 0a05 03       		.byte	0x3
 1811 0a06 00000000 		.4byte	.LANCHOR0
 1812 0a0a 00       		.byte	0
ARM GAS  /tmp/cc0psXLf.s 			page 33


 1813 0a0b 20       		.uleb128 0x20
 1814 0a0c 74010000 		.4byte	.LVL56
 1815 0a10 9F0C0000 		.4byte	0xc9f
 1816 0a14 260A0000 		.4byte	0xa26
 1817 0a18 21       		.uleb128 0x21
 1818 0a19 01       		.uleb128 0x1
 1819 0a1a 51       		.byte	0x51
 1820 0a1b 04       		.uleb128 0x4
 1821 0a1c 76       		.byte	0x76
 1822 0a1d 00       		.sleb128 0
 1823 0a1e 30       		.byte	0x30
 1824 0a1f 29       		.byte	0x29
 1825 0a20 21       		.uleb128 0x21
 1826 0a21 01       		.uleb128 0x1
 1827 0a22 50       		.byte	0x50
 1828 0a23 01       		.uleb128 0x1
 1829 0a24 37       		.byte	0x37
 1830 0a25 00       		.byte	0
 1831 0a26 20       		.uleb128 0x20
 1832 0a27 82010000 		.4byte	.LVL57
 1833 0a2b 850C0000 		.4byte	0xc85
 1834 0a2f 420A0000 		.4byte	0xa42
 1835 0a33 21       		.uleb128 0x21
 1836 0a34 01       		.uleb128 0x1
 1837 0a35 51       		.byte	0x51
 1838 0a36 01       		.uleb128 0x1
 1839 0a37 40       		.byte	0x40
 1840 0a38 21       		.uleb128 0x21
 1841 0a39 01       		.uleb128 0x1
 1842 0a3a 50       		.byte	0x50
 1843 0a3b 05       		.uleb128 0x5
 1844 0a3c 03       		.byte	0x3
 1845 0a3d 00000000 		.4byte	.LANCHOR0
 1846 0a41 00       		.byte	0
 1847 0a42 20       		.uleb128 0x20
 1848 0a43 8C010000 		.4byte	.LVL60
 1849 0a47 850C0000 		.4byte	0xc85
 1850 0a4b 5E0A0000 		.4byte	0xa5e
 1851 0a4f 21       		.uleb128 0x21
 1852 0a50 01       		.uleb128 0x1
 1853 0a51 51       		.byte	0x51
 1854 0a52 01       		.uleb128 0x1
 1855 0a53 40       		.byte	0x40
 1856 0a54 21       		.uleb128 0x21
 1857 0a55 01       		.uleb128 0x1
 1858 0a56 50       		.byte	0x50
 1859 0a57 05       		.uleb128 0x5
 1860 0a58 03       		.byte	0x3
 1861 0a59 00000000 		.4byte	.LANCHOR0
 1862 0a5d 00       		.byte	0
 1863 0a5e 20       		.uleb128 0x20
 1864 0a5f 94010000 		.4byte	.LVL63
 1865 0a63 B90C0000 		.4byte	0xcb9
 1866 0a67 720A0000 		.4byte	0xa72
 1867 0a6b 21       		.uleb128 0x21
 1868 0a6c 01       		.uleb128 0x1
 1869 0a6d 50       		.byte	0x50
ARM GAS  /tmp/cc0psXLf.s 			page 34


 1870 0a6e 02       		.uleb128 0x2
 1871 0a6f 75       		.byte	0x75
 1872 0a70 00       		.sleb128 0
 1873 0a71 00       		.byte	0
 1874 0a72 20       		.uleb128 0x20
 1875 0a73 9C010000 		.4byte	.LVL64
 1876 0a77 650C0000 		.4byte	0xc65
 1877 0a7b 8F0A0000 		.4byte	0xa8f
 1878 0a7f 21       		.uleb128 0x21
 1879 0a80 01       		.uleb128 0x1
 1880 0a81 51       		.byte	0x51
 1881 0a82 02       		.uleb128 0x2
 1882 0a83 7D       		.byte	0x7d
 1883 0a84 00       		.sleb128 0
 1884 0a85 21       		.uleb128 0x21
 1885 0a86 01       		.uleb128 0x1
 1886 0a87 50       		.byte	0x50
 1887 0a88 05       		.uleb128 0x5
 1888 0a89 03       		.byte	0x3
 1889 0a8a 00000000 		.4byte	.LANCHOR0
 1890 0a8e 00       		.byte	0
 1891 0a8f 20       		.uleb128 0x20
 1892 0a90 A8010000 		.4byte	.LVL66
 1893 0a94 9F0C0000 		.4byte	0xc9f
 1894 0a98 AA0A0000 		.4byte	0xaaa
 1895 0a9c 21       		.uleb128 0x21
 1896 0a9d 01       		.uleb128 0x1
 1897 0a9e 51       		.byte	0x51
 1898 0a9f 04       		.uleb128 0x4
 1899 0aa0 75       		.byte	0x75
 1900 0aa1 00       		.sleb128 0
 1901 0aa2 30       		.byte	0x30
 1902 0aa3 29       		.byte	0x29
 1903 0aa4 21       		.uleb128 0x21
 1904 0aa5 01       		.uleb128 0x1
 1905 0aa6 50       		.byte	0x50
 1906 0aa7 01       		.uleb128 0x1
 1907 0aa8 38       		.byte	0x38
 1908 0aa9 00       		.byte	0
 1909 0aaa 20       		.uleb128 0x20
 1910 0aab B6010000 		.4byte	.LVL67
 1911 0aaf 850C0000 		.4byte	0xc85
 1912 0ab3 C70A0000 		.4byte	0xac7
 1913 0ab7 21       		.uleb128 0x21
 1914 0ab8 01       		.uleb128 0x1
 1915 0ab9 51       		.byte	0x51
 1916 0aba 02       		.uleb128 0x2
 1917 0abb 08       		.byte	0x8
 1918 0abc 20       		.byte	0x20
 1919 0abd 21       		.uleb128 0x21
 1920 0abe 01       		.uleb128 0x1
 1921 0abf 50       		.byte	0x50
 1922 0ac0 05       		.uleb128 0x5
 1923 0ac1 03       		.byte	0x3
 1924 0ac2 00000000 		.4byte	.LANCHOR0
 1925 0ac6 00       		.byte	0
 1926 0ac7 1F       		.uleb128 0x1f
ARM GAS  /tmp/cc0psXLf.s 			page 35


 1927 0ac8 BA010000 		.4byte	.LVL68
 1928 0acc B90C0000 		.4byte	0xcb9
 1929 0ad0 20       		.uleb128 0x20
 1930 0ad1 C0010000 		.4byte	.LVL69
 1931 0ad5 B90C0000 		.4byte	0xcb9
 1932 0ad9 E40A0000 		.4byte	0xae4
 1933 0add 21       		.uleb128 0x21
 1934 0ade 01       		.uleb128 0x1
 1935 0adf 50       		.byte	0x50
 1936 0ae0 02       		.uleb128 0x2
 1937 0ae1 74       		.byte	0x74
 1938 0ae2 00       		.sleb128 0
 1939 0ae3 00       		.byte	0
 1940 0ae4 20       		.uleb128 0x20
 1941 0ae5 C8010000 		.4byte	.LVL70
 1942 0ae9 650C0000 		.4byte	0xc65
 1943 0aed 010B0000 		.4byte	0xb01
 1944 0af1 21       		.uleb128 0x21
 1945 0af2 01       		.uleb128 0x1
 1946 0af3 51       		.byte	0x51
 1947 0af4 02       		.uleb128 0x2
 1948 0af5 7D       		.byte	0x7d
 1949 0af6 00       		.sleb128 0
 1950 0af7 21       		.uleb128 0x21
 1951 0af8 01       		.uleb128 0x1
 1952 0af9 50       		.byte	0x50
 1953 0afa 05       		.uleb128 0x5
 1954 0afb 03       		.byte	0x3
 1955 0afc 00000000 		.4byte	.LANCHOR0
 1956 0b00 00       		.byte	0
 1957 0b01 20       		.uleb128 0x20
 1958 0b02 D4010000 		.4byte	.LVL71
 1959 0b06 9F0C0000 		.4byte	0xc9f
 1960 0b0a 140B0000 		.4byte	0xb14
 1961 0b0e 21       		.uleb128 0x21
 1962 0b0f 01       		.uleb128 0x1
 1963 0b10 50       		.byte	0x50
 1964 0b11 01       		.uleb128 0x1
 1965 0b12 39       		.byte	0x39
 1966 0b13 00       		.byte	0
 1967 0b14 20       		.uleb128 0x20
 1968 0b15 E2010000 		.4byte	.LVL72
 1969 0b19 650C0000 		.4byte	0xc65
 1970 0b1d 310B0000 		.4byte	0xb31
 1971 0b21 21       		.uleb128 0x21
 1972 0b22 01       		.uleb128 0x1
 1973 0b23 51       		.byte	0x51
 1974 0b24 02       		.uleb128 0x2
 1975 0b25 7D       		.byte	0x7d
 1976 0b26 00       		.sleb128 0
 1977 0b27 21       		.uleb128 0x21
 1978 0b28 01       		.uleb128 0x1
 1979 0b29 50       		.byte	0x50
 1980 0b2a 05       		.uleb128 0x5
 1981 0b2b 03       		.byte	0x3
 1982 0b2c 00000000 		.4byte	.LANCHOR0
 1983 0b30 00       		.byte	0
ARM GAS  /tmp/cc0psXLf.s 			page 36


 1984 0b31 20       		.uleb128 0x20
 1985 0b32 EA010000 		.4byte	.LVL73
 1986 0b36 850C0000 		.4byte	0xc85
 1987 0b3a 480B0000 		.4byte	0xb48
 1988 0b3e 21       		.uleb128 0x21
 1989 0b3f 01       		.uleb128 0x1
 1990 0b40 50       		.byte	0x50
 1991 0b41 05       		.uleb128 0x5
 1992 0b42 03       		.byte	0x3
 1993 0b43 00000000 		.4byte	.LANCHOR0
 1994 0b47 00       		.byte	0
 1995 0b48 20       		.uleb128 0x20
 1996 0b49 F4010000 		.4byte	.LVL76
 1997 0b4d 650C0000 		.4byte	0xc65
 1998 0b51 650B0000 		.4byte	0xb65
 1999 0b55 21       		.uleb128 0x21
 2000 0b56 01       		.uleb128 0x1
 2001 0b57 51       		.byte	0x51
 2002 0b58 02       		.uleb128 0x2
 2003 0b59 7D       		.byte	0x7d
 2004 0b5a 00       		.sleb128 0
 2005 0b5b 21       		.uleb128 0x21
 2006 0b5c 01       		.uleb128 0x1
 2007 0b5d 50       		.byte	0x50
 2008 0b5e 05       		.uleb128 0x5
 2009 0b5f 03       		.byte	0x3
 2010 0b60 00000000 		.4byte	.LANCHOR0
 2011 0b64 00       		.byte	0
 2012 0b65 20       		.uleb128 0x20
 2013 0b66 02020000 		.4byte	.LVL77
 2014 0b6a 9F0C0000 		.4byte	0xc9f
 2015 0b6e 780B0000 		.4byte	0xb78
 2016 0b72 21       		.uleb128 0x21
 2017 0b73 01       		.uleb128 0x1
 2018 0b74 50       		.byte	0x50
 2019 0b75 01       		.uleb128 0x1
 2020 0b76 3A       		.byte	0x3a
 2021 0b77 00       		.byte	0
 2022 0b78 20       		.uleb128 0x20
 2023 0b79 0E020000 		.4byte	.LVL78
 2024 0b7d B90C0000 		.4byte	0xcb9
 2025 0b81 8C0B0000 		.4byte	0xb8c
 2026 0b85 21       		.uleb128 0x21
 2027 0b86 01       		.uleb128 0x1
 2028 0b87 50       		.byte	0x50
 2029 0b88 02       		.uleb128 0x2
 2030 0b89 74       		.byte	0x74
 2031 0b8a 00       		.sleb128 0
 2032 0b8b 00       		.byte	0
 2033 0b8c 20       		.uleb128 0x20
 2034 0b8d 16020000 		.4byte	.LVL79
 2035 0b91 650C0000 		.4byte	0xc65
 2036 0b95 A90B0000 		.4byte	0xba9
 2037 0b99 21       		.uleb128 0x21
 2038 0b9a 01       		.uleb128 0x1
 2039 0b9b 51       		.byte	0x51
 2040 0b9c 02       		.uleb128 0x2
ARM GAS  /tmp/cc0psXLf.s 			page 37


 2041 0b9d 7D       		.byte	0x7d
 2042 0b9e 00       		.sleb128 0
 2043 0b9f 21       		.uleb128 0x21
 2044 0ba0 01       		.uleb128 0x1
 2045 0ba1 50       		.byte	0x50
 2046 0ba2 05       		.uleb128 0x5
 2047 0ba3 03       		.byte	0x3
 2048 0ba4 00000000 		.4byte	.LANCHOR0
 2049 0ba8 00       		.byte	0
 2050 0ba9 20       		.uleb128 0x20
 2051 0baa 22020000 		.4byte	.LVL80
 2052 0bae 9F0C0000 		.4byte	0xc9f
 2053 0bb2 BC0B0000 		.4byte	0xbbc
 2054 0bb6 21       		.uleb128 0x21
 2055 0bb7 01       		.uleb128 0x1
 2056 0bb8 50       		.byte	0x50
 2057 0bb9 01       		.uleb128 0x1
 2058 0bba 3B       		.byte	0x3b
 2059 0bbb 00       		.byte	0
 2060 0bbc 22       		.uleb128 0x22
 2061 0bbd 38020000 		.4byte	.LVL81
 2062 0bc1 9F0C0000 		.4byte	0xc9f
 2063 0bc5 21       		.uleb128 0x21
 2064 0bc6 01       		.uleb128 0x1
 2065 0bc7 50       		.byte	0x50
 2066 0bc8 01       		.uleb128 0x1
 2067 0bc9 3C       		.byte	0x3c
 2068 0bca 00       		.byte	0
 2069 0bcb 00       		.byte	0
 2070 0bcc 1C       		.uleb128 0x1c
 2071 0bcd BC000000 		.4byte	.LASF84
 2072 0bd1 01       		.byte	0x1
 2073 0bd2 40       		.byte	0x40
 2074 0bd3 00000000 		.4byte	.LFB7
 2075 0bd7 14000000 		.4byte	.LFE7-.LFB7
 2076 0bdb 01       		.uleb128 0x1
 2077 0bdc 9C       		.byte	0x9c
 2078 0bdd FC0B0000 		.4byte	0xbfc
 2079 0be1 23       		.uleb128 0x23
 2080 0be2 0C000000 		.4byte	.LVL83
 2081 0be6 CA0C0000 		.4byte	0xcca
 2082 0bea 21       		.uleb128 0x21
 2083 0beb 01       		.uleb128 0x1
 2084 0bec 52       		.byte	0x52
 2085 0bed 03       		.uleb128 0x3
 2086 0bee 0A       		.byte	0xa
 2087 0bef 3809     		.2byte	0x938
 2088 0bf1 21       		.uleb128 0x21
 2089 0bf2 01       		.uleb128 0x1
 2090 0bf3 50       		.byte	0x50
 2091 0bf4 05       		.uleb128 0x5
 2092 0bf5 03       		.byte	0x3
 2093 0bf6 00000000 		.4byte	.LANCHOR0
 2094 0bfa 00       		.byte	0
 2095 0bfb 00       		.byte	0
 2096 0bfc 24       		.uleb128 0x24
 2097 0bfd A6040000 		.4byte	.LASF85
ARM GAS  /tmp/cc0psXLf.s 			page 38


 2098 0c01 01       		.byte	0x1
 2099 0c02 33       		.byte	0x33
 2100 0c03 91040000 		.4byte	0x491
 2101 0c07 05       		.uleb128 0x5
 2102 0c08 03       		.byte	0x3
 2103 0c09 00000000 		.4byte	test_heap
 2104 0c0d 25       		.uleb128 0x25
 2105 0c0e 52000000 		.4byte	.LASF86
 2106 0c12 0C       		.byte	0xc
 2107 0c13 A6       		.byte	0xa6
 2108 0c14 24060000 		.4byte	0x624
 2109 0c18 26       		.uleb128 0x26
 2110 0c19 B3010000 		.4byte	.LASF87
 2111 0c1d 01       		.byte	0x1
 2112 0c1e 8E       		.byte	0x8e
 2113 0c1f 290C0000 		.4byte	0xc29
 2114 0c23 05       		.uleb128 0x5
 2115 0c24 03       		.byte	0x3
 2116 0c25 00000000 		.4byte	testheap1
 2117 0c29 14       		.uleb128 0x14
 2118 0c2a 8B050000 		.4byte	0x58b
 2119 0c2e 18       		.uleb128 0x18
 2120 0c2f 3E0C0000 		.4byte	0xc3e
 2121 0c33 3E0C0000 		.4byte	0xc3e
 2122 0c37 19       		.uleb128 0x19
 2123 0c38 23040000 		.4byte	0x423
 2124 0c3c 01       		.byte	0x1
 2125 0c3d 00       		.byte	0
 2126 0c3e 09       		.uleb128 0x9
 2127 0c3f 04       		.byte	0x4
 2128 0c40 290C0000 		.4byte	0xc29
 2129 0c44 26       		.uleb128 0x26
 2130 0c45 6E000000 		.4byte	.LASF88
 2131 0c49 01       		.byte	0x1
 2132 0c4a 9A       		.byte	0x9a
 2133 0c4b 550C0000 		.4byte	0xc55
 2134 0c4f 05       		.uleb128 0x5
 2135 0c50 03       		.byte	0x3
 2136 0c51 00000000 		.4byte	patternheap
 2137 0c55 14       		.uleb128 0x14
 2138 0c56 2E0C0000 		.4byte	0xc2e
 2139 0c5a 27       		.uleb128 0x27
 2140 0c5b C6010000 		.4byte	.LASF95
 2141 0c5f 0A       		.byte	0xa
 2142 0c60 54       		.byte	0x54
 2143 0c61 2C000000 		.4byte	0x2c
 2144 0c65 28       		.uleb128 0x28
 2145 0c66 FB030000 		.4byte	.LASF89
 2146 0c6a 0B       		.byte	0xb
 2147 0c6b 5B       		.byte	0x5b
 2148 0c6c 2C000000 		.4byte	0x2c
 2149 0c70 7F0C0000 		.4byte	0xc7f
 2150 0c74 0F       		.uleb128 0xf
 2151 0c75 13050000 		.4byte	0x513
 2152 0c79 0F       		.uleb128 0xf
 2153 0c7a 7F0C0000 		.4byte	0xc7f
 2154 0c7e 00       		.byte	0
ARM GAS  /tmp/cc0psXLf.s 			page 39


 2155 0c7f 09       		.uleb128 0x9
 2156 0c80 04       		.byte	0x4
 2157 0c81 2C000000 		.4byte	0x2c
 2158 0c85 28       		.uleb128 0x28
 2159 0c86 C8030000 		.4byte	.LASF90
 2160 0c8a 0B       		.byte	0xb
 2161 0c8b 59       		.byte	0x59
 2162 0c8c A9020000 		.4byte	0x2a9
 2163 0c90 9F0C0000 		.4byte	0xc9f
 2164 0c94 0F       		.uleb128 0xf
 2165 0c95 13050000 		.4byte	0x513
 2166 0c99 0F       		.uleb128 0xf
 2167 0c9a 2C000000 		.4byte	0x2c
 2168 0c9e 00       		.byte	0
 2169 0c9f 28       		.uleb128 0x28
 2170 0ca0 BE040000 		.4byte	.LASF91
 2171 0ca4 0C       		.byte	0xc
 2172 0ca5 58       		.byte	0x58
 2173 0ca6 CE000000 		.4byte	0xce
 2174 0caa B90C0000 		.4byte	0xcb9
 2175 0cae 0F       		.uleb128 0xf
 2176 0caf 37000000 		.4byte	0x37
 2177 0cb3 0F       		.uleb128 0xf
 2178 0cb4 CE000000 		.4byte	0xce
 2179 0cb8 00       		.byte	0
 2180 0cb9 29       		.uleb128 0x29
 2181 0cba B1000000 		.4byte	.LASF96
 2182 0cbe 0B       		.byte	0xb
 2183 0cbf 5A       		.byte	0x5a
 2184 0cc0 CA0C0000 		.4byte	0xcca
 2185 0cc4 0F       		.uleb128 0xf
 2186 0cc5 A9020000 		.4byte	0x2a9
 2187 0cc9 00       		.byte	0
 2188 0cca 2A       		.uleb128 0x2a
 2189 0ccb 57000000 		.4byte	.LASF97
 2190 0ccf 0B       		.byte	0xb
 2191 0cd0 57       		.byte	0x57
 2192 0cd1 0F       		.uleb128 0xf
 2193 0cd2 13050000 		.4byte	0x513
 2194 0cd6 0F       		.uleb128 0xf
 2195 0cd7 A9020000 		.4byte	0x2a9
 2196 0cdb 0F       		.uleb128 0xf
 2197 0cdc 2C000000 		.4byte	0x2c
 2198 0ce0 00       		.byte	0
 2199 0ce1 00       		.byte	0
 2200              		.section	.debug_abbrev,"",%progbits
 2201              	.Ldebug_abbrev0:
 2202 0000 01       		.uleb128 0x1
 2203 0001 11       		.uleb128 0x11
 2204 0002 01       		.byte	0x1
 2205 0003 25       		.uleb128 0x25
 2206 0004 0E       		.uleb128 0xe
 2207 0005 13       		.uleb128 0x13
 2208 0006 0B       		.uleb128 0xb
 2209 0007 03       		.uleb128 0x3
 2210 0008 0E       		.uleb128 0xe
 2211 0009 1B       		.uleb128 0x1b
ARM GAS  /tmp/cc0psXLf.s 			page 40


 2212 000a 0E       		.uleb128 0xe
 2213 000b 55       		.uleb128 0x55
 2214 000c 17       		.uleb128 0x17
 2215 000d 11       		.uleb128 0x11
 2216 000e 01       		.uleb128 0x1
 2217 000f 10       		.uleb128 0x10
 2218 0010 17       		.uleb128 0x17
 2219 0011 00       		.byte	0
 2220 0012 00       		.byte	0
 2221 0013 02       		.uleb128 0x2
 2222 0014 24       		.uleb128 0x24
 2223 0015 00       		.byte	0
 2224 0016 0B       		.uleb128 0xb
 2225 0017 0B       		.uleb128 0xb
 2226 0018 3E       		.uleb128 0x3e
 2227 0019 0B       		.uleb128 0xb
 2228 001a 03       		.uleb128 0x3
 2229 001b 08       		.uleb128 0x8
 2230 001c 00       		.byte	0
 2231 001d 00       		.byte	0
 2232 001e 03       		.uleb128 0x3
 2233 001f 16       		.uleb128 0x16
 2234 0020 00       		.byte	0
 2235 0021 03       		.uleb128 0x3
 2236 0022 0E       		.uleb128 0xe
 2237 0023 3A       		.uleb128 0x3a
 2238 0024 0B       		.uleb128 0xb
 2239 0025 3B       		.uleb128 0x3b
 2240 0026 0B       		.uleb128 0xb
 2241 0027 49       		.uleb128 0x49
 2242 0028 13       		.uleb128 0x13
 2243 0029 00       		.byte	0
 2244 002a 00       		.byte	0
 2245 002b 04       		.uleb128 0x4
 2246 002c 24       		.uleb128 0x24
 2247 002d 00       		.byte	0
 2248 002e 0B       		.uleb128 0xb
 2249 002f 0B       		.uleb128 0xb
 2250 0030 3E       		.uleb128 0x3e
 2251 0031 0B       		.uleb128 0xb
 2252 0032 03       		.uleb128 0x3
 2253 0033 0E       		.uleb128 0xe
 2254 0034 00       		.byte	0
 2255 0035 00       		.byte	0
 2256 0036 05       		.uleb128 0x5
 2257 0037 13       		.uleb128 0x13
 2258 0038 01       		.byte	0x1
 2259 0039 03       		.uleb128 0x3
 2260 003a 0E       		.uleb128 0xe
 2261 003b 0B       		.uleb128 0xb
 2262 003c 0B       		.uleb128 0xb
 2263 003d 3A       		.uleb128 0x3a
 2264 003e 0B       		.uleb128 0xb
 2265 003f 3B       		.uleb128 0x3b
 2266 0040 0B       		.uleb128 0xb
 2267 0041 01       		.uleb128 0x1
 2268 0042 13       		.uleb128 0x13
ARM GAS  /tmp/cc0psXLf.s 			page 41


 2269 0043 00       		.byte	0
 2270 0044 00       		.byte	0
 2271 0045 06       		.uleb128 0x6
 2272 0046 0D       		.uleb128 0xd
 2273 0047 00       		.byte	0
 2274 0048 03       		.uleb128 0x3
 2275 0049 0E       		.uleb128 0xe
 2276 004a 3A       		.uleb128 0x3a
 2277 004b 0B       		.uleb128 0xb
 2278 004c 3B       		.uleb128 0x3b
 2279 004d 0B       		.uleb128 0xb
 2280 004e 49       		.uleb128 0x49
 2281 004f 13       		.uleb128 0x13
 2282 0050 38       		.uleb128 0x38
 2283 0051 0B       		.uleb128 0xb
 2284 0052 00       		.byte	0
 2285 0053 00       		.byte	0
 2286 0054 07       		.uleb128 0x7
 2287 0055 0D       		.uleb128 0xd
 2288 0056 00       		.byte	0
 2289 0057 03       		.uleb128 0x3
 2290 0058 08       		.uleb128 0x8
 2291 0059 3A       		.uleb128 0x3a
 2292 005a 0B       		.uleb128 0xb
 2293 005b 3B       		.uleb128 0x3b
 2294 005c 0B       		.uleb128 0xb
 2295 005d 49       		.uleb128 0x49
 2296 005e 13       		.uleb128 0x13
 2297 005f 38       		.uleb128 0x38
 2298 0060 0B       		.uleb128 0xb
 2299 0061 00       		.byte	0
 2300 0062 00       		.byte	0
 2301 0063 08       		.uleb128 0x8
 2302 0064 13       		.uleb128 0x13
 2303 0065 01       		.byte	0x1
 2304 0066 0B       		.uleb128 0xb
 2305 0067 0B       		.uleb128 0xb
 2306 0068 3A       		.uleb128 0x3a
 2307 0069 0B       		.uleb128 0xb
 2308 006a 3B       		.uleb128 0x3b
 2309 006b 0B       		.uleb128 0xb
 2310 006c 01       		.uleb128 0x1
 2311 006d 13       		.uleb128 0x13
 2312 006e 00       		.byte	0
 2313 006f 00       		.byte	0
 2314 0070 09       		.uleb128 0x9
 2315 0071 0F       		.uleb128 0xf
 2316 0072 00       		.byte	0
 2317 0073 0B       		.uleb128 0xb
 2318 0074 0B       		.uleb128 0xb
 2319 0075 49       		.uleb128 0x49
 2320 0076 13       		.uleb128 0x13
 2321 0077 00       		.byte	0
 2322 0078 00       		.byte	0
 2323 0079 0A       		.uleb128 0xa
 2324 007a 0F       		.uleb128 0xf
 2325 007b 00       		.byte	0
ARM GAS  /tmp/cc0psXLf.s 			page 42


 2326 007c 0B       		.uleb128 0xb
 2327 007d 0B       		.uleb128 0xb
 2328 007e 00       		.byte	0
 2329 007f 00       		.byte	0
 2330 0080 0B       		.uleb128 0xb
 2331 0081 13       		.uleb128 0x13
 2332 0082 01       		.byte	0x1
 2333 0083 03       		.uleb128 0x3
 2334 0084 0E       		.uleb128 0xe
 2335 0085 0B       		.uleb128 0xb
 2336 0086 0B       		.uleb128 0xb
 2337 0087 3A       		.uleb128 0x3a
 2338 0088 0B       		.uleb128 0xb
 2339 0089 3B       		.uleb128 0x3b
 2340 008a 05       		.uleb128 0x5
 2341 008b 01       		.uleb128 0x1
 2342 008c 13       		.uleb128 0x13
 2343 008d 00       		.byte	0
 2344 008e 00       		.byte	0
 2345 008f 0C       		.uleb128 0xc
 2346 0090 0D       		.uleb128 0xd
 2347 0091 00       		.byte	0
 2348 0092 03       		.uleb128 0x3
 2349 0093 08       		.uleb128 0x8
 2350 0094 3A       		.uleb128 0x3a
 2351 0095 0B       		.uleb128 0xb
 2352 0096 3B       		.uleb128 0x3b
 2353 0097 05       		.uleb128 0x5
 2354 0098 49       		.uleb128 0x49
 2355 0099 13       		.uleb128 0x13
 2356 009a 38       		.uleb128 0x38
 2357 009b 0B       		.uleb128 0xb
 2358 009c 00       		.byte	0
 2359 009d 00       		.byte	0
 2360 009e 0D       		.uleb128 0xd
 2361 009f 35       		.uleb128 0x35
 2362 00a0 00       		.byte	0
 2363 00a1 49       		.uleb128 0x49
 2364 00a2 13       		.uleb128 0x13
 2365 00a3 00       		.byte	0
 2366 00a4 00       		.byte	0
 2367 00a5 0E       		.uleb128 0xe
 2368 00a6 15       		.uleb128 0x15
 2369 00a7 01       		.byte	0x1
 2370 00a8 27       		.uleb128 0x27
 2371 00a9 19       		.uleb128 0x19
 2372 00aa 49       		.uleb128 0x49
 2373 00ab 13       		.uleb128 0x13
 2374 00ac 01       		.uleb128 0x1
 2375 00ad 13       		.uleb128 0x13
 2376 00ae 00       		.byte	0
 2377 00af 00       		.byte	0
 2378 00b0 0F       		.uleb128 0xf
 2379 00b1 05       		.uleb128 0x5
 2380 00b2 00       		.byte	0
 2381 00b3 49       		.uleb128 0x49
 2382 00b4 13       		.uleb128 0x13
ARM GAS  /tmp/cc0psXLf.s 			page 43


 2383 00b5 00       		.byte	0
 2384 00b6 00       		.byte	0
 2385 00b7 10       		.uleb128 0x10
 2386 00b8 17       		.uleb128 0x17
 2387 00b9 01       		.byte	0x1
 2388 00ba 0B       		.uleb128 0xb
 2389 00bb 0B       		.uleb128 0xb
 2390 00bc 3A       		.uleb128 0x3a
 2391 00bd 0B       		.uleb128 0xb
 2392 00be 3B       		.uleb128 0x3b
 2393 00bf 0B       		.uleb128 0xb
 2394 00c0 01       		.uleb128 0x1
 2395 00c1 13       		.uleb128 0x13
 2396 00c2 00       		.byte	0
 2397 00c3 00       		.byte	0
 2398 00c4 11       		.uleb128 0x11
 2399 00c5 0D       		.uleb128 0xd
 2400 00c6 00       		.byte	0
 2401 00c7 03       		.uleb128 0x3
 2402 00c8 0E       		.uleb128 0xe
 2403 00c9 3A       		.uleb128 0x3a
 2404 00ca 0B       		.uleb128 0xb
 2405 00cb 3B       		.uleb128 0x3b
 2406 00cc 0B       		.uleb128 0xb
 2407 00cd 49       		.uleb128 0x49
 2408 00ce 13       		.uleb128 0x13
 2409 00cf 00       		.byte	0
 2410 00d0 00       		.byte	0
 2411 00d1 12       		.uleb128 0x12
 2412 00d2 17       		.uleb128 0x17
 2413 00d3 01       		.byte	0x1
 2414 00d4 03       		.uleb128 0x3
 2415 00d5 0E       		.uleb128 0xe
 2416 00d6 0B       		.uleb128 0xb
 2417 00d7 0B       		.uleb128 0xb
 2418 00d8 3A       		.uleb128 0x3a
 2419 00d9 0B       		.uleb128 0xb
 2420 00da 3B       		.uleb128 0x3b
 2421 00db 0B       		.uleb128 0xb
 2422 00dc 01       		.uleb128 0x1
 2423 00dd 13       		.uleb128 0x13
 2424 00de 00       		.byte	0
 2425 00df 00       		.byte	0
 2426 00e0 13       		.uleb128 0x13
 2427 00e1 0D       		.uleb128 0xd
 2428 00e2 00       		.byte	0
 2429 00e3 03       		.uleb128 0x3
 2430 00e4 08       		.uleb128 0x8
 2431 00e5 3A       		.uleb128 0x3a
 2432 00e6 0B       		.uleb128 0xb
 2433 00e7 3B       		.uleb128 0x3b
 2434 00e8 0B       		.uleb128 0xb
 2435 00e9 49       		.uleb128 0x49
 2436 00ea 13       		.uleb128 0x13
 2437 00eb 00       		.byte	0
 2438 00ec 00       		.byte	0
 2439 00ed 14       		.uleb128 0x14
ARM GAS  /tmp/cc0psXLf.s 			page 44


 2440 00ee 26       		.uleb128 0x26
 2441 00ef 00       		.byte	0
 2442 00f0 49       		.uleb128 0x49
 2443 00f1 13       		.uleb128 0x13
 2444 00f2 00       		.byte	0
 2445 00f3 00       		.byte	0
 2446 00f4 15       		.uleb128 0x15
 2447 00f5 15       		.uleb128 0x15
 2448 00f6 00       		.byte	0
 2449 00f7 27       		.uleb128 0x27
 2450 00f8 19       		.uleb128 0x19
 2451 00f9 00       		.byte	0
 2452 00fa 00       		.byte	0
 2453 00fb 16       		.uleb128 0x16
 2454 00fc 13       		.uleb128 0x13
 2455 00fd 01       		.byte	0x1
 2456 00fe 0B       		.uleb128 0xb
 2457 00ff 05       		.uleb128 0x5
 2458 0100 3A       		.uleb128 0x3a
 2459 0101 0B       		.uleb128 0xb
 2460 0102 3B       		.uleb128 0x3b
 2461 0103 0B       		.uleb128 0xb
 2462 0104 01       		.uleb128 0x1
 2463 0105 13       		.uleb128 0x13
 2464 0106 00       		.byte	0
 2465 0107 00       		.byte	0
 2466 0108 17       		.uleb128 0x17
 2467 0109 0D       		.uleb128 0xd
 2468 010a 00       		.byte	0
 2469 010b 03       		.uleb128 0x3
 2470 010c 08       		.uleb128 0x8
 2471 010d 3A       		.uleb128 0x3a
 2472 010e 0B       		.uleb128 0xb
 2473 010f 3B       		.uleb128 0x3b
 2474 0110 0B       		.uleb128 0xb
 2475 0111 49       		.uleb128 0x49
 2476 0112 13       		.uleb128 0x13
 2477 0113 38       		.uleb128 0x38
 2478 0114 05       		.uleb128 0x5
 2479 0115 00       		.byte	0
 2480 0116 00       		.byte	0
 2481 0117 18       		.uleb128 0x18
 2482 0118 01       		.uleb128 0x1
 2483 0119 01       		.byte	0x1
 2484 011a 49       		.uleb128 0x49
 2485 011b 13       		.uleb128 0x13
 2486 011c 01       		.uleb128 0x1
 2487 011d 13       		.uleb128 0x13
 2488 011e 00       		.byte	0
 2489 011f 00       		.byte	0
 2490 0120 19       		.uleb128 0x19
 2491 0121 21       		.uleb128 0x21
 2492 0122 00       		.byte	0
 2493 0123 49       		.uleb128 0x49
 2494 0124 13       		.uleb128 0x13
 2495 0125 2F       		.uleb128 0x2f
 2496 0126 0B       		.uleb128 0xb
ARM GAS  /tmp/cc0psXLf.s 			page 45


 2497 0127 00       		.byte	0
 2498 0128 00       		.byte	0
 2499 0129 1A       		.uleb128 0x1a
 2500 012a 17       		.uleb128 0x17
 2501 012b 01       		.byte	0x1
 2502 012c 03       		.uleb128 0x3
 2503 012d 0E       		.uleb128 0xe
 2504 012e 0B       		.uleb128 0xb
 2505 012f 05       		.uleb128 0x5
 2506 0130 3A       		.uleb128 0x3a
 2507 0131 0B       		.uleb128 0xb
 2508 0132 3B       		.uleb128 0x3b
 2509 0133 0B       		.uleb128 0xb
 2510 0134 01       		.uleb128 0x1
 2511 0135 13       		.uleb128 0x13
 2512 0136 00       		.byte	0
 2513 0137 00       		.byte	0
 2514 0138 1B       		.uleb128 0x1b
 2515 0139 21       		.uleb128 0x21
 2516 013a 00       		.byte	0
 2517 013b 49       		.uleb128 0x49
 2518 013c 13       		.uleb128 0x13
 2519 013d 2F       		.uleb128 0x2f
 2520 013e 05       		.uleb128 0x5
 2521 013f 00       		.byte	0
 2522 0140 00       		.byte	0
 2523 0141 1C       		.uleb128 0x1c
 2524 0142 2E       		.uleb128 0x2e
 2525 0143 01       		.byte	0x1
 2526 0144 03       		.uleb128 0x3
 2527 0145 0E       		.uleb128 0xe
 2528 0146 3A       		.uleb128 0x3a
 2529 0147 0B       		.uleb128 0xb
 2530 0148 3B       		.uleb128 0x3b
 2531 0149 0B       		.uleb128 0xb
 2532 014a 27       		.uleb128 0x27
 2533 014b 19       		.uleb128 0x19
 2534 014c 11       		.uleb128 0x11
 2535 014d 01       		.uleb128 0x1
 2536 014e 12       		.uleb128 0x12
 2537 014f 06       		.uleb128 0x6
 2538 0150 40       		.uleb128 0x40
 2539 0151 18       		.uleb128 0x18
 2540 0152 9742     		.uleb128 0x2117
 2541 0154 19       		.uleb128 0x19
 2542 0155 01       		.uleb128 0x1
 2543 0156 13       		.uleb128 0x13
 2544 0157 00       		.byte	0
 2545 0158 00       		.byte	0
 2546 0159 1D       		.uleb128 0x1d
 2547 015a 34       		.uleb128 0x34
 2548 015b 00       		.byte	0
 2549 015c 03       		.uleb128 0x3
 2550 015d 08       		.uleb128 0x8
 2551 015e 3A       		.uleb128 0x3a
 2552 015f 0B       		.uleb128 0xb
 2553 0160 3B       		.uleb128 0x3b
ARM GAS  /tmp/cc0psXLf.s 			page 46


 2554 0161 0B       		.uleb128 0xb
 2555 0162 49       		.uleb128 0x49
 2556 0163 13       		.uleb128 0x13
 2557 0164 02       		.uleb128 0x2
 2558 0165 17       		.uleb128 0x17
 2559 0166 00       		.byte	0
 2560 0167 00       		.byte	0
 2561 0168 1E       		.uleb128 0x1e
 2562 0169 34       		.uleb128 0x34
 2563 016a 00       		.byte	0
 2564 016b 03       		.uleb128 0x3
 2565 016c 08       		.uleb128 0x8
 2566 016d 3A       		.uleb128 0x3a
 2567 016e 0B       		.uleb128 0xb
 2568 016f 3B       		.uleb128 0x3b
 2569 0170 0B       		.uleb128 0xb
 2570 0171 49       		.uleb128 0x49
 2571 0172 13       		.uleb128 0x13
 2572 0173 02       		.uleb128 0x2
 2573 0174 18       		.uleb128 0x18
 2574 0175 00       		.byte	0
 2575 0176 00       		.byte	0
 2576 0177 1F       		.uleb128 0x1f
 2577 0178 898201   		.uleb128 0x4109
 2578 017b 00       		.byte	0
 2579 017c 11       		.uleb128 0x11
 2580 017d 01       		.uleb128 0x1
 2581 017e 31       		.uleb128 0x31
 2582 017f 13       		.uleb128 0x13
 2583 0180 00       		.byte	0
 2584 0181 00       		.byte	0
 2585 0182 20       		.uleb128 0x20
 2586 0183 898201   		.uleb128 0x4109
 2587 0186 01       		.byte	0x1
 2588 0187 11       		.uleb128 0x11
 2589 0188 01       		.uleb128 0x1
 2590 0189 31       		.uleb128 0x31
 2591 018a 13       		.uleb128 0x13
 2592 018b 01       		.uleb128 0x1
 2593 018c 13       		.uleb128 0x13
 2594 018d 00       		.byte	0
 2595 018e 00       		.byte	0
 2596 018f 21       		.uleb128 0x21
 2597 0190 8A8201   		.uleb128 0x410a
 2598 0193 00       		.byte	0
 2599 0194 02       		.uleb128 0x2
 2600 0195 18       		.uleb128 0x18
 2601 0196 9142     		.uleb128 0x2111
 2602 0198 18       		.uleb128 0x18
 2603 0199 00       		.byte	0
 2604 019a 00       		.byte	0
 2605 019b 22       		.uleb128 0x22
 2606 019c 898201   		.uleb128 0x4109
 2607 019f 01       		.byte	0x1
 2608 01a0 11       		.uleb128 0x11
 2609 01a1 01       		.uleb128 0x1
 2610 01a2 31       		.uleb128 0x31
ARM GAS  /tmp/cc0psXLf.s 			page 47


 2611 01a3 13       		.uleb128 0x13
 2612 01a4 00       		.byte	0
 2613 01a5 00       		.byte	0
 2614 01a6 23       		.uleb128 0x23
 2615 01a7 898201   		.uleb128 0x4109
 2616 01aa 01       		.byte	0x1
 2617 01ab 11       		.uleb128 0x11
 2618 01ac 01       		.uleb128 0x1
 2619 01ad 9542     		.uleb128 0x2115
 2620 01af 19       		.uleb128 0x19
 2621 01b0 31       		.uleb128 0x31
 2622 01b1 13       		.uleb128 0x13
 2623 01b2 00       		.byte	0
 2624 01b3 00       		.byte	0
 2625 01b4 24       		.uleb128 0x24
 2626 01b5 34       		.uleb128 0x34
 2627 01b6 00       		.byte	0
 2628 01b7 03       		.uleb128 0x3
 2629 01b8 0E       		.uleb128 0xe
 2630 01b9 3A       		.uleb128 0x3a
 2631 01ba 0B       		.uleb128 0xb
 2632 01bb 3B       		.uleb128 0x3b
 2633 01bc 0B       		.uleb128 0xb
 2634 01bd 49       		.uleb128 0x49
 2635 01be 13       		.uleb128 0x13
 2636 01bf 02       		.uleb128 0x2
 2637 01c0 18       		.uleb128 0x18
 2638 01c1 00       		.byte	0
 2639 01c2 00       		.byte	0
 2640 01c3 25       		.uleb128 0x25
 2641 01c4 34       		.uleb128 0x34
 2642 01c5 00       		.byte	0
 2643 01c6 03       		.uleb128 0x3
 2644 01c7 0E       		.uleb128 0xe
 2645 01c8 3A       		.uleb128 0x3a
 2646 01c9 0B       		.uleb128 0xb
 2647 01ca 3B       		.uleb128 0x3b
 2648 01cb 0B       		.uleb128 0xb
 2649 01cc 49       		.uleb128 0x49
 2650 01cd 13       		.uleb128 0x13
 2651 01ce 3F       		.uleb128 0x3f
 2652 01cf 19       		.uleb128 0x19
 2653 01d0 3C       		.uleb128 0x3c
 2654 01d1 19       		.uleb128 0x19
 2655 01d2 00       		.byte	0
 2656 01d3 00       		.byte	0
 2657 01d4 26       		.uleb128 0x26
 2658 01d5 34       		.uleb128 0x34
 2659 01d6 00       		.byte	0
 2660 01d7 03       		.uleb128 0x3
 2661 01d8 0E       		.uleb128 0xe
 2662 01d9 3A       		.uleb128 0x3a
 2663 01da 0B       		.uleb128 0xb
 2664 01db 3B       		.uleb128 0x3b
 2665 01dc 0B       		.uleb128 0xb
 2666 01dd 49       		.uleb128 0x49
 2667 01de 13       		.uleb128 0x13
ARM GAS  /tmp/cc0psXLf.s 			page 48


 2668 01df 3F       		.uleb128 0x3f
 2669 01e0 19       		.uleb128 0x19
 2670 01e1 02       		.uleb128 0x2
 2671 01e2 18       		.uleb128 0x18
 2672 01e3 00       		.byte	0
 2673 01e4 00       		.byte	0
 2674 01e5 27       		.uleb128 0x27
 2675 01e6 2E       		.uleb128 0x2e
 2676 01e7 00       		.byte	0
 2677 01e8 3F       		.uleb128 0x3f
 2678 01e9 19       		.uleb128 0x19
 2679 01ea 03       		.uleb128 0x3
 2680 01eb 0E       		.uleb128 0xe
 2681 01ec 3A       		.uleb128 0x3a
 2682 01ed 0B       		.uleb128 0xb
 2683 01ee 3B       		.uleb128 0x3b
 2684 01ef 0B       		.uleb128 0xb
 2685 01f0 27       		.uleb128 0x27
 2686 01f1 19       		.uleb128 0x19
 2687 01f2 49       		.uleb128 0x49
 2688 01f3 13       		.uleb128 0x13
 2689 01f4 3C       		.uleb128 0x3c
 2690 01f5 19       		.uleb128 0x19
 2691 01f6 00       		.byte	0
 2692 01f7 00       		.byte	0
 2693 01f8 28       		.uleb128 0x28
 2694 01f9 2E       		.uleb128 0x2e
 2695 01fa 01       		.byte	0x1
 2696 01fb 3F       		.uleb128 0x3f
 2697 01fc 19       		.uleb128 0x19
 2698 01fd 03       		.uleb128 0x3
 2699 01fe 0E       		.uleb128 0xe
 2700 01ff 3A       		.uleb128 0x3a
 2701 0200 0B       		.uleb128 0xb
 2702 0201 3B       		.uleb128 0x3b
 2703 0202 0B       		.uleb128 0xb
 2704 0203 27       		.uleb128 0x27
 2705 0204 19       		.uleb128 0x19
 2706 0205 49       		.uleb128 0x49
 2707 0206 13       		.uleb128 0x13
 2708 0207 3C       		.uleb128 0x3c
 2709 0208 19       		.uleb128 0x19
 2710 0209 01       		.uleb128 0x1
 2711 020a 13       		.uleb128 0x13
 2712 020b 00       		.byte	0
 2713 020c 00       		.byte	0
 2714 020d 29       		.uleb128 0x29
 2715 020e 2E       		.uleb128 0x2e
 2716 020f 01       		.byte	0x1
 2717 0210 3F       		.uleb128 0x3f
 2718 0211 19       		.uleb128 0x19
 2719 0212 03       		.uleb128 0x3
 2720 0213 0E       		.uleb128 0xe
 2721 0214 3A       		.uleb128 0x3a
 2722 0215 0B       		.uleb128 0xb
 2723 0216 3B       		.uleb128 0x3b
 2724 0217 0B       		.uleb128 0xb
ARM GAS  /tmp/cc0psXLf.s 			page 49


 2725 0218 27       		.uleb128 0x27
 2726 0219 19       		.uleb128 0x19
 2727 021a 3C       		.uleb128 0x3c
 2728 021b 19       		.uleb128 0x19
 2729 021c 01       		.uleb128 0x1
 2730 021d 13       		.uleb128 0x13
 2731 021e 00       		.byte	0
 2732 021f 00       		.byte	0
 2733 0220 2A       		.uleb128 0x2a
 2734 0221 2E       		.uleb128 0x2e
 2735 0222 01       		.byte	0x1
 2736 0223 3F       		.uleb128 0x3f
 2737 0224 19       		.uleb128 0x19
 2738 0225 03       		.uleb128 0x3
 2739 0226 0E       		.uleb128 0xe
 2740 0227 3A       		.uleb128 0x3a
 2741 0228 0B       		.uleb128 0xb
 2742 0229 3B       		.uleb128 0x3b
 2743 022a 0B       		.uleb128 0xb
 2744 022b 27       		.uleb128 0x27
 2745 022c 19       		.uleb128 0x19
 2746 022d 3C       		.uleb128 0x3c
 2747 022e 19       		.uleb128 0x19
 2748 022f 00       		.byte	0
 2749 0230 00       		.byte	0
 2750 0231 00       		.byte	0
 2751              		.section	.debug_loc,"",%progbits
 2752              	.Ldebug_loc0:
 2753              	.LLST0:
 2754 0000 18000000 		.4byte	.LVL2
 2755 0004 22000000 		.4byte	.LVL3
 2756 0008 0100     		.2byte	0x1
 2757 000a 50       		.byte	0x50
 2758 000b 22000000 		.4byte	.LVL3
 2759 000f 2A000000 		.4byte	.LVL5
 2760 0013 0100     		.2byte	0x1
 2761 0015 54       		.byte	0x54
 2762 0016 2E000000 		.4byte	.LVL6
 2763 001a 3E000000 		.4byte	.LVL8
 2764 001e 0100     		.2byte	0x1
 2765 0020 54       		.byte	0x54
 2766 0021 3E000000 		.4byte	.LVL8
 2767 0025 48000000 		.4byte	.LVL9
 2768 0029 0100     		.2byte	0x1
 2769 002b 50       		.byte	0x50
 2770 002c 64000000 		.4byte	.LVL13
 2771 0030 66000000 		.4byte	.LVL14
 2772 0034 0100     		.2byte	0x1
 2773 0036 50       		.byte	0x50
 2774 0037 66000000 		.4byte	.LVL14
 2775 003b AC000000 		.4byte	.LVL27
 2776 003f 0100     		.2byte	0x1
 2777 0041 55       		.byte	0x55
 2778 0042 AC000000 		.4byte	.LVL27
 2779 0046 AE000000 		.4byte	.LVL28
 2780 004a 0100     		.2byte	0x1
 2781 004c 50       		.byte	0x50
ARM GAS  /tmp/cc0psXLf.s 			page 50


 2782 004d AE000000 		.4byte	.LVL28
 2783 0051 F0000000 		.4byte	.LVL39
 2784 0055 0100     		.2byte	0x1
 2785 0057 54       		.byte	0x54
 2786 0058 F0000000 		.4byte	.LVL39
 2787 005c F2000000 		.4byte	.LVL40
 2788 0060 0100     		.2byte	0x1
 2789 0062 50       		.byte	0x50
 2790 0063 F2000000 		.4byte	.LVL40
 2791 0067 28010000 		.4byte	.LVL48
 2792 006b 0100     		.2byte	0x1
 2793 006d 54       		.byte	0x54
 2794 006e 28010000 		.4byte	.LVL48
 2795 0072 2A010000 		.4byte	.LVL49
 2796 0076 0100     		.2byte	0x1
 2797 0078 50       		.byte	0x50
 2798 0079 2A010000 		.4byte	.LVL49
 2799 007d 86010000 		.4byte	.LVL58
 2800 0081 0100     		.2byte	0x1
 2801 0083 54       		.byte	0x54
 2802 0084 86010000 		.4byte	.LVL58
 2803 0088 88010000 		.4byte	.LVL59
 2804 008c 0100     		.2byte	0x1
 2805 008e 50       		.byte	0x50
 2806 008f 88010000 		.4byte	.LVL59
 2807 0093 9E010000 		.4byte	.LVL65
 2808 0097 0100     		.2byte	0x1
 2809 0099 55       		.byte	0x55
 2810 009a B6010000 		.4byte	.LVL67
 2811 009e B9010000 		.4byte	.LVL68-1
 2812 00a2 0100     		.2byte	0x1
 2813 00a4 50       		.byte	0x50
 2814 00a5 EE010000 		.4byte	.LVL74
 2815 00a9 F0010000 		.4byte	.LVL75
 2816 00ad 0100     		.2byte	0x1
 2817 00af 50       		.byte	0x50
 2818 00b0 F0010000 		.4byte	.LVL75
 2819 00b4 44020000 		.4byte	.LFE8
 2820 00b8 0100     		.2byte	0x1
 2821 00ba 54       		.byte	0x54
 2822 00bb 00000000 		.4byte	0
 2823 00bf 00000000 		.4byte	0
 2824              	.LLST1:
 2825 00c3 6E000000 		.4byte	.LVL16
 2826 00c7 70000000 		.4byte	.LVL17
 2827 00cb 0100     		.2byte	0x1
 2828 00cd 50       		.byte	0x50
 2829 00ce 70000000 		.4byte	.LVL17
 2830 00d2 AC000000 		.4byte	.LVL27
 2831 00d6 0100     		.2byte	0x1
 2832 00d8 54       		.byte	0x54
 2833 00d9 B6000000 		.4byte	.LVL30
 2834 00dd B8000000 		.4byte	.LVL31
 2835 00e1 0100     		.2byte	0x1
 2836 00e3 50       		.byte	0x50
 2837 00e4 B8000000 		.4byte	.LVL31
 2838 00e8 F8000000 		.4byte	.LVL42
ARM GAS  /tmp/cc0psXLf.s 			page 51


 2839 00ec 0100     		.2byte	0x1
 2840 00ee 55       		.byte	0x55
 2841 00ef F8000000 		.4byte	.LVL42
 2842 00f3 FA000000 		.4byte	.LVL43
 2843 00f7 0100     		.2byte	0x1
 2844 00f9 50       		.byte	0x50
 2845 00fa FA000000 		.4byte	.LVL43
 2846 00fe 86010000 		.4byte	.LVL58
 2847 0102 0100     		.2byte	0x1
 2848 0104 55       		.byte	0x55
 2849 0105 8E010000 		.4byte	.LVL61
 2850 0109 90010000 		.4byte	.LVL62
 2851 010d 0100     		.2byte	0x1
 2852 010f 50       		.byte	0x50
 2853 0110 90010000 		.4byte	.LVL62
 2854 0114 EE010000 		.4byte	.LVL74
 2855 0118 0100     		.2byte	0x1
 2856 011a 54       		.byte	0x54
 2857 011b 3A020000 		.4byte	.LVL82
 2858 011f 44020000 		.4byte	.LFE8
 2859 0123 0100     		.2byte	0x1
 2860 0125 55       		.byte	0x55
 2861 0126 00000000 		.4byte	0
 2862 012a 00000000 		.4byte	0
 2863              	.LLST2:
 2864 012e 76000000 		.4byte	.LVL19
 2865 0132 78000000 		.4byte	.LVL20
 2866 0136 0100     		.2byte	0x1
 2867 0138 50       		.byte	0x50
 2868 0139 78000000 		.4byte	.LVL20
 2869 013d BC000000 		.4byte	.LVL32
 2870 0141 0100     		.2byte	0x1
 2871 0143 56       		.byte	0x56
 2872 0144 BC000000 		.4byte	.LVL32
 2873 0148 BF000000 		.4byte	.LVL33-1
 2874 014c 0100     		.2byte	0x1
 2875 014e 50       		.byte	0x50
 2876 014f 00000000 		.4byte	0
 2877 0153 00000000 		.4byte	0
 2878              		.section	.debug_aranges,"",%progbits
 2879 0000 24000000 		.4byte	0x24
 2880 0004 0200     		.2byte	0x2
 2881 0006 00000000 		.4byte	.Ldebug_info0
 2882 000a 04       		.byte	0x4
 2883 000b 00       		.byte	0
 2884 000c 0000     		.2byte	0
 2885 000e 0000     		.2byte	0
 2886 0010 00000000 		.4byte	.LFB8
 2887 0014 44020000 		.4byte	.LFE8-.LFB8
 2888 0018 00000000 		.4byte	.LFB7
 2889 001c 14000000 		.4byte	.LFE7-.LFB7
 2890 0020 00000000 		.4byte	0
 2891 0024 00000000 		.4byte	0
 2892              		.section	.debug_ranges,"",%progbits
 2893              	.Ldebug_ranges0:
 2894 0000 00000000 		.4byte	.LFB8
 2895 0004 44020000 		.4byte	.LFE8
ARM GAS  /tmp/cc0psXLf.s 			page 52


 2896 0008 00000000 		.4byte	.LFB7
 2897 000c 14000000 		.4byte	.LFE7
 2898 0010 00000000 		.4byte	0
 2899 0014 00000000 		.4byte	0
 2900              		.section	.debug_line,"",%progbits
 2901              	.Ldebug_line0:
 2902 0000 DA010000 		.section	.debug_str,"MS",%progbits,1
 2902      02006601 
 2902      00000201 
 2902      FB0E0D00 
 2902      01010101 
 2903              	.LASF44:
 2904 0000 705F6D73 		.ascii	"p_msg\000"
 2904      6700
 2905              	.LASF2:
 2906 0006 73697A65 		.ascii	"size_t\000"
 2906      5F7400
 2907              	.LASF70:
 2908 000d 7264796D 		.ascii	"rdymsg\000"
 2908      736700
 2909              	.LASF17:
 2910 0014 75696E74 		.ascii	"uint64_t\000"
 2910      36345F74 
 2910      00
 2911              	.LASF3:
 2912 001d 5F5F7569 		.ascii	"__uint8_t\000"
 2912      6E74385F 
 2912      7400
 2913              	.LASF60:
 2914 0027 6D656D67 		.ascii	"memgetfunc_t\000"
 2914      65746675 
 2914      6E635F74 
 2914      00
 2915              	.LASF13:
 2916 0034 6C6F6E67 		.ascii	"long long unsigned int\000"
 2916      206C6F6E 
 2916      6720756E 
 2916      7369676E 
 2916      65642069 
 2917              	.LASF64:
 2918 004b 685F6672 		.ascii	"h_free\000"
 2918      656500
 2919              	.LASF86:
 2920 0052 74657374 		.ascii	"test\000"
 2920      00
 2921              	.LASF97:
 2922 0057 63684865 		.ascii	"chHeapInit\000"
 2922      6170496E 
 2922      697400
 2923              	.LASF66:
 2924 0062 6E657874 		.ascii	"next\000"
 2924      00
 2925              	.LASF31:
 2926 0067 705F7072 		.ascii	"p_prio\000"
 2926      696F00
 2927              	.LASF88:
 2928 006e 70617474 		.ascii	"patternheap\000"
ARM GAS  /tmp/cc0psXLf.s 			page 53


 2928      65726E68 
 2928      65617000 
 2929              	.LASF11:
 2930 007a 6C6F6E67 		.ascii	"long long int\000"
 2930      206C6F6E 
 2930      6720696E 
 2930      7400
 2931              	.LASF1:
 2932 0088 7369676E 		.ascii	"signed char\000"
 2932      65642063 
 2932      68617200 
 2933              	.LASF65:
 2934 0094 685F6D74 		.ascii	"h_mtx\000"
 2934      7800
 2935              	.LASF48:
 2936 009a 705F6D70 		.ascii	"p_mpool\000"
 2936      6F6F6C00 
 2937              	.LASF18:
 2938 00a2 626F6F6C 		.ascii	"bool_t\000"
 2938      5F7400
 2939              	.LASF57:
 2940 00a9 6D5F7175 		.ascii	"m_queue\000"
 2940      65756500 
 2941              	.LASF96:
 2942 00b1 63684865 		.ascii	"chHeapFree\000"
 2942      61704672 
 2942      656500
 2943              	.LASF84:
 2944 00bc 68656170 		.ascii	"heap1_setup\000"
 2944      315F7365 
 2944      74757000 
 2945              	.LASF23:
 2946 00c8 74736C69 		.ascii	"tslices_t\000"
 2946      6365735F 
 2946      7400
 2947              	.LASF8:
 2948 00d2 6C6F6E67 		.ascii	"long int\000"
 2948      20696E74 
 2948      00
 2949              	.LASF21:
 2950 00db 74737461 		.ascii	"tstate_t\000"
 2950      74655F74 
 2950      00
 2951              	.LASF82:
 2952 00e4 62756666 		.ascii	"buffer\000"
 2952      657200
 2953              	.LASF33:
 2954 00eb 705F6E65 		.ascii	"p_newer\000"
 2954      77657200 
 2955              	.LASF71:
 2956 00f3 65786974 		.ascii	"exitcode\000"
 2956      636F6465 
 2956      00
 2957              	.LASF9:
 2958 00fc 5F5F7569 		.ascii	"__uint32_t\000"
 2958      6E743332 
 2958      5F7400
ARM GAS  /tmp/cc0psXLf.s 			page 54


 2959              	.LASF51:
 2960 0107 72656761 		.ascii	"regarm_t\000"
 2960      726D5F74 
 2960      00
 2961              	.LASF83:
 2962 0110 68656170 		.ascii	"heap1_execute\000"
 2962      315F6578 
 2962      65637574 
 2962      6500
 2963              	.LASF68:
 2964 011e 616C6967 		.ascii	"align\000"
 2964      6E00
 2965              	.LASF36:
 2966 0124 705F7374 		.ascii	"p_stklimit\000"
 2966      6B6C696D 
 2966      697400
 2967              	.LASF0:
 2968 012f 756E7369 		.ascii	"unsigned int\000"
 2968      676E6564 
 2968      20696E74 
 2968      00
 2969              	.LASF10:
 2970 013c 6C6F6E67 		.ascii	"long unsigned int\000"
 2970      20756E73 
 2970      69676E65 
 2970      6420696E 
 2970      7400
 2971              	.LASF78:
 2972 014e 74656172 		.ascii	"teardown\000"
 2972      646F776E 
 2972      00
 2973              	.LASF76:
 2974 0157 6E616D65 		.ascii	"name\000"
 2974      00
 2975              	.LASF54:
 2976 015c 636F6E74 		.ascii	"context\000"
 2976      65787400 
 2977              	.LASF69:
 2978 0164 73697A65 		.ascii	"size\000"
 2978      00
 2979              	.LASF6:
 2980 0169 73686F72 		.ascii	"short unsigned int\000"
 2980      7420756E 
 2980      7369676E 
 2980      65642069 
 2980      6E7400
 2981              	.LASF25:
 2982 017c 6D73675F 		.ascii	"msg_t\000"
 2982      7400
 2983              	.LASF20:
 2984 0182 746D6F64 		.ascii	"tmode_t\000"
 2984      655F7400 
 2985              	.LASF50:
 2986 018a 54687265 		.ascii	"ThreadsList\000"
 2986      6164734C 
 2986      69737400 
 2987              	.LASF26:
ARM GAS  /tmp/cc0psXLf.s 			page 55


 2988 0196 6576656E 		.ascii	"eventmask_t\000"
 2988      746D6173 
 2988      6B5F7400 
 2989              	.LASF56:
 2990 01a2 4D757465 		.ascii	"Mutex\000"
 2990      7800
 2991              	.LASF52:
 2992 01a8 73746B61 		.ascii	"stkalign_t\000"
 2992      6C69676E 
 2992      5F7400
 2993              	.LASF87:
 2994 01b3 74657374 		.ascii	"testheap1\000"
 2994      68656170 
 2994      3100
 2995              	.LASF55:
 2996 01bd 73697A65 		.ascii	"sizetype\000"
 2996      74797065 
 2996      00
 2997              	.LASF95:
 2998 01c6 6368436F 		.ascii	"chCoreStatus\000"
 2998      72655374 
 2998      61747573 
 2998      00
 2999              	.LASF34:
 3000 01d3 705F6F6C 		.ascii	"p_older\000"
 3000      64657200 
 3001              	.LASF49:
 3002 01db 54687265 		.ascii	"ThreadsQueue\000"
 3002      61647351 
 3002      75657565 
 3002      00
 3003              	.LASF77:
 3004 01e8 73657475 		.ascii	"setup\000"
 3004      7000
 3005              	.LASF61:
 3006 01ee 4D656D6F 		.ascii	"MemoryHeap\000"
 3006      72794865 
 3006      617000
 3007              	.LASF12:
 3008 01f9 5F5F7569 		.ascii	"__uint64_t\000"
 3008      6E743634 
 3008      5F7400
 3009              	.LASF22:
 3010 0204 74726566 		.ascii	"trefs_t\000"
 3010      735F7400 
 3011              	.LASF30:
 3012 020c 705F7072 		.ascii	"p_prev\000"
 3012      657600
 3013              	.LASF79:
 3014 0213 65786563 		.ascii	"execute\000"
 3014      75746500 
 3015              	.LASF24:
 3016 021b 74707269 		.ascii	"tprio_t\000"
 3016      6F5F7400 
 3017              	.LASF93:
 3018 0223 2E2E2F2E 		.ascii	"../../test/testheap.c\000"
 3018      2E2F7465 
ARM GAS  /tmp/cc0psXLf.s 			page 56


 3018      73742F74 
 3018      65737468 
 3018      6561702E 
 3019              	.LASF19:
 3020 0239 5F426F6F 		.ascii	"_Bool\000"
 3020      6C00
 3021              	.LASF15:
 3022 023f 696E7433 		.ascii	"int32_t\000"
 3022      325F7400 
 3023              	.LASF4:
 3024 0247 756E7369 		.ascii	"unsigned char\000"
 3024      676E6564 
 3024      20636861 
 3024      7200
 3025              	.LASF63:
 3026 0255 685F7072 		.ascii	"h_provider\000"
 3026      6F766964 
 3026      657200
 3027              	.LASF46:
 3028 0260 705F6D74 		.ascii	"p_mtxlist\000"
 3028      786C6973 
 3028      7400
 3029              	.LASF5:
 3030 026a 73686F72 		.ascii	"short int\000"
 3030      7420696E 
 3030      7400
 3031              	.LASF37:
 3032 0274 705F7374 		.ascii	"p_state\000"
 3032      61746500 
 3033              	.LASF40:
 3034 027c 705F7072 		.ascii	"p_preempt\000"
 3034      65656D70 
 3034      7400
 3035              	.LASF80:
 3036 0286 68656170 		.ascii	"heap_header\000"
 3036      5F686561 
 3036      64657200 
 3037              	.LASF73:
 3038 0292 65776D61 		.ascii	"ewmask\000"
 3038      736B00
 3039              	.LASF29:
 3040 0299 705F6E65 		.ascii	"p_next\000"
 3040      787400
 3041              	.LASF38:
 3042 02a0 705F666C 		.ascii	"p_flags\000"
 3042      61677300 
 3043              	.LASF92:
 3044 02a8 474E5520 		.ascii	"GNU C 4.8.4 20140526 (release) [ARM/embedded-4_8-br"
 3044      4320342E 
 3044      382E3420 
 3044      32303134 
 3044      30353236 
 3045 02db 616E6368 		.ascii	"anch revision 211358] -mcpu=cortex-m4 -mfloat-abi=h"
 3045      20726576 
 3045      6973696F 
 3045      6E203231 
 3045      31333538 
ARM GAS  /tmp/cc0psXLf.s 			page 57


 3046 030e 61726420 		.ascii	"ard -mfpu=fpv4-sp-d16 -mno-thumb-interwork -mthumb "
 3046      2D6D6670 
 3046      753D6670 
 3046      76342D73 
 3046      702D6431 
 3047 0341 2D676764 		.ascii	"-ggdb -O2 -fomit-frame-pointer -falign-functions=16"
 3047      62202D4F 
 3047      32202D66 
 3047      6F6D6974 
 3047      2D667261 
 3048 0374 202D6666 		.ascii	" -ffunction-sections -fdata-sections -fno-common -f"
 3048      756E6374 
 3048      696F6E2D 
 3048      73656374 
 3048      696F6E73 
 3049 03a7 73696E67 		.ascii	"single-precision-constant\000"
 3049      6C652D70 
 3049      72656369 
 3049      73696F6E 
 3049      2D636F6E 
 3050              	.LASF28:
 3051 03c1 54687265 		.ascii	"Thread\000"
 3051      616400
 3052              	.LASF90:
 3053 03c8 63684865 		.ascii	"chHeapAlloc\000"
 3053      6170416C 
 3053      6C6F6300 
 3054              	.LASF75:
 3055 03d4 74657374 		.ascii	"testcase\000"
 3055      63617365 
 3055      00
 3056              	.LASF45:
 3057 03dd 705F6570 		.ascii	"p_epending\000"
 3057      656E6469 
 3057      6E6700
 3058              	.LASF16:
 3059 03e8 75696E74 		.ascii	"uint32_t\000"
 3059      33325F74 
 3059      00
 3060              	.LASF67:
 3061 03f1 68656170 		.ascii	"heap\000"
 3061      00
 3062              	.LASF74:
 3063 03f6 63686172 		.ascii	"char\000"
 3063      00
 3064              	.LASF89:
 3065 03fb 63684865 		.ascii	"chHeapStatus\000"
 3065      61705374 
 3065      61747573 
 3065      00
 3066              	.LASF59:
 3067 0408 6D5F6E65 		.ascii	"m_next\000"
 3067      787400
 3068              	.LASF27:
 3069 040f 73797374 		.ascii	"systime_t\000"
 3069      696D655F 
 3069      7400
ARM GAS  /tmp/cc0psXLf.s 			page 58


 3070              	.LASF47:
 3071 0419 705F7265 		.ascii	"p_realprio\000"
 3071      616C7072 
 3071      696F00
 3072              	.LASF7:
 3073 0424 5F5F696E 		.ascii	"__int32_t\000"
 3073      7433325F 
 3073      7400
 3074              	.LASF41:
 3075 042e 705F7469 		.ascii	"p_time\000"
 3075      6D6500
 3076              	.LASF94:
 3077 0435 2F686F6D 		.ascii	"/home/makkmarci/devel/ChibiOS_2.6.5/projects/STM32F"
 3077      652F6D61 
 3077      6B6B6D61 
 3077      7263692F 
 3077      64657665 
 3078 0468 345F4368 		.ascii	"4_ChibiOS_uGFX/\000"
 3078      6962694F 
 3078      535F7547 
 3078      46582F00 
 3079              	.LASF53:
 3080 0478 696E7463 		.ascii	"intctx\000"
 3080      747800
 3081              	.LASF43:
 3082 047f 705F6D73 		.ascii	"p_msgqueue\000"
 3082      67717565 
 3082      756500
 3083              	.LASF81:
 3084 048a 74657374 		.ascii	"test_buffers\000"
 3084      5F627566 
 3084      66657273 
 3084      00
 3085              	.LASF39:
 3086 0497 705F7265 		.ascii	"p_refs\000"
 3086      667300
 3087              	.LASF14:
 3088 049e 75696E74 		.ascii	"uint8_t\000"
 3088      385F7400 
 3089              	.LASF85:
 3090 04a6 74657374 		.ascii	"test_heap\000"
 3090      5F686561 
 3090      7000
 3091              	.LASF72:
 3092 04b0 77746F62 		.ascii	"wtobjp\000"
 3092      6A7000
 3093              	.LASF35:
 3094 04b7 705F6E61 		.ascii	"p_name\000"
 3094      6D6500
 3095              	.LASF91:
 3096 04be 5F746573 		.ascii	"_test_assert\000"
 3096      745F6173 
 3096      73657274 
 3096      00
 3097              	.LASF58:
 3098 04cb 6D5F6F77 		.ascii	"m_owner\000"
 3098      6E657200 
ARM GAS  /tmp/cc0psXLf.s 			page 59


 3099              	.LASF32:
 3100 04d3 705F6374 		.ascii	"p_ctx\000"
 3100      7800
 3101              	.LASF42:
 3102 04d9 705F7761 		.ascii	"p_waiting\000"
 3102      6974696E 
 3102      6700
 3103              	.LASF62:
 3104 04e3 6D656D6F 		.ascii	"memory_heap\000"
 3104      72795F68 
 3104      65617000 
 3105              		.ident	"GCC: (GNU Tools for ARM Embedded Processors) 4.8.4 20140526 (release) [ARM/embedded-4_8-br
ARM GAS  /tmp/cc0psXLf.s 			page 60


DEFINED SYMBOLS
                            *ABS*:00000000 testheap.c
     /tmp/cc0psXLf.s:21     .text.heap1_execute:00000000 $t
     /tmp/cc0psXLf.s:26     .text.heap1_execute:00000000 heap1_execute
     /tmp/cc0psXLf.s:409    .text.heap1_execute:00000240 $d
     /tmp/cc0psXLf.s:414    .text.heap1_setup:00000000 $t
     /tmp/cc0psXLf.s:419    .text.heap1_setup:00000000 heap1_setup
     /tmp/cc0psXLf.s:435    .text.heap1_setup:0000000c $d
     /tmp/cc0psXLf.s:446    .rodata.patternheap:00000000 patternheap
     /tmp/cc0psXLf.s:457    .rodata.testheap1:00000000 testheap1
     /tmp/cc0psXLf.s:443    .rodata.patternheap:00000000 $d
     /tmp/cc0psXLf.s:450    .rodata.str1.4:00000000 $d
     /tmp/cc0psXLf.s:454    .rodata.testheap1:00000000 $d
     /tmp/cc0psXLf.s:463    .bss.test_heap:00000000 $d
     /tmp/cc0psXLf.s:467    .bss.test_heap:00000000 test_heap
                     .debug_frame:00000010 $d
     /tmp/cc0psXLf.s:413    .text.heap1_execute:00000244 $t
     /tmp/cc0psXLf.s:442    .text.heap1_setup:00000014 $t

UNDEFINED SYMBOLS
chCoreStatus
chHeapStatus
chHeapAlloc
_test_assert
chHeapFree
chHeapInit
test
