ARM GAS  /tmp/ccrgxcxk.s 			page 1


   1              		.syntax unified
   2              		.cpu cortex-m4
   3              		.eabi_attribute 27, 3
   4              		.eabi_attribute 28, 1
   5              		.fpu fpv4-sp-d16
   6              		.eabi_attribute 20, 1
   7              		.eabi_attribute 21, 1
   8              		.eabi_attribute 23, 3
   9              		.eabi_attribute 24, 1
  10              		.eabi_attribute 25, 1
  11              		.eabi_attribute 26, 1
  12              		.eabi_attribute 30, 2
  13              		.eabi_attribute 34, 1
  14              		.eabi_attribute 18, 4
  15              		.thumb
  16              		.file	"testmbox.c"
  17              		.text
  18              	.Ltext0:
  19              		.cfi_sections	.debug_frame
  20              		.section	.text.mbox1_execute,"ax",%progbits
  21              		.align	2
  22              		.p2align 4,,15
  23              		.thumb
  24              		.thumb_func
  25              		.type	mbox1_execute, %function
  26              	mbox1_execute:
  27              	.LFB8:
  28              		.file 1 "../../test/testmbox.c"
  29              		.loc 1 76 0
  30              		.cfi_startproc
  31              		@ args = 0, pretend = 0, frame = 8
  32              		@ frame_needed = 0, uses_anonymous_args = 0
  33 0000 F0B5     		push	{r4, r5, r6, r7, lr}
  34              		.cfi_def_cfa_offset 20
  35              		.cfi_offset 4, -20
  36              		.cfi_offset 5, -16
  37              		.cfi_offset 6, -12
  38              		.cfi_offset 7, -8
  39              		.cfi_offset 14, -4
  40              		.loc 1 83 0
  41 0002 4B4E     		ldr	r6, .L31
  42 0004 716A     		ldr	r1, [r6, #36]
  43 0006 B1F1050E 		subs	lr, r1, #5
  44 000a DEF10001 		rsbs	r1, lr, #0
  45              		.loc 1 76 0
  46 000e 83B0     		sub	sp, sp, #12
  47              		.cfi_def_cfa_offset 32
  48              		.loc 1 83 0
  49 0010 51EB0E01 		adcs	r1, r1, lr
  50 0014 0120     		movs	r0, #1
  51 0016 FFF7FEFF 		bl	_test_assert
  52              	.LVL0:
  53 001a 00BB     		cbnz	r0, .L1
  54 001c 4224     		movs	r4, #66
  55              	.L4:
  56              	.LVL1:
  57              		.loc 1 89 0
ARM GAS  /tmp/ccrgxcxk.s 			page 2


  58 001e 444D     		ldr	r5, .L31
  59 0020 2146     		mov	r1, r4
  60 0022 2846     		mov	r0, r5
  61 0024 4FF0FF32 		mov	r2, #-1
  62 0028 FFF7FEFF 		bl	chMBPost
  63              	.LVL2:
  64              		.loc 1 90 0
  65 002c D0F10101 		rsbs	r1, r0, #1
  66 0030 38BF     		it	cc
  67 0032 0021     		movcc	r1, #0
  68 0034 0220     		movs	r0, #2
  69              	.LVL3:
  70 0036 0134     		adds	r4, r4, #1
  71              	.LVL4:
  72 0038 FFF7FEFF 		bl	_test_assert
  73              	.LVL5:
  74 003c 78B9     		cbnz	r0, .L1
  75              		.loc 1 88 0
  76 003e 462C     		cmp	r4, #70
  77 0040 EDD1     		bne	.L4
  78              		.loc 1 92 0
  79 0042 4121     		movs	r1, #65
  80 0044 2846     		mov	r0, r5
  81 0046 4FF0FF32 		mov	r2, #-1
  82 004a FFF7FEFF 		bl	chMBPostAhead
  83              	.LVL6:
  84              		.loc 1 93 0
  85 004e D0F10101 		rsbs	r1, r0, #1
  86 0052 38BF     		it	cc
  87 0054 0021     		movcc	r1, #0
  88 0056 0320     		movs	r0, #3
  89              	.LVL7:
  90 0058 FFF7FEFF 		bl	_test_assert
  91              	.LVL8:
  92 005c 08B1     		cbz	r0, .L30
  93              	.L1:
  94              		.loc 1 220 0
  95 005e 03B0     		add	sp, sp, #12
  96              		@ sp needed
  97 0060 F0BD     		pop	{r4, r5, r6, r7, pc}
  98              	.L30:
  99              		.loc 1 98 0
 100 0062 5821     		movs	r1, #88
 101 0064 0122     		movs	r2, #1
 102 0066 2846     		mov	r0, r5
 103 0068 FFF7FEFF 		bl	chMBPost
 104              	.LVL9:
 105              		.loc 1 99 0
 106 006c B0F1FF37 		subs	r7, r0, #-1
 107 0070 7942     		rsbs	r1, r7, #0
 108 0072 7941     		adcs	r1, r1, r7
 109 0074 0420     		movs	r0, #4
 110              	.LVL10:
 111 0076 FFF7FEFF 		bl	_test_assert
 112              	.LVL11:
 113 007a 0446     		mov	r4, r0
 114 007c 0028     		cmp	r0, #0
ARM GAS  /tmp/ccrgxcxk.s 			page 3


 115 007e EED1     		bne	.L1
 116              	.LBB2:
 117              		.loc 1 100 0
 118 0080 2023     		movs	r3, #32
 119              	@ 100 "../../test/testmbox.c" 1
 120 0082 83F31188 		msr     BASEPRI, r3
 121              	@ 0 "" 2
 122              		.thumb
 123              	.LBE2:
 124 0086 FFF7FEFF 		bl	dbg_check_lock
 125              	.LVL12:
 126              		.loc 1 101 0
 127 008a 5821     		movs	r1, #88
 128 008c 2846     		mov	r0, r5
 129 008e FFF7FEFF 		bl	chMBPostI
 130              	.LVL13:
 131 0092 0746     		mov	r7, r0
 132              	.LVL14:
 133              		.loc 1 102 0
 134 0094 FFF7FEFF 		bl	dbg_check_unlock
 135              	.LVL15:
 136              	.LBB3:
 137 0098 2346     		mov	r3, r4
 138              	@ 102 "../../test/testmbox.c" 1
 139 009a 83F31188 		msr     BASEPRI, r3
 140              	@ 0 "" 2
 141              		.thumb
 142              	.LBE3:
 143              		.loc 1 103 0
 144 009e B7F1FF34 		subs	r4, r7, #-1
 145 00a2 6142     		rsbs	r1, r4, #0
 146 00a4 6141     		adcs	r1, r1, r4
 147 00a6 0520     		movs	r0, #5
 148 00a8 FFF7FEFF 		bl	_test_assert
 149              	.LVL16:
 150 00ac 0028     		cmp	r0, #0
 151 00ae D6D1     		bne	.L1
 152              		.loc 1 104 0
 153 00b0 5821     		movs	r1, #88
 154 00b2 0122     		movs	r2, #1
 155 00b4 2846     		mov	r0, r5
 156 00b6 FFF7FEFF 		bl	chMBPostAhead
 157              	.LVL17:
 158              		.loc 1 105 0
 159 00ba B0F1FF30 		subs	r0, r0, #-1
 160              	.LVL18:
 161 00be 4142     		rsbs	r1, r0, #0
 162 00c0 4141     		adcs	r1, r1, r0
 163 00c2 0620     		movs	r0, #6
 164              	.LVL19:
 165 00c4 FFF7FEFF 		bl	_test_assert
 166              	.LVL20:
 167 00c8 0446     		mov	r4, r0
 168 00ca 0028     		cmp	r0, #0
 169 00cc C7D1     		bne	.L1
 170              	.LBB4:
 171              		.loc 1 106 0
ARM GAS  /tmp/ccrgxcxk.s 			page 4


 172 00ce 2023     		movs	r3, #32
 173              	@ 106 "../../test/testmbox.c" 1
 174 00d0 83F31188 		msr     BASEPRI, r3
 175              	@ 0 "" 2
 176              		.thumb
 177              	.LBE4:
 178 00d4 FFF7FEFF 		bl	dbg_check_lock
 179              	.LVL21:
 180              		.loc 1 107 0
 181 00d8 5821     		movs	r1, #88
 182 00da 2846     		mov	r0, r5
 183 00dc FFF7FEFF 		bl	chMBPostAheadI
 184              	.LVL22:
 185 00e0 0746     		mov	r7, r0
 186              	.LVL23:
 187              		.loc 1 108 0
 188 00e2 FFF7FEFF 		bl	dbg_check_unlock
 189              	.LVL24:
 190              	.LBB5:
 191 00e6 2346     		mov	r3, r4
 192              	@ 108 "../../test/testmbox.c" 1
 193 00e8 83F31188 		msr     BASEPRI, r3
 194              	@ 0 "" 2
 195              		.thumb
 196              	.LBE5:
 197              		.loc 1 109 0
 198 00ec B7F1FF32 		subs	r2, r7, #-1
 199 00f0 5142     		rsbs	r1, r2, #0
 200 00f2 4FF00700 		mov	r0, #7
 201 00f6 5141     		adcs	r1, r1, r2
 202 00f8 FFF7FEFF 		bl	_test_assert
 203              	.LVL25:
 204 00fc 0746     		mov	r7, r0
 205              	.LVL26:
 206 00fe 0028     		cmp	r0, #0
 207 0100 ADD1     		bne	.L1
 208              	.LBB6:
 209              		.loc 1 114 0
 210 0102 2023     		movs	r3, #32
 211              	@ 114 "../../test/testmbox.c" 1
 212 0104 83F31188 		msr     BASEPRI, r3
 213              	@ 0 "" 2
 214              		.thumb
 215              	.LBE6:
 216 0108 FFF7FEFF 		bl	dbg_check_lock
 217              	.LVL27:
 218 010c 696A     		ldr	r1, [r5, #36]
 219 010e D1F10101 		rsbs	r1, r1, #1
 220 0112 4FF00800 		mov	r0, #8
 221 0116 38BF     		it	cc
 222 0118 0021     		movcc	r1, #0
 223 011a FFF7FEFF 		bl	_test_assert
 224              	.LVL28:
 225 011e 0446     		mov	r4, r0
 226 0120 40B1     		cbz	r0, .L5
 227              		.loc 1 114 0 is_stmt 0 discriminator 1
 228 0122 FFF7FEFF 		bl	dbg_check_unlock
ARM GAS  /tmp/ccrgxcxk.s 			page 5


 229              	.LVL29:
 230              	.LBB7:
 231 0126 3B46     		mov	r3, r7
 232              	@ 114 "../../test/testmbox.c" 1
 233 0128 83F31188 		msr     BASEPRI, r3
 234              	@ 0 "" 2
 235              		.thumb
 236              	.LBE7:
 237 012c 97E7     		b	.L1
 238              	.L32:
 239 012e 00BF     		.align	2
 240              	.L31:
 241 0130 00000000 		.word	.LANCHOR0
 242              	.L5:
 243              		.loc 1 114 0 discriminator 2
 244 0134 FFF7FEFF 		bl	dbg_check_unlock
 245              	.LVL30:
 246              	.LBB8:
 247 0138 2346     		mov	r3, r4
 248              	@ 114 "../../test/testmbox.c" 1
 249 013a 83F31188 		msr     BASEPRI, r3
 250              	@ 0 "" 2
 251              		.thumb
 252              	.LBE8:
 253              	.LBB9:
 254              		.loc 1 115 0 is_stmt 1 discriminator 2
 255 013e 2023     		movs	r3, #32
 256              	@ 115 "../../test/testmbox.c" 1
 257 0140 83F31188 		msr     BASEPRI, r3
 258              	@ 0 "" 2
 259              		.thumb
 260              	.LBE9:
 261 0144 FFF7FEFF 		bl	dbg_check_lock
 262              	.LVL31:
 263 0148 A969     		ldr	r1, [r5, #24]
 264 014a 4B1F     		subs	r3, r1, #5
 265 014c 5942     		rsbs	r1, r3, #0
 266 014e 4FF00900 		mov	r0, #9
 267 0152 5941     		adcs	r1, r1, r3
 268 0154 FFF7FEFF 		bl	_test_assert
 269              	.LVL32:
 270 0158 0746     		mov	r7, r0
 271 015a 0028     		cmp	r0, #0
 272 015c 40F0AF82 		bne	.L27
 273 0160 FFF7FEFF 		bl	dbg_check_unlock
 274              	.LVL33:
 275              	.LBB10:
 276 0164 3B46     		mov	r3, r7
 277              	@ 115 "../../test/testmbox.c" 1
 278 0166 83F31188 		msr     BASEPRI, r3
 279              	@ 0 "" 2
 280              		.thumb
 281              	.LBE10:
 282              	.LBB11:
 283              		.loc 1 116 0 discriminator 2
 284 016a 2023     		movs	r3, #32
 285              	@ 116 "../../test/testmbox.c" 1
ARM GAS  /tmp/ccrgxcxk.s 			page 6


 286 016c 83F31188 		msr     BASEPRI, r3
 287              	@ 0 "" 2
 288              		.thumb
 289              	.LBE11:
 290 0170 FFF7FEFF 		bl	dbg_check_lock
 291              	.LVL34:
 292 0174 E968     		ldr	r1, [r5, #12]
 293 0176 AB68     		ldr	r3, [r5, #8]
 294 0178 B1EB030C 		subs	ip, r1, r3
 295 017c DCF10001 		rsbs	r1, ip, #0
 296 0180 51EB0C01 		adcs	r1, r1, ip
 297 0184 0A20     		movs	r0, #10
 298 0186 FFF7FEFF 		bl	_test_assert
 299              	.LVL35:
 300 018a 0028     		cmp	r0, #0
 301 018c 40F09182 		bne	.L25
 302 0190 FFF7FEFF 		bl	dbg_check_unlock
 303              	.LVL36:
 304              	.LBB12:
 305 0194 0023     		movs	r3, #0
 306              	@ 116 "../../test/testmbox.c" 1
 307 0196 83F31188 		msr     BASEPRI, r3
 308              	@ 0 "" 2
 309              	.LVL37:
 310              		.thumb
 311 019a 0525     		movs	r5, #5
 312              	.LVL38:
 313              	.L10:
 314              	.LBE12:
 315              		.loc 1 122 0
 316 019c B84C     		ldr	r4, .L33
 317 019e 01A9     		add	r1, sp, #4
 318 01a0 2046     		mov	r0, r4
 319 01a2 4FF0FF32 		mov	r2, #-1
 320 01a6 FFF7FEFF 		bl	chMBFetch
 321              	.LVL39:
 322              		.loc 1 123 0
 323 01aa D0F10101 		rsbs	r1, r0, #1
 324 01ae 38BF     		it	cc
 325 01b0 0021     		movcc	r1, #0
 326 01b2 0B20     		movs	r0, #11
 327              	.LVL40:
 328 01b4 FFF7FEFF 		bl	_test_assert
 329              	.LVL41:
 330 01b8 0028     		cmp	r0, #0
 331 01ba 7FF450AF 		bne	.L1
 332              		.loc 1 124 0
 333 01be 9DF80400 		ldrb	r0, [sp, #4]	@ zero_extendqisi2
 334 01c2 FFF7FEFF 		bl	test_emit_token
 335              	.LVL42:
 336              		.loc 1 121 0
 337 01c6 013D     		subs	r5, r5, #1
 338              	.LVL43:
 339 01c8 E8D1     		bne	.L10
 340              		.loc 1 126 0
 341 01ca 0C20     		movs	r0, #12
 342 01cc AD49     		ldr	r1, .L33+4
ARM GAS  /tmp/ccrgxcxk.s 			page 7


 343 01ce FFF7FEFF 		bl	_test_assert_sequence
 344              	.LVL44:
 345 01d2 0028     		cmp	r0, #0
 346 01d4 7FF443AF 		bne	.L1
 347              		.loc 1 131 0
 348 01d8 4721     		movs	r1, #71
 349 01da 2046     		mov	r0, r4
 350 01dc 4FF0FF32 		mov	r2, #-1
 351 01e0 FFF7FEFF 		bl	chMBPost
 352              	.LVL45:
 353              		.loc 1 132 0
 354 01e4 D0F10101 		rsbs	r1, r0, #1
 355 01e8 38BF     		it	cc
 356 01ea 0021     		movcc	r1, #0
 357 01ec 0D20     		movs	r0, #13
 358              	.LVL46:
 359 01ee FFF7FEFF 		bl	_test_assert
 360              	.LVL47:
 361 01f2 0028     		cmp	r0, #0
 362 01f4 7FF433AF 		bne	.L1
 363              		.loc 1 133 0
 364 01f8 01A9     		add	r1, sp, #4
 365 01fa 2046     		mov	r0, r4
 366 01fc 4FF0FF32 		mov	r2, #-1
 367 0200 FFF7FEFF 		bl	chMBFetch
 368              	.LVL48:
 369              		.loc 1 134 0
 370 0204 D0F10101 		rsbs	r1, r0, #1
 371 0208 38BF     		it	cc
 372 020a 0021     		movcc	r1, #0
 373 020c 0E20     		movs	r0, #14
 374              	.LVL49:
 375 020e FFF7FEFF 		bl	_test_assert
 376              	.LVL50:
 377 0212 0028     		cmp	r0, #0
 378 0214 7FF423AF 		bne	.L1
 379              		.loc 1 135 0
 380 0218 2168     		ldr	r1, [r4]
 381 021a A368     		ldr	r3, [r4, #8]
 382 021c B1EB030E 		subs	lr, r1, r3
 383 0220 DEF10001 		rsbs	r1, lr, #0
 384 0224 51EB0E01 		adcs	r1, r1, lr
 385 0228 0F20     		movs	r0, #15
 386 022a FFF7FEFF 		bl	_test_assert
 387              	.LVL51:
 388 022e 0028     		cmp	r0, #0
 389 0230 7FF415AF 		bne	.L1
 390              		.loc 1 136 0
 391 0234 2168     		ldr	r1, [r4]
 392 0236 E368     		ldr	r3, [r4, #12]
 393 0238 CF1A     		subs	r7, r1, r3
 394 023a 7942     		rsbs	r1, r7, #0
 395 023c 7941     		adcs	r1, r1, r7
 396 023e 1020     		movs	r0, #16
 397 0240 FFF7FEFF 		bl	_test_assert
 398              	.LVL52:
 399 0244 0028     		cmp	r0, #0
ARM GAS  /tmp/ccrgxcxk.s 			page 8


 400 0246 7FF40AAF 		bne	.L1
 401              		.loc 1 141 0
 402 024a 01A9     		add	r1, sp, #4
 403 024c 2046     		mov	r0, r4
 404 024e 0122     		movs	r2, #1
 405 0250 FFF7FEFF 		bl	chMBFetch
 406              	.LVL53:
 407              		.loc 1 142 0
 408 0254 B0F1FF30 		subs	r0, r0, #-1
 409              	.LVL54:
 410 0258 4142     		rsbs	r1, r0, #0
 411 025a 4141     		adcs	r1, r1, r0
 412 025c 1120     		movs	r0, #17
 413              	.LVL55:
 414 025e FFF7FEFF 		bl	_test_assert
 415              	.LVL56:
 416 0262 0028     		cmp	r0, #0
 417 0264 7FF4FBAE 		bne	.L1
 418              	.LBB13:
 419              		.loc 1 143 0
 420 0268 2023     		movs	r3, #32
 421              	@ 143 "../../test/testmbox.c" 1
 422 026a 83F31188 		msr     BASEPRI, r3
 423              	@ 0 "" 2
 424              		.thumb
 425              	.LBE13:
 426 026e FFF7FEFF 		bl	dbg_check_lock
 427              	.LVL57:
 428              		.loc 1 144 0
 429 0272 01A9     		add	r1, sp, #4
 430 0274 2046     		mov	r0, r4
 431 0276 FFF7FEFF 		bl	chMBFetchI
 432              	.LVL58:
 433 027a 0746     		mov	r7, r0
 434              	.LVL59:
 435              		.loc 1 145 0
 436 027c FFF7FEFF 		bl	dbg_check_unlock
 437              	.LVL60:
 438              	.LBB14:
 439 0280 2B46     		mov	r3, r5
 440              	@ 145 "../../test/testmbox.c" 1
 441 0282 83F31188 		msr     BASEPRI, r3
 442              	@ 0 "" 2
 443              		.thumb
 444              	.LBE14:
 445              		.loc 1 146 0
 446 0286 B7F1FF32 		subs	r2, r7, #-1
 447 028a 5142     		rsbs	r1, r2, #0
 448 028c 5141     		adcs	r1, r1, r2
 449 028e 1220     		movs	r0, #18
 450 0290 FFF7FEFF 		bl	_test_assert
 451              	.LVL61:
 452 0294 0028     		cmp	r0, #0
 453 0296 7FF4E2AE 		bne	.L1
 454              	.LBB15:
 455              		.loc 1 151 0
 456 029a 2023     		movs	r3, #32
ARM GAS  /tmp/ccrgxcxk.s 			page 9


 457              	@ 151 "../../test/testmbox.c" 1
 458 029c 83F31188 		msr     BASEPRI, r3
 459              	@ 0 "" 2
 460              		.thumb
 461              	.LBE15:
 462 02a0 FFF7FEFF 		bl	dbg_check_lock
 463              	.LVL62:
 464 02a4 616A     		ldr	r1, [r4, #36]
 465 02a6 4B1F     		subs	r3, r1, #5
 466 02a8 5942     		rsbs	r1, r3, #0
 467 02aa 5941     		adcs	r1, r1, r3
 468 02ac 1320     		movs	r0, #19
 469 02ae FFF7FEFF 		bl	_test_assert
 470              	.LVL63:
 471 02b2 0028     		cmp	r0, #0
 472 02b4 40F0FD81 		bne	.L25
 473              		.loc 1 151 0 is_stmt 0 discriminator 2
 474 02b8 FFF7FEFF 		bl	dbg_check_unlock
 475              	.LVL64:
 476              	.LBB16:
 477 02bc 0023     		movs	r3, #0
 478              	@ 151 "../../test/testmbox.c" 1
 479 02be 83F31188 		msr     BASEPRI, r3
 480              	@ 0 "" 2
 481              		.thumb
 482              	.LBE16:
 483              	.LBB17:
 484              		.loc 1 152 0 is_stmt 1 discriminator 2
 485 02c2 2023     		movs	r3, #32
 486              	@ 152 "../../test/testmbox.c" 1
 487 02c4 83F31188 		msr     BASEPRI, r3
 488              	@ 0 "" 2
 489              		.thumb
 490              	.LBE17:
 491 02c8 FFF7FEFF 		bl	dbg_check_lock
 492              	.LVL65:
 493 02cc B169     		ldr	r1, [r6, #24]
 494 02ce 6C4C     		ldr	r4, .L33
 495 02d0 D1F10101 		rsbs	r1, r1, #1
 496 02d4 38BF     		it	cc
 497 02d6 0021     		movcc	r1, #0
 498 02d8 1420     		movs	r0, #20
 499 02da FFF7FEFF 		bl	_test_assert
 500              	.LVL66:
 501 02de 0546     		mov	r5, r0
 502              	.LVL67:
 503 02e0 0028     		cmp	r0, #0
 504 02e2 40F0E681 		bne	.L25
 505 02e6 FFF7FEFF 		bl	dbg_check_unlock
 506              	.LVL68:
 507              	.LBB18:
 508 02ea 2B46     		mov	r3, r5
 509              	@ 152 "../../test/testmbox.c" 1
 510 02ec 83F31188 		msr     BASEPRI, r3
 511              	@ 0 "" 2
 512              		.thumb
 513              	.LBE18:
ARM GAS  /tmp/ccrgxcxk.s 			page 10


 514              	.LBB19:
 515              		.loc 1 153 0 discriminator 2
 516 02f0 2023     		movs	r3, #32
 517              	@ 153 "../../test/testmbox.c" 1
 518 02f2 83F31188 		msr     BASEPRI, r3
 519              	@ 0 "" 2
 520              		.thumb
 521              	.LBE19:
 522 02f6 FFF7FEFF 		bl	dbg_check_lock
 523              	.LVL69:
 524 02fa E168     		ldr	r1, [r4, #12]
 525 02fc A368     		ldr	r3, [r4, #8]
 526 02fe B1EB030C 		subs	ip, r1, r3
 527 0302 DCF10001 		rsbs	r1, ip, #0
 528 0306 4FF01500 		mov	r0, #21
 529 030a 51EB0C01 		adcs	r1, r1, ip
 530 030e FFF7FEFF 		bl	_test_assert
 531              	.LVL70:
 532 0312 0646     		mov	r6, r0
 533 0314 0028     		cmp	r0, #0
 534 0316 40F0AC80 		bne	.L28
 535 031a FFF7FEFF 		bl	dbg_check_unlock
 536              	.LVL71:
 537              	.LBB20:
 538 031e 3346     		mov	r3, r6
 539              	@ 153 "../../test/testmbox.c" 1
 540 0320 83F31188 		msr     BASEPRI, r3
 541              	@ 0 "" 2
 542              		.thumb
 543              	.LBE20:
 544              	.LBB21:
 545              		.loc 1 158 0 discriminator 2
 546 0324 2023     		movs	r3, #32
 547              	@ 158 "../../test/testmbox.c" 1
 548 0326 83F31188 		msr     BASEPRI, r3
 549              	@ 0 "" 2
 550              		.thumb
 551              	.LBE21:
 552 032a FFF7FEFF 		bl	dbg_check_lock
 553              	.LVL72:
 554              		.loc 1 159 0 discriminator 2
 555 032e 4121     		movs	r1, #65
 556 0330 2046     		mov	r0, r4
 557 0332 FFF7FEFF 		bl	chMBPostI
 558              	.LVL73:
 559              		.loc 1 160 0 discriminator 2
 560 0336 D0F10101 		rsbs	r1, r0, #1
 561 033a 38BF     		it	cc
 562 033c 0021     		movcc	r1, #0
 563 033e 1620     		movs	r0, #22
 564              	.LVL74:
 565 0340 FFF7FEFF 		bl	_test_assert
 566              	.LVL75:
 567 0344 0028     		cmp	r0, #0
 568 0346 7FF48AAE 		bne	.L1
 569              		.loc 1 161 0
 570 034a 4221     		movs	r1, #66
ARM GAS  /tmp/ccrgxcxk.s 			page 11


 571 034c 2046     		mov	r0, r4
 572 034e FFF7FEFF 		bl	chMBPostI
 573              	.LVL76:
 574              		.loc 1 162 0
 575 0352 D0F10101 		rsbs	r1, r0, #1
 576 0356 38BF     		it	cc
 577 0358 0021     		movcc	r1, #0
 578 035a 1720     		movs	r0, #23
 579              	.LVL77:
 580 035c FFF7FEFF 		bl	_test_assert
 581              	.LVL78:
 582 0360 0028     		cmp	r0, #0
 583 0362 7FF47CAE 		bne	.L1
 584              		.loc 1 163 0
 585 0366 4321     		movs	r1, #67
 586 0368 2046     		mov	r0, r4
 587 036a FFF7FEFF 		bl	chMBPostI
 588              	.LVL79:
 589              		.loc 1 164 0
 590 036e D0F10101 		rsbs	r1, r0, #1
 591 0372 38BF     		it	cc
 592 0374 0021     		movcc	r1, #0
 593 0376 1820     		movs	r0, #24
 594              	.LVL80:
 595 0378 FFF7FEFF 		bl	_test_assert
 596              	.LVL81:
 597 037c 0028     		cmp	r0, #0
 598 037e 7FF46EAE 		bne	.L1
 599              		.loc 1 165 0
 600 0382 4421     		movs	r1, #68
 601 0384 2046     		mov	r0, r4
 602 0386 FFF7FEFF 		bl	chMBPostI
 603              	.LVL82:
 604              		.loc 1 166 0
 605 038a D0F10101 		rsbs	r1, r0, #1
 606 038e 38BF     		it	cc
 607 0390 0021     		movcc	r1, #0
 608 0392 1920     		movs	r0, #25
 609              	.LVL83:
 610 0394 FFF7FEFF 		bl	_test_assert
 611              	.LVL84:
 612 0398 0546     		mov	r5, r0
 613 039a 0028     		cmp	r0, #0
 614 039c 7FF45FAE 		bne	.L1
 615              		.loc 1 167 0
 616 03a0 4521     		movs	r1, #69
 617 03a2 2046     		mov	r0, r4
 618 03a4 FFF7FEFF 		bl	chMBPostI
 619              	.LVL85:
 620 03a8 0646     		mov	r6, r0
 621              	.LVL86:
 622              		.loc 1 168 0
 623 03aa FFF7FEFF 		bl	dbg_check_unlock
 624              	.LVL87:
 625              	.LBB22:
 626 03ae 2B46     		mov	r3, r5
 627              	@ 168 "../../test/testmbox.c" 1
ARM GAS  /tmp/ccrgxcxk.s 			page 12


 628 03b0 83F31188 		msr     BASEPRI, r3
 629              	@ 0 "" 2
 630              		.thumb
 631              	.LBE22:
 632              		.loc 1 169 0
 633 03b4 D6F10101 		rsbs	r1, r6, #1
 634 03b8 38BF     		it	cc
 635 03ba 0021     		movcc	r1, #0
 636 03bc 1A20     		movs	r0, #26
 637 03be FFF7FEFF 		bl	_test_assert
 638              	.LVL88:
 639 03c2 0028     		cmp	r0, #0
 640 03c4 7FF44BAE 		bne	.L1
 641              		.loc 1 170 0
 642 03c8 E168     		ldr	r1, [r4, #12]
 643 03ca A368     		ldr	r3, [r4, #8]
 644 03cc B1EB030E 		subs	lr, r1, r3
 645 03d0 DEF10001 		rsbs	r1, lr, #0
 646 03d4 51EB0E01 		adcs	r1, r1, lr
 647 03d8 1B20     		movs	r0, #27
 648 03da FFF7FEFF 		bl	_test_assert
 649              	.LVL89:
 650 03de 0028     		cmp	r0, #0
 651 03e0 7FF43DAE 		bne	.L1
 652 03e4 0525     		movs	r5, #5
 653              	.L15:
 654              	.LVL90:
 655              	.LBB23:
 656              		.loc 1 172 0
 657 03e6 2023     		movs	r3, #32
 658              	@ 172 "../../test/testmbox.c" 1
 659 03e8 83F31188 		msr     BASEPRI, r3
 660              	@ 0 "" 2
 661              		.thumb
 662              	.LBE23:
 663              		.loc 1 173 0
 664 03ec 244C     		ldr	r4, .L33
 665              		.loc 1 172 0
 666 03ee FFF7FEFF 		bl	dbg_check_lock
 667              	.LVL91:
 668              		.loc 1 173 0
 669 03f2 01A9     		add	r1, sp, #4
 670 03f4 2046     		mov	r0, r4
 671 03f6 FFF7FEFF 		bl	chMBFetchI
 672              	.LVL92:
 673 03fa 0646     		mov	r6, r0
 674              	.LVL93:
 675              		.loc 1 174 0
 676 03fc FFF7FEFF 		bl	dbg_check_unlock
 677              	.LVL94:
 678              	.LBB24:
 679 0400 0023     		movs	r3, #0
 680              	@ 174 "../../test/testmbox.c" 1
 681 0402 83F31188 		msr     BASEPRI, r3
 682              	@ 0 "" 2
 683              		.thumb
 684              	.LBE24:
ARM GAS  /tmp/ccrgxcxk.s 			page 13


 685              		.loc 1 175 0
 686 0406 F71A     		subs	r7, r6, r3
 687 0408 7942     		rsbs	r1, r7, #0
 688 040a 7941     		adcs	r1, r1, r7
 689 040c 1C20     		movs	r0, #28
 690 040e FFF7FEFF 		bl	_test_assert
 691              	.LVL95:
 692 0412 0028     		cmp	r0, #0
 693 0414 7FF423AE 		bne	.L1
 694              		.loc 1 176 0
 695 0418 9DF80400 		ldrb	r0, [sp, #4]	@ zero_extendqisi2
 696 041c FFF7FEFF 		bl	test_emit_token
 697              	.LVL96:
 698              		.loc 1 171 0
 699 0420 013D     		subs	r5, r5, #1
 700              	.LVL97:
 701 0422 E0D1     		bne	.L15
 702              		.loc 1 178 0
 703 0424 1D20     		movs	r0, #29
 704 0426 1749     		ldr	r1, .L33+4
 705 0428 FFF7FEFF 		bl	_test_assert_sequence
 706              	.LVL98:
 707 042c 0028     		cmp	r0, #0
 708 042e 7FF416AE 		bne	.L1
 709              	.LBB25:
 710              		.loc 1 179 0
 711 0432 2023     		movs	r3, #32
 712              	@ 179 "../../test/testmbox.c" 1
 713 0434 83F31188 		msr     BASEPRI, r3
 714              	@ 0 "" 2
 715              		.thumb
 716              	.LBE25:
 717 0438 FFF7FEFF 		bl	dbg_check_lock
 718              	.LVL99:
 719 043c 616A     		ldr	r1, [r4, #36]
 720 043e 4E1F     		subs	r6, r1, #5
 721              	.LVL100:
 722 0440 7142     		rsbs	r1, r6, #0
 723 0442 7141     		adcs	r1, r1, r6
 724 0444 1E20     		movs	r0, #30
 725 0446 FFF7FEFF 		bl	_test_assert
 726              	.LVL101:
 727 044a 90B9     		cbnz	r0, .L28
 728              		.loc 1 179 0 is_stmt 0 discriminator 2
 729 044c FFF7FEFF 		bl	dbg_check_unlock
 730              	.LVL102:
 731              	.LBB26:
 732 0450 2B46     		mov	r3, r5
 733              	@ 179 "../../test/testmbox.c" 1
 734 0452 83F31188 		msr     BASEPRI, r3
 735              	@ 0 "" 2
 736              		.thumb
 737              	.LBE26:
 738              	.LBB27:
 739              		.loc 1 180 0 is_stmt 1 discriminator 2
 740 0456 2023     		movs	r3, #32
 741              	@ 180 "../../test/testmbox.c" 1
ARM GAS  /tmp/ccrgxcxk.s 			page 14


 742 0458 83F31188 		msr     BASEPRI, r3
 743              	@ 0 "" 2
 744              		.thumb
 745              	.LBE27:
 746 045c FFF7FEFF 		bl	dbg_check_lock
 747              	.LVL103:
 748 0460 A169     		ldr	r1, [r4, #24]
 749 0462 D1F10101 		rsbs	r1, r1, #1
 750 0466 38BF     		it	cc
 751 0468 0021     		movcc	r1, #0
 752 046a 1F20     		movs	r0, #31
 753 046c FFF7FEFF 		bl	_test_assert
 754              	.LVL104:
 755 0470 50B1     		cbz	r0, .L17
 756              	.LVL105:
 757              	.L28:
 758              		.loc 1 180 0 is_stmt 0 discriminator 1
 759 0472 FFF7FEFF 		bl	dbg_check_unlock
 760              	.LVL106:
 761              	.LBB28:
 762 0476 2B46     		mov	r3, r5
 763              	@ 180 "../../test/testmbox.c" 1
 764 0478 83F31188 		msr     BASEPRI, r3
 765              	@ 0 "" 2
 766              		.thumb
 767              	.LBE28:
 768 047c EFE5     		b	.L1
 769              	.L34:
 770 047e 00BF     		.align	2
 771              	.L33:
 772 0480 00000000 		.word	.LANCHOR0
 773 0484 00000000 		.word	.LC0
 774              	.LVL107:
 775              	.L17:
 776              		.loc 1 180 0 discriminator 2
 777 0488 FFF7FEFF 		bl	dbg_check_unlock
 778              	.LVL108:
 779              	.LBB29:
 780 048c 2B46     		mov	r3, r5
 781              	@ 180 "../../test/testmbox.c" 1
 782 048e 83F31188 		msr     BASEPRI, r3
 783              	@ 0 "" 2
 784              		.thumb
 785              	.LBE29:
 786              		.loc 1 181 0 is_stmt 1 discriminator 2
 787 0492 E168     		ldr	r1, [r4, #12]
 788 0494 A368     		ldr	r3, [r4, #8]
 789 0496 CD1A     		subs	r5, r1, r3
 790              	.LVL109:
 791 0498 6942     		rsbs	r1, r5, #0
 792 049a 6941     		adcs	r1, r1, r5
 793 049c 2020     		movs	r0, #32
 794 049e FFF7FEFF 		bl	_test_assert
 795              	.LVL110:
 796 04a2 0028     		cmp	r0, #0
 797 04a4 7FF4DBAD 		bne	.L1
 798              	.LBB30:
ARM GAS  /tmp/ccrgxcxk.s 			page 15


 799              		.loc 1 183 0
 800 04a8 2023     		movs	r3, #32
 801              	@ 183 "../../test/testmbox.c" 1
 802 04aa 83F31188 		msr     BASEPRI, r3
 803              	@ 0 "" 2
 804              		.thumb
 805              	.LBE30:
 806 04ae FFF7FEFF 		bl	dbg_check_lock
 807              	.LVL111:
 808              		.loc 1 184 0
 809 04b2 4521     		movs	r1, #69
 810 04b4 2046     		mov	r0, r4
 811 04b6 FFF7FEFF 		bl	chMBPostAheadI
 812              	.LVL112:
 813              		.loc 1 185 0
 814 04ba D0F10101 		rsbs	r1, r0, #1
 815 04be 38BF     		it	cc
 816 04c0 0021     		movcc	r1, #0
 817 04c2 2120     		movs	r0, #33
 818              	.LVL113:
 819 04c4 FFF7FEFF 		bl	_test_assert
 820              	.LVL114:
 821 04c8 0028     		cmp	r0, #0
 822 04ca 7FF4C8AD 		bne	.L1
 823              		.loc 1 186 0
 824 04ce 4421     		movs	r1, #68
 825 04d0 2046     		mov	r0, r4
 826 04d2 FFF7FEFF 		bl	chMBPostAheadI
 827              	.LVL115:
 828              		.loc 1 187 0
 829 04d6 D0F10101 		rsbs	r1, r0, #1
 830 04da 38BF     		it	cc
 831 04dc 0021     		movcc	r1, #0
 832 04de 2220     		movs	r0, #34
 833              	.LVL116:
 834 04e0 FFF7FEFF 		bl	_test_assert
 835              	.LVL117:
 836 04e4 0028     		cmp	r0, #0
 837 04e6 7FF4BAAD 		bne	.L1
 838              		.loc 1 188 0
 839 04ea 4321     		movs	r1, #67
 840 04ec 2046     		mov	r0, r4
 841 04ee FFF7FEFF 		bl	chMBPostAheadI
 842              	.LVL118:
 843              		.loc 1 189 0
 844 04f2 D0F10101 		rsbs	r1, r0, #1
 845 04f6 38BF     		it	cc
 846 04f8 0021     		movcc	r1, #0
 847 04fa 2320     		movs	r0, #35
 848              	.LVL119:
 849 04fc FFF7FEFF 		bl	_test_assert
 850              	.LVL120:
 851 0500 0028     		cmp	r0, #0
 852 0502 7FF4ACAD 		bne	.L1
 853              		.loc 1 190 0
 854 0506 4221     		movs	r1, #66
 855 0508 2046     		mov	r0, r4
ARM GAS  /tmp/ccrgxcxk.s 			page 16


 856 050a FFF7FEFF 		bl	chMBPostAheadI
 857              	.LVL121:
 858              		.loc 1 191 0
 859 050e D0F10101 		rsbs	r1, r0, #1
 860 0512 38BF     		it	cc
 861 0514 0021     		movcc	r1, #0
 862 0516 2420     		movs	r0, #36
 863              	.LVL122:
 864 0518 FFF7FEFF 		bl	_test_assert
 865              	.LVL123:
 866 051c 0028     		cmp	r0, #0
 867 051e 7FF49EAD 		bne	.L1
 868              		.loc 1 192 0
 869 0522 6A4C     		ldr	r4, .L35
 870 0524 4121     		movs	r1, #65
 871 0526 2046     		mov	r0, r4
 872 0528 FFF7FEFF 		bl	chMBPostAheadI
 873              	.LVL124:
 874 052c 0546     		mov	r5, r0
 875              	.LVL125:
 876              		.loc 1 193 0
 877 052e FFF7FEFF 		bl	dbg_check_unlock
 878              	.LVL126:
 879              	.LBB31:
 880 0532 0023     		movs	r3, #0
 881              	@ 193 "../../test/testmbox.c" 1
 882 0534 83F31188 		msr     BASEPRI, r3
 883              	@ 0 "" 2
 884              		.thumb
 885              	.LBE31:
 886              		.loc 1 194 0
 887 0538 EA1A     		subs	r2, r5, r3
 888 053a 5142     		rsbs	r1, r2, #0
 889 053c 5141     		adcs	r1, r1, r2
 890 053e 2520     		movs	r0, #37
 891 0540 FFF7FEFF 		bl	_test_assert
 892              	.LVL127:
 893 0544 0028     		cmp	r0, #0
 894 0546 7FF48AAD 		bne	.L1
 895              		.loc 1 195 0
 896 054a E168     		ldr	r1, [r4, #12]
 897 054c A368     		ldr	r3, [r4, #8]
 898 054e CB1A     		subs	r3, r1, r3
 899 0550 5942     		rsbs	r1, r3, #0
 900 0552 5941     		adcs	r1, r1, r3
 901 0554 2620     		movs	r0, #38
 902 0556 FFF7FEFF 		bl	_test_assert
 903              	.LVL128:
 904 055a 0028     		cmp	r0, #0
 905 055c 7FF47FAD 		bne	.L1
 906 0560 0524     		movs	r4, #5
 907              	.LVL129:
 908              	.L19:
 909              	.LBB32:
 910              		.loc 1 197 0
 911 0562 2023     		movs	r3, #32
 912              	@ 197 "../../test/testmbox.c" 1
ARM GAS  /tmp/ccrgxcxk.s 			page 17


 913 0564 83F31188 		msr     BASEPRI, r3
 914              	@ 0 "" 2
 915              		.thumb
 916              	.LBE32:
 917              		.loc 1 198 0
 918 0568 584D     		ldr	r5, .L35
 919              		.loc 1 197 0
 920 056a FFF7FEFF 		bl	dbg_check_lock
 921              	.LVL130:
 922              		.loc 1 198 0
 923 056e 01A9     		add	r1, sp, #4
 924 0570 2846     		mov	r0, r5
 925 0572 FFF7FEFF 		bl	chMBFetchI
 926              	.LVL131:
 927 0576 0646     		mov	r6, r0
 928              	.LVL132:
 929              		.loc 1 199 0
 930 0578 FFF7FEFF 		bl	dbg_check_unlock
 931              	.LVL133:
 932              	.LBB33:
 933 057c 0023     		movs	r3, #0
 934              	@ 199 "../../test/testmbox.c" 1
 935 057e 83F31188 		msr     BASEPRI, r3
 936              	@ 0 "" 2
 937              		.thumb
 938              	.LBE33:
 939              		.loc 1 200 0
 940 0582 B6EB030C 		subs	ip, r6, r3
 941 0586 DCF10001 		rsbs	r1, ip, #0
 942 058a 51EB0C01 		adcs	r1, r1, ip
 943 058e 2720     		movs	r0, #39
 944 0590 FFF7FEFF 		bl	_test_assert
 945              	.LVL134:
 946 0594 0028     		cmp	r0, #0
 947 0596 7FF462AD 		bne	.L1
 948              		.loc 1 201 0
 949 059a 9DF80400 		ldrb	r0, [sp, #4]	@ zero_extendqisi2
 950 059e FFF7FEFF 		bl	test_emit_token
 951              	.LVL135:
 952              		.loc 1 196 0
 953 05a2 013C     		subs	r4, r4, #1
 954              	.LVL136:
 955 05a4 DDD1     		bne	.L19
 956              		.loc 1 203 0
 957 05a6 2820     		movs	r0, #40
 958 05a8 4949     		ldr	r1, .L35+4
 959 05aa FFF7FEFF 		bl	_test_assert_sequence
 960              	.LVL137:
 961 05ae 0028     		cmp	r0, #0
 962 05b0 7FF455AD 		bne	.L1
 963              	.LBB34:
 964              		.loc 1 204 0
 965 05b4 2023     		movs	r3, #32
 966              	@ 204 "../../test/testmbox.c" 1
 967 05b6 83F31188 		msr     BASEPRI, r3
 968              	@ 0 "" 2
 969              		.thumb
ARM GAS  /tmp/ccrgxcxk.s 			page 18


 970              	.LBE34:
 971 05ba FFF7FEFF 		bl	dbg_check_lock
 972              	.LVL138:
 973 05be 696A     		ldr	r1, [r5, #36]
 974 05c0 B1F1050E 		subs	lr, r1, #5
 975 05c4 DEF10001 		rsbs	r1, lr, #0
 976 05c8 51EB0E01 		adcs	r1, r1, lr
 977 05cc 2920     		movs	r0, #41
 978 05ce FFF7FEFF 		bl	_test_assert
 979              	.LVL139:
 980 05d2 0028     		cmp	r0, #0
 981 05d4 73D1     		bne	.L27
 982              		.loc 1 204 0 is_stmt 0 discriminator 2
 983 05d6 FFF7FEFF 		bl	dbg_check_unlock
 984              	.LVL140:
 985              	.LBB35:
 986 05da 2346     		mov	r3, r4
 987              	@ 204 "../../test/testmbox.c" 1
 988 05dc 83F31188 		msr     BASEPRI, r3
 989              	@ 0 "" 2
 990              		.thumb
 991              	.LBE35:
 992              	.LBB36:
 993              		.loc 1 205 0 is_stmt 1 discriminator 2
 994 05e0 2023     		movs	r3, #32
 995              	@ 205 "../../test/testmbox.c" 1
 996 05e2 83F31188 		msr     BASEPRI, r3
 997              	@ 0 "" 2
 998              		.thumb
 999              	.LBE36:
 1000 05e6 FFF7FEFF 		bl	dbg_check_lock
 1001              	.LVL141:
 1002 05ea A969     		ldr	r1, [r5, #24]
 1003 05ec D1F10101 		rsbs	r1, r1, #1
 1004 05f0 38BF     		it	cc
 1005 05f2 0021     		movcc	r1, #0
 1006 05f4 2A20     		movs	r0, #42
 1007 05f6 FFF7FEFF 		bl	_test_assert
 1008              	.LVL142:
 1009 05fa 0028     		cmp	r0, #0
 1010 05fc 5FD1     		bne	.L27
 1011 05fe FFF7FEFF 		bl	dbg_check_unlock
 1012              	.LVL143:
 1013              	.LBB37:
 1014 0602 2346     		mov	r3, r4
 1015              	@ 205 "../../test/testmbox.c" 1
 1016 0604 83F31188 		msr     BASEPRI, r3
 1017              	@ 0 "" 2
 1018              		.thumb
 1019              	.LBE37:
 1020              		.loc 1 206 0 discriminator 2
 1021 0608 E968     		ldr	r1, [r5, #12]
 1022 060a AB68     		ldr	r3, [r5, #8]
 1023 060c CF1A     		subs	r7, r1, r3
 1024 060e 7942     		rsbs	r1, r7, #0
 1025 0610 7941     		adcs	r1, r1, r7
 1026 0612 2B20     		movs	r0, #43
ARM GAS  /tmp/ccrgxcxk.s 			page 19


 1027 0614 FFF7FEFF 		bl	_test_assert
 1028              	.LVL144:
 1029 0618 0028     		cmp	r0, #0
 1030 061a 7FF420AD 		bne	.L1
 1031              		.loc 1 211 0
 1032 061e 2846     		mov	r0, r5
 1033 0620 FFF7FEFF 		bl	chMBReset
 1034              	.LVL145:
 1035              	.LBB38:
 1036              		.loc 1 216 0
 1037 0624 2023     		movs	r3, #32
 1038              	@ 216 "../../test/testmbox.c" 1
 1039 0626 83F31188 		msr     BASEPRI, r3
 1040              	@ 0 "" 2
 1041              		.thumb
 1042              	.LBE38:
 1043 062a FFF7FEFF 		bl	dbg_check_lock
 1044              	.LVL146:
 1045 062e 696A     		ldr	r1, [r5, #36]
 1046 0630 4E1F     		subs	r6, r1, #5
 1047              	.LVL147:
 1048 0632 7142     		rsbs	r1, r6, #0
 1049 0634 7141     		adcs	r1, r1, r6
 1050 0636 2C20     		movs	r0, #44
 1051 0638 FFF7FEFF 		bl	_test_assert
 1052              	.LVL148:
 1053 063c 0028     		cmp	r0, #0
 1054 063e 3ED1     		bne	.L27
 1055              		.loc 1 216 0 is_stmt 0 discriminator 2
 1056 0640 FFF7FEFF 		bl	dbg_check_unlock
 1057              	.LVL149:
 1058              	.LBB39:
 1059 0644 2346     		mov	r3, r4
 1060              	@ 216 "../../test/testmbox.c" 1
 1061 0646 83F31188 		msr     BASEPRI, r3
 1062              	@ 0 "" 2
 1063              		.thumb
 1064              	.LBE39:
 1065              	.LBB40:
 1066              		.loc 1 217 0 is_stmt 1 discriminator 2
 1067 064a 2023     		movs	r3, #32
 1068              	@ 217 "../../test/testmbox.c" 1
 1069 064c 83F31188 		msr     BASEPRI, r3
 1070              	@ 0 "" 2
 1071              		.thumb
 1072              	.LBE40:
 1073 0650 FFF7FEFF 		bl	dbg_check_lock
 1074              	.LVL150:
 1075 0654 A969     		ldr	r1, [r5, #24]
 1076 0656 D1F10101 		rsbs	r1, r1, #1
 1077 065a 38BF     		it	cc
 1078 065c 0021     		movcc	r1, #0
 1079 065e 2D20     		movs	r0, #45
 1080 0660 FFF7FEFF 		bl	_test_assert
 1081              	.LVL151:
 1082 0664 58BB     		cbnz	r0, .L27
 1083 0666 FFF7FEFF 		bl	dbg_check_unlock
ARM GAS  /tmp/ccrgxcxk.s 			page 20


 1084              	.LVL152:
 1085              	.LBB41:
 1086 066a 2346     		mov	r3, r4
 1087              	@ 217 "../../test/testmbox.c" 1
 1088 066c 83F31188 		msr     BASEPRI, r3
 1089              	@ 0 "" 2
 1090              		.thumb
 1091              	.LBE41:
 1092              	.LBB42:
 1093              		.loc 1 218 0 discriminator 2
 1094 0670 2023     		movs	r3, #32
 1095              	@ 218 "../../test/testmbox.c" 1
 1096 0672 83F31188 		msr     BASEPRI, r3
 1097              	@ 0 "" 2
 1098              		.thumb
 1099              	.LBE42:
 1100 0676 FFF7FEFF 		bl	dbg_check_lock
 1101              	.LVL153:
 1102 067a 2968     		ldr	r1, [r5]
 1103 067c AB68     		ldr	r3, [r5, #8]
 1104 067e CA1A     		subs	r2, r1, r3
 1105 0680 5142     		rsbs	r1, r2, #0
 1106 0682 5141     		adcs	r1, r1, r2
 1107 0684 2E20     		movs	r0, #46
 1108 0686 FFF7FEFF 		bl	_test_assert
 1109              	.LVL154:
 1110 068a C0B9     		cbnz	r0, .L27
 1111 068c FFF7FEFF 		bl	dbg_check_unlock
 1112              	.LVL155:
 1113              	.LBB43:
 1114 0690 2346     		mov	r3, r4
 1115              	@ 218 "../../test/testmbox.c" 1
 1116 0692 83F31188 		msr     BASEPRI, r3
 1117              	@ 0 "" 2
 1118              		.thumb
 1119              	.LBE43:
 1120              	.LBB44:
 1121              		.loc 1 219 0 discriminator 2
 1122 0696 2023     		movs	r3, #32
 1123              	@ 219 "../../test/testmbox.c" 1
 1124 0698 83F31188 		msr     BASEPRI, r3
 1125              	@ 0 "" 2
 1126              		.thumb
 1127              	.LBE44:
 1128 069c FFF7FEFF 		bl	dbg_check_lock
 1129              	.LVL156:
 1130 06a0 2968     		ldr	r1, [r5]
 1131 06a2 EB68     		ldr	r3, [r5, #12]
 1132 06a4 CB1A     		subs	r3, r1, r3
 1133 06a6 5942     		rsbs	r1, r3, #0
 1134 06a8 4FF02F00 		mov	r0, #47
 1135 06ac 5941     		adcs	r1, r1, r3
 1136 06ae FFF7FEFF 		bl	_test_assert
 1137              	.LVL157:
 1138              	.L25:
 1139 06b2 FFF7FEFF 		bl	dbg_check_unlock
 1140              	.LVL158:
ARM GAS  /tmp/ccrgxcxk.s 			page 21


 1141              	.LBB45:
 1142 06b6 0023     		movs	r3, #0
 1143              	@ 219 "../../test/testmbox.c" 1
 1144 06b8 83F31188 		msr     BASEPRI, r3
 1145              	@ 0 "" 2
 1146              		.thumb
 1147              	.LBE45:
 1148 06bc CFE4     		b	.L1
 1149              	.L27:
 1150              		.loc 1 218 0 discriminator 1
 1151 06be FFF7FEFF 		bl	dbg_check_unlock
 1152              	.LVL159:
 1153              	.LBB46:
 1154 06c2 2346     		mov	r3, r4
 1155              	@ 218 "../../test/testmbox.c" 1
 1156 06c4 83F31188 		msr     BASEPRI, r3
 1157              	@ 0 "" 2
 1158              		.thumb
 1159              	.LBE46:
 1160 06c8 C9E4     		b	.L1
 1161              	.L36:
 1162 06ca 00BF     		.align	2
 1163              	.L35:
 1164 06cc 00000000 		.word	.LANCHOR0
 1165 06d0 00000000 		.word	.LC0
 1166              		.cfi_endproc
 1167              	.LFE8:
 1168              		.size	mbox1_execute, .-mbox1_execute
 1169 06d4 AFF30080 		.section	.text.mbox1_setup,"ax",%progbits
 1169      AFF30080 
 1169      AFF30080 
 1170              		.align	2
 1171              		.p2align 4,,15
 1172              		.thumb
 1173              		.thumb_func
 1174              		.type	mbox1_setup, %function
 1175              	mbox1_setup:
 1176              	.LFB7:
 1177              		.loc 1 71 0
 1178              		.cfi_startproc
 1179              		@ args = 0, pretend = 0, frame = 0
 1180              		@ frame_needed = 0, uses_anonymous_args = 0
 1181              		@ link register save eliminated.
 1182              		.loc 1 73 0
 1183 0000 0248     		ldr	r0, .L38
 1184 0002 0349     		ldr	r1, .L38+4
 1185 0004 0522     		movs	r2, #5
 1186 0006 FFF7FEBF 		b	chMBInit
 1187              	.LVL160:
 1188              	.L39:
 1189 000a 00BF     		.align	2
 1190              	.L38:
 1191 000c 00000000 		.word	.LANCHOR0
 1192 0010 00000000 		.word	test
 1193              		.cfi_endproc
 1194              	.LFE7:
 1195              		.size	mbox1_setup, .-mbox1_setup
ARM GAS  /tmp/ccrgxcxk.s 			page 22


 1196              		.global	patternmbox
 1197              		.global	testmbox1
 1198 0014 AFF30080 		.section	.data.mb1,"aw",%progbits
 1198      AFF30080 
 1198      AFF30080 
 1199              		.align	2
 1200              		.set	.LANCHOR0,. + 0
 1201              		.type	mb1, %object
 1202              		.size	mb1, 40
 1203              	mb1:
 1204 0000 00000000 		.word	test
 1205 0004 14000000 		.word	test+20
 1206 0008 00000000 		.word	test
 1207 000c 00000000 		.word	test
 1208 0010 10000000 		.word	mb1+16
 1209 0014 10000000 		.word	mb1+16
 1210 0018 00000000 		.word	0
 1211 001c 1C000000 		.word	mb1+28
 1212 0020 1C000000 		.word	mb1+28
 1213 0024 05000000 		.word	5
 1214              		.section	.rodata.patternmbox,"a",%progbits
 1215              		.align	2
 1216              		.type	patternmbox, %object
 1217              		.size	patternmbox, 8
 1218              	patternmbox:
 1219 0000 00000000 		.word	testmbox1
 1220 0004 00000000 		.word	0
 1221              		.section	.rodata.str1.4,"aMS",%progbits,1
 1222              		.align	2
 1223              	.LC0:
 1224 0000 41424344 		.ascii	"ABCDE\000"
 1224      4500
 1225 0006 0000     		.space	2
 1226              	.LC1:
 1227 0008 4D61696C 		.ascii	"Mailboxes, queuing and timeouts\000"
 1227      626F7865 
 1227      732C2071 
 1227      75657569 
 1227      6E672061 
 1228              		.section	.rodata.testmbox1,"a",%progbits
 1229              		.align	2
 1230              		.type	testmbox1, %object
 1231              		.size	testmbox1, 16
 1232              	testmbox1:
 1233 0000 08000000 		.word	.LC1
 1234 0004 00000000 		.word	mbox1_setup
 1235 0008 00000000 		.word	0
 1236 000c 00000000 		.word	mbox1_execute
 1237              		.text
 1238              	.Letext0:
 1239              		.file 2 "/opt/ARM/arm-none-eabi/include/machine/_default_types.h"
 1240              		.file 3 "/opt/ARM/arm-none-eabi/include/stdint.h"
 1241              		.file 4 "../../os/ports/GCC/ARMCMx/chtypes.h"
 1242              		.file 5 "../../os/kernel/include/chlists.h"
 1243              		.file 6 "../../os/kernel/include/chthreads.h"
 1244              		.file 7 "../../os/ports/GCC/ARMCMx/chcore_v7m.h"
 1245              		.file 8 "../../os/kernel/include/chsem.h"
ARM GAS  /tmp/ccrgxcxk.s 			page 23


 1246              		.file 9 "../../os/kernel/include/chmtx.h"
 1247              		.file 10 "../../os/kernel/include/chmboxes.h"
 1248              		.file 11 "../../test/test.h"
 1249              		.file 12 "../../os/kernel/include/chdebug.h"
 1250              		.section	.debug_info,"",%progbits
 1251              	.Ldebug_info0:
 1252 0000 48150000 		.4byte	0x1548
 1253 0004 0400     		.2byte	0x4
 1254 0006 00000000 		.4byte	.Ldebug_abbrev0
 1255 000a 04       		.byte	0x4
 1256 000b 01       		.uleb128 0x1
 1257 000c 0D030000 		.4byte	.LASF100
 1258 0010 01       		.byte	0x1
 1259 0011 D7020000 		.4byte	.LASF101
 1260 0015 8A040000 		.4byte	.LASF102
 1261 0019 00000000 		.4byte	.Ldebug_ranges0+0
 1262 001d 00000000 		.4byte	0
 1263 0021 00000000 		.4byte	.Ldebug_line0
 1264 0025 02       		.uleb128 0x2
 1265 0026 04       		.byte	0x4
 1266 0027 05       		.byte	0x5
 1267 0028 696E7400 		.ascii	"int\000"
 1268 002c 03       		.uleb128 0x3
 1269 002d 04       		.byte	0x4
 1270 002e 07       		.byte	0x7
 1271 002f 24010000 		.4byte	.LASF0
 1272 0033 03       		.uleb128 0x3
 1273 0034 01       		.byte	0x1
 1274 0035 06       		.byte	0x6
 1275 0036 87000000 		.4byte	.LASF1
 1276 003a 04       		.uleb128 0x4
 1277 003b 16000000 		.4byte	.LASF5
 1278 003f 02       		.byte	0x2
 1279 0040 1C       		.byte	0x1c
 1280 0041 45000000 		.4byte	0x45
 1281 0045 03       		.uleb128 0x3
 1282 0046 01       		.byte	0x1
 1283 0047 08       		.byte	0x8
 1284 0048 A6020000 		.4byte	.LASF2
 1285 004c 03       		.uleb128 0x3
 1286 004d 02       		.byte	0x2
 1287 004e 05       		.byte	0x5
 1288 004f CD020000 		.4byte	.LASF3
 1289 0053 03       		.uleb128 0x3
 1290 0054 02       		.byte	0x2
 1291 0055 07       		.byte	0x7
 1292 0056 7E010000 		.4byte	.LASF4
 1293 005a 04       		.uleb128 0x4
 1294 005b 6B040000 		.4byte	.LASF6
 1295 005f 02       		.byte	0x2
 1296 0060 37       		.byte	0x37
 1297 0061 65000000 		.4byte	0x65
 1298 0065 03       		.uleb128 0x3
 1299 0066 04       		.byte	0x4
 1300 0067 05       		.byte	0x5
 1301 0068 CD000000 		.4byte	.LASF7
 1302 006c 04       		.uleb128 0x4
ARM GAS  /tmp/ccrgxcxk.s 			page 24


 1303 006d FF000000 		.4byte	.LASF8
 1304 0071 02       		.byte	0x2
 1305 0072 38       		.byte	0x38
 1306 0073 77000000 		.4byte	0x77
 1307 0077 03       		.uleb128 0x3
 1308 0078 04       		.byte	0x4
 1309 0079 07       		.byte	0x7
 1310 007a 44010000 		.4byte	.LASF9
 1311 007e 03       		.uleb128 0x3
 1312 007f 08       		.byte	0x8
 1313 0080 05       		.byte	0x5
 1314 0081 79000000 		.4byte	.LASF10
 1315 0085 04       		.uleb128 0x4
 1316 0086 6E020000 		.4byte	.LASF11
 1317 008a 02       		.byte	0x2
 1318 008b 4E       		.byte	0x4e
 1319 008c 90000000 		.4byte	0x90
 1320 0090 03       		.uleb128 0x3
 1321 0091 08       		.byte	0x8
 1322 0092 07       		.byte	0x7
 1323 0093 41000000 		.4byte	.LASF12
 1324 0097 04       		.uleb128 0x4
 1325 0098 12050000 		.4byte	.LASF13
 1326 009c 03       		.byte	0x3
 1327 009d 2A       		.byte	0x2a
 1328 009e 3A000000 		.4byte	0x3a
 1329 00a2 04       		.uleb128 0x4
 1330 00a3 9E020000 		.4byte	.LASF14
 1331 00a7 03       		.byte	0x3
 1332 00a8 41       		.byte	0x41
 1333 00a9 5A000000 		.4byte	0x5a
 1334 00ad 04       		.uleb128 0x4
 1335 00ae 41040000 		.4byte	.LASF15
 1336 00b2 03       		.byte	0x3
 1337 00b3 42       		.byte	0x42
 1338 00b4 6C000000 		.4byte	0x6c
 1339 00b8 04       		.uleb128 0x4
 1340 00b9 0D000000 		.4byte	.LASF16
 1341 00bd 03       		.byte	0x3
 1342 00be 4E       		.byte	0x4e
 1343 00bf 85000000 		.4byte	0x85
 1344 00c3 04       		.uleb128 0x4
 1345 00c4 9B000000 		.4byte	.LASF17
 1346 00c8 04       		.byte	0x4
 1347 00c9 2B       		.byte	0x2b
 1348 00ca CE000000 		.4byte	0xce
 1349 00ce 03       		.uleb128 0x3
 1350 00cf 01       		.byte	0x1
 1351 00d0 02       		.byte	0x2
 1352 00d1 98020000 		.4byte	.LASF18
 1353 00d5 04       		.uleb128 0x4
 1354 00d6 A2010000 		.4byte	.LASF19
 1355 00da 04       		.byte	0x4
 1356 00db 2C       		.byte	0x2c
 1357 00dc 97000000 		.4byte	0x97
 1358 00e0 04       		.uleb128 0x4
 1359 00e1 D6000000 		.4byte	.LASF20
ARM GAS  /tmp/ccrgxcxk.s 			page 25


 1360 00e5 04       		.byte	0x4
 1361 00e6 2D       		.byte	0x2d
 1362 00e7 97000000 		.4byte	0x97
 1363 00eb 04       		.uleb128 0x4
 1364 00ec 79020000 		.4byte	.LASF21
 1365 00f0 04       		.byte	0x4
 1366 00f1 2E       		.byte	0x2e
 1367 00f2 97000000 		.4byte	0x97
 1368 00f6 04       		.uleb128 0x4
 1369 00f7 BA000000 		.4byte	.LASF22
 1370 00fb 04       		.byte	0x4
 1371 00fc 2F       		.byte	0x2f
 1372 00fd 97000000 		.4byte	0x97
 1373 0101 04       		.uleb128 0x4
 1374 0102 90020000 		.4byte	.LASF23
 1375 0106 04       		.byte	0x4
 1376 0107 30       		.byte	0x30
 1377 0108 AD000000 		.4byte	0xad
 1378 010c 04       		.uleb128 0x4
 1379 010d 9C010000 		.4byte	.LASF24
 1380 0111 04       		.byte	0x4
 1381 0112 31       		.byte	0x31
 1382 0113 A2000000 		.4byte	0xa2
 1383 0117 04       		.uleb128 0x4
 1384 0118 C2010000 		.4byte	.LASF25
 1385 011c 04       		.byte	0x4
 1386 011d 33       		.byte	0x33
 1387 011e AD000000 		.4byte	0xad
 1388 0122 04       		.uleb128 0x4
 1389 0123 56040000 		.4byte	.LASF26
 1390 0127 04       		.byte	0x4
 1391 0128 35       		.byte	0x35
 1392 0129 AD000000 		.4byte	0xad
 1393 012d 04       		.uleb128 0x4
 1394 012e 13010000 		.4byte	.LASF27
 1395 0132 04       		.byte	0x4
 1396 0133 36       		.byte	0x36
 1397 0134 A2000000 		.4byte	0xa2
 1398 0138 04       		.uleb128 0x4
 1399 0139 26040000 		.4byte	.LASF28
 1400 013d 05       		.byte	0x5
 1401 013e 2A       		.byte	0x2a
 1402 013f 43010000 		.4byte	0x143
 1403 0143 05       		.uleb128 0x5
 1404 0144 26040000 		.4byte	.LASF28
 1405 0148 4C       		.byte	0x4c
 1406 0149 06       		.byte	0x6
 1407 014a 5E       		.byte	0x5e
 1408 014b 4C020000 		.4byte	0x24c
 1409 014f 06       		.uleb128 0x6
 1410 0150 FE020000 		.4byte	.LASF29
 1411 0154 06       		.byte	0x6
 1412 0155 5F       		.byte	0x5f
 1413 0156 6D020000 		.4byte	0x26d
 1414 015a 00       		.byte	0
 1415 015b 06       		.uleb128 0x6
 1416 015c 81020000 		.4byte	.LASF30
ARM GAS  /tmp/ccrgxcxk.s 			page 26


 1417 0160 06       		.byte	0x6
 1418 0161 61       		.byte	0x61
 1419 0162 6D020000 		.4byte	0x26d
 1420 0166 04       		.byte	0x4
 1421 0167 06       		.uleb128 0x6
 1422 0168 72000000 		.4byte	.LASF31
 1423 016c 06       		.byte	0x6
 1424 016d 63       		.byte	0x63
 1425 016e 01010000 		.4byte	0x101
 1426 0172 08       		.byte	0x8
 1427 0173 06       		.uleb128 0x6
 1428 0174 3D050000 		.4byte	.LASF32
 1429 0178 06       		.byte	0x6
 1430 0179 64       		.byte	0x64
 1431 017a 02040000 		.4byte	0x402
 1432 017e 0C       		.byte	0xc
 1433 017f 06       		.uleb128 0x6
 1434 0180 E6000000 		.4byte	.LASF33
 1435 0184 06       		.byte	0x6
 1436 0185 66       		.byte	0x66
 1437 0186 6D020000 		.4byte	0x26d
 1438 018a 10       		.byte	0x10
 1439 018b 06       		.uleb128 0x6
 1440 018c 05020000 		.4byte	.LASF34
 1441 0190 06       		.byte	0x6
 1442 0191 67       		.byte	0x67
 1443 0192 6D020000 		.4byte	0x26d
 1444 0196 14       		.byte	0x14
 1445 0197 06       		.uleb128 0x6
 1446 0198 21050000 		.4byte	.LASF35
 1447 019c 06       		.byte	0x6
 1448 019d 6E       		.byte	0x6e
 1449 019e 38050000 		.4byte	0x538
 1450 01a2 18       		.byte	0x18
 1451 01a3 06       		.uleb128 0x6
 1452 01a4 19010000 		.4byte	.LASF36
 1453 01a8 06       		.byte	0x6
 1454 01a9 74       		.byte	0x74
 1455 01aa 4A050000 		.4byte	0x54a
 1456 01ae 1C       		.byte	0x1c
 1457 01af 06       		.uleb128 0x6
 1458 01b0 A2000000 		.4byte	.LASF37
 1459 01b4 06       		.byte	0x6
 1460 01b5 79       		.byte	0x79
 1461 01b6 E0000000 		.4byte	0xe0
 1462 01ba 20       		.byte	0x20
 1463 01bb 06       		.uleb128 0x6
 1464 01bc 05030000 		.4byte	.LASF38
 1465 01c0 06       		.byte	0x6
 1466 01c1 7D       		.byte	0x7d
 1467 01c2 D5000000 		.4byte	0xd5
 1468 01c6 21       		.byte	0x21
 1469 01c7 06       		.uleb128 0x6
 1470 01c8 0B050000 		.4byte	.LASF39
 1471 01cc 06       		.byte	0x6
 1472 01cd 82       		.byte	0x82
 1473 01ce EB000000 		.4byte	0xeb
ARM GAS  /tmp/ccrgxcxk.s 			page 27


 1474 01d2 22       		.byte	0x22
 1475 01d3 06       		.uleb128 0x6
 1476 01d4 ED020000 		.4byte	.LASF40
 1477 01d8 06       		.byte	0x6
 1478 01d9 88       		.byte	0x88
 1479 01da F6000000 		.4byte	0xf6
 1480 01de 23       		.byte	0x23
 1481 01df 06       		.uleb128 0x6
 1482 01e0 75040000 		.4byte	.LASF41
 1483 01e4 06       		.byte	0x6
 1484 01e5 8F       		.byte	0x8f
 1485 01e6 2A040000 		.4byte	0x42a
 1486 01ea 24       		.byte	0x24
 1487 01eb 07       		.uleb128 0x7
 1488 01ec 705F7500 		.ascii	"p_u\000"
 1489 01f0 06       		.byte	0x6
 1490 01f1 B4       		.byte	0xb4
 1491 01f2 03050000 		.4byte	0x503
 1492 01f6 28       		.byte	0x28
 1493 01f7 06       		.uleb128 0x6
 1494 01f8 43050000 		.4byte	.LASF42
 1495 01fc 06       		.byte	0x6
 1496 01fd B9       		.byte	0xb9
 1497 01fe 93020000 		.4byte	0x293
 1498 0202 2C       		.byte	0x2c
 1499 0203 06       		.uleb128 0x6
 1500 0204 D4040000 		.4byte	.LASF43
 1501 0208 06       		.byte	0x6
 1502 0209 BF       		.byte	0xbf
 1503 020a 73020000 		.4byte	0x273
 1504 020e 30       		.byte	0x30
 1505 020f 06       		.uleb128 0x6
 1506 0210 00000000 		.4byte	.LASF44
 1507 0214 06       		.byte	0x6
 1508 0215 C3       		.byte	0xc3
 1509 0216 0C010000 		.4byte	0x10c
 1510 021a 38       		.byte	0x38
 1511 021b 06       		.uleb128 0x6
 1512 021c 36040000 		.4byte	.LASF45
 1513 0220 06       		.byte	0x6
 1514 0221 C9       		.byte	0xc9
 1515 0222 17010000 		.4byte	0x117
 1516 0226 3C       		.byte	0x3c
 1517 0227 06       		.uleb128 0x6
 1518 0228 C3020000 		.4byte	.LASF46
 1519 022c 06       		.byte	0x6
 1520 022d D0       		.byte	0xd0
 1521 022e 50050000 		.4byte	0x550
 1522 0232 40       		.byte	0x40
 1523 0233 06       		.uleb128 0x6
 1524 0234 60040000 		.4byte	.LASF47
 1525 0238 06       		.byte	0x6
 1526 0239 D4       		.byte	0xd4
 1527 023a 01010000 		.4byte	0x101
 1528 023e 44       		.byte	0x44
 1529 023f 06       		.uleb128 0x6
 1530 0240 93000000 		.4byte	.LASF48
ARM GAS  /tmp/ccrgxcxk.s 			page 28


 1531 0244 06       		.byte	0x6
 1532 0245 DA       		.byte	0xda
 1533 0246 A9020000 		.4byte	0x2a9
 1534 024a 48       		.byte	0x48
 1535 024b 00       		.byte	0
 1536 024c 08       		.uleb128 0x8
 1537 024d 08       		.byte	0x8
 1538 024e 05       		.byte	0x5
 1539 024f 61       		.byte	0x61
 1540 0250 6D020000 		.4byte	0x26d
 1541 0254 06       		.uleb128 0x6
 1542 0255 FE020000 		.4byte	.LASF29
 1543 0259 05       		.byte	0x5
 1544 025a 62       		.byte	0x62
 1545 025b 6D020000 		.4byte	0x26d
 1546 025f 00       		.byte	0
 1547 0260 06       		.uleb128 0x6
 1548 0261 81020000 		.4byte	.LASF30
 1549 0265 05       		.byte	0x5
 1550 0266 64       		.byte	0x64
 1551 0267 6D020000 		.4byte	0x26d
 1552 026b 04       		.byte	0x4
 1553 026c 00       		.byte	0
 1554 026d 09       		.uleb128 0x9
 1555 026e 04       		.byte	0x4
 1556 026f 38010000 		.4byte	0x138
 1557 0273 04       		.uleb128 0x4
 1558 0274 0D020000 		.4byte	.LASF49
 1559 0278 05       		.byte	0x5
 1560 0279 66       		.byte	0x66
 1561 027a 4C020000 		.4byte	0x24c
 1562 027e 08       		.uleb128 0x8
 1563 027f 04       		.byte	0x4
 1564 0280 05       		.byte	0x5
 1565 0281 6B       		.byte	0x6b
 1566 0282 93020000 		.4byte	0x293
 1567 0286 06       		.uleb128 0x6
 1568 0287 FE020000 		.4byte	.LASF29
 1569 028b 05       		.byte	0x5
 1570 028c 6D       		.byte	0x6d
 1571 028d 6D020000 		.4byte	0x26d
 1572 0291 00       		.byte	0
 1573 0292 00       		.byte	0
 1574 0293 04       		.uleb128 0x4
 1575 0294 B6010000 		.4byte	.LASF50
 1576 0298 05       		.byte	0x5
 1577 0299 70       		.byte	0x70
 1578 029a 7E020000 		.4byte	0x27e
 1579 029e 04       		.uleb128 0x4
 1580 029f 0A010000 		.4byte	.LASF51
 1581 02a3 07       		.byte	0x7
 1582 02a4 E5       		.byte	0xe5
 1583 02a5 A9020000 		.4byte	0x2a9
 1584 02a9 0A       		.uleb128 0xa
 1585 02aa 04       		.byte	0x4
 1586 02ab 04       		.uleb128 0x4
 1587 02ac DE010000 		.4byte	.LASF52
ARM GAS  /tmp/ccrgxcxk.s 			page 29


 1588 02b0 07       		.byte	0x7
 1589 02b1 EB       		.byte	0xeb
 1590 02b2 B8000000 		.4byte	0xb8
 1591 02b6 0B       		.uleb128 0xb
 1592 02b7 CD040000 		.4byte	.LASF53
 1593 02bb 64       		.byte	0x64
 1594 02bc 07       		.byte	0x7
 1595 02bd 0C01     		.2byte	0x10c
 1596 02bf 02040000 		.4byte	0x402
 1597 02c3 0C       		.uleb128 0xc
 1598 02c4 73313600 		.ascii	"s16\000"
 1599 02c8 07       		.byte	0x7
 1600 02c9 0E01     		.2byte	0x10e
 1601 02cb 9E020000 		.4byte	0x29e
 1602 02cf 00       		.byte	0
 1603 02d0 0C       		.uleb128 0xc
 1604 02d1 73313700 		.ascii	"s17\000"
 1605 02d5 07       		.byte	0x7
 1606 02d6 0F01     		.2byte	0x10f
 1607 02d8 9E020000 		.4byte	0x29e
 1608 02dc 04       		.byte	0x4
 1609 02dd 0C       		.uleb128 0xc
 1610 02de 73313800 		.ascii	"s18\000"
 1611 02e2 07       		.byte	0x7
 1612 02e3 1001     		.2byte	0x110
 1613 02e5 9E020000 		.4byte	0x29e
 1614 02e9 08       		.byte	0x8
 1615 02ea 0C       		.uleb128 0xc
 1616 02eb 73313900 		.ascii	"s19\000"
 1617 02ef 07       		.byte	0x7
 1618 02f0 1101     		.2byte	0x111
 1619 02f2 9E020000 		.4byte	0x29e
 1620 02f6 0C       		.byte	0xc
 1621 02f7 0C       		.uleb128 0xc
 1622 02f8 73323000 		.ascii	"s20\000"
 1623 02fc 07       		.byte	0x7
 1624 02fd 1201     		.2byte	0x112
 1625 02ff 9E020000 		.4byte	0x29e
 1626 0303 10       		.byte	0x10
 1627 0304 0C       		.uleb128 0xc
 1628 0305 73323100 		.ascii	"s21\000"
 1629 0309 07       		.byte	0x7
 1630 030a 1301     		.2byte	0x113
 1631 030c 9E020000 		.4byte	0x29e
 1632 0310 14       		.byte	0x14
 1633 0311 0C       		.uleb128 0xc
 1634 0312 73323200 		.ascii	"s22\000"
 1635 0316 07       		.byte	0x7
 1636 0317 1401     		.2byte	0x114
 1637 0319 9E020000 		.4byte	0x29e
 1638 031d 18       		.byte	0x18
 1639 031e 0C       		.uleb128 0xc
 1640 031f 73323300 		.ascii	"s23\000"
 1641 0323 07       		.byte	0x7
 1642 0324 1501     		.2byte	0x115
 1643 0326 9E020000 		.4byte	0x29e
 1644 032a 1C       		.byte	0x1c
ARM GAS  /tmp/ccrgxcxk.s 			page 30


 1645 032b 0C       		.uleb128 0xc
 1646 032c 73323400 		.ascii	"s24\000"
 1647 0330 07       		.byte	0x7
 1648 0331 1601     		.2byte	0x116
 1649 0333 9E020000 		.4byte	0x29e
 1650 0337 20       		.byte	0x20
 1651 0338 0C       		.uleb128 0xc
 1652 0339 73323500 		.ascii	"s25\000"
 1653 033d 07       		.byte	0x7
 1654 033e 1701     		.2byte	0x117
 1655 0340 9E020000 		.4byte	0x29e
 1656 0344 24       		.byte	0x24
 1657 0345 0C       		.uleb128 0xc
 1658 0346 73323600 		.ascii	"s26\000"
 1659 034a 07       		.byte	0x7
 1660 034b 1801     		.2byte	0x118
 1661 034d 9E020000 		.4byte	0x29e
 1662 0351 28       		.byte	0x28
 1663 0352 0C       		.uleb128 0xc
 1664 0353 73323700 		.ascii	"s27\000"
 1665 0357 07       		.byte	0x7
 1666 0358 1901     		.2byte	0x119
 1667 035a 9E020000 		.4byte	0x29e
 1668 035e 2C       		.byte	0x2c
 1669 035f 0C       		.uleb128 0xc
 1670 0360 73323800 		.ascii	"s28\000"
 1671 0364 07       		.byte	0x7
 1672 0365 1A01     		.2byte	0x11a
 1673 0367 9E020000 		.4byte	0x29e
 1674 036b 30       		.byte	0x30
 1675 036c 0C       		.uleb128 0xc
 1676 036d 73323900 		.ascii	"s29\000"
 1677 0371 07       		.byte	0x7
 1678 0372 1B01     		.2byte	0x11b
 1679 0374 9E020000 		.4byte	0x29e
 1680 0378 34       		.byte	0x34
 1681 0379 0C       		.uleb128 0xc
 1682 037a 73333000 		.ascii	"s30\000"
 1683 037e 07       		.byte	0x7
 1684 037f 1C01     		.2byte	0x11c
 1685 0381 9E020000 		.4byte	0x29e
 1686 0385 38       		.byte	0x38
 1687 0386 0C       		.uleb128 0xc
 1688 0387 73333100 		.ascii	"s31\000"
 1689 038b 07       		.byte	0x7
 1690 038c 1D01     		.2byte	0x11d
 1691 038e 9E020000 		.4byte	0x29e
 1692 0392 3C       		.byte	0x3c
 1693 0393 0C       		.uleb128 0xc
 1694 0394 723400   		.ascii	"r4\000"
 1695 0397 07       		.byte	0x7
 1696 0398 1F01     		.2byte	0x11f
 1697 039a 9E020000 		.4byte	0x29e
 1698 039e 40       		.byte	0x40
 1699 039f 0C       		.uleb128 0xc
 1700 03a0 723500   		.ascii	"r5\000"
 1701 03a3 07       		.byte	0x7
ARM GAS  /tmp/ccrgxcxk.s 			page 31


 1702 03a4 2001     		.2byte	0x120
 1703 03a6 9E020000 		.4byte	0x29e
 1704 03aa 44       		.byte	0x44
 1705 03ab 0C       		.uleb128 0xc
 1706 03ac 723600   		.ascii	"r6\000"
 1707 03af 07       		.byte	0x7
 1708 03b0 2101     		.2byte	0x121
 1709 03b2 9E020000 		.4byte	0x29e
 1710 03b6 48       		.byte	0x48
 1711 03b7 0C       		.uleb128 0xc
 1712 03b8 723700   		.ascii	"r7\000"
 1713 03bb 07       		.byte	0x7
 1714 03bc 2201     		.2byte	0x122
 1715 03be 9E020000 		.4byte	0x29e
 1716 03c2 4C       		.byte	0x4c
 1717 03c3 0C       		.uleb128 0xc
 1718 03c4 723800   		.ascii	"r8\000"
 1719 03c7 07       		.byte	0x7
 1720 03c8 2301     		.2byte	0x123
 1721 03ca 9E020000 		.4byte	0x29e
 1722 03ce 50       		.byte	0x50
 1723 03cf 0C       		.uleb128 0xc
 1724 03d0 723900   		.ascii	"r9\000"
 1725 03d3 07       		.byte	0x7
 1726 03d4 2401     		.2byte	0x124
 1727 03d6 9E020000 		.4byte	0x29e
 1728 03da 54       		.byte	0x54
 1729 03db 0C       		.uleb128 0xc
 1730 03dc 72313000 		.ascii	"r10\000"
 1731 03e0 07       		.byte	0x7
 1732 03e1 2501     		.2byte	0x125
 1733 03e3 9E020000 		.4byte	0x29e
 1734 03e7 58       		.byte	0x58
 1735 03e8 0C       		.uleb128 0xc
 1736 03e9 72313100 		.ascii	"r11\000"
 1737 03ed 07       		.byte	0x7
 1738 03ee 2601     		.2byte	0x126
 1739 03f0 9E020000 		.4byte	0x29e
 1740 03f4 5C       		.byte	0x5c
 1741 03f5 0C       		.uleb128 0xc
 1742 03f6 6C7200   		.ascii	"lr\000"
 1743 03f9 07       		.byte	0x7
 1744 03fa 2701     		.2byte	0x127
 1745 03fc 9E020000 		.4byte	0x29e
 1746 0400 60       		.byte	0x60
 1747 0401 00       		.byte	0
 1748 0402 0B       		.uleb128 0xb
 1749 0403 76010000 		.4byte	.LASF54
 1750 0407 04       		.byte	0x4
 1751 0408 07       		.byte	0x7
 1752 0409 3101     		.2byte	0x131
 1753 040b 1D040000 		.4byte	0x41d
 1754 040f 0C       		.uleb128 0xc
 1755 0410 72313300 		.ascii	"r13\000"
 1756 0414 07       		.byte	0x7
 1757 0415 3201     		.2byte	0x132
 1758 0417 1D040000 		.4byte	0x41d
ARM GAS  /tmp/ccrgxcxk.s 			page 32


 1759 041b 00       		.byte	0
 1760 041c 00       		.byte	0
 1761 041d 09       		.uleb128 0x9
 1762 041e 04       		.byte	0x4
 1763 041f B6020000 		.4byte	0x2b6
 1764 0423 03       		.uleb128 0x3
 1765 0424 04       		.byte	0x4
 1766 0425 07       		.byte	0x7
 1767 0426 E9010000 		.4byte	.LASF55
 1768 042a 0D       		.uleb128 0xd
 1769 042b 22010000 		.4byte	0x122
 1770 042f 05       		.uleb128 0x5
 1771 0430 E9040000 		.4byte	.LASF56
 1772 0434 0C       		.byte	0xc
 1773 0435 08       		.byte	0x8
 1774 0436 2C       		.byte	0x2c
 1775 0437 54040000 		.4byte	0x454
 1776 043b 06       		.uleb128 0x6
 1777 043c EE000000 		.4byte	.LASF57
 1778 0440 08       		.byte	0x8
 1779 0441 2D       		.byte	0x2d
 1780 0442 73020000 		.4byte	0x273
 1781 0446 00       		.byte	0
 1782 0447 06       		.uleb128 0x6
 1783 0448 70010000 		.4byte	.LASF58
 1784 044c 08       		.byte	0x8
 1785 044d 2F       		.byte	0x2f
 1786 044e 2D010000 		.4byte	0x12d
 1787 0452 08       		.byte	0x8
 1788 0453 00       		.byte	0
 1789 0454 04       		.uleb128 0x4
 1790 0455 E9040000 		.4byte	.LASF56
 1791 0459 08       		.byte	0x8
 1792 045a 30       		.byte	0x30
 1793 045b 2F040000 		.4byte	0x42f
 1794 045f 05       		.uleb128 0x5
 1795 0460 CE010000 		.4byte	.LASF59
 1796 0464 10       		.byte	0x10
 1797 0465 09       		.byte	0x9
 1798 0466 2C       		.byte	0x2c
 1799 0467 90040000 		.4byte	0x490
 1800 046b 06       		.uleb128 0x6
 1801 046c B4020000 		.4byte	.LASF60
 1802 0470 09       		.byte	0x9
 1803 0471 2D       		.byte	0x2d
 1804 0472 73020000 		.4byte	0x273
 1805 0476 00       		.byte	0
 1806 0477 06       		.uleb128 0x6
 1807 0478 35050000 		.4byte	.LASF61
 1808 047c 09       		.byte	0x9
 1809 047d 2F       		.byte	0x2f
 1810 047e 6D020000 		.4byte	0x26d
 1811 0482 08       		.byte	0x8
 1812 0483 06       		.uleb128 0x6
 1813 0484 4F040000 		.4byte	.LASF62
 1814 0488 09       		.byte	0x9
 1815 0489 31       		.byte	0x31
ARM GAS  /tmp/ccrgxcxk.s 			page 33


 1816 048a 90040000 		.4byte	0x490
 1817 048e 0C       		.byte	0xc
 1818 048f 00       		.byte	0
 1819 0490 09       		.uleb128 0x9
 1820 0491 04       		.byte	0x4
 1821 0492 5F040000 		.4byte	0x45f
 1822 0496 04       		.uleb128 0x4
 1823 0497 CE010000 		.4byte	.LASF59
 1824 049b 09       		.byte	0x9
 1825 049c 33       		.byte	0x33
 1826 049d 5F040000 		.4byte	0x45f
 1827 04a1 08       		.uleb128 0x8
 1828 04a2 28       		.byte	0x28
 1829 04a3 0A       		.byte	0xa
 1830 04a4 33       		.byte	0x33
 1831 04a5 F2040000 		.4byte	0x4f2
 1832 04a9 06       		.uleb128 0x6
 1833 04aa 36020000 		.4byte	.LASF63
 1834 04ae 0A       		.byte	0xa
 1835 04af 34       		.byte	0x34
 1836 04b0 F2040000 		.4byte	0x4f2
 1837 04b4 00       		.byte	0
 1838 04b5 06       		.uleb128 0x6
 1839 04b6 BC020000 		.4byte	.LASF64
 1840 04ba 0A       		.byte	0xa
 1841 04bb 36       		.byte	0x36
 1842 04bc F2040000 		.4byte	0x4f2
 1843 04c0 04       		.byte	0x4
 1844 04c1 06       		.uleb128 0x6
 1845 04c2 69000000 		.4byte	.LASF65
 1846 04c6 0A       		.byte	0xa
 1847 04c7 38       		.byte	0x38
 1848 04c8 F2040000 		.4byte	0x4f2
 1849 04cc 08       		.byte	0x8
 1850 04cd 06       		.uleb128 0x6
 1851 04ce F2010000 		.4byte	.LASF66
 1852 04d2 0A       		.byte	0xa
 1853 04d3 39       		.byte	0x39
 1854 04d4 F2040000 		.4byte	0x4f2
 1855 04d8 0C       		.byte	0xc
 1856 04d9 06       		.uleb128 0x6
 1857 04da F3040000 		.4byte	.LASF67
 1858 04de 0A       		.byte	0xa
 1859 04df 3A       		.byte	0x3a
 1860 04e0 54040000 		.4byte	0x454
 1861 04e4 10       		.byte	0x10
 1862 04e5 06       		.uleb128 0x6
 1863 04e6 5F010000 		.4byte	.LASF68
 1864 04ea 0A       		.byte	0xa
 1865 04eb 3C       		.byte	0x3c
 1866 04ec 54040000 		.4byte	0x454
 1867 04f0 1C       		.byte	0x1c
 1868 04f1 00       		.byte	0
 1869 04f2 09       		.uleb128 0x9
 1870 04f3 04       		.byte	0x4
 1871 04f4 0C010000 		.4byte	0x10c
 1872 04f8 04       		.uleb128 0x4
ARM GAS  /tmp/ccrgxcxk.s 			page 34


 1873 04f9 2A000000 		.4byte	.LASF69
 1874 04fd 0A       		.byte	0xa
 1875 04fe 3E       		.byte	0x3e
 1876 04ff A1040000 		.4byte	0x4a1
 1877 0503 0E       		.uleb128 0xe
 1878 0504 04       		.byte	0x4
 1879 0505 06       		.byte	0x6
 1880 0506 96       		.byte	0x96
 1881 0507 38050000 		.4byte	0x538
 1882 050b 0F       		.uleb128 0xf
 1883 050c 06000000 		.4byte	.LASF70
 1884 0510 06       		.byte	0x6
 1885 0511 9D       		.byte	0x9d
 1886 0512 0C010000 		.4byte	0x10c
 1887 0516 0F       		.uleb128 0xf
 1888 0517 F6000000 		.4byte	.LASF71
 1889 051b 06       		.byte	0x6
 1890 051c A4       		.byte	0xa4
 1891 051d 0C010000 		.4byte	0x10c
 1892 0521 0F       		.uleb128 0xf
 1893 0522 1A050000 		.4byte	.LASF72
 1894 0526 06       		.byte	0x6
 1895 0527 AB       		.byte	0xab
 1896 0528 A9020000 		.4byte	0x2a9
 1897 052c 0F       		.uleb128 0xf
 1898 052d F7020000 		.4byte	.LASF73
 1899 0531 06       		.byte	0x6
 1900 0532 B2       		.byte	0xb2
 1901 0533 17010000 		.4byte	0x117
 1902 0537 00       		.byte	0
 1903 0538 09       		.uleb128 0x9
 1904 0539 04       		.byte	0x4
 1905 053a 3E050000 		.4byte	0x53e
 1906 053e 10       		.uleb128 0x10
 1907 053f 43050000 		.4byte	0x543
 1908 0543 03       		.uleb128 0x3
 1909 0544 01       		.byte	0x1
 1910 0545 08       		.byte	0x8
 1911 0546 4A040000 		.4byte	.LASF74
 1912 054a 09       		.uleb128 0x9
 1913 054b 04       		.byte	0x4
 1914 054c AB020000 		.4byte	0x2ab
 1915 0550 09       		.uleb128 0x9
 1916 0551 04       		.byte	0x4
 1917 0552 96040000 		.4byte	0x496
 1918 0556 05       		.uleb128 0x5
 1919 0557 2D040000 		.4byte	.LASF75
 1920 055b 10       		.byte	0x10
 1921 055c 0B       		.byte	0xb
 1922 055d 3B       		.byte	0x3b
 1923 055e 93050000 		.4byte	0x593
 1924 0562 06       		.uleb128 0x6
 1925 0563 6B010000 		.4byte	.LASF76
 1926 0567 0B       		.byte	0xb
 1927 0568 3C       		.byte	0x3c
 1928 0569 38050000 		.4byte	0x538
 1929 056d 00       		.byte	0
ARM GAS  /tmp/ccrgxcxk.s 			page 35


 1930 056e 06       		.uleb128 0x6
 1931 056f 1A020000 		.4byte	.LASF77
 1932 0573 0B       		.byte	0xb
 1933 0574 3D       		.byte	0x3d
 1934 0575 94050000 		.4byte	0x594
 1935 0579 04       		.byte	0x4
 1936 057a 06       		.uleb128 0x6
 1937 057b 56010000 		.4byte	.LASF78
 1938 057f 0B       		.byte	0xb
 1939 0580 3E       		.byte	0x3e
 1940 0581 94050000 		.4byte	0x594
 1941 0585 08       		.byte	0x8
 1942 0586 06       		.uleb128 0x6
 1943 0587 88020000 		.4byte	.LASF79
 1944 058b 0B       		.byte	0xb
 1945 058c 3F       		.byte	0x3f
 1946 058d 94050000 		.4byte	0x594
 1947 0591 0C       		.byte	0xc
 1948 0592 00       		.byte	0
 1949 0593 11       		.uleb128 0x11
 1950 0594 09       		.uleb128 0x9
 1951 0595 04       		.byte	0x4
 1952 0596 93050000 		.4byte	0x593
 1953 059a 12       		.uleb128 0x12
 1954 059b 3809     		.2byte	0x938
 1955 059d 0B       		.byte	0xb
 1956 059e 44       		.byte	0x44
 1957 059f DF050000 		.4byte	0x5df
 1958 05a3 07       		.uleb128 0x7
 1959 05a4 543000   		.ascii	"T0\000"
 1960 05a7 0B       		.byte	0xb
 1961 05a8 45       		.byte	0x45
 1962 05a9 DF050000 		.4byte	0x5df
 1963 05ad 00       		.byte	0
 1964 05ae 13       		.uleb128 0x13
 1965 05af 543100   		.ascii	"T1\000"
 1966 05b2 0B       		.byte	0xb
 1967 05b3 46       		.byte	0x46
 1968 05b4 DF050000 		.4byte	0x5df
 1969 05b8 D801     		.2byte	0x1d8
 1970 05ba 13       		.uleb128 0x13
 1971 05bb 543200   		.ascii	"T2\000"
 1972 05be 0B       		.byte	0xb
 1973 05bf 47       		.byte	0x47
 1974 05c0 DF050000 		.4byte	0x5df
 1975 05c4 B003     		.2byte	0x3b0
 1976 05c6 13       		.uleb128 0x13
 1977 05c7 543300   		.ascii	"T3\000"
 1978 05ca 0B       		.byte	0xb
 1979 05cb 48       		.byte	0x48
 1980 05cc DF050000 		.4byte	0x5df
 1981 05d0 8805     		.2byte	0x588
 1982 05d2 13       		.uleb128 0x13
 1983 05d3 543400   		.ascii	"T4\000"
 1984 05d6 0B       		.byte	0xb
 1985 05d7 49       		.byte	0x49
 1986 05d8 DF050000 		.4byte	0x5df
ARM GAS  /tmp/ccrgxcxk.s 			page 36


 1987 05dc 6007     		.2byte	0x760
 1988 05de 00       		.byte	0
 1989 05df 14       		.uleb128 0x14
 1990 05e0 AB020000 		.4byte	0x2ab
 1991 05e4 EF050000 		.4byte	0x5ef
 1992 05e8 15       		.uleb128 0x15
 1993 05e9 23040000 		.4byte	0x423
 1994 05ed 3A       		.byte	0x3a
 1995 05ee 00       		.byte	0
 1996 05ef 16       		.uleb128 0x16
 1997 05f0 FE040000 		.4byte	.LASF103
 1998 05f4 3809     		.2byte	0x938
 1999 05f6 0B       		.byte	0xb
 2000 05f7 43       		.byte	0x43
 2001 05f8 12060000 		.4byte	0x612
 2002 05fc 17       		.uleb128 0x17
 2003 05fd 776100   		.ascii	"wa\000"
 2004 0600 0B       		.byte	0xb
 2005 0601 4A       		.byte	0x4a
 2006 0602 9A050000 		.4byte	0x59a
 2007 0606 0F       		.uleb128 0xf
 2008 0607 DF000000 		.4byte	.LASF80
 2009 060b 0B       		.byte	0xb
 2010 060c 4B       		.byte	0x4b
 2011 060d 12060000 		.4byte	0x612
 2012 0611 00       		.byte	0
 2013 0612 14       		.uleb128 0x14
 2014 0613 97000000 		.4byte	0x97
 2015 0617 23060000 		.4byte	0x623
 2016 061b 18       		.uleb128 0x18
 2017 061c 23040000 		.4byte	0x423
 2018 0620 3709     		.2byte	0x937
 2019 0622 00       		.byte	0
 2020 0623 19       		.uleb128 0x19
 2021 0624 40020000 		.4byte	.LASF83
 2022 0628 01       		.byte	0x1
 2023 0629 4C       		.byte	0x4c
 2024 062a 00000000 		.4byte	.LFB8
 2025 062e D4060000 		.4byte	.LFE8-.LFB8
 2026 0632 01       		.uleb128 0x1
 2027 0633 9C       		.byte	0x9c
 2028 0634 8D130000 		.4byte	0x138d
 2029 0638 1A       		.uleb128 0x1a
 2030 0639 3A010000 		.4byte	.LASF81
 2031 063d 01       		.byte	0x1
 2032 063e 4D       		.byte	0x4d
 2033 063f 0C010000 		.4byte	0x10c
 2034 0643 00000000 		.4byte	.LLST0
 2035 0647 1B       		.uleb128 0x1b
 2036 0648 3F010000 		.4byte	.LASF82
 2037 064c 01       		.byte	0x1
 2038 064d 4D       		.byte	0x4d
 2039 064e 0C010000 		.4byte	0x10c
 2040 0652 02       		.uleb128 0x2
 2041 0653 91       		.byte	0x91
 2042 0654 64       		.sleb128 -28
 2043 0655 1C       		.uleb128 0x1c
ARM GAS  /tmp/ccrgxcxk.s 			page 37


 2044 0656 6900     		.ascii	"i\000"
 2045 0658 01       		.byte	0x1
 2046 0659 4E       		.byte	0x4e
 2047 065a 2C000000 		.4byte	0x2c
 2048 065e 8F010000 		.4byte	.LLST1
 2049 0662 1D       		.uleb128 0x1d
 2050 0663 80000000 		.4byte	.LBB2
 2051 0667 06000000 		.4byte	.LBE2-.LBB2
 2052 066b 7D060000 		.4byte	0x67d
 2053 066f 1E       		.uleb128 0x1e
 2054 0670 746D7000 		.ascii	"tmp\000"
 2055 0674 01       		.byte	0x1
 2056 0675 64       		.byte	0x64
 2057 0676 AD000000 		.4byte	0xad
 2058 067a 01       		.uleb128 0x1
 2059 067b 53       		.byte	0x53
 2060 067c 00       		.byte	0
 2061 067d 1D       		.uleb128 0x1d
 2062 067e 98000000 		.4byte	.LBB3
 2063 0682 06000000 		.4byte	.LBE3-.LBB3
 2064 0686 98060000 		.4byte	0x698
 2065 068a 1E       		.uleb128 0x1e
 2066 068b 746D7000 		.ascii	"tmp\000"
 2067 068f 01       		.byte	0x1
 2068 0690 66       		.byte	0x66
 2069 0691 AD000000 		.4byte	0xad
 2070 0695 01       		.uleb128 0x1
 2071 0696 53       		.byte	0x53
 2072 0697 00       		.byte	0
 2073 0698 1D       		.uleb128 0x1d
 2074 0699 CE000000 		.4byte	.LBB4
 2075 069d 06000000 		.4byte	.LBE4-.LBB4
 2076 06a1 B3060000 		.4byte	0x6b3
 2077 06a5 1E       		.uleb128 0x1e
 2078 06a6 746D7000 		.ascii	"tmp\000"
 2079 06aa 01       		.byte	0x1
 2080 06ab 6A       		.byte	0x6a
 2081 06ac AD000000 		.4byte	0xad
 2082 06b0 01       		.uleb128 0x1
 2083 06b1 53       		.byte	0x53
 2084 06b2 00       		.byte	0
 2085 06b3 1D       		.uleb128 0x1d
 2086 06b4 E6000000 		.4byte	.LBB5
 2087 06b8 06000000 		.4byte	.LBE5-.LBB5
 2088 06bc CE060000 		.4byte	0x6ce
 2089 06c0 1E       		.uleb128 0x1e
 2090 06c1 746D7000 		.ascii	"tmp\000"
 2091 06c5 01       		.byte	0x1
 2092 06c6 6C       		.byte	0x6c
 2093 06c7 AD000000 		.4byte	0xad
 2094 06cb 01       		.uleb128 0x1
 2095 06cc 53       		.byte	0x53
 2096 06cd 00       		.byte	0
 2097 06ce 1D       		.uleb128 0x1d
 2098 06cf 02010000 		.4byte	.LBB6
 2099 06d3 06000000 		.4byte	.LBE6-.LBB6
 2100 06d7 E9060000 		.4byte	0x6e9
ARM GAS  /tmp/ccrgxcxk.s 			page 38


 2101 06db 1E       		.uleb128 0x1e
 2102 06dc 746D7000 		.ascii	"tmp\000"
 2103 06e0 01       		.byte	0x1
 2104 06e1 72       		.byte	0x72
 2105 06e2 AD000000 		.4byte	0xad
 2106 06e6 01       		.uleb128 0x1
 2107 06e7 53       		.byte	0x53
 2108 06e8 00       		.byte	0
 2109 06e9 1D       		.uleb128 0x1d
 2110 06ea 26010000 		.4byte	.LBB7
 2111 06ee 06000000 		.4byte	.LBE7-.LBB7
 2112 06f2 04070000 		.4byte	0x704
 2113 06f6 1E       		.uleb128 0x1e
 2114 06f7 746D7000 		.ascii	"tmp\000"
 2115 06fb 01       		.byte	0x1
 2116 06fc 72       		.byte	0x72
 2117 06fd AD000000 		.4byte	0xad
 2118 0701 01       		.uleb128 0x1
 2119 0702 53       		.byte	0x53
 2120 0703 00       		.byte	0
 2121 0704 1D       		.uleb128 0x1d
 2122 0705 38010000 		.4byte	.LBB8
 2123 0709 06000000 		.4byte	.LBE8-.LBB8
 2124 070d 1F070000 		.4byte	0x71f
 2125 0711 1E       		.uleb128 0x1e
 2126 0712 746D7000 		.ascii	"tmp\000"
 2127 0716 01       		.byte	0x1
 2128 0717 72       		.byte	0x72
 2129 0718 AD000000 		.4byte	0xad
 2130 071c 01       		.uleb128 0x1
 2131 071d 53       		.byte	0x53
 2132 071e 00       		.byte	0
 2133 071f 1D       		.uleb128 0x1d
 2134 0720 3E010000 		.4byte	.LBB9
 2135 0724 06000000 		.4byte	.LBE9-.LBB9
 2136 0728 3A070000 		.4byte	0x73a
 2137 072c 1E       		.uleb128 0x1e
 2138 072d 746D7000 		.ascii	"tmp\000"
 2139 0731 01       		.byte	0x1
 2140 0732 73       		.byte	0x73
 2141 0733 AD000000 		.4byte	0xad
 2142 0737 01       		.uleb128 0x1
 2143 0738 53       		.byte	0x53
 2144 0739 00       		.byte	0
 2145 073a 1D       		.uleb128 0x1d
 2146 073b 64010000 		.4byte	.LBB10
 2147 073f 06000000 		.4byte	.LBE10-.LBB10
 2148 0743 55070000 		.4byte	0x755
 2149 0747 1E       		.uleb128 0x1e
 2150 0748 746D7000 		.ascii	"tmp\000"
 2151 074c 01       		.byte	0x1
 2152 074d 73       		.byte	0x73
 2153 074e AD000000 		.4byte	0xad
 2154 0752 01       		.uleb128 0x1
 2155 0753 53       		.byte	0x53
 2156 0754 00       		.byte	0
 2157 0755 1D       		.uleb128 0x1d
ARM GAS  /tmp/ccrgxcxk.s 			page 39


 2158 0756 6A010000 		.4byte	.LBB11
 2159 075a 06000000 		.4byte	.LBE11-.LBB11
 2160 075e 70070000 		.4byte	0x770
 2161 0762 1E       		.uleb128 0x1e
 2162 0763 746D7000 		.ascii	"tmp\000"
 2163 0767 01       		.byte	0x1
 2164 0768 74       		.byte	0x74
 2165 0769 AD000000 		.4byte	0xad
 2166 076d 01       		.uleb128 0x1
 2167 076e 53       		.byte	0x53
 2168 076f 00       		.byte	0
 2169 0770 1D       		.uleb128 0x1d
 2170 0771 94010000 		.4byte	.LBB12
 2171 0775 08000000 		.4byte	.LBE12-.LBB12
 2172 0779 8B070000 		.4byte	0x78b
 2173 077d 1E       		.uleb128 0x1e
 2174 077e 746D7000 		.ascii	"tmp\000"
 2175 0782 01       		.byte	0x1
 2176 0783 74       		.byte	0x74
 2177 0784 AD000000 		.4byte	0xad
 2178 0788 01       		.uleb128 0x1
 2179 0789 53       		.byte	0x53
 2180 078a 00       		.byte	0
 2181 078b 1D       		.uleb128 0x1d
 2182 078c 68020000 		.4byte	.LBB13
 2183 0790 06000000 		.4byte	.LBE13-.LBB13
 2184 0794 A6070000 		.4byte	0x7a6
 2185 0798 1E       		.uleb128 0x1e
 2186 0799 746D7000 		.ascii	"tmp\000"
 2187 079d 01       		.byte	0x1
 2188 079e 8F       		.byte	0x8f
 2189 079f AD000000 		.4byte	0xad
 2190 07a3 01       		.uleb128 0x1
 2191 07a4 53       		.byte	0x53
 2192 07a5 00       		.byte	0
 2193 07a6 1D       		.uleb128 0x1d
 2194 07a7 80020000 		.4byte	.LBB14
 2195 07ab 06000000 		.4byte	.LBE14-.LBB14
 2196 07af C1070000 		.4byte	0x7c1
 2197 07b3 1E       		.uleb128 0x1e
 2198 07b4 746D7000 		.ascii	"tmp\000"
 2199 07b8 01       		.byte	0x1
 2200 07b9 91       		.byte	0x91
 2201 07ba AD000000 		.4byte	0xad
 2202 07be 01       		.uleb128 0x1
 2203 07bf 53       		.byte	0x53
 2204 07c0 00       		.byte	0
 2205 07c1 1D       		.uleb128 0x1d
 2206 07c2 9A020000 		.4byte	.LBB15
 2207 07c6 06000000 		.4byte	.LBE15-.LBB15
 2208 07ca DC070000 		.4byte	0x7dc
 2209 07ce 1E       		.uleb128 0x1e
 2210 07cf 746D7000 		.ascii	"tmp\000"
 2211 07d3 01       		.byte	0x1
 2212 07d4 97       		.byte	0x97
 2213 07d5 AD000000 		.4byte	0xad
 2214 07d9 01       		.uleb128 0x1
ARM GAS  /tmp/ccrgxcxk.s 			page 40


 2215 07da 53       		.byte	0x53
 2216 07db 00       		.byte	0
 2217 07dc 1D       		.uleb128 0x1d
 2218 07dd BC020000 		.4byte	.LBB16
 2219 07e1 06000000 		.4byte	.LBE16-.LBB16
 2220 07e5 F7070000 		.4byte	0x7f7
 2221 07e9 1E       		.uleb128 0x1e
 2222 07ea 746D7000 		.ascii	"tmp\000"
 2223 07ee 01       		.byte	0x1
 2224 07ef 97       		.byte	0x97
 2225 07f0 AD000000 		.4byte	0xad
 2226 07f4 01       		.uleb128 0x1
 2227 07f5 53       		.byte	0x53
 2228 07f6 00       		.byte	0
 2229 07f7 1D       		.uleb128 0x1d
 2230 07f8 C2020000 		.4byte	.LBB17
 2231 07fc 06000000 		.4byte	.LBE17-.LBB17
 2232 0800 12080000 		.4byte	0x812
 2233 0804 1E       		.uleb128 0x1e
 2234 0805 746D7000 		.ascii	"tmp\000"
 2235 0809 01       		.byte	0x1
 2236 080a 98       		.byte	0x98
 2237 080b AD000000 		.4byte	0xad
 2238 080f 01       		.uleb128 0x1
 2239 0810 53       		.byte	0x53
 2240 0811 00       		.byte	0
 2241 0812 1D       		.uleb128 0x1d
 2242 0813 EA020000 		.4byte	.LBB18
 2243 0817 06000000 		.4byte	.LBE18-.LBB18
 2244 081b 2D080000 		.4byte	0x82d
 2245 081f 1E       		.uleb128 0x1e
 2246 0820 746D7000 		.ascii	"tmp\000"
 2247 0824 01       		.byte	0x1
 2248 0825 98       		.byte	0x98
 2249 0826 AD000000 		.4byte	0xad
 2250 082a 01       		.uleb128 0x1
 2251 082b 53       		.byte	0x53
 2252 082c 00       		.byte	0
 2253 082d 1D       		.uleb128 0x1d
 2254 082e F0020000 		.4byte	.LBB19
 2255 0832 06000000 		.4byte	.LBE19-.LBB19
 2256 0836 48080000 		.4byte	0x848
 2257 083a 1E       		.uleb128 0x1e
 2258 083b 746D7000 		.ascii	"tmp\000"
 2259 083f 01       		.byte	0x1
 2260 0840 99       		.byte	0x99
 2261 0841 AD000000 		.4byte	0xad
 2262 0845 01       		.uleb128 0x1
 2263 0846 53       		.byte	0x53
 2264 0847 00       		.byte	0
 2265 0848 1D       		.uleb128 0x1d
 2266 0849 1E030000 		.4byte	.LBB20
 2267 084d 06000000 		.4byte	.LBE20-.LBB20
 2268 0851 63080000 		.4byte	0x863
 2269 0855 1E       		.uleb128 0x1e
 2270 0856 746D7000 		.ascii	"tmp\000"
 2271 085a 01       		.byte	0x1
ARM GAS  /tmp/ccrgxcxk.s 			page 41


 2272 085b 99       		.byte	0x99
 2273 085c AD000000 		.4byte	0xad
 2274 0860 01       		.uleb128 0x1
 2275 0861 53       		.byte	0x53
 2276 0862 00       		.byte	0
 2277 0863 1D       		.uleb128 0x1d
 2278 0864 24030000 		.4byte	.LBB21
 2279 0868 06000000 		.4byte	.LBE21-.LBB21
 2280 086c 7E080000 		.4byte	0x87e
 2281 0870 1E       		.uleb128 0x1e
 2282 0871 746D7000 		.ascii	"tmp\000"
 2283 0875 01       		.byte	0x1
 2284 0876 9E       		.byte	0x9e
 2285 0877 AD000000 		.4byte	0xad
 2286 087b 01       		.uleb128 0x1
 2287 087c 53       		.byte	0x53
 2288 087d 00       		.byte	0
 2289 087e 1D       		.uleb128 0x1d
 2290 087f AE030000 		.4byte	.LBB22
 2291 0883 06000000 		.4byte	.LBE22-.LBB22
 2292 0887 99080000 		.4byte	0x899
 2293 088b 1E       		.uleb128 0x1e
 2294 088c 746D7000 		.ascii	"tmp\000"
 2295 0890 01       		.byte	0x1
 2296 0891 A8       		.byte	0xa8
 2297 0892 AD000000 		.4byte	0xad
 2298 0896 01       		.uleb128 0x1
 2299 0897 53       		.byte	0x53
 2300 0898 00       		.byte	0
 2301 0899 1D       		.uleb128 0x1d
 2302 089a E6030000 		.4byte	.LBB23
 2303 089e 06000000 		.4byte	.LBE23-.LBB23
 2304 08a2 B4080000 		.4byte	0x8b4
 2305 08a6 1E       		.uleb128 0x1e
 2306 08a7 746D7000 		.ascii	"tmp\000"
 2307 08ab 01       		.byte	0x1
 2308 08ac AC       		.byte	0xac
 2309 08ad AD000000 		.4byte	0xad
 2310 08b1 01       		.uleb128 0x1
 2311 08b2 53       		.byte	0x53
 2312 08b3 00       		.byte	0
 2313 08b4 1D       		.uleb128 0x1d
 2314 08b5 00040000 		.4byte	.LBB24
 2315 08b9 06000000 		.4byte	.LBE24-.LBB24
 2316 08bd CF080000 		.4byte	0x8cf
 2317 08c1 1E       		.uleb128 0x1e
 2318 08c2 746D7000 		.ascii	"tmp\000"
 2319 08c6 01       		.byte	0x1
 2320 08c7 AE       		.byte	0xae
 2321 08c8 AD000000 		.4byte	0xad
 2322 08cc 01       		.uleb128 0x1
 2323 08cd 53       		.byte	0x53
 2324 08ce 00       		.byte	0
 2325 08cf 1D       		.uleb128 0x1d
 2326 08d0 32040000 		.4byte	.LBB25
 2327 08d4 06000000 		.4byte	.LBE25-.LBB25
 2328 08d8 EA080000 		.4byte	0x8ea
ARM GAS  /tmp/ccrgxcxk.s 			page 42


 2329 08dc 1E       		.uleb128 0x1e
 2330 08dd 746D7000 		.ascii	"tmp\000"
 2331 08e1 01       		.byte	0x1
 2332 08e2 B3       		.byte	0xb3
 2333 08e3 AD000000 		.4byte	0xad
 2334 08e7 01       		.uleb128 0x1
 2335 08e8 53       		.byte	0x53
 2336 08e9 00       		.byte	0
 2337 08ea 1D       		.uleb128 0x1d
 2338 08eb 50040000 		.4byte	.LBB26
 2339 08ef 06000000 		.4byte	.LBE26-.LBB26
 2340 08f3 05090000 		.4byte	0x905
 2341 08f7 1E       		.uleb128 0x1e
 2342 08f8 746D7000 		.ascii	"tmp\000"
 2343 08fc 01       		.byte	0x1
 2344 08fd B3       		.byte	0xb3
 2345 08fe AD000000 		.4byte	0xad
 2346 0902 01       		.uleb128 0x1
 2347 0903 53       		.byte	0x53
 2348 0904 00       		.byte	0
 2349 0905 1D       		.uleb128 0x1d
 2350 0906 56040000 		.4byte	.LBB27
 2351 090a 06000000 		.4byte	.LBE27-.LBB27
 2352 090e 20090000 		.4byte	0x920
 2353 0912 1E       		.uleb128 0x1e
 2354 0913 746D7000 		.ascii	"tmp\000"
 2355 0917 01       		.byte	0x1
 2356 0918 B4       		.byte	0xb4
 2357 0919 AD000000 		.4byte	0xad
 2358 091d 01       		.uleb128 0x1
 2359 091e 53       		.byte	0x53
 2360 091f 00       		.byte	0
 2361 0920 1D       		.uleb128 0x1d
 2362 0921 76040000 		.4byte	.LBB28
 2363 0925 06000000 		.4byte	.LBE28-.LBB28
 2364 0929 3B090000 		.4byte	0x93b
 2365 092d 1E       		.uleb128 0x1e
 2366 092e 746D7000 		.ascii	"tmp\000"
 2367 0932 01       		.byte	0x1
 2368 0933 B4       		.byte	0xb4
 2369 0934 AD000000 		.4byte	0xad
 2370 0938 01       		.uleb128 0x1
 2371 0939 53       		.byte	0x53
 2372 093a 00       		.byte	0
 2373 093b 1D       		.uleb128 0x1d
 2374 093c 8C040000 		.4byte	.LBB29
 2375 0940 06000000 		.4byte	.LBE29-.LBB29
 2376 0944 56090000 		.4byte	0x956
 2377 0948 1E       		.uleb128 0x1e
 2378 0949 746D7000 		.ascii	"tmp\000"
 2379 094d 01       		.byte	0x1
 2380 094e B4       		.byte	0xb4
 2381 094f AD000000 		.4byte	0xad
 2382 0953 01       		.uleb128 0x1
 2383 0954 53       		.byte	0x53
 2384 0955 00       		.byte	0
 2385 0956 1D       		.uleb128 0x1d
ARM GAS  /tmp/ccrgxcxk.s 			page 43


 2386 0957 A8040000 		.4byte	.LBB30
 2387 095b 06000000 		.4byte	.LBE30-.LBB30
 2388 095f 71090000 		.4byte	0x971
 2389 0963 1E       		.uleb128 0x1e
 2390 0964 746D7000 		.ascii	"tmp\000"
 2391 0968 01       		.byte	0x1
 2392 0969 B7       		.byte	0xb7
 2393 096a AD000000 		.4byte	0xad
 2394 096e 01       		.uleb128 0x1
 2395 096f 53       		.byte	0x53
 2396 0970 00       		.byte	0
 2397 0971 1D       		.uleb128 0x1d
 2398 0972 32050000 		.4byte	.LBB31
 2399 0976 06000000 		.4byte	.LBE31-.LBB31
 2400 097a 8C090000 		.4byte	0x98c
 2401 097e 1E       		.uleb128 0x1e
 2402 097f 746D7000 		.ascii	"tmp\000"
 2403 0983 01       		.byte	0x1
 2404 0984 C1       		.byte	0xc1
 2405 0985 AD000000 		.4byte	0xad
 2406 0989 01       		.uleb128 0x1
 2407 098a 53       		.byte	0x53
 2408 098b 00       		.byte	0
 2409 098c 1D       		.uleb128 0x1d
 2410 098d 62050000 		.4byte	.LBB32
 2411 0991 06000000 		.4byte	.LBE32-.LBB32
 2412 0995 A7090000 		.4byte	0x9a7
 2413 0999 1E       		.uleb128 0x1e
 2414 099a 746D7000 		.ascii	"tmp\000"
 2415 099e 01       		.byte	0x1
 2416 099f C5       		.byte	0xc5
 2417 09a0 AD000000 		.4byte	0xad
 2418 09a4 01       		.uleb128 0x1
 2419 09a5 53       		.byte	0x53
 2420 09a6 00       		.byte	0
 2421 09a7 1D       		.uleb128 0x1d
 2422 09a8 7C050000 		.4byte	.LBB33
 2423 09ac 06000000 		.4byte	.LBE33-.LBB33
 2424 09b0 C2090000 		.4byte	0x9c2
 2425 09b4 1E       		.uleb128 0x1e
 2426 09b5 746D7000 		.ascii	"tmp\000"
 2427 09b9 01       		.byte	0x1
 2428 09ba C7       		.byte	0xc7
 2429 09bb AD000000 		.4byte	0xad
 2430 09bf 01       		.uleb128 0x1
 2431 09c0 53       		.byte	0x53
 2432 09c1 00       		.byte	0
 2433 09c2 1D       		.uleb128 0x1d
 2434 09c3 B4050000 		.4byte	.LBB34
 2435 09c7 06000000 		.4byte	.LBE34-.LBB34
 2436 09cb DD090000 		.4byte	0x9dd
 2437 09cf 1E       		.uleb128 0x1e
 2438 09d0 746D7000 		.ascii	"tmp\000"
 2439 09d4 01       		.byte	0x1
 2440 09d5 CC       		.byte	0xcc
 2441 09d6 AD000000 		.4byte	0xad
 2442 09da 01       		.uleb128 0x1
ARM GAS  /tmp/ccrgxcxk.s 			page 44


 2443 09db 53       		.byte	0x53
 2444 09dc 00       		.byte	0
 2445 09dd 1D       		.uleb128 0x1d
 2446 09de DA050000 		.4byte	.LBB35
 2447 09e2 06000000 		.4byte	.LBE35-.LBB35
 2448 09e6 F8090000 		.4byte	0x9f8
 2449 09ea 1E       		.uleb128 0x1e
 2450 09eb 746D7000 		.ascii	"tmp\000"
 2451 09ef 01       		.byte	0x1
 2452 09f0 CC       		.byte	0xcc
 2453 09f1 AD000000 		.4byte	0xad
 2454 09f5 01       		.uleb128 0x1
 2455 09f6 53       		.byte	0x53
 2456 09f7 00       		.byte	0
 2457 09f8 1D       		.uleb128 0x1d
 2458 09f9 E0050000 		.4byte	.LBB36
 2459 09fd 06000000 		.4byte	.LBE36-.LBB36
 2460 0a01 130A0000 		.4byte	0xa13
 2461 0a05 1E       		.uleb128 0x1e
 2462 0a06 746D7000 		.ascii	"tmp\000"
 2463 0a0a 01       		.byte	0x1
 2464 0a0b CD       		.byte	0xcd
 2465 0a0c AD000000 		.4byte	0xad
 2466 0a10 01       		.uleb128 0x1
 2467 0a11 53       		.byte	0x53
 2468 0a12 00       		.byte	0
 2469 0a13 1D       		.uleb128 0x1d
 2470 0a14 02060000 		.4byte	.LBB37
 2471 0a18 06000000 		.4byte	.LBE37-.LBB37
 2472 0a1c 2E0A0000 		.4byte	0xa2e
 2473 0a20 1E       		.uleb128 0x1e
 2474 0a21 746D7000 		.ascii	"tmp\000"
 2475 0a25 01       		.byte	0x1
 2476 0a26 CD       		.byte	0xcd
 2477 0a27 AD000000 		.4byte	0xad
 2478 0a2b 01       		.uleb128 0x1
 2479 0a2c 53       		.byte	0x53
 2480 0a2d 00       		.byte	0
 2481 0a2e 1D       		.uleb128 0x1d
 2482 0a2f 24060000 		.4byte	.LBB38
 2483 0a33 06000000 		.4byte	.LBE38-.LBB38
 2484 0a37 490A0000 		.4byte	0xa49
 2485 0a3b 1E       		.uleb128 0x1e
 2486 0a3c 746D7000 		.ascii	"tmp\000"
 2487 0a40 01       		.byte	0x1
 2488 0a41 D8       		.byte	0xd8
 2489 0a42 AD000000 		.4byte	0xad
 2490 0a46 01       		.uleb128 0x1
 2491 0a47 53       		.byte	0x53
 2492 0a48 00       		.byte	0
 2493 0a49 1D       		.uleb128 0x1d
 2494 0a4a 44060000 		.4byte	.LBB39
 2495 0a4e 06000000 		.4byte	.LBE39-.LBB39
 2496 0a52 640A0000 		.4byte	0xa64
 2497 0a56 1E       		.uleb128 0x1e
 2498 0a57 746D7000 		.ascii	"tmp\000"
 2499 0a5b 01       		.byte	0x1
ARM GAS  /tmp/ccrgxcxk.s 			page 45


 2500 0a5c D8       		.byte	0xd8
 2501 0a5d AD000000 		.4byte	0xad
 2502 0a61 01       		.uleb128 0x1
 2503 0a62 53       		.byte	0x53
 2504 0a63 00       		.byte	0
 2505 0a64 1D       		.uleb128 0x1d
 2506 0a65 4A060000 		.4byte	.LBB40
 2507 0a69 06000000 		.4byte	.LBE40-.LBB40
 2508 0a6d 7F0A0000 		.4byte	0xa7f
 2509 0a71 1E       		.uleb128 0x1e
 2510 0a72 746D7000 		.ascii	"tmp\000"
 2511 0a76 01       		.byte	0x1
 2512 0a77 D9       		.byte	0xd9
 2513 0a78 AD000000 		.4byte	0xad
 2514 0a7c 01       		.uleb128 0x1
 2515 0a7d 53       		.byte	0x53
 2516 0a7e 00       		.byte	0
 2517 0a7f 1D       		.uleb128 0x1d
 2518 0a80 6A060000 		.4byte	.LBB41
 2519 0a84 06000000 		.4byte	.LBE41-.LBB41
 2520 0a88 9A0A0000 		.4byte	0xa9a
 2521 0a8c 1E       		.uleb128 0x1e
 2522 0a8d 746D7000 		.ascii	"tmp\000"
 2523 0a91 01       		.byte	0x1
 2524 0a92 D9       		.byte	0xd9
 2525 0a93 AD000000 		.4byte	0xad
 2526 0a97 01       		.uleb128 0x1
 2527 0a98 53       		.byte	0x53
 2528 0a99 00       		.byte	0
 2529 0a9a 1D       		.uleb128 0x1d
 2530 0a9b 70060000 		.4byte	.LBB42
 2531 0a9f 06000000 		.4byte	.LBE42-.LBB42
 2532 0aa3 B50A0000 		.4byte	0xab5
 2533 0aa7 1E       		.uleb128 0x1e
 2534 0aa8 746D7000 		.ascii	"tmp\000"
 2535 0aac 01       		.byte	0x1
 2536 0aad DA       		.byte	0xda
 2537 0aae AD000000 		.4byte	0xad
 2538 0ab2 01       		.uleb128 0x1
 2539 0ab3 53       		.byte	0x53
 2540 0ab4 00       		.byte	0
 2541 0ab5 1D       		.uleb128 0x1d
 2542 0ab6 90060000 		.4byte	.LBB43
 2543 0aba 06000000 		.4byte	.LBE43-.LBB43
 2544 0abe D00A0000 		.4byte	0xad0
 2545 0ac2 1E       		.uleb128 0x1e
 2546 0ac3 746D7000 		.ascii	"tmp\000"
 2547 0ac7 01       		.byte	0x1
 2548 0ac8 DA       		.byte	0xda
 2549 0ac9 AD000000 		.4byte	0xad
 2550 0acd 01       		.uleb128 0x1
 2551 0ace 53       		.byte	0x53
 2552 0acf 00       		.byte	0
 2553 0ad0 1D       		.uleb128 0x1d
 2554 0ad1 96060000 		.4byte	.LBB44
 2555 0ad5 06000000 		.4byte	.LBE44-.LBB44
 2556 0ad9 EB0A0000 		.4byte	0xaeb
ARM GAS  /tmp/ccrgxcxk.s 			page 46


 2557 0add 1E       		.uleb128 0x1e
 2558 0ade 746D7000 		.ascii	"tmp\000"
 2559 0ae2 01       		.byte	0x1
 2560 0ae3 DB       		.byte	0xdb
 2561 0ae4 AD000000 		.4byte	0xad
 2562 0ae8 01       		.uleb128 0x1
 2563 0ae9 53       		.byte	0x53
 2564 0aea 00       		.byte	0
 2565 0aeb 1D       		.uleb128 0x1d
 2566 0aec B6060000 		.4byte	.LBB45
 2567 0af0 06000000 		.4byte	.LBE45-.LBB45
 2568 0af4 060B0000 		.4byte	0xb06
 2569 0af8 1E       		.uleb128 0x1e
 2570 0af9 746D7000 		.ascii	"tmp\000"
 2571 0afd 01       		.byte	0x1
 2572 0afe DB       		.byte	0xdb
 2573 0aff AD000000 		.4byte	0xad
 2574 0b03 01       		.uleb128 0x1
 2575 0b04 53       		.byte	0x53
 2576 0b05 00       		.byte	0
 2577 0b06 1D       		.uleb128 0x1d
 2578 0b07 C2060000 		.4byte	.LBB46
 2579 0b0b 06000000 		.4byte	.LBE46-.LBB46
 2580 0b0f 210B0000 		.4byte	0xb21
 2581 0b13 1E       		.uleb128 0x1e
 2582 0b14 746D7000 		.ascii	"tmp\000"
 2583 0b18 01       		.byte	0x1
 2584 0b19 DA       		.byte	0xda
 2585 0b1a AD000000 		.4byte	0xad
 2586 0b1e 01       		.uleb128 0x1
 2587 0b1f 53       		.byte	0x53
 2588 0b20 00       		.byte	0
 2589 0b21 1F       		.uleb128 0x1f
 2590 0b22 1A000000 		.4byte	.LVL0
 2591 0b26 19140000 		.4byte	0x1419
 2592 0b2a 340B0000 		.4byte	0xb34
 2593 0b2e 20       		.uleb128 0x20
 2594 0b2f 01       		.uleb128 0x1
 2595 0b30 50       		.byte	0x50
 2596 0b31 01       		.uleb128 0x1
 2597 0b32 31       		.byte	0x31
 2598 0b33 00       		.byte	0
 2599 0b34 1F       		.uleb128 0x1f
 2600 0b35 2C000000 		.4byte	.LVL2
 2601 0b39 33140000 		.4byte	0x1433
 2602 0b3d 540B0000 		.4byte	0xb54
 2603 0b41 20       		.uleb128 0x20
 2604 0b42 01       		.uleb128 0x1
 2605 0b43 52       		.byte	0x52
 2606 0b44 02       		.uleb128 0x2
 2607 0b45 09       		.byte	0x9
 2608 0b46 FF       		.byte	0xff
 2609 0b47 20       		.uleb128 0x20
 2610 0b48 01       		.uleb128 0x1
 2611 0b49 51       		.byte	0x51
 2612 0b4a 02       		.uleb128 0x2
 2613 0b4b 74       		.byte	0x74
ARM GAS  /tmp/ccrgxcxk.s 			page 47


 2614 0b4c 00       		.sleb128 0
 2615 0b4d 20       		.uleb128 0x20
 2616 0b4e 01       		.uleb128 0x1
 2617 0b4f 50       		.byte	0x50
 2618 0b50 02       		.uleb128 0x2
 2619 0b51 75       		.byte	0x75
 2620 0b52 00       		.sleb128 0
 2621 0b53 00       		.byte	0
 2622 0b54 1F       		.uleb128 0x1f
 2623 0b55 3C000000 		.4byte	.LVL5
 2624 0b59 19140000 		.4byte	0x1419
 2625 0b5d 670B0000 		.4byte	0xb67
 2626 0b61 20       		.uleb128 0x20
 2627 0b62 01       		.uleb128 0x1
 2628 0b63 50       		.byte	0x50
 2629 0b64 01       		.uleb128 0x1
 2630 0b65 32       		.byte	0x32
 2631 0b66 00       		.byte	0
 2632 0b67 1F       		.uleb128 0x1f
 2633 0b68 4E000000 		.4byte	.LVL6
 2634 0b6c 58140000 		.4byte	0x1458
 2635 0b70 870B0000 		.4byte	0xb87
 2636 0b74 20       		.uleb128 0x20
 2637 0b75 01       		.uleb128 0x1
 2638 0b76 52       		.byte	0x52
 2639 0b77 02       		.uleb128 0x2
 2640 0b78 09       		.byte	0x9
 2641 0b79 FF       		.byte	0xff
 2642 0b7a 20       		.uleb128 0x20
 2643 0b7b 01       		.uleb128 0x1
 2644 0b7c 51       		.byte	0x51
 2645 0b7d 02       		.uleb128 0x2
 2646 0b7e 08       		.byte	0x8
 2647 0b7f 41       		.byte	0x41
 2648 0b80 20       		.uleb128 0x20
 2649 0b81 01       		.uleb128 0x1
 2650 0b82 50       		.byte	0x50
 2651 0b83 02       		.uleb128 0x2
 2652 0b84 75       		.byte	0x75
 2653 0b85 00       		.sleb128 0
 2654 0b86 00       		.byte	0
 2655 0b87 1F       		.uleb128 0x1f
 2656 0b88 5C000000 		.4byte	.LVL8
 2657 0b8c 19140000 		.4byte	0x1419
 2658 0b90 9A0B0000 		.4byte	0xb9a
 2659 0b94 20       		.uleb128 0x20
 2660 0b95 01       		.uleb128 0x1
 2661 0b96 50       		.byte	0x50
 2662 0b97 01       		.uleb128 0x1
 2663 0b98 33       		.byte	0x33
 2664 0b99 00       		.byte	0
 2665 0b9a 1F       		.uleb128 0x1f
 2666 0b9b 6C000000 		.4byte	.LVL9
 2667 0b9f 33140000 		.4byte	0x1433
 2668 0ba3 B90B0000 		.4byte	0xbb9
 2669 0ba7 20       		.uleb128 0x20
 2670 0ba8 01       		.uleb128 0x1
ARM GAS  /tmp/ccrgxcxk.s 			page 48


 2671 0ba9 52       		.byte	0x52
 2672 0baa 01       		.uleb128 0x1
 2673 0bab 31       		.byte	0x31
 2674 0bac 20       		.uleb128 0x20
 2675 0bad 01       		.uleb128 0x1
 2676 0bae 51       		.byte	0x51
 2677 0baf 02       		.uleb128 0x2
 2678 0bb0 08       		.byte	0x8
 2679 0bb1 58       		.byte	0x58
 2680 0bb2 20       		.uleb128 0x20
 2681 0bb3 01       		.uleb128 0x1
 2682 0bb4 50       		.byte	0x50
 2683 0bb5 02       		.uleb128 0x2
 2684 0bb6 75       		.byte	0x75
 2685 0bb7 00       		.sleb128 0
 2686 0bb8 00       		.byte	0
 2687 0bb9 1F       		.uleb128 0x1f
 2688 0bba 7A000000 		.4byte	.LVL11
 2689 0bbe 19140000 		.4byte	0x1419
 2690 0bc2 D40B0000 		.4byte	0xbd4
 2691 0bc6 20       		.uleb128 0x20
 2692 0bc7 01       		.uleb128 0x1
 2693 0bc8 51       		.byte	0x51
 2694 0bc9 04       		.uleb128 0x4
 2695 0bca 77       		.byte	0x77
 2696 0bcb 00       		.sleb128 0
 2697 0bcc 30       		.byte	0x30
 2698 0bcd 29       		.byte	0x29
 2699 0bce 20       		.uleb128 0x20
 2700 0bcf 01       		.uleb128 0x1
 2701 0bd0 50       		.byte	0x50
 2702 0bd1 01       		.uleb128 0x1
 2703 0bd2 34       		.byte	0x34
 2704 0bd3 00       		.byte	0
 2705 0bd4 21       		.uleb128 0x21
 2706 0bd5 8A000000 		.4byte	.LVL12
 2707 0bd9 77140000 		.4byte	0x1477
 2708 0bdd 1F       		.uleb128 0x1f
 2709 0bde 92000000 		.4byte	.LVL13
 2710 0be2 7E140000 		.4byte	0x147e
 2711 0be6 F70B0000 		.4byte	0xbf7
 2712 0bea 20       		.uleb128 0x20
 2713 0beb 01       		.uleb128 0x1
 2714 0bec 51       		.byte	0x51
 2715 0bed 02       		.uleb128 0x2
 2716 0bee 08       		.byte	0x8
 2717 0bef 58       		.byte	0x58
 2718 0bf0 20       		.uleb128 0x20
 2719 0bf1 01       		.uleb128 0x1
 2720 0bf2 50       		.byte	0x50
 2721 0bf3 02       		.uleb128 0x2
 2722 0bf4 75       		.byte	0x75
 2723 0bf5 00       		.sleb128 0
 2724 0bf6 00       		.byte	0
 2725 0bf7 21       		.uleb128 0x21
 2726 0bf8 98000000 		.4byte	.LVL15
 2727 0bfc 98140000 		.4byte	0x1498
ARM GAS  /tmp/ccrgxcxk.s 			page 49


 2728 0c00 1F       		.uleb128 0x1f
 2729 0c01 AC000000 		.4byte	.LVL16
 2730 0c05 19140000 		.4byte	0x1419
 2731 0c09 1B0C0000 		.4byte	0xc1b
 2732 0c0d 20       		.uleb128 0x20
 2733 0c0e 01       		.uleb128 0x1
 2734 0c0f 51       		.byte	0x51
 2735 0c10 04       		.uleb128 0x4
 2736 0c11 74       		.byte	0x74
 2737 0c12 00       		.sleb128 0
 2738 0c13 30       		.byte	0x30
 2739 0c14 29       		.byte	0x29
 2740 0c15 20       		.uleb128 0x20
 2741 0c16 01       		.uleb128 0x1
 2742 0c17 50       		.byte	0x50
 2743 0c18 01       		.uleb128 0x1
 2744 0c19 35       		.byte	0x35
 2745 0c1a 00       		.byte	0
 2746 0c1b 1F       		.uleb128 0x1f
 2747 0c1c BA000000 		.4byte	.LVL17
 2748 0c20 58140000 		.4byte	0x1458
 2749 0c24 3A0C0000 		.4byte	0xc3a
 2750 0c28 20       		.uleb128 0x20
 2751 0c29 01       		.uleb128 0x1
 2752 0c2a 52       		.byte	0x52
 2753 0c2b 01       		.uleb128 0x1
 2754 0c2c 31       		.byte	0x31
 2755 0c2d 20       		.uleb128 0x20
 2756 0c2e 01       		.uleb128 0x1
 2757 0c2f 51       		.byte	0x51
 2758 0c30 02       		.uleb128 0x2
 2759 0c31 08       		.byte	0x8
 2760 0c32 58       		.byte	0x58
 2761 0c33 20       		.uleb128 0x20
 2762 0c34 01       		.uleb128 0x1
 2763 0c35 50       		.byte	0x50
 2764 0c36 02       		.uleb128 0x2
 2765 0c37 75       		.byte	0x75
 2766 0c38 00       		.sleb128 0
 2767 0c39 00       		.byte	0
 2768 0c3a 1F       		.uleb128 0x1f
 2769 0c3b C8000000 		.4byte	.LVL20
 2770 0c3f 19140000 		.4byte	0x1419
 2771 0c43 4D0C0000 		.4byte	0xc4d
 2772 0c47 20       		.uleb128 0x20
 2773 0c48 01       		.uleb128 0x1
 2774 0c49 50       		.byte	0x50
 2775 0c4a 01       		.uleb128 0x1
 2776 0c4b 36       		.byte	0x36
 2777 0c4c 00       		.byte	0
 2778 0c4d 21       		.uleb128 0x21
 2779 0c4e D8000000 		.4byte	.LVL21
 2780 0c52 77140000 		.4byte	0x1477
 2781 0c56 1F       		.uleb128 0x1f
 2782 0c57 E0000000 		.4byte	.LVL22
 2783 0c5b 9F140000 		.4byte	0x149f
 2784 0c5f 700C0000 		.4byte	0xc70
ARM GAS  /tmp/ccrgxcxk.s 			page 50


 2785 0c63 20       		.uleb128 0x20
 2786 0c64 01       		.uleb128 0x1
 2787 0c65 51       		.byte	0x51
 2788 0c66 02       		.uleb128 0x2
 2789 0c67 08       		.byte	0x8
 2790 0c68 58       		.byte	0x58
 2791 0c69 20       		.uleb128 0x20
 2792 0c6a 01       		.uleb128 0x1
 2793 0c6b 50       		.byte	0x50
 2794 0c6c 02       		.uleb128 0x2
 2795 0c6d 75       		.byte	0x75
 2796 0c6e 00       		.sleb128 0
 2797 0c6f 00       		.byte	0
 2798 0c70 21       		.uleb128 0x21
 2799 0c71 E6000000 		.4byte	.LVL24
 2800 0c75 98140000 		.4byte	0x1498
 2801 0c79 1F       		.uleb128 0x1f
 2802 0c7a FC000000 		.4byte	.LVL25
 2803 0c7e 19140000 		.4byte	0x1419
 2804 0c82 950C0000 		.4byte	0xc95
 2805 0c86 20       		.uleb128 0x20
 2806 0c87 01       		.uleb128 0x1
 2807 0c88 51       		.byte	0x51
 2808 0c89 05       		.uleb128 0x5
 2809 0c8a 77       		.byte	0x77
 2810 0c8b 00       		.sleb128 0
 2811 0c8c 09       		.byte	0x9
 2812 0c8d FF       		.byte	0xff
 2813 0c8e 29       		.byte	0x29
 2814 0c8f 20       		.uleb128 0x20
 2815 0c90 01       		.uleb128 0x1
 2816 0c91 50       		.byte	0x50
 2817 0c92 01       		.uleb128 0x1
 2818 0c93 37       		.byte	0x37
 2819 0c94 00       		.byte	0
 2820 0c95 21       		.uleb128 0x21
 2821 0c96 0C010000 		.4byte	.LVL27
 2822 0c9a 77140000 		.4byte	0x1477
 2823 0c9e 1F       		.uleb128 0x1f
 2824 0c9f 1E010000 		.4byte	.LVL28
 2825 0ca3 19140000 		.4byte	0x1419
 2826 0ca7 B10C0000 		.4byte	0xcb1
 2827 0cab 20       		.uleb128 0x20
 2828 0cac 01       		.uleb128 0x1
 2829 0cad 50       		.byte	0x50
 2830 0cae 01       		.uleb128 0x1
 2831 0caf 38       		.byte	0x38
 2832 0cb0 00       		.byte	0
 2833 0cb1 21       		.uleb128 0x21
 2834 0cb2 26010000 		.4byte	.LVL29
 2835 0cb6 98140000 		.4byte	0x1498
 2836 0cba 21       		.uleb128 0x21
 2837 0cbb 38010000 		.4byte	.LVL30
 2838 0cbf 98140000 		.4byte	0x1498
 2839 0cc3 21       		.uleb128 0x21
 2840 0cc4 48010000 		.4byte	.LVL31
 2841 0cc8 77140000 		.4byte	0x1477
ARM GAS  /tmp/ccrgxcxk.s 			page 51


 2842 0ccc 1F       		.uleb128 0x1f
 2843 0ccd 58010000 		.4byte	.LVL32
 2844 0cd1 19140000 		.4byte	0x1419
 2845 0cd5 DF0C0000 		.4byte	0xcdf
 2846 0cd9 20       		.uleb128 0x20
 2847 0cda 01       		.uleb128 0x1
 2848 0cdb 50       		.byte	0x50
 2849 0cdc 01       		.uleb128 0x1
 2850 0cdd 39       		.byte	0x39
 2851 0cde 00       		.byte	0
 2852 0cdf 21       		.uleb128 0x21
 2853 0ce0 64010000 		.4byte	.LVL33
 2854 0ce4 98140000 		.4byte	0x1498
 2855 0ce8 21       		.uleb128 0x21
 2856 0ce9 74010000 		.4byte	.LVL34
 2857 0ced 77140000 		.4byte	0x1477
 2858 0cf1 1F       		.uleb128 0x1f
 2859 0cf2 8A010000 		.4byte	.LVL35
 2860 0cf6 19140000 		.4byte	0x1419
 2861 0cfa 040D0000 		.4byte	0xd04
 2862 0cfe 20       		.uleb128 0x20
 2863 0cff 01       		.uleb128 0x1
 2864 0d00 50       		.byte	0x50
 2865 0d01 01       		.uleb128 0x1
 2866 0d02 3A       		.byte	0x3a
 2867 0d03 00       		.byte	0
 2868 0d04 21       		.uleb128 0x21
 2869 0d05 94010000 		.4byte	.LVL36
 2870 0d09 98140000 		.4byte	0x1498
 2871 0d0d 1F       		.uleb128 0x1f
 2872 0d0e AA010000 		.4byte	.LVL39
 2873 0d12 B9140000 		.4byte	0x14b9
 2874 0d16 2D0D0000 		.4byte	0xd2d
 2875 0d1a 20       		.uleb128 0x20
 2876 0d1b 01       		.uleb128 0x1
 2877 0d1c 52       		.byte	0x52
 2878 0d1d 02       		.uleb128 0x2
 2879 0d1e 09       		.byte	0x9
 2880 0d1f FF       		.byte	0xff
 2881 0d20 20       		.uleb128 0x20
 2882 0d21 01       		.uleb128 0x1
 2883 0d22 51       		.byte	0x51
 2884 0d23 02       		.uleb128 0x2
 2885 0d24 91       		.byte	0x91
 2886 0d25 64       		.sleb128 -28
 2887 0d26 20       		.uleb128 0x20
 2888 0d27 01       		.uleb128 0x1
 2889 0d28 50       		.byte	0x50
 2890 0d29 02       		.uleb128 0x2
 2891 0d2a 74       		.byte	0x74
 2892 0d2b 00       		.sleb128 0
 2893 0d2c 00       		.byte	0
 2894 0d2d 1F       		.uleb128 0x1f
 2895 0d2e B8010000 		.4byte	.LVL41
 2896 0d32 19140000 		.4byte	0x1419
 2897 0d36 400D0000 		.4byte	0xd40
 2898 0d3a 20       		.uleb128 0x20
ARM GAS  /tmp/ccrgxcxk.s 			page 52


 2899 0d3b 01       		.uleb128 0x1
 2900 0d3c 50       		.byte	0x50
 2901 0d3d 01       		.uleb128 0x1
 2902 0d3e 3B       		.byte	0x3b
 2903 0d3f 00       		.byte	0
 2904 0d40 21       		.uleb128 0x21
 2905 0d41 C6010000 		.4byte	.LVL42
 2906 0d45 D8140000 		.4byte	0x14d8
 2907 0d49 1F       		.uleb128 0x1f
 2908 0d4a D2010000 		.4byte	.LVL44
 2909 0d4e E9140000 		.4byte	0x14e9
 2910 0d52 650D0000 		.4byte	0xd65
 2911 0d56 20       		.uleb128 0x20
 2912 0d57 01       		.uleb128 0x1
 2913 0d58 51       		.byte	0x51
 2914 0d59 05       		.uleb128 0x5
 2915 0d5a 03       		.byte	0x3
 2916 0d5b 00000000 		.4byte	.LC0
 2917 0d5f 20       		.uleb128 0x20
 2918 0d60 01       		.uleb128 0x1
 2919 0d61 50       		.byte	0x50
 2920 0d62 01       		.uleb128 0x1
 2921 0d63 3C       		.byte	0x3c
 2922 0d64 00       		.byte	0
 2923 0d65 1F       		.uleb128 0x1f
 2924 0d66 E4010000 		.4byte	.LVL45
 2925 0d6a 33140000 		.4byte	0x1433
 2926 0d6e 850D0000 		.4byte	0xd85
 2927 0d72 20       		.uleb128 0x20
 2928 0d73 01       		.uleb128 0x1
 2929 0d74 52       		.byte	0x52
 2930 0d75 02       		.uleb128 0x2
 2931 0d76 09       		.byte	0x9
 2932 0d77 FF       		.byte	0xff
 2933 0d78 20       		.uleb128 0x20
 2934 0d79 01       		.uleb128 0x1
 2935 0d7a 51       		.byte	0x51
 2936 0d7b 02       		.uleb128 0x2
 2937 0d7c 08       		.byte	0x8
 2938 0d7d 47       		.byte	0x47
 2939 0d7e 20       		.uleb128 0x20
 2940 0d7f 01       		.uleb128 0x1
 2941 0d80 50       		.byte	0x50
 2942 0d81 02       		.uleb128 0x2
 2943 0d82 74       		.byte	0x74
 2944 0d83 00       		.sleb128 0
 2945 0d84 00       		.byte	0
 2946 0d85 1F       		.uleb128 0x1f
 2947 0d86 F2010000 		.4byte	.LVL47
 2948 0d8a 19140000 		.4byte	0x1419
 2949 0d8e 980D0000 		.4byte	0xd98
 2950 0d92 20       		.uleb128 0x20
 2951 0d93 01       		.uleb128 0x1
 2952 0d94 50       		.byte	0x50
 2953 0d95 01       		.uleb128 0x1
 2954 0d96 3D       		.byte	0x3d
 2955 0d97 00       		.byte	0
ARM GAS  /tmp/ccrgxcxk.s 			page 53


 2956 0d98 1F       		.uleb128 0x1f
 2957 0d99 04020000 		.4byte	.LVL48
 2958 0d9d B9140000 		.4byte	0x14b9
 2959 0da1 B80D0000 		.4byte	0xdb8
 2960 0da5 20       		.uleb128 0x20
 2961 0da6 01       		.uleb128 0x1
 2962 0da7 52       		.byte	0x52
 2963 0da8 02       		.uleb128 0x2
 2964 0da9 09       		.byte	0x9
 2965 0daa FF       		.byte	0xff
 2966 0dab 20       		.uleb128 0x20
 2967 0dac 01       		.uleb128 0x1
 2968 0dad 51       		.byte	0x51
 2969 0dae 02       		.uleb128 0x2
 2970 0daf 91       		.byte	0x91
 2971 0db0 64       		.sleb128 -28
 2972 0db1 20       		.uleb128 0x20
 2973 0db2 01       		.uleb128 0x1
 2974 0db3 50       		.byte	0x50
 2975 0db4 02       		.uleb128 0x2
 2976 0db5 74       		.byte	0x74
 2977 0db6 00       		.sleb128 0
 2978 0db7 00       		.byte	0
 2979 0db8 1F       		.uleb128 0x1f
 2980 0db9 12020000 		.4byte	.LVL50
 2981 0dbd 19140000 		.4byte	0x1419
 2982 0dc1 CB0D0000 		.4byte	0xdcb
 2983 0dc5 20       		.uleb128 0x20
 2984 0dc6 01       		.uleb128 0x1
 2985 0dc7 50       		.byte	0x50
 2986 0dc8 01       		.uleb128 0x1
 2987 0dc9 3E       		.byte	0x3e
 2988 0dca 00       		.byte	0
 2989 0dcb 1F       		.uleb128 0x1f
 2990 0dcc 2E020000 		.4byte	.LVL51
 2991 0dd0 19140000 		.4byte	0x1419
 2992 0dd4 DE0D0000 		.4byte	0xdde
 2993 0dd8 20       		.uleb128 0x20
 2994 0dd9 01       		.uleb128 0x1
 2995 0dda 50       		.byte	0x50
 2996 0ddb 01       		.uleb128 0x1
 2997 0ddc 3F       		.byte	0x3f
 2998 0ddd 00       		.byte	0
 2999 0dde 1F       		.uleb128 0x1f
 3000 0ddf 44020000 		.4byte	.LVL52
 3001 0de3 19140000 		.4byte	0x1419
 3002 0de7 F90D0000 		.4byte	0xdf9
 3003 0deb 20       		.uleb128 0x20
 3004 0dec 01       		.uleb128 0x1
 3005 0ded 51       		.byte	0x51
 3006 0dee 04       		.uleb128 0x4
 3007 0def 77       		.byte	0x77
 3008 0df0 00       		.sleb128 0
 3009 0df1 30       		.byte	0x30
 3010 0df2 29       		.byte	0x29
 3011 0df3 20       		.uleb128 0x20
 3012 0df4 01       		.uleb128 0x1
ARM GAS  /tmp/ccrgxcxk.s 			page 54


 3013 0df5 50       		.byte	0x50
 3014 0df6 01       		.uleb128 0x1
 3015 0df7 40       		.byte	0x40
 3016 0df8 00       		.byte	0
 3017 0df9 1F       		.uleb128 0x1f
 3018 0dfa 54020000 		.4byte	.LVL53
 3019 0dfe B9140000 		.4byte	0x14b9
 3020 0e02 180E0000 		.4byte	0xe18
 3021 0e06 20       		.uleb128 0x20
 3022 0e07 01       		.uleb128 0x1
 3023 0e08 52       		.byte	0x52
 3024 0e09 01       		.uleb128 0x1
 3025 0e0a 31       		.byte	0x31
 3026 0e0b 20       		.uleb128 0x20
 3027 0e0c 01       		.uleb128 0x1
 3028 0e0d 51       		.byte	0x51
 3029 0e0e 02       		.uleb128 0x2
 3030 0e0f 91       		.byte	0x91
 3031 0e10 64       		.sleb128 -28
 3032 0e11 20       		.uleb128 0x20
 3033 0e12 01       		.uleb128 0x1
 3034 0e13 50       		.byte	0x50
 3035 0e14 02       		.uleb128 0x2
 3036 0e15 74       		.byte	0x74
 3037 0e16 00       		.sleb128 0
 3038 0e17 00       		.byte	0
 3039 0e18 1F       		.uleb128 0x1f
 3040 0e19 62020000 		.4byte	.LVL56
 3041 0e1d 19140000 		.4byte	0x1419
 3042 0e21 2B0E0000 		.4byte	0xe2b
 3043 0e25 20       		.uleb128 0x20
 3044 0e26 01       		.uleb128 0x1
 3045 0e27 50       		.byte	0x50
 3046 0e28 01       		.uleb128 0x1
 3047 0e29 41       		.byte	0x41
 3048 0e2a 00       		.byte	0
 3049 0e2b 21       		.uleb128 0x21
 3050 0e2c 72020000 		.4byte	.LVL57
 3051 0e30 77140000 		.4byte	0x1477
 3052 0e34 1F       		.uleb128 0x1f
 3053 0e35 7A020000 		.4byte	.LVL58
 3054 0e39 09150000 		.4byte	0x1509
 3055 0e3d 4E0E0000 		.4byte	0xe4e
 3056 0e41 20       		.uleb128 0x20
 3057 0e42 01       		.uleb128 0x1
 3058 0e43 51       		.byte	0x51
 3059 0e44 02       		.uleb128 0x2
 3060 0e45 91       		.byte	0x91
 3061 0e46 64       		.sleb128 -28
 3062 0e47 20       		.uleb128 0x20
 3063 0e48 01       		.uleb128 0x1
 3064 0e49 50       		.byte	0x50
 3065 0e4a 02       		.uleb128 0x2
 3066 0e4b 74       		.byte	0x74
 3067 0e4c 00       		.sleb128 0
 3068 0e4d 00       		.byte	0
 3069 0e4e 21       		.uleb128 0x21
ARM GAS  /tmp/ccrgxcxk.s 			page 55


 3070 0e4f 80020000 		.4byte	.LVL60
 3071 0e53 98140000 		.4byte	0x1498
 3072 0e57 1F       		.uleb128 0x1f
 3073 0e58 94020000 		.4byte	.LVL61
 3074 0e5c 19140000 		.4byte	0x1419
 3075 0e60 730E0000 		.4byte	0xe73
 3076 0e64 20       		.uleb128 0x20
 3077 0e65 01       		.uleb128 0x1
 3078 0e66 51       		.byte	0x51
 3079 0e67 05       		.uleb128 0x5
 3080 0e68 77       		.byte	0x77
 3081 0e69 00       		.sleb128 0
 3082 0e6a 09       		.byte	0x9
 3083 0e6b FF       		.byte	0xff
 3084 0e6c 29       		.byte	0x29
 3085 0e6d 20       		.uleb128 0x20
 3086 0e6e 01       		.uleb128 0x1
 3087 0e6f 50       		.byte	0x50
 3088 0e70 01       		.uleb128 0x1
 3089 0e71 42       		.byte	0x42
 3090 0e72 00       		.byte	0
 3091 0e73 21       		.uleb128 0x21
 3092 0e74 A4020000 		.4byte	.LVL62
 3093 0e78 77140000 		.4byte	0x1477
 3094 0e7c 1F       		.uleb128 0x1f
 3095 0e7d B2020000 		.4byte	.LVL63
 3096 0e81 19140000 		.4byte	0x1419
 3097 0e85 8F0E0000 		.4byte	0xe8f
 3098 0e89 20       		.uleb128 0x20
 3099 0e8a 01       		.uleb128 0x1
 3100 0e8b 50       		.byte	0x50
 3101 0e8c 01       		.uleb128 0x1
 3102 0e8d 43       		.byte	0x43
 3103 0e8e 00       		.byte	0
 3104 0e8f 21       		.uleb128 0x21
 3105 0e90 BC020000 		.4byte	.LVL64
 3106 0e94 98140000 		.4byte	0x1498
 3107 0e98 21       		.uleb128 0x21
 3108 0e99 CC020000 		.4byte	.LVL65
 3109 0e9d 77140000 		.4byte	0x1477
 3110 0ea1 1F       		.uleb128 0x1f
 3111 0ea2 DE020000 		.4byte	.LVL66
 3112 0ea6 19140000 		.4byte	0x1419
 3113 0eaa B40E0000 		.4byte	0xeb4
 3114 0eae 20       		.uleb128 0x20
 3115 0eaf 01       		.uleb128 0x1
 3116 0eb0 50       		.byte	0x50
 3117 0eb1 01       		.uleb128 0x1
 3118 0eb2 44       		.byte	0x44
 3119 0eb3 00       		.byte	0
 3120 0eb4 21       		.uleb128 0x21
 3121 0eb5 EA020000 		.4byte	.LVL68
 3122 0eb9 98140000 		.4byte	0x1498
 3123 0ebd 21       		.uleb128 0x21
 3124 0ebe FA020000 		.4byte	.LVL69
 3125 0ec2 77140000 		.4byte	0x1477
 3126 0ec6 1F       		.uleb128 0x1f
ARM GAS  /tmp/ccrgxcxk.s 			page 56


 3127 0ec7 12030000 		.4byte	.LVL70
 3128 0ecb 19140000 		.4byte	0x1419
 3129 0ecf D90E0000 		.4byte	0xed9
 3130 0ed3 20       		.uleb128 0x20
 3131 0ed4 01       		.uleb128 0x1
 3132 0ed5 50       		.byte	0x50
 3133 0ed6 01       		.uleb128 0x1
 3134 0ed7 45       		.byte	0x45
 3135 0ed8 00       		.byte	0
 3136 0ed9 21       		.uleb128 0x21
 3137 0eda 1E030000 		.4byte	.LVL71
 3138 0ede 98140000 		.4byte	0x1498
 3139 0ee2 21       		.uleb128 0x21
 3140 0ee3 2E030000 		.4byte	.LVL72
 3141 0ee7 77140000 		.4byte	0x1477
 3142 0eeb 1F       		.uleb128 0x1f
 3143 0eec 36030000 		.4byte	.LVL73
 3144 0ef0 7E140000 		.4byte	0x147e
 3145 0ef4 050F0000 		.4byte	0xf05
 3146 0ef8 20       		.uleb128 0x20
 3147 0ef9 01       		.uleb128 0x1
 3148 0efa 51       		.byte	0x51
 3149 0efb 02       		.uleb128 0x2
 3150 0efc 08       		.byte	0x8
 3151 0efd 41       		.byte	0x41
 3152 0efe 20       		.uleb128 0x20
 3153 0eff 01       		.uleb128 0x1
 3154 0f00 50       		.byte	0x50
 3155 0f01 02       		.uleb128 0x2
 3156 0f02 74       		.byte	0x74
 3157 0f03 00       		.sleb128 0
 3158 0f04 00       		.byte	0
 3159 0f05 1F       		.uleb128 0x1f
 3160 0f06 44030000 		.4byte	.LVL75
 3161 0f0a 19140000 		.4byte	0x1419
 3162 0f0e 180F0000 		.4byte	0xf18
 3163 0f12 20       		.uleb128 0x20
 3164 0f13 01       		.uleb128 0x1
 3165 0f14 50       		.byte	0x50
 3166 0f15 01       		.uleb128 0x1
 3167 0f16 46       		.byte	0x46
 3168 0f17 00       		.byte	0
 3169 0f18 1F       		.uleb128 0x1f
 3170 0f19 52030000 		.4byte	.LVL76
 3171 0f1d 7E140000 		.4byte	0x147e
 3172 0f21 320F0000 		.4byte	0xf32
 3173 0f25 20       		.uleb128 0x20
 3174 0f26 01       		.uleb128 0x1
 3175 0f27 51       		.byte	0x51
 3176 0f28 02       		.uleb128 0x2
 3177 0f29 08       		.byte	0x8
 3178 0f2a 42       		.byte	0x42
 3179 0f2b 20       		.uleb128 0x20
 3180 0f2c 01       		.uleb128 0x1
 3181 0f2d 50       		.byte	0x50
 3182 0f2e 02       		.uleb128 0x2
 3183 0f2f 74       		.byte	0x74
ARM GAS  /tmp/ccrgxcxk.s 			page 57


 3184 0f30 00       		.sleb128 0
 3185 0f31 00       		.byte	0
 3186 0f32 1F       		.uleb128 0x1f
 3187 0f33 60030000 		.4byte	.LVL78
 3188 0f37 19140000 		.4byte	0x1419
 3189 0f3b 450F0000 		.4byte	0xf45
 3190 0f3f 20       		.uleb128 0x20
 3191 0f40 01       		.uleb128 0x1
 3192 0f41 50       		.byte	0x50
 3193 0f42 01       		.uleb128 0x1
 3194 0f43 47       		.byte	0x47
 3195 0f44 00       		.byte	0
 3196 0f45 1F       		.uleb128 0x1f
 3197 0f46 6E030000 		.4byte	.LVL79
 3198 0f4a 7E140000 		.4byte	0x147e
 3199 0f4e 5F0F0000 		.4byte	0xf5f
 3200 0f52 20       		.uleb128 0x20
 3201 0f53 01       		.uleb128 0x1
 3202 0f54 51       		.byte	0x51
 3203 0f55 02       		.uleb128 0x2
 3204 0f56 08       		.byte	0x8
 3205 0f57 43       		.byte	0x43
 3206 0f58 20       		.uleb128 0x20
 3207 0f59 01       		.uleb128 0x1
 3208 0f5a 50       		.byte	0x50
 3209 0f5b 02       		.uleb128 0x2
 3210 0f5c 74       		.byte	0x74
 3211 0f5d 00       		.sleb128 0
 3212 0f5e 00       		.byte	0
 3213 0f5f 1F       		.uleb128 0x1f
 3214 0f60 7C030000 		.4byte	.LVL81
 3215 0f64 19140000 		.4byte	0x1419
 3216 0f68 720F0000 		.4byte	0xf72
 3217 0f6c 20       		.uleb128 0x20
 3218 0f6d 01       		.uleb128 0x1
 3219 0f6e 50       		.byte	0x50
 3220 0f6f 01       		.uleb128 0x1
 3221 0f70 48       		.byte	0x48
 3222 0f71 00       		.byte	0
 3223 0f72 1F       		.uleb128 0x1f
 3224 0f73 8A030000 		.4byte	.LVL82
 3225 0f77 7E140000 		.4byte	0x147e
 3226 0f7b 8C0F0000 		.4byte	0xf8c
 3227 0f7f 20       		.uleb128 0x20
 3228 0f80 01       		.uleb128 0x1
 3229 0f81 51       		.byte	0x51
 3230 0f82 02       		.uleb128 0x2
 3231 0f83 08       		.byte	0x8
 3232 0f84 44       		.byte	0x44
 3233 0f85 20       		.uleb128 0x20
 3234 0f86 01       		.uleb128 0x1
 3235 0f87 50       		.byte	0x50
 3236 0f88 02       		.uleb128 0x2
 3237 0f89 74       		.byte	0x74
 3238 0f8a 00       		.sleb128 0
 3239 0f8b 00       		.byte	0
 3240 0f8c 1F       		.uleb128 0x1f
ARM GAS  /tmp/ccrgxcxk.s 			page 58


 3241 0f8d 98030000 		.4byte	.LVL84
 3242 0f91 19140000 		.4byte	0x1419
 3243 0f95 9F0F0000 		.4byte	0xf9f
 3244 0f99 20       		.uleb128 0x20
 3245 0f9a 01       		.uleb128 0x1
 3246 0f9b 50       		.byte	0x50
 3247 0f9c 01       		.uleb128 0x1
 3248 0f9d 49       		.byte	0x49
 3249 0f9e 00       		.byte	0
 3250 0f9f 1F       		.uleb128 0x1f
 3251 0fa0 A8030000 		.4byte	.LVL85
 3252 0fa4 7E140000 		.4byte	0x147e
 3253 0fa8 B90F0000 		.4byte	0xfb9
 3254 0fac 20       		.uleb128 0x20
 3255 0fad 01       		.uleb128 0x1
 3256 0fae 51       		.byte	0x51
 3257 0faf 02       		.uleb128 0x2
 3258 0fb0 08       		.byte	0x8
 3259 0fb1 45       		.byte	0x45
 3260 0fb2 20       		.uleb128 0x20
 3261 0fb3 01       		.uleb128 0x1
 3262 0fb4 50       		.byte	0x50
 3263 0fb5 02       		.uleb128 0x2
 3264 0fb6 74       		.byte	0x74
 3265 0fb7 00       		.sleb128 0
 3266 0fb8 00       		.byte	0
 3267 0fb9 21       		.uleb128 0x21
 3268 0fba AE030000 		.4byte	.LVL87
 3269 0fbe 98140000 		.4byte	0x1498
 3270 0fc2 1F       		.uleb128 0x1f
 3271 0fc3 C2030000 		.4byte	.LVL88
 3272 0fc7 19140000 		.4byte	0x1419
 3273 0fcb EF0F0000 		.4byte	0xfef
 3274 0fcf 20       		.uleb128 0x20
 3275 0fd0 01       		.uleb128 0x1
 3276 0fd1 51       		.byte	0x51
 3277 0fd2 16       		.uleb128 0x16
 3278 0fd3 30       		.byte	0x30
 3279 0fd4 31       		.byte	0x31
 3280 0fd5 76       		.byte	0x76
 3281 0fd6 00       		.sleb128 0
 3282 0fd7 1C       		.byte	0x1c
 3283 0fd8 31       		.byte	0x31
 3284 0fd9 40       		.byte	0x40
 3285 0fda 4B       		.byte	0x4b
 3286 0fdb 24       		.byte	0x24
 3287 0fdc 22       		.byte	0x22
 3288 0fdd 76       		.byte	0x76
 3289 0fde 00       		.sleb128 0
 3290 0fdf 40       		.byte	0x40
 3291 0fe0 4B       		.byte	0x4b
 3292 0fe1 24       		.byte	0x24
 3293 0fe2 22       		.byte	0x22
 3294 0fe3 2D       		.byte	0x2d
 3295 0fe4 28       		.byte	0x28
 3296 0fe5 0100     		.2byte	0x1
 3297 0fe7 16       		.byte	0x16
ARM GAS  /tmp/ccrgxcxk.s 			page 59


 3298 0fe8 13       		.byte	0x13
 3299 0fe9 20       		.uleb128 0x20
 3300 0fea 01       		.uleb128 0x1
 3301 0feb 50       		.byte	0x50
 3302 0fec 01       		.uleb128 0x1
 3303 0fed 4A       		.byte	0x4a
 3304 0fee 00       		.byte	0
 3305 0fef 1F       		.uleb128 0x1f
 3306 0ff0 DE030000 		.4byte	.LVL89
 3307 0ff4 19140000 		.4byte	0x1419
 3308 0ff8 02100000 		.4byte	0x1002
 3309 0ffc 20       		.uleb128 0x20
 3310 0ffd 01       		.uleb128 0x1
 3311 0ffe 50       		.byte	0x50
 3312 0fff 01       		.uleb128 0x1
 3313 1000 4B       		.byte	0x4b
 3314 1001 00       		.byte	0
 3315 1002 21       		.uleb128 0x21
 3316 1003 F2030000 		.4byte	.LVL91
 3317 1007 77140000 		.4byte	0x1477
 3318 100b 1F       		.uleb128 0x1f
 3319 100c FA030000 		.4byte	.LVL92
 3320 1010 09150000 		.4byte	0x1509
 3321 1014 25100000 		.4byte	0x1025
 3322 1018 20       		.uleb128 0x20
 3323 1019 01       		.uleb128 0x1
 3324 101a 51       		.byte	0x51
 3325 101b 02       		.uleb128 0x2
 3326 101c 91       		.byte	0x91
 3327 101d 64       		.sleb128 -28
 3328 101e 20       		.uleb128 0x20
 3329 101f 01       		.uleb128 0x1
 3330 1020 50       		.byte	0x50
 3331 1021 02       		.uleb128 0x2
 3332 1022 74       		.byte	0x74
 3333 1023 00       		.sleb128 0
 3334 1024 00       		.byte	0
 3335 1025 21       		.uleb128 0x21
 3336 1026 00040000 		.4byte	.LVL94
 3337 102a 98140000 		.4byte	0x1498
 3338 102e 1F       		.uleb128 0x1f
 3339 102f 12040000 		.4byte	.LVL95
 3340 1033 19140000 		.4byte	0x1419
 3341 1037 49100000 		.4byte	0x1049
 3342 103b 20       		.uleb128 0x20
 3343 103c 01       		.uleb128 0x1
 3344 103d 51       		.byte	0x51
 3345 103e 04       		.uleb128 0x4
 3346 103f 77       		.byte	0x77
 3347 1040 00       		.sleb128 0
 3348 1041 30       		.byte	0x30
 3349 1042 29       		.byte	0x29
 3350 1043 20       		.uleb128 0x20
 3351 1044 01       		.uleb128 0x1
 3352 1045 50       		.byte	0x50
 3353 1046 01       		.uleb128 0x1
 3354 1047 4C       		.byte	0x4c
ARM GAS  /tmp/ccrgxcxk.s 			page 60


 3355 1048 00       		.byte	0
 3356 1049 21       		.uleb128 0x21
 3357 104a 20040000 		.4byte	.LVL96
 3358 104e D8140000 		.4byte	0x14d8
 3359 1052 1F       		.uleb128 0x1f
 3360 1053 2C040000 		.4byte	.LVL98
 3361 1057 E9140000 		.4byte	0x14e9
 3362 105b 6E100000 		.4byte	0x106e
 3363 105f 20       		.uleb128 0x20
 3364 1060 01       		.uleb128 0x1
 3365 1061 51       		.byte	0x51
 3366 1062 05       		.uleb128 0x5
 3367 1063 03       		.byte	0x3
 3368 1064 00000000 		.4byte	.LC0
 3369 1068 20       		.uleb128 0x20
 3370 1069 01       		.uleb128 0x1
 3371 106a 50       		.byte	0x50
 3372 106b 01       		.uleb128 0x1
 3373 106c 4D       		.byte	0x4d
 3374 106d 00       		.byte	0
 3375 106e 21       		.uleb128 0x21
 3376 106f 3C040000 		.4byte	.LVL99
 3377 1073 77140000 		.4byte	0x1477
 3378 1077 1F       		.uleb128 0x1f
 3379 1078 4A040000 		.4byte	.LVL101
 3380 107c 19140000 		.4byte	0x1419
 3381 1080 92100000 		.4byte	0x1092
 3382 1084 20       		.uleb128 0x20
 3383 1085 01       		.uleb128 0x1
 3384 1086 51       		.byte	0x51
 3385 1087 04       		.uleb128 0x4
 3386 1088 76       		.byte	0x76
 3387 1089 00       		.sleb128 0
 3388 108a 30       		.byte	0x30
 3389 108b 29       		.byte	0x29
 3390 108c 20       		.uleb128 0x20
 3391 108d 01       		.uleb128 0x1
 3392 108e 50       		.byte	0x50
 3393 108f 01       		.uleb128 0x1
 3394 1090 4E       		.byte	0x4e
 3395 1091 00       		.byte	0
 3396 1092 21       		.uleb128 0x21
 3397 1093 50040000 		.4byte	.LVL102
 3398 1097 98140000 		.4byte	0x1498
 3399 109b 21       		.uleb128 0x21
 3400 109c 60040000 		.4byte	.LVL103
 3401 10a0 77140000 		.4byte	0x1477
 3402 10a4 1F       		.uleb128 0x1f
 3403 10a5 70040000 		.4byte	.LVL104
 3404 10a9 19140000 		.4byte	0x1419
 3405 10ad B7100000 		.4byte	0x10b7
 3406 10b1 20       		.uleb128 0x20
 3407 10b2 01       		.uleb128 0x1
 3408 10b3 50       		.byte	0x50
 3409 10b4 01       		.uleb128 0x1
 3410 10b5 4F       		.byte	0x4f
 3411 10b6 00       		.byte	0
ARM GAS  /tmp/ccrgxcxk.s 			page 61


 3412 10b7 21       		.uleb128 0x21
 3413 10b8 76040000 		.4byte	.LVL106
 3414 10bc 98140000 		.4byte	0x1498
 3415 10c0 21       		.uleb128 0x21
 3416 10c1 8C040000 		.4byte	.LVL108
 3417 10c5 98140000 		.4byte	0x1498
 3418 10c9 1F       		.uleb128 0x1f
 3419 10ca A2040000 		.4byte	.LVL110
 3420 10ce 19140000 		.4byte	0x1419
 3421 10d2 E5100000 		.4byte	0x10e5
 3422 10d6 20       		.uleb128 0x20
 3423 10d7 01       		.uleb128 0x1
 3424 10d8 51       		.byte	0x51
 3425 10d9 04       		.uleb128 0x4
 3426 10da 75       		.byte	0x75
 3427 10db 00       		.sleb128 0
 3428 10dc 30       		.byte	0x30
 3429 10dd 29       		.byte	0x29
 3430 10de 20       		.uleb128 0x20
 3431 10df 01       		.uleb128 0x1
 3432 10e0 50       		.byte	0x50
 3433 10e1 02       		.uleb128 0x2
 3434 10e2 08       		.byte	0x8
 3435 10e3 20       		.byte	0x20
 3436 10e4 00       		.byte	0
 3437 10e5 21       		.uleb128 0x21
 3438 10e6 B2040000 		.4byte	.LVL111
 3439 10ea 77140000 		.4byte	0x1477
 3440 10ee 1F       		.uleb128 0x1f
 3441 10ef BA040000 		.4byte	.LVL112
 3442 10f3 9F140000 		.4byte	0x149f
 3443 10f7 08110000 		.4byte	0x1108
 3444 10fb 20       		.uleb128 0x20
 3445 10fc 01       		.uleb128 0x1
 3446 10fd 51       		.byte	0x51
 3447 10fe 02       		.uleb128 0x2
 3448 10ff 08       		.byte	0x8
 3449 1100 45       		.byte	0x45
 3450 1101 20       		.uleb128 0x20
 3451 1102 01       		.uleb128 0x1
 3452 1103 50       		.byte	0x50
 3453 1104 02       		.uleb128 0x2
 3454 1105 74       		.byte	0x74
 3455 1106 00       		.sleb128 0
 3456 1107 00       		.byte	0
 3457 1108 1F       		.uleb128 0x1f
 3458 1109 C8040000 		.4byte	.LVL114
 3459 110d 19140000 		.4byte	0x1419
 3460 1111 1C110000 		.4byte	0x111c
 3461 1115 20       		.uleb128 0x20
 3462 1116 01       		.uleb128 0x1
 3463 1117 50       		.byte	0x50
 3464 1118 02       		.uleb128 0x2
 3465 1119 08       		.byte	0x8
 3466 111a 21       		.byte	0x21
 3467 111b 00       		.byte	0
 3468 111c 1F       		.uleb128 0x1f
ARM GAS  /tmp/ccrgxcxk.s 			page 62


 3469 111d D6040000 		.4byte	.LVL115
 3470 1121 9F140000 		.4byte	0x149f
 3471 1125 36110000 		.4byte	0x1136
 3472 1129 20       		.uleb128 0x20
 3473 112a 01       		.uleb128 0x1
 3474 112b 51       		.byte	0x51
 3475 112c 02       		.uleb128 0x2
 3476 112d 08       		.byte	0x8
 3477 112e 44       		.byte	0x44
 3478 112f 20       		.uleb128 0x20
 3479 1130 01       		.uleb128 0x1
 3480 1131 50       		.byte	0x50
 3481 1132 02       		.uleb128 0x2
 3482 1133 74       		.byte	0x74
 3483 1134 00       		.sleb128 0
 3484 1135 00       		.byte	0
 3485 1136 1F       		.uleb128 0x1f
 3486 1137 E4040000 		.4byte	.LVL117
 3487 113b 19140000 		.4byte	0x1419
 3488 113f 4A110000 		.4byte	0x114a
 3489 1143 20       		.uleb128 0x20
 3490 1144 01       		.uleb128 0x1
 3491 1145 50       		.byte	0x50
 3492 1146 02       		.uleb128 0x2
 3493 1147 08       		.byte	0x8
 3494 1148 22       		.byte	0x22
 3495 1149 00       		.byte	0
 3496 114a 1F       		.uleb128 0x1f
 3497 114b F2040000 		.4byte	.LVL118
 3498 114f 9F140000 		.4byte	0x149f
 3499 1153 64110000 		.4byte	0x1164
 3500 1157 20       		.uleb128 0x20
 3501 1158 01       		.uleb128 0x1
 3502 1159 51       		.byte	0x51
 3503 115a 02       		.uleb128 0x2
 3504 115b 08       		.byte	0x8
 3505 115c 43       		.byte	0x43
 3506 115d 20       		.uleb128 0x20
 3507 115e 01       		.uleb128 0x1
 3508 115f 50       		.byte	0x50
 3509 1160 02       		.uleb128 0x2
 3510 1161 74       		.byte	0x74
 3511 1162 00       		.sleb128 0
 3512 1163 00       		.byte	0
 3513 1164 1F       		.uleb128 0x1f
 3514 1165 00050000 		.4byte	.LVL120
 3515 1169 19140000 		.4byte	0x1419
 3516 116d 78110000 		.4byte	0x1178
 3517 1171 20       		.uleb128 0x20
 3518 1172 01       		.uleb128 0x1
 3519 1173 50       		.byte	0x50
 3520 1174 02       		.uleb128 0x2
 3521 1175 08       		.byte	0x8
 3522 1176 23       		.byte	0x23
 3523 1177 00       		.byte	0
 3524 1178 1F       		.uleb128 0x1f
 3525 1179 0E050000 		.4byte	.LVL121
ARM GAS  /tmp/ccrgxcxk.s 			page 63


 3526 117d 9F140000 		.4byte	0x149f
 3527 1181 92110000 		.4byte	0x1192
 3528 1185 20       		.uleb128 0x20
 3529 1186 01       		.uleb128 0x1
 3530 1187 51       		.byte	0x51
 3531 1188 02       		.uleb128 0x2
 3532 1189 08       		.byte	0x8
 3533 118a 42       		.byte	0x42
 3534 118b 20       		.uleb128 0x20
 3535 118c 01       		.uleb128 0x1
 3536 118d 50       		.byte	0x50
 3537 118e 02       		.uleb128 0x2
 3538 118f 74       		.byte	0x74
 3539 1190 00       		.sleb128 0
 3540 1191 00       		.byte	0
 3541 1192 1F       		.uleb128 0x1f
 3542 1193 1C050000 		.4byte	.LVL123
 3543 1197 19140000 		.4byte	0x1419
 3544 119b A6110000 		.4byte	0x11a6
 3545 119f 20       		.uleb128 0x20
 3546 11a0 01       		.uleb128 0x1
 3547 11a1 50       		.byte	0x50
 3548 11a2 02       		.uleb128 0x2
 3549 11a3 08       		.byte	0x8
 3550 11a4 24       		.byte	0x24
 3551 11a5 00       		.byte	0
 3552 11a6 1F       		.uleb128 0x1f
 3553 11a7 2C050000 		.4byte	.LVL124
 3554 11ab 9F140000 		.4byte	0x149f
 3555 11af C0110000 		.4byte	0x11c0
 3556 11b3 20       		.uleb128 0x20
 3557 11b4 01       		.uleb128 0x1
 3558 11b5 51       		.byte	0x51
 3559 11b6 02       		.uleb128 0x2
 3560 11b7 08       		.byte	0x8
 3561 11b8 41       		.byte	0x41
 3562 11b9 20       		.uleb128 0x20
 3563 11ba 01       		.uleb128 0x1
 3564 11bb 50       		.byte	0x50
 3565 11bc 02       		.uleb128 0x2
 3566 11bd 74       		.byte	0x74
 3567 11be 00       		.sleb128 0
 3568 11bf 00       		.byte	0
 3569 11c0 21       		.uleb128 0x21
 3570 11c1 32050000 		.4byte	.LVL126
 3571 11c5 98140000 		.4byte	0x1498
 3572 11c9 1F       		.uleb128 0x1f
 3573 11ca 44050000 		.4byte	.LVL127
 3574 11ce 19140000 		.4byte	0x1419
 3575 11d2 E5110000 		.4byte	0x11e5
 3576 11d6 20       		.uleb128 0x20
 3577 11d7 01       		.uleb128 0x1
 3578 11d8 51       		.byte	0x51
 3579 11d9 04       		.uleb128 0x4
 3580 11da 75       		.byte	0x75
 3581 11db 00       		.sleb128 0
 3582 11dc 30       		.byte	0x30
ARM GAS  /tmp/ccrgxcxk.s 			page 64


 3583 11dd 29       		.byte	0x29
 3584 11de 20       		.uleb128 0x20
 3585 11df 01       		.uleb128 0x1
 3586 11e0 50       		.byte	0x50
 3587 11e1 02       		.uleb128 0x2
 3588 11e2 08       		.byte	0x8
 3589 11e3 25       		.byte	0x25
 3590 11e4 00       		.byte	0
 3591 11e5 1F       		.uleb128 0x1f
 3592 11e6 5A050000 		.4byte	.LVL128
 3593 11ea 19140000 		.4byte	0x1419
 3594 11ee F9110000 		.4byte	0x11f9
 3595 11f2 20       		.uleb128 0x20
 3596 11f3 01       		.uleb128 0x1
 3597 11f4 50       		.byte	0x50
 3598 11f5 02       		.uleb128 0x2
 3599 11f6 08       		.byte	0x8
 3600 11f7 26       		.byte	0x26
 3601 11f8 00       		.byte	0
 3602 11f9 21       		.uleb128 0x21
 3603 11fa 6E050000 		.4byte	.LVL130
 3604 11fe 77140000 		.4byte	0x1477
 3605 1202 1F       		.uleb128 0x1f
 3606 1203 76050000 		.4byte	.LVL131
 3607 1207 09150000 		.4byte	0x1509
 3608 120b 1C120000 		.4byte	0x121c
 3609 120f 20       		.uleb128 0x20
 3610 1210 01       		.uleb128 0x1
 3611 1211 51       		.byte	0x51
 3612 1212 02       		.uleb128 0x2
 3613 1213 91       		.byte	0x91
 3614 1214 64       		.sleb128 -28
 3615 1215 20       		.uleb128 0x20
 3616 1216 01       		.uleb128 0x1
 3617 1217 50       		.byte	0x50
 3618 1218 02       		.uleb128 0x2
 3619 1219 75       		.byte	0x75
 3620 121a 00       		.sleb128 0
 3621 121b 00       		.byte	0
 3622 121c 21       		.uleb128 0x21
 3623 121d 7C050000 		.4byte	.LVL133
 3624 1221 98140000 		.4byte	0x1498
 3625 1225 1F       		.uleb128 0x1f
 3626 1226 94050000 		.4byte	.LVL134
 3627 122a 19140000 		.4byte	0x1419
 3628 122e 41120000 		.4byte	0x1241
 3629 1232 20       		.uleb128 0x20
 3630 1233 01       		.uleb128 0x1
 3631 1234 51       		.byte	0x51
 3632 1235 04       		.uleb128 0x4
 3633 1236 76       		.byte	0x76
 3634 1237 00       		.sleb128 0
 3635 1238 30       		.byte	0x30
 3636 1239 29       		.byte	0x29
 3637 123a 20       		.uleb128 0x20
 3638 123b 01       		.uleb128 0x1
 3639 123c 50       		.byte	0x50
ARM GAS  /tmp/ccrgxcxk.s 			page 65


 3640 123d 02       		.uleb128 0x2
 3641 123e 08       		.byte	0x8
 3642 123f 27       		.byte	0x27
 3643 1240 00       		.byte	0
 3644 1241 21       		.uleb128 0x21
 3645 1242 A2050000 		.4byte	.LVL135
 3646 1246 D8140000 		.4byte	0x14d8
 3647 124a 1F       		.uleb128 0x1f
 3648 124b AE050000 		.4byte	.LVL137
 3649 124f E9140000 		.4byte	0x14e9
 3650 1253 67120000 		.4byte	0x1267
 3651 1257 20       		.uleb128 0x20
 3652 1258 01       		.uleb128 0x1
 3653 1259 51       		.byte	0x51
 3654 125a 05       		.uleb128 0x5
 3655 125b 03       		.byte	0x3
 3656 125c 00000000 		.4byte	.LC0
 3657 1260 20       		.uleb128 0x20
 3658 1261 01       		.uleb128 0x1
 3659 1262 50       		.byte	0x50
 3660 1263 02       		.uleb128 0x2
 3661 1264 08       		.byte	0x8
 3662 1265 28       		.byte	0x28
 3663 1266 00       		.byte	0
 3664 1267 21       		.uleb128 0x21
 3665 1268 BE050000 		.4byte	.LVL138
 3666 126c 77140000 		.4byte	0x1477
 3667 1270 1F       		.uleb128 0x1f
 3668 1271 D2050000 		.4byte	.LVL139
 3669 1275 19140000 		.4byte	0x1419
 3670 1279 84120000 		.4byte	0x1284
 3671 127d 20       		.uleb128 0x20
 3672 127e 01       		.uleb128 0x1
 3673 127f 50       		.byte	0x50
 3674 1280 02       		.uleb128 0x2
 3675 1281 08       		.byte	0x8
 3676 1282 29       		.byte	0x29
 3677 1283 00       		.byte	0
 3678 1284 21       		.uleb128 0x21
 3679 1285 DA050000 		.4byte	.LVL140
 3680 1289 98140000 		.4byte	0x1498
 3681 128d 21       		.uleb128 0x21
 3682 128e EA050000 		.4byte	.LVL141
 3683 1292 77140000 		.4byte	0x1477
 3684 1296 1F       		.uleb128 0x1f
 3685 1297 FA050000 		.4byte	.LVL142
 3686 129b 19140000 		.4byte	0x1419
 3687 129f AA120000 		.4byte	0x12aa
 3688 12a3 20       		.uleb128 0x20
 3689 12a4 01       		.uleb128 0x1
 3690 12a5 50       		.byte	0x50
 3691 12a6 02       		.uleb128 0x2
 3692 12a7 08       		.byte	0x8
 3693 12a8 2A       		.byte	0x2a
 3694 12a9 00       		.byte	0
 3695 12aa 21       		.uleb128 0x21
 3696 12ab 02060000 		.4byte	.LVL143
ARM GAS  /tmp/ccrgxcxk.s 			page 66


 3697 12af 98140000 		.4byte	0x1498
 3698 12b3 1F       		.uleb128 0x1f
 3699 12b4 18060000 		.4byte	.LVL144
 3700 12b8 19140000 		.4byte	0x1419
 3701 12bc CF120000 		.4byte	0x12cf
 3702 12c0 20       		.uleb128 0x20
 3703 12c1 01       		.uleb128 0x1
 3704 12c2 51       		.byte	0x51
 3705 12c3 04       		.uleb128 0x4
 3706 12c4 77       		.byte	0x77
 3707 12c5 00       		.sleb128 0
 3708 12c6 30       		.byte	0x30
 3709 12c7 29       		.byte	0x29
 3710 12c8 20       		.uleb128 0x20
 3711 12c9 01       		.uleb128 0x1
 3712 12ca 50       		.byte	0x50
 3713 12cb 02       		.uleb128 0x2
 3714 12cc 08       		.byte	0x8
 3715 12cd 2B       		.byte	0x2b
 3716 12ce 00       		.byte	0
 3717 12cf 1F       		.uleb128 0x1f
 3718 12d0 24060000 		.4byte	.LVL145
 3719 12d4 23150000 		.4byte	0x1523
 3720 12d8 E3120000 		.4byte	0x12e3
 3721 12dc 20       		.uleb128 0x20
 3722 12dd 01       		.uleb128 0x1
 3723 12de 50       		.byte	0x50
 3724 12df 02       		.uleb128 0x2
 3725 12e0 75       		.byte	0x75
 3726 12e1 00       		.sleb128 0
 3727 12e2 00       		.byte	0
 3728 12e3 21       		.uleb128 0x21
 3729 12e4 2E060000 		.4byte	.LVL146
 3730 12e8 77140000 		.4byte	0x1477
 3731 12ec 1F       		.uleb128 0x1f
 3732 12ed 3C060000 		.4byte	.LVL148
 3733 12f1 19140000 		.4byte	0x1419
 3734 12f5 08130000 		.4byte	0x1308
 3735 12f9 20       		.uleb128 0x20
 3736 12fa 01       		.uleb128 0x1
 3737 12fb 51       		.byte	0x51
 3738 12fc 04       		.uleb128 0x4
 3739 12fd 76       		.byte	0x76
 3740 12fe 00       		.sleb128 0
 3741 12ff 30       		.byte	0x30
 3742 1300 29       		.byte	0x29
 3743 1301 20       		.uleb128 0x20
 3744 1302 01       		.uleb128 0x1
 3745 1303 50       		.byte	0x50
 3746 1304 02       		.uleb128 0x2
 3747 1305 08       		.byte	0x8
 3748 1306 2C       		.byte	0x2c
 3749 1307 00       		.byte	0
 3750 1308 21       		.uleb128 0x21
 3751 1309 44060000 		.4byte	.LVL149
 3752 130d 98140000 		.4byte	0x1498
 3753 1311 21       		.uleb128 0x21
ARM GAS  /tmp/ccrgxcxk.s 			page 67


 3754 1312 54060000 		.4byte	.LVL150
 3755 1316 77140000 		.4byte	0x1477
 3756 131a 1F       		.uleb128 0x1f
 3757 131b 64060000 		.4byte	.LVL151
 3758 131f 19140000 		.4byte	0x1419
 3759 1323 2E130000 		.4byte	0x132e
 3760 1327 20       		.uleb128 0x20
 3761 1328 01       		.uleb128 0x1
 3762 1329 50       		.byte	0x50
 3763 132a 02       		.uleb128 0x2
 3764 132b 08       		.byte	0x8
 3765 132c 2D       		.byte	0x2d
 3766 132d 00       		.byte	0
 3767 132e 21       		.uleb128 0x21
 3768 132f 6A060000 		.4byte	.LVL152
 3769 1333 98140000 		.4byte	0x1498
 3770 1337 21       		.uleb128 0x21
 3771 1338 7A060000 		.4byte	.LVL153
 3772 133c 77140000 		.4byte	0x1477
 3773 1340 1F       		.uleb128 0x1f
 3774 1341 8A060000 		.4byte	.LVL154
 3775 1345 19140000 		.4byte	0x1419
 3776 1349 54130000 		.4byte	0x1354
 3777 134d 20       		.uleb128 0x20
 3778 134e 01       		.uleb128 0x1
 3779 134f 50       		.byte	0x50
 3780 1350 02       		.uleb128 0x2
 3781 1351 08       		.byte	0x8
 3782 1352 2E       		.byte	0x2e
 3783 1353 00       		.byte	0
 3784 1354 21       		.uleb128 0x21
 3785 1355 90060000 		.4byte	.LVL155
 3786 1359 98140000 		.4byte	0x1498
 3787 135d 21       		.uleb128 0x21
 3788 135e A0060000 		.4byte	.LVL156
 3789 1362 77140000 		.4byte	0x1477
 3790 1366 1F       		.uleb128 0x1f
 3791 1367 B2060000 		.4byte	.LVL157
 3792 136b 19140000 		.4byte	0x1419
 3793 136f 7A130000 		.4byte	0x137a
 3794 1373 20       		.uleb128 0x20
 3795 1374 01       		.uleb128 0x1
 3796 1375 50       		.byte	0x50
 3797 1376 02       		.uleb128 0x2
 3798 1377 08       		.byte	0x8
 3799 1378 2F       		.byte	0x2f
 3800 1379 00       		.byte	0
 3801 137a 21       		.uleb128 0x21
 3802 137b B6060000 		.4byte	.LVL158
 3803 137f 98140000 		.4byte	0x1498
 3804 1383 21       		.uleb128 0x21
 3805 1384 C2060000 		.4byte	.LVL159
 3806 1388 98140000 		.4byte	0x1498
 3807 138c 00       		.byte	0
 3808 138d 19       		.uleb128 0x19
 3809 138e AA010000 		.4byte	.LASF84
 3810 1392 01       		.byte	0x1
ARM GAS  /tmp/ccrgxcxk.s 			page 68


 3811 1393 47       		.byte	0x47
 3812 1394 00000000 		.4byte	.LFB7
 3813 1398 14000000 		.4byte	.LFE7-.LFB7
 3814 139c 01       		.uleb128 0x1
 3815 139d 9C       		.byte	0x9c
 3816 139e BB130000 		.4byte	0x13bb
 3817 13a2 22       		.uleb128 0x22
 3818 13a3 0A000000 		.4byte	.LVL160
 3819 13a7 34150000 		.4byte	0x1534
 3820 13ab 20       		.uleb128 0x20
 3821 13ac 01       		.uleb128 0x1
 3822 13ad 52       		.byte	0x52
 3823 13ae 01       		.uleb128 0x1
 3824 13af 35       		.byte	0x35
 3825 13b0 20       		.uleb128 0x20
 3826 13b1 01       		.uleb128 0x1
 3827 13b2 50       		.byte	0x50
 3828 13b3 05       		.uleb128 0x5
 3829 13b4 03       		.byte	0x3
 3830 13b5 00000000 		.4byte	.LANCHOR0
 3831 13b9 00       		.byte	0
 3832 13ba 00       		.byte	0
 3833 13bb 1E       		.uleb128 0x1e
 3834 13bc 6D623100 		.ascii	"mb1\000"
 3835 13c0 01       		.byte	0x1
 3836 13c1 3C       		.byte	0x3c
 3837 13c2 F8040000 		.4byte	0x4f8
 3838 13c6 05       		.uleb128 0x5
 3839 13c7 03       		.byte	0x3
 3840 13c8 00000000 		.4byte	mb1
 3841 13cc 23       		.uleb128 0x23
 3842 13cd 64000000 		.4byte	.LASF85
 3843 13d1 0B       		.byte	0xb
 3844 13d2 A6       		.byte	0xa6
 3845 13d3 EF050000 		.4byte	0x5ef
 3846 13d7 24       		.uleb128 0x24
 3847 13d8 D4010000 		.4byte	.LASF86
 3848 13dc 01       		.byte	0x1
 3849 13dd DE       		.byte	0xde
 3850 13de E8130000 		.4byte	0x13e8
 3851 13e2 05       		.uleb128 0x5
 3852 13e3 03       		.byte	0x3
 3853 13e4 00000000 		.4byte	testmbox1
 3854 13e8 10       		.uleb128 0x10
 3855 13e9 56050000 		.4byte	0x556
 3856 13ed 14       		.uleb128 0x14
 3857 13ee FD130000 		.4byte	0x13fd
 3858 13f2 FD130000 		.4byte	0x13fd
 3859 13f6 15       		.uleb128 0x15
 3860 13f7 23040000 		.4byte	0x423
 3861 13fb 01       		.byte	0x1
 3862 13fc 00       		.byte	0
 3863 13fd 09       		.uleb128 0x9
 3864 13fe 04       		.byte	0x4
 3865 13ff E8130000 		.4byte	0x13e8
 3866 1403 24       		.uleb128 0x24
 3867 1404 58000000 		.4byte	.LASF87
ARM GAS  /tmp/ccrgxcxk.s 			page 69


 3868 1408 01       		.byte	0x1
 3869 1409 EA       		.byte	0xea
 3870 140a 14140000 		.4byte	0x1414
 3871 140e 05       		.uleb128 0x5
 3872 140f 03       		.byte	0x3
 3873 1410 00000000 		.4byte	patternmbox
 3874 1414 10       		.uleb128 0x10
 3875 1415 ED130000 		.4byte	0x13ed
 3876 1419 25       		.uleb128 0x25
 3877 141a 28050000 		.4byte	.LASF88
 3878 141e 0B       		.byte	0xb
 3879 141f 58       		.byte	0x58
 3880 1420 C3000000 		.4byte	0xc3
 3881 1424 33140000 		.4byte	0x1433
 3882 1428 26       		.uleb128 0x26
 3883 1429 2C000000 		.4byte	0x2c
 3884 142d 26       		.uleb128 0x26
 3885 142e C3000000 		.4byte	0xc3
 3886 1432 00       		.byte	0
 3887 1433 25       		.uleb128 0x25
 3888 1434 C4000000 		.4byte	.LASF89
 3889 1438 0A       		.byte	0xa
 3890 1439 45       		.byte	0x45
 3891 143a 0C010000 		.4byte	0x10c
 3892 143e 52140000 		.4byte	0x1452
 3893 1442 26       		.uleb128 0x26
 3894 1443 52140000 		.4byte	0x1452
 3895 1447 26       		.uleb128 0x26
 3896 1448 0C010000 		.4byte	0x10c
 3897 144c 26       		.uleb128 0x26
 3898 144d 22010000 		.4byte	0x122
 3899 1451 00       		.byte	0
 3900 1452 09       		.uleb128 0x9
 3901 1453 04       		.byte	0x4
 3902 1454 F8040000 		.4byte	0x4f8
 3903 1458 25       		.uleb128 0x25
 3904 1459 7C040000 		.4byte	.LASF90
 3905 145d 0A       		.byte	0xa
 3906 145e 48       		.byte	0x48
 3907 145f 0C010000 		.4byte	0x10c
 3908 1463 77140000 		.4byte	0x1477
 3909 1467 26       		.uleb128 0x26
 3910 1468 52140000 		.4byte	0x1452
 3911 146c 26       		.uleb128 0x26
 3912 146d 0C010000 		.4byte	0x10c
 3913 1471 26       		.uleb128 0x26
 3914 1472 22010000 		.4byte	0x122
 3915 1476 00       		.byte	0
 3916 1477 27       		.uleb128 0x27
 3917 1478 4E020000 		.4byte	.LASF92
 3918 147c 0C       		.byte	0xc
 3919 147d E7       		.byte	0xe7
 3920 147e 25       		.uleb128 0x25
 3921 147f 20000000 		.4byte	.LASF91
 3922 1483 0A       		.byte	0xa
 3923 1484 47       		.byte	0x47
 3924 1485 0C010000 		.4byte	0x10c
ARM GAS  /tmp/ccrgxcxk.s 			page 70


 3925 1489 98140000 		.4byte	0x1498
 3926 148d 26       		.uleb128 0x26
 3927 148e 52140000 		.4byte	0x1452
 3928 1492 26       		.uleb128 0x26
 3929 1493 0C010000 		.4byte	0x10c
 3930 1497 00       		.byte	0
 3931 1498 27       		.uleb128 0x27
 3932 1499 5D020000 		.4byte	.LASF93
 3933 149d 0C       		.byte	0xc
 3934 149e E8       		.byte	0xe8
 3935 149f 25       		.uleb128 0x25
 3936 14a0 32000000 		.4byte	.LASF94
 3937 14a4 0A       		.byte	0xa
 3938 14a5 4A       		.byte	0x4a
 3939 14a6 0C010000 		.4byte	0x10c
 3940 14aa B9140000 		.4byte	0x14b9
 3941 14ae 26       		.uleb128 0x26
 3942 14af 52140000 		.4byte	0x1452
 3943 14b3 26       		.uleb128 0x26
 3944 14b4 0C010000 		.4byte	0x10c
 3945 14b8 00       		.byte	0
 3946 14b9 25       		.uleb128 0x25
 3947 14ba DF040000 		.4byte	.LASF95
 3948 14be 0A       		.byte	0xa
 3949 14bf 4B       		.byte	0x4b
 3950 14c0 0C010000 		.4byte	0x10c
 3951 14c4 D8140000 		.4byte	0x14d8
 3952 14c8 26       		.uleb128 0x26
 3953 14c9 52140000 		.4byte	0x1452
 3954 14cd 26       		.uleb128 0x26
 3955 14ce F2040000 		.4byte	0x4f2
 3956 14d2 26       		.uleb128 0x26
 3957 14d3 22010000 		.4byte	0x122
 3958 14d7 00       		.byte	0
 3959 14d8 28       		.uleb128 0x28
 3960 14d9 AA000000 		.4byte	.LASF98
 3961 14dd 0B       		.byte	0xb
 3962 14de 56       		.byte	0x56
 3963 14df E9140000 		.4byte	0x14e9
 3964 14e3 26       		.uleb128 0x26
 3965 14e4 43050000 		.4byte	0x543
 3966 14e8 00       		.byte	0
 3967 14e9 25       		.uleb128 0x25
 3968 14ea 20020000 		.4byte	.LASF96
 3969 14ee 0B       		.byte	0xb
 3970 14ef 59       		.byte	0x59
 3971 14f0 C3000000 		.4byte	0xc3
 3972 14f4 03150000 		.4byte	0x1503
 3973 14f8 26       		.uleb128 0x26
 3974 14f9 2C000000 		.4byte	0x2c
 3975 14fd 26       		.uleb128 0x26
 3976 14fe 03150000 		.4byte	0x1503
 3977 1502 00       		.byte	0
 3978 1503 09       		.uleb128 0x9
 3979 1504 04       		.byte	0x4
 3980 1505 43050000 		.4byte	0x543
 3981 1509 25       		.uleb128 0x25
ARM GAS  /tmp/ccrgxcxk.s 			page 71


 3982 150a 91010000 		.4byte	.LASF97
 3983 150e 0A       		.byte	0xa
 3984 150f 4D       		.byte	0x4d
 3985 1510 0C010000 		.4byte	0x10c
 3986 1514 23150000 		.4byte	0x1523
 3987 1518 26       		.uleb128 0x26
 3988 1519 52140000 		.4byte	0x1452
 3989 151d 26       		.uleb128 0x26
 3990 151e F2040000 		.4byte	0x4f2
 3991 1522 00       		.byte	0
 3992 1523 28       		.uleb128 0x28
 3993 1524 FB010000 		.4byte	.LASF99
 3994 1528 0A       		.byte	0xa
 3995 1529 44       		.byte	0x44
 3996 152a 34150000 		.4byte	0x1534
 3997 152e 26       		.uleb128 0x26
 3998 152f 52140000 		.4byte	0x1452
 3999 1533 00       		.byte	0
 4000 1534 29       		.uleb128 0x29
 4001 1535 31010000 		.4byte	.LASF104
 4002 1539 0A       		.byte	0xa
 4003 153a 43       		.byte	0x43
 4004 153b 26       		.uleb128 0x26
 4005 153c 52140000 		.4byte	0x1452
 4006 1540 26       		.uleb128 0x26
 4007 1541 F2040000 		.4byte	0x4f2
 4008 1545 26       		.uleb128 0x26
 4009 1546 2D010000 		.4byte	0x12d
 4010 154a 00       		.byte	0
 4011 154b 00       		.byte	0
 4012              		.section	.debug_abbrev,"",%progbits
 4013              	.Ldebug_abbrev0:
 4014 0000 01       		.uleb128 0x1
 4015 0001 11       		.uleb128 0x11
 4016 0002 01       		.byte	0x1
 4017 0003 25       		.uleb128 0x25
 4018 0004 0E       		.uleb128 0xe
 4019 0005 13       		.uleb128 0x13
 4020 0006 0B       		.uleb128 0xb
 4021 0007 03       		.uleb128 0x3
 4022 0008 0E       		.uleb128 0xe
 4023 0009 1B       		.uleb128 0x1b
 4024 000a 0E       		.uleb128 0xe
 4025 000b 55       		.uleb128 0x55
 4026 000c 17       		.uleb128 0x17
 4027 000d 11       		.uleb128 0x11
 4028 000e 01       		.uleb128 0x1
 4029 000f 10       		.uleb128 0x10
 4030 0010 17       		.uleb128 0x17
 4031 0011 00       		.byte	0
 4032 0012 00       		.byte	0
 4033 0013 02       		.uleb128 0x2
 4034 0014 24       		.uleb128 0x24
 4035 0015 00       		.byte	0
 4036 0016 0B       		.uleb128 0xb
 4037 0017 0B       		.uleb128 0xb
 4038 0018 3E       		.uleb128 0x3e
ARM GAS  /tmp/ccrgxcxk.s 			page 72


 4039 0019 0B       		.uleb128 0xb
 4040 001a 03       		.uleb128 0x3
 4041 001b 08       		.uleb128 0x8
 4042 001c 00       		.byte	0
 4043 001d 00       		.byte	0
 4044 001e 03       		.uleb128 0x3
 4045 001f 24       		.uleb128 0x24
 4046 0020 00       		.byte	0
 4047 0021 0B       		.uleb128 0xb
 4048 0022 0B       		.uleb128 0xb
 4049 0023 3E       		.uleb128 0x3e
 4050 0024 0B       		.uleb128 0xb
 4051 0025 03       		.uleb128 0x3
 4052 0026 0E       		.uleb128 0xe
 4053 0027 00       		.byte	0
 4054 0028 00       		.byte	0
 4055 0029 04       		.uleb128 0x4
 4056 002a 16       		.uleb128 0x16
 4057 002b 00       		.byte	0
 4058 002c 03       		.uleb128 0x3
 4059 002d 0E       		.uleb128 0xe
 4060 002e 3A       		.uleb128 0x3a
 4061 002f 0B       		.uleb128 0xb
 4062 0030 3B       		.uleb128 0x3b
 4063 0031 0B       		.uleb128 0xb
 4064 0032 49       		.uleb128 0x49
 4065 0033 13       		.uleb128 0x13
 4066 0034 00       		.byte	0
 4067 0035 00       		.byte	0
 4068 0036 05       		.uleb128 0x5
 4069 0037 13       		.uleb128 0x13
 4070 0038 01       		.byte	0x1
 4071 0039 03       		.uleb128 0x3
 4072 003a 0E       		.uleb128 0xe
 4073 003b 0B       		.uleb128 0xb
 4074 003c 0B       		.uleb128 0xb
 4075 003d 3A       		.uleb128 0x3a
 4076 003e 0B       		.uleb128 0xb
 4077 003f 3B       		.uleb128 0x3b
 4078 0040 0B       		.uleb128 0xb
 4079 0041 01       		.uleb128 0x1
 4080 0042 13       		.uleb128 0x13
 4081 0043 00       		.byte	0
 4082 0044 00       		.byte	0
 4083 0045 06       		.uleb128 0x6
 4084 0046 0D       		.uleb128 0xd
 4085 0047 00       		.byte	0
 4086 0048 03       		.uleb128 0x3
 4087 0049 0E       		.uleb128 0xe
 4088 004a 3A       		.uleb128 0x3a
 4089 004b 0B       		.uleb128 0xb
 4090 004c 3B       		.uleb128 0x3b
 4091 004d 0B       		.uleb128 0xb
 4092 004e 49       		.uleb128 0x49
 4093 004f 13       		.uleb128 0x13
 4094 0050 38       		.uleb128 0x38
 4095 0051 0B       		.uleb128 0xb
ARM GAS  /tmp/ccrgxcxk.s 			page 73


 4096 0052 00       		.byte	0
 4097 0053 00       		.byte	0
 4098 0054 07       		.uleb128 0x7
 4099 0055 0D       		.uleb128 0xd
 4100 0056 00       		.byte	0
 4101 0057 03       		.uleb128 0x3
 4102 0058 08       		.uleb128 0x8
 4103 0059 3A       		.uleb128 0x3a
 4104 005a 0B       		.uleb128 0xb
 4105 005b 3B       		.uleb128 0x3b
 4106 005c 0B       		.uleb128 0xb
 4107 005d 49       		.uleb128 0x49
 4108 005e 13       		.uleb128 0x13
 4109 005f 38       		.uleb128 0x38
 4110 0060 0B       		.uleb128 0xb
 4111 0061 00       		.byte	0
 4112 0062 00       		.byte	0
 4113 0063 08       		.uleb128 0x8
 4114 0064 13       		.uleb128 0x13
 4115 0065 01       		.byte	0x1
 4116 0066 0B       		.uleb128 0xb
 4117 0067 0B       		.uleb128 0xb
 4118 0068 3A       		.uleb128 0x3a
 4119 0069 0B       		.uleb128 0xb
 4120 006a 3B       		.uleb128 0x3b
 4121 006b 0B       		.uleb128 0xb
 4122 006c 01       		.uleb128 0x1
 4123 006d 13       		.uleb128 0x13
 4124 006e 00       		.byte	0
 4125 006f 00       		.byte	0
 4126 0070 09       		.uleb128 0x9
 4127 0071 0F       		.uleb128 0xf
 4128 0072 00       		.byte	0
 4129 0073 0B       		.uleb128 0xb
 4130 0074 0B       		.uleb128 0xb
 4131 0075 49       		.uleb128 0x49
 4132 0076 13       		.uleb128 0x13
 4133 0077 00       		.byte	0
 4134 0078 00       		.byte	0
 4135 0079 0A       		.uleb128 0xa
 4136 007a 0F       		.uleb128 0xf
 4137 007b 00       		.byte	0
 4138 007c 0B       		.uleb128 0xb
 4139 007d 0B       		.uleb128 0xb
 4140 007e 00       		.byte	0
 4141 007f 00       		.byte	0
 4142 0080 0B       		.uleb128 0xb
 4143 0081 13       		.uleb128 0x13
 4144 0082 01       		.byte	0x1
 4145 0083 03       		.uleb128 0x3
 4146 0084 0E       		.uleb128 0xe
 4147 0085 0B       		.uleb128 0xb
 4148 0086 0B       		.uleb128 0xb
 4149 0087 3A       		.uleb128 0x3a
 4150 0088 0B       		.uleb128 0xb
 4151 0089 3B       		.uleb128 0x3b
 4152 008a 05       		.uleb128 0x5
ARM GAS  /tmp/ccrgxcxk.s 			page 74


 4153 008b 01       		.uleb128 0x1
 4154 008c 13       		.uleb128 0x13
 4155 008d 00       		.byte	0
 4156 008e 00       		.byte	0
 4157 008f 0C       		.uleb128 0xc
 4158 0090 0D       		.uleb128 0xd
 4159 0091 00       		.byte	0
 4160 0092 03       		.uleb128 0x3
 4161 0093 08       		.uleb128 0x8
 4162 0094 3A       		.uleb128 0x3a
 4163 0095 0B       		.uleb128 0xb
 4164 0096 3B       		.uleb128 0x3b
 4165 0097 05       		.uleb128 0x5
 4166 0098 49       		.uleb128 0x49
 4167 0099 13       		.uleb128 0x13
 4168 009a 38       		.uleb128 0x38
 4169 009b 0B       		.uleb128 0xb
 4170 009c 00       		.byte	0
 4171 009d 00       		.byte	0
 4172 009e 0D       		.uleb128 0xd
 4173 009f 35       		.uleb128 0x35
 4174 00a0 00       		.byte	0
 4175 00a1 49       		.uleb128 0x49
 4176 00a2 13       		.uleb128 0x13
 4177 00a3 00       		.byte	0
 4178 00a4 00       		.byte	0
 4179 00a5 0E       		.uleb128 0xe
 4180 00a6 17       		.uleb128 0x17
 4181 00a7 01       		.byte	0x1
 4182 00a8 0B       		.uleb128 0xb
 4183 00a9 0B       		.uleb128 0xb
 4184 00aa 3A       		.uleb128 0x3a
 4185 00ab 0B       		.uleb128 0xb
 4186 00ac 3B       		.uleb128 0x3b
 4187 00ad 0B       		.uleb128 0xb
 4188 00ae 01       		.uleb128 0x1
 4189 00af 13       		.uleb128 0x13
 4190 00b0 00       		.byte	0
 4191 00b1 00       		.byte	0
 4192 00b2 0F       		.uleb128 0xf
 4193 00b3 0D       		.uleb128 0xd
 4194 00b4 00       		.byte	0
 4195 00b5 03       		.uleb128 0x3
 4196 00b6 0E       		.uleb128 0xe
 4197 00b7 3A       		.uleb128 0x3a
 4198 00b8 0B       		.uleb128 0xb
 4199 00b9 3B       		.uleb128 0x3b
 4200 00ba 0B       		.uleb128 0xb
 4201 00bb 49       		.uleb128 0x49
 4202 00bc 13       		.uleb128 0x13
 4203 00bd 00       		.byte	0
 4204 00be 00       		.byte	0
 4205 00bf 10       		.uleb128 0x10
 4206 00c0 26       		.uleb128 0x26
 4207 00c1 00       		.byte	0
 4208 00c2 49       		.uleb128 0x49
 4209 00c3 13       		.uleb128 0x13
ARM GAS  /tmp/ccrgxcxk.s 			page 75


 4210 00c4 00       		.byte	0
 4211 00c5 00       		.byte	0
 4212 00c6 11       		.uleb128 0x11
 4213 00c7 15       		.uleb128 0x15
 4214 00c8 00       		.byte	0
 4215 00c9 27       		.uleb128 0x27
 4216 00ca 19       		.uleb128 0x19
 4217 00cb 00       		.byte	0
 4218 00cc 00       		.byte	0
 4219 00cd 12       		.uleb128 0x12
 4220 00ce 13       		.uleb128 0x13
 4221 00cf 01       		.byte	0x1
 4222 00d0 0B       		.uleb128 0xb
 4223 00d1 05       		.uleb128 0x5
 4224 00d2 3A       		.uleb128 0x3a
 4225 00d3 0B       		.uleb128 0xb
 4226 00d4 3B       		.uleb128 0x3b
 4227 00d5 0B       		.uleb128 0xb
 4228 00d6 01       		.uleb128 0x1
 4229 00d7 13       		.uleb128 0x13
 4230 00d8 00       		.byte	0
 4231 00d9 00       		.byte	0
 4232 00da 13       		.uleb128 0x13
 4233 00db 0D       		.uleb128 0xd
 4234 00dc 00       		.byte	0
 4235 00dd 03       		.uleb128 0x3
 4236 00de 08       		.uleb128 0x8
 4237 00df 3A       		.uleb128 0x3a
 4238 00e0 0B       		.uleb128 0xb
 4239 00e1 3B       		.uleb128 0x3b
 4240 00e2 0B       		.uleb128 0xb
 4241 00e3 49       		.uleb128 0x49
 4242 00e4 13       		.uleb128 0x13
 4243 00e5 38       		.uleb128 0x38
 4244 00e6 05       		.uleb128 0x5
 4245 00e7 00       		.byte	0
 4246 00e8 00       		.byte	0
 4247 00e9 14       		.uleb128 0x14
 4248 00ea 01       		.uleb128 0x1
 4249 00eb 01       		.byte	0x1
 4250 00ec 49       		.uleb128 0x49
 4251 00ed 13       		.uleb128 0x13
 4252 00ee 01       		.uleb128 0x1
 4253 00ef 13       		.uleb128 0x13
 4254 00f0 00       		.byte	0
 4255 00f1 00       		.byte	0
 4256 00f2 15       		.uleb128 0x15
 4257 00f3 21       		.uleb128 0x21
 4258 00f4 00       		.byte	0
 4259 00f5 49       		.uleb128 0x49
 4260 00f6 13       		.uleb128 0x13
 4261 00f7 2F       		.uleb128 0x2f
 4262 00f8 0B       		.uleb128 0xb
 4263 00f9 00       		.byte	0
 4264 00fa 00       		.byte	0
 4265 00fb 16       		.uleb128 0x16
 4266 00fc 17       		.uleb128 0x17
ARM GAS  /tmp/ccrgxcxk.s 			page 76


 4267 00fd 01       		.byte	0x1
 4268 00fe 03       		.uleb128 0x3
 4269 00ff 0E       		.uleb128 0xe
 4270 0100 0B       		.uleb128 0xb
 4271 0101 05       		.uleb128 0x5
 4272 0102 3A       		.uleb128 0x3a
 4273 0103 0B       		.uleb128 0xb
 4274 0104 3B       		.uleb128 0x3b
 4275 0105 0B       		.uleb128 0xb
 4276 0106 01       		.uleb128 0x1
 4277 0107 13       		.uleb128 0x13
 4278 0108 00       		.byte	0
 4279 0109 00       		.byte	0
 4280 010a 17       		.uleb128 0x17
 4281 010b 0D       		.uleb128 0xd
 4282 010c 00       		.byte	0
 4283 010d 03       		.uleb128 0x3
 4284 010e 08       		.uleb128 0x8
 4285 010f 3A       		.uleb128 0x3a
 4286 0110 0B       		.uleb128 0xb
 4287 0111 3B       		.uleb128 0x3b
 4288 0112 0B       		.uleb128 0xb
 4289 0113 49       		.uleb128 0x49
 4290 0114 13       		.uleb128 0x13
 4291 0115 00       		.byte	0
 4292 0116 00       		.byte	0
 4293 0117 18       		.uleb128 0x18
 4294 0118 21       		.uleb128 0x21
 4295 0119 00       		.byte	0
 4296 011a 49       		.uleb128 0x49
 4297 011b 13       		.uleb128 0x13
 4298 011c 2F       		.uleb128 0x2f
 4299 011d 05       		.uleb128 0x5
 4300 011e 00       		.byte	0
 4301 011f 00       		.byte	0
 4302 0120 19       		.uleb128 0x19
 4303 0121 2E       		.uleb128 0x2e
 4304 0122 01       		.byte	0x1
 4305 0123 03       		.uleb128 0x3
 4306 0124 0E       		.uleb128 0xe
 4307 0125 3A       		.uleb128 0x3a
 4308 0126 0B       		.uleb128 0xb
 4309 0127 3B       		.uleb128 0x3b
 4310 0128 0B       		.uleb128 0xb
 4311 0129 27       		.uleb128 0x27
 4312 012a 19       		.uleb128 0x19
 4313 012b 11       		.uleb128 0x11
 4314 012c 01       		.uleb128 0x1
 4315 012d 12       		.uleb128 0x12
 4316 012e 06       		.uleb128 0x6
 4317 012f 40       		.uleb128 0x40
 4318 0130 18       		.uleb128 0x18
 4319 0131 9742     		.uleb128 0x2117
 4320 0133 19       		.uleb128 0x19
 4321 0134 01       		.uleb128 0x1
 4322 0135 13       		.uleb128 0x13
 4323 0136 00       		.byte	0
ARM GAS  /tmp/ccrgxcxk.s 			page 77


 4324 0137 00       		.byte	0
 4325 0138 1A       		.uleb128 0x1a
 4326 0139 34       		.uleb128 0x34
 4327 013a 00       		.byte	0
 4328 013b 03       		.uleb128 0x3
 4329 013c 0E       		.uleb128 0xe
 4330 013d 3A       		.uleb128 0x3a
 4331 013e 0B       		.uleb128 0xb
 4332 013f 3B       		.uleb128 0x3b
 4333 0140 0B       		.uleb128 0xb
 4334 0141 49       		.uleb128 0x49
 4335 0142 13       		.uleb128 0x13
 4336 0143 02       		.uleb128 0x2
 4337 0144 17       		.uleb128 0x17
 4338 0145 00       		.byte	0
 4339 0146 00       		.byte	0
 4340 0147 1B       		.uleb128 0x1b
 4341 0148 34       		.uleb128 0x34
 4342 0149 00       		.byte	0
 4343 014a 03       		.uleb128 0x3
 4344 014b 0E       		.uleb128 0xe
 4345 014c 3A       		.uleb128 0x3a
 4346 014d 0B       		.uleb128 0xb
 4347 014e 3B       		.uleb128 0x3b
 4348 014f 0B       		.uleb128 0xb
 4349 0150 49       		.uleb128 0x49
 4350 0151 13       		.uleb128 0x13
 4351 0152 02       		.uleb128 0x2
 4352 0153 18       		.uleb128 0x18
 4353 0154 00       		.byte	0
 4354 0155 00       		.byte	0
 4355 0156 1C       		.uleb128 0x1c
 4356 0157 34       		.uleb128 0x34
 4357 0158 00       		.byte	0
 4358 0159 03       		.uleb128 0x3
 4359 015a 08       		.uleb128 0x8
 4360 015b 3A       		.uleb128 0x3a
 4361 015c 0B       		.uleb128 0xb
 4362 015d 3B       		.uleb128 0x3b
 4363 015e 0B       		.uleb128 0xb
 4364 015f 49       		.uleb128 0x49
 4365 0160 13       		.uleb128 0x13
 4366 0161 02       		.uleb128 0x2
 4367 0162 17       		.uleb128 0x17
 4368 0163 00       		.byte	0
 4369 0164 00       		.byte	0
 4370 0165 1D       		.uleb128 0x1d
 4371 0166 0B       		.uleb128 0xb
 4372 0167 01       		.byte	0x1
 4373 0168 11       		.uleb128 0x11
 4374 0169 01       		.uleb128 0x1
 4375 016a 12       		.uleb128 0x12
 4376 016b 06       		.uleb128 0x6
 4377 016c 01       		.uleb128 0x1
 4378 016d 13       		.uleb128 0x13
 4379 016e 00       		.byte	0
 4380 016f 00       		.byte	0
ARM GAS  /tmp/ccrgxcxk.s 			page 78


 4381 0170 1E       		.uleb128 0x1e
 4382 0171 34       		.uleb128 0x34
 4383 0172 00       		.byte	0
 4384 0173 03       		.uleb128 0x3
 4385 0174 08       		.uleb128 0x8
 4386 0175 3A       		.uleb128 0x3a
 4387 0176 0B       		.uleb128 0xb
 4388 0177 3B       		.uleb128 0x3b
 4389 0178 0B       		.uleb128 0xb
 4390 0179 49       		.uleb128 0x49
 4391 017a 13       		.uleb128 0x13
 4392 017b 02       		.uleb128 0x2
 4393 017c 18       		.uleb128 0x18
 4394 017d 00       		.byte	0
 4395 017e 00       		.byte	0
 4396 017f 1F       		.uleb128 0x1f
 4397 0180 898201   		.uleb128 0x4109
 4398 0183 01       		.byte	0x1
 4399 0184 11       		.uleb128 0x11
 4400 0185 01       		.uleb128 0x1
 4401 0186 31       		.uleb128 0x31
 4402 0187 13       		.uleb128 0x13
 4403 0188 01       		.uleb128 0x1
 4404 0189 13       		.uleb128 0x13
 4405 018a 00       		.byte	0
 4406 018b 00       		.byte	0
 4407 018c 20       		.uleb128 0x20
 4408 018d 8A8201   		.uleb128 0x410a
 4409 0190 00       		.byte	0
 4410 0191 02       		.uleb128 0x2
 4411 0192 18       		.uleb128 0x18
 4412 0193 9142     		.uleb128 0x2111
 4413 0195 18       		.uleb128 0x18
 4414 0196 00       		.byte	0
 4415 0197 00       		.byte	0
 4416 0198 21       		.uleb128 0x21
 4417 0199 898201   		.uleb128 0x4109
 4418 019c 00       		.byte	0
 4419 019d 11       		.uleb128 0x11
 4420 019e 01       		.uleb128 0x1
 4421 019f 31       		.uleb128 0x31
 4422 01a0 13       		.uleb128 0x13
 4423 01a1 00       		.byte	0
 4424 01a2 00       		.byte	0
 4425 01a3 22       		.uleb128 0x22
 4426 01a4 898201   		.uleb128 0x4109
 4427 01a7 01       		.byte	0x1
 4428 01a8 11       		.uleb128 0x11
 4429 01a9 01       		.uleb128 0x1
 4430 01aa 9542     		.uleb128 0x2115
 4431 01ac 19       		.uleb128 0x19
 4432 01ad 31       		.uleb128 0x31
 4433 01ae 13       		.uleb128 0x13
 4434 01af 00       		.byte	0
 4435 01b0 00       		.byte	0
 4436 01b1 23       		.uleb128 0x23
 4437 01b2 34       		.uleb128 0x34
ARM GAS  /tmp/ccrgxcxk.s 			page 79


 4438 01b3 00       		.byte	0
 4439 01b4 03       		.uleb128 0x3
 4440 01b5 0E       		.uleb128 0xe
 4441 01b6 3A       		.uleb128 0x3a
 4442 01b7 0B       		.uleb128 0xb
 4443 01b8 3B       		.uleb128 0x3b
 4444 01b9 0B       		.uleb128 0xb
 4445 01ba 49       		.uleb128 0x49
 4446 01bb 13       		.uleb128 0x13
 4447 01bc 3F       		.uleb128 0x3f
 4448 01bd 19       		.uleb128 0x19
 4449 01be 3C       		.uleb128 0x3c
 4450 01bf 19       		.uleb128 0x19
 4451 01c0 00       		.byte	0
 4452 01c1 00       		.byte	0
 4453 01c2 24       		.uleb128 0x24
 4454 01c3 34       		.uleb128 0x34
 4455 01c4 00       		.byte	0
 4456 01c5 03       		.uleb128 0x3
 4457 01c6 0E       		.uleb128 0xe
 4458 01c7 3A       		.uleb128 0x3a
 4459 01c8 0B       		.uleb128 0xb
 4460 01c9 3B       		.uleb128 0x3b
 4461 01ca 0B       		.uleb128 0xb
 4462 01cb 49       		.uleb128 0x49
 4463 01cc 13       		.uleb128 0x13
 4464 01cd 3F       		.uleb128 0x3f
 4465 01ce 19       		.uleb128 0x19
 4466 01cf 02       		.uleb128 0x2
 4467 01d0 18       		.uleb128 0x18
 4468 01d1 00       		.byte	0
 4469 01d2 00       		.byte	0
 4470 01d3 25       		.uleb128 0x25
 4471 01d4 2E       		.uleb128 0x2e
 4472 01d5 01       		.byte	0x1
 4473 01d6 3F       		.uleb128 0x3f
 4474 01d7 19       		.uleb128 0x19
 4475 01d8 03       		.uleb128 0x3
 4476 01d9 0E       		.uleb128 0xe
 4477 01da 3A       		.uleb128 0x3a
 4478 01db 0B       		.uleb128 0xb
 4479 01dc 3B       		.uleb128 0x3b
 4480 01dd 0B       		.uleb128 0xb
 4481 01de 27       		.uleb128 0x27
 4482 01df 19       		.uleb128 0x19
 4483 01e0 49       		.uleb128 0x49
 4484 01e1 13       		.uleb128 0x13
 4485 01e2 3C       		.uleb128 0x3c
 4486 01e3 19       		.uleb128 0x19
 4487 01e4 01       		.uleb128 0x1
 4488 01e5 13       		.uleb128 0x13
 4489 01e6 00       		.byte	0
 4490 01e7 00       		.byte	0
 4491 01e8 26       		.uleb128 0x26
 4492 01e9 05       		.uleb128 0x5
 4493 01ea 00       		.byte	0
 4494 01eb 49       		.uleb128 0x49
ARM GAS  /tmp/ccrgxcxk.s 			page 80


 4495 01ec 13       		.uleb128 0x13
 4496 01ed 00       		.byte	0
 4497 01ee 00       		.byte	0
 4498 01ef 27       		.uleb128 0x27
 4499 01f0 2E       		.uleb128 0x2e
 4500 01f1 00       		.byte	0
 4501 01f2 3F       		.uleb128 0x3f
 4502 01f3 19       		.uleb128 0x19
 4503 01f4 03       		.uleb128 0x3
 4504 01f5 0E       		.uleb128 0xe
 4505 01f6 3A       		.uleb128 0x3a
 4506 01f7 0B       		.uleb128 0xb
 4507 01f8 3B       		.uleb128 0x3b
 4508 01f9 0B       		.uleb128 0xb
 4509 01fa 27       		.uleb128 0x27
 4510 01fb 19       		.uleb128 0x19
 4511 01fc 3C       		.uleb128 0x3c
 4512 01fd 19       		.uleb128 0x19
 4513 01fe 00       		.byte	0
 4514 01ff 00       		.byte	0
 4515 0200 28       		.uleb128 0x28
 4516 0201 2E       		.uleb128 0x2e
 4517 0202 01       		.byte	0x1
 4518 0203 3F       		.uleb128 0x3f
 4519 0204 19       		.uleb128 0x19
 4520 0205 03       		.uleb128 0x3
 4521 0206 0E       		.uleb128 0xe
 4522 0207 3A       		.uleb128 0x3a
 4523 0208 0B       		.uleb128 0xb
 4524 0209 3B       		.uleb128 0x3b
 4525 020a 0B       		.uleb128 0xb
 4526 020b 27       		.uleb128 0x27
 4527 020c 19       		.uleb128 0x19
 4528 020d 3C       		.uleb128 0x3c
 4529 020e 19       		.uleb128 0x19
 4530 020f 01       		.uleb128 0x1
 4531 0210 13       		.uleb128 0x13
 4532 0211 00       		.byte	0
 4533 0212 00       		.byte	0
 4534 0213 29       		.uleb128 0x29
 4535 0214 2E       		.uleb128 0x2e
 4536 0215 01       		.byte	0x1
 4537 0216 3F       		.uleb128 0x3f
 4538 0217 19       		.uleb128 0x19
 4539 0218 03       		.uleb128 0x3
 4540 0219 0E       		.uleb128 0xe
 4541 021a 3A       		.uleb128 0x3a
 4542 021b 0B       		.uleb128 0xb
 4543 021c 3B       		.uleb128 0x3b
 4544 021d 0B       		.uleb128 0xb
 4545 021e 27       		.uleb128 0x27
 4546 021f 19       		.uleb128 0x19
 4547 0220 3C       		.uleb128 0x3c
 4548 0221 19       		.uleb128 0x19
 4549 0222 00       		.byte	0
 4550 0223 00       		.byte	0
 4551 0224 00       		.byte	0
ARM GAS  /tmp/ccrgxcxk.s 			page 81


 4552              		.section	.debug_loc,"",%progbits
 4553              	.Ldebug_loc0:
 4554              	.LLST0:
 4555 0000 2C000000 		.4byte	.LVL2
 4556 0004 36000000 		.4byte	.LVL3
 4557 0008 0100     		.2byte	0x1
 4558 000a 50       		.byte	0x50
 4559 000b 4E000000 		.4byte	.LVL6
 4560 000f 58000000 		.4byte	.LVL7
 4561 0013 0100     		.2byte	0x1
 4562 0015 50       		.byte	0x50
 4563 0016 6C000000 		.4byte	.LVL9
 4564 001a 76000000 		.4byte	.LVL10
 4565 001e 0100     		.2byte	0x1
 4566 0020 50       		.byte	0x50
 4567 0021 76000000 		.4byte	.LVL10
 4568 0025 94000000 		.4byte	.LVL14
 4569 0029 0300     		.2byte	0x3
 4570 002b 77       		.byte	0x77
 4571 002c 7F       		.sleb128 -1
 4572 002d 9F       		.byte	0x9f
 4573 002e 94000000 		.4byte	.LVL14
 4574 0032 97000000 		.4byte	.LVL15-1
 4575 0036 0100     		.2byte	0x1
 4576 0038 50       		.byte	0x50
 4577 0039 97000000 		.4byte	.LVL15-1
 4578 003d BA000000 		.4byte	.LVL17
 4579 0041 0100     		.2byte	0x1
 4580 0043 57       		.byte	0x57
 4581 0044 BA000000 		.4byte	.LVL17
 4582 0048 BE000000 		.4byte	.LVL18
 4583 004c 0100     		.2byte	0x1
 4584 004e 50       		.byte	0x50
 4585 004f BE000000 		.4byte	.LVL18
 4586 0053 C4000000 		.4byte	.LVL19
 4587 0057 0300     		.2byte	0x3
 4588 0059 70       		.byte	0x70
 4589 005a 7F       		.sleb128 -1
 4590 005b 9F       		.byte	0x9f
 4591 005c E2000000 		.4byte	.LVL23
 4592 0060 E5000000 		.4byte	.LVL24-1
 4593 0064 0100     		.2byte	0x1
 4594 0066 50       		.byte	0x50
 4595 0067 E5000000 		.4byte	.LVL24-1
 4596 006b FE000000 		.4byte	.LVL26
 4597 006f 0100     		.2byte	0x1
 4598 0071 57       		.byte	0x57
 4599 0072 AA010000 		.4byte	.LVL39
 4600 0076 B4010000 		.4byte	.LVL40
 4601 007a 0100     		.2byte	0x1
 4602 007c 50       		.byte	0x50
 4603 007d E4010000 		.4byte	.LVL45
 4604 0081 EE010000 		.4byte	.LVL46
 4605 0085 0100     		.2byte	0x1
 4606 0087 50       		.byte	0x50
 4607 0088 04020000 		.4byte	.LVL48
 4608 008c 0E020000 		.4byte	.LVL49
ARM GAS  /tmp/ccrgxcxk.s 			page 82


 4609 0090 0100     		.2byte	0x1
 4610 0092 50       		.byte	0x50
 4611 0093 54020000 		.4byte	.LVL53
 4612 0097 58020000 		.4byte	.LVL54
 4613 009b 0100     		.2byte	0x1
 4614 009d 50       		.byte	0x50
 4615 009e 58020000 		.4byte	.LVL54
 4616 00a2 5E020000 		.4byte	.LVL55
 4617 00a6 0300     		.2byte	0x3
 4618 00a8 70       		.byte	0x70
 4619 00a9 7F       		.sleb128 -1
 4620 00aa 9F       		.byte	0x9f
 4621 00ab 7C020000 		.4byte	.LVL59
 4622 00af 7F020000 		.4byte	.LVL60-1
 4623 00b3 0100     		.2byte	0x1
 4624 00b5 50       		.byte	0x50
 4625 00b6 7F020000 		.4byte	.LVL60-1
 4626 00ba 36030000 		.4byte	.LVL73
 4627 00be 0100     		.2byte	0x1
 4628 00c0 57       		.byte	0x57
 4629 00c1 36030000 		.4byte	.LVL73
 4630 00c5 40030000 		.4byte	.LVL74
 4631 00c9 0100     		.2byte	0x1
 4632 00cb 50       		.byte	0x50
 4633 00cc 52030000 		.4byte	.LVL76
 4634 00d0 5C030000 		.4byte	.LVL77
 4635 00d4 0100     		.2byte	0x1
 4636 00d6 50       		.byte	0x50
 4637 00d7 6E030000 		.4byte	.LVL79
 4638 00db 78030000 		.4byte	.LVL80
 4639 00df 0100     		.2byte	0x1
 4640 00e1 50       		.byte	0x50
 4641 00e2 8A030000 		.4byte	.LVL82
 4642 00e6 94030000 		.4byte	.LVL83
 4643 00ea 0100     		.2byte	0x1
 4644 00ec 50       		.byte	0x50
 4645 00ed AA030000 		.4byte	.LVL86
 4646 00f1 AD030000 		.4byte	.LVL87-1
 4647 00f5 0100     		.2byte	0x1
 4648 00f7 50       		.byte	0x50
 4649 00f8 AD030000 		.4byte	.LVL87-1
 4650 00fc FC030000 		.4byte	.LVL93
 4651 0100 0100     		.2byte	0x1
 4652 0102 56       		.byte	0x56
 4653 0103 FC030000 		.4byte	.LVL93
 4654 0107 FF030000 		.4byte	.LVL94-1
 4655 010b 0100     		.2byte	0x1
 4656 010d 50       		.byte	0x50
 4657 010e FF030000 		.4byte	.LVL94-1
 4658 0112 40040000 		.4byte	.LVL100
 4659 0116 0100     		.2byte	0x1
 4660 0118 56       		.byte	0x56
 4661 0119 40040000 		.4byte	.LVL100
 4662 011d 72040000 		.4byte	.LVL105
 4663 0121 0100     		.2byte	0x1
 4664 0123 57       		.byte	0x57
 4665 0124 88040000 		.4byte	.LVL107
ARM GAS  /tmp/ccrgxcxk.s 			page 83


 4666 0128 BA040000 		.4byte	.LVL112
 4667 012c 0100     		.2byte	0x1
 4668 012e 57       		.byte	0x57
 4669 012f BA040000 		.4byte	.LVL112
 4670 0133 C4040000 		.4byte	.LVL113
 4671 0137 0100     		.2byte	0x1
 4672 0139 50       		.byte	0x50
 4673 013a D6040000 		.4byte	.LVL115
 4674 013e E0040000 		.4byte	.LVL116
 4675 0142 0100     		.2byte	0x1
 4676 0144 50       		.byte	0x50
 4677 0145 F2040000 		.4byte	.LVL118
 4678 0149 FC040000 		.4byte	.LVL119
 4679 014d 0100     		.2byte	0x1
 4680 014f 50       		.byte	0x50
 4681 0150 0E050000 		.4byte	.LVL121
 4682 0154 18050000 		.4byte	.LVL122
 4683 0158 0100     		.2byte	0x1
 4684 015a 50       		.byte	0x50
 4685 015b 2E050000 		.4byte	.LVL125
 4686 015f 31050000 		.4byte	.LVL126-1
 4687 0163 0100     		.2byte	0x1
 4688 0165 50       		.byte	0x50
 4689 0166 31050000 		.4byte	.LVL126-1
 4690 016a 62050000 		.4byte	.LVL129
 4691 016e 0100     		.2byte	0x1
 4692 0170 55       		.byte	0x55
 4693 0171 78050000 		.4byte	.LVL132
 4694 0175 7B050000 		.4byte	.LVL133-1
 4695 0179 0100     		.2byte	0x1
 4696 017b 50       		.byte	0x50
 4697 017c 7B050000 		.4byte	.LVL133-1
 4698 0180 32060000 		.4byte	.LVL147
 4699 0184 0100     		.2byte	0x1
 4700 0186 56       		.byte	0x56
 4701 0187 00000000 		.4byte	0
 4702 018b 00000000 		.4byte	0
 4703              	.LLST1:
 4704 018f 1E000000 		.4byte	.LVL1
 4705 0193 38000000 		.4byte	.LVL4
 4706 0197 0400     		.2byte	0x4
 4707 0199 74       		.byte	0x74
 4708 019a BE7F     		.sleb128 -66
 4709 019c 9F       		.byte	0x9f
 4710 019d 38000000 		.4byte	.LVL4
 4711 01a1 3C000000 		.4byte	.LVL5
 4712 01a5 0400     		.2byte	0x4
 4713 01a7 74       		.byte	0x74
 4714 01a8 BD7F     		.sleb128 -67
 4715 01aa 9F       		.byte	0x9f
 4716 01ab 9A010000 		.4byte	.LVL37
 4717 01af 9C010000 		.4byte	.LVL38
 4718 01b3 0200     		.2byte	0x2
 4719 01b5 30       		.byte	0x30
 4720 01b6 9F       		.byte	0x9f
 4721 01b7 9C010000 		.4byte	.LVL38
 4722 01bb C6010000 		.4byte	.LVL42
ARM GAS  /tmp/ccrgxcxk.s 			page 84


 4723 01bf 0500     		.2byte	0x5
 4724 01c1 35       		.byte	0x35
 4725 01c2 75       		.byte	0x75
 4726 01c3 00       		.sleb128 0
 4727 01c4 1C       		.byte	0x1c
 4728 01c5 9F       		.byte	0x9f
 4729 01c6 C6010000 		.4byte	.LVL42
 4730 01ca C8010000 		.4byte	.LVL43
 4731 01ce 0500     		.2byte	0x5
 4732 01d0 36       		.byte	0x36
 4733 01d1 75       		.byte	0x75
 4734 01d2 00       		.sleb128 0
 4735 01d3 1C       		.byte	0x1c
 4736 01d4 9F       		.byte	0x9f
 4737 01d5 C8010000 		.4byte	.LVL43
 4738 01d9 E0020000 		.4byte	.LVL67
 4739 01dd 0500     		.2byte	0x5
 4740 01df 35       		.byte	0x35
 4741 01e0 75       		.byte	0x75
 4742 01e1 00       		.sleb128 0
 4743 01e2 1C       		.byte	0x1c
 4744 01e3 9F       		.byte	0x9f
 4745 01e4 E6030000 		.4byte	.LVL90
 4746 01e8 20040000 		.4byte	.LVL96
 4747 01ec 0500     		.2byte	0x5
 4748 01ee 35       		.byte	0x35
 4749 01ef 75       		.byte	0x75
 4750 01f0 00       		.sleb128 0
 4751 01f1 1C       		.byte	0x1c
 4752 01f2 9F       		.byte	0x9f
 4753 01f3 20040000 		.4byte	.LVL96
 4754 01f7 22040000 		.4byte	.LVL97
 4755 01fb 0500     		.2byte	0x5
 4756 01fd 36       		.byte	0x36
 4757 01fe 75       		.byte	0x75
 4758 01ff 00       		.sleb128 0
 4759 0200 1C       		.byte	0x1c
 4760 0201 9F       		.byte	0x9f
 4761 0202 22040000 		.4byte	.LVL97
 4762 0206 72040000 		.4byte	.LVL105
 4763 020a 0500     		.2byte	0x5
 4764 020c 35       		.byte	0x35
 4765 020d 75       		.byte	0x75
 4766 020e 00       		.sleb128 0
 4767 020f 1C       		.byte	0x1c
 4768 0210 9F       		.byte	0x9f
 4769 0211 88040000 		.4byte	.LVL107
 4770 0215 98040000 		.4byte	.LVL109
 4771 0219 0500     		.2byte	0x5
 4772 021b 35       		.byte	0x35
 4773 021c 75       		.byte	0x75
 4774 021d 00       		.sleb128 0
 4775 021e 1C       		.byte	0x1c
 4776 021f 9F       		.byte	0x9f
 4777 0220 62050000 		.4byte	.LVL129
 4778 0224 A2050000 		.4byte	.LVL135
 4779 0228 0500     		.2byte	0x5
ARM GAS  /tmp/ccrgxcxk.s 			page 85


 4780 022a 35       		.byte	0x35
 4781 022b 74       		.byte	0x74
 4782 022c 00       		.sleb128 0
 4783 022d 1C       		.byte	0x1c
 4784 022e 9F       		.byte	0x9f
 4785 022f A2050000 		.4byte	.LVL135
 4786 0233 A4050000 		.4byte	.LVL136
 4787 0237 0500     		.2byte	0x5
 4788 0239 36       		.byte	0x36
 4789 023a 74       		.byte	0x74
 4790 023b 00       		.sleb128 0
 4791 023c 1C       		.byte	0x1c
 4792 023d 9F       		.byte	0x9f
 4793 023e A4050000 		.4byte	.LVL136
 4794 0242 B2060000 		.4byte	.LVL157
 4795 0246 0500     		.2byte	0x5
 4796 0248 35       		.byte	0x35
 4797 0249 74       		.byte	0x74
 4798 024a 00       		.sleb128 0
 4799 024b 1C       		.byte	0x1c
 4800 024c 9F       		.byte	0x9f
 4801 024d 00000000 		.4byte	0
 4802 0251 00000000 		.4byte	0
 4803              		.section	.debug_aranges,"",%progbits
 4804 0000 24000000 		.4byte	0x24
 4805 0004 0200     		.2byte	0x2
 4806 0006 00000000 		.4byte	.Ldebug_info0
 4807 000a 04       		.byte	0x4
 4808 000b 00       		.byte	0
 4809 000c 0000     		.2byte	0
 4810 000e 0000     		.2byte	0
 4811 0010 00000000 		.4byte	.LFB8
 4812 0014 D4060000 		.4byte	.LFE8-.LFB8
 4813 0018 00000000 		.4byte	.LFB7
 4814 001c 14000000 		.4byte	.LFE7-.LFB7
 4815 0020 00000000 		.4byte	0
 4816 0024 00000000 		.4byte	0
 4817              		.section	.debug_ranges,"",%progbits
 4818              	.Ldebug_ranges0:
 4819 0000 00000000 		.4byte	.LFB8
 4820 0004 D4060000 		.4byte	.LFE8
 4821 0008 00000000 		.4byte	.LFB7
 4822 000c 14000000 		.4byte	.LFE7
 4823 0010 00000000 		.4byte	0
 4824 0014 00000000 		.4byte	0
 4825              		.section	.debug_line,"",%progbits
 4826              	.Ldebug_line0:
 4827 0000 44020000 		.section	.debug_str,"MS",%progbits,1
 4827      02003801 
 4827      00000201 
 4827      FB0E0D00 
 4827      01010101 
 4828              	.LASF44:
 4829 0000 705F6D73 		.ascii	"p_msg\000"
 4829      6700
 4830              	.LASF70:
 4831 0006 7264796D 		.ascii	"rdymsg\000"
ARM GAS  /tmp/ccrgxcxk.s 			page 86


 4831      736700
 4832              	.LASF16:
 4833 000d 75696E74 		.ascii	"uint64_t\000"
 4833      36345F74 
 4833      00
 4834              	.LASF5:
 4835 0016 5F5F7569 		.ascii	"__uint8_t\000"
 4835      6E74385F 
 4835      7400
 4836              	.LASF91:
 4837 0020 63684D42 		.ascii	"chMBPostI\000"
 4837      506F7374 
 4837      4900
 4838              	.LASF69:
 4839 002a 4D61696C 		.ascii	"Mailbox\000"
 4839      626F7800 
 4840              	.LASF94:
 4841 0032 63684D42 		.ascii	"chMBPostAheadI\000"
 4841      506F7374 
 4841      41686561 
 4841      644900
 4842              	.LASF12:
 4843 0041 6C6F6E67 		.ascii	"long long unsigned int\000"
 4843      206C6F6E 
 4843      6720756E 
 4843      7369676E 
 4843      65642069 
 4844              	.LASF87:
 4845 0058 70617474 		.ascii	"patternmbox\000"
 4845      65726E6D 
 4845      626F7800 
 4846              	.LASF85:
 4847 0064 74657374 		.ascii	"test\000"
 4847      00
 4848              	.LASF65:
 4849 0069 6D625F77 		.ascii	"mb_wrptr\000"
 4849      72707472 
 4849      00
 4850              	.LASF31:
 4851 0072 705F7072 		.ascii	"p_prio\000"
 4851      696F00
 4852              	.LASF10:
 4853 0079 6C6F6E67 		.ascii	"long long int\000"
 4853      206C6F6E 
 4853      6720696E 
 4853      7400
 4854              	.LASF1:
 4855 0087 7369676E 		.ascii	"signed char\000"
 4855      65642063 
 4855      68617200 
 4856              	.LASF48:
 4857 0093 705F6D70 		.ascii	"p_mpool\000"
 4857      6F6F6C00 
 4858              	.LASF17:
 4859 009b 626F6F6C 		.ascii	"bool_t\000"
 4859      5F7400
 4860              	.LASF37:
ARM GAS  /tmp/ccrgxcxk.s 			page 87


 4861 00a2 705F7374 		.ascii	"p_state\000"
 4861      61746500 
 4862              	.LASF98:
 4863 00aa 74657374 		.ascii	"test_emit_token\000"
 4863      5F656D69 
 4863      745F746F 
 4863      6B656E00 
 4864              	.LASF22:
 4865 00ba 74736C69 		.ascii	"tslices_t\000"
 4865      6365735F 
 4865      7400
 4866              	.LASF89:
 4867 00c4 63684D42 		.ascii	"chMBPost\000"
 4867      506F7374 
 4867      00
 4868              	.LASF7:
 4869 00cd 6C6F6E67 		.ascii	"long int\000"
 4869      20696E74 
 4869      00
 4870              	.LASF20:
 4871 00d6 74737461 		.ascii	"tstate_t\000"
 4871      74655F74 
 4871      00
 4872              	.LASF80:
 4873 00df 62756666 		.ascii	"buffer\000"
 4873      657200
 4874              	.LASF33:
 4875 00e6 705F6E65 		.ascii	"p_newer\000"
 4875      77657200 
 4876              	.LASF57:
 4877 00ee 735F7175 		.ascii	"s_queue\000"
 4877      65756500 
 4878              	.LASF71:
 4879 00f6 65786974 		.ascii	"exitcode\000"
 4879      636F6465 
 4879      00
 4880              	.LASF8:
 4881 00ff 5F5F7569 		.ascii	"__uint32_t\000"
 4881      6E743332 
 4881      5F7400
 4882              	.LASF51:
 4883 010a 72656761 		.ascii	"regarm_t\000"
 4883      726D5F74 
 4883      00
 4884              	.LASF27:
 4885 0113 636E745F 		.ascii	"cnt_t\000"
 4885      7400
 4886              	.LASF36:
 4887 0119 705F7374 		.ascii	"p_stklimit\000"
 4887      6B6C696D 
 4887      697400
 4888              	.LASF0:
 4889 0124 756E7369 		.ascii	"unsigned int\000"
 4889      676E6564 
 4889      20696E74 
 4889      00
 4890              	.LASF104:
ARM GAS  /tmp/ccrgxcxk.s 			page 88


 4891 0131 63684D42 		.ascii	"chMBInit\000"
 4891      496E6974 
 4891      00
 4892              	.LASF81:
 4893 013a 6D736731 		.ascii	"msg1\000"
 4893      00
 4894              	.LASF82:
 4895 013f 6D736732 		.ascii	"msg2\000"
 4895      00
 4896              	.LASF9:
 4897 0144 6C6F6E67 		.ascii	"long unsigned int\000"
 4897      20756E73 
 4897      69676E65 
 4897      6420696E 
 4897      7400
 4898              	.LASF78:
 4899 0156 74656172 		.ascii	"teardown\000"
 4899      646F776E 
 4899      00
 4900              	.LASF68:
 4901 015f 6D625F65 		.ascii	"mb_emptysem\000"
 4901      6D707479 
 4901      73656D00 
 4902              	.LASF76:
 4903 016b 6E616D65 		.ascii	"name\000"
 4903      00
 4904              	.LASF58:
 4905 0170 735F636E 		.ascii	"s_cnt\000"
 4905      7400
 4906              	.LASF54:
 4907 0176 636F6E74 		.ascii	"context\000"
 4907      65787400 
 4908              	.LASF4:
 4909 017e 73686F72 		.ascii	"short unsigned int\000"
 4909      7420756E 
 4909      7369676E 
 4909      65642069 
 4909      6E7400
 4910              	.LASF97:
 4911 0191 63684D42 		.ascii	"chMBFetchI\000"
 4911      46657463 
 4911      684900
 4912              	.LASF24:
 4913 019c 6D73675F 		.ascii	"msg_t\000"
 4913      7400
 4914              	.LASF19:
 4915 01a2 746D6F64 		.ascii	"tmode_t\000"
 4915      655F7400 
 4916              	.LASF84:
 4917 01aa 6D626F78 		.ascii	"mbox1_setup\000"
 4917      315F7365 
 4917      74757000 
 4918              	.LASF50:
 4919 01b6 54687265 		.ascii	"ThreadsList\000"
 4919      6164734C 
 4919      69737400 
 4920              	.LASF25:
ARM GAS  /tmp/ccrgxcxk.s 			page 89


 4921 01c2 6576656E 		.ascii	"eventmask_t\000"
 4921      746D6173 
 4921      6B5F7400 
 4922              	.LASF59:
 4923 01ce 4D757465 		.ascii	"Mutex\000"
 4923      7800
 4924              	.LASF86:
 4925 01d4 74657374 		.ascii	"testmbox1\000"
 4925      6D626F78 
 4925      3100
 4926              	.LASF52:
 4927 01de 73746B61 		.ascii	"stkalign_t\000"
 4927      6C69676E 
 4927      5F7400
 4928              	.LASF55:
 4929 01e9 73697A65 		.ascii	"sizetype\000"
 4929      74797065 
 4929      00
 4930              	.LASF66:
 4931 01f2 6D625F72 		.ascii	"mb_rdptr\000"
 4931      64707472 
 4931      00
 4932              	.LASF99:
 4933 01fb 63684D42 		.ascii	"chMBReset\000"
 4933      52657365 
 4933      7400
 4934              	.LASF34:
 4935 0205 705F6F6C 		.ascii	"p_older\000"
 4935      64657200 
 4936              	.LASF49:
 4937 020d 54687265 		.ascii	"ThreadsQueue\000"
 4937      61647351 
 4937      75657565 
 4937      00
 4938              	.LASF77:
 4939 021a 73657475 		.ascii	"setup\000"
 4939      7000
 4940              	.LASF96:
 4941 0220 5F746573 		.ascii	"_test_assert_sequence\000"
 4941      745F6173 
 4941      73657274 
 4941      5F736571 
 4941      75656E63 
 4942              	.LASF63:
 4943 0236 6D625F62 		.ascii	"mb_buffer\000"
 4943      75666665 
 4943      7200
 4944              	.LASF83:
 4945 0240 6D626F78 		.ascii	"mbox1_execute\000"
 4945      315F6578 
 4945      65637574 
 4945      6500
 4946              	.LASF92:
 4947 024e 6462675F 		.ascii	"dbg_check_lock\000"
 4947      63686563 
 4947      6B5F6C6F 
 4947      636B00
ARM GAS  /tmp/ccrgxcxk.s 			page 90


 4948              	.LASF93:
 4949 025d 6462675F 		.ascii	"dbg_check_unlock\000"
 4949      63686563 
 4949      6B5F756E 
 4949      6C6F636B 
 4949      00
 4950              	.LASF11:
 4951 026e 5F5F7569 		.ascii	"__uint64_t\000"
 4951      6E743634 
 4951      5F7400
 4952              	.LASF21:
 4953 0279 74726566 		.ascii	"trefs_t\000"
 4953      735F7400 
 4954              	.LASF30:
 4955 0281 705F7072 		.ascii	"p_prev\000"
 4955      657600
 4956              	.LASF79:
 4957 0288 65786563 		.ascii	"execute\000"
 4957      75746500 
 4958              	.LASF23:
 4959 0290 74707269 		.ascii	"tprio_t\000"
 4959      6F5F7400 
 4960              	.LASF18:
 4961 0298 5F426F6F 		.ascii	"_Bool\000"
 4961      6C00
 4962              	.LASF14:
 4963 029e 696E7433 		.ascii	"int32_t\000"
 4963      325F7400 
 4964              	.LASF2:
 4965 02a6 756E7369 		.ascii	"unsigned char\000"
 4965      676E6564 
 4965      20636861 
 4965      7200
 4966              	.LASF60:
 4967 02b4 6D5F7175 		.ascii	"m_queue\000"
 4967      65756500 
 4968              	.LASF64:
 4969 02bc 6D625F74 		.ascii	"mb_top\000"
 4969      6F7000
 4970              	.LASF46:
 4971 02c3 705F6D74 		.ascii	"p_mtxlist\000"
 4971      786C6973 
 4971      7400
 4972              	.LASF3:
 4973 02cd 73686F72 		.ascii	"short int\000"
 4973      7420696E 
 4973      7400
 4974              	.LASF101:
 4975 02d7 2E2E2F2E 		.ascii	"../../test/testmbox.c\000"
 4975      2E2F7465 
 4975      73742F74 
 4975      6573746D 
 4975      626F782E 
 4976              	.LASF40:
 4977 02ed 705F7072 		.ascii	"p_preempt\000"
 4977      65656D70 
 4977      7400
ARM GAS  /tmp/ccrgxcxk.s 			page 91


 4978              	.LASF73:
 4979 02f7 65776D61 		.ascii	"ewmask\000"
 4979      736B00
 4980              	.LASF29:
 4981 02fe 705F6E65 		.ascii	"p_next\000"
 4981      787400
 4982              	.LASF38:
 4983 0305 705F666C 		.ascii	"p_flags\000"
 4983      61677300 
 4984              	.LASF100:
 4985 030d 474E5520 		.ascii	"GNU C 4.8.4 20140526 (release) [ARM/embedded-4_8-br"
 4985      4320342E 
 4985      382E3420 
 4985      32303134 
 4985      30353236 
 4986 0340 616E6368 		.ascii	"anch revision 211358] -mcpu=cortex-m4 -mfloat-abi=h"
 4986      20726576 
 4986      6973696F 
 4986      6E203231 
 4986      31333538 
 4987 0373 61726420 		.ascii	"ard -mfpu=fpv4-sp-d16 -mno-thumb-interwork -mthumb "
 4987      2D6D6670 
 4987      753D6670 
 4987      76342D73 
 4987      702D6431 
 4988 03a6 2D676764 		.ascii	"-ggdb -O2 -fomit-frame-pointer -falign-functions=16"
 4988      62202D4F 
 4988      32202D66 
 4988      6F6D6974 
 4988      2D667261 
 4989 03d9 202D6666 		.ascii	" -ffunction-sections -fdata-sections -fno-common -f"
 4989      756E6374 
 4989      696F6E2D 
 4989      73656374 
 4989      696F6E73 
 4990 040c 73696E67 		.ascii	"single-precision-constant\000"
 4990      6C652D70 
 4990      72656369 
 4990      73696F6E 
 4990      2D636F6E 
 4991              	.LASF28:
 4992 0426 54687265 		.ascii	"Thread\000"
 4992      616400
 4993              	.LASF75:
 4994 042d 74657374 		.ascii	"testcase\000"
 4994      63617365 
 4994      00
 4995              	.LASF45:
 4996 0436 705F6570 		.ascii	"p_epending\000"
 4996      656E6469 
 4996      6E6700
 4997              	.LASF15:
 4998 0441 75696E74 		.ascii	"uint32_t\000"
 4998      33325F74 
 4998      00
 4999              	.LASF74:
 5000 044a 63686172 		.ascii	"char\000"
ARM GAS  /tmp/ccrgxcxk.s 			page 92


 5000      00
 5001              	.LASF62:
 5002 044f 6D5F6E65 		.ascii	"m_next\000"
 5002      787400
 5003              	.LASF26:
 5004 0456 73797374 		.ascii	"systime_t\000"
 5004      696D655F 
 5004      7400
 5005              	.LASF47:
 5006 0460 705F7265 		.ascii	"p_realprio\000"
 5006      616C7072 
 5006      696F00
 5007              	.LASF6:
 5008 046b 5F5F696E 		.ascii	"__int32_t\000"
 5008      7433325F 
 5008      7400
 5009              	.LASF41:
 5010 0475 705F7469 		.ascii	"p_time\000"
 5010      6D6500
 5011              	.LASF90:
 5012 047c 63684D42 		.ascii	"chMBPostAhead\000"
 5012      506F7374 
 5012      41686561 
 5012      6400
 5013              	.LASF102:
 5014 048a 2F686F6D 		.ascii	"/home/makkmarci/devel/ChibiOS_2.6.5/projects/STM32F"
 5014      652F6D61 
 5014      6B6B6D61 
 5014      7263692F 
 5014      64657665 
 5015 04bd 345F4368 		.ascii	"4_ChibiOS_uGFX/\000"
 5015      6962694F 
 5015      535F7547 
 5015      46582F00 
 5016              	.LASF53:
 5017 04cd 696E7463 		.ascii	"intctx\000"
 5017      747800
 5018              	.LASF43:
 5019 04d4 705F6D73 		.ascii	"p_msgqueue\000"
 5019      67717565 
 5019      756500
 5020              	.LASF95:
 5021 04df 63684D42 		.ascii	"chMBFetch\000"
 5021      46657463 
 5021      6800
 5022              	.LASF56:
 5023 04e9 53656D61 		.ascii	"Semaphore\000"
 5023      70686F72 
 5023      6500
 5024              	.LASF67:
 5025 04f3 6D625F66 		.ascii	"mb_fullsem\000"
 5025      756C6C73 
 5025      656D00
 5026              	.LASF103:
 5027 04fe 74657374 		.ascii	"test_buffers\000"
 5027      5F627566 
 5027      66657273 
ARM GAS  /tmp/ccrgxcxk.s 			page 93


 5027      00
 5028              	.LASF39:
 5029 050b 705F7265 		.ascii	"p_refs\000"
 5029      667300
 5030              	.LASF13:
 5031 0512 75696E74 		.ascii	"uint8_t\000"
 5031      385F7400 
 5032              	.LASF72:
 5033 051a 77746F62 		.ascii	"wtobjp\000"
 5033      6A7000
 5034              	.LASF35:
 5035 0521 705F6E61 		.ascii	"p_name\000"
 5035      6D6500
 5036              	.LASF88:
 5037 0528 5F746573 		.ascii	"_test_assert\000"
 5037      745F6173 
 5037      73657274 
 5037      00
 5038              	.LASF61:
 5039 0535 6D5F6F77 		.ascii	"m_owner\000"
 5039      6E657200 
 5040              	.LASF32:
 5041 053d 705F6374 		.ascii	"p_ctx\000"
 5041      7800
 5042              	.LASF42:
 5043 0543 705F7761 		.ascii	"p_waiting\000"
 5043      6974696E 
 5043      6700
 5044              		.ident	"GCC: (GNU Tools for ARM Embedded Processors) 4.8.4 20140526 (release) [ARM/embedded-4_8-br
ARM GAS  /tmp/ccrgxcxk.s 			page 94


DEFINED SYMBOLS
                            *ABS*:00000000 testmbox.c
     /tmp/ccrgxcxk.s:21     .text.mbox1_execute:00000000 $t
     /tmp/ccrgxcxk.s:26     .text.mbox1_execute:00000000 mbox1_execute
     /tmp/ccrgxcxk.s:241    .text.mbox1_execute:00000130 $d
     /tmp/ccrgxcxk.s:244    .text.mbox1_execute:00000134 $t
     /tmp/ccrgxcxk.s:772    .text.mbox1_execute:00000480 $d
     /tmp/ccrgxcxk.s:777    .text.mbox1_execute:00000488 $t
     /tmp/ccrgxcxk.s:1164   .text.mbox1_execute:000006cc $d
     /tmp/ccrgxcxk.s:1170   .text.mbox1_setup:00000000 $t
     /tmp/ccrgxcxk.s:1175   .text.mbox1_setup:00000000 mbox1_setup
     /tmp/ccrgxcxk.s:1191   .text.mbox1_setup:0000000c $d
     /tmp/ccrgxcxk.s:1218   .rodata.patternmbox:00000000 patternmbox
     /tmp/ccrgxcxk.s:1232   .rodata.testmbox1:00000000 testmbox1
     /tmp/ccrgxcxk.s:1199   .data.mb1:00000000 $d
     /tmp/ccrgxcxk.s:1203   .data.mb1:00000000 mb1
     /tmp/ccrgxcxk.s:1215   .rodata.patternmbox:00000000 $d
     /tmp/ccrgxcxk.s:1222   .rodata.str1.4:00000000 $d
     /tmp/ccrgxcxk.s:1229   .rodata.testmbox1:00000000 $d
                     .debug_frame:00000010 $d
     /tmp/ccrgxcxk.s:1169   .text.mbox1_execute:000006d4 $t
     /tmp/ccrgxcxk.s:1198   .text.mbox1_setup:00000014 $t

UNDEFINED SYMBOLS
_test_assert
chMBPost
chMBPostAhead
dbg_check_lock
chMBPostI
dbg_check_unlock
chMBPostAheadI
chMBFetch
test_emit_token
_test_assert_sequence
chMBFetchI
chMBReset
chMBInit
test
