ARM GAS  /tmp/ccVRPlls.s 			page 1


   1              		.syntax unified
   2              		.cpu cortex-m4
   3              		.eabi_attribute 27, 3
   4              		.eabi_attribute 28, 1
   5              		.fpu fpv4-sp-d16
   6              		.eabi_attribute 20, 1
   7              		.eabi_attribute 21, 1
   8              		.eabi_attribute 23, 3
   9              		.eabi_attribute 24, 1
  10              		.eabi_attribute 25, 1
  11              		.eabi_attribute 26, 1
  12              		.eabi_attribute 30, 2
  13              		.eabi_attribute 34, 1
  14              		.eabi_attribute 18, 4
  15              		.thumb
  16              		.file	"testqueues.c"
  17              		.text
  18              	.Ltext0:
  19              		.cfi_sections	.debug_frame
  20              		.section	.text.notify,"ax",%progbits
  21              		.align	2
  22              		.p2align 4,,15
  23              		.thumb
  24              		.thumb_func
  25              		.type	notify, %function
  26              	notify:
  27              	.LFB7:
  28              		.file 1 "../../test/testqueues.c"
  29              		.loc 1 57 0
  30              		.cfi_startproc
  31              		@ args = 0, pretend = 0, frame = 0
  32              		@ frame_needed = 0, uses_anonymous_args = 0
  33              		@ link register save eliminated.
  34              	.LVL0:
  35 0000 7047     		bx	lr
  36              		.cfi_endproc
  37              	.LFE7:
  38              		.size	notify, .-notify
  39 0002 00BFAFF3 		.section	.text.thread1,"ax",%progbits
  39      0080AFF3 
  39      0080AFF3 
  39      0080
  40              		.align	2
  41              		.p2align 4,,15
  42              		.thumb
  43              		.thumb_func
  44              		.type	thread1, %function
  45              	thread1:
  46              	.LFB9:
  47              		.loc 1 83 0
  48              		.cfi_startproc
  49              		@ args = 0, pretend = 0, frame = 0
  50              		@ frame_needed = 0, uses_anonymous_args = 0
  51              	.LVL1:
  52              		.loc 1 83 0
  53 0000 08B5     		push	{r3, lr}
  54              		.cfi_def_cfa_offset 8
ARM GAS  /tmp/ccVRPlls.s 			page 2


  55              		.cfi_offset 3, -8
  56              		.cfi_offset 14, -4
  57              		.loc 1 86 0
  58 0002 C821     		movs	r1, #200
  59 0004 0248     		ldr	r0, .L3
  60              	.LVL2:
  61 0006 FFF7FEFF 		bl	chIQGetTimeout
  62              	.LVL3:
  63              		.loc 1 88 0
  64 000a 0020     		movs	r0, #0
  65 000c 08BD     		pop	{r3, pc}
  66              	.L4:
  67 000e 00BF     		.align	2
  68              	.L3:
  69 0010 00000000 		.word	.LANCHOR0
  70              		.cfi_endproc
  71              	.LFE9:
  72              		.size	thread1, .-thread1
  73 0014 AFF30080 		.section	.text.queues1_setup,"ax",%progbits
  73      AFF30080 
  73      AFF30080 
  74              		.align	2
  75              		.p2align 4,,15
  76              		.thumb
  77              		.thumb_func
  78              		.type	queues1_setup, %function
  79              	queues1_setup:
  80              	.LFB8:
  81              		.loc 1 78 0
  82              		.cfi_startproc
  83              		@ args = 0, pretend = 0, frame = 0
  84              		@ frame_needed = 0, uses_anonymous_args = 0
  85 0000 00B5     		push	{lr}
  86              		.cfi_def_cfa_offset 4
  87              		.cfi_offset 14, -4
  88              		.loc 1 80 0
  89 0002 064B     		ldr	r3, .L6
  90 0004 0648     		ldr	r0, .L6+4
  91 0006 1968     		ldr	r1, [r3]
  92 0008 064B     		ldr	r3, .L6+8
  93              		.loc 1 78 0
  94 000a 83B0     		sub	sp, sp, #12
  95              		.cfi_def_cfa_offset 16
  96              		.loc 1 80 0
  97 000c 0022     		movs	r2, #0
  98 000e 0092     		str	r2, [sp]
  99 0010 0422     		movs	r2, #4
 100 0012 FFF7FEFF 		bl	chIQInit
 101              	.LVL4:
 102              		.loc 1 81 0
 103 0016 03B0     		add	sp, sp, #12
 104              		@ sp needed
 105 0018 5DF804FB 		ldr	pc, [sp], #4
 106              	.L7:
 107              		.align	2
 108              	.L6:
 109 001c 00000000 		.word	wa
ARM GAS  /tmp/ccVRPlls.s 			page 3


 110 0020 00000000 		.word	.LANCHOR0
 111 0024 00000000 		.word	notify
 112              		.cfi_endproc
 113              	.LFE8:
 114              		.size	queues1_setup, .-queues1_setup
 115 0028 AFF30080 		.section	.text.thread2,"ax",%progbits
 115      AFF30080 
 116              		.align	2
 117              		.p2align 4,,15
 118              		.thumb
 119              		.thumb_func
 120              		.type	thread2, %function
 121              	thread2:
 122              	.LFB12:
 123              		.loc 1 170 0
 124              		.cfi_startproc
 125              		@ args = 0, pretend = 0, frame = 0
 126              		@ frame_needed = 0, uses_anonymous_args = 0
 127              	.LVL5:
 128 0000 08B5     		push	{r3, lr}
 129              		.cfi_def_cfa_offset 8
 130              		.cfi_offset 3, -8
 131              		.cfi_offset 14, -4
 132              		.loc 1 173 0
 133 0002 0021     		movs	r1, #0
 134 0004 C822     		movs	r2, #200
 135 0006 0248     		ldr	r0, .L9
 136              	.LVL6:
 137 0008 FFF7FEFF 		bl	chOQPutTimeout
 138              	.LVL7:
 139              		.loc 1 175 0
 140 000c 0020     		movs	r0, #0
 141 000e 08BD     		pop	{r3, pc}
 142              	.L10:
 143              		.align	2
 144              	.L9:
 145 0010 00000000 		.word	.LANCHOR1
 146              		.cfi_endproc
 147              	.LFE12:
 148              		.size	thread2, .-thread2
 149 0014 AFF30080 		.section	.text.queues2_setup,"ax",%progbits
 149      AFF30080 
 149      AFF30080 
 150              		.align	2
 151              		.p2align 4,,15
 152              		.thumb
 153              		.thumb_func
 154              		.type	queues2_setup, %function
 155              	queues2_setup:
 156              	.LFB11:
 157              		.loc 1 165 0
 158              		.cfi_startproc
 159              		@ args = 0, pretend = 0, frame = 0
 160              		@ frame_needed = 0, uses_anonymous_args = 0
 161 0000 00B5     		push	{lr}
 162              		.cfi_def_cfa_offset 4
 163              		.cfi_offset 14, -4
ARM GAS  /tmp/ccVRPlls.s 			page 4


 164              		.loc 1 167 0
 165 0002 064B     		ldr	r3, .L12
 166 0004 0648     		ldr	r0, .L12+4
 167 0006 1968     		ldr	r1, [r3]
 168 0008 064B     		ldr	r3, .L12+8
 169              		.loc 1 165 0
 170 000a 83B0     		sub	sp, sp, #12
 171              		.cfi_def_cfa_offset 16
 172              		.loc 1 167 0
 173 000c 0022     		movs	r2, #0
 174 000e 0092     		str	r2, [sp]
 175 0010 0422     		movs	r2, #4
 176 0012 FFF7FEFF 		bl	chOQInit
 177              	.LVL8:
 178              		.loc 1 168 0
 179 0016 03B0     		add	sp, sp, #12
 180              		@ sp needed
 181 0018 5DF804FB 		ldr	pc, [sp], #4
 182              	.L13:
 183              		.align	2
 184              	.L12:
 185 001c 00000000 		.word	wa
 186 0020 00000000 		.word	.LANCHOR1
 187 0024 00000000 		.word	notify
 188              		.cfi_endproc
 189              	.LFE11:
 190              		.size	queues2_setup, .-queues2_setup
 191 0028 AFF30080 		.section	.text.queues1_execute,"ax",%progbits
 191      AFF30080 
 192              		.align	2
 193              		.p2align 4,,15
 194              		.thumb
 195              		.thumb_func
 196              		.type	queues1_execute, %function
 197              	queues1_execute:
 198              	.LFB10:
 199              		.loc 1 90 0
 200              		.cfi_startproc
 201              		@ args = 0, pretend = 0, frame = 0
 202              		@ frame_needed = 0, uses_anonymous_args = 0
 203 0000 F0B5     		push	{r4, r5, r6, r7, lr}
 204              		.cfi_def_cfa_offset 20
 205              		.cfi_offset 4, -20
 206              		.cfi_offset 5, -16
 207              		.cfi_offset 6, -12
 208              		.cfi_offset 7, -8
 209              		.cfi_offset 14, -4
 210              	.LBB99:
 211              		.loc 1 95 0
 212 0002 2023     		movs	r3, #32
 213              	.LBE99:
 214              		.loc 1 90 0
 215 0004 83B0     		sub	sp, sp, #12
 216              		.cfi_def_cfa_offset 32
 217              	.LBB100:
 218              		.loc 1 95 0
 219              	@ 95 "../../test/testqueues.c" 1
ARM GAS  /tmp/ccVRPlls.s 			page 5


 220 0006 83F31188 		msr     BASEPRI, r3
 221              	@ 0 "" 2
 222              		.thumb
 223              	.LBE100:
 224 000a FFF7FEFF 		bl	dbg_check_lock
 225              	.LVL9:
 226 000e BA4B     		ldr	r3, .L40
 227 0010 9968     		ldr	r1, [r3, #8]
 228 0012 D1F10101 		rsbs	r1, r1, #1
 229 0016 4FF00100 		mov	r0, #1
 230 001a 38BF     		it	cc
 231 001c 0021     		movcc	r1, #0
 232 001e FFF7FEFF 		bl	_test_assert
 233              	.LVL10:
 234 0022 0646     		mov	r6, r0
 235 0024 0028     		cmp	r0, #0
 236 0026 40F04E81 		bne	.L36
 237              	.LBB101:
 238              	.LBB102:
 239 002a FFF7FEFF 		bl	dbg_check_unlock
 240              	.LVL11:
 241              	.LBB103:
 242 002e 3346     		mov	r3, r6
 243              	@ 95 "../../test/testqueues.c" 1
 244 0030 83F31188 		msr     BASEPRI, r3
 245              	@ 0 "" 2
 246              		.thumb
 247              	.LBE103:
 248              	.LBB104:
 249              		.loc 1 98 0
 250 0034 2023     		movs	r3, #32
 251              	@ 98 "../../test/testqueues.c" 1
 252 0036 83F31188 		msr     BASEPRI, r3
 253              	@ 0 "" 2
 254              		.thumb
 255              	.LBE104:
 256 003a FFF7FEFF 		bl	dbg_check_lock
 257              	.LVL12:
 258 003e 4124     		movs	r4, #65
 259              	.LVL13:
 260              	.L18:
 261              		.loc 1 100 0
 262 0040 AD4D     		ldr	r5, .L40
 263 0042 2146     		mov	r1, r4
 264 0044 0134     		adds	r4, r4, #1
 265 0046 2846     		mov	r0, r5
 266 0048 E4B2     		uxtb	r4, r4
 267 004a FFF7FEFF 		bl	chIQPutI
 268              	.LVL14:
 269              		.loc 1 99 0
 270 004e 452C     		cmp	r4, #69
 271 0050 F6D1     		bne	.L18
 272              		.loc 1 101 0
 273 0052 FFF7FEFF 		bl	dbg_check_unlock
 274              	.LVL15:
 275              	.LBB105:
 276 0056 0023     		movs	r3, #0
ARM GAS  /tmp/ccVRPlls.s 			page 6


 277              	@ 101 "../../test/testqueues.c" 1
 278 0058 83F31188 		msr     BASEPRI, r3
 279              	@ 0 "" 2
 280              		.thumb
 281              	.LBE105:
 282              	.LBB106:
 283              		.loc 1 102 0
 284 005c 2023     		movs	r3, #32
 285              	@ 102 "../../test/testqueues.c" 1
 286 005e 83F31188 		msr     BASEPRI, r3
 287              	@ 0 "" 2
 288              		.thumb
 289              	.LBE106:
 290 0062 FFF7FEFF 		bl	dbg_check_lock
 291              	.LVL16:
 292 0066 6A69     		ldr	r2, [r5, #20]
 293 0068 AB69     		ldr	r3, [r5, #24]
 294 006a 9A42     		cmp	r2, r3
 295 006c 00F03981 		beq	.L39
 296              	.L19:
 297 0070 3146     		mov	r1, r6
 298 0072 0220     		movs	r0, #2
 299 0074 FFF7FEFF 		bl	_test_assert
 300              	.LVL17:
 301 0078 0446     		mov	r4, r0
 302 007a 0028     		cmp	r0, #0
 303 007c 40F02381 		bne	.L36
 304 0080 FFF7FEFF 		bl	dbg_check_unlock
 305              	.LVL18:
 306              	.LBB107:
 307 0084 2346     		mov	r3, r4
 308              	@ 102 "../../test/testqueues.c" 1
 309 0086 83F31188 		msr     BASEPRI, r3
 310              	@ 0 "" 2
 311              		.thumb
 312              	.LBE107:
 313              	.LBB108:
 314              		.loc 1 103 0
 315 008a 2023     		movs	r3, #32
 316              	@ 103 "../../test/testqueues.c" 1
 317 008c 83F31188 		msr     BASEPRI, r3
 318              	@ 0 "" 2
 319              		.thumb
 320              	.LBE108:
 321 0090 FFF7FEFF 		bl	dbg_check_lock
 322              	.LVL19:
 323 0094 2146     		mov	r1, r4
 324 0096 9848     		ldr	r0, .L40
 325 0098 FFF7FEFF 		bl	chIQPutI
 326              	.LVL20:
 327 009c 0430     		adds	r0, r0, #4
 328 009e 14BF     		ite	ne
 329 00a0 0021     		movne	r1, #0
 330 00a2 0121     		moveq	r1, #1
 331 00a4 0320     		movs	r0, #3
 332 00a6 FFF7FEFF 		bl	_test_assert
 333              	.LVL21:
ARM GAS  /tmp/ccVRPlls.s 			page 7


 334 00aa 0546     		mov	r5, r0
 335 00ac 0028     		cmp	r0, #0
 336 00ae 40F01181 		bne	.L37
 337 00b2 FFF7FEFF 		bl	dbg_check_unlock
 338              	.LVL22:
 339              	.LBB109:
 340 00b6 2B46     		mov	r3, r5
 341              	@ 103 "../../test/testqueues.c" 1
 342 00b8 83F31188 		msr     BASEPRI, r3
 343              	@ 0 "" 2
 344              	.LVL23:
 345              		.thumb
 346 00bc 0424     		movs	r4, #4
 347              	.LVL24:
 348              	.L23:
 349              	.LBE109:
 350              		.loc 1 107 0
 351 00be 8E4D     		ldr	r5, .L40
 352 00c0 4FF0FF31 		mov	r1, #-1
 353 00c4 2846     		mov	r0, r5
 354 00c6 FFF7FEFF 		bl	chIQGetTimeout
 355              	.LVL25:
 356 00ca C0B2     		uxtb	r0, r0
 357 00cc FFF7FEFF 		bl	test_emit_token
 358              	.LVL26:
 359              		.loc 1 106 0
 360 00d0 013C     		subs	r4, r4, #1
 361              	.LVL27:
 362 00d2 F4D1     		bne	.L23
 363              	.LBB110:
 364              		.loc 1 108 0
 365 00d4 2023     		movs	r3, #32
 366              	@ 108 "../../test/testqueues.c" 1
 367 00d6 83F31188 		msr     BASEPRI, r3
 368              	@ 0 "" 2
 369              		.thumb
 370              	.LBE110:
 371 00da FFF7FEFF 		bl	dbg_check_lock
 372              	.LVL28:
 373 00de A968     		ldr	r1, [r5, #8]
 374 00e0 D1F10101 		rsbs	r1, r1, #1
 375 00e4 38BF     		it	cc
 376 00e6 0021     		movcc	r1, #0
 377 00e8 0420     		movs	r0, #4
 378 00ea FFF7FEFF 		bl	_test_assert
 379              	.LVL29:
 380 00ee 0028     		cmp	r0, #0
 381 00f0 40F0F080 		bne	.L37
 382 00f4 FFF7FEFF 		bl	dbg_check_unlock
 383              	.LVL30:
 384              	.LBB111:
 385 00f8 2346     		mov	r3, r4
 386              	@ 108 "../../test/testqueues.c" 1
 387 00fa 83F31188 		msr     BASEPRI, r3
 388              	@ 0 "" 2
 389              		.thumb
 390              	.LBE111:
ARM GAS  /tmp/ccVRPlls.s 			page 8


 391              		.loc 1 109 0
 392 00fe 0520     		movs	r0, #5
 393 0100 7E49     		ldr	r1, .L40+4
 394 0102 FFF7FEFF 		bl	_test_assert_sequence
 395              	.LVL31:
 396 0106 0028     		cmp	r0, #0
 397 0108 40F0E280 		bne	.L14
 398              	.LBB112:
 399              		.loc 1 112 0
 400 010c 2023     		movs	r3, #32
 401              	@ 112 "../../test/testqueues.c" 1
 402 010e 83F31188 		msr     BASEPRI, r3
 403              	@ 0 "" 2
 404              		.thumb
 405              	.LBE112:
 406 0112 FFF7FEFF 		bl	dbg_check_lock
 407              	.LVL32:
 408 0116 4124     		movs	r4, #65
 409              	.LVL33:
 410              	.L27:
 411              		.loc 1 114 0
 412 0118 774D     		ldr	r5, .L40
 413 011a 2146     		mov	r1, r4
 414 011c 0134     		adds	r4, r4, #1
 415 011e 2846     		mov	r0, r5
 416 0120 E4B2     		uxtb	r4, r4
 417 0122 FFF7FEFF 		bl	chIQPutI
 418              	.LVL34:
 419              		.loc 1 113 0
 420 0126 452C     		cmp	r4, #69
 421 0128 F6D1     		bne	.L27
 422              		.loc 1 115 0
 423 012a FFF7FEFF 		bl	dbg_check_unlock
 424              	.LVL35:
 425              	.LBB113:
 426 012e 0023     		movs	r3, #0
 427              	@ 115 "../../test/testqueues.c" 1
 428 0130 83F31188 		msr     BASEPRI, r3
 429              	@ 0 "" 2
 430              		.thumb
 431              	.LBE113:
 432              		.loc 1 118 0
 433 0134 724E     		ldr	r6, .L40+8
 434 0136 0822     		movs	r2, #8
 435 0138 7168     		ldr	r1, [r6, #4]
 436 013a 2846     		mov	r0, r5
 437 013c FFF7FEFF 		bl	chIQReadTimeout
 438              	.LVL36:
 439              		.loc 1 119 0
 440 0140 041F     		subs	r4, r0, #4
 441 0142 6142     		rsbs	r1, r4, #0
 442 0144 6141     		adcs	r1, r1, r4
 443 0146 0620     		movs	r0, #6
 444              	.LVL37:
 445 0148 FFF7FEFF 		bl	_test_assert
 446              	.LVL38:
 447 014c 0446     		mov	r4, r0
ARM GAS  /tmp/ccVRPlls.s 			page 9


 448              	.LVL39:
 449 014e 0028     		cmp	r0, #0
 450 0150 40F0BE80 		bne	.L14
 451              	.LBB114:
 452              		.loc 1 120 0
 453 0154 2023     		movs	r3, #32
 454              	@ 120 "../../test/testqueues.c" 1
 455 0156 83F31188 		msr     BASEPRI, r3
 456              	@ 0 "" 2
 457              		.thumb
 458              	.LBE114:
 459 015a FFF7FEFF 		bl	dbg_check_lock
 460              	.LVL40:
 461 015e A968     		ldr	r1, [r5, #8]
 462 0160 D1F10101 		rsbs	r1, r1, #1
 463 0164 4FF00700 		mov	r0, #7
 464 0168 38BF     		it	cc
 465 016a 0021     		movcc	r1, #0
 466 016c FFF7FEFF 		bl	_test_assert
 467              	.LVL41:
 468 0170 0546     		mov	r5, r0
 469 0172 0028     		cmp	r0, #0
 470 0174 40F0AE80 		bne	.L37
 471 0178 FFF7FEFF 		bl	dbg_check_unlock
 472              	.LVL42:
 473              	.LBB115:
 474 017c 2B46     		mov	r3, r5
 475              	@ 120 "../../test/testqueues.c" 1
 476 017e 83F31188 		msr     BASEPRI, r3
 477              	@ 0 "" 2
 478              		.thumb
 479              	.LBE115:
 480              	.LBB116:
 481              		.loc 1 123 0
 482 0182 2023     		movs	r3, #32
 483              	@ 123 "../../test/testqueues.c" 1
 484 0184 83F31188 		msr     BASEPRI, r3
 485              	@ 0 "" 2
 486              		.thumb
 487              	.LBE116:
 488 0188 FFF7FEFF 		bl	dbg_check_lock
 489              	.LVL43:
 490 018c 4124     		movs	r4, #65
 491              	.LVL44:
 492              	.L31:
 493              		.loc 1 125 0
 494 018e 5A4D     		ldr	r5, .L40
 495 0190 2146     		mov	r1, r4
 496 0192 0134     		adds	r4, r4, #1
 497 0194 2846     		mov	r0, r5
 498 0196 E4B2     		uxtb	r4, r4
 499 0198 FFF7FEFF 		bl	chIQPutI
 500              	.LVL45:
 501              		.loc 1 124 0
 502 019c 452C     		cmp	r4, #69
 503 019e F6D1     		bne	.L31
 504              		.loc 1 126 0
ARM GAS  /tmp/ccVRPlls.s 			page 10


 505 01a0 FFF7FEFF 		bl	dbg_check_unlock
 506              	.LVL46:
 507              	.LBB117:
 508 01a4 0023     		movs	r3, #0
 509              	@ 126 "../../test/testqueues.c" 1
 510 01a6 83F31188 		msr     BASEPRI, r3
 511              	@ 0 "" 2
 512              		.thumb
 513              	.LBE117:
 514              		.loc 1 129 0
 515 01aa 7468     		ldr	r4, [r6, #4]
 516 01ac 544F     		ldr	r7, .L40+8
 517 01ae 2146     		mov	r1, r4
 518 01b0 2846     		mov	r0, r5
 519 01b2 0222     		movs	r2, #2
 520 01b4 FFF7FEFF 		bl	chIQReadTimeout
 521              	.LVL47:
 522              		.loc 1 130 0
 523 01b8 0238     		subs	r0, r0, #2
 524              	.LVL48:
 525 01ba 4142     		rsbs	r1, r0, #0
 526 01bc 4141     		adcs	r1, r1, r0
 527 01be 0820     		movs	r0, #8
 528              	.LVL49:
 529 01c0 FFF7FEFF 		bl	_test_assert
 530              	.LVL50:
 531 01c4 0028     		cmp	r0, #0
 532 01c6 40F08380 		bne	.L14
 533              		.loc 1 131 0
 534 01ca 0346     		mov	r3, r0
 535 01cc 2146     		mov	r1, r4
 536 01ce 0222     		movs	r2, #2
 537 01d0 2846     		mov	r0, r5
 538 01d2 FFF7FEFF 		bl	chIQReadTimeout
 539              	.LVL51:
 540              		.loc 1 132 0
 541 01d6 821E     		subs	r2, r0, #2
 542 01d8 5142     		rsbs	r1, r2, #0
 543 01da 5141     		adcs	r1, r1, r2
 544 01dc 0920     		movs	r0, #9
 545              	.LVL52:
 546 01de FFF7FEFF 		bl	_test_assert
 547              	.LVL53:
 548 01e2 0646     		mov	r6, r0
 549 01e4 0028     		cmp	r0, #0
 550 01e6 73D1     		bne	.L14
 551              	.LBB118:
 552              		.loc 1 133 0
 553 01e8 2023     		movs	r3, #32
 554              	@ 133 "../../test/testqueues.c" 1
 555 01ea 83F31188 		msr     BASEPRI, r3
 556              	@ 0 "" 2
 557              		.thumb
 558              	.LBE118:
 559 01ee FFF7FEFF 		bl	dbg_check_lock
 560              	.LVL54:
 561 01f2 A968     		ldr	r1, [r5, #8]
ARM GAS  /tmp/ccVRPlls.s 			page 11


 562 01f4 D1F10101 		rsbs	r1, r1, #1
 563 01f8 4FF00A00 		mov	r0, #10
 564 01fc 38BF     		it	cc
 565 01fe 0021     		movcc	r1, #0
 566 0200 FFF7FEFF 		bl	_test_assert
 567              	.LVL55:
 568 0204 0446     		mov	r4, r0
 569 0206 0028     		cmp	r0, #0
 570 0208 70D1     		bne	.L35
 571 020a FFF7FEFF 		bl	dbg_check_unlock
 572              	.LVL56:
 573              	.LBB119:
 574 020e 2346     		mov	r3, r4
 575              	@ 133 "../../test/testqueues.c" 1
 576 0210 83F31188 		msr     BASEPRI, r3
 577              	@ 0 "" 2
 578              		.thumb
 579              	.LBE119:
 580              	.LBB120:
 581              		.loc 1 136 0
 582 0214 2023     		movs	r3, #32
 583              	@ 136 "../../test/testqueues.c" 1
 584 0216 83F31188 		msr     BASEPRI, r3
 585              	@ 0 "" 2
 586              		.thumb
 587              	.LBE120:
 588 021a FFF7FEFF 		bl	dbg_check_lock
 589              	.LVL57:
 590              		.loc 1 137 0
 591 021e 2146     		mov	r1, r4
 592 0220 2846     		mov	r0, r5
 593 0222 FFF7FEFF 		bl	chIQPutI
 594              	.LVL58:
 595              		.loc 1 138 0
 596 0226 2846     		mov	r0, r5
 597 0228 FFF7FEFF 		bl	chIQResetI
 598              	.LVL59:
 599              		.loc 1 139 0
 600 022c FFF7FEFF 		bl	dbg_check_unlock
 601              	.LVL60:
 602              	.LBB121:
 603 0230 2346     		mov	r3, r4
 604              	@ 139 "../../test/testqueues.c" 1
 605 0232 83F31188 		msr     BASEPRI, r3
 606              	@ 0 "" 2
 607              		.thumb
 608              	.LBE121:
 609              	.LBB122:
 610              		.loc 1 140 0
 611 0236 2023     		movs	r3, #32
 612              	@ 140 "../../test/testqueues.c" 1
 613 0238 83F31188 		msr     BASEPRI, r3
 614              	@ 0 "" 2
 615              		.thumb
 616              	.LBE122:
 617 023c FFF7FEFF 		bl	dbg_check_lock
 618              	.LVL61:
ARM GAS  /tmp/ccVRPlls.s 			page 12


 619 0240 A968     		ldr	r1, [r5, #8]
 620 0242 D1F10101 		rsbs	r1, r1, #1
 621 0246 4FF00B00 		mov	r0, #11
 622 024a 38BF     		it	cc
 623 024c 0021     		movcc	r1, #0
 624 024e FFF7FEFF 		bl	_test_assert
 625              	.LVL62:
 626 0252 0646     		mov	r6, r0
 627 0254 0028     		cmp	r0, #0
 628 0256 3DD1     		bne	.L37
 629 0258 FFF7FEFF 		bl	dbg_check_unlock
 630              	.LVL63:
 631              	.LBB123:
 632 025c 3346     		mov	r3, r6
 633              	@ 140 "../../test/testqueues.c" 1
 634 025e 83F31188 		msr     BASEPRI, r3
 635              	@ 0 "" 2
 636              		.thumb
 637              	.LBE123:
 638              		.loc 1 141 0
 639 0262 284B     		ldr	r3, .L40+12
 640 0264 3868     		ldr	r0, [r7]
 641 0266 9A69     		ldr	r2, [r3, #24]
 642 0268 274B     		ldr	r3, .L40+16
 643 026a 9268     		ldr	r2, [r2, #8]
 644 026c 0096     		str	r6, [sp]
 645 026e 0132     		adds	r2, r2, #1
 646 0270 4FF4EC71 		mov	r1, #472
 647 0274 FFF7FEFF 		bl	chThdCreateStatic
 648              	.LVL64:
 649 0278 244A     		ldr	r2, .L40+20
 650              	.LBB124:
 651              		.loc 1 142 0
 652 027a 2023     		movs	r3, #32
 653              	.LBE124:
 654              		.loc 1 141 0
 655 027c 1060     		str	r0, [r2]
 656              	.LBB125:
 657              		.loc 1 142 0
 658              	@ 142 "../../test/testqueues.c" 1
 659 027e 83F31188 		msr     BASEPRI, r3
 660              	@ 0 "" 2
 661              		.thumb
 662              	.LBE125:
 663 0282 FFF7FEFF 		bl	dbg_check_lock
 664              	.LVL65:
 665 0286 A968     		ldr	r1, [r5, #8]
 666 0288 D1F10101 		rsbs	r1, r1, #1
 667 028c 4FF00C00 		mov	r0, #12
 668 0290 38BF     		it	cc
 669 0292 0021     		movcc	r1, #0
 670 0294 FFF7FEFF 		bl	_test_assert
 671              	.LVL66:
 672 0298 0446     		mov	r4, r0
 673 029a 38BB     		cbnz	r0, .L35
 674 029c FFF7FEFF 		bl	dbg_check_unlock
 675              	.LVL67:
ARM GAS  /tmp/ccVRPlls.s 			page 13


 676              	.LBB126:
 677 02a0 2346     		mov	r3, r4
 678              	@ 142 "../../test/testqueues.c" 1
 679 02a2 83F31188 		msr     BASEPRI, r3
 680              	@ 0 "" 2
 681              		.thumb
 682              	.LBE126:
 683              		.loc 1 143 0
 684 02a6 FFF7FEFF 		bl	test_wait_threads
 685              	.LVL68:
 686              		.loc 1 146 0
 687 02aa 2846     		mov	r0, r5
 688 02ac 0A21     		movs	r1, #10
 689 02ae FFF7FEFF 		bl	chIQGetTimeout
 690              	.LVL69:
 691 02b2 B0F1FF33 		subs	r3, r0, #-1
 692 02b6 5942     		rsbs	r1, r3, #0
 693 02b8 5941     		adcs	r1, r1, r3
 694 02ba 0D20     		movs	r0, #13
 695              	.LBE102:
 696              	.LBE101:
 697              		.loc 1 147 0
 698 02bc 03B0     		add	sp, sp, #12
 699              		@ sp needed
 700 02be BDE8F040 		pop	{r4, r5, r6, r7, lr}
 701              	.LBB133:
 702              	.LBB130:
 703              		.loc 1 146 0
 704 02c2 FFF7FEBF 		b	_test_assert
 705              	.LVL70:
 706              	.L36:
 707              		.loc 1 102 0
 708 02c6 FFF7FEFF 		bl	dbg_check_unlock
 709              	.LVL71:
 710              	.LBB127:
 711 02ca 0023     		movs	r3, #0
 712              	@ 102 "../../test/testqueues.c" 1
 713 02cc 83F31188 		msr     BASEPRI, r3
 714              	@ 0 "" 2
 715              		.thumb
 716              	.L14:
 717              	.LBE127:
 718              	.LBE130:
 719              	.LBE133:
 720              		.loc 1 147 0
 721 02d0 03B0     		add	sp, sp, #12
 722              		@ sp needed
 723 02d2 F0BD     		pop	{r4, r5, r6, r7, pc}
 724              	.L37:
 725              	.LBB134:
 726              	.LBB131:
 727              		.loc 1 140 0
 728 02d4 FFF7FEFF 		bl	dbg_check_unlock
 729              	.LVL72:
 730              	.LBB128:
 731 02d8 2346     		mov	r3, r4
 732              	@ 140 "../../test/testqueues.c" 1
ARM GAS  /tmp/ccVRPlls.s 			page 14


 733 02da 83F31188 		msr     BASEPRI, r3
 734              	@ 0 "" 2
 735              		.thumb
 736              	.LBE128:
 737              	.LBE131:
 738              	.LBE134:
 739              		.loc 1 147 0
 740 02de 03B0     		add	sp, sp, #12
 741              		@ sp needed
 742 02e0 F0BD     		pop	{r4, r5, r6, r7, pc}
 743              	.L39:
 744              	.LBB135:
 745              	.LBB132:
 746              		.loc 1 102 0
 747 02e2 AE68     		ldr	r6, [r5, #8]
 748 02e4 0036     		adds	r6, r6, #0
 749 02e6 18BF     		it	ne
 750 02e8 0126     		movne	r6, #1
 751 02ea C1E6     		b	.L19
 752              	.L35:
 753              		.loc 1 142 0
 754 02ec FFF7FEFF 		bl	dbg_check_unlock
 755              	.LVL73:
 756              	.LBB129:
 757 02f0 3346     		mov	r3, r6
 758              	@ 142 "../../test/testqueues.c" 1
 759 02f2 83F31188 		msr     BASEPRI, r3
 760              	@ 0 "" 2
 761              		.thumb
 762 02f6 EBE7     		b	.L14
 763              	.L41:
 764              		.align	2
 765              	.L40:
 766 02f8 00000000 		.word	.LANCHOR0
 767 02fc 00000000 		.word	.LC0
 768 0300 00000000 		.word	wa
 769 0304 00000000 		.word	rlist
 770 0308 00000000 		.word	thread1
 771 030c 00000000 		.word	threads
 772              	.LBE129:
 773              	.LBE132:
 774              	.LBE135:
 775              		.cfi_endproc
 776              	.LFE10:
 777              		.size	queues1_execute, .-queues1_execute
 778              		.section	.text.queues2_execute,"ax",%progbits
 779              		.align	2
 780              		.p2align 4,,15
 781              		.thumb
 782              		.thumb_func
 783              		.type	queues2_execute, %function
 784              	queues2_execute:
 785              	.LFB13:
 786              		.loc 1 177 0
 787              		.cfi_startproc
 788              		@ args = 0, pretend = 0, frame = 0
 789              		@ frame_needed = 0, uses_anonymous_args = 0
ARM GAS  /tmp/ccVRPlls.s 			page 15


 790 0000 2DE9F041 		push	{r4, r5, r6, r7, r8, lr}
 791              		.cfi_def_cfa_offset 24
 792              		.cfi_offset 4, -24
 793              		.cfi_offset 5, -20
 794              		.cfi_offset 6, -16
 795              		.cfi_offset 7, -12
 796              		.cfi_offset 8, -8
 797              		.cfi_offset 14, -4
 798              	.LBB169:
 799              		.loc 1 182 0
 800 0004 2023     		movs	r3, #32
 801              	.LBE169:
 802              		.loc 1 177 0
 803 0006 82B0     		sub	sp, sp, #8
 804              		.cfi_def_cfa_offset 32
 805              	.LBB170:
 806              		.loc 1 182 0
 807              	@ 182 "../../test/testqueues.c" 1
 808 0008 83F31188 		msr     BASEPRI, r3
 809              	@ 0 "" 2
 810              		.thumb
 811              	.LBE170:
 812 000c FFF7FEFF 		bl	dbg_check_lock
 813              	.LVL74:
 814 0010 AE4B     		ldr	r3, .L68
 815 0012 5969     		ldr	r1, [r3, #20]
 816 0014 9A69     		ldr	r2, [r3, #24]
 817 0016 9142     		cmp	r1, r2
 818 0018 00F03B81 		beq	.L64
 819 001c 0021     		movs	r1, #0
 820              	.L43:
 821              		.loc 1 182 0 is_stmt 0 discriminator 4
 822 001e 0120     		movs	r0, #1
 823 0020 FFF7FEFF 		bl	_test_assert
 824              	.LVL75:
 825 0024 0446     		mov	r4, r0
 826 0026 0028     		cmp	r0, #0
 827 0028 40F02B81 		bne	.L62
 828              	.LBB171:
 829              	.LBB172:
 830              		.loc 1 182 0
 831 002c FFF7FEFF 		bl	dbg_check_unlock
 832              	.LVL76:
 833              	.LBB173:
 834 0030 2346     		mov	r3, r4
 835              	@ 182 "../../test/testqueues.c" 1
 836 0032 83F31188 		msr     BASEPRI, r3
 837              	@ 0 "" 2
 838              	.LVL77:
 839              		.thumb
 840 0036 4124     		movs	r4, #65
 841              	.LVL78:
 842              	.L47:
 843              	.LBE173:
 844              		.loc 1 186 0 is_stmt 1
 845 0038 A44D     		ldr	r5, .L68
 846 003a 2146     		mov	r1, r4
ARM GAS  /tmp/ccVRPlls.s 			page 16


 847 003c 0134     		adds	r4, r4, #1
 848 003e 2846     		mov	r0, r5
 849 0040 4FF0FF32 		mov	r2, #-1
 850 0044 E4B2     		uxtb	r4, r4
 851 0046 FFF7FEFF 		bl	chOQPutTimeout
 852              	.LVL79:
 853              		.loc 1 185 0
 854 004a 452C     		cmp	r4, #69
 855 004c F4D1     		bne	.L47
 856              	.LBB174:
 857              		.loc 1 187 0
 858 004e 2023     		movs	r3, #32
 859              	@ 187 "../../test/testqueues.c" 1
 860 0050 83F31188 		msr     BASEPRI, r3
 861              	@ 0 "" 2
 862              		.thumb
 863              	.LBE174:
 864 0054 FFF7FEFF 		bl	dbg_check_lock
 865              	.LVL80:
 866 0058 A968     		ldr	r1, [r5, #8]
 867 005a D1F10101 		rsbs	r1, r1, #1
 868 005e 4FF00200 		mov	r0, #2
 869 0062 38BF     		it	cc
 870 0064 0021     		movcc	r1, #0
 871 0066 FFF7FEFF 		bl	_test_assert
 872              	.LVL81:
 873 006a 0746     		mov	r7, r0
 874 006c 0028     		cmp	r0, #0
 875 006e 40F00881 		bne	.L62
 876 0072 FFF7FEFF 		bl	dbg_check_unlock
 877              	.LVL82:
 878              	.LBB175:
 879 0076 3B46     		mov	r3, r7
 880              	@ 187 "../../test/testqueues.c" 1
 881 0078 83F31188 		msr     BASEPRI, r3
 882              	@ 0 "" 2
 883              	.LVL83:
 884              		.thumb
 885 007c 0424     		movs	r4, #4
 886              	.LVL84:
 887              	.L50:
 888              	.LBE175:
 889              	.LBB176:
 890              	.LBB177:
 891              		.loc 1 193 0
 892 007e 2023     		movs	r3, #32
 893              	@ 193 "../../test/testqueues.c" 1
 894 0080 83F31188 		msr     BASEPRI, r3
 895              	@ 0 "" 2
 896              		.thumb
 897              	.LBE177:
 898              		.loc 1 194 0
 899 0084 914D     		ldr	r5, .L68
 900              		.loc 1 193 0
 901 0086 FFF7FEFF 		bl	dbg_check_lock
 902              	.LVL85:
 903              		.loc 1 194 0
ARM GAS  /tmp/ccVRPlls.s 			page 17


 904 008a 2846     		mov	r0, r5
 905 008c FFF7FEFF 		bl	chOQGetI
 906              	.LVL86:
 907 0090 0646     		mov	r6, r0
 908              	.LVL87:
 909              		.loc 1 195 0
 910 0092 FFF7FEFF 		bl	dbg_check_unlock
 911              	.LVL88:
 912              	.LBB178:
 913 0096 0023     		movs	r3, #0
 914              	@ 195 "../../test/testqueues.c" 1
 915 0098 83F31188 		msr     BASEPRI, r3
 916              	@ 0 "" 2
 917              		.thumb
 918              	.LBE178:
 919              		.loc 1 196 0
 920 009c F0B2     		uxtb	r0, r6
 921 009e FFF7FEFF 		bl	test_emit_token
 922              	.LVL89:
 923              	.LBE176:
 924              		.loc 1 190 0
 925 00a2 013C     		subs	r4, r4, #1
 926              	.LVL90:
 927 00a4 EBD1     		bne	.L50
 928              	.LBB179:
 929              		.loc 1 198 0
 930 00a6 2023     		movs	r3, #32
 931              	@ 198 "../../test/testqueues.c" 1
 932 00a8 83F31188 		msr     BASEPRI, r3
 933              	@ 0 "" 2
 934              		.thumb
 935              	.LBE179:
 936 00ac FFF7FEFF 		bl	dbg_check_lock
 937              	.LVL91:
 938 00b0 6A69     		ldr	r2, [r5, #20]
 939 00b2 AB69     		ldr	r3, [r5, #24]
 940 00b4 9A42     		cmp	r2, r3
 941 00b6 00F0F180 		beq	.L65
 942              	.L51:
 943 00ba 3946     		mov	r1, r7
 944 00bc 0320     		movs	r0, #3
 945 00be FFF7FEFF 		bl	_test_assert
 946              	.LVL92:
 947 00c2 0446     		mov	r4, r0
 948              	.LVL93:
 949 00c4 0028     		cmp	r0, #0
 950 00c6 40F0DC80 		bne	.L62
 951 00ca FFF7FEFF 		bl	dbg_check_unlock
 952              	.LVL94:
 953              	.LBB180:
 954 00ce 2346     		mov	r3, r4
 955              	@ 198 "../../test/testqueues.c" 1
 956 00d0 83F31188 		msr     BASEPRI, r3
 957              	@ 0 "" 2
 958              		.thumb
 959              	.LBE180:
 960              		.loc 1 199 0
ARM GAS  /tmp/ccVRPlls.s 			page 18


 961 00d4 0420     		movs	r0, #4
 962 00d6 7E49     		ldr	r1, .L68+4
 963 00d8 FFF7FEFF 		bl	_test_assert_sequence
 964              	.LVL95:
 965 00dc 0446     		mov	r4, r0
 966 00de 0028     		cmp	r0, #0
 967 00e0 40F0D480 		bne	.L42
 968              	.LBB181:
 969              		.loc 1 200 0
 970 00e4 2023     		movs	r3, #32
 971              	@ 200 "../../test/testqueues.c" 1
 972 00e6 83F31188 		msr     BASEPRI, r3
 973              	@ 0 "" 2
 974              		.thumb
 975              	.LBE181:
 976 00ea 784D     		ldr	r5, .L68
 977 00ec FFF7FEFF 		bl	dbg_check_lock
 978              	.LVL96:
 979 00f0 2846     		mov	r0, r5
 980 00f2 FFF7FEFF 		bl	chOQGetI
 981              	.LVL97:
 982 00f6 0330     		adds	r0, r0, #3
 983 00f8 14BF     		ite	ne
 984 00fa 0021     		movne	r1, #0
 985 00fc 0121     		moveq	r1, #1
 986 00fe 0520     		movs	r0, #5
 987 0100 FFF7FEFF 		bl	_test_assert
 988              	.LVL98:
 989 0104 0646     		mov	r6, r0
 990              	.LVL99:
 991 0106 0028     		cmp	r0, #0
 992 0108 40F0CD80 		bne	.L63
 993 010c FFF7FEFF 		bl	dbg_check_unlock
 994              	.LVL100:
 995              	.LBB182:
 996 0110 3346     		mov	r3, r6
 997              	@ 200 "../../test/testqueues.c" 1
 998 0112 83F31188 		msr     BASEPRI, r3
 999              	@ 0 "" 2
 1000              		.thumb
 1001              	.LBE182:
 1002              		.loc 1 203 0
 1003 0116 6F4C     		ldr	r4, .L68+8
 1004 0118 6668     		ldr	r6, [r4, #4]
 1005 011a 0822     		movs	r2, #8
 1006 011c 3146     		mov	r1, r6
 1007 011e 2846     		mov	r0, r5
 1008 0120 FFF7FEFF 		bl	chOQWriteTimeout
 1009              	.LVL101:
 1010              		.loc 1 204 0
 1011 0124 B0F1040C 		subs	ip, r0, #4
 1012 0128 DCF10001 		rsbs	r1, ip, #0
 1013 012c 51EB0C01 		adcs	r1, r1, ip
 1014 0130 0620     		movs	r0, #6
 1015              	.LVL102:
 1016 0132 FFF7FEFF 		bl	_test_assert
 1017              	.LVL103:
ARM GAS  /tmp/ccVRPlls.s 			page 19


 1018 0136 0746     		mov	r7, r0
 1019 0138 0028     		cmp	r0, #0
 1020 013a 40F0A780 		bne	.L42
 1021              	.LBB183:
 1022              		.loc 1 205 0
 1023 013e 2023     		movs	r3, #32
 1024              	@ 205 "../../test/testqueues.c" 1
 1025 0140 83F31188 		msr     BASEPRI, r3
 1026              	@ 0 "" 2
 1027              		.thumb
 1028              	.LBE183:
 1029 0144 FFF7FEFF 		bl	dbg_check_lock
 1030              	.LVL104:
 1031 0148 A968     		ldr	r1, [r5, #8]
 1032 014a D1F10101 		rsbs	r1, r1, #1
 1033 014e 4FF00700 		mov	r0, #7
 1034 0152 38BF     		it	cc
 1035 0154 0021     		movcc	r1, #0
 1036 0156 FFF7FEFF 		bl	_test_assert
 1037              	.LVL105:
 1038 015a 8046     		mov	r8, r0
 1039 015c 0028     		cmp	r0, #0
 1040 015e 40F0A880 		bne	.L66
 1041 0162 FFF7FEFF 		bl	dbg_check_unlock
 1042              	.LVL106:
 1043              	.LBB184:
 1044 0166 4346     		mov	r3, r8
 1045              	@ 205 "../../test/testqueues.c" 1
 1046 0168 83F31188 		msr     BASEPRI, r3
 1047              	@ 0 "" 2
 1048              		.thumb
 1049              	.LBE184:
 1050              		.loc 1 206 0
 1051 016c 5A4B     		ldr	r3, .L68+12
 1052 016e 2068     		ldr	r0, [r4]
 1053 0170 9A69     		ldr	r2, [r3, #24]
 1054 0172 5A4B     		ldr	r3, .L68+16
 1055 0174 9268     		ldr	r2, [r2, #8]
 1056 0176 CDF80080 		str	r8, [sp]
 1057 017a 0132     		adds	r2, r2, #1
 1058 017c 4FF4EC71 		mov	r1, #472
 1059 0180 FFF7FEFF 		bl	chThdCreateStatic
 1060              	.LVL107:
 1061 0184 564A     		ldr	r2, .L68+20
 1062              	.LBB185:
 1063              		.loc 1 207 0
 1064 0186 2023     		movs	r3, #32
 1065              	.LBE185:
 1066              		.loc 1 206 0
 1067 0188 1060     		str	r0, [r2]
 1068              	.LBB186:
 1069              		.loc 1 207 0
 1070              	@ 207 "../../test/testqueues.c" 1
 1071 018a 83F31188 		msr     BASEPRI, r3
 1072              	@ 0 "" 2
 1073              		.thumb
 1074              	.LBE186:
ARM GAS  /tmp/ccVRPlls.s 			page 20


 1075 018e FFF7FEFF 		bl	dbg_check_lock
 1076              	.LVL108:
 1077 0192 2969     		ldr	r1, [r5, #16]
 1078 0194 EA68     		ldr	r2, [r5, #12]
 1079 0196 AB68     		ldr	r3, [r5, #8]
 1080 0198 8A1A     		subs	r2, r1, r2
 1081 019a D11A     		subs	r1, r2, r3
 1082 019c B1F1040E 		subs	lr, r1, #4
 1083 01a0 DEF10001 		rsbs	r1, lr, #0
 1084 01a4 51EB0E01 		adcs	r1, r1, lr
 1085 01a8 0820     		movs	r0, #8
 1086 01aa FFF7FEFF 		bl	_test_assert
 1087              	.LVL109:
 1088 01ae 0446     		mov	r4, r0
 1089 01b0 0028     		cmp	r0, #0
 1090 01b2 40F08480 		bne	.L67
 1091 01b6 FFF7FEFF 		bl	dbg_check_unlock
 1092              	.LVL110:
 1093              	.LBB187:
 1094 01ba 2346     		mov	r3, r4
 1095              	@ 207 "../../test/testqueues.c" 1
 1096 01bc 83F31188 		msr     BASEPRI, r3
 1097              	@ 0 "" 2
 1098              		.thumb
 1099              	.LBE187:
 1100              		.loc 1 208 0
 1101 01c0 FFF7FEFF 		bl	test_wait_threads
 1102              	.LVL111:
 1103              	.LBB188:
 1104              		.loc 1 211 0
 1105 01c4 2023     		movs	r3, #32
 1106              	@ 211 "../../test/testqueues.c" 1
 1107 01c6 83F31188 		msr     BASEPRI, r3
 1108              	@ 0 "" 2
 1109              		.thumb
 1110              	.LBE188:
 1111 01ca FFF7FEFF 		bl	dbg_check_lock
 1112              	.LVL112:
 1113              		.loc 1 212 0
 1114 01ce 2846     		mov	r0, r5
 1115 01d0 FFF7FEFF 		bl	chOQResetI
 1116              	.LVL113:
 1117              		.loc 1 213 0
 1118 01d4 FFF7FEFF 		bl	dbg_check_unlock
 1119              	.LVL114:
 1120              	.LBB189:
 1121 01d8 2346     		mov	r3, r4
 1122              	@ 213 "../../test/testqueues.c" 1
 1123 01da 83F31188 		msr     BASEPRI, r3
 1124              	@ 0 "" 2
 1125              		.thumb
 1126              	.LBE189:
 1127              	.LBB190:
 1128              		.loc 1 214 0
 1129 01de 2023     		movs	r3, #32
 1130              	@ 214 "../../test/testqueues.c" 1
 1131 01e0 83F31188 		msr     BASEPRI, r3
ARM GAS  /tmp/ccVRPlls.s 			page 21


 1132              	@ 0 "" 2
 1133              		.thumb
 1134              	.LBE190:
 1135 01e4 FFF7FEFF 		bl	dbg_check_lock
 1136              	.LVL115:
 1137 01e8 2969     		ldr	r1, [r5, #16]
 1138 01ea EA68     		ldr	r2, [r5, #12]
 1139 01ec AB68     		ldr	r3, [r5, #8]
 1140 01ee 891A     		subs	r1, r1, r2
 1141 01f0 CF1A     		subs	r7, r1, r3
 1142 01f2 7942     		rsbs	r1, r7, #0
 1143 01f4 7941     		adcs	r1, r1, r7
 1144 01f6 0920     		movs	r0, #9
 1145 01f8 FFF7FEFF 		bl	_test_assert
 1146              	.LVL116:
 1147 01fc 0746     		mov	r7, r0
 1148 01fe 0028     		cmp	r0, #0
 1149 0200 51D1     		bne	.L63
 1150 0202 FFF7FEFF 		bl	dbg_check_unlock
 1151              	.LVL117:
 1152              	.LBB191:
 1153 0206 3B46     		mov	r3, r7
 1154              	@ 214 "../../test/testqueues.c" 1
 1155 0208 83F31188 		msr     BASEPRI, r3
 1156              	@ 0 "" 2
 1157              		.thumb
 1158              	.LBE191:
 1159              		.loc 1 217 0
 1160 020c 0222     		movs	r2, #2
 1161 020e 3146     		mov	r1, r6
 1162 0210 2846     		mov	r0, r5
 1163 0212 FFF7FEFF 		bl	chOQWriteTimeout
 1164              	.LVL118:
 1165              		.loc 1 218 0
 1166 0216 0238     		subs	r0, r0, #2
 1167              	.LVL119:
 1168 0218 4142     		rsbs	r1, r0, #0
 1169 021a 4141     		adcs	r1, r1, r0
 1170 021c 0A20     		movs	r0, #10
 1171              	.LVL120:
 1172 021e FFF7FEFF 		bl	_test_assert
 1173              	.LVL121:
 1174 0222 0346     		mov	r3, r0
 1175 0224 90BB     		cbnz	r0, .L42
 1176              		.loc 1 219 0
 1177 0226 3146     		mov	r1, r6
 1178 0228 0222     		movs	r2, #2
 1179 022a 2846     		mov	r0, r5
 1180 022c FFF7FEFF 		bl	chOQWriteTimeout
 1181              	.LVL122:
 1182              		.loc 1 220 0
 1183 0230 821E     		subs	r2, r0, #2
 1184 0232 5142     		rsbs	r1, r2, #0
 1185 0234 5141     		adcs	r1, r1, r2
 1186 0236 0B20     		movs	r0, #11
 1187              	.LVL123:
 1188 0238 FFF7FEFF 		bl	_test_assert
ARM GAS  /tmp/ccVRPlls.s 			page 22


 1189              	.LVL124:
 1190 023c 30BB     		cbnz	r0, .L42
 1191              	.LBB192:
 1192              		.loc 1 221 0
 1193 023e 2023     		movs	r3, #32
 1194              	@ 221 "../../test/testqueues.c" 1
 1195 0240 83F31188 		msr     BASEPRI, r3
 1196              	@ 0 "" 2
 1197              		.thumb
 1198              	.LBE192:
 1199 0244 FFF7FEFF 		bl	dbg_check_lock
 1200              	.LVL125:
 1201 0248 A968     		ldr	r1, [r5, #8]
 1202 024a D1F10101 		rsbs	r1, r1, #1
 1203 024e 38BF     		it	cc
 1204 0250 0021     		movcc	r1, #0
 1205 0252 0C20     		movs	r0, #12
 1206 0254 FFF7FEFF 		bl	_test_assert
 1207              	.LVL126:
 1208 0258 98B9     		cbnz	r0, .L62
 1209 025a FFF7FEFF 		bl	dbg_check_unlock
 1210              	.LVL127:
 1211              	.LBB193:
 1212 025e 0023     		movs	r3, #0
 1213              	@ 221 "../../test/testqueues.c" 1
 1214 0260 83F31188 		msr     BASEPRI, r3
 1215              	@ 0 "" 2
 1216              		.thumb
 1217              	.LBE193:
 1218              		.loc 1 224 0
 1219 0264 0A22     		movs	r2, #10
 1220 0266 1946     		mov	r1, r3
 1221 0268 1848     		ldr	r0, .L68
 1222 026a FFF7FEFF 		bl	chOQPutTimeout
 1223              	.LVL128:
 1224 026e B0F1FF33 		subs	r3, r0, #-1
 1225 0272 5942     		rsbs	r1, r3, #0
 1226 0274 5941     		adcs	r1, r1, r3
 1227 0276 0D20     		movs	r0, #13
 1228              	.LBE172:
 1229              	.LBE171:
 1230              		.loc 1 225 0
 1231 0278 02B0     		add	sp, sp, #8
 1232              		@ sp needed
 1233 027a BDE8F041 		pop	{r4, r5, r6, r7, r8, lr}
 1234              	.LBB200:
 1235              	.LBB198:
 1236              		.loc 1 224 0
 1237 027e FFF7FEBF 		b	_test_assert
 1238              	.LVL129:
 1239              	.L62:
 1240              		.loc 1 221 0
 1241 0282 FFF7FEFF 		bl	dbg_check_unlock
 1242              	.LVL130:
 1243              	.LBB194:
 1244 0286 0023     		movs	r3, #0
 1245              	@ 221 "../../test/testqueues.c" 1
ARM GAS  /tmp/ccVRPlls.s 			page 23


 1246 0288 83F31188 		msr     BASEPRI, r3
 1247              	@ 0 "" 2
 1248              		.thumb
 1249              	.L42:
 1250              	.LBE194:
 1251              	.LBE198:
 1252              	.LBE200:
 1253              		.loc 1 225 0
 1254 028c 02B0     		add	sp, sp, #8
 1255              		@ sp needed
 1256 028e BDE8F081 		pop	{r4, r5, r6, r7, r8, pc}
 1257              	.L64:
 1258              		.loc 1 182 0 discriminator 1
 1259 0292 9968     		ldr	r1, [r3, #8]
 1260 0294 0031     		adds	r1, r1, #0
 1261 0296 18BF     		it	ne
 1262 0298 0121     		movne	r1, #1
 1263 029a C0E6     		b	.L43
 1264              	.LVL131:
 1265              	.L65:
 1266              	.LBB201:
 1267              	.LBB199:
 1268              		.loc 1 198 0
 1269 029c AF68     		ldr	r7, [r5, #8]
 1270 029e 0037     		adds	r7, r7, #0
 1271 02a0 18BF     		it	ne
 1272 02a2 0127     		movne	r7, #1
 1273 02a4 09E7     		b	.L51
 1274              	.LVL132:
 1275              	.L63:
 1276              		.loc 1 214 0
 1277 02a6 FFF7FEFF 		bl	dbg_check_unlock
 1278              	.LVL133:
 1279              	.LBB195:
 1280 02aa 2346     		mov	r3, r4
 1281              	@ 214 "../../test/testqueues.c" 1
 1282 02ac 83F31188 		msr     BASEPRI, r3
 1283              	@ 0 "" 2
 1284              		.thumb
 1285 02b0 ECE7     		b	.L42
 1286              	.L66:
 1287              	.LBE195:
 1288              		.loc 1 205 0
 1289 02b2 FFF7FEFF 		bl	dbg_check_unlock
 1290              	.LVL134:
 1291              	.LBB196:
 1292 02b6 3B46     		mov	r3, r7
 1293              	@ 205 "../../test/testqueues.c" 1
 1294 02b8 83F31188 		msr     BASEPRI, r3
 1295              	@ 0 "" 2
 1296              		.thumb
 1297 02bc E6E7     		b	.L42
 1298              	.L67:
 1299              	.LBE196:
 1300              		.loc 1 207 0
 1301 02be FFF7FEFF 		bl	dbg_check_unlock
 1302              	.LVL135:
ARM GAS  /tmp/ccVRPlls.s 			page 24


 1303              	.LBB197:
 1304 02c2 4346     		mov	r3, r8
 1305              	@ 207 "../../test/testqueues.c" 1
 1306 02c4 83F31188 		msr     BASEPRI, r3
 1307              	@ 0 "" 2
 1308              		.thumb
 1309 02c8 E0E7     		b	.L42
 1310              	.L69:
 1311 02ca 00BF     		.align	2
 1312              	.L68:
 1313 02cc 00000000 		.word	.LANCHOR1
 1314 02d0 00000000 		.word	.LC0
 1315 02d4 00000000 		.word	wa
 1316 02d8 00000000 		.word	rlist
 1317 02dc 00000000 		.word	thread2
 1318 02e0 00000000 		.word	threads
 1319              	.LBE197:
 1320              	.LBE199:
 1321              	.LBE201:
 1322              		.cfi_endproc
 1323              	.LFE13:
 1324              		.size	queues2_execute, .-queues2_execute
 1325              		.global	patternqueues
 1326              		.global	testqueues2
 1327              		.global	testqueues1
 1328 02e4 AFF30080 		.section	.rodata.testqueues1,"a",%progbits
 1328      AFF30080 
 1328      AFF30080 
 1329              		.align	2
 1330              		.type	testqueues1, %object
 1331              		.size	testqueues1, 16
 1332              	testqueues1:
 1333 0000 20000000 		.word	.LC2
 1334 0004 00000000 		.word	queues1_setup
 1335 0008 00000000 		.word	0
 1336 000c 00000000 		.word	queues1_execute
 1337              		.section	.rodata.testqueues2,"a",%progbits
 1338              		.align	2
 1339              		.type	testqueues2, %object
 1340              		.size	testqueues2, 16
 1341              	testqueues2:
 1342 0000 08000000 		.word	.LC1
 1343 0004 00000000 		.word	queues2_setup
 1344 0008 00000000 		.word	0
 1345 000c 00000000 		.word	queues2_execute
 1346              		.section	.rodata.str1.4,"aMS",%progbits,1
 1347              		.align	2
 1348              	.LC0:
 1349 0000 41424344 		.ascii	"ABCD\000"
 1349      00
 1350 0005 000000   		.space	3
 1351              	.LC1:
 1352 0008 51756575 		.ascii	"Queues, output queues\000"
 1352      65732C20 
 1352      6F757470 
 1352      75742071 
 1352      75657565 
ARM GAS  /tmp/ccVRPlls.s 			page 25


 1353 001e 0000     		.space	2
 1354              	.LC2:
 1355 0020 51756575 		.ascii	"Queues, input queues\000"
 1355      65732C20 
 1355      696E7075 
 1355      74207175 
 1355      65756573 
 1356 0035 000000   		.section	.rodata.patternqueues,"a",%progbits
 1357              		.align	2
 1358              		.type	patternqueues, %object
 1359              		.size	patternqueues, 12
 1360              	patternqueues:
 1361 0000 00000000 		.word	testqueues1
 1362 0004 00000000 		.word	testqueues2
 1363 0008 00000000 		.word	0
 1364              		.section	.data.oq,"aw",%progbits
 1365              		.align	2
 1366              		.set	.LANCHOR1,. + 0
 1367              		.type	oq, %object
 1368              		.size	oq, 36
 1369              	oq:
 1370 0000 00000000 		.word	oq
 1371 0004 00000000 		.word	oq
 1372 0008 04000000 		.word	4
 1373 000c D8010000 		.word	test+472
 1374 0010 DC010000 		.word	test+476
 1375 0014 D8010000 		.word	test+472
 1376 0018 D8010000 		.word	test+472
 1377 001c 00000000 		.word	notify
 1378 0020 00000000 		.word	0
 1379              		.section	.data.iq,"aw",%progbits
 1380              		.align	2
 1381              		.set	.LANCHOR0,. + 0
 1382              		.type	iq, %object
 1383              		.size	iq, 36
 1384              	iq:
 1385 0000 00000000 		.word	iq
 1386 0004 00000000 		.word	iq
 1387 0008 00000000 		.word	0
 1388 000c 00000000 		.word	test
 1389 0010 04000000 		.word	test+4
 1390 0014 00000000 		.word	test
 1391 0018 00000000 		.word	test
 1392 001c 00000000 		.word	notify
 1393 0020 00000000 		.word	0
 1394              		.text
 1395              	.Letext0:
 1396              		.file 2 "/opt/ARM/lib/gcc/arm-none-eabi/4.8.4/include/stddef.h"
 1397              		.file 3 "/opt/ARM/arm-none-eabi/include/machine/_default_types.h"
 1398              		.file 4 "/opt/ARM/arm-none-eabi/include/stdint.h"
 1399              		.file 5 "../../os/ports/GCC/ARMCMx/chtypes.h"
 1400              		.file 6 "../../os/kernel/include/chlists.h"
 1401              		.file 7 "../../os/kernel/include/chthreads.h"
 1402              		.file 8 "../../os/ports/GCC/ARMCMx/chcore_v7m.h"
 1403              		.file 9 "../../os/kernel/include/chschd.h"
 1404              		.file 10 "../../os/kernel/include/chmtx.h"
 1405              		.file 11 "../../os/kernel/include/chqueues.h"
ARM GAS  /tmp/ccVRPlls.s 			page 26


 1406              		.file 12 "../../test/test.h"
 1407              		.file 13 "../../os/kernel/include/chdebug.h"