ARM GAS  /tmp/ccrgxcxk.s 			page 1


   1              		.syntax unified
   2              		.cpu cortex-m4
   3              		.eabi_attribute 27, 3
   4              		.eabi_attribute 28, 1
   5              		.fpu fpv4-sp-d16
   6              		.eabi_attribute 20, 1
   7              		.eabi_attribute 21, 1
   8              		.eabi_attribute 23, 3
   9              		.eabi_attribute 24, 1
  10              		.eabi_attribute 25, 1
  11              		.eabi_attribute 26, 1
  12              		.eabi_attribute 30, 2
  13              		.eabi_attribute 34, 1
  14              		.eabi_attribute 18, 4
  15              		.thumb
  16              		.file	"testmbox.c"
  17              		.text
  18              	.Ltext0:
  19              		.cfi_sections	.debug_frame
  20              		.section	.text.mbox1_execute,"ax",%progbits
  21              		.align	2
  22              		.p2align 4,,15
  23              		.thumb
  24              		.thumb_func
  25              		.type	mbox1_execute, %function
  26              	mbox1_execute:
  27              	.LFB8:
  28              		.file 1 "../../test/testmbox.c"
  29              		.loc 1 76 0
  30              		.cfi_startproc
  31              		@ args = 0, pretend = 0, frame = 8
  32              		@ frame_needed = 0, uses_anonymous_args = 0
  33 0000 F0B5     		push	{r4, r5, r6, r7, lr}
  34              		.cfi_def_cfa_offset 20
  35              		.cfi_offset 4, -20
  36              		.cfi_offset 5, -16
  37              		.cfi_offset 6, -12
  38              		.cfi_offset 7, -8
  39              		.cfi_offset 14, -4
  40              		.loc 1 83 0
  41 0002 4B4E     		ldr	r6, .L31
  42 0004 716A     		ldr	r1, [r6, #36]
  43 0006 B1F1050E 		subs	lr, r1, #5
  44 000a DEF10001 		rsbs	r1, lr, #0
  45              		.loc 1 76 0
  46 000e 83B0     		sub	sp, sp, #12
  47              		.cfi_def_cfa_offset 32
  48              		.loc 1 83 0
  49 0010 51EB0E01 		adcs	r1, r1, lr
  50 0014 0120     		movs	r0, #1
  51 0016 FFF7FEFF 		bl	_test_assert
  52              	.LVL0:
  53 001a 00BB     		cbnz	r0, .L1
  54 001c 4224     		movs	r4, #66
  55              	.L4:
  56              	.LVL1:
  57              		.loc 1 89 0
ARM GAS  /tmp/ccrgxcxk.s 			page 2


  58 001e 444D     		ldr	r5, .L31
  59 0020 2146     		mov	r1, r4
  60 0022 2846     		mov	r0, r5
  61 0024 4FF0FF32 		mov	r2, #-1
  62 0028 FFF7FEFF 		bl	chMBPost
  63              	.LVL2:
  64              		.loc 1 90 0
  65 002c D0F10101 		rsbs	r1, r0, #1
  66 0030 38BF     		it	cc
  67 0032 0021     		movcc	r1, #0
  68 0034 0220     		movs	r0, #2
  69              	.LVL3:
  70 0036 0134     		adds	r4, r4, #1
  71              	.LVL4:
  72 0038 FFF7FEFF 		bl	_test_assert
  73              	.LVL5:
  74 003c 78B9     		cbnz	r0, .L1
  75              		.loc 1 88 0
  76 003e 462C     		cmp	r4, #70
  77 0040 EDD1     		bne	.L4
  78              		.loc 1 92 0
  79 0042 4121     		movs	r1, #65
  80 0044 2846     		mov	r0, r5
  81 0046 4FF0FF32 		mov	r2, #-1
  82 004a FFF7FEFF 		bl	chMBPostAhead
  83              	.LVL6:
  84              		.loc 1 93 0
  85 004e D0F10101 		rsbs	r1, r0, #1
  86 0052 38BF     		it	cc
  87 0054 0021     		movcc	r1, #0
  88 0056 0320     		movs	r0, #3
  89              	.LVL7:
  90 0058 FFF7FEFF 		bl	_test_assert
  91              	.LVL8:
  92 005c 08B1     		cbz	r0, .L30
  93              	.L1:
  94              		.loc 1 220 0
  95 005e 03B0     		add	sp, sp, #12
  96              		@ sp needed
  97 0060 F0BD     		pop	{r4, r5, r6, r7, pc}
  98              	.L30:
  99              		.loc 1 98 0
 100 0062 5821     		movs	r1, #88
 101 0064 0122     		movs	r2, #1
 102 0066 2846     		mov	r0, r5
 103 0068 FFF7FEFF 		bl	chMBPost
 104              	.LVL9:
 105              		.loc 1 99 0
 106 006c B0F1FF37 		subs	r7, r0, #-1
 107 0070 7942     		rsbs	r1, r7, #0
 108 0072 7941     		adcs	r1, r1, r7
 109 0074 0420     		movs	r0, #4
 110              	.LVL10:
 111 0076 FFF7FEFF 		bl	_test_assert
 112              	.LVL11:
 113 007a 0446     		mov	r4, r0
 114 007c 0028     		cmp	r0, #0
ARM GAS  /tmp/ccrgxcxk.s 			page 3


 115 007e EED1     		bne	.L1
 116              	.LBB2:
 117              		.loc 1 100 0
 118 0080 2023     		movs	r3, #32
 119              	@ 100 "../../test/testmbox.c" 1
 120 0082 83F31188 		msr     BASEPRI, r3
 121              	@ 0 "" 2
 122              		.thumb
 123              	.LBE2:
 124 0086 FFF7FEFF 		bl	dbg_check_lock
 125              	.LVL12:
 126              		.loc 1 101 0
 127 008a 5821     		movs	r1, #88
 128 008c 2846     		mov	r0, r5
 129 008e FFF7FEFF 		bl	chMBPostI
 130              	.LVL13:
 131 0092 0746     		mov	r7, r0
 132              	.LVL14:
 133              		.loc 1 102 0
 134 0094 FFF7FEFF 		bl	dbg_check_unlock
 135              	.LVL15:
 136              	.LBB3:
 137 0098 2346     		mov	r3, r4
 138              	@ 102 "../../test/testmbox.c" 1
 139 009a 83F31188 		msr     BASEPRI, r3
 140              	@ 0 "" 2
 141              		.thumb
 142              	.LBE3:
 143              		.loc 1 103 0
 144 009e B7F1FF34 		subs	r4, r7, #-1
 145 00a2 6142     		rsbs	r1, r4, #0
 146 00a4 6141     		adcs	r1, r1, r4
 147 00a6 0520     		movs	r0, #5
 148 00a8 FFF7FEFF 		bl	_test_assert
 149              	.LVL16:
 150 00ac 0028     		cmp	r0, #0
 151 00ae D6D1     		bne	.L1
 152              		.loc 1 104 0
 153 00b0 5821     		movs	r1, #88
 154 00b2 0122     		movs	r2, #1
 155 00b4 2846     		mov	r0, r5
 156 00b6 FFF7FEFF 		bl	chMBPostAhead
 157              	.LVL17:
 158              		.loc 1 105 0
 159 00ba B0F1FF30 		subs	r0, r0, #-1
 160              	.LVL18:
 161 00be 4142     		rsbs	r1, r0, #0
 162 00c0 4141     		adcs	r1, r1, r0
 163 00c2 0620     		movs	r0, #6
 164              	.LVL19:
 165 00c4 FFF7FEFF 		bl	_test_assert
 166              	.LVL20:
 167 00c8 0446     		mov	r4, r0
 168 00ca 0028     		cmp	r0, #0
 169 00cc C7D1     		bne	.L1
 170              	.LBB4:
 171              		.loc 1 106 0
ARM GAS  /tmp/ccrgxcxk.s 			page 4


 172 00ce 2023     		movs	r3, #32
 173              	@ 106 "../../test/testmbox.c" 1
 174 00d0 83F31188 		msr     BASEPRI, r3
 175              	@ 0 "" 2
 176              		.thumb
 177              	.LBE4:
 178 00d4 FFF7FEFF 		bl	dbg_check_lock
 179              	.LVL21:
 180              		.loc 1 107 0
 181 00d8 5821     		movs	r1, #88
 182 00da 2846     		mov	r0, r5
 183 00dc FFF7FEFF 		bl	chMBPostAheadI
 184              	.LVL22:
 185 00e0 0746     		mov	r7, r0
 186              	.LVL23:
 187              		.loc 1 108 0
 188 00e2 FFF7FEFF 		bl	dbg_check_unlock
 189              	.LVL24:
 190              	.LBB5:
 191 00e6 2346     		mov	r3, r4
 192              	@ 108 "../../test/testmbox.c" 1
 193 00e8 83F31188 		msr     BASEPRI, r3
 194              	@ 0 "" 2
 195              		.thumb
 196              	.LBE5:
 197              		.loc 1 109 0
 198 00ec B7F1FF32 		subs	r2, r7, #-1
 199 00f0 5142     		rsbs	r1, r2, #0
 200 00f2 4FF00700 		mov	r0, #7
 201 00f6 5141     		adcs	r1, r1, r2
 202 00f8 FFF7FEFF 		bl	_test_assert
 203              	.LVL25:
 204 00fc 0746     		mov	r7, r0
 205              	.LVL26:
 206 00fe 0028     		cmp	r0, #0
 207 0100 ADD1     		bne	.L1
 208              	.LBB6:
 209              		.loc 1 114 0
 210 0102 2023     		movs	r3, #32
 211              	@ 114 "../../test/testmbox.c" 1
 212 0104 83F31188 		msr     BASEPRI, r3
 213              	@ 0 "" 2
 214              		.thumb
 215              	.LBE6:
 216 0108 FFF7FEFF 		bl	dbg_check_lock
 217              	.LVL27:
 218 010c 696A     		ldr	r1, [r5, #36]
 219 010e D1F10101 		rsbs	r1, r1, #1
 220 0112 4FF00800 		mov	r0, #8
 221 0116 38BF     		it	cc
 222 0118 0021     		movcc	r1, #0
 223 011a FFF7FEFF 		bl	_test_assert
 224              	.LVL28:
 225 011e 0446     		mov	r4, r0
 226 0120 40B1     		cbz	r0, .L5
 227              		.loc 1 114 0 is_stmt 0 discriminator 1
 228 0122 FFF7FEFF 		bl	dbg_check_unlock
ARM GAS  /tmp/ccrgxcxk.s 			page 5


 229              	.LVL29:
 230              	.LBB7:
 231 0126 3B46     		mov	r3, r7
 232              	@ 114 "../../test/testmbox.c" 1
 233 0128 83F31188 		msr     BASEPRI, r3
 234              	@ 0 "" 2
 235              		.thumb
 236              	.LBE7:
 237 012c 97E7     		b	.L1
 238              	.L32:
 239 012e 00BF     		.align	2
 240              	.L31:
 241 0130 00000000 		.word	.LANCHOR0
 242              	.L5:
 243              		.loc 1 114 0 discriminator 2
 244 0134 FFF7FEFF 		bl	dbg_check_unlock
 245              	.LVL30:
 246              	.LBB8:
 247 0138 2346     		mov	r3, r4
 248              	@ 114 "../../test/testmbox.c" 1
 249 013a 83F31188 		msr     BASEPRI, r3
 250              	@ 0 "" 2
 251              		.thumb
 252              	.LBE8:
 253              	.LBB9:
 254              		.loc 1 115 0 is_stmt 1 discriminator 2
 255 013e 2023     		movs	r3, #32
 256              	@ 115 "../../test/testmbox.c" 1
 257 0140 83F31188 		msr     BASEPRI, r3
 258              	@ 0 "" 2
 259              		.thumb
 260              	.LBE9:
 261 0144 FFF7FEFF 		bl	dbg_check_lock
 262              	.LVL31:
 263 0148 A969     		ldr	r1, [r5, #24]
 264 014a 4B1F     		subs	r3, r1, #5
 265 014c 5942     		rsbs	r1, r3, #0
 266 014e 4FF00900 		mov	r0, #9
 267 0152 5941     		adcs	r1, r1, r3
 268 0154 FFF7FEFF 		bl	_test_assert
 269              	.LVL32:
 270 0158 0746     		mov	r7, r0
 271 015a 0028     		cmp	r0, #0
 272 015c 40F0AF82 		bne	.L27
 273 0160 FFF7FEFF 		bl	dbg_check_unlock
 274              	.LVL33:
 275              	.LBB10:
 276 0164 3B46     		mov	r3, r7
 277              	@ 115 "../../test/testmbox.c" 1
 278 0166 83F31188 		msr     BASEPRI, r3
 279              	@ 0 "" 2
 280              		.thumb
 281              	.LBE10:
 282              	.LBB11:
 283              		.loc 1 116 0 discriminator 2
 284 016a 2023     		movs	r3, #32
 285              	@ 116 "../../test/testmbox.c" 1
ARM GAS  /tmp/ccrgxcxk.s 			page 6


 286 016c 83F31188 		msr     BASEPRI, r3
 287              	@ 0 "" 2
 288              		.thumb
 289              	.LBE11:
 290 0170 FFF7FEFF 		bl	dbg_check_lock
 291              	.LVL34:
 292 0174 E968     		ldr	r1, [r5, #12]
 293 0176 AB68     		ldr	r3, [r5, #8]
 294 0178 B1EB030C 		subs	ip, r1, r3
 295 017c DCF10001 		rsbs	r1, ip, #0
 296 0180 51EB0C01 		adcs	r1, r1, ip
 297 0184 0A20     		movs	r0, #10
 298 0186 FFF7FEFF 		bl	_test_assert
 299              	.LVL35:
 300 018a 0028     		cmp	r0, #0
 301 018c 40F09182 		bne	.L25
 302 0190 FFF7FEFF 		bl	dbg_check_unlock
 303              	.LVL36:
 304              	.LBB12:
 305 0194 0023     		movs	r3, #0
 306              	@ 116 "../../test/testmbox.c" 1
 307 0196 83F31188 		msr     BASEPRI, r3
 308              	@ 0 "" 2
 309              	.LVL37:
 310              		.thumb
 311 019a 0525     		movs	r5, #5
 312              	.LVL38:
 313              	.L10:
 314              	.LBE12:
 315              		.loc 1 122 0
 316 019c B84C     		ldr	r4, .L33
 317 019e 01A9     		add	r1, sp, #4
 318 01a0 2046     		mov	r0, r4
 319 01a2 4FF0FF32 		mov	r2, #-1
 320 01a6 FFF7FEFF 		bl	chMBFetch
 321              	.LVL39:
 322              		.loc 1 123 0
 323 01aa D0F10101 		rsbs	r1, r0, #1
 324 01ae 38BF     		it	cc
 325 01b0 0021     		movcc	r1, #0
 326 01b2 0B20     		movs	r0, #11
 327              	.LVL40:
 328 01b4 FFF7FEFF 		bl	_test_assert
 329              	.LVL41:
 330 01b8 0028     		cmp	r0, #0
 331 01ba 7FF450AF 		bne	.L1
 332              		.loc 1 124 0
 333 01be 9DF80400 		ldrb	r0, [sp, #4]	@ zero_extendqisi2
 334 01c2 FFF7FEFF 		bl	test_emit_token
 335              	.LVL42:
 336              		.loc 1 121 0
 337 01c6 013D     		subs	r5, r5, #1
 338              	.LVL43:
 339 01c8 E8D1     		bne	.L10
 340              		.loc 1 126 0
 341 01ca 0C20     		movs	r0, #12
 342 01cc AD49     		ldr	r1, .L33+4
ARM GAS  /tmp/ccrgxcxk.s 			page 7


 343 01ce FFF7FEFF 		bl	_test_assert_sequence
 344              	.LVL44:
 345 01d2 0028     		cmp	r0, #0
 346 01d4 7FF443AF 		bne	.L1
 347              		.loc 1 131 0
 348 01d8 4721     		movs	r1, #71
 349 01da 2046     		mov	r0, r4
 350 01dc 4FF0FF32 		mov	r2, #-1
 351 01e0 FFF7FEFF 		bl	chMBPost
 352              	.LVL45:
 353              		.loc 1 132 0
 354 01e4 D0F10101 		rsbs	r1, r0, #1
 355 01e8 38BF     		it	cc
 356 01ea 0021     		movcc	r1, #0
 357 01ec 0D20     		movs	r0, #13
 358              	.LVL46:
 359 01ee FFF7FEFF 		bl	_test_assert
 360              	.LVL47:
 361 01f2 0028     		cmp	r0, #0
 362 01f4 7FF433AF 		bne	.L1
 363              		.loc 1 133 0
 364 01f8 01A9     		add	r1, sp, #4
 365 01fa 2046     		mov	r0, r4
 366 01fc 4FF0FF32 		mov	r2, #-1
 367 0200 FFF7FEFF 		bl	chMBFetch
 368              	.LVL48:
 369              		.loc 1 134 0
 370 0204 D0F10101 		rsbs	r1, r0, #1
 371 0208 38BF     		it	cc
 372 020a 0021     		movcc	r1, #0
 373 020c 0E20     		movs	r0, #14
 374              	.LVL49:
 375 020e FFF7FEFF 		bl	_test_assert
 376              	.LVL50:
 377 0212 0028     		cmp	r0, #0
 378 0214 7FF423AF 		bne	.L1
 379              		.loc 1 135 0
 380 0218 2168     		ldr	r1, [r4]
 381 021a A368     		ldr	r3, [r4, #8]
 382 021c B1EB030E 		subs	lr, r1, r3
 383 0220 DEF10001 		rsbs	r1, lr, #0
 384 0224 51EB0E01 		adcs	r1, r1, lr
 385 0228 0F20     		movs	r0, #15
 386 022a FFF7FEFF 		bl	_test_assert
 387              	.LVL51:
 388 022e 0028     		cmp	r0, #0
 389 0230 7FF415AF 		bne	.L1
 390              		.loc 1 136 0
 391 0234 2168     		ldr	r1, [r4]
 392 0236 E368     		ldr	r3, [r4, #12]
 393 0238 CF1A     		subs	r7, r1, r3
 394 023a 7942     		rsbs	r1, r7, #0
 395 023c 7941     		adcs	r1, r1, r7
 396 023e 1020     		movs	r0, #16
 397 0240 FFF7FEFF 		bl	_test_assert
 398              	.LVL52:
 399 0244 0028     		cmp	r0, #0
ARM GAS  /tmp/ccrgxcxk.s 			page 8


 400 0246 7FF40AAF 		bne	.L1
 401              		.loc 1 141 0
 402 024a 01A9     		add	r1, sp, #4
 403 024c 2046     		mov	r0, r4
 404 024e 0122     		movs	r2, #1
 405 0250 FFF7FEFF 		bl	chMBFetch
 406              	.LVL53:
 407              		.loc 1 142 0
 408 0254 B0F1FF30 		subs	r0, r0, #-1
 409              	.LVL54:
 410 0258 4142     		rsbs	r1, r0, #0
 411 025a 4141     		adcs	r1, r1, r0
 412 025c 1120     		movs	r0, #17
 413              	.LVL55:
 414 025e FFF7FEFF 		bl	_test_assert
 415              	.LVL56:
 416 0262 0028     		cmp	r0, #0
 417 0264 7FF4FBAE 		bne	.L1
 418              	.LBB13:
 419              		.loc 1 143 0
 420 0268 2023     		movs	r3, #32
 421              	@ 143 "../../test/testmbox.c" 1
 422 026a 83F31188 		msr     BASEPRI, r3
 423              	@ 0 "" 2
 424              		.thumb
 425              	.LBE13:
 426 026e FFF7FEFF 		bl	dbg_check_lock
 427              	.LVL57:
 428              		.loc 1 144 0
 429 0272 01A9     		add	r1, sp, #4
 430 0274 2046     		mov	r0, r4
 431 0276 FFF7FEFF 		bl	chMBFetchI
 432              	.LVL58:
 433 027a 0746     		mov	r7, r0
 434              	.LVL59:
 435              		.loc 1 145 0
 436 027c FFF7FEFF 		bl	dbg_check_unlock
 437              	.LVL60:
 438              	.LBB14:
 439 0280 2B46     		mov	r3, r5
 440              	@ 145 "../../test/testmbox.c" 1
 441 0282 83F31188 		msr     BASEPRI, r3
 442              	@ 0 "" 2
 443              		.thumb
 444              	.LBE14:
 445              		.loc 1 146 0
 446 0286 B7F1FF32 		subs	r2, r7, #-1
 447 028a 5142     		rsbs	r1, r2, #0
 448 028c 5141     		adcs	r1, r1, r2
 449 028e 1220     		movs	r0, #18
 450 0290 FFF7FEFF 		bl	_test_assert
 451              	.LVL61:
 452 0294 0028     		cmp	r0, #0
 453 0296 7FF4E2AE 		bne	.L1
 454              	.LBB15:
 455              		.loc 1 151 0
 456 029a 2023     		movs	r3, #32
ARM GAS  /tmp/ccrgxcxk.s 			page 9


 457              	@ 151 "../../test/testmbox.c" 1
 458 029c 83F31188 		msr     BASEPRI, r3
 459              	@ 0 "" 2
 460              		.thumb
 461              	.LBE15:
 462 02a0 FFF7FEFF 		bl	dbg_check_lock
 463              	.LVL62:
 464 02a4 616A     		ldr	r1, [r4, #36]
 465 02a6 4B1F     		subs	r3, r1, #5
 466 02a8 5942     		rsbs	r1, r3, #0
 467 02aa 5941     		adcs	r1, r1, r3
 468 02ac 1320     		movs	r0, #19
 469 02ae FFF7FEFF 		bl	_test_assert
 470              	.LVL63:
 471 02b2 0028     		cmp	r0, #0
 472 02b4 40F0FD81 		bne	.L25
 473              		.loc 1 151 0 is_stmt 0 discriminator 2
 474 02b8 FFF7FEFF 		bl	dbg_check_unlock
 475              	.LVL64:
 476              	.LBB16:
 477 02bc 0023     		movs	r3, #0
 478              	@ 151 "../../test/testmbox.c" 1
 479 02be 83F31188 		msr     BASEPRI, r3
 480              	@ 0 "" 2
 481              		.thumb
 482              	.LBE16:
 483              	.LBB17:
 484              		.loc 1 152 0 is_stmt 1 discriminator 2
 485 02c2 2023     		movs	r3, #32
 486              	@ 152 "../../test/testmbox.c" 1
 487 02c4 83F31188 		msr     BASEPRI, r3
 488              	@ 0 "" 2
 489              		.thumb
 490              	.LBE17:
 491 02c8 FFF7FEFF 		bl	dbg_check_lock
 492              	.LVL65:
 493 02cc B169     		ldr	r1, [r6, #24]
 494 02ce 6C4C     		ldr	r4, .L33
 495 02d0 D1F10101 		rsbs	r1, r1, #1
 496 02d4 38BF     		it	cc
 497 02d6 0021     		movcc	r1, #0
 498 02d8 1420     		movs	r0, #20
 499 02da FFF7FEFF 		bl	_test_assert
 500              	.LVL66:
 501 02de 0546     		mov	r5, r0
 502              	.LVL67:
 503 02e0 0028     		cmp	r0, #0
 504 02e2 40F0E681 		bne	.L25
 505 02e6 FFF7FEFF 		bl	dbg_check_unlock
 506              	.LVL68:
 507              	.LBB18:
 508 02ea 2B46     		mov	r3, r5
 509              	@ 152 "../../test/testmbox.c" 1
 510 02ec 83F31188 		msr     BASEPRI, r3
 511              	@ 0 "" 2
 512              		.thumb
 513              	.LBE18:
ARM GAS  /tmp/ccrgxcxk.s 			page 10


 514              	.LBB19:
 515              		.loc 1 153 0 discriminator 2
 516 02f0 2023     		movs	r3, #32
 517              	@ 153 "../../test/testmbox.c" 1
 518 02f2 83F31188 		msr     BASEPRI, r3
 519              	@ 0 "" 2
 520              		.thumb
 521              	.LBE19:
 522 02f6 FFF7FEFF 		bl	dbg_check_lock
 523              	.LVL69:
 524 02fa E168     		ldr	r1, [r4, #12]
 525 02fc A368     		ldr	r3, [r4, #8]
 526 02fe B1EB030C 		subs	ip, r1, r3
 527 0302 DCF10001 		rsbs	r1, ip, #0
 528 0306 4FF01500 		mov	r0, #21
 529 030a 51EB0C01 		adcs	r1, r1, ip
 530 030e FFF7FEFF 		bl	_test_assert
 531              	.LVL70:
 532 0312 0646     		mov	r6, r0
 533 0314 0028     		cmp	r0, #0
 534 0316 40F0AC80 		bne	.L28
 535 031a FFF7FEFF 		bl	dbg_check_unlock
 536              	.LVL71:
 537              	.LBB20:
 538 031e 3346     		mov	r3, r6
 539              	@ 153 "../../test/testmbox.c" 1
 540 0320 83F31188 		msr     BASEPRI, r3
 541              	@ 0 "" 2
 542              		.thumb
 543              	.LBE20:
 544              	.LBB21:
 545              		.loc 1 158 0 discriminator 2
 546 0324 2023     		movs	r3, #32
 547              	@ 158 "../../test/testmbox.c" 1
 548 0326 83F31188 		msr     BASEPRI, r3
 549              	@ 0 "" 2
 550              		.thumb
 551              	.LBE21:
 552 032a FFF7FEFF 		bl	dbg_check_lock
 553              	.LVL72:
 554              		.loc 1 159 0 discriminator 2
 555 032e 4121     		movs	r1, #65
 556 0330 2046     		mov	r0, r4
 557 0332 FFF7FEFF 		bl	chMBPostI
 558              	.LVL73:
 559              		.loc 1 160 0 discriminator 2
 560 0336 D0F10101 		rsbs	r1, r0, #1
 561 033a 38BF     		it	cc
 562 033c 0021     		movcc	r1, #0
 563 033e 1620     		movs	r0, #22
 564              	.LVL74:
 565 0340 FFF7FEFF 		bl	_test_assert
 566              	.LVL75:
 567 0344 0028     		cmp	r0, #0
 568 0346 7FF48AAE 		bne	.L1
 569              		.loc 1 161 0
 570 034a 4221     		movs	r1, #66
ARM GAS  /tmp/ccrgxcxk.s 			page 11


 571 034c 2046     		mov	r0, r4
 572 034e FFF7FEFF 		bl	chMBPostI
 573              	.LVL76:
 574              		.loc 1 162 0
 575 0352 D0F10101 		rsbs	r1, r0, #1
 576 0356 38BF     		it	cc
 577 0358 0021     		movcc	r1, #0
 578 035a 1720     		movs	r0, #23
 579              	.LVL77:
 580 035c FFF7FEFF 		bl	_test_assert
 581              	.LVL78:
 582 0360 0028     		cmp	r0, #0
 583 0362 7FF47CAE 		bne	.L1
 584              		.loc 1 163 0
 585 0366 4321     		movs	r1, #67
 586 0368 2046     		mov	r0, r4
 587 036a FFF7FEFF 		bl	chMBPostI
 588              	.LVL79:
 589              		.loc 1 164 0
 590 036e D0F10101 		rsbs	r1, r0, #1
 591 0372 38BF     		it	cc
 592 0374 0021     		movcc	r1, #0
 593 0376 1820     		movs	r0, #24
 594              	.LVL80:
 595 0378 FFF7FEFF 		bl	_test_assert
 596              	.LVL81:
 597 037c 0028     		cmp	r0, #0
 598 037e 7FF46EAE 		bne	.L1
 599              		.loc 1 165 0
 600 0382 4421     		movs	r1, #68
 601 0384 2046     		mov	r0, r4
 602 0386 FFF7FEFF 		bl	chMBPostI
 603              	.LVL82:
 604              		.loc 1 166 0
 605 038a D0F10101 		rsbs	r1, r0, #1
 606 038e 38BF     		it	cc
 607 0390 0021     		movcc	r1, #0
 608 0392 1920     		movs	r0, #25
 609              	.LVL83:
 610 0394 FFF7FEFF 		bl	_test_assert
 611              	.LVL84:
 612 0398 0546     		mov	r5, r0
 613 039a 0028     		cmp	r0, #0
 614 039c 7FF45FAE 		bne	.L1
 615              		.loc 1 167 0
 616 03a0 4521     		movs	r1, #69
 617 03a2 2046     		mov	r0, r4
 618 03a4 FFF7FEFF 		bl	chMBPostI
 619              	.LVL85:
 620 03a8 0646     		mov	r6, r0
 621              	.LVL86:
 622              		.loc 1 168 0
 623 03aa FFF7FEFF 		bl	dbg_check_unlock
 624              	.LVL87:
 625              	.LBB22:
 626 03ae 2B46     		mov	r3, r5
 627              	@ 168 "../../test/testmbox.c" 1
ARM GAS  /tmp/ccrgxcxk.s 			page 12


 628 03b0 83F31188 		msr     BASEPRI, r3
 629              	@ 0 "" 2
 630              		.thumb
 631              	.LBE22:
 632              		.loc 1 169 0
 633 03b4 D6F10101 		rsbs	r1, r6, #1
 634 03b8 38BF     		it	cc
 635 03ba 0021     		movcc	r1, #0
 636 03bc 1A20     		movs	r0, #26
 637 03be FFF7FEFF 		bl	_test_assert
 638              	.LVL88:
 639 03c2 0028     		cmp	r0, #0
 640 03c4 7FF44BAE 		bne	.L1
 641              		.loc 1 170 0
 642 03c8 E168     		ldr	r1, [r4, #12]
 643 03ca A368     		ldr	r3, [r4, #8]
 644 03cc B1EB030E 		subs	lr, r1, r3
 645 03d0 DEF10001 		rsbs	r1, lr, #0
 646 03d4 51EB0E01 		adcs	r1, r1, lr
 647 03d8 1B20     		movs	r0, #27
 648 03da FFF7FEFF 		bl	_test_assert
 649              	.LVL89:
 650 03de 0028     		cmp	r0, #0
 651 03e0 7FF43DAE 		bne	.L1
 652 03e4 0525     		movs	r5, #5
 653              	.L15:
 654              	.LVL90:
 655              	.LBB23:
 656              		.loc 1 172 0
 657 03e6 2023     		movs	r3, #32
 658              	@ 172 "../../test/testmbox.c" 1
 659 03e8 83F31188 		msr     BASEPRI, r3
 660              	@ 0 "" 2
 661              		.thumb
 662              	.LBE23:
 663              		.loc 1 173 0
 664 03ec 244C     		ldr	r4, .L33
 665              		.loc 1 172 0
 666 03ee FFF7FEFF 		bl	dbg_check_lock
 667              	.LVL91:
 668              		.loc 1 173 0
 669 03f2 01A9     		add	r1, sp, #4
 670 03f4 2046     		mov	r0, r4
 671 03f6 FFF7FEFF 		bl	chMBFetchI
 672              	.LVL92:
 673 03fa 0646     		mov	r6, r0
 674              	.LVL93:
 675              		.loc 1 174 0
 676 03fc FFF7FEFF 		bl	dbg_check_unlock
 677              	.LVL94:
 678              	.LBB24:
 679 0400 0023     		movs	r3, #0
 680              	@ 174 "../../test/testmbox.c" 1
 681 0402 83F31188 		msr     BASEPRI, r3
 682              	@ 0 "" 2
 683              		.thumb
 684              	.LBE24:
ARM GAS  /tmp/ccrgxcxk.s 			page 13


 685              		.loc 1 175 0
 686 0406 F71A     		subs	r7, r6, r3
 687 0408 7942     		rsbs	r1, r7, #0
 688 040a 7941     		adcs	r1, r1, r7
 689 040c 1C20     		movs	r0, #28
 690 040e FFF7FEFF 		bl	_test_assert
 691              	.LVL95:
 692 0412 0028     		cmp	r0, #0
 693 0414 7FF423AE 		bne	.L1
 694              		.loc 1 176 0
 695 0418 9DF80400 		ldrb	r0, [sp, #4]	@ zero_extendqisi2
 696 041c FFF7FEFF 		bl	test_emit_token
 697              	.LVL96:
 698              		.loc 1 171 0
 699 0420 013D     		subs	r5, r5, #1
 700              	.LVL97:
 701 0422 E0D1     		bne	.L15
 702              		.loc 1 178 0
 703 0424 1D20     		movs	r0, #29
 704 0426 1749     		ldr	r1, .L33+4
 705 0428 FFF7FEFF 		bl	_test_assert_sequence
 706              	.LVL98:
 707 042c 0028     		cmp	r0, #0
 708 042e 7FF416AE 		bne	.L1
 709              	.LBB25:
 710              		.loc 1 179 0
 711 0432 2023     		movs	r3, #32
 712              	@ 179 "../../test/testmbox.c" 1
 713 0434 83F31188 		msr     BASEPRI, r3
 714              	@ 0 "" 2
 715              		.thumb
 716              	.LBE25:
 717 0438 FFF7FEFF 		bl	dbg_check_lock
 718              	.LVL99:
 719 043c 616A     		ldr	r1, [r4, #36]
 720 043e 4E1F     		subs	r6, r1, #5
 721              	.LVL100:
 722 0440 7142     		rsbs	r1, r6, #0
 723 0442 7141     		adcs	r1, r1, r6
 724 0444 1E20     		movs	r0, #30
 725 0446 FFF7FEFF 		bl	_test_assert
 726              	.LVL101:
 727 044a 90B9     		cbnz	r0, .L28
 728              		.loc 1 179 0 is_stmt 0 discriminator 2
 729 044c FFF7FEFF 		bl	dbg_check_unlock
 730              	.LVL102:
 731              	.LBB26:
 732 0450 2B46     		mov	r3, r5
 733              	@ 179 "../../test/testmbox.c" 1
 734 0452 83F31188 		msr     BASEPRI, r3
 735              	@ 0 "" 2
 736              		.thumb
 737              	.LBE26:
 738              	.LBB27:
 739              		.loc 1 180 0 is_stmt 1 discriminator 2
 740 0456 2023     		movs	r3, #32
 741              	@ 180 "../../test/testmbox.c" 1
ARM GAS  /tmp/ccrgxcxk.s 			page 14


 742 0458 83F31188 		msr     BASEPRI, r3
 743              	@ 0 "" 2
 744              		.thumb
 745              	.LBE27:
 746 045c FFF7FEFF 		bl	dbg_check_lock
 747              	.LVL103:
 748 0460 A169     		ldr	r1, [r4, #24]
 749 0462 D1F10101 		rsbs	r1, r1, #1
 750 0466 38BF     		it	cc
 751 0468 0021     		movcc	r1, #0
 752 046a 1F20     		movs	r0, #31
 753 046c FFF7FEFF 		bl	_test_assert
 754              	.LVL104:
 755 0470 50B1     		cbz	r0, .L17
 756              	.LVL105:
 757              	.L28:
 758              		.loc 1 180 0 is_stmt 0 discriminator 1
 759 0472 FFF7FEFF 		bl	dbg_check_unlock
 760              	.LVL106:
 761              	.LBB28:
 762 0476 2B46     		mov	r3, r5
 763              	@ 180 "../../test/testmbox.c" 1
 764 0478 83F31188 		msr     BASEPRI, r3
 765              	@ 0 "" 2
 766              		.thumb
 767              	.LBE28:
 768 047c EFE5     		b	.L1
 769              	.L34:
 770 047e 00BF     		.align	2
 771              	.L33:
 772 0480 00000000 		.word	.LANCHOR0
 773 0484 00000000 		.word	.LC0
 774              	.LVL107:
 775              	.L17:
 776              		.loc 1 180 0 discriminator 2
 777 0488 FFF7FEFF 		bl	dbg_check_unlock
 778              	.LVL108:
 779              	.LBB29:
 780 048c 2B46     		mov	r3, r5
 781              	@ 180 "../../test/testmbox.c" 1
 782 048e 83F31188 		msr     BASEPRI, r3
 783              	@ 0 "" 2
 784              		.thumb
 785              	.LBE29:
 786              		.loc 1 181 0 is_stmt 1 discriminator 2
 787 0492 E168     		ldr	r1, [r4, #12]
 788 0494 A368     		ldr	r3, [r4, #8]
 789 0496 CD1A     		subs	r5, r1, r3
 790              	.LVL109:
 791 0498 6942     		rsbs	r1, r5, #0
 792 049a 6941     		adcs	r1, r1, r5
 793 049c 2020     		movs	r0, #32
 794 049e FFF7FEFF 		bl	_test_assert
 795              	.LVL110:
 796 04a2 0028     		cmp	r0, #0
 797 04a4 7FF4DBAD 		bne	.L1
 798              	.LBB30:
ARM GAS  /tmp/ccrgxcxk.s 			page 15


 799              		.loc 1 183 0
 800 04a8 2023     		movs	r3, #32
 801              	@ 183 "../../test/testmbox.c" 1
 802 04aa 83F31188 		msr     BASEPRI, r3
 803              	@ 0 "" 2
 804              		.thumb
 805              	.LBE30:
 806 04ae FFF7FEFF 		bl	dbg_check_lock
 807              	.LVL111:
 808              		.loc 1 184 0
 809 04b2 4521     		movs	r1, #69
 810 04b4 2046     		mov	r0, r4
 811 04b6 FFF7FEFF 		bl	chMBPostAheadI
 812              	.LVL112:
 813              		.loc 1 185 0
 814 04ba D0F10101 		rsbs	r1, r0, #1
 815 04be 38BF     		it	cc
 816 04c0 0021     		movcc	r1, #0
 817 04c2 2120     		movs	r0, #33
 818              	.LVL113:
 819 04c4 FFF7FEFF 		bl	_test_assert
 820              	.LVL114:
 821 04c8 0028     		cmp	r0, #0
 822 04ca 7FF4C8AD 		bne	.L1
 823              		.loc 1 186 0
 824 04ce 4421     		movs	r1, #68
 825 04d0 2046     		mov	r0, r4
 826 04d2 FFF7FEFF 		bl	chMBPostAheadI
 827              	.LVL115:
 828              		.loc 1 187 0
 829 04d6 D0F10101 		rsbs	r1, r0, #1
 830 04da 38BF     		it	cc
 831 04dc 0021     		movcc	r1, #0
 832 04de 2220     		movs	r0, #34
 833              	.LVL116:
 834 04e0 FFF7FEFF 		bl	_test_assert
 835              	.LVL117:
 836 04e4 0028     		cmp	r0, #0
 837 04e6 7FF4BAAD 		bne	.L1
 838              		.loc 1 188 0
 839 04ea 4321     		movs	r1, #67
 840 04ec 2046     		mov	r0, r4
 841 04ee FFF7FEFF 		bl	chMBPostAheadI
 842              	.LVL118:
 843              		.loc 1 189 0
 844 04f2 D0F10101 		rsbs	r1, r0, #1
 845 04f6 38BF     		it	cc
 846 04f8 0021     		movcc	r1, #0
 847 04fa 2320     		movs	r0, #35
 848              	.LVL119:
 849 04fc FFF7FEFF 		bl	_test_assert
 850              	.LVL120:
 851 0500 0028     		cmp	r0, #0
 852 0502 7FF4ACAD 		bne	.L1
 853              		.loc 1 190 0
 854 0506 4221     		movs	r1, #66
 855 0508 2046     		mov	r0, r4
ARM GAS  /tmp/ccrgxcxk.s 			page 16


 856 050a FFF7FEFF 		bl	chMBPostAheadI
 857              	.LVL121:
 858              		.loc 1 191 0
 859 050e D0F10101 		rsbs	r1, r0, #1
 860 0512 38BF     		it	cc
 861 0514 0021     		movcc	r1, #0
 862 0516 2420     		movs	r0, #36
 863              	.LVL122:
 864 0518 FFF7FEFF 		bl	_test_assert
 865              	.LVL123:
 866 051c 0028     		cmp	r0, #0
 867 051e 7FF49EAD 		bne	.L1
 868              		.loc 1 192 0
 869 0522 6A4C     		ldr	r4, .L35
 870 0524 4121     		movs	r1, #65
 871 0526 2046     		mov	r0, r4
 872 0528 FFF7FEFF 		bl	chMBPostAheadI
 873              	.LVL124:
 874 052c 0546     		mov	r5, r0
 875              	.LVL125:
 876              		.loc 1 193 0
 877 052e FFF7FEFF 		bl	dbg_check_unlock
 878              	.LVL126:
 879              	.LBB31:
 880 0532 0023     		movs	r3, #0
 881              	@ 193 "../../test/testmbox.c" 1
 882 0534 83F31188 		msr     BASEPRI, r3
 883              	@ 0 "" 2
 884              		.thumb
 885              	.LBE31:
 886              		.loc 1 194 0
 887 0538 EA1A     		subs	r2, r5, r3
 888 053a 5142     		rsbs	r1, r2, #0
 889 053c 5141     		adcs	r1, r1, r2
 890 053e 2520     		movs	r0, #37
 891 0540 FFF7FEFF 		bl	_test_assert
 892              	.LVL127:
 893 0544 0028     		cmp	r0, #0
 894 0546 7FF48AAD 		bne	.L1
 895              		.loc 1 195 0
 896 054a E168     		ldr	r1, [r4, #12]
 897 054c A368     		ldr	r3, [r4, #8]
 898 054e CB1A     		subs	r3, r1, r3
 899 0550 5942     		rsbs	r1, r3, #0
 900 0552 5941     		adcs	r1, r1, r3
 901 0554 2620     		movs	r0, #38
 902 0556 FFF7FEFF 		bl	_test_assert
 903              	.LVL128:
 904 055a 0028     		cmp	r0, #0
 905 055c 7FF47FAD 		bne	.L1
 906 0560 0524     		movs	r4, #5
 907              	.LVL129:
 908              	.L19:
 909              	.LBB32:
 910              		.loc 1 197 0
 911 0562 2023     		movs	r3, #32
 912              	@ 197 "../../test/testmbox.c" 1
ARM GAS  /tmp/ccrgxcxk.s 			page 17


 913 0564 83F31188 		msr     BASEPRI, r3
 914              	@ 0 "" 2
 915              		.thumb
 916              	.LBE32:
 917              		.loc 1 198 0
 918 0568 584D     		ldr	r5, .L35
 919              		.loc 1 197 0
 920 056a FFF7FEFF 		bl	dbg_check_lock
 921              	.LVL130:
 922              		.loc 1 198 0
 923 056e 01A9     		add	r1, sp, #4
 924 0570 2846     		mov	r0, r5
 925 0572 FFF7FEFF 		bl	chMBFetchI
 926              	.LVL131:
 927 0576 0646     		mov	r6, r0
 928              	.LVL132:
 929              		.loc 1 199 0
 930 0578 FFF7FEFF 		bl	dbg_check_unlock
 931              	.LVL133:
 932              	.LBB33:
 933 057c 0023     		movs	r3, #0
 934              	@ 199 "../../test/testmbox.c" 1
 935 057e 83F31188 		msr     BASEPRI, r3
 936              	@ 0 "" 2
 937              		.thumb
 938              	.LBE33:
 939              		.loc 1 200 0
 940 0582 B6EB030C 		subs	ip, r6, r3
 941 0586 DCF10001 		rsbs	r1, ip, #0
 942 058a 51EB0C01 		adcs	r1, r1, ip
 943 058e 2720     		movs	r0, #39
 944 0590 FFF7FEFF 		bl	_test_assert
 945              	.LVL134:
 946 0594 0028     		cmp	r0, #0
 947 0596 7FF462AD 		bne	.L1
 948              		.loc 1 201 0
 949 059a 9DF80400 		ldrb	r0, [sp, #4]	@ zero_extendqisi2
 950 059e FFF7FEFF 		bl	test_emit_token
 951              	.LVL135:
 952              		.loc 1 196 0
 953 05a2 013C     		subs	r4, r4, #1
 954              	.LVL136:
 955 05a4 DDD1     		bne	.L19
 956              		.loc 1 203 0
 957 05a6 2820     		movs	r0, #40
 958 05a8 4949     		ldr	r1, .L35+4
 959 05aa FFF7FEFF 		bl	_test_assert_sequence
 960              	.LVL137:
 961 05ae 0028     		cmp	r0, #0
 962 05b0 7FF455AD 		bne	.L1
 963              	.LBB34:
 964              		.loc 1 204 0
 965 05b4 2023     		movs	r3, #32
 966              	@ 204 "../../test/testmbox.c" 1
 967 05b6 83F31188 		msr     BASEPRI, r3
 968              	@ 0 "" 2
 969              		.thumb
ARM GAS  /tmp/ccrgxcxk.s 			page 18


 970              	.LBE34:
 971 05ba FFF7FEFF 		bl	dbg_check_lock
 972              	.LVL138:
 973 05be 696A     		ldr	r1, [r5, #36]
 974 05c0 B1F1050E 		subs	lr, r1, #5
 975 05c4 DEF10001 		rsbs	r1, lr, #0
 976 05c8 51EB0E01 		adcs	r1, r1, lr
 977 05cc 2920     		movs	r0, #41
 978 05ce FFF7FEFF 		bl	_test_assert
 979              	.LVL139:
 980 05d2 0028     		cmp	r0, #0
 981 05d4 73D1     		bne	.L27
 982              		.loc 1 204 0 is_stmt 0 discriminator 2
 983 05d6 FFF7FEFF 		bl	dbg_check_unlock
 984              	.LVL140:
 985              	.LBB35:
 986 05da 2346     		mov	r3, r4
 987              	@ 204 "../../test/testmbox.c" 1
 988 05dc 83F31188 		msr     BASEPRI, r3
 989              	@ 0 "" 2
 990              		.thumb
 991              	.LBE35:
 992              	.LBB36:
 993              		.loc 1 205 0 is_stmt 1 discriminator 2
 994 05e0 2023     		movs	r3, #32
 995              	@ 205 "../../test/testmbox.c" 1
 996 05e2 83F31188 		msr     BASEPRI, r3
 997              	@ 0 "" 2
 998              		.thumb
 999              	.LBE36:
 1000 05e6 FFF7FEFF 		bl	dbg_check_lock
 1001              	.LVL141:
 1002 05ea A969     		ldr	r1, [r5, #24]
 1003 05ec D1F10101 		rsbs	r1, r1, #1
 1004 05f0 38BF     		it	cc
 1005 05f2 0021     		movcc	r1, #0
 1006 05f4 2A20     		movs	r0, #42
 1007 05f6 FFF7FEFF 		bl	_test_assert
 1008              	.LVL142:
 1009 05fa 0028     		cmp	r0, #0
 1010 05fc 5FD1     		bne	.L27
 1011 05fe FFF7FEFF 		bl	dbg_check_unlock
 1012              	.LVL143:
 1013              	.LBB37:
 1014 0602 2346     		mov	r3, r4
 1015              	@ 205 "../../test/testmbox.c" 1
 1016 0604 83F31188 		msr     BASEPRI, r3
 1017              	@ 0 "" 2
 1018              		.thumb
 1019              	.LBE37:
 1020              		.loc 1 206 0 discriminator 2
 1021 0608 E968     		ldr	r1, [r5, #12]
 1022 060a AB68     		ldr	r3, [r5, #8]
 1023 060c CF1A     		subs	r7, r1, r3
 1024 060e 7942     		rsbs	r1, r7, #0
 1025 0610 7941     		adcs	r1, r1, r7
 1026 0612 2B20     		movs	r0, #43
ARM GAS  /tmp/ccrgxcxk.s 			page 19


 1027 0614 FFF7FEFF 		bl	_test_assert
 1028              	.LVL144:
 1029 0618 0028     		cmp	r0, #0
 1030 061a 7FF420AD 		bne	.L1
 1031              		.loc 1 211 0
 1032 061e 2846     		mov	r0, r5
 1033 0620 FFF7FEFF 		bl	chMBReset
 1034              	.LVL145:
 1035              	.LBB38:
 1036              		.loc 1 216 0
 1037 0624 2023     		movs	r3, #32
 1038              	@ 216 "../../test/testmbox.c" 1
 1039 0626 83F31188 		msr     BASEPRI, r3
 1040              	@ 0 "" 2
 1041              		.thumb
 1042              	.LBE38:
 1043 062a FFF7FEFF 		bl	dbg_check_lock
 1044              	.LVL146:
 1045 062e 696A     		ldr	r1, [r5, #36]
 1046 0630 4E1F     		subs	r6, r1, #5
 1047              	.LVL147:
 1048 0632 7142     		rsbs	r1, r6, #0
 1049 0634 7141     		adcs	r1, r1, r6
 1050 0636 2C20     		movs	r0, #44
 1051 0638 FFF7FEFF 		bl	_test_assert
 1052              	.LVL148:
 1053 063c 0028     		cmp	r0, #0
 1054 063e 3ED1     		bne	.L27
 1055              		.loc 1 216 0 is_stmt 0 discriminator 2
 1056 0640 FFF7FEFF 		bl	dbg_check_unlock
 1057              	.LVL149:
 1058              	.LBB39:
 1059 0644 2346     		mov	r3, r4
 1060              	@ 216 "../../test/testmbox.c" 1
 1061 0646 83F31188 		msr     BASEPRI, r3
 1062              	@ 0 "" 2
 1063              		.thumb
 1064              	.LBE39:
 1065              	.LBB40:
 1066              		.loc 1 217 0 is_stmt 1 discriminator 2
 1067 064a 2023     		movs	r3, #32
 1068              	@ 217 "../../test/testmbox.c" 1
 1069 064c 83F31188 		msr     BASEPRI, r3
 1070              	@ 0 "" 2
 1071              		.thumb
 1072              	.LBE40:
 1073 0650 FFF7FEFF 		bl	dbg_check_lock
 1074              	.LVL150:
 1075 0654 A969     		ldr	r1, [r5, #24]
 1076 0656 D1F10101 		rsbs	r1, r1, #1
 1077 065a 38BF     		it	cc
 1078 065c 0021     		movcc	r1, #0
 1079 065e 2D20     		movs	r0, #45
 1080 0660 FFF7FEFF 		bl	_test_assert
 1081              	.LVL151:
 1082 0664 58BB     		cbnz	r0, .L27
 1083 0666 FFF7FEFF 		bl	dbg_check_unlock
ARM GAS  /tmp/ccrgxcxk.s 			page 20


 1084              	.LVL152:
 1085              	.LBB41:
 1086 066a 2346     		mov	r3, r4
 1087              	@ 217 "../../test/testmbox.c" 1
 1088 066c 83F31188 		msr     BASEPRI, r3
 1089              	@ 0 "" 2
 1090              		.thumb
 1091              	.LBE41:
 1092              	.LBB42:
 1093              		.loc 1 218 0 discriminator 2
 1094 0670 2023     		movs	r3, #32
 1095              	@ 218 "../../test/testmbox.c" 1
 1096 0672 83F31188 		msr     BASEPRI, r3
 1097              	@ 0 "" 2
 1098              		.thumb
 1099              	.LBE42:
 1100 0676 FFF7FEFF 		bl	dbg_check_lock
 1101              	.LVL153:
 1102 067a 2968     		ldr	r1, [r5]
 1103 067c AB68     		ldr	r3, [r5, #8]
 1104 067e CA1A     		subs	r2, r1, r3
 1105 0680 5142     		rsbs	r1, r2, #0
 1106 0682 5141     		adcs	r1, r1, r2
 1107 0684 2E20     		movs	r0, #46
 1108 0686 FFF7FEFF 		bl	_test_assert
 1109              	.LVL154:
 1110 068a C0B9     		cbnz	r0, .L27
 1111 068c FFF7FEFF 		bl	dbg_check_unlock
 1112              	.LVL155:
 1113              	.LBB43:
 1114 0690 2346     		mov	r3, r4
 1115              	@ 218 "../../test/testmbox.c" 1
 1116 0692 83F31188 		msr     BASEPRI, r3
 1117              	@ 0 "" 2
 1118              		.thumb
 1119              	.LBE43:
 1120              	.LBB44:
 1121              		.loc 1 219 0 discriminator 2
 1122 0696 2023     		movs	r3, #32
 1123              	@ 219 "../../test/testmbox.c" 1
 1124 0698 83F31188 		msr     BASEPRI, r3
 1125              	@ 0 "" 2
 1126              		.thumb
 1127              	.LBE44:
 1128 069c FFF7FEFF 		bl	dbg_check_lock
 1129              	.LVL156:
 1130 06a0 2968     		ldr	r1, [r5]
 1131 06a2 EB68     		ldr	r3, [r5, #12]
 1132 06a4 CB1A     		subs	r3, r1, r3
 1133 06a6 5942     		rsbs	r1, r3, #0
 1134 06a8 4FF02F00 		mov	r0, #47
 1135 06ac 5941     		adcs	r1, r1, r3
 1136 06ae FFF7FEFF 		bl	_test_assert
 1137              	.LVL157:
 1138              	.L25:
 1139 06b2 FFF7FEFF 		bl	dbg_check_unlock
 1140              	.LVL158:
ARM GAS  /tmp/ccrgxcxk.s 			page 21


 1141              	.LBB45:
 1142 06b6 0023     		movs	r3, #0
 1143              	@ 219 "../../test/testmbox.c" 1
 1144 06b8 83F31188 		msr     BASEPRI, r3
 1145              	@ 0 "" 2
 1146              		.thumb
 1147              	.LBE45:
 1148 06bc CFE4     		b	.L1
 1149              	.L27:
 1150              		.loc 1 218 0 discriminator 1
 1151 06be FFF7FEFF 		bl	dbg_check_unlock
 1152              	.LVL159:
 1153              	.LBB46:
 1154 06c2 2346     		mov	r3, r4
 1155              	@ 218 "../../test/testmbox.c" 1
 1156 06c4 83F31188 		msr     BASEPRI, r3
 1157              	@ 0 "" 2
 1158              		.thumb
 1159              	.LBE46:
 1160 06c8 C9E4     		b	.L1
 1161              	.L36:
 1162 06ca 00BF     		.align	2
 1163              	.L35:
 1164 06cc 00000000 		.word	.LANCHOR0
 1165 06d0 00000000 		.word	.LC0
 1166              		.cfi_endproc
 1167              	.LFE8:
 1168              		.size	mbox1_execute, .-mbox1_execute
 1169 06d4 AFF30080 		.section	.text.mbox1_setup,"ax",%progbits
 1169      AFF30080 
 1169      AFF30080 
 1170              		.align	2
 1171              		.p2align 4,,15
 1172              		.thumb
 1173              		.thumb_func
 1174              		.type	mbox1_setup, %function
 1175              	mbox1_setup:
 1176              	.LFB7:
 1177              		.loc 1 71 0
 1178              		.cfi_startproc
 1179              		@ args = 0, pretend = 0, frame = 0
 1180              		@ frame_needed = 0, uses_anonymous_args = 0
 1181              		@ link register save eliminated.
 1182              		.loc 1 73 0
 1183 0000 0248     		ldr	r0, .L38
 1184 0002 0349     		ldr	r1, .L38+4
 1185 0004 0522     		movs	r2, #5
 1186 0006 FFF7FEBF 		b	chMBInit
 1187              	.LVL160:
 1188              	.L39:
 1189 000a 00BF     		.align	2
 1190              	.L38:
 1191 000c 00000000 		.word	.LANCHOR0
 1192 0010 00000000 		.word	test
 1193              		.cfi_endproc
 1194              	.LFE7:
 1195              		.size	mbox1_setup, .-mbox1_setup
ARM GAS  /tmp/ccrgxcxk.s 			page 22


 1196              		.global	patternmbox
 1197              		.global	testmbox1
 1198 0014 AFF30080 		.section	.data.mb1,"aw",%progbits
 1198      AFF30080 
 1198      AFF30080 
 1199              		.align	2
 1200              		.set	.LANCHOR0,. + 0
 1201              		.type	mb1, %object
 1202              		.size	mb1, 40
 1203              	mb1:
 1204 0000 00000000 		.word	test
 1205 0004 14000000 		.word	test+20
 1206 0008 00000000 		.word	test
 1207 000c 00000000 		.word	test
 1208 0010 10000000 		.word	mb1+16
 1209 0014 10000000 		.word	mb1+16
 1210 0018 00000000 		.word	0
 1211 001c 1C000000 		.word	mb1+28
 1212 0020 1C000000 		.word	mb1+28
 1213 0024 05000000 		.word	5
 1214              		.section	.rodata.patternmbox,"a",%progbits
 1215              		.align	2
 1216              		.type	patternmbox, %object
 1217              		.size	patternmbox, 8
 1218              	patternmbox:
 1219 0000 00000000 		.word	testmbox1
 1220 0004 00000000 		.word	0
 1221              		.section	.rodata.str1.4,"aMS",%progbits,1
 1222              		.align	2
 1223              	.LC0:
 1224 0000 41424344 		.ascii	"ABCDE\000"
 1224      4500
 1225 0006 0000     		.space	2
 1226              	.LC1:
 1227 0008 4D61696C 		.ascii	"Mailboxes, queuing and timeouts\000"
 1227      626F7865 
 1227      732C2071 
 1227      75657569 
 1227      6E672061 
 1228              		.section	.rodata.testmbox1,"a",%progbits
 1229              		.align	2
 1230              		.type	testmbox1, %object
 1231              		.size	testmbox1, 16
 1232              	testmbox1:
 1233 0000 08000000 		.word	.LC1
 1234 0004 00000000 		.word	mbox1_setup
 1235 0008 00000000 		.word	0
 1236 000c 00000000 		.word	mbox1_execute
 1237              		.text
 1238              	.Letext0:
 1239              		.file 2 "/opt/ARM/arm-none-eabi/include/machine/_default_types.h"
 1240              		.file 3 "/opt/ARM/arm-none-eabi/include/stdint.h"
 1241              		.file 4 "../../os/ports/GCC/ARMCMx/chtypes.h"
 1242              		.file 5 "../../os/kernel/include/chlists.h"
 1243              		.file 6 "../../os/kernel/include/chthreads.h"
 1244              		.file 7 "../../os/ports/GCC/ARMCMx/chcore_v7m.h"
 1245              		.file 8 "../../os/kernel/include/chsem.h"
ARM GAS  /tmp/ccrgxcxk.s 			page 23


 1246              		.file 9 "../../os/kernel/include/chmtx.h"
 1247              		.file 10 "../../os/kernel/include/chmboxes.h"
 1248              		.file 11 "../../test/test.h"
 1249              		.file 12 "../../os/kernel/include/chdebug.h"