ARM GAS  /tmp/cci2t0kd.s 			page 1


   1              		.syntax unified
   2              		.cpu cortex-m4
   3              		.eabi_attribute 27, 3
   4              		.eabi_attribute 28, 1
   5              		.fpu fpv4-sp-d16
   6              		.eabi_attribute 20, 1
   7              		.eabi_attribute 21, 1
   8              		.eabi_attribute 23, 3
   9              		.eabi_attribute 24, 1
  10              		.eabi_attribute 25, 1
  11              		.eabi_attribute 26, 1
  12              		.eabi_attribute 30, 2
  13              		.eabi_attribute 34, 1
  14              		.eabi_attribute 18, 4
  15              		.thumb
  16              		.file	"testsem.c"
  17              		.text
  18              	.Ltext0:
  19              		.cfi_sections	.debug_frame
  20              		.section	.text.sem1_execute,"ax",%progbits
  21              		.align	2
  22              		.p2align 4,,15
  23              		.thumb
  24              		.thumb_func
  25              		.type	sem1_execute, %function
  26              	sem1_execute:
  27              	.LFB9:
  28              		.file 1 "../../test/testsem.c"
  29              		.loc 1 84 0
  30              		.cfi_startproc
  31              		@ args = 0, pretend = 0, frame = 0
  32              		@ frame_needed = 0, uses_anonymous_args = 0
  33 0000 2DE9F043 		push	{r4, r5, r6, r7, r8, r9, lr}
  34              		.cfi_def_cfa_offset 28
  35              		.cfi_offset 4, -28
  36              		.cfi_offset 5, -24
  37              		.cfi_offset 6, -20
  38              		.cfi_offset 7, -16
  39              		.cfi_offset 8, -12
  40              		.cfi_offset 9, -8
  41              		.cfi_offset 14, -4
  42              		.loc 1 86 0
  43 0004 454E     		ldr	r6, .L5
  44 0006 464F     		ldr	r7, .L5+4
  45 0008 B369     		ldr	r3, [r6, #24]
  46 000a D7F80080 		ldr	r8, [r7]
  47 000e 9A68     		ldr	r2, [r3, #8]
  48 0010 DFF83091 		ldr	r9, .L5+40
  49 0014 434B     		ldr	r3, .L5+8
  50 0016 444D     		ldr	r5, .L5+12
  51              		.loc 1 91 0
  52 0018 444C     		ldr	r4, .L5+16
  53              		.loc 1 84 0
  54 001a 83B0     		sub	sp, sp, #12
  55              		.cfi_def_cfa_offset 40
  56              		.loc 1 86 0
  57 001c 0532     		adds	r2, r2, #5
ARM GAS  /tmp/cci2t0kd.s 			page 2


  58 001e 4FF4EC71 		mov	r1, #472
  59 0022 CDF80090 		str	r9, [sp]
  60 0026 4046     		mov	r0, r8
  61 0028 FFF7FEFF 		bl	chThdCreateStatic
  62              	.LVL0:
  63              		.loc 1 87 0
  64 002c B269     		ldr	r2, [r6, #24]
  65 002e 7B68     		ldr	r3, [r7, #4]
  66 0030 9268     		ldr	r2, [r2, #8]
  67 0032 3F49     		ldr	r1, .L5+20
  68              		.loc 1 86 0
  69 0034 2860     		str	r0, [r5]
  70              		.loc 1 87 0
  71 0036 0132     		adds	r2, r2, #1
  72 0038 1846     		mov	r0, r3
  73 003a 0091     		str	r1, [sp]
  74 003c 394B     		ldr	r3, .L5+8
  75 003e 4FF4EC71 		mov	r1, #472
  76 0042 FFF7FEFF 		bl	chThdCreateStatic
  77              	.LVL1:
  78              		.loc 1 88 0
  79 0046 B269     		ldr	r2, [r6, #24]
  80 0048 BB68     		ldr	r3, [r7, #8]
  81 004a 9268     		ldr	r2, [r2, #8]
  82 004c 3949     		ldr	r1, .L5+24
  83              		.loc 1 87 0
  84 004e 6860     		str	r0, [r5, #4]
  85              		.loc 1 88 0
  86 0050 0332     		adds	r2, r2, #3
  87 0052 1846     		mov	r0, r3
  88 0054 0091     		str	r1, [sp]
  89 0056 334B     		ldr	r3, .L5+8
  90 0058 4FF4EC71 		mov	r1, #472
  91 005c FFF7FEFF 		bl	chThdCreateStatic
  92              	.LVL2:
  93              		.loc 1 89 0
  94 0060 B269     		ldr	r2, [r6, #24]
  95 0062 FB68     		ldr	r3, [r7, #12]
  96 0064 9268     		ldr	r2, [r2, #8]
  97 0066 3449     		ldr	r1, .L5+28
  98              		.loc 1 88 0
  99 0068 A860     		str	r0, [r5, #8]
 100              		.loc 1 89 0
 101 006a 0432     		adds	r2, r2, #4
 102 006c 1846     		mov	r0, r3
 103 006e 0091     		str	r1, [sp]
 104 0070 2C4B     		ldr	r3, .L5+8
 105 0072 4FF4EC71 		mov	r1, #472
 106 0076 FFF7FEFF 		bl	chThdCreateStatic
 107              	.LVL3:
 108              		.loc 1 90 0
 109 007a B269     		ldr	r2, [r6, #24]
 110 007c 3B69     		ldr	r3, [r7, #16]
 111 007e 9268     		ldr	r2, [r2, #8]
 112 0080 2E49     		ldr	r1, .L5+32
 113              		.loc 1 89 0
 114 0082 E860     		str	r0, [r5, #12]
ARM GAS  /tmp/cci2t0kd.s 			page 3


 115              		.loc 1 90 0
 116 0084 0232     		adds	r2, r2, #2
 117 0086 1846     		mov	r0, r3
 118 0088 0091     		str	r1, [sp]
 119 008a 264B     		ldr	r3, .L5+8
 120 008c 4FF4EC71 		mov	r1, #472
 121 0090 FFF7FEFF 		bl	chThdCreateStatic
 122              	.LVL4:
 123 0094 2861     		str	r0, [r5, #16]
 124              		.loc 1 91 0
 125 0096 2046     		mov	r0, r4
 126 0098 FFF7FEFF 		bl	chSemSignal
 127              	.LVL5:
 128              		.loc 1 92 0
 129 009c 2046     		mov	r0, r4
 130 009e FFF7FEFF 		bl	chSemSignal
 131              	.LVL6:
 132              		.loc 1 93 0
 133 00a2 2046     		mov	r0, r4
 134 00a4 FFF7FEFF 		bl	chSemSignal
 135              	.LVL7:
 136              		.loc 1 94 0
 137 00a8 2046     		mov	r0, r4
 138 00aa FFF7FEFF 		bl	chSemSignal
 139              	.LVL8:
 140              		.loc 1 95 0
 141 00ae 2046     		mov	r0, r4
 142 00b0 FFF7FEFF 		bl	chSemSignal
 143              	.LVL9:
 144              		.loc 1 96 0
 145 00b4 FFF7FEFF 		bl	test_wait_threads
 146              	.LVL10:
 147              		.loc 1 100 0
 148 00b8 0120     		movs	r0, #1
 149 00ba 2149     		ldr	r1, .L5+36
 150 00bc FFF7FEFF 		bl	_test_assert_sequence
 151              	.LVL11:
 152 00c0 0746     		mov	r7, r0
 153 00c2 10B1     		cbz	r0, .L4
 154              		.loc 1 109 0
 155 00c4 03B0     		add	sp, sp, #12
 156              		@ sp needed
 157 00c6 BDE8F083 		pop	{r4, r5, r6, r7, r8, r9, pc}
 158              	.L4:
 159              		.loc 1 102 0
 160 00ca B269     		ldr	r2, [r6, #24]
 161 00cc 154B     		ldr	r3, .L5+8
 162 00ce 9268     		ldr	r2, [r2, #8]
 163 00d0 CDF80090 		str	r9, [sp]
 164 00d4 0532     		adds	r2, r2, #5
 165 00d6 4046     		mov	r0, r8
 166 00d8 4FF4EC71 		mov	r1, #472
 167 00dc FFF7FEFF 		bl	chThdCreateStatic
 168              	.LVL12:
 169              	.LBB2:
 170              		.loc 1 103 0
 171 00e0 2023     		movs	r3, #32
ARM GAS  /tmp/cci2t0kd.s 			page 4


 172              	.LBE2:
 173              		.loc 1 102 0
 174 00e2 2860     		str	r0, [r5]
 175              	.LBB3:
 176              		.loc 1 103 0
 177              	@ 103 "../../test/testsem.c" 1
 178 00e4 83F31188 		msr     BASEPRI, r3
 179              	@ 0 "" 2
 180              		.thumb
 181              	.LBE3:
 182 00e8 FFF7FEFF 		bl	dbg_check_lock
 183              	.LVL13:
 184              		.loc 1 104 0
 185 00ec 2046     		mov	r0, r4
 186 00ee 0221     		movs	r1, #2
 187 00f0 FFF7FEFF 		bl	chSemAddCounterI
 188              	.LVL14:
 189              		.loc 1 105 0
 190 00f4 FFF7FEFF 		bl	chSchRescheduleS
 191              	.LVL15:
 192              		.loc 1 106 0
 193 00f8 FFF7FEFF 		bl	dbg_check_unlock
 194              	.LVL16:
 195              	.LBB4:
 196 00fc 3B46     		mov	r3, r7
 197              	@ 106 "../../test/testsem.c" 1
 198 00fe 83F31188 		msr     BASEPRI, r3
 199              	@ 0 "" 2
 200              		.thumb
 201              	.LBE4:
 202              		.loc 1 107 0
 203 0102 FFF7FEFF 		bl	test_wait_threads
 204              	.LVL17:
 205              		.loc 1 108 0
 206 0106 A168     		ldr	r1, [r4, #8]
 207 0108 4B1E     		subs	r3, r1, #1
 208 010a 5942     		rsbs	r1, r3, #0
 209 010c 4FF00200 		mov	r0, #2
 210 0110 5941     		adcs	r1, r1, r3
 211              		.loc 1 109 0
 212 0112 03B0     		add	sp, sp, #12
 213              		@ sp needed
 214 0114 BDE8F043 		pop	{r4, r5, r6, r7, r8, r9, lr}
 215              		.loc 1 108 0
 216 0118 FFF7FEBF 		b	_test_assert
 217              	.LVL18:
 218              	.L6:
 219              		.align	2
 220              	.L5:
 221 011c 00000000 		.word	rlist
 222 0120 00000000 		.word	wa
 223 0124 00000000 		.word	thread1
 224 0128 00000000 		.word	threads
 225 012c 00000000 		.word	.LANCHOR0
 226 0130 04000000 		.word	.LC1
 227 0134 08000000 		.word	.LC2
 228 0138 0C000000 		.word	.LC3
ARM GAS  /tmp/cci2t0kd.s 			page 5


 229 013c 10000000 		.word	.LC4
 230 0140 14000000 		.word	.LC5
 231 0144 00000000 		.word	.LC0
 232              		.cfi_endproc
 233              	.LFE9:
 234              		.size	sem1_execute, .-sem1_execute
 235 0148 AFF30080 		.section	.text.thread3,"ax",%progbits
 235      AFF30080 
 236              		.align	2
 237              		.p2align 4,,15
 238              		.thumb
 239              		.thumb_func
 240              		.type	thread3, %function
 241              	thread3:
 242              	.LFB14:
 243              		.loc 1 210 0
 244              		.cfi_startproc
 245              		@ args = 0, pretend = 0, frame = 0
 246              		@ frame_needed = 0, uses_anonymous_args = 0
 247              	.LVL19:
 248 0000 10B5     		push	{r4, lr}
 249              		.cfi_def_cfa_offset 8
 250              		.cfi_offset 4, -8
 251              		.cfi_offset 14, -4
 252              		.loc 1 213 0
 253 0002 044C     		ldr	r4, .L8
 254 0004 2046     		mov	r0, r4
 255              	.LVL20:
 256 0006 FFF7FEFF 		bl	chSemWait
 257              	.LVL21:
 258              		.loc 1 214 0
 259 000a 2046     		mov	r0, r4
 260 000c FFF7FEFF 		bl	chSemSignal
 261              	.LVL22:
 262              		.loc 1 216 0
 263 0010 0020     		movs	r0, #0
 264 0012 10BD     		pop	{r4, pc}
 265              	.L9:
 266              		.align	2
 267              	.L8:
 268 0014 00000000 		.word	.LANCHOR0
 269              		.cfi_endproc
 270              	.LFE14:
 271              		.size	thread3, .-thread3
 272 0018 AFF30080 		.section	.text.thread1,"ax",%progbits
 272      AFF30080 
 273              		.align	2
 274              		.p2align 4,,15
 275              		.thumb
 276              		.thumb_func
 277              		.type	thread1, %function
 278              	thread1:
 279              	.LFB8:
 280              		.loc 1 77 0
 281              		.cfi_startproc
 282              		@ args = 0, pretend = 0, frame = 0
 283              		@ frame_needed = 0, uses_anonymous_args = 0
ARM GAS  /tmp/cci2t0kd.s 			page 6


 284              	.LVL23:
 285 0000 10B5     		push	{r4, lr}
 286              		.cfi_def_cfa_offset 8
 287              		.cfi_offset 4, -8
 288              		.cfi_offset 14, -4
 289              		.loc 1 77 0
 290 0002 0446     		mov	r4, r0
 291              		.loc 1 79 0
 292 0004 0348     		ldr	r0, .L11
 293              	.LVL24:
 294 0006 FFF7FEFF 		bl	chSemWait
 295              	.LVL25:
 296              		.loc 1 80 0
 297 000a 2078     		ldrb	r0, [r4]	@ zero_extendqisi2
 298 000c FFF7FEFF 		bl	test_emit_token
 299              	.LVL26:
 300              		.loc 1 82 0
 301 0010 0020     		movs	r0, #0
 302 0012 10BD     		pop	{r4, pc}
 303              	.LVL27:
 304              	.L12:
 305              		.align	2
 306              	.L11:
 307 0014 00000000 		.word	.LANCHOR0
 308              		.cfi_endproc
 309              	.LFE8:
 310              		.size	thread1, .-thread1
 311 0018 AFF30080 		.section	.text.sem1_setup,"ax",%progbits
 311      AFF30080 
 312              		.align	2
 313              		.p2align 4,,15
 314              		.thumb
 315              		.thumb_func
 316              		.type	sem1_setup, %function
 317              	sem1_setup:
 318              	.LFB7:
 319              		.loc 1 72 0
 320              		.cfi_startproc
 321              		@ args = 0, pretend = 0, frame = 0
 322              		@ frame_needed = 0, uses_anonymous_args = 0
 323              		@ link register save eliminated.
 324              		.loc 1 74 0
 325 0000 0148     		ldr	r0, .L14
 326 0002 0021     		movs	r1, #0
 327 0004 FFF7FEBF 		b	chSemInit
 328              	.LVL28:
 329              	.L15:
 330              		.align	2
 331              	.L14:
 332 0008 00000000 		.word	.LANCHOR0
 333              		.cfi_endproc
 334              	.LFE7:
 335              		.size	sem1_setup, .-sem1_setup
 336 000c AFF30080 		.section	.text.sem2_setup,"ax",%progbits
 337              		.align	2
 338              		.p2align 4,,15
 339              		.thumb
ARM GAS  /tmp/cci2t0kd.s 			page 7


 340              		.thumb_func
 341              		.type	sem2_setup, %function
 342              	sem2_setup:
 343              	.LFB10:
 344              		.loc 1 129 0
 345              		.cfi_startproc
 346              		@ args = 0, pretend = 0, frame = 0
 347              		@ frame_needed = 0, uses_anonymous_args = 0
 348              		@ link register save eliminated.
 349              		.loc 1 131 0
 350 0000 0148     		ldr	r0, .L17
 351 0002 0021     		movs	r1, #0
 352 0004 FFF7FEBF 		b	chSemInit
 353              	.LVL29:
 354              	.L18:
 355              		.align	2
 356              	.L17:
 357 0008 00000000 		.word	.LANCHOR0
 358              		.cfi_endproc
 359              	.LFE10:
 360              		.size	sem2_setup, .-sem2_setup
 361 000c AFF30080 		.section	.text.sem3_setup,"ax",%progbits
 362              		.align	2
 363              		.p2align 4,,15
 364              		.thumb
 365              		.thumb_func
 366              		.type	sem3_setup, %function
 367              	sem3_setup:
 368              	.LFB13:
 369              		.loc 1 205 0
 370              		.cfi_startproc
 371              		@ args = 0, pretend = 0, frame = 0
 372              		@ frame_needed = 0, uses_anonymous_args = 0
 373              		@ link register save eliminated.
 374              		.loc 1 207 0
 375 0000 0148     		ldr	r0, .L20
 376 0002 0021     		movs	r1, #0
 377 0004 FFF7FEBF 		b	chSemInit
 378              	.LVL30:
 379              	.L21:
 380              		.align	2
 381              	.L20:
 382 0008 00000000 		.word	.LANCHOR0
 383              		.cfi_endproc
 384              	.LFE13:
 385              		.size	sem3_setup, .-sem3_setup
 386 000c AFF30080 		.section	.text.thread2,"ax",%progbits
 387              		.align	2
 388              		.p2align 4,,15
 389              		.thumb
 390              		.thumb_func
 391              		.type	thread2, %function
 392              	thread2:
 393              	.LFB11:
 394              		.loc 1 134 0
 395              		.cfi_startproc
 396              		@ args = 0, pretend = 0, frame = 0
ARM GAS  /tmp/cci2t0kd.s 			page 8


 397              		@ frame_needed = 0, uses_anonymous_args = 0
 398              	.LVL31:
 399 0000 08B5     		push	{r3, lr}
 400              		.cfi_def_cfa_offset 8
 401              		.cfi_offset 3, -8
 402              		.cfi_offset 14, -4
 403              		.loc 1 137 0
 404 0002 3220     		movs	r0, #50
 405              	.LVL32:
 406 0004 FFF7FEFF 		bl	chThdSleep
 407              	.LVL33:
 408              	.LBB5:
 409              		.loc 1 138 0
 410 0008 2023     		movs	r3, #32
 411              	@ 138 "../../test/testsem.c" 1
 412 000a 83F31188 		msr     BASEPRI, r3
 413              	@ 0 "" 2
 414              		.thumb
 415              	.LBE5:
 416 000e FFF7FEFF 		bl	dbg_check_lock
 417              	.LVL34:
 418              		.loc 1 139 0
 419 0012 0648     		ldr	r0, .L23
 420 0014 FFF7FEFF 		bl	chSemSignalI
 421              	.LVL35:
 422              		.loc 1 140 0
 423 0018 FFF7FEFF 		bl	chSchRescheduleS
 424              	.LVL36:
 425              		.loc 1 141 0
 426 001c FFF7FEFF 		bl	dbg_check_unlock
 427              	.LVL37:
 428              	.LBB6:
 429 0020 0023     		movs	r3, #0
 430              	@ 141 "../../test/testsem.c" 1
 431 0022 83F31188 		msr     BASEPRI, r3
 432              	@ 0 "" 2
 433              		.thumb
 434              	.LBE6:
 435              		.loc 1 143 0
 436 0026 1846     		mov	r0, r3
 437 0028 08BD     		pop	{r3, pc}
 438              	.L24:
 439 002a 00BF     		.align	2
 440              	.L23:
 441 002c 00000000 		.word	.LANCHOR0
 442              		.cfi_endproc
 443              	.LFE11:
 444              		.size	thread2, .-thread2
 445              		.section	.text.thread4,"ax",%progbits
 446              		.align	2
 447              		.p2align 4,,15
 448              		.thumb
 449              		.thumb_func
 450              		.type	thread4, %function
 451              	thread4:
 452              	.LFB16:
 453              		.loc 1 246 0
ARM GAS  /tmp/cci2t0kd.s 			page 9


 454              		.cfi_startproc
 455              		@ args = 0, pretend = 0, frame = 0
 456              		@ frame_needed = 0, uses_anonymous_args = 0
 457              	.LVL38:
 458 0000 10B5     		push	{r4, lr}
 459              		.cfi_def_cfa_offset 8
 460              		.cfi_offset 4, -8
 461              		.cfi_offset 14, -4
 462              	.LBB7:
 463              		.loc 1 248 0
 464 0002 2023     		movs	r3, #32
 465              	.LBE7:
 466              		.loc 1 246 0
 467 0004 0446     		mov	r4, r0
 468              	.LBB8:
 469              		.loc 1 248 0
 470              	@ 248 "../../test/testsem.c" 1
 471 0006 83F31188 		msr     BASEPRI, r3
 472              	@ 0 "" 2
 473              		.thumb
 474              	.LBE8:
 475 000a FFF7FEFF 		bl	dbg_check_lock
 476              	.LVL39:
 477 000e A368     		ldr	r3, [r4, #8]
 478 0010 002B     		cmp	r3, #0
 479 0012 08DD     		ble	.L27
 480              	.L26:
 481              		.loc 1 248 0 is_stmt 0 discriminator 2
 482 0014 FFF7FEFF 		bl	chSchRescheduleS
 483              	.LVL40:
 484 0018 FFF7FEFF 		bl	dbg_check_unlock
 485              	.LVL41:
 486              	.LBB9:
 487 001c 0023     		movs	r3, #0
 488              	@ 248 "../../test/testsem.c" 1
 489 001e 83F31188 		msr     BASEPRI, r3
 490              	@ 0 "" 2
 491              		.thumb
 492              	.LBE9:
 493              		.loc 1 250 0 is_stmt 1 discriminator 2
 494 0022 1846     		mov	r0, r3
 495 0024 10BD     		pop	{r4, pc}
 496              	.LVL42:
 497              	.L27:
 498              		.loc 1 248 0 discriminator 1
 499 0026 2046     		mov	r0, r4
 500 0028 FFF7FEFF 		bl	chSemSignalI
 501              	.LVL43:
 502 002c F2E7     		b	.L26
 503              		.cfi_endproc
 504              	.LFE16:
 505              		.size	thread4, .-thread4
 506 002e 00BF     		.section	.text.sem4_execute,"ax",%progbits
 507              		.align	2
 508              		.p2align 4,,15
 509              		.thumb
 510              		.thumb_func
ARM GAS  /tmp/cci2t0kd.s 			page 10


 511              		.type	sem4_execute, %function
 512              	sem4_execute:
 513              	.LFB17:
 514              		.loc 1 252 0
 515              		.cfi_startproc
 516              		@ args = 0, pretend = 0, frame = 16
 517              		@ frame_needed = 0, uses_anonymous_args = 0
 518 0000 00B5     		push	{lr}
 519              		.cfi_def_cfa_offset 4
 520              		.cfi_offset 14, -4
 521 0002 87B0     		sub	sp, sp, #28
 522              		.cfi_def_cfa_offset 32
 523              		.loc 1 256 0
 524 0004 03A8     		add	r0, sp, #12
 525 0006 0021     		movs	r1, #0
 526 0008 FFF7FEFF 		bl	chSemInit
 527              	.LVL44:
 528              		.loc 1 257 0
 529 000c 03A8     		add	r0, sp, #12
 530 000e 0021     		movs	r1, #0
 531 0010 FFF7FEFF 		bl	chSemReset
 532              	.LVL45:
 533              		.loc 1 258 0
 534 0014 0599     		ldr	r1, [sp, #20]
 535 0016 0029     		cmp	r1, #0
 536 0018 CCBF     		ite	gt
 537 001a 0021     		movgt	r1, #0
 538 001c 0121     		movle	r1, #1
 539 001e 0120     		movs	r0, #1
 540 0020 FFF7FEFF 		bl	_test_assert
 541              	.LVL46:
 542 0024 10B1     		cbz	r0, .L33
 543              	.L28:
 544              		.loc 1 280 0
 545 0026 07B0     		add	sp, sp, #28
 546              		@ sp needed
 547 0028 5DF804FB 		ldr	pc, [sp], #4
 548              	.L33:
 549              		.loc 1 262 0
 550 002c 334B     		ldr	r3, .L36
 551              		.loc 1 261 0
 552 002e 344A     		ldr	r2, .L36+4
 553              		.loc 1 262 0
 554 0030 9B69     		ldr	r3, [r3, #24]
 555              		.loc 1 261 0
 556 0032 1068     		ldr	r0, [r2]
 557 0034 9A68     		ldr	r2, [r3, #8]
 558 0036 334B     		ldr	r3, .L36+8
 559 0038 03A9     		add	r1, sp, #12
 560 003a 0091     		str	r1, [sp]
 561 003c 013A     		subs	r2, r2, #1
 562 003e 4FF4EC71 		mov	r1, #472
 563 0042 FFF7FEFF 		bl	chThdCreateStatic
 564              	.LVL47:
 565 0046 304B     		ldr	r3, .L36+12
 566 0048 1860     		str	r0, [r3]
 567              		.loc 1 265 0
ARM GAS  /tmp/cci2t0kd.s 			page 11


 568 004a 03A8     		add	r0, sp, #12
 569 004c FFF7FEFF 		bl	chSemWait
 570              	.LVL48:
 571              		.loc 1 268 0
 572 0050 0599     		ldr	r1, [sp, #20]
 573 0052 0029     		cmp	r1, #0
 574 0054 CCBF     		ite	gt
 575 0056 0021     		movgt	r1, #0
 576 0058 0121     		movle	r1, #1
 577 005a 0220     		movs	r0, #2
 578 005c FFF7FEFF 		bl	_test_assert
 579              	.LVL49:
 580 0060 0028     		cmp	r0, #0
 581 0062 E0D1     		bne	.L28
 582              	.LBB10:
 583              		.loc 1 272 0
 584 0064 2023     		movs	r3, #32
 585              	@ 272 "../../test/testsem.c" 1
 586 0066 83F31188 		msr     BASEPRI, r3
 587              	@ 0 "" 2
 588              		.thumb
 589              	.LBE10:
 590 006a FFF7FEFF 		bl	dbg_check_lock
 591              	.LVL50:
 592 006e 059B     		ldr	r3, [sp, #20]
 593 0070 002B     		cmp	r3, #0
 594 0072 3ADD     		ble	.L34
 595              	.L30:
 596              		.loc 1 272 0 is_stmt 0 discriminator 2
 597 0074 FFF7FEFF 		bl	chSchRescheduleS
 598              	.LVL51:
 599 0078 FFF7FEFF 		bl	dbg_check_unlock
 600              	.LVL52:
 601              	.LBB11:
 602 007c 0023     		movs	r3, #0
 603              	@ 272 "../../test/testsem.c" 1
 604 007e 83F31188 		msr     BASEPRI, r3
 605              	@ 0 "" 2
 606              		.thumb
 607              	.LBE11:
 608              		.loc 1 273 0 is_stmt 1 discriminator 2
 609 0082 0599     		ldr	r1, [sp, #20]
 610 0084 9942     		cmp	r1, r3
 611 0086 D4BF     		ite	le
 612 0088 0021     		movle	r1, #0
 613 008a 0121     		movgt	r1, #1
 614 008c 0320     		movs	r0, #3
 615 008e FFF7FEFF 		bl	_test_assert
 616              	.LVL53:
 617 0092 0028     		cmp	r0, #0
 618 0094 C7D1     		bne	.L28
 619              		.loc 1 274 0
 620 0096 0599     		ldr	r1, [sp, #20]
 621 0098 4A1E     		subs	r2, r1, #1
 622 009a 5142     		rsbs	r1, r2, #0
 623 009c 5141     		adcs	r1, r1, r2
 624 009e 0420     		movs	r0, #4
ARM GAS  /tmp/cci2t0kd.s 			page 12


 625 00a0 FFF7FEFF 		bl	_test_assert
 626              	.LVL54:
 627 00a4 0028     		cmp	r0, #0
 628 00a6 BED1     		bne	.L28
 629              	.LBB12:
 630              		.loc 1 277 0
 631 00a8 2023     		movs	r3, #32
 632              	@ 277 "../../test/testsem.c" 1
 633 00aa 83F31188 		msr     BASEPRI, r3
 634              	@ 0 "" 2
 635              		.thumb
 636              	.LBE12:
 637 00ae FFF7FEFF 		bl	dbg_check_lock
 638              	.LVL55:
 639 00b2 059B     		ldr	r3, [sp, #20]
 640 00b4 002B     		cmp	r3, #0
 641 00b6 1CDD     		ble	.L35
 642              	.L31:
 643              		.loc 1 277 0 is_stmt 0 discriminator 2
 644 00b8 FFF7FEFF 		bl	chSchRescheduleS
 645              	.LVL56:
 646 00bc FFF7FEFF 		bl	dbg_check_unlock
 647              	.LVL57:
 648              	.LBB13:
 649 00c0 0023     		movs	r3, #0
 650              	@ 277 "../../test/testsem.c" 1
 651 00c2 83F31188 		msr     BASEPRI, r3
 652              	@ 0 "" 2
 653              		.thumb
 654              	.LBE13:
 655              		.loc 1 278 0 is_stmt 1 discriminator 2
 656 00c6 0599     		ldr	r1, [sp, #20]
 657 00c8 9942     		cmp	r1, r3
 658 00ca D4BF     		ite	le
 659 00cc 0021     		movle	r1, #0
 660 00ce 0121     		movgt	r1, #1
 661 00d0 0320     		movs	r0, #3
 662 00d2 FFF7FEFF 		bl	_test_assert
 663              	.LVL58:
 664 00d6 0028     		cmp	r0, #0
 665 00d8 A5D1     		bne	.L28
 666              		.loc 1 279 0
 667 00da 0599     		ldr	r1, [sp, #20]
 668 00dc 4B1E     		subs	r3, r1, #1
 669 00de 5942     		rsbs	r1, r3, #0
 670 00e0 5941     		adcs	r1, r1, r3
 671 00e2 0520     		movs	r0, #5
 672 00e4 FFF7FEFF 		bl	_test_assert
 673              	.LVL59:
 674 00e8 9DE7     		b	.L28
 675              	.L34:
 676              		.loc 1 272 0 discriminator 1
 677 00ea 03A8     		add	r0, sp, #12
 678 00ec FFF7FEFF 		bl	chSemSignalI
 679              	.LVL60:
 680 00f0 C0E7     		b	.L30
 681              	.L35:
ARM GAS  /tmp/cci2t0kd.s 			page 13


 682              		.loc 1 277 0 discriminator 1
 683 00f2 03A8     		add	r0, sp, #12
 684 00f4 FFF7FEFF 		bl	chSemSignalI
 685              	.LVL61:
 686 00f8 DEE7     		b	.L31
 687              	.L37:
 688 00fa 00BF     		.align	2
 689              	.L36:
 690 00fc 00000000 		.word	rlist
 691 0100 00000000 		.word	wa
 692 0104 00000000 		.word	thread4
 693 0108 00000000 		.word	threads
 694              		.cfi_endproc
 695              	.LFE17:
 696              		.size	sem4_execute, .-sem4_execute
 697 010c AFF30080 		.section	.text.sem2_execute,"ax",%progbits
 698              		.align	2
 699              		.p2align 4,,15
 700              		.thumb
 701              		.thumb_func
 702              		.type	sem2_execute, %function
 703              	sem2_execute:
 704              	.LFB12:
 705              		.loc 1 145 0
 706              		.cfi_startproc
 707              		@ args = 0, pretend = 0, frame = 0
 708              		@ frame_needed = 0, uses_anonymous_args = 0
 709 0000 70B5     		push	{r4, r5, r6, lr}
 710              		.cfi_def_cfa_offset 16
 711              		.cfi_offset 4, -16
 712              		.cfi_offset 5, -12
 713              		.cfi_offset 6, -8
 714              		.cfi_offset 14, -4
 715              		.loc 1 153 0
 716 0002 4B4C     		ldr	r4, .L45
 717              		.loc 1 145 0
 718 0004 82B0     		sub	sp, sp, #8
 719              		.cfi_def_cfa_offset 24
 720              		.loc 1 153 0
 721 0006 0021     		movs	r1, #0
 722 0008 2046     		mov	r0, r4
 723 000a FFF7FEFF 		bl	chSemWaitTimeout
 724              	.LVL62:
 725              		.loc 1 154 0
 726 000e B0F1FF3E 		subs	lr, r0, #-1
 727 0012 DEF10001 		rsbs	r1, lr, #0
 728 0016 51EB0E01 		adcs	r1, r1, lr
 729 001a 0120     		movs	r0, #1
 730              	.LVL63:
 731 001c FFF7FEFF 		bl	_test_assert
 732              	.LVL64:
 733 0020 08B1     		cbz	r0, .L44
 734              	.L38:
 735              		.loc 1 183 0
 736 0022 02B0     		add	sp, sp, #8
 737              		@ sp needed
 738 0024 70BD     		pop	{r4, r5, r6, pc}
ARM GAS  /tmp/cci2t0kd.s 			page 14


 739              	.L44:
 740              		.loc 1 155 0
 741 0026 2168     		ldr	r1, [r4]
 742 0028 0E1B     		subs	r6, r1, r4
 743 002a 7142     		rsbs	r1, r6, #0
 744 002c 7141     		adcs	r1, r1, r6
 745 002e 0220     		movs	r0, #2
 746 0030 FFF7FEFF 		bl	_test_assert
 747              	.LVL65:
 748 0034 0028     		cmp	r0, #0
 749 0036 F4D1     		bne	.L38
 750              		.loc 1 156 0
 751 0038 A168     		ldr	r1, [r4, #8]
 752 003a D1F10101 		rsbs	r1, r1, #1
 753 003e 38BF     		it	cc
 754 0040 0021     		movcc	r1, #0
 755 0042 0320     		movs	r0, #3
 756 0044 FFF7FEFF 		bl	_test_assert
 757              	.LVL66:
 758 0048 0028     		cmp	r0, #0
 759 004a EAD1     		bne	.L38
 760              	.LBB16:
 761              	.LBB17:
 762              		.loc 1 161 0
 763 004c 394B     		ldr	r3, .L45+4
 764 004e 3A4A     		ldr	r2, .L45+8
 765 0050 9B69     		ldr	r3, [r3, #24]
 766 0052 1168     		ldr	r1, [r2]
 767 0054 9A68     		ldr	r2, [r3, #8]
 768 0056 394B     		ldr	r3, .L45+12
 769 0058 0090     		str	r0, [sp]
 770 005a 013A     		subs	r2, r2, #1
 771 005c 0846     		mov	r0, r1
 772 005e 4FF4EC71 		mov	r1, #472
 773 0062 FFF7FEFF 		bl	chThdCreateStatic
 774              	.LVL67:
 775 0066 364B     		ldr	r3, .L45+16
 776              		.loc 1 163 0
 777 0068 4FF4FA71 		mov	r1, #500
 778              		.loc 1 161 0
 779 006c 1860     		str	r0, [r3]
 780              		.loc 1 163 0
 781 006e 2046     		mov	r0, r4
 782 0070 FFF7FEFF 		bl	chSemWaitTimeout
 783              	.LVL68:
 784 0074 0546     		mov	r5, r0
 785              	.LVL69:
 786              		.loc 1 164 0
 787 0076 FFF7FEFF 		bl	test_wait_threads
 788              	.LVL70:
 789              		.loc 1 165 0
 790 007a D5F10101 		rsbs	r1, r5, #1
 791 007e 38BF     		it	cc
 792 0080 0021     		movcc	r1, #0
 793 0082 0420     		movs	r0, #4
 794 0084 FFF7FEFF 		bl	_test_assert
 795              	.LVL71:
ARM GAS  /tmp/cci2t0kd.s 			page 15


 796 0088 0028     		cmp	r0, #0
 797 008a CAD1     		bne	.L38
 798              		.loc 1 166 0
 799 008c 2168     		ldr	r1, [r4]
 800 008e 0D1B     		subs	r5, r1, r4
 801              	.LVL72:
 802 0090 6942     		rsbs	r1, r5, #0
 803 0092 6941     		adcs	r1, r1, r5
 804 0094 0520     		movs	r0, #5
 805 0096 FFF7FEFF 		bl	_test_assert
 806              	.LVL73:
 807 009a 0028     		cmp	r0, #0
 808 009c C1D1     		bne	.L38
 809              		.loc 1 167 0
 810 009e A168     		ldr	r1, [r4, #8]
 811 00a0 D1F10101 		rsbs	r1, r1, #1
 812 00a4 38BF     		it	cc
 813 00a6 0021     		movcc	r1, #0
 814 00a8 0620     		movs	r0, #6
 815 00aa FFF7FEFF 		bl	_test_assert
 816              	.LVL74:
 817 00ae 0028     		cmp	r0, #0
 818 00b0 B7D1     		bne	.L38
 819              		.loc 1 172 0
 820 00b2 FFF7FEFF 		bl	test_wait_tick
 821              	.LVL75:
 822              		.loc 1 173 0
 823 00b6 234B     		ldr	r3, .L45+20
 824 00b8 DE68     		ldr	r6, [r3, #12]
 825              	.LVL76:
 826 00ba 4125     		movs	r5, #65
 827              	.LVL77:
 828              	.L43:
 829              		.loc 1 175 0
 830 00bc 2846     		mov	r0, r5
 831 00be FFF7FEFF 		bl	test_emit_token
 832              	.LVL78:
 833              		.loc 1 176 0
 834 00c2 4FF4FA71 		mov	r1, #500
 835 00c6 1A48     		ldr	r0, .L45
 836 00c8 FFF7FEFF 		bl	chSemWaitTimeout
 837              	.LVL79:
 838              		.loc 1 177 0
 839 00cc B0F1FF32 		subs	r2, r0, #-1
 840 00d0 5142     		rsbs	r1, r2, #0
 841 00d2 5141     		adcs	r1, r1, r2
 842 00d4 0720     		movs	r0, #7
 843              	.LVL80:
 844 00d6 FFF7FEFF 		bl	_test_assert
 845              	.LVL81:
 846 00da 0028     		cmp	r0, #0
 847 00dc A1D1     		bne	.L38
 848              		.loc 1 178 0
 849 00de 2168     		ldr	r1, [r4]
 850 00e0 0B1B     		subs	r3, r1, r4
 851 00e2 5942     		rsbs	r1, r3, #0
 852 00e4 5941     		adcs	r1, r1, r3
ARM GAS  /tmp/cci2t0kd.s 			page 16


 853 00e6 0820     		movs	r0, #8
 854 00e8 FFF7FEFF 		bl	_test_assert
 855              	.LVL82:
 856 00ec 0028     		cmp	r0, #0
 857 00ee 98D1     		bne	.L38
 858              		.loc 1 179 0
 859 00f0 A168     		ldr	r1, [r4, #8]
 860 00f2 D1F10101 		rsbs	r1, r1, #1
 861 00f6 4FF00900 		mov	r0, #9
 862 00fa 38BF     		it	cc
 863 00fc 0021     		movcc	r1, #0
 864 00fe FFF7FEFF 		bl	_test_assert
 865              	.LVL83:
 866 0102 0135     		adds	r5, r5, #1
 867 0104 EDB2     		uxtb	r5, r5
 868 0106 0028     		cmp	r0, #0
 869 0108 8BD1     		bne	.L38
 870              		.loc 1 174 0
 871 010a 462D     		cmp	r5, #70
 872 010c D6D1     		bne	.L43
 873              		.loc 1 181 0
 874 010e 0A20     		movs	r0, #10
 875 0110 0D49     		ldr	r1, .L45+24
 876 0112 FFF7FEFF 		bl	_test_assert_sequence
 877              	.LVL84:
 878 0116 0028     		cmp	r0, #0
 879 0118 83D1     		bne	.L38
 880              		.loc 1 182 0
 881 011a 0B20     		movs	r0, #11
 882 011c 06F6C411 		addw	r1, r6, #2500
 883 0120 06F6C912 		addw	r2, r6, #2505
 884              	.LBE17:
 885              	.LBE16:
 886              		.loc 1 183 0
 887 0124 02B0     		add	sp, sp, #8
 888              		@ sp needed
 889 0126 BDE87040 		pop	{r4, r5, r6, lr}
 890              	.LVL85:
 891              	.LBB19:
 892              	.LBB18:
 893              		.loc 1 182 0
 894 012a FFF7FEBF 		b	_test_assert_time_window
 895              	.LVL86:
 896              	.L46:
 897 012e 00BF     		.align	2
 898              	.L45:
 899 0130 00000000 		.word	.LANCHOR0
 900 0134 00000000 		.word	rlist
 901 0138 00000000 		.word	wa
 902 013c 00000000 		.word	thread2
 903 0140 00000000 		.word	threads
 904 0144 00000000 		.word	vtlist
 905 0148 14000000 		.word	.LC5
 906              	.LBE18:
 907              	.LBE19:
 908              		.cfi_endproc
 909              	.LFE12:
ARM GAS  /tmp/cci2t0kd.s 			page 17


 910              		.size	sem2_execute, .-sem2_execute
 911 014c AFF30080 		.section	.text.sem3_execute,"ax",%progbits
 912              		.align	2
 913              		.p2align 4,,15
 914              		.thumb
 915              		.thumb_func
 916              		.type	sem3_execute, %function
 917              	sem3_execute:
 918              	.LFB15:
 919              		.loc 1 218 0
 920              		.cfi_startproc
 921              		@ args = 0, pretend = 0, frame = 0
 922              		@ frame_needed = 0, uses_anonymous_args = 0
 923 0000 10B5     		push	{r4, lr}
 924              		.cfi_def_cfa_offset 8
 925              		.cfi_offset 4, -8
 926              		.cfi_offset 14, -4
 927              		.loc 1 220 0
 928 0002 214B     		ldr	r3, .L52
 929 0004 214A     		ldr	r2, .L52+4
 930 0006 9B69     		ldr	r3, [r3, #24]
 931 0008 1068     		ldr	r0, [r2]
 932 000a 9A68     		ldr	r2, [r3, #8]
 933 000c 204B     		ldr	r3, .L52+8
 934              		.loc 1 221 0
 935 000e 214C     		ldr	r4, .L52+12
 936              		.loc 1 218 0
 937 0010 82B0     		sub	sp, sp, #8
 938              		.cfi_def_cfa_offset 16
 939              		.loc 1 220 0
 940 0012 0021     		movs	r1, #0
 941 0014 0132     		adds	r2, r2, #1
 942 0016 0091     		str	r1, [sp]
 943 0018 4FF4EC71 		mov	r1, #472
 944 001c FFF7FEFF 		bl	chThdCreateStatic
 945              	.LVL87:
 946 0020 1D4B     		ldr	r3, .L52+16
 947              		.loc 1 221 0
 948 0022 2146     		mov	r1, r4
 949              		.loc 1 220 0
 950 0024 1860     		str	r0, [r3]
 951              		.loc 1 221 0
 952 0026 2046     		mov	r0, r4
 953 0028 FFF7FEFF 		bl	chSemSignalWait
 954              	.LVL88:
 955              		.loc 1 222 0
 956 002c 2168     		ldr	r1, [r4]
 957 002e 0A1B     		subs	r2, r1, r4
 958 0030 5142     		rsbs	r1, r2, #0
 959 0032 5141     		adcs	r1, r1, r2
 960 0034 0120     		movs	r0, #1
 961 0036 FFF7FEFF 		bl	_test_assert
 962              	.LVL89:
 963 003a 08B1     		cbz	r0, .L51
 964              	.L47:
 965              		.loc 1 228 0
 966 003c 02B0     		add	sp, sp, #8
ARM GAS  /tmp/cci2t0kd.s 			page 18


 967              		@ sp needed
 968 003e 10BD     		pop	{r4, pc}
 969              	.L51:
 970              		.loc 1 223 0
 971 0040 A168     		ldr	r1, [r4, #8]
 972 0042 D1F10101 		rsbs	r1, r1, #1
 973 0046 38BF     		it	cc
 974 0048 0021     		movcc	r1, #0
 975 004a 0220     		movs	r0, #2
 976 004c FFF7FEFF 		bl	_test_assert
 977              	.LVL90:
 978 0050 0028     		cmp	r0, #0
 979 0052 F3D1     		bne	.L47
 980              	.LBB22:
 981              	.LBB23:
 982              		.loc 1 225 0
 983 0054 2146     		mov	r1, r4
 984 0056 2046     		mov	r0, r4
 985 0058 FFF7FEFF 		bl	chSemSignalWait
 986              	.LVL91:
 987              		.loc 1 226 0
 988 005c 2168     		ldr	r1, [r4]
 989 005e 0B1B     		subs	r3, r1, r4
 990 0060 5942     		rsbs	r1, r3, #0
 991 0062 5941     		adcs	r1, r1, r3
 992 0064 0320     		movs	r0, #3
 993 0066 FFF7FEFF 		bl	_test_assert
 994              	.LVL92:
 995 006a 0028     		cmp	r0, #0
 996 006c E6D1     		bne	.L47
 997              		.loc 1 227 0
 998 006e A168     		ldr	r1, [r4, #8]
 999 0070 D1F10101 		rsbs	r1, r1, #1
 1000 0074 4FF00400 		mov	r0, #4
 1001 0078 38BF     		it	cc
 1002 007a 0021     		movcc	r1, #0
 1003              	.LBE23:
 1004              	.LBE22:
 1005              		.loc 1 228 0
 1006 007c 02B0     		add	sp, sp, #8
 1007              		@ sp needed
 1008 007e BDE81040 		pop	{r4, lr}
 1009              	.LBB25:
 1010              	.LBB24:
 1011              		.loc 1 227 0
 1012 0082 FFF7FEBF 		b	_test_assert
 1013              	.LVL93:
 1014              	.L53:
 1015 0086 00BF     		.align	2
 1016              	.L52:
 1017 0088 00000000 		.word	rlist
 1018 008c 00000000 		.word	wa
 1019 0090 00000000 		.word	thread3
 1020 0094 00000000 		.word	.LANCHOR0
 1021 0098 00000000 		.word	threads
 1022              	.LBE24:
 1023              	.LBE25:
ARM GAS  /tmp/cci2t0kd.s 			page 19


 1024              		.cfi_endproc
 1025              	.LFE15:
 1026              		.size	sem3_execute, .-sem3_execute
 1027              		.global	patternsem
 1028              		.global	testsem4
 1029              		.global	testsem3
 1030              		.global	testsem2
 1031              		.global	testsem1
 1032 009c AFF30080 		.section	.rodata.testsem1,"a",%progbits
 1033              		.align	2
 1034              		.type	testsem1, %object
 1035              		.size	testsem1, 16
 1036              	testsem1:
 1037 0000 74000000 		.word	.LC9
 1038 0004 00000000 		.word	sem1_setup
 1039 0008 00000000 		.word	0
 1040 000c 00000000 		.word	sem1_execute
 1041              		.section	.rodata.testsem2,"a",%progbits
 1042              		.align	2
 1043              		.type	testsem2, %object
 1044              		.size	testsem2, 16
 1045              	testsem2:
 1046 0000 60000000 		.word	.LC8
 1047 0004 00000000 		.word	sem2_setup
 1048 0008 00000000 		.word	0
 1049 000c 00000000 		.word	sem2_execute
 1050              		.section	.rodata.testsem3,"a",%progbits
 1051              		.align	2
 1052              		.type	testsem3, %object
 1053              		.size	testsem3, 16
 1054              	testsem3:
 1055 0000 40000000 		.word	.LC7
 1056 0004 00000000 		.word	sem3_setup
 1057 0008 00000000 		.word	0
 1058 000c 00000000 		.word	sem3_execute
 1059              		.section	.rodata.testsem4,"a",%progbits
 1060              		.align	2
 1061              		.type	testsem4, %object
 1062              		.size	testsem4, 16
 1063              	testsem4:
 1064 0000 1C000000 		.word	.LC6
 1065 0004 00000000 		.word	0
 1066 0008 00000000 		.word	0
 1067 000c 00000000 		.word	sem4_execute
 1068              		.section	.data.sem1,"aw",%progbits
 1069              		.align	2
 1070              		.set	.LANCHOR0,. + 0
 1071              		.type	sem1, %object
 1072              		.size	sem1, 12
 1073              	sem1:
 1074 0000 00000000 		.word	sem1
 1075 0004 00000000 		.word	sem1
 1076 0008 00000000 		.word	0
 1077              		.section	.rodata.patternsem,"a",%progbits
 1078              		.align	2
 1079              		.type	patternsem, %object
 1080              		.size	patternsem, 20
ARM GAS  /tmp/cci2t0kd.s 			page 20


 1081              	patternsem:
 1082 0000 00000000 		.word	testsem1
 1083 0004 00000000 		.word	testsem2
 1084 0008 00000000 		.word	testsem3
 1085 000c 00000000 		.word	testsem4
 1086 0010 00000000 		.word	0
 1087              		.section	.rodata.str1.4,"aMS",%progbits,1
 1088              		.align	2
 1089              	.LC0:
 1090 0000 4100     		.ascii	"A\000"
 1091 0002 0000     		.space	2
 1092              	.LC1:
 1093 0004 4200     		.ascii	"B\000"
 1094 0006 0000     		.space	2
 1095              	.LC2:
 1096 0008 4300     		.ascii	"C\000"
 1097 000a 0000     		.space	2
 1098              	.LC3:
 1099 000c 4400     		.ascii	"D\000"
 1100 000e 0000     		.space	2
 1101              	.LC4:
 1102 0010 4500     		.ascii	"E\000"
 1103 0012 0000     		.space	2
 1104              	.LC5:
 1105 0014 41424344 		.ascii	"ABCDE\000"
 1105      4500
 1106 001a 0000     		.space	2
 1107              	.LC6:
 1108 001c 42696E61 		.ascii	"Binary Semaphores, functionality\000"
 1108      72792053 
 1108      656D6170 
 1108      686F7265 
 1108      732C2066 
 1109 003d 000000   		.space	3
 1110              	.LC7:
 1111 0040 53656D61 		.ascii	"Semaphores, atomic signal-wait\000"
 1111      70686F72 
 1111      65732C20 
 1111      61746F6D 
 1111      69632073 
 1112 005f 00       		.space	1
 1113              	.LC8:
 1114 0060 53656D61 		.ascii	"Semaphores, timeout\000"
 1114      70686F72 
 1114      65732C20 
 1114      74696D65 
 1114      6F757400 
 1115              	.LC9:
 1116 0074 53656D61 		.ascii	"Semaphores, enqueuing\000"
 1116      70686F72 
 1116      65732C20 
 1116      656E7175 
 1116      6575696E 
 1117 008a 0000     		.text
 1118              	.Letext0:
 1119              		.file 2 "/opt/ARM/lib/gcc/arm-none-eabi/4.8.4/include/stddef.h"
 1120              		.file 3 "/opt/ARM/arm-none-eabi/include/machine/_default_types.h"
ARM GAS  /tmp/cci2t0kd.s 			page 21


 1121              		.file 4 "/opt/ARM/arm-none-eabi/include/stdint.h"
 1122              		.file 5 "../../os/ports/GCC/ARMCMx/chtypes.h"
 1123              		.file 6 "../../os/kernel/include/chlists.h"
 1124              		.file 7 "../../os/kernel/include/chthreads.h"
 1125              		.file 8 "../../os/ports/GCC/ARMCMx/chcore_v7m.h"
 1126              		.file 9 "../../os/kernel/include/chvt.h"
 1127              		.file 10 "../../os/kernel/include/chschd.h"
 1128              		.file 11 "../../os/kernel/include/chsem.h"
 1129              		.file 12 "../../os/kernel/include/chbsem.h"
 1130              		.file 13 "../../os/kernel/include/chmtx.h"
 1131              		.file 14 "../../test/test.h"
 1132              		.file 15 "../../os/kernel/include/chdebug.h"