Archive member included because of file (symbol)

/opt/ARM/bin/../lib/gcc/arm-none-eabi/4.8.4/armv7e-m/fpu/libgcc.a(_aeabi_ldivmod.o)
                              build/obj/main.o (__aeabi_ldivmod)
/opt/ARM/bin/../lib/gcc/arm-none-eabi/4.8.4/armv7e-m/fpu/libgcc.a(_aeabi_uldivmod.o)
                              build/obj/main.o (__aeabi_uldivmod)
/opt/ARM/bin/../lib/gcc/arm-none-eabi/4.8.4/armv7e-m/fpu/libgcc.a(bpabi.o)
                              /opt/ARM/bin/../lib/gcc/arm-none-eabi/4.8.4/armv7e-m/fpu/libgcc.a(_aeabi_ldivmod.o) (__gnu_ldivmod_helper)
/opt/ARM/bin/../lib/gcc/arm-none-eabi/4.8.4/armv7e-m/fpu/libgcc.a(_dvmd_tls.o)
                              /opt/ARM/bin/../lib/gcc/arm-none-eabi/4.8.4/armv7e-m/fpu/libgcc.a(_aeabi_ldivmod.o) (__aeabi_ldiv0)
/opt/ARM/bin/../lib/gcc/arm-none-eabi/4.8.4/armv7e-m/fpu/libgcc.a(_divdi3.o)
                              /opt/ARM/bin/../lib/gcc/arm-none-eabi/4.8.4/armv7e-m/fpu/libgcc.a(bpabi.o) (__divdi3)
/opt/ARM/bin/../lib/gcc/arm-none-eabi/4.8.4/armv7e-m/fpu/libgcc.a(_udivdi3.o)
                              /opt/ARM/bin/../lib/gcc/arm-none-eabi/4.8.4/armv7e-m/fpu/libgcc.a(bpabi.o) (__udivdi3)
/opt/ARM/bin/../lib/gcc/arm-none-eabi/4.8.4/../../../../arm-none-eabi/lib/armv7e-m/fpu/libg.a(lib_a-memcpy.o)
                              build/obj/chibios.o (memcpy)
/opt/ARM/bin/../lib/gcc/arm-none-eabi/4.8.4/../../../../arm-none-eabi/lib/armv7e-m/fpu/libg.a(lib_a-memset.o)
                              build/obj/syscalls.o (memset)
/opt/ARM/bin/../lib/gcc/arm-none-eabi/4.8.4/../../../../arm-none-eabi/lib/armv7e-m/fpu/libg.a(lib_a-sprintf.o)
                              build/obj/main.o (sprintf)
/opt/ARM/bin/../lib/gcc/arm-none-eabi/4.8.4/../../../../arm-none-eabi/lib/armv7e-m/fpu/libg.a(lib_a-strcmp.o)
                              build/obj/gfile.o (strcmp)
/opt/ARM/bin/../lib/gcc/arm-none-eabi/4.8.4/../../../../arm-none-eabi/lib/armv7e-m/fpu/libg.a(lib_a-strcpy.o)
                              build/obj/gwidget.o (strcpy)
/opt/ARM/bin/../lib/gcc/arm-none-eabi/4.8.4/../../../../arm-none-eabi/lib/armv7e-m/fpu/libg.a(lib_a-strlen.o)
                              build/obj/gwidget.o (strlen)
/opt/ARM/bin/../lib/gcc/arm-none-eabi/4.8.4/../../../../arm-none-eabi/lib/armv7e-m/fpu/libg.a(lib_a-strncat.o)
                              build/obj/main.o (strncat)
/opt/ARM/bin/../lib/gcc/arm-none-eabi/4.8.4/../../../../arm-none-eabi/lib/armv7e-m/fpu/libg.a(lib_a-svfprintf.o)
                              /opt/ARM/bin/../lib/gcc/arm-none-eabi/4.8.4/../../../../arm-none-eabi/lib/armv7e-m/fpu/libg.a(lib_a-sprintf.o) (_svfprintf_r)
/opt/ARM/bin/../lib/gcc/arm-none-eabi/4.8.4/../../../../arm-none-eabi/lib/armv7e-m/fpu/libg.a(lib_a-dtoa.o)
                              /opt/ARM/bin/../lib/gcc/arm-none-eabi/4.8.4/../../../../arm-none-eabi/lib/armv7e-m/fpu/libg.a(lib_a-svfprintf.o) (_dtoa_r)
/opt/ARM/bin/../lib/gcc/arm-none-eabi/4.8.4/../../../../arm-none-eabi/lib/armv7e-m/fpu/libg.a(lib_a-impure.o)
                              /opt/ARM/bin/../lib/gcc/arm-none-eabi/4.8.4/../../../../arm-none-eabi/lib/armv7e-m/fpu/libg.a(lib_a-sprintf.o) (_impure_ptr)
/opt/ARM/bin/../lib/gcc/arm-none-eabi/4.8.4/../../../../arm-none-eabi/lib/armv7e-m/fpu/libg.a(lib_a-locale.o)
                              /opt/ARM/bin/../lib/gcc/arm-none-eabi/4.8.4/../../../../arm-none-eabi/lib/armv7e-m/fpu/libg.a(lib_a-svfprintf.o) (_localeconv_r)
/opt/ARM/bin/../lib/gcc/arm-none-eabi/4.8.4/../../../../arm-none-eabi/lib/armv7e-m/fpu/libg.a(lib_a-mallocr.o)
                              /opt/ARM/bin/../lib/gcc/arm-none-eabi/4.8.4/../../../../arm-none-eabi/lib/armv7e-m/fpu/libg.a(lib_a-svfprintf.o) (_malloc_r)
/opt/ARM/bin/../lib/gcc/arm-none-eabi/4.8.4/../../../../arm-none-eabi/lib/armv7e-m/fpu/libg.a(lib_a-memchr-stub.o)
                              /opt/ARM/bin/../lib/gcc/arm-none-eabi/4.8.4/../../../../arm-none-eabi/lib/armv7e-m/fpu/libg.a(lib_a-svfprintf.o) (memchr)
/opt/ARM/bin/../lib/gcc/arm-none-eabi/4.8.4/../../../../arm-none-eabi/lib/armv7e-m/fpu/libg.a(lib_a-mlock.o)
                              /opt/ARM/bin/../lib/gcc/arm-none-eabi/4.8.4/../../../../arm-none-eabi/lib/armv7e-m/fpu/libg.a(lib_a-mallocr.o) (__malloc_lock)
/opt/ARM/bin/../lib/gcc/arm-none-eabi/4.8.4/../../../../arm-none-eabi/lib/armv7e-m/fpu/libg.a(lib_a-mprec.o)
                              /opt/ARM/bin/../lib/gcc/arm-none-eabi/4.8.4/../../../../arm-none-eabi/lib/armv7e-m/fpu/libg.a(lib_a-dtoa.o) (_Balloc)
/opt/ARM/bin/../lib/gcc/arm-none-eabi/4.8.4/../../../../arm-none-eabi/lib/armv7e-m/fpu/libg.a(lib_a-s_fpclassify.o)
                              /opt/ARM/bin/../lib/gcc/arm-none-eabi/4.8.4/../../../../arm-none-eabi/lib/armv7e-m/fpu/libg.a(lib_a-svfprintf.o) (__fpclassifyd)
/opt/ARM/bin/../lib/gcc/arm-none-eabi/4.8.4/../../../../arm-none-eabi/lib/armv7e-m/fpu/libg.a(lib_a-svfiprintf.o)
                              /opt/ARM/bin/../lib/gcc/arm-none-eabi/4.8.4/../../../../arm-none-eabi/lib/armv7e-m/fpu/libg.a(lib_a-svfprintf.o) (__ssprint_r)
/opt/ARM/bin/../lib/gcc/arm-none-eabi/4.8.4/../../../../arm-none-eabi/lib/armv7e-m/fpu/libg.a(lib_a-callocr.o)
                              /opt/ARM/bin/../lib/gcc/arm-none-eabi/4.8.4/../../../../arm-none-eabi/lib/armv7e-m/fpu/libg.a(lib_a-mprec.o) (_calloc_r)
/opt/ARM/bin/../lib/gcc/arm-none-eabi/4.8.4/../../../../arm-none-eabi/lib/armv7e-m/fpu/libg.a(lib_a-freer.o)
                              /opt/ARM/bin/../lib/gcc/arm-none-eabi/4.8.4/../../../../arm-none-eabi/lib/armv7e-m/fpu/libg.a(lib_a-mallocr.o) (_free_r)
/opt/ARM/bin/../lib/gcc/arm-none-eabi/4.8.4/../../../../arm-none-eabi/lib/armv7e-m/fpu/libg.a(lib_a-memmove.o)
                              /opt/ARM/bin/../lib/gcc/arm-none-eabi/4.8.4/../../../../arm-none-eabi/lib/armv7e-m/fpu/libg.a(lib_a-svfiprintf.o) (memmove)
/opt/ARM/bin/../lib/gcc/arm-none-eabi/4.8.4/../../../../arm-none-eabi/lib/armv7e-m/fpu/libg.a(lib_a-reallocr.o)
                              /opt/ARM/bin/../lib/gcc/arm-none-eabi/4.8.4/../../../../arm-none-eabi/lib/armv7e-m/fpu/libg.a(lib_a-svfiprintf.o) (_realloc_r)
/opt/ARM/bin/../lib/gcc/arm-none-eabi/4.8.4/armv7e-m/fpu/libgcc.a(_arm_addsubdf3.o)
                              /opt/ARM/bin/../lib/gcc/arm-none-eabi/4.8.4/../../../../arm-none-eabi/lib/armv7e-m/fpu/libg.a(lib_a-dtoa.o) (__aeabi_dsub)
/opt/ARM/bin/../lib/gcc/arm-none-eabi/4.8.4/armv7e-m/fpu/libgcc.a(_arm_muldivdf3.o)
                              /opt/ARM/bin/../lib/gcc/arm-none-eabi/4.8.4/../../../../arm-none-eabi/lib/armv7e-m/fpu/libg.a(lib_a-dtoa.o) (__aeabi_dmul)
/opt/ARM/bin/../lib/gcc/arm-none-eabi/4.8.4/armv7e-m/fpu/libgcc.a(_arm_cmpdf2.o)
                              /opt/ARM/bin/../lib/gcc/arm-none-eabi/4.8.4/../../../../arm-none-eabi/lib/armv7e-m/fpu/libg.a(lib_a-svfprintf.o) (__aeabi_dcmpeq)
/opt/ARM/bin/../lib/gcc/arm-none-eabi/4.8.4/armv7e-m/fpu/libgcc.a(_arm_fixdfsi.o)
                              /opt/ARM/bin/../lib/gcc/arm-none-eabi/4.8.4/../../../../arm-none-eabi/lib/armv7e-m/fpu/libg.a(lib_a-dtoa.o) (__aeabi_d2iz)

Discarded input sections

 .text          0x00000000        0x0 build/obj/crt0.o
 .data          0x00000000        0x0 build/obj/crt0.o
 .bss           0x00000000        0x0 build/obj/crt0.o
 .text.__early_init
                0x00000000       0x10 build/obj/crt0.o
 .text          0x00000000        0x0 build/obj/vectors.o
 .data          0x00000000        0x0 build/obj/vectors.o
 .bss           0x00000000        0x0 build/obj/vectors.o
 .text          0x00000000        0x0 build/obj/chcore.o
 .data          0x00000000        0x0 build/obj/chcore.o
 .bss           0x00000000        0x0 build/obj/chcore.o
 .text          0x00000000        0x0 build/obj/chcore_v7m.o
 .data          0x00000000        0x0 build/obj/chcore_v7m.o
 .bss           0x00000000        0x0 build/obj/chcore_v7m.o
 .text          0x00000000        0x0 build/obj/nvic.o
 .data          0x00000000        0x0 build/obj/nvic.o
 .bss           0x00000000        0x0 build/obj/nvic.o
 .text.nvicDisableVector
                0x00000000       0x50 build/obj/nvic.o
 .text          0x00000000        0x0 build/obj/chsys.o
 .data          0x00000000        0x0 build/obj/chsys.o
 .bss           0x00000000        0x0 build/obj/chsys.o
 .text          0x00000000        0x0 build/obj/chdebug.o
 .data          0x00000000        0x0 build/obj/chdebug.o
 .bss           0x00000000        0x0 build/obj/chdebug.o
 .text          0x00000000        0x0 build/obj/chlists.o
 .data          0x00000000        0x0 build/obj/chlists.o
 .bss           0x00000000        0x0 build/obj/chlists.o
 .text.lifo_remove
                0x00000000       0x10 build/obj/chlists.o
 .text.list_insert
                0x00000000       0x10 build/obj/chlists.o
 .text          0x00000000        0x0 build/obj/chvt.o
 .data          0x00000000        0x0 build/obj/chvt.o
 .bss           0x00000000        0x0 build/obj/chvt.o
 .text          0x00000000        0x0 build/obj/chschd.o
 .data          0x00000000        0x0 build/obj/chschd.o
 .bss           0x00000000        0x0 build/obj/chschd.o
 .text          0x00000000        0x0 build/obj/chthreads.o
 .data          0x00000000        0x0 build/obj/chthreads.o
 .bss           0x00000000        0x0 build/obj/chthreads.o
 .text.chThdSetPriority
                0x00000000       0x40 build/obj/chthreads.o
 .text.chThdResume
                0x00000000       0x30 build/obj/chthreads.o
 .text.chThdTerminate
                0x00000000       0x20 build/obj/chthreads.o
 .text.chThdSleepUntil
                0x00000000       0x20 build/obj/chthreads.o
 .text.chThdWait
                0x00000000       0x70 build/obj/chthreads.o
 .text          0x00000000        0x0 build/obj/chdynamic.o
 .data          0x00000000        0x0 build/obj/chdynamic.o
 .bss           0x00000000        0x0 build/obj/chdynamic.o
 .text.chThdAddRef
                0x00000000       0x30 build/obj/chdynamic.o
 .text.chThdRelease
                0x00000000       0x80 build/obj/chdynamic.o
 .text.chThdCreateFromMemoryPool
                0x00000000       0x70 build/obj/chdynamic.o
 .rodata.str1.4
                0x00000000       0x48 build/obj/chdynamic.o
 .text          0x00000000        0x0 build/obj/chregistry.o
 .data          0x00000000        0x0 build/obj/chregistry.o
 .bss           0x00000000        0x0 build/obj/chregistry.o
 .text.chRegFirstThread
                0x00000000       0x20 build/obj/chregistry.o
 .text.chRegNextThread
                0x00000000       0x50 build/obj/chregistry.o
 .rodata.str1.4
                0x00000000       0x18 build/obj/chregistry.o
 .text          0x00000000        0x0 build/obj/chsem.o
 .data          0x00000000        0x0 build/obj/chsem.o
 .bss           0x00000000        0x0 build/obj/chsem.o
 .text.chSemResetI
                0x00000000       0x60 build/obj/chsem.o
 .text.chSemReset
                0x00000000       0x20 build/obj/chsem.o
 .text.chSemSignal
                0x00000000       0x60 build/obj/chsem.o
 .text.chSemAddCounterI
                0x00000000       0x60 build/obj/chsem.o
 .text.chSemSignalWait
                0x00000000       0xb0 build/obj/chsem.o
 .text          0x00000000        0x0 build/obj/chmtx.o
 .data          0x00000000        0x0 build/obj/chmtx.o
 .bss           0x00000000        0x0 build/obj/chmtx.o
 .text.chMtxTryLockS
                0x00000000       0x30 build/obj/chmtx.o
 .text.chMtxTryLock
                0x00000000       0x10 build/obj/chmtx.o
 .text.chMtxUnlockS
                0x00000000       0x80 build/obj/chmtx.o
 .text.chMtxUnlockAll
                0x00000000       0x50 build/obj/chmtx.o
 .text          0x00000000        0x0 build/obj/chcond.o
 .data          0x00000000        0x0 build/obj/chcond.o
 .bss           0x00000000        0x0 build/obj/chcond.o
 .text.chCondInit
                0x00000000       0x20 build/obj/chcond.o
 .text.chCondSignal
                0x00000000       0x30 build/obj/chcond.o
 .text.chCondSignalI
                0x00000000       0x30 build/obj/chcond.o
 .text.chCondBroadcastI
                0x00000000       0x30 build/obj/chcond.o
 .text.chCondBroadcast
                0x00000000       0x20 build/obj/chcond.o
 .text.chCondWaitS
                0x00000000       0x50 build/obj/chcond.o
 .text.chCondWait
                0x00000000       0x10 build/obj/chcond.o
 .text.chCondWaitTimeoutS
                0x00000000       0x60 build/obj/chcond.o
 .text.chCondWaitTimeout
                0x00000000       0x10 build/obj/chcond.o
 .rodata.str1.4
                0x00000000       0xa8 build/obj/chcond.o
 .debug_info    0x00000000      0x9ad build/obj/chcond.o
 .debug_abbrev  0x00000000      0x228 build/obj/chcond.o
 .debug_loc     0x00000000      0x281 build/obj/chcond.o
 .debug_aranges
                0x00000000       0x60 build/obj/chcond.o
 .debug_ranges  0x00000000       0x50 build/obj/chcond.o
 .debug_line    0x00000000      0x241 build/obj/chcond.o
 .debug_str     0x00000000      0x530 build/obj/chcond.o
 .comment       0x00000000       0x71 build/obj/chcond.o
 .ARM.attributes
                0x00000000       0x39 build/obj/chcond.o
 .debug_frame   0x00000000      0x120 build/obj/chcond.o
 .text          0x00000000        0x0 build/obj/chevents.o
 .data          0x00000000        0x0 build/obj/chevents.o
 .bss           0x00000000        0x0 build/obj/chevents.o
 .text.chEvtRegisterMask
                0x00000000       0x40 build/obj/chevents.o
 .text.chEvtUnregister
                0x00000000       0x40 build/obj/chevents.o
 .text.chEvtGetAndClearEvents
                0x00000000       0x20 build/obj/chevents.o
 .text.chEvtAddEvents
                0x00000000       0x20 build/obj/chevents.o
 .text.chEvtGetAndClearFlags
                0x00000000       0x20 build/obj/chevents.o
 .text.chEvtSignal
                0x00000000       0x30 build/obj/chevents.o
 .text.chEvtBroadcastFlags
                0x00000000       0x20 build/obj/chevents.o
 .text.chEvtGetAndClearFlagsI
                0x00000000       0x10 build/obj/chevents.o
 .text.chEvtDispatch
                0x00000000       0x60 build/obj/chevents.o
 .text.chEvtWaitOneTimeout
                0x00000000       0x50 build/obj/chevents.o
 .text.chEvtWaitAnyTimeout
                0x00000000       0x50 build/obj/chevents.o
 .text.chEvtWaitAllTimeout
                0x00000000       0x50 build/obj/chevents.o
 .text          0x00000000        0x0 build/obj/chmsg.o
 .data          0x00000000        0x0 build/obj/chmsg.o
 .bss           0x00000000        0x0 build/obj/chmsg.o
 .text.chMsgSend
                0x00000000       0x60 build/obj/chmsg.o
 .text.chMsgWait
                0x00000000       0x40 build/obj/chmsg.o
 .text.chMsgRelease
                0x00000000       0x30 build/obj/chmsg.o
 .rodata.str1.4
                0x00000000       0x24 build/obj/chmsg.o
 .debug_info    0x00000000      0x6c8 build/obj/chmsg.o
 .debug_abbrev  0x00000000      0x1aa build/obj/chmsg.o
 .debug_loc     0x00000000       0xf2 build/obj/chmsg.o
 .debug_aranges
                0x00000000       0x30 build/obj/chmsg.o
 .debug_ranges  0x00000000       0x20 build/obj/chmsg.o
 .debug_line    0x00000000      0x18b build/obj/chmsg.o
 .debug_str     0x00000000      0x47b build/obj/chmsg.o
 .comment       0x00000000       0x71 build/obj/chmsg.o
 .ARM.attributes
                0x00000000       0x39 build/obj/chmsg.o
 .debug_frame   0x00000000       0x6c build/obj/chmsg.o
 .text          0x00000000        0x0 build/obj/chmboxes.o
 .data          0x00000000        0x0 build/obj/chmboxes.o
 .bss           0x00000000        0x0 build/obj/chmboxes.o
 .text.chMBInit
                0x00000000       0x40 build/obj/chmboxes.o
 .text.chMBReset
                0x00000000       0x40 build/obj/chmboxes.o
 .text.chMBPostS
                0x00000000       0x50 build/obj/chmboxes.o
 .text.chMBPost
                0x00000000       0x10 build/obj/chmboxes.o
 .text.chMBPostI
                0x00000000       0x50 build/obj/chmboxes.o
 .text.chMBPostAheadS
                0x00000000       0x50 build/obj/chmboxes.o
 .text.chMBPostAhead
                0x00000000       0x10 build/obj/chmboxes.o
 .text.chMBPostAheadI
                0x00000000       0x50 build/obj/chmboxes.o
 .text.chMBFetchS
                0x00000000       0x50 build/obj/chmboxes.o
 .text.chMBFetch
                0x00000000       0x10 build/obj/chmboxes.o
 .text.chMBFetchI
                0x00000000       0x50 build/obj/chmboxes.o
 .rodata.str1.4
                0x00000000       0x88 build/obj/chmboxes.o
 .debug_info    0x00000000      0xb15 build/obj/chmboxes.o
 .debug_abbrev  0x00000000      0x221 build/obj/chmboxes.o
 .debug_loc     0x00000000      0x5e3 build/obj/chmboxes.o
 .debug_aranges
                0x00000000       0x70 build/obj/chmboxes.o
 .debug_ranges  0x00000000       0x60 build/obj/chmboxes.o
 .debug_line    0x00000000      0x2d3 build/obj/chmboxes.o
 .debug_str     0x00000000      0x50a build/obj/chmboxes.o
 .comment       0x00000000       0x71 build/obj/chmboxes.o
 .ARM.attributes
                0x00000000       0x39 build/obj/chmboxes.o
 .debug_frame   0x00000000      0x164 build/obj/chmboxes.o
 .text          0x00000000        0x0 build/obj/chqueues.o
 .data          0x00000000        0x0 build/obj/chqueues.o
 .bss           0x00000000        0x0 build/obj/chqueues.o
 .text.chIQResetI
                0x00000000       0x30 build/obj/chqueues.o
 .text.chOQResetI
                0x00000000       0x30 build/obj/chqueues.o
 .text          0x00000000        0x0 build/obj/chmemcore.o
 .data          0x00000000        0x0 build/obj/chmemcore.o
 .bss           0x00000000        0x0 build/obj/chmemcore.o
 .text.chCoreAllocI
                0x00000000       0x30 build/obj/chmemcore.o
 .text.chCoreStatus
                0x00000000       0x20 build/obj/chmemcore.o
 .text          0x00000000        0x0 build/obj/chheap.o
 .data          0x00000000        0x0 build/obj/chheap.o
 .bss           0x00000000        0x0 build/obj/chheap.o
 .text.chHeapInit
                0x00000000       0x40 build/obj/chheap.o
 .text.chHeapStatus
                0x00000000       0x40 build/obj/chheap.o
 .text          0x00000000        0x0 build/obj/chmempools.o
 .data          0x00000000        0x0 build/obj/chmempools.o
 .bss           0x00000000        0x0 build/obj/chmempools.o
 .text.chPoolInit
                0x00000000       0x20 build/obj/chmempools.o
 .text.chPoolAllocI
                0x00000000       0x30 build/obj/chmempools.o
 .text.chPoolAlloc
                0x00000000       0x10 build/obj/chmempools.o
 .text.chPoolFreeI
                0x00000000       0x30 build/obj/chmempools.o
 .text.chPoolFree
                0x00000000       0x30 build/obj/chmempools.o
 .text.chPoolLoadArray
                0x00000000       0x40 build/obj/chmempools.o
 .rodata.str1.4
                0x00000000       0x48 build/obj/chmempools.o
 .debug_info    0x00000000      0x386 build/obj/chmempools.o
 .debug_abbrev  0x00000000      0x1d2 build/obj/chmempools.o
 .debug_loc     0x00000000      0x349 build/obj/chmempools.o
 .debug_aranges
                0x00000000       0x48 build/obj/chmempools.o
 .debug_ranges  0x00000000       0x50 build/obj/chmempools.o
 .debug_line    0x00000000      0x1ec build/obj/chmempools.o
 .debug_str     0x00000000      0x2ed build/obj/chmempools.o
 .comment       0x00000000       0x71 build/obj/chmempools.o
 .ARM.attributes
                0x00000000       0x39 build/obj/chmempools.o
 .debug_frame   0x00000000       0xc8 build/obj/chmempools.o
 .text          0x00000000        0x0 build/obj/hal.o
 .data          0x00000000        0x0 build/obj/hal.o
 .bss           0x00000000        0x0 build/obj/hal.o
 .text.halIsCounterWithin
                0x00000000       0x30 build/obj/hal.o
 .text.halPolledDelay
                0x00000000       0x40 build/obj/hal.o
 .text          0x00000000        0x0 build/obj/adc.o
 .data          0x00000000        0x0 build/obj/adc.o
 .bss           0x00000000        0x0 build/obj/adc.o
 .text.adcStop  0x00000000       0x40 build/obj/adc.o
 .text.adcStopConversion
                0x00000000       0x50 build/obj/adc.o
 .text.adcStopConversionI
                0x00000000       0x60 build/obj/adc.o
 .text.adcAcquireBus
                0x00000000       0x30 build/obj/adc.o
 .text.adcReleaseBus
                0x00000000       0x20 build/obj/adc.o
 .text          0x00000000        0x0 build/obj/can.o
 .data          0x00000000        0x0 build/obj/can.o
 .bss           0x00000000        0x0 build/obj/can.o
 .debug_info    0x00000000       0xa0 build/obj/can.o
 .debug_abbrev  0x00000000       0x4b build/obj/can.o
 .debug_aranges
                0x00000000       0x18 build/obj/can.o
 .debug_line    0x00000000       0xbc build/obj/can.o
 .debug_str     0x00000000      0x231 build/obj/can.o
 .comment       0x00000000       0x71 build/obj/can.o
 .ARM.attributes
                0x00000000       0x39 build/obj/can.o
 .text          0x00000000        0x0 build/obj/ext.o
 .data          0x00000000        0x0 build/obj/ext.o
 .bss           0x00000000        0x0 build/obj/ext.o
 .debug_info    0x00000000       0xa0 build/obj/ext.o
 .debug_abbrev  0x00000000       0x4b build/obj/ext.o
 .debug_aranges
                0x00000000       0x18 build/obj/ext.o
 .debug_line    0x00000000       0xbc build/obj/ext.o
 .debug_str     0x00000000      0x231 build/obj/ext.o
 .comment       0x00000000       0x71 build/obj/ext.o
 .ARM.attributes
                0x00000000       0x39 build/obj/ext.o
 .text          0x00000000        0x0 build/obj/gpt.o
 .data          0x00000000        0x0 build/obj/gpt.o
 .bss           0x00000000        0x0 build/obj/gpt.o
 .debug_info    0x00000000       0xa0 build/obj/gpt.o
 .debug_abbrev  0x00000000       0x4b build/obj/gpt.o
 .debug_aranges
                0x00000000       0x18 build/obj/gpt.o
 .debug_line    0x00000000       0xbc build/obj/gpt.o
 .debug_str     0x00000000      0x231 build/obj/gpt.o
 .comment       0x00000000       0x71 build/obj/gpt.o
 .ARM.attributes
                0x00000000       0x39 build/obj/gpt.o
 .text          0x00000000        0x0 build/obj/i2c.o
 .data          0x00000000        0x0 build/obj/i2c.o
 .bss           0x00000000        0x0 build/obj/i2c.o
 .debug_info    0x00000000       0xa0 build/obj/i2c.o
 .debug_abbrev  0x00000000       0x4b build/obj/i2c.o
 .debug_aranges
                0x00000000       0x18 build/obj/i2c.o
 .debug_line    0x00000000       0xbc build/obj/i2c.o
 .debug_str     0x00000000      0x231 build/obj/i2c.o
 .comment       0x00000000       0x71 build/obj/i2c.o
 .ARM.attributes
                0x00000000       0x39 build/obj/i2c.o
 .text          0x00000000        0x0 build/obj/icu.o
 .data          0x00000000        0x0 build/obj/icu.o
 .bss           0x00000000        0x0 build/obj/icu.o
 .text.icuStop  0x00000000       0x40 build/obj/icu.o
 .text.icuDisable
                0x00000000       0x40 build/obj/icu.o
 .text          0x00000000        0x0 build/obj/mac.o
 .data          0x00000000        0x0 build/obj/mac.o
 .bss           0x00000000        0x0 build/obj/mac.o
 .debug_info    0x00000000       0xa0 build/obj/mac.o
 .debug_abbrev  0x00000000       0x4b build/obj/mac.o
 .debug_aranges
                0x00000000       0x18 build/obj/mac.o
 .debug_line    0x00000000       0xbc build/obj/mac.o
 .debug_str     0x00000000      0x231 build/obj/mac.o
 .comment       0x00000000       0x71 build/obj/mac.o
 .ARM.attributes
                0x00000000       0x39 build/obj/mac.o
 .text          0x00000000        0x0 build/obj/mmc_spi.o
 .data          0x00000000        0x0 build/obj/mmc_spi.o
 .bss           0x00000000        0x0 build/obj/mmc_spi.o
 .debug_info    0x00000000       0xa0 build/obj/mmc_spi.o
 .debug_abbrev  0x00000000       0x4b build/obj/mmc_spi.o
 .debug_aranges
                0x00000000       0x18 build/obj/mmc_spi.o
 .debug_line    0x00000000       0xbc build/obj/mmc_spi.o
 .debug_str     0x00000000      0x235 build/obj/mmc_spi.o
 .comment       0x00000000       0x71 build/obj/mmc_spi.o
 .ARM.attributes
                0x00000000       0x39 build/obj/mmc_spi.o
 .text          0x00000000        0x0 build/obj/mmcsd.o
 .data          0x00000000        0x0 build/obj/mmcsd.o
 .bss           0x00000000        0x0 build/obj/mmcsd.o
 .debug_info    0x00000000       0xa0 build/obj/mmcsd.o
 .debug_abbrev  0x00000000       0x4b build/obj/mmcsd.o
 .debug_aranges
                0x00000000       0x18 build/obj/mmcsd.o
 .debug_line    0x00000000       0xbc build/obj/mmcsd.o
 .debug_str     0x00000000      0x233 build/obj/mmcsd.o
 .comment       0x00000000       0x71 build/obj/mmcsd.o
 .ARM.attributes
                0x00000000       0x39 build/obj/mmcsd.o
 .text          0x00000000        0x0 build/obj/pal.o
 .data          0x00000000        0x0 build/obj/pal.o
 .bss           0x00000000        0x0 build/obj/pal.o
 .text.palReadBus
                0x00000000       0x30 build/obj/pal.o
 .text.palWriteBus
                0x00000000       0x40 build/obj/pal.o
 .text          0x00000000        0x0 build/obj/pwm.o
 .data          0x00000000        0x0 build/obj/pwm.o
 .bss           0x00000000        0x0 build/obj/pwm.o
 .text.pwmStop  0x00000000       0x40 build/obj/pwm.o
 .text.pwmChangePeriod
                0x00000000       0x40 build/obj/pwm.o
 .text.pwmDisableChannel
                0x00000000       0x40 build/obj/pwm.o
 .text          0x00000000        0x0 build/obj/rtc.o
 .data          0x00000000        0x0 build/obj/rtc.o
 .bss           0x00000000        0x0 build/obj/rtc.o
 .debug_info    0x00000000       0xa0 build/obj/rtc.o
 .debug_abbrev  0x00000000       0x4b build/obj/rtc.o
 .debug_aranges
                0x00000000       0x18 build/obj/rtc.o
 .debug_line    0x00000000       0xbc build/obj/rtc.o
 .debug_str     0x00000000      0x231 build/obj/rtc.o
 .comment       0x00000000       0x71 build/obj/rtc.o
 .ARM.attributes
                0x00000000       0x39 build/obj/rtc.o
 .text          0x00000000        0x0 build/obj/sdc.o
 .data          0x00000000        0x0 build/obj/sdc.o
 .bss           0x00000000        0x0 build/obj/sdc.o
 .debug_info    0x00000000       0xa0 build/obj/sdc.o
 .debug_abbrev  0x00000000       0x4b build/obj/sdc.o
 .debug_aranges
                0x00000000       0x18 build/obj/sdc.o
 .debug_line    0x00000000       0xbc build/obj/sdc.o
 .debug_str     0x00000000      0x231 build/obj/sdc.o
 .comment       0x00000000       0x71 build/obj/sdc.o
 .ARM.attributes
                0x00000000       0x39 build/obj/sdc.o
 .text          0x00000000        0x0 build/obj/serial.o
 .data          0x00000000        0x0 build/obj/serial.o
 .bss           0x00000000        0x0 build/obj/serial.o
 .text.sdStop   0x00000000       0x50 build/obj/serial.o
 .text.sdRequestDataI
                0x00000000       0x30 build/obj/serial.o
 .text          0x00000000        0x0 build/obj/serial_usb.o
 .data          0x00000000        0x0 build/obj/serial_usb.o
 .bss           0x00000000        0x0 build/obj/serial_usb.o
 .debug_info    0x00000000       0xa0 build/obj/serial_usb.o
 .debug_abbrev  0x00000000       0x4b build/obj/serial_usb.o
 .debug_aranges
                0x00000000       0x18 build/obj/serial_usb.o
 .debug_line    0x00000000       0xbc build/obj/serial_usb.o
 .debug_str     0x00000000      0x238 build/obj/serial_usb.o
 .comment       0x00000000       0x71 build/obj/serial_usb.o
 .ARM.attributes
                0x00000000       0x39 build/obj/serial_usb.o
 .text          0x00000000        0x0 build/obj/spi.o
 .data          0x00000000        0x0 build/obj/spi.o
 .bss           0x00000000        0x0 build/obj/spi.o
 .text.spiStop  0x00000000       0x40 build/obj/spi.o
 .text.spiSelect
                0x00000000       0x40 build/obj/spi.o
 .text.spiUnselect
                0x00000000       0x40 build/obj/spi.o
 .text.spiStartIgnore
                0x00000000       0x40 build/obj/spi.o
 .text.spiStartExchange
                0x00000000       0x50 build/obj/spi.o
 .text.spiStartSend
                0x00000000       0x50 build/obj/spi.o
 .text.spiStartReceive
                0x00000000       0x50 build/obj/spi.o
 .text.spiIgnore
                0x00000000       0x70 build/obj/spi.o
 .text.spiSend  0x00000000       0x80 build/obj/spi.o
 .text.spiReceive
                0x00000000       0x80 build/obj/spi.o
 .text          0x00000000        0x0 build/obj/tm.o
 .data          0x00000000        0x0 build/obj/tm.o
 .bss           0x00000000        0x0 build/obj/tm.o
 .debug_info    0x00000000       0xa0 build/obj/tm.o
 .debug_abbrev  0x00000000       0x4b build/obj/tm.o
 .debug_aranges
                0x00000000       0x18 build/obj/tm.o
 .debug_line    0x00000000       0xbc build/obj/tm.o
 .debug_str     0x00000000      0x230 build/obj/tm.o
 .comment       0x00000000       0x71 build/obj/tm.o
 .ARM.attributes
                0x00000000       0x39 build/obj/tm.o
 .text          0x00000000        0x0 build/obj/uart.o
 .data          0x00000000        0x0 build/obj/uart.o
 .bss           0x00000000        0x0 build/obj/uart.o
 .debug_info    0x00000000       0xa0 build/obj/uart.o
 .debug_abbrev  0x00000000       0x4b build/obj/uart.o
 .debug_aranges
                0x00000000       0x18 build/obj/uart.o
 .debug_line    0x00000000       0xbc build/obj/uart.o
 .debug_str     0x00000000      0x232 build/obj/uart.o
 .comment       0x00000000       0x71 build/obj/uart.o
 .ARM.attributes
                0x00000000       0x39 build/obj/uart.o
 .text          0x00000000        0x0 build/obj/usb.o
 .data          0x00000000        0x0 build/obj/usb.o
 .bss           0x00000000        0x0 build/obj/usb.o
 .debug_info    0x00000000       0xa0 build/obj/usb.o
 .debug_abbrev  0x00000000       0x4b build/obj/usb.o
 .debug_aranges
                0x00000000       0x18 build/obj/usb.o
 .debug_line    0x00000000       0xbc build/obj/usb.o
 .debug_str     0x00000000      0x231 build/obj/usb.o
 .comment       0x00000000       0x71 build/obj/usb.o
 .ARM.attributes
                0x00000000       0x39 build/obj/usb.o
 .text          0x00000000        0x0 build/obj/stm32_dma.o
 .data          0x00000000        0x0 build/obj/stm32_dma.o
 .bss           0x00000000        0x0 build/obj/stm32_dma.o
 .text.dmaStreamRelease
                0x00000000       0x70 build/obj/stm32_dma.o
 .text          0x00000000        0x0 build/obj/hal_lld.o
 .data          0x00000000        0x0 build/obj/hal_lld.o
 .bss           0x00000000        0x0 build/obj/hal_lld.o
 .text          0x00000000        0x0 build/obj/adc_lld.o
 .data          0x00000000        0x0 build/obj/adc_lld.o
 .bss           0x00000000        0x0 build/obj/adc_lld.o
 .text.adc_lld_stop
                0x00000000       0x50 build/obj/adc_lld.o
 .text.adcSTM32DisableTSVREFE
                0x00000000       0x10 build/obj/adc_lld.o
 .text.adcSTM32EnableVBATE
                0x00000000       0x10 build/obj/adc_lld.o
 .text.adcSTM32DisableVBATE
                0x00000000       0x10 build/obj/adc_lld.o
 .text          0x00000000        0x0 build/obj/ext_lld_isr.o
 .data          0x00000000        0x0 build/obj/ext_lld_isr.o
 .bss           0x00000000        0x0 build/obj/ext_lld_isr.o
 .debug_info    0x00000000       0xa0 build/obj/ext_lld_isr.o
 .debug_abbrev  0x00000000       0x4b build/obj/ext_lld_isr.o
 .debug_aranges
                0x00000000       0x18 build/obj/ext_lld_isr.o
 .debug_line    0x00000000       0xbc build/obj/ext_lld_isr.o
 .debug_str     0x00000000      0x249 build/obj/ext_lld_isr.o
 .comment       0x00000000       0x71 build/obj/ext_lld_isr.o
 .ARM.attributes
                0x00000000       0x39 build/obj/ext_lld_isr.o
 .text          0x00000000        0x0 build/obj/can_lld.o
 .data          0x00000000        0x0 build/obj/can_lld.o
 .bss           0x00000000        0x0 build/obj/can_lld.o
 .debug_info    0x00000000       0xa0 build/obj/can_lld.o
 .debug_abbrev  0x00000000       0x4b build/obj/can_lld.o
 .debug_aranges
                0x00000000       0x18 build/obj/can_lld.o
 .debug_line    0x00000000       0xbc build/obj/can_lld.o
 .debug_str     0x00000000      0x241 build/obj/can_lld.o
 .comment       0x00000000       0x71 build/obj/can_lld.o
 .ARM.attributes
                0x00000000       0x39 build/obj/can_lld.o
 .text          0x00000000        0x0 build/obj/ext_lld.o
 .data          0x00000000        0x0 build/obj/ext_lld.o
 .bss           0x00000000        0x0 build/obj/ext_lld.o
 .debug_info    0x00000000       0xa0 build/obj/ext_lld.o
 .debug_abbrev  0x00000000       0x4b build/obj/ext_lld.o
 .debug_aranges
                0x00000000       0x18 build/obj/ext_lld.o
 .debug_line    0x00000000       0xbc build/obj/ext_lld.o
 .debug_str     0x00000000      0x241 build/obj/ext_lld.o
 .comment       0x00000000       0x71 build/obj/ext_lld.o
 .ARM.attributes
                0x00000000       0x39 build/obj/ext_lld.o
 .text          0x00000000        0x0 build/obj/mac_lld.o
 .data          0x00000000        0x0 build/obj/mac_lld.o
 .bss           0x00000000        0x0 build/obj/mac_lld.o
 .debug_info    0x00000000       0xa0 build/obj/mac_lld.o
 .debug_abbrev  0x00000000       0x4b build/obj/mac_lld.o
 .debug_aranges
                0x00000000       0x18 build/obj/mac_lld.o
 .debug_line    0x00000000       0xbc build/obj/mac_lld.o
 .debug_str     0x00000000      0x241 build/obj/mac_lld.o
 .comment       0x00000000       0x71 build/obj/mac_lld.o
 .ARM.attributes
                0x00000000       0x39 build/obj/mac_lld.o
 .text          0x00000000        0x0 build/obj/sdc_lld.o
 .data          0x00000000        0x0 build/obj/sdc_lld.o
 .bss           0x00000000        0x0 build/obj/sdc_lld.o
 .debug_info    0x00000000       0xa0 build/obj/sdc_lld.o
 .debug_abbrev  0x00000000       0x4b build/obj/sdc_lld.o
 .debug_aranges
                0x00000000       0x18 build/obj/sdc_lld.o
 .debug_line    0x00000000       0xbc build/obj/sdc_lld.o
 .debug_str     0x00000000      0x241 build/obj/sdc_lld.o
 .comment       0x00000000       0x71 build/obj/sdc_lld.o
 .ARM.attributes
                0x00000000       0x39 build/obj/sdc_lld.o
 .text          0x00000000        0x0 build/obj/pal_lld.o
 .data          0x00000000        0x0 build/obj/pal_lld.o
 .bss           0x00000000        0x0 build/obj/pal_lld.o
 .text          0x00000000        0x0 build/obj/i2c_lld.o
 .data          0x00000000        0x0 build/obj/i2c_lld.o
 .bss           0x00000000        0x0 build/obj/i2c_lld.o
 .debug_info    0x00000000       0xa0 build/obj/i2c_lld.o
 .debug_abbrev  0x00000000       0x4b build/obj/i2c_lld.o
 .debug_aranges
                0x00000000       0x18 build/obj/i2c_lld.o
 .debug_line    0x00000000       0xbc build/obj/i2c_lld.o
 .debug_str     0x00000000      0x247 build/obj/i2c_lld.o
 .comment       0x00000000       0x71 build/obj/i2c_lld.o
 .ARM.attributes
                0x00000000       0x39 build/obj/i2c_lld.o
 .text          0x00000000        0x0 build/obj/usb_lld.o
 .data          0x00000000        0x0 build/obj/usb_lld.o
 .bss           0x00000000        0x0 build/obj/usb_lld.o
 .debug_info    0x00000000       0xa0 build/obj/usb_lld.o
 .debug_abbrev  0x00000000       0x4b build/obj/usb_lld.o
 .debug_aranges
                0x00000000       0x18 build/obj/usb_lld.o
 .debug_line    0x00000000       0xbc build/obj/usb_lld.o
 .debug_str     0x00000000      0x247 build/obj/usb_lld.o
 .comment       0x00000000       0x71 build/obj/usb_lld.o
 .ARM.attributes
                0x00000000       0x39 build/obj/usb_lld.o
 .text          0x00000000        0x0 build/obj/rtc_lld.o
 .data          0x00000000        0x0 build/obj/rtc_lld.o
 .bss           0x00000000        0x0 build/obj/rtc_lld.o
 .debug_info    0x00000000       0xa0 build/obj/rtc_lld.o
 .debug_abbrev  0x00000000       0x4b build/obj/rtc_lld.o
 .debug_aranges
                0x00000000       0x18 build/obj/rtc_lld.o
 .debug_line    0x00000000       0xbc build/obj/rtc_lld.o
 .debug_str     0x00000000      0x247 build/obj/rtc_lld.o
 .comment       0x00000000       0x71 build/obj/rtc_lld.o
 .ARM.attributes
                0x00000000       0x39 build/obj/rtc_lld.o
 .text          0x00000000        0x0 build/obj/spi_lld.o
 .data          0x00000000        0x0 build/obj/spi_lld.o
 .bss           0x00000000        0x0 build/obj/spi_lld.o
 .text.spi_lld_stop
                0x00000000       0x40 build/obj/spi_lld.o
 .text.spi_lld_select
                0x00000000       0x20 build/obj/spi_lld.o
 .text.spi_lld_unselect
                0x00000000       0x20 build/obj/spi_lld.o
 .text.spi_lld_ignore
                0x00000000       0x40 build/obj/spi_lld.o
 .text.spi_lld_send
                0x00000000       0x40 build/obj/spi_lld.o
 .text.spi_lld_receive
                0x00000000       0x40 build/obj/spi_lld.o
 .text.spi_lld_polled_exchange
                0x00000000       0x10 build/obj/spi_lld.o
 .bss.dummyrx   0x00000000        0x2 build/obj/spi_lld.o
 .text          0x00000000        0x0 build/obj/gpt_lld.o
 .data          0x00000000        0x0 build/obj/gpt_lld.o
 .bss           0x00000000        0x0 build/obj/gpt_lld.o
 .debug_info    0x00000000       0xa0 build/obj/gpt_lld.o
 .debug_abbrev  0x00000000       0x4b build/obj/gpt_lld.o
 .debug_aranges
                0x00000000       0x18 build/obj/gpt_lld.o
 .debug_line    0x00000000       0xbc build/obj/gpt_lld.o
 .debug_str     0x00000000      0x247 build/obj/gpt_lld.o
 .comment       0x00000000       0x71 build/obj/gpt_lld.o
 .ARM.attributes
                0x00000000       0x39 build/obj/gpt_lld.o
 .text          0x00000000        0x0 build/obj/icu_lld.o
 .data          0x00000000        0x0 build/obj/icu_lld.o
 .bss           0x00000000        0x0 build/obj/icu_lld.o
 .text.icu_lld_stop
                0x00000000       0x40 build/obj/icu_lld.o
 .text.icu_lld_disable
                0x00000000       0x20 build/obj/icu_lld.o
 .text          0x00000000        0x0 build/obj/pwm_lld.o
 .data          0x00000000        0x0 build/obj/pwm_lld.o
 .bss           0x00000000        0x0 build/obj/pwm_lld.o
 .text.pwm_lld_stop
                0x00000000       0x40 build/obj/pwm_lld.o
 .text.pwm_lld_disable_channel
                0x00000000       0x20 build/obj/pwm_lld.o
 .text          0x00000000        0x0 build/obj/serial_lld.o
 .data          0x00000000        0x0 build/obj/serial_lld.o
 .bss           0x00000000        0x0 build/obj/serial_lld.o
 .text.sd_lld_stop
                0x00000000       0x30 build/obj/serial_lld.o
 .text          0x00000000        0x0 build/obj/uart_lld.o
 .data          0x00000000        0x0 build/obj/uart_lld.o
 .bss           0x00000000        0x0 build/obj/uart_lld.o
 .debug_info    0x00000000       0xa0 build/obj/uart_lld.o
 .debug_abbrev  0x00000000       0x4b build/obj/uart_lld.o
 .debug_aranges
                0x00000000       0x18 build/obj/uart_lld.o
 .debug_line    0x00000000       0xbc build/obj/uart_lld.o
 .debug_str     0x00000000      0x24a build/obj/uart_lld.o
 .comment       0x00000000       0x71 build/obj/uart_lld.o
 .ARM.attributes
                0x00000000       0x39 build/obj/uart_lld.o
 .text          0x00000000        0x0 build/obj/board.o
 .data          0x00000000        0x0 build/obj/board.o
 .bss           0x00000000        0x0 build/obj/board.o
 .text          0x00000000        0x0 build/obj/gfx.o
 .data          0x00000000        0x0 build/obj/gfx.o
 .bss           0x00000000        0x0 build/obj/gfx.o
 .text.gfxDeinit
                0x00000000       0x40 build/obj/gfx.o
 .text          0x00000000        0x0 build/obj/chibios.o
 .data          0x00000000        0x0 build/obj/chibios.o
 .bss           0x00000000        0x0 build/obj/chibios.o
 .text._gosDeinit
                0x00000000       0x10 build/obj/chibios.o
 .text.gfxRealloc
                0x00000000       0x30 build/obj/chibios.o
 .text.gfxSemDestroy
                0x00000000       0x10 build/obj/chibios.o
 .text.gfxSemWaitI
                0x00000000       0x20 build/obj/chibios.o
 .text.gfxSemSignalI
                0x00000000       0x10 build/obj/chibios.o
 .text          0x00000000        0x0 build/obj/freertos.o
 .data          0x00000000        0x0 build/obj/freertos.o
 .bss           0x00000000        0x0 build/obj/freertos.o
 .debug_info    0x00000000       0xa0 build/obj/freertos.o
 .debug_abbrev  0x00000000       0x4b build/obj/freertos.o
 .debug_aranges
                0x00000000       0x18 build/obj/freertos.o
 .debug_line    0x00000000       0xbc build/obj/freertos.o
 .debug_str     0x00000000      0x248 build/obj/freertos.o
 .comment       0x00000000       0x71 build/obj/freertos.o
 .ARM.attributes
                0x00000000       0x39 build/obj/freertos.o
 .text          0x00000000        0x0 build/obj/win32.o
 .data          0x00000000        0x0 build/obj/win32.o
 .bss           0x00000000        0x0 build/obj/win32.o
 .debug_info    0x00000000       0xa0 build/obj/win32.o
 .debug_abbrev  0x00000000       0x4b build/obj/win32.o
 .debug_aranges
                0x00000000       0x18 build/obj/win32.o
 .debug_line    0x00000000       0xbc build/obj/win32.o
 .debug_str     0x00000000      0x245 build/obj/win32.o
 .comment       0x00000000       0x71 build/obj/win32.o
 .ARM.attributes
                0x00000000       0x39 build/obj/win32.o
 .text          0x00000000        0x0 build/obj/linux.o
 .data          0x00000000        0x0 build/obj/linux.o
 .bss           0x00000000        0x0 build/obj/linux.o
 .debug_info    0x00000000       0xa0 build/obj/linux.o
 .debug_abbrev  0x00000000       0x4b build/obj/linux.o
 .debug_aranges
                0x00000000       0x18 build/obj/linux.o
 .debug_line    0x00000000       0xbc build/obj/linux.o
 .debug_str     0x00000000      0x245 build/obj/linux.o
 .comment       0x00000000       0x71 build/obj/linux.o
 .ARM.attributes
                0x00000000       0x39 build/obj/linux.o
 .text          0x00000000        0x0 build/obj/osx.o
 .data          0x00000000        0x0 build/obj/osx.o
 .bss           0x00000000        0x0 build/obj/osx.o
 .debug_info    0x00000000       0xa0 build/obj/osx.o
 .debug_abbrev  0x00000000       0x4b build/obj/osx.o
 .debug_aranges
                0x00000000       0x18 build/obj/osx.o
 .debug_line    0x00000000       0xbc build/obj/osx.o
 .debug_str     0x00000000      0x243 build/obj/osx.o
 .comment       0x00000000       0x71 build/obj/osx.o
 .ARM.attributes
                0x00000000       0x39 build/obj/osx.o
 .text          0x00000000        0x0 build/obj/raw32.o
 .data          0x00000000        0x0 build/obj/raw32.o
 .bss           0x00000000        0x0 build/obj/raw32.o
 .debug_info    0x00000000       0xa0 build/obj/raw32.o
 .debug_abbrev  0x00000000       0x4b build/obj/raw32.o
 .debug_aranges
                0x00000000       0x18 build/obj/raw32.o
 .debug_line    0x00000000       0xbc build/obj/raw32.o
 .debug_str     0x00000000      0x245 build/obj/raw32.o
 .comment       0x00000000       0x71 build/obj/raw32.o
 .ARM.attributes
                0x00000000       0x39 build/obj/raw32.o
 .text          0x00000000        0x0 build/obj/gqueue.o
 .data          0x00000000        0x0 build/obj/gqueue.o
 .bss           0x00000000        0x0 build/obj/gqueue.o
 .text._gqueueDeinit
                0x00000000       0x10 build/obj/gqueue.o
 .text.gfxQueueASyncGet
                0x00000000       0x20 build/obj/gqueue.o
 .text.gfxQueueASyncGetI
                0x00000000       0x10 build/obj/gqueue.o
 .text.gfxQueueASyncPutI
                0x00000000       0x20 build/obj/gqueue.o
 .text.gfxQueueASyncPush
                0x00000000       0x30 build/obj/gqueue.o
 .text.gfxQueueASyncPushI
                0x00000000       0x10 build/obj/gqueue.o
 .text.gfxQueueASyncInsertI
                0x00000000       0x50 build/obj/gqueue.o
 .text.gfxQueueASyncInsert
                0x00000000       0x10 build/obj/gqueue.o
 .text.gfxQueueASyncIsIn
                0x00000000       0x30 build/obj/gqueue.o
 .text.gfxQueueASyncIsInI
                0x00000000       0x20 build/obj/gqueue.o
 .text          0x00000000        0x0 build/obj/gdisp.o
 .data          0x00000000        0x0 build/obj/gdisp.o
 .bss           0x00000000        0x0 build/obj/gdisp.o
 .text._gdispDeinit
                0x00000000       0x10 build/obj/gdisp.o
 .text.gdispGetDisplay
                0x00000000       0x10 build/obj/gdisp.o
 .text.gdispSetDisplay
                0x00000000       0x10 build/obj/gdisp.o
 .text.gdispGFlush
                0x00000000       0x10 build/obj/gdisp.o
 .text.gdispGDrawPixel
                0x00000000       0x90 build/obj/gdisp.o
 .text.gdispGBlitArea
                0x00000000       0xd0 build/obj/gdisp.o
 .text.gdispGFillChar
                0x00000000      0x120 build/obj/gdisp.o
 .text.gdispGDrawString
                0x00000000       0x90 build/obj/gdisp.o
 .text.gdispGFillString
                0x00000000      0x130 build/obj/gdisp.o
 .text.gdispContrastColor
                0x00000000       0x40 build/obj/gdisp.o
 .text          0x00000000        0x0 build/obj/fonts.o
 .data          0x00000000        0x0 build/obj/fonts.o
 .bss           0x00000000        0x0 build/obj/fonts.o
 .text.gdispScaleFont
                0x00000000       0x20 build/obj/fonts.o
 .text.gdispGetFontName
                0x00000000       0x10 build/obj/fonts.o
 .text          0x00000000        0x0 build/obj/image.o
 .data          0x00000000        0x0 build/obj/image.o
 .bss           0x00000000        0x0 build/obj/image.o
 .text.gdispImageSetMemoryReader
                0x00000000       0x20 build/obj/image.o
 .text.gdispImageInit
                0x00000000       0x10 build/obj/image.o
 .text.gdispImageOpenGFile
                0x00000000       0x70 build/obj/image.o
 .text.gdispImageOpen
                0x00000000       0x10 build/obj/image.o
 .text.gdispImageClose
                0x00000000       0x20 build/obj/image.o
 .text.gdispImageIsOpen
                0x00000000       0x20 build/obj/image.o
 .text.gdispImageSetBgColor
                0x00000000       0x10 build/obj/image.o
 .text.gdispImageCache
                0x00000000       0x20 build/obj/image.o
 .text.gdispGImageDraw
                0x00000000       0x40 build/obj/image.o
 .text.gdispImageNext
                0x00000000       0x20 build/obj/image.o
 .text.gdispImageAlloc
                0x00000000       0x10 build/obj/image.o
 .text.gdispImageFree
                0x00000000       0x10 build/obj/image.o
 .data.ImageHandlers
                0x00000000       0x14 build/obj/image.o
 .rodata.str1.4
                0x00000000        0x4 build/obj/image.o
 .debug_info    0x00000000      0xb9d build/obj/image.o
 .debug_abbrev  0x00000000      0x26d build/obj/image.o
 .debug_loc     0x00000000      0x3e4 build/obj/image.o
 .debug_aranges
                0x00000000       0x78 build/obj/image.o
 .debug_ranges  0x00000000       0x68 build/obj/image.o
 .debug_line    0x00000000      0x354 build/obj/image.o
 .debug_str     0x00000000      0x677 build/obj/image.o
 .comment       0x00000000       0x71 build/obj/image.o
 .ARM.attributes
                0x00000000       0x39 build/obj/image.o
 .debug_frame   0x00000000      0x130 build/obj/image.o
 .text          0x00000000        0x0 build/obj/image_native.o
 .data          0x00000000        0x0 build/obj/image_native.o
 .bss           0x00000000        0x0 build/obj/image_native.o
 .debug_info    0x00000000       0xa0 build/obj/image_native.o
 .debug_abbrev  0x00000000       0x4b build/obj/image_native.o
 .debug_aranges
                0x00000000       0x18 build/obj/image_native.o
 .debug_line    0x00000000       0xbc build/obj/image_native.o
 .debug_str     0x00000000      0x24e build/obj/image_native.o
 .comment       0x00000000       0x71 build/obj/image_native.o
 .ARM.attributes
                0x00000000       0x39 build/obj/image_native.o
 .text          0x00000000        0x0 build/obj/image_gif.o
 .data          0x00000000        0x0 build/obj/image_gif.o
 .bss           0x00000000        0x0 build/obj/image_gif.o
 .debug_info    0x00000000       0xa0 build/obj/image_gif.o
 .debug_abbrev  0x00000000       0x4b build/obj/image_gif.o
 .debug_aranges
                0x00000000       0x18 build/obj/image_gif.o
 .debug_line    0x00000000       0xbc build/obj/image_gif.o
 .debug_str     0x00000000      0x24b build/obj/image_gif.o
 .comment       0x00000000       0x71 build/obj/image_gif.o
 .ARM.attributes
                0x00000000       0x39 build/obj/image_gif.o
 .text          0x00000000        0x0 build/obj/image_bmp.o
 .data          0x00000000        0x0 build/obj/image_bmp.o
 .bss           0x00000000        0x0 build/obj/image_bmp.o
 .text.getPixels
                0x00000000      0x890 build/obj/image_bmp.o
 .text.gdispImageClose_BMP
                0x00000000       0x40 build/obj/image_bmp.o
 .text.gdispImageOpen_BMP
                0x00000000      0x400 build/obj/image_bmp.o
 .text.gdispImageCache_BMP
                0x00000000      0x130 build/obj/image_bmp.o
 .text.gdispGImageDraw_BMP
                0x00000000      0x300 build/obj/image_bmp.o
 .text.gdispImageNext_BMP
                0x00000000       0x10 build/obj/image_bmp.o
 .debug_info    0x00000000      0xcf2 build/obj/image_bmp.o
 .debug_abbrev  0x00000000      0x272 build/obj/image_bmp.o
 .debug_loc     0x00000000     0x1027 build/obj/image_bmp.o
 .debug_aranges
                0x00000000       0x48 build/obj/image_bmp.o
 .debug_ranges  0x00000000       0xf8 build/obj/image_bmp.o
 .debug_line    0x00000000      0x6c6 build/obj/image_bmp.o
 .debug_str     0x00000000      0x526 build/obj/image_bmp.o
 .comment       0x00000000       0x71 build/obj/image_bmp.o
 .ARM.attributes
                0x00000000       0x39 build/obj/image_bmp.o
 .debug_frame   0x00000000       0xf8 build/obj/image_bmp.o
 .text          0x00000000        0x0 build/obj/image_jpg.o
 .data          0x00000000        0x0 build/obj/image_jpg.o
 .bss           0x00000000        0x0 build/obj/image_jpg.o
 .debug_info    0x00000000       0xa0 build/obj/image_jpg.o
 .debug_abbrev  0x00000000       0x4b build/obj/image_jpg.o
 .debug_aranges
                0x00000000       0x18 build/obj/image_jpg.o
 .debug_line    0x00000000       0xbc build/obj/image_jpg.o
 .debug_str     0x00000000      0x24b build/obj/image_jpg.o
 .comment       0x00000000       0x71 build/obj/image_jpg.o
 .ARM.attributes
                0x00000000       0x39 build/obj/image_jpg.o
 .text          0x00000000        0x0 build/obj/image_png.o
 .data          0x00000000        0x0 build/obj/image_png.o
 .bss           0x00000000        0x0 build/obj/image_png.o
 .debug_info    0x00000000       0xa0 build/obj/image_png.o
 .debug_abbrev  0x00000000       0x4b build/obj/image_png.o
 .debug_aranges
                0x00000000       0x18 build/obj/image_png.o
 .debug_line    0x00000000       0xbc build/obj/image_png.o
 .debug_str     0x00000000      0x24b build/obj/image_png.o
 .comment       0x00000000       0x71 build/obj/image_png.o
 .ARM.attributes
                0x00000000       0x39 build/obj/image_png.o
 .text          0x00000000        0x0 build/obj/mf_encoding.o
 .data          0x00000000        0x0 build/obj/mf_encoding.o
 .bss           0x00000000        0x0 build/obj/mf_encoding.o
 .text          0x00000000        0x0 build/obj/mf_font.o
 .data          0x00000000        0x0 build/obj/mf_font.o
 .bss           0x00000000        0x0 build/obj/mf_font.o
 .text.mf_find_font
                0x00000000       0x50 build/obj/mf_font.o
 .text          0x00000000        0x0 build/obj/mf_justify.o
 .data          0x00000000        0x0 build/obj/mf_justify.o
 .bss           0x00000000        0x0 build/obj/mf_justify.o
 .text.mf_render_justified
                0x00000000       0x10 build/obj/mf_justify.o
 .text          0x00000000        0x0 build/obj/mf_kerning.o
 .data          0x00000000        0x0 build/obj/mf_kerning.o
 .bss           0x00000000        0x0 build/obj/mf_kerning.o
 .debug_info    0x00000000       0xa0 build/obj/mf_kerning.o
 .debug_abbrev  0x00000000       0x4b build/obj/mf_kerning.o
 .debug_aranges
                0x00000000       0x18 build/obj/mf_kerning.o
 .debug_line    0x00000000       0xbc build/obj/mf_kerning.o
 .debug_str     0x00000000      0x254 build/obj/mf_kerning.o
 .comment       0x00000000       0x71 build/obj/mf_kerning.o
 .ARM.attributes
                0x00000000       0x39 build/obj/mf_kerning.o
 .text          0x00000000        0x0 build/obj/mf_rlefont.o
 .data          0x00000000        0x0 build/obj/mf_rlefont.o
 .bss           0x00000000        0x0 build/obj/mf_rlefont.o
 .text          0x00000000        0x0 build/obj/mf_bwfont.o
 .data          0x00000000        0x0 build/obj/mf_bwfont.o
 .bss           0x00000000        0x0 build/obj/mf_bwfont.o
 .text          0x00000000        0x0 build/obj/mf_scaledfont.o
 .data          0x00000000        0x0 build/obj/mf_scaledfont.o
 .bss           0x00000000        0x0 build/obj/mf_scaledfont.o
 .text.mf_scale_font
                0x00000000       0x90 build/obj/mf_scaledfont.o
 .text          0x00000000        0x0 build/obj/mf_wordwrap.o
 .data          0x00000000        0x0 build/obj/mf_wordwrap.o
 .bss           0x00000000        0x0 build/obj/mf_wordwrap.o
 .text.mf_wordwrap
                0x00000000       0xa0 build/obj/mf_wordwrap.o
 .debug_info    0x00000000      0x3f0 build/obj/mf_wordwrap.o
 .debug_abbrev  0x00000000      0x19d build/obj/mf_wordwrap.o
 .debug_loc     0x00000000      0x252 build/obj/mf_wordwrap.o
 .debug_aranges
                0x00000000       0x20 build/obj/mf_wordwrap.o
 .debug_ranges  0x00000000       0x58 build/obj/mf_wordwrap.o
 .debug_line    0x00000000      0x193 build/obj/mf_wordwrap.o
 .debug_str     0x00000000      0x3ea build/obj/mf_wordwrap.o
 .comment       0x00000000       0x71 build/obj/mf_wordwrap.o
 .ARM.attributes
                0x00000000       0x39 build/obj/mf_wordwrap.o
 .debug_frame   0x00000000       0x44 build/obj/mf_wordwrap.o
 .text          0x00000000        0x0 build/obj/gevent.o
 .data          0x00000000        0x0 build/obj/gevent.o
 .bss           0x00000000        0x0 build/obj/gevent.o
 .text._geventDeinit
                0x00000000       0x10 build/obj/gevent.o
 .text.geventDetachSource
                0x00000000       0x50 build/obj/gevent.o
 .text          0x00000000        0x0 build/obj/gtimer.o
 .data          0x00000000        0x0 build/obj/gtimer.o
 .bss           0x00000000        0x0 build/obj/gtimer.o
 .text._gtimerDeinit
                0x00000000       0x10 build/obj/gtimer.o
 .text.gtimerDeinit
                0x00000000       0x10 build/obj/gtimer.o
 .text.gtimerIsActive
                0x00000000       0x10 build/obj/gtimer.o
 .text.gtimerJab
                0x00000000       0x30 build/obj/gtimer.o
 .text.gtimerJabI
                0x00000000       0x20 build/obj/gtimer.o
 .text          0x00000000        0x0 build/obj/gwin.o
 .data          0x00000000        0x0 build/obj/gwin.o
 .bss           0x00000000        0x0 build/obj/gwin.o
 .text._gwinDeinit
                0x00000000       0x10 build/obj/gwin.o
 .text.gwinClearInit
                0x00000000       0x10 build/obj/gwin.o
 .text.gwinGetDefaultColor
                0x00000000       0x10 build/obj/gwin.o
 .text.gwinGetClassName
                0x00000000       0x10 build/obj/gwin.o
 .text.gwinGWindowCreate
                0x00000000       0x30 build/obj/gwin.o
 .text.gwinDestroy
                0x00000000       0x40 build/obj/gwin.o
 .text.gwinSetEnabled
                0x00000000       0x40 build/obj/gwin.o
 .text.gwinGetEnabled
                0x00000000       0x10 build/obj/gwin.o
 .text.gwinMove
                0x00000000       0x20 build/obj/gwin.o
 .text.gwinSetFont
                0x00000000       0x10 build/obj/gwin.o
 .text.gwinClear
                0x00000000       0x60 build/obj/gwin.o
 .text.gwinDrawPixel
                0x00000000       0x50 build/obj/gwin.o
 .text.gwinDrawLine
                0x00000000       0x60 build/obj/gwin.o
 .text.gwinDrawBox
                0x00000000       0x60 build/obj/gwin.o
 .text.gwinFillArea
                0x00000000       0x60 build/obj/gwin.o
 .text.gwinBlitArea
                0x00000000       0x80 build/obj/gwin.o
 .text.gwinDrawChar
                0x00000000       0x50 build/obj/gwin.o
 .text.gwinFillChar
                0x00000000       0x60 build/obj/gwin.o
 .text.gwinDrawString
                0x00000000       0x50 build/obj/gwin.o
 .text.gwinFillString
                0x00000000       0x60 build/obj/gwin.o
 .text.gwinDrawStringBox
                0x00000000       0x70 build/obj/gwin.o
 .text.gwinFillStringBox
                0x00000000       0x80 build/obj/gwin.o
 .text.gwinDrawImage
                0x00000000       0x70 build/obj/gwin.o
 .rodata.basegwinVMT
                0x00000000       0x14 build/obj/gwin.o
 .rodata.str1.4
                0x00000000        0x8 build/obj/gwin.o
 .text          0x00000000        0x0 build/obj/gwidget.o
 .data          0x00000000        0x0 build/obj/gwidget.o
 .bss           0x00000000        0x0 build/obj/gwidget.o
 .text._gwidgetDeinit
                0x00000000       0x10 build/obj/gwidget.o
 .text.gwinWidgetClearInit
                0x00000000       0x10 build/obj/gwidget.o
 .text.gwinGetDefaultStyle
                0x00000000       0x10 build/obj/gwidget.o
 .text.gwinGetStyle
                0x00000000       0x10 build/obj/gwidget.o
 .text.gwinSetCustomDraw
                0x00000000       0x20 build/obj/gwidget.o
 .text          0x00000000        0x0 build/obj/gwm.o
 .data          0x00000000        0x0 build/obj/gwm.o
 .bss           0x00000000        0x0 build/obj/gwm.o
 .text._gwmDeinit
                0x00000000       0x10 build/obj/gwm.o
 .text.gwinSetWindowManager
                0x00000000       0x30 build/obj/gwm.o
 .text.gwinSetMinMax
                0x00000000       0x20 build/obj/gwm.o
 .text.gwinRaise
                0x00000000       0x20 build/obj/gwm.o
 .text.gwinGetMinMax
                0x00000000       0x10 build/obj/gwm.o
 .text.gwinRedrawDisplay
                0x00000000       0x20 build/obj/gwm.o
 .text          0x00000000        0x0 build/obj/console.o
 .data          0x00000000        0x0 build/obj/console.o
 .bss           0x00000000        0x0 build/obj/console.o
 .text.gwinGConsoleCreate
                0x00000000       0x30 build/obj/console.o
 .text.gwinPutString
                0x00000000       0x20 build/obj/console.o
 .text.gwinPutCharArray
                0x00000000       0x20 build/obj/console.o
 .text          0x00000000        0x0 build/obj/graph.o
 .data          0x00000000        0x0 build/obj/graph.o
 .bss           0x00000000        0x0 build/obj/graph.o
 .debug_info    0x00000000       0xa0 build/obj/graph.o
 .debug_abbrev  0x00000000       0x4b build/obj/graph.o
 .debug_aranges
                0x00000000       0x18 build/obj/graph.o
 .debug_line    0x00000000       0xbc build/obj/graph.o
 .debug_str     0x00000000      0x246 build/obj/graph.o
 .comment       0x00000000       0x71 build/obj/graph.o
 .ARM.attributes
                0x00000000       0x39 build/obj/graph.o
 .text          0x00000000        0x0 build/obj/button.o
 .data          0x00000000        0x0 build/obj/button.o
 .bss           0x00000000        0x0 build/obj/button.o
 .text.gwinButtonIsPressed
                0x00000000       0x20 build/obj/button.o
 .text.gwinButtonDraw_Image
                0x00000000       0xa0 build/obj/button.o
 .text          0x00000000        0x0 build/obj/slider.o
 .data          0x00000000        0x0 build/obj/slider.o
 .bss           0x00000000        0x0 build/obj/slider.o
 .text.gwinSliderDraw_Image
                0x00000000      0x240 build/obj/slider.o
 .text          0x00000000        0x0 build/obj/checkbox.o
 .data          0x00000000        0x0 build/obj/checkbox.o
 .bss           0x00000000        0x0 build/obj/checkbox.o
 .debug_info    0x00000000       0xa0 build/obj/checkbox.o
 .debug_abbrev  0x00000000       0x4b build/obj/checkbox.o
 .debug_aranges
                0x00000000       0x18 build/obj/checkbox.o
 .debug_line    0x00000000       0xbc build/obj/checkbox.o
 .debug_str     0x00000000      0x249 build/obj/checkbox.o
 .comment       0x00000000       0x71 build/obj/checkbox.o
 .ARM.attributes
                0x00000000       0x39 build/obj/checkbox.o
 .text          0x00000000        0x0 build/obj/gimage.o
 .data          0x00000000        0x0 build/obj/gimage.o
 .bss           0x00000000        0x0 build/obj/gimage.o
 .text._redraw  0x00000000      0x1b0 build/obj/gimage.o
 .text._destroy
                0x00000000       0x20 build/obj/gimage.o
 .text.gwinGImageCreate
                0x00000000       0x30 build/obj/gimage.o
 .text.gwinImageOpenGFile
                0x00000000       0x70 build/obj/gimage.o
 .text.gwinImageCache
                0x00000000       0x20 build/obj/gimage.o
 .rodata.imageVMT
                0x00000000       0x14 build/obj/gimage.o
 .rodata.str1.4
                0x00000000        0x8 build/obj/gimage.o
 .debug_info    0x00000000      0x8d0 build/obj/gimage.o
 .debug_abbrev  0x00000000      0x1e0 build/obj/gimage.o
 .debug_loc     0x00000000      0x3e1 build/obj/gimage.o
 .debug_aranges
                0x00000000       0x40 build/obj/gimage.o
 .debug_ranges  0x00000000       0x30 build/obj/gimage.o
 .debug_line    0x00000000      0x2d9 build/obj/gimage.o
 .debug_str     0x00000000      0x4f2 build/obj/gimage.o
 .comment       0x00000000       0x71 build/obj/gimage.o
 .ARM.attributes
                0x00000000       0x39 build/obj/gimage.o
 .debug_frame   0x00000000       0xb0 build/obj/gimage.o
 .text          0x00000000        0x0 build/obj/label.o
 .data          0x00000000        0x0 build/obj/label.o
 .bss           0x00000000        0x0 build/obj/label.o
 .text.gwinLabelSetBorder
                0x00000000       0x30 build/obj/label.o
 .text          0x00000000        0x0 build/obj/radio.o
 .data          0x00000000        0x0 build/obj/radio.o
 .bss           0x00000000        0x0 build/obj/radio.o
 .debug_info    0x00000000       0xa0 build/obj/radio.o
 .debug_abbrev  0x00000000       0x4b build/obj/radio.o
 .debug_aranges
                0x00000000       0x18 build/obj/radio.o
 .debug_line    0x00000000       0xbc build/obj/radio.o
 .debug_str     0x00000000      0x246 build/obj/radio.o
 .comment       0x00000000       0x71 build/obj/radio.o
 .ARM.attributes
                0x00000000       0x39 build/obj/radio.o
 .text          0x00000000        0x0 build/obj/list.o
 .data          0x00000000        0x0 build/obj/list.o
 .bss           0x00000000        0x0 build/obj/list.o
 .debug_info    0x00000000       0xa0 build/obj/list.o
 .debug_abbrev  0x00000000       0x4b build/obj/list.o
 .debug_aranges
                0x00000000       0x18 build/obj/list.o
 .debug_line    0x00000000       0xbc build/obj/list.o
 .debug_str     0x00000000      0x245 build/obj/list.o
 .comment       0x00000000       0x71 build/obj/list.o
 .ARM.attributes
                0x00000000       0x39 build/obj/list.o
 .text          0x00000000        0x0 build/obj/progressbar.o
 .data          0x00000000        0x0 build/obj/progressbar.o
 .bss           0x00000000        0x0 build/obj/progressbar.o
 .debug_info    0x00000000       0xa0 build/obj/progressbar.o
 .debug_abbrev  0x00000000       0x4b build/obj/progressbar.o
 .debug_aranges
                0x00000000       0x18 build/obj/progressbar.o
 .debug_line    0x00000000       0xbc build/obj/progressbar.o
 .debug_str     0x00000000      0x24c build/obj/progressbar.o
 .comment       0x00000000       0x71 build/obj/progressbar.o
 .ARM.attributes
                0x00000000       0x39 build/obj/progressbar.o
 .text          0x00000000        0x0 build/obj/gcontainer.o
 .data          0x00000000        0x0 build/obj/gcontainer.o
 .bss           0x00000000        0x0 build/obj/gcontainer.o
 .debug_info    0x00000000       0xa0 build/obj/gcontainer.o
 .debug_abbrev  0x00000000       0x4b build/obj/gcontainer.o
 .debug_aranges
                0x00000000       0x18 build/obj/gcontainer.o
 .debug_line    0x00000000       0xbc build/obj/gcontainer.o
 .debug_str     0x00000000      0x24b build/obj/gcontainer.o
 .comment       0x00000000       0x71 build/obj/gcontainer.o
 .ARM.attributes
                0x00000000       0x39 build/obj/gcontainer.o
 .text          0x00000000        0x0 build/obj/frame.o
 .data          0x00000000        0x0 build/obj/frame.o
 .bss           0x00000000        0x0 build/obj/frame.o
 .debug_info    0x00000000       0xa0 build/obj/frame.o
 .debug_abbrev  0x00000000       0x4b build/obj/frame.o
 .debug_aranges
                0x00000000       0x18 build/obj/frame.o
 .debug_line    0x00000000       0xbc build/obj/frame.o
 .debug_str     0x00000000      0x246 build/obj/frame.o
 .comment       0x00000000       0x71 build/obj/frame.o
 .ARM.attributes
                0x00000000       0x39 build/obj/frame.o
 .text          0x00000000        0x0 build/obj/ginput.o
 .data          0x00000000        0x0 build/obj/ginput.o
 .bss           0x00000000        0x0 build/obj/ginput.o
 .text._ginputDeinit
                0x00000000       0x10 build/obj/ginput.o
 .text          0x00000000        0x0 build/obj/mouse.o
 .data          0x00000000        0x0 build/obj/mouse.o
 .bss           0x00000000        0x0 build/obj/mouse.o
 .text.ginputSetMouseDisplay
                0x00000000       0x20 build/obj/mouse.o
 .text.ginputGetMouseDisplay
                0x00000000       0x10 build/obj/mouse.o
 .text.ginputGetMouseStatus
                0x00000000       0x70 build/obj/mouse.o
 .text.ginputRequireMouseCalibrationStorage
                0x00000000       0x10 build/obj/mouse.o
 .text.ginputMouseWakeup
                0x00000000       0x10 build/obj/mouse.o
 .text.ginputMouseWakeupI
                0x00000000       0x10 build/obj/mouse.o
 .text          0x00000000        0x0 build/obj/keyboard.o
 .data          0x00000000        0x0 build/obj/keyboard.o
 .bss           0x00000000        0x0 build/obj/keyboard.o
 .debug_info    0x00000000       0xa0 build/obj/keyboard.o
 .debug_abbrev  0x00000000       0x4b build/obj/keyboard.o
 .debug_aranges
                0x00000000       0x18 build/obj/keyboard.o
 .debug_line    0x00000000       0xbc build/obj/keyboard.o
 .debug_str     0x00000000      0x24b build/obj/keyboard.o
 .comment       0x00000000       0x71 build/obj/keyboard.o
 .ARM.attributes
                0x00000000       0x39 build/obj/keyboard.o
 .text          0x00000000        0x0 build/obj/toggle.o
 .data          0x00000000        0x0 build/obj/toggle.o
 .bss           0x00000000        0x0 build/obj/toggle.o
 .debug_info    0x00000000       0xa0 build/obj/toggle.o
 .debug_abbrev  0x00000000       0x4b build/obj/toggle.o
 .debug_aranges
                0x00000000       0x18 build/obj/toggle.o
 .debug_line    0x00000000       0xbc build/obj/toggle.o
 .debug_str     0x00000000      0x249 build/obj/toggle.o
 .comment       0x00000000       0x71 build/obj/toggle.o
 .ARM.attributes
                0x00000000       0x39 build/obj/toggle.o
 .text          0x00000000        0x0 build/obj/dial.o
 .data          0x00000000        0x0 build/obj/dial.o
 .bss           0x00000000        0x0 build/obj/dial.o
 .debug_info    0x00000000       0xa0 build/obj/dial.o
 .debug_abbrev  0x00000000       0x4b build/obj/dial.o
 .debug_aranges
                0x00000000       0x18 build/obj/dial.o
 .debug_line    0x00000000       0xbc build/obj/dial.o
 .debug_str     0x00000000      0x247 build/obj/dial.o
 .comment       0x00000000       0x71 build/obj/dial.o
 .ARM.attributes
                0x00000000       0x39 build/obj/dial.o
 .text          0x00000000        0x0 build/obj/gadc.o
 .data          0x00000000        0x0 build/obj/gadc.o
 .bss           0x00000000        0x0 build/obj/gadc.o
 .debug_info    0x00000000       0xa0 build/obj/gadc.o
 .debug_abbrev  0x00000000       0x4b build/obj/gadc.o
 .debug_aranges
                0x00000000       0x18 build/obj/gadc.o
 .debug_line    0x00000000       0xbc build/obj/gadc.o
 .debug_str     0x00000000      0x245 build/obj/gadc.o
 .comment       0x00000000       0x71 build/obj/gadc.o
 .ARM.attributes
                0x00000000       0x39 build/obj/gadc.o
 .text          0x00000000        0x0 build/obj/gaudio.o
 .data          0x00000000        0x0 build/obj/gaudio.o
 .bss           0x00000000        0x0 build/obj/gaudio.o
 .debug_info    0x00000000       0xa0 build/obj/gaudio.o
 .debug_abbrev  0x00000000       0x4b build/obj/gaudio.o
 .debug_aranges
                0x00000000       0x18 build/obj/gaudio.o
 .debug_line    0x00000000       0xbc build/obj/gaudio.o
 .debug_str     0x00000000      0x249 build/obj/gaudio.o
 .comment       0x00000000       0x71 build/obj/gaudio.o
 .ARM.attributes
                0x00000000       0x39 build/obj/gaudio.o
 .text          0x00000000        0x0 build/obj/gmisc.o
 .data          0x00000000        0x0 build/obj/gmisc.o
 .bss           0x00000000        0x0 build/obj/gmisc.o
 .debug_info    0x00000000       0xa0 build/obj/gmisc.o
 .debug_abbrev  0x00000000       0x4b build/obj/gmisc.o
 .debug_aranges
                0x00000000       0x18 build/obj/gmisc.o
 .debug_line    0x00000000       0xbc build/obj/gmisc.o
 .debug_str     0x00000000      0x247 build/obj/gmisc.o
 .comment       0x00000000       0x71 build/obj/gmisc.o
 .ARM.attributes
                0x00000000       0x39 build/obj/gmisc.o
 .text          0x00000000        0x0 build/obj/arrayops.o
 .data          0x00000000        0x0 build/obj/arrayops.o
 .bss           0x00000000        0x0 build/obj/arrayops.o
 .debug_info    0x00000000       0xa0 build/obj/arrayops.o
 .debug_abbrev  0x00000000       0x4b build/obj/arrayops.o
 .debug_aranges
                0x00000000       0x18 build/obj/arrayops.o
 .debug_line    0x00000000       0xbc build/obj/arrayops.o
 .debug_str     0x00000000      0x24a build/obj/arrayops.o
 .comment       0x00000000       0x71 build/obj/arrayops.o
 .ARM.attributes
                0x00000000       0x39 build/obj/arrayops.o
 .text          0x00000000        0x0 build/obj/trig.o
 .data          0x00000000        0x0 build/obj/trig.o
 .bss           0x00000000        0x0 build/obj/trig.o
 .debug_info    0x00000000       0xa0 build/obj/trig.o
 .debug_abbrev  0x00000000       0x4b build/obj/trig.o
 .debug_aranges
                0x00000000       0x18 build/obj/trig.o
 .debug_line    0x00000000       0xbc build/obj/trig.o
 .debug_str     0x00000000      0x246 build/obj/trig.o
 .comment       0x00000000       0x71 build/obj/trig.o
 .ARM.attributes
                0x00000000       0x39 build/obj/trig.o
 .text          0x00000000        0x0 build/obj/gfile.o
 .data          0x00000000        0x0 build/obj/gfile.o
 .bss           0x00000000        0x0 build/obj/gfile.o
 .text.MEMSetpos
                0x00000000       0x10 build/obj/gfile.o
 .text.MEMWrite
                0x00000000       0x20 build/obj/gfile.o
 .text.MEMRead  0x00000000       0x20 build/obj/gfile.o
 .text._gfileInit
                0x00000000       0x10 build/obj/gfile.o
 .text._gfileDeinit
                0x00000000       0x10 build/obj/gfile.o
 .text.gfileExists
                0x00000000       0x20 build/obj/gfile.o
 .text.gfileDelete
                0x00000000       0x10 build/obj/gfile.o
 .text.gfileGetFilesize
                0x00000000       0x20 build/obj/gfile.o
 .text.gfileRename
                0x00000000       0x10 build/obj/gfile.o
 .text.gfileOpenMemory
                0x00000000       0x50 build/obj/gfile.o
 .text.gfileGetPos
                0x00000000       0x20 build/obj/gfile.o
 .text.gfileSetPos
                0x00000000       0x20 build/obj/gfile.o
 .text.gfileGetSize
                0x00000000       0x20 build/obj/gfile.o
 .text.gfileEOF
                0x00000000       0x20 build/obj/gfile.o
 .rodata.FsMemVMT
                0x00000000       0x34 build/obj/gfile.o
 .bss.gfileStdOut
                0x00000000        0x4 build/obj/gfile.o
 .bss.gfileStdIn
                0x00000000        0x4 build/obj/gfile.o
 .bss.gfileStdErr
                0x00000000        0x4 build/obj/gfile.o
 .text          0x00000000        0x0 build/obj/gdisp_lld_SSD1289.o
 .data          0x00000000        0x0 build/obj/gdisp_lld_SSD1289.o
 .bss           0x00000000        0x0 build/obj/gdisp_lld_SSD1289.o
 .text.gdisp_lld_read_start
                0x00000000       0x40 build/obj/gdisp_lld_SSD1289.o
 .text.gdisp_lld_read_color
                0x00000000       0x10 build/obj/gdisp_lld_SSD1289.o
 .text.gdisp_lld_read_stop
                0x00000000       0x10 build/obj/gdisp_lld_SSD1289.o
 .text.gdisp_lld_blit_area
                0x00000000      0x100 build/obj/gdisp_lld_SSD1289.o
 .text          0x00000000        0x0 build/obj/ginput_lld_mouse.o
 .data          0x00000000        0x0 build/obj/ginput_lld_mouse.o
 .bss           0x00000000        0x0 build/obj/ginput_lld_mouse.o
 .text          0x00000000        0x0 build/obj/syscalls.o
 .data          0x00000000        0x0 build/obj/syscalls.o
 .bss           0x00000000        0x0 build/obj/syscalls.o
 .text._read_r  0x00000000       0x10 build/obj/syscalls.o
 .text._lseek_r
                0x00000000       0x10 build/obj/syscalls.o
 .text._write_r
                0x00000000       0x10 build/obj/syscalls.o
 .text._close_r
                0x00000000       0x10 build/obj/syscalls.o
 .text._fstat_r
                0x00000000       0x20 build/obj/syscalls.o
 .text._isatty_r
                0x00000000       0x10 build/obj/syscalls.o
 .text          0x00000000        0x0 build/obj/chprintf.o
 .data          0x00000000        0x0 build/obj/chprintf.o
 .bss           0x00000000        0x0 build/obj/chprintf.o
 .text.chsnprintf
                0x00000000       0x40 build/obj/chprintf.o
 .text          0x00000000        0x0 build/obj/main.o
 .data          0x00000000        0x0 build/obj/main.o
 .bss           0x00000000        0x0 build/obj/main.o
 .text.uitoa    0x00000000       0x90 build/obj/main.o
 .text.startBlinker
                0x00000000       0x30 build/obj/main.o
 .bss.i         0x00000000        0x4 build/obj/main.o
 .bss.j         0x00000000        0x2 build/obj/main.o
 .bss.average   0x00000000        0x2 build/obj/main.o
 .data          0x00000000        0x0 /opt/ARM/bin/../lib/gcc/arm-none-eabi/4.8.4/armv7e-m/fpu/libgcc.a(_aeabi_ldivmod.o)
 .bss           0x00000000        0x0 /opt/ARM/bin/../lib/gcc/arm-none-eabi/4.8.4/armv7e-m/fpu/libgcc.a(_aeabi_ldivmod.o)
 .data          0x00000000        0x0 /opt/ARM/bin/../lib/gcc/arm-none-eabi/4.8.4/armv7e-m/fpu/libgcc.a(_aeabi_uldivmod.o)
 .bss           0x00000000        0x0 /opt/ARM/bin/../lib/gcc/arm-none-eabi/4.8.4/armv7e-m/fpu/libgcc.a(_aeabi_uldivmod.o)
 .data          0x00000000        0x0 /opt/ARM/bin/../lib/gcc/arm-none-eabi/4.8.4/armv7e-m/fpu/libgcc.a(bpabi.o)
 .bss           0x00000000        0x0 /opt/ARM/bin/../lib/gcc/arm-none-eabi/4.8.4/armv7e-m/fpu/libgcc.a(bpabi.o)
 .data          0x00000000        0x0 /opt/ARM/bin/../lib/gcc/arm-none-eabi/4.8.4/armv7e-m/fpu/libgcc.a(_dvmd_tls.o)
 .bss           0x00000000        0x0 /opt/ARM/bin/../lib/gcc/arm-none-eabi/4.8.4/armv7e-m/fpu/libgcc.a(_dvmd_tls.o)
 .data          0x00000000        0x0 /opt/ARM/bin/../lib/gcc/arm-none-eabi/4.8.4/armv7e-m/fpu/libgcc.a(_divdi3.o)
 .bss           0x00000000        0x0 /opt/ARM/bin/../lib/gcc/arm-none-eabi/4.8.4/armv7e-m/fpu/libgcc.a(_divdi3.o)
 .ARM.extab     0x00000000        0x0 /opt/ARM/bin/../lib/gcc/arm-none-eabi/4.8.4/armv7e-m/fpu/libgcc.a(_divdi3.o)
 .data          0x00000000        0x0 /opt/ARM/bin/../lib/gcc/arm-none-eabi/4.8.4/armv7e-m/fpu/libgcc.a(_udivdi3.o)
 .bss           0x00000000        0x0 /opt/ARM/bin/../lib/gcc/arm-none-eabi/4.8.4/armv7e-m/fpu/libgcc.a(_udivdi3.o)
 .ARM.extab     0x00000000        0x0 /opt/ARM/bin/../lib/gcc/arm-none-eabi/4.8.4/armv7e-m/fpu/libgcc.a(_udivdi3.o)
 .data          0x00000000        0x0 /opt/ARM/bin/../lib/gcc/arm-none-eabi/4.8.4/../../../../arm-none-eabi/lib/armv7e-m/fpu/libg.a(lib_a-memcpy.o)
 .bss           0x00000000        0x0 /opt/ARM/bin/../lib/gcc/arm-none-eabi/4.8.4/../../../../arm-none-eabi/lib/armv7e-m/fpu/libg.a(lib_a-memcpy.o)
 .text          0x00000000        0x0 /opt/ARM/bin/../lib/gcc/arm-none-eabi/4.8.4/../../../../arm-none-eabi/lib/armv7e-m/fpu/libg.a(lib_a-memset.o)
 .data          0x00000000        0x0 /opt/ARM/bin/../lib/gcc/arm-none-eabi/4.8.4/../../../../arm-none-eabi/lib/armv7e-m/fpu/libg.a(lib_a-memset.o)
 .bss           0x00000000        0x0 /opt/ARM/bin/../lib/gcc/arm-none-eabi/4.8.4/../../../../arm-none-eabi/lib/armv7e-m/fpu/libg.a(lib_a-memset.o)
 .text          0x00000000        0x0 /opt/ARM/bin/../lib/gcc/arm-none-eabi/4.8.4/../../../../arm-none-eabi/lib/armv7e-m/fpu/libg.a(lib_a-sprintf.o)
 .data          0x00000000        0x0 /opt/ARM/bin/../lib/gcc/arm-none-eabi/4.8.4/../../../../arm-none-eabi/lib/armv7e-m/fpu/libg.a(lib_a-sprintf.o)
 .bss           0x00000000        0x0 /opt/ARM/bin/../lib/gcc/arm-none-eabi/4.8.4/../../../../arm-none-eabi/lib/armv7e-m/fpu/libg.a(lib_a-sprintf.o)
 .text._sprintf_r
                0x00000000       0x44 /opt/ARM/bin/../lib/gcc/arm-none-eabi/4.8.4/../../../../arm-none-eabi/lib/armv7e-m/fpu/libg.a(lib_a-sprintf.o)
 .data          0x00000000        0x0 /opt/ARM/bin/../lib/gcc/arm-none-eabi/4.8.4/../../../../arm-none-eabi/lib/armv7e-m/fpu/libg.a(lib_a-strcmp.o)
 .bss           0x00000000        0x0 /opt/ARM/bin/../lib/gcc/arm-none-eabi/4.8.4/../../../../arm-none-eabi/lib/armv7e-m/fpu/libg.a(lib_a-strcmp.o)
 .text          0x00000000        0x0 /opt/ARM/bin/../lib/gcc/arm-none-eabi/4.8.4/../../../../arm-none-eabi/lib/armv7e-m/fpu/libg.a(lib_a-strcpy.o)
 .data          0x00000000        0x0 /opt/ARM/bin/../lib/gcc/arm-none-eabi/4.8.4/../../../../arm-none-eabi/lib/armv7e-m/fpu/libg.a(lib_a-strcpy.o)
 .bss           0x00000000        0x0 /opt/ARM/bin/../lib/gcc/arm-none-eabi/4.8.4/../../../../arm-none-eabi/lib/armv7e-m/fpu/libg.a(lib_a-strcpy.o)
 .text          0x00000000        0x0 /opt/ARM/bin/../lib/gcc/arm-none-eabi/4.8.4/../../../../arm-none-eabi/lib/armv7e-m/fpu/libg.a(lib_a-strlen.o)
 .data          0x00000000        0x0 /opt/ARM/bin/../lib/gcc/arm-none-eabi/4.8.4/../../../../arm-none-eabi/lib/armv7e-m/fpu/libg.a(lib_a-strlen.o)
 .bss           0x00000000        0x0 /opt/ARM/bin/../lib/gcc/arm-none-eabi/4.8.4/../../../../arm-none-eabi/lib/armv7e-m/fpu/libg.a(lib_a-strlen.o)
 .text          0x00000000        0x0 /opt/ARM/bin/../lib/gcc/arm-none-eabi/4.8.4/../../../../arm-none-eabi/lib/armv7e-m/fpu/libg.a(lib_a-strncat.o)
 .data          0x00000000        0x0 /opt/ARM/bin/../lib/gcc/arm-none-eabi/4.8.4/../../../../arm-none-eabi/lib/armv7e-m/fpu/libg.a(lib_a-strncat.o)
 .bss           0x00000000        0x0 /opt/ARM/bin/../lib/gcc/arm-none-eabi/4.8.4/../../../../arm-none-eabi/lib/armv7e-m/fpu/libg.a(lib_a-strncat.o)
 .text          0x00000000        0x0 /opt/ARM/bin/../lib/gcc/arm-none-eabi/4.8.4/../../../../arm-none-eabi/lib/armv7e-m/fpu/libg.a(lib_a-svfprintf.o)
 .data          0x00000000        0x0 /opt/ARM/bin/../lib/gcc/arm-none-eabi/4.8.4/../../../../arm-none-eabi/lib/armv7e-m/fpu/libg.a(lib_a-svfprintf.o)
 .bss           0x00000000        0x0 /opt/ARM/bin/../lib/gcc/arm-none-eabi/4.8.4/../../../../arm-none-eabi/lib/armv7e-m/fpu/libg.a(lib_a-svfprintf.o)
 .text          0x00000000        0x0 /opt/ARM/bin/../lib/gcc/arm-none-eabi/4.8.4/../../../../arm-none-eabi/lib/armv7e-m/fpu/libg.a(lib_a-dtoa.o)
 .data          0x00000000        0x0 /opt/ARM/bin/../lib/gcc/arm-none-eabi/4.8.4/../../../../arm-none-eabi/lib/armv7e-m/fpu/libg.a(lib_a-dtoa.o)
 .bss           0x00000000        0x0 /opt/ARM/bin/../lib/gcc/arm-none-eabi/4.8.4/../../../../arm-none-eabi/lib/armv7e-m/fpu/libg.a(lib_a-dtoa.o)
 .text          0x00000000        0x0 /opt/ARM/bin/../lib/gcc/arm-none-eabi/4.8.4/../../../../arm-none-eabi/lib/armv7e-m/fpu/libg.a(lib_a-impure.o)
 .data          0x00000000        0x0 /opt/ARM/bin/../lib/gcc/arm-none-eabi/4.8.4/../../../../arm-none-eabi/lib/armv7e-m/fpu/libg.a(lib_a-impure.o)
 .bss           0x00000000        0x0 /opt/ARM/bin/../lib/gcc/arm-none-eabi/4.8.4/../../../../arm-none-eabi/lib/armv7e-m/fpu/libg.a(lib_a-impure.o)
 .rodata._global_impure_ptr
                0x00000000        0x4 /opt/ARM/bin/../lib/gcc/arm-none-eabi/4.8.4/../../../../arm-none-eabi/lib/armv7e-m/fpu/libg.a(lib_a-impure.o)
 .text          0x00000000        0x0 /opt/ARM/bin/../lib/gcc/arm-none-eabi/4.8.4/../../../../arm-none-eabi/lib/armv7e-m/fpu/libg.a(lib_a-locale.o)
 .data          0x00000000        0x0 /opt/ARM/bin/../lib/gcc/arm-none-eabi/4.8.4/../../../../arm-none-eabi/lib/armv7e-m/fpu/libg.a(lib_a-locale.o)
 .bss           0x00000000        0x0 /opt/ARM/bin/../lib/gcc/arm-none-eabi/4.8.4/../../../../arm-none-eabi/lib/armv7e-m/fpu/libg.a(lib_a-locale.o)
 .text._setlocale_r
                0x00000000       0x40 /opt/ARM/bin/../lib/gcc/arm-none-eabi/4.8.4/../../../../arm-none-eabi/lib/armv7e-m/fpu/libg.a(lib_a-locale.o)
 .text.__locale_charset
                0x00000000        0x8 /opt/ARM/bin/../lib/gcc/arm-none-eabi/4.8.4/../../../../arm-none-eabi/lib/armv7e-m/fpu/libg.a(lib_a-locale.o)
 .text.__locale_mb_cur_max
                0x00000000        0xc /opt/ARM/bin/../lib/gcc/arm-none-eabi/4.8.4/../../../../arm-none-eabi/lib/armv7e-m/fpu/libg.a(lib_a-locale.o)
 .text.__locale_msgcharset
                0x00000000        0x8 /opt/ARM/bin/../lib/gcc/arm-none-eabi/4.8.4/../../../../arm-none-eabi/lib/armv7e-m/fpu/libg.a(lib_a-locale.o)
 .text.__locale_cjk_lang
                0x00000000        0x4 /opt/ARM/bin/../lib/gcc/arm-none-eabi/4.8.4/../../../../arm-none-eabi/lib/armv7e-m/fpu/libg.a(lib_a-locale.o)
 .text.setlocale
                0x00000000       0x10 /opt/ARM/bin/../lib/gcc/arm-none-eabi/4.8.4/../../../../arm-none-eabi/lib/armv7e-m/fpu/libg.a(lib_a-locale.o)
 .text.localeconv
                0x00000000        0x8 /opt/ARM/bin/../lib/gcc/arm-none-eabi/4.8.4/../../../../arm-none-eabi/lib/armv7e-m/fpu/libg.a(lib_a-locale.o)
 .data.lc_message_charset
                0x00000000       0x20 /opt/ARM/bin/../lib/gcc/arm-none-eabi/4.8.4/../../../../arm-none-eabi/lib/armv7e-m/fpu/libg.a(lib_a-locale.o)
 .bss._PathLocale
                0x00000000        0x4 /opt/ARM/bin/../lib/gcc/arm-none-eabi/4.8.4/../../../../arm-none-eabi/lib/armv7e-m/fpu/libg.a(lib_a-locale.o)
 .bss.__nlocale_changed
                0x00000000        0x4 /opt/ARM/bin/../lib/gcc/arm-none-eabi/4.8.4/../../../../arm-none-eabi/lib/armv7e-m/fpu/libg.a(lib_a-locale.o)
 .bss.__mlocale_changed
                0x00000000        0x4 /opt/ARM/bin/../lib/gcc/arm-none-eabi/4.8.4/../../../../arm-none-eabi/lib/armv7e-m/fpu/libg.a(lib_a-locale.o)
 .data.lc_ctype_charset
                0x00000000       0x20 /opt/ARM/bin/../lib/gcc/arm-none-eabi/4.8.4/../../../../arm-none-eabi/lib/armv7e-m/fpu/libg.a(lib_a-locale.o)
 .data.__mb_cur_max
                0x00000000        0x4 /opt/ARM/bin/../lib/gcc/arm-none-eabi/4.8.4/../../../../arm-none-eabi/lib/armv7e-m/fpu/libg.a(lib_a-locale.o)
 .text          0x00000000        0x0 /opt/ARM/bin/../lib/gcc/arm-none-eabi/4.8.4/../../../../arm-none-eabi/lib/armv7e-m/fpu/libg.a(lib_a-mallocr.o)
 .data          0x00000000        0x0 /opt/ARM/bin/../lib/gcc/arm-none-eabi/4.8.4/../../../../arm-none-eabi/lib/armv7e-m/fpu/libg.a(lib_a-mallocr.o)
 .bss           0x00000000        0x0 /opt/ARM/bin/../lib/gcc/arm-none-eabi/4.8.4/../../../../arm-none-eabi/lib/armv7e-m/fpu/libg.a(lib_a-mallocr.o)
 .text          0x00000000        0x0 /opt/ARM/bin/../lib/gcc/arm-none-eabi/4.8.4/../../../../arm-none-eabi/lib/armv7e-m/fpu/libg.a(lib_a-memchr-stub.o)
 .data          0x00000000        0x0 /opt/ARM/bin/../lib/gcc/arm-none-eabi/4.8.4/../../../../arm-none-eabi/lib/armv7e-m/fpu/libg.a(lib_a-memchr-stub.o)
 .bss           0x00000000        0x0 /opt/ARM/bin/../lib/gcc/arm-none-eabi/4.8.4/../../../../arm-none-eabi/lib/armv7e-m/fpu/libg.a(lib_a-memchr-stub.o)
 .text          0x00000000        0x0 /opt/ARM/bin/../lib/gcc/arm-none-eabi/4.8.4/../../../../arm-none-eabi/lib/armv7e-m/fpu/libg.a(lib_a-mlock.o)
 .data          0x00000000        0x0 /opt/ARM/bin/../lib/gcc/arm-none-eabi/4.8.4/../../../../arm-none-eabi/lib/armv7e-m/fpu/libg.a(lib_a-mlock.o)
 .bss           0x00000000        0x0 /opt/ARM/bin/../lib/gcc/arm-none-eabi/4.8.4/../../../../arm-none-eabi/lib/armv7e-m/fpu/libg.a(lib_a-mlock.o)
 .text          0x00000000        0x0 /opt/ARM/bin/../lib/gcc/arm-none-eabi/4.8.4/../../../../arm-none-eabi/lib/armv7e-m/fpu/libg.a(lib_a-mprec.o)
 .data          0x00000000        0x0 /opt/ARM/bin/../lib/gcc/arm-none-eabi/4.8.4/../../../../arm-none-eabi/lib/armv7e-m/fpu/libg.a(lib_a-mprec.o)
 .bss           0x00000000        0x0 /opt/ARM/bin/../lib/gcc/arm-none-eabi/4.8.4/../../../../arm-none-eabi/lib/armv7e-m/fpu/libg.a(lib_a-mprec.o)
 .text.__s2b    0x00000000       0x98 /opt/ARM/bin/../lib/gcc/arm-none-eabi/4.8.4/../../../../arm-none-eabi/lib/armv7e-m/fpu/libg.a(lib_a-mprec.o)
 .text.__ulp    0x00000000       0x50 /opt/ARM/bin/../lib/gcc/arm-none-eabi/4.8.4/../../../../arm-none-eabi/lib/armv7e-m/fpu/libg.a(lib_a-mprec.o)
 .text.__b2d    0x00000000       0xb0 /opt/ARM/bin/../lib/gcc/arm-none-eabi/4.8.4/../../../../arm-none-eabi/lib/armv7e-m/fpu/libg.a(lib_a-mprec.o)
 .text.__ratio  0x00000000       0x54 /opt/ARM/bin/../lib/gcc/arm-none-eabi/4.8.4/../../../../arm-none-eabi/lib/armv7e-m/fpu/libg.a(lib_a-mprec.o)
 .text._mprec_log10
                0x00000000       0x38 /opt/ARM/bin/../lib/gcc/arm-none-eabi/4.8.4/../../../../arm-none-eabi/lib/armv7e-m/fpu/libg.a(lib_a-mprec.o)
 .text.__copybits
                0x00000000       0x48 /opt/ARM/bin/../lib/gcc/arm-none-eabi/4.8.4/../../../../arm-none-eabi/lib/armv7e-m/fpu/libg.a(lib_a-mprec.o)
 .text.__any_on
                0x00000000       0x60 /opt/ARM/bin/../lib/gcc/arm-none-eabi/4.8.4/../../../../arm-none-eabi/lib/armv7e-m/fpu/libg.a(lib_a-mprec.o)
 .rodata.__mprec_tinytens
                0x00000000       0x28 /opt/ARM/bin/../lib/gcc/arm-none-eabi/4.8.4/../../../../arm-none-eabi/lib/armv7e-m/fpu/libg.a(lib_a-mprec.o)
 .text          0x00000000        0x0 /opt/ARM/bin/../lib/gcc/arm-none-eabi/4.8.4/../../../../arm-none-eabi/lib/armv7e-m/fpu/libg.a(lib_a-s_fpclassify.o)
 .data          0x00000000        0x0 /opt/ARM/bin/../lib/gcc/arm-none-eabi/4.8.4/../../../../arm-none-eabi/lib/armv7e-m/fpu/libg.a(lib_a-s_fpclassify.o)
 .bss           0x00000000        0x0 /opt/ARM/bin/../lib/gcc/arm-none-eabi/4.8.4/../../../../arm-none-eabi/lib/armv7e-m/fpu/libg.a(lib_a-s_fpclassify.o)
 .text          0x00000000        0x0 /opt/ARM/bin/../lib/gcc/arm-none-eabi/4.8.4/../../../../arm-none-eabi/lib/armv7e-m/fpu/libg.a(lib_a-svfiprintf.o)
 .data          0x00000000        0x0 /opt/ARM/bin/../lib/gcc/arm-none-eabi/4.8.4/../../../../arm-none-eabi/lib/armv7e-m/fpu/libg.a(lib_a-svfiprintf.o)
 .bss           0x00000000        0x0 /opt/ARM/bin/../lib/gcc/arm-none-eabi/4.8.4/../../../../arm-none-eabi/lib/armv7e-m/fpu/libg.a(lib_a-svfiprintf.o)
 .text._svfiprintf_r
                0x00000000      0xb3c /opt/ARM/bin/../lib/gcc/arm-none-eabi/4.8.4/../../../../arm-none-eabi/lib/armv7e-m/fpu/libg.a(lib_a-svfiprintf.o)
 .rodata.zeroes.6707
                0x00000000       0x10 /opt/ARM/bin/../lib/gcc/arm-none-eabi/4.8.4/../../../../arm-none-eabi/lib/armv7e-m/fpu/libg.a(lib_a-svfiprintf.o)
 .rodata.str1.4
                0x00000000       0x30 /opt/ARM/bin/../lib/gcc/arm-none-eabi/4.8.4/../../../../arm-none-eabi/lib/armv7e-m/fpu/libg.a(lib_a-svfiprintf.o)
 .rodata.blanks.6706
                0x00000000       0x10 /opt/ARM/bin/../lib/gcc/arm-none-eabi/4.8.4/../../../../arm-none-eabi/lib/armv7e-m/fpu/libg.a(lib_a-svfiprintf.o)
 .text          0x00000000        0x0 /opt/ARM/bin/../lib/gcc/arm-none-eabi/4.8.4/../../../../arm-none-eabi/lib/armv7e-m/fpu/libg.a(lib_a-callocr.o)
 .data          0x00000000        0x0 /opt/ARM/bin/../lib/gcc/arm-none-eabi/4.8.4/../../../../arm-none-eabi/lib/armv7e-m/fpu/libg.a(lib_a-callocr.o)
 .bss           0x00000000        0x0 /opt/ARM/bin/../lib/gcc/arm-none-eabi/4.8.4/../../../../arm-none-eabi/lib/armv7e-m/fpu/libg.a(lib_a-callocr.o)
 .text          0x00000000        0x0 /opt/ARM/bin/../lib/gcc/arm-none-eabi/4.8.4/../../../../arm-none-eabi/lib/armv7e-m/fpu/libg.a(lib_a-freer.o)
 .data          0x00000000        0x0 /opt/ARM/bin/../lib/gcc/arm-none-eabi/4.8.4/../../../../arm-none-eabi/lib/armv7e-m/fpu/libg.a(lib_a-freer.o)
 .bss           0x00000000        0x0 /opt/ARM/bin/../lib/gcc/arm-none-eabi/4.8.4/../../../../arm-none-eabi/lib/armv7e-m/fpu/libg.a(lib_a-freer.o)
 .text          0x00000000        0x0 /opt/ARM/bin/../lib/gcc/arm-none-eabi/4.8.4/../../../../arm-none-eabi/lib/armv7e-m/fpu/libg.a(lib_a-memmove.o)
 .data          0x00000000        0x0 /opt/ARM/bin/../lib/gcc/arm-none-eabi/4.8.4/../../../../arm-none-eabi/lib/armv7e-m/fpu/libg.a(lib_a-memmove.o)
 .bss           0x00000000        0x0 /opt/ARM/bin/../lib/gcc/arm-none-eabi/4.8.4/../../../../arm-none-eabi/lib/armv7e-m/fpu/libg.a(lib_a-memmove.o)
 .text          0x00000000        0x0 /opt/ARM/bin/../lib/gcc/arm-none-eabi/4.8.4/../../../../arm-none-eabi/lib/armv7e-m/fpu/libg.a(lib_a-reallocr.o)
 .data          0x00000000        0x0 /opt/ARM/bin/../lib/gcc/arm-none-eabi/4.8.4/../../../../arm-none-eabi/lib/armv7e-m/fpu/libg.a(lib_a-reallocr.o)
 .bss           0x00000000        0x0 /opt/ARM/bin/../lib/gcc/arm-none-eabi/4.8.4/../../../../arm-none-eabi/lib/armv7e-m/fpu/libg.a(lib_a-reallocr.o)
 .data          0x00000000        0x0 /opt/ARM/bin/../lib/gcc/arm-none-eabi/4.8.4/armv7e-m/fpu/libgcc.a(_arm_addsubdf3.o)
 .bss           0x00000000        0x0 /opt/ARM/bin/../lib/gcc/arm-none-eabi/4.8.4/armv7e-m/fpu/libgcc.a(_arm_addsubdf3.o)
 .data          0x00000000        0x0 /opt/ARM/bin/../lib/gcc/arm-none-eabi/4.8.4/armv7e-m/fpu/libgcc.a(_arm_muldivdf3.o)
 .bss           0x00000000        0x0 /opt/ARM/bin/../lib/gcc/arm-none-eabi/4.8.4/armv7e-m/fpu/libgcc.a(_arm_muldivdf3.o)
 .data          0x00000000        0x0 /opt/ARM/bin/../lib/gcc/arm-none-eabi/4.8.4/armv7e-m/fpu/libgcc.a(_arm_cmpdf2.o)
 .bss           0x00000000        0x0 /opt/ARM/bin/../lib/gcc/arm-none-eabi/4.8.4/armv7e-m/fpu/libgcc.a(_arm_cmpdf2.o)
 .data          0x00000000        0x0 /opt/ARM/bin/../lib/gcc/arm-none-eabi/4.8.4/armv7e-m/fpu/libgcc.a(_arm_fixdfsi.o)
 .bss           0x00000000        0x0 /opt/ARM/bin/../lib/gcc/arm-none-eabi/4.8.4/armv7e-m/fpu/libgcc.a(_arm_fixdfsi.o)

Memory Configuration

Name             Origin             Length             Attributes
flash            0x08000000         0x00100000
ram              0x20000000         0x0001c000
ethram           0x2001c000         0x00004000
ccmram           0x10000000         0x00010000
*default*        0x00000000         0xffffffff

Linker script and memory map

LOAD build/obj/crt0.o
LOAD build/obj/vectors.o
LOAD build/obj/chcore.o
LOAD build/obj/chcore_v7m.o
LOAD build/obj/nvic.o
LOAD build/obj/chsys.o
LOAD build/obj/chdebug.o
LOAD build/obj/chlists.o
LOAD build/obj/chvt.o
LOAD build/obj/chschd.o
LOAD build/obj/chthreads.o
LOAD build/obj/chdynamic.o
LOAD build/obj/chregistry.o
LOAD build/obj/chsem.o
LOAD build/obj/chmtx.o
LOAD build/obj/chcond.o
LOAD build/obj/chevents.o
LOAD build/obj/chmsg.o
LOAD build/obj/chmboxes.o
LOAD build/obj/chqueues.o
LOAD build/obj/chmemcore.o
LOAD build/obj/chheap.o
LOAD build/obj/chmempools.o
LOAD build/obj/hal.o
LOAD build/obj/adc.o
LOAD build/obj/can.o
LOAD build/obj/ext.o
LOAD build/obj/gpt.o
LOAD build/obj/i2c.o
LOAD build/obj/icu.o
LOAD build/obj/mac.o
LOAD build/obj/mmc_spi.o
LOAD build/obj/mmcsd.o
LOAD build/obj/pal.o
LOAD build/obj/pwm.o
LOAD build/obj/rtc.o
LOAD build/obj/sdc.o
LOAD build/obj/serial.o
LOAD build/obj/serial_usb.o
LOAD build/obj/spi.o
LOAD build/obj/tm.o
LOAD build/obj/uart.o
LOAD build/obj/usb.o
LOAD build/obj/stm32_dma.o
LOAD build/obj/hal_lld.o
LOAD build/obj/adc_lld.o
LOAD build/obj/ext_lld_isr.o
LOAD build/obj/can_lld.o
LOAD build/obj/ext_lld.o
LOAD build/obj/mac_lld.o
LOAD build/obj/sdc_lld.o
LOAD build/obj/pal_lld.o
LOAD build/obj/i2c_lld.o
LOAD build/obj/usb_lld.o
LOAD build/obj/rtc_lld.o
LOAD build/obj/spi_lld.o
LOAD build/obj/gpt_lld.o
LOAD build/obj/icu_lld.o
LOAD build/obj/pwm_lld.o
LOAD build/obj/serial_lld.o
LOAD build/obj/uart_lld.o
LOAD build/obj/board.o
LOAD build/obj/gfx.o
LOAD build/obj/chibios.o
LOAD build/obj/freertos.o
LOAD build/obj/win32.o
LOAD build/obj/linux.o
LOAD build/obj/osx.o
LOAD build/obj/raw32.o
LOAD build/obj/gqueue.o
LOAD build/obj/gdisp.o
LOAD build/obj/fonts.o
LOAD build/obj/image.o
LOAD build/obj/image_native.o
LOAD build/obj/image_gif.o
LOAD build/obj/image_bmp.o
LOAD build/obj/image_jpg.o
LOAD build/obj/image_png.o
LOAD build/obj/mf_encoding.o
LOAD build/obj/mf_font.o
LOAD build/obj/mf_justify.o
LOAD build/obj/mf_kerning.o
LOAD build/obj/mf_rlefont.o
LOAD build/obj/mf_bwfont.o
LOAD build/obj/mf_scaledfont.o
LOAD build/obj/mf_wordwrap.o
LOAD build/obj/gevent.o
LOAD build/obj/gtimer.o
LOAD build/obj/gwin.o
LOAD build/obj/gwidget.o
LOAD build/obj/gwm.o
LOAD build/obj/console.o
LOAD build/obj/graph.o
LOAD build/obj/button.o
LOAD build/obj/slider.o
LOAD build/obj/checkbox.o
LOAD build/obj/gimage.o
LOAD build/obj/label.o
LOAD build/obj/radio.o
LOAD build/obj/list.o
LOAD build/obj/progressbar.o
LOAD build/obj/gcontainer.o
LOAD build/obj/frame.o
LOAD build/obj/ginput.o
LOAD build/obj/mouse.o
LOAD build/obj/keyboard.o
LOAD build/obj/toggle.o
LOAD build/obj/dial.o
LOAD build/obj/gadc.o
LOAD build/obj/gaudio.o
LOAD build/obj/gmisc.o
LOAD build/obj/arrayops.o
LOAD build/obj/trig.o
LOAD build/obj/gfile.o
LOAD build/obj/gdisp_lld_SSD1289.o
LOAD build/obj/ginput_lld_mouse.o
LOAD build/obj/syscalls.o
LOAD build/obj/chprintf.o
LOAD build/obj/main.o
                0x00000400                __main_stack_size__ = 0x400
                0x00000400                __process_stack_size__ = 0x400
                0x20000000                __ram_start__ = ORIGIN (ram)
                0x0001c000                __ram_size__ = 0x1c000
                0x2001c000                __ram_end__ = (__ram_start__ + __ram_size__)
                0x00000000                . = 0x0
                0x00000000                _text = .

startup         0x08000000      0x1ac
 *(vectors)
 vectors        0x08000000      0x1ac build/obj/vectors.o
                0x08000000                _vectors

constructors    0x080001ac        0x0
                0x080001ac                PROVIDE (__init_array_start, .)
 *(SORT(.init_array.*))
 *(.init_array)
                0x080001ac                PROVIDE (__init_array_end, .)

destructors     0x080001ac        0x0
                0x080001ac                PROVIDE (__fini_array_start, .)
 *(.fini_array)
 *(SORT(.fini_array.*))
                0x080001ac                PROVIDE (__fini_array_end, .)

.text           0x080001b0    0x1df5c
 *(.text.startup.*)
 .text.startup.main
                0x080001b0      0x4a0 build/obj/main.o
                0x080001b0                main
 *(.text)
 .text          0x08000650       0x38 /opt/ARM/bin/../lib/gcc/arm-none-eabi/4.8.4/armv7e-m/fpu/libgcc.a(_aeabi_ldivmod.o)
                0x08000650                __aeabi_ldivmod
 *fill*         0x08000688        0x8 
 .text          0x08000690       0x2c /opt/ARM/bin/../lib/gcc/arm-none-eabi/4.8.4/armv7e-m/fpu/libgcc.a(_aeabi_uldivmod.o)
                0x08000690                __aeabi_uldivmod
 *fill*         0x080006bc        0x4 
 .text          0x080006c0       0x60 /opt/ARM/bin/../lib/gcc/arm-none-eabi/4.8.4/armv7e-m/fpu/libgcc.a(bpabi.o)
                0x080006c0                __gnu_ldivmod_helper
                0x080006f0                __gnu_uldivmod_helper
 .text          0x08000720        0x4 /opt/ARM/bin/../lib/gcc/arm-none-eabi/4.8.4/armv7e-m/fpu/libgcc.a(_dvmd_tls.o)
                0x08000720                __aeabi_ldiv0
                0x08000720                __aeabi_idiv0
 *fill*         0x08000724        0xc 
 .text          0x08000730      0x298 /opt/ARM/bin/../lib/gcc/arm-none-eabi/4.8.4/armv7e-m/fpu/libgcc.a(_divdi3.o)
                0x08000730                __divdi3
 *fill*         0x080009c8        0x8 
 .text          0x080009d0      0x284 /opt/ARM/bin/../lib/gcc/arm-none-eabi/4.8.4/armv7e-m/fpu/libgcc.a(_udivdi3.o)
                0x080009d0                __udivdi3
 *fill*         0x08000c54        0xc 
 .text          0x08000c60      0x134 /opt/ARM/bin/../lib/gcc/arm-none-eabi/4.8.4/../../../../arm-none-eabi/lib/armv7e-m/fpu/libg.a(lib_a-memcpy.o)
                0x08000c60                memcpy
 *fill*         0x08000d94        0xc 
 .text          0x08000da0      0x21c /opt/ARM/bin/../lib/gcc/arm-none-eabi/4.8.4/../../../../arm-none-eabi/lib/armv7e-m/fpu/libg.a(lib_a-strcmp.o)
                0x08000da0                strcmp
 *fill*         0x08000fbc        0x4 
 .text          0x08000fc0      0x370 /opt/ARM/bin/../lib/gcc/arm-none-eabi/4.8.4/armv7e-m/fpu/libgcc.a(_arm_addsubdf3.o)
                0x08000fc0                __aeabi_drsub
                0x08000fc8                __aeabi_dsub
                0x08000fc8                __subdf3
                0x08000fcc                __adddf3
                0x08000fcc                __aeabi_dadd
                0x08001244                __aeabi_ui2d
                0x08001244                __floatunsidf
                0x08001264                __floatsidf
                0x08001264                __aeabi_i2d
                0x08001288                __extendsfdf2
                0x08001288                __aeabi_f2d
                0x080012c4                __aeabi_ul2d
                0x080012c4                __floatundidf
                0x080012d4                __floatdidf
                0x080012d4                __aeabi_l2d
 .text          0x08001330      0x424 /opt/ARM/bin/../lib/gcc/arm-none-eabi/4.8.4/armv7e-m/fpu/libgcc.a(_arm_muldivdf3.o)
                0x08001330                __aeabi_dmul
                0x08001330                __muldf3
                0x08001584                __aeabi_ddiv
                0x08001584                __divdf3
 *fill*         0x08001754        0xc 
 .text          0x08001760      0x110 /opt/ARM/bin/../lib/gcc/arm-none-eabi/4.8.4/armv7e-m/fpu/libgcc.a(_arm_cmpdf2.o)
                0x08001760                __gtdf2
                0x08001760                __gedf2
                0x08001768                __ltdf2
                0x08001768                __ledf2
                0x08001770                __cmpdf2
                0x08001770                __eqdf2
                0x08001770                __nedf2
                0x080017ec                __aeabi_cdrcmple
                0x080017fc                __aeabi_cdcmple
                0x080017fc                __aeabi_cdcmpeq
                0x0800180c                __aeabi_dcmpeq
                0x08001820                __aeabi_dcmplt
                0x08001834                __aeabi_dcmple
                0x08001848                __aeabi_dcmpge
                0x0800185c                __aeabi_dcmpgt
 .text          0x08001870       0x50 /opt/ARM/bin/../lib/gcc/arm-none-eabi/4.8.4/armv7e-m/fpu/libgcc.a(_arm_fixdfsi.o)
                0x08001870                __fixdfsi
                0x08001870                __aeabi_d2iz
 *(.text.*)
 .text.__late_init
                0x080018c0       0x10 build/obj/crt0.o
                0x080018c0                __late_init
 .text._default_exit
                0x080018d0       0x10 build/obj/crt0.o
                0x080018d0                _default_exit
 .text.ResetHandler
                0x080018e0      0x120 build/obj/crt0.o
                0x080018e0                ResetHandler
 .text._unhandled_exception
                0x08001a00       0x10 build/obj/vectors.o
                0x08001a00                Vector58
                0x08001a00                VectorE8
                0x08001a00                Vector9C
                0x08001a00                VectorAC
                0x08001a00                Vector1A0
                0x08001a00                Vector5C
                0x08001a00                NMIVector
                0x08001a00                Vector11C
                0x08001a00                Vector19C
                0x08001a00                Vector8C
                0x08001a00                VectorDC
                0x08001a00                Vector168
                0x08001a00                Vector110
                0x08001a00                VectorC8
                0x08001a00                Vector94
                0x08001a00                VectorA8
                0x08001a00                Vector160
                0x08001a00                VectorEC
                0x08001a00                UsageFaultVector
                0x08001a00                DebugMonitorVector
                0x08001a00                Vector40
                0x08001a00                VectorF8
                0x08001a00                VectorBC
                0x08001a00                Vector190
                0x08001a00                Vector148
                0x08001a00                Vector188
                0x08001a00                PendSVVector
                0x08001a00                Vector198
                0x08001a00                Vector118
                0x08001a00                Vector64
                0x08001a00                VectorCC
                0x08001a00                Vector54
                0x08001a00                Vector98
                0x08001a00                Vector138
                0x08001a00                Vector24
                0x08001a00                Vector178
                0x08001a00                Vector1A4
                0x08001a00                BusFaultVector
                0x08001a00                VectorD0
                0x08001a00                Vector140
                0x08001a00                VectorE4
                0x08001a00                VectorC0
                0x08001a00                HardFaultVector
                0x08001a00                Vector134
                0x08001a00                VectorF0
                0x08001a00                Vector13C
                0x08001a00                Vector100
                0x08001a00                VectorE0
                0x08001a00                VectorF4
                0x08001a00                MemManageVector
                0x08001a00                VectorA0
                0x08001a00                VectorC4
                0x08001a00                Vector180
                0x08001a00                VectorB0
                0x08001a00                Vector90
                0x08001a00                Vector114
                0x08001a00                Vector164
                0x08001a00                Vector60
                0x08001a00                Vector1C
                0x08001a00                Vector17C
                0x08001a00                Vector48
                0x08001a00                Vector1A8
                0x08001a00                Vector16C
                0x08001a00                VectorD4
                0x08001a00                Vector4C
                0x08001a00                Vector144
                0x08001a00                Vector15C
                0x08001a00                Vector68
                0x08001a00                _unhandled_exception
                0x08001a00                Vector170
                0x08001a00                Vector104
                0x08001a00                Vector184
                0x08001a00                Vector10C
                0x08001a00                Vector14C
                0x08001a00                Vector50
                0x08001a00                Vector194
                0x08001a00                Vector44
                0x08001a00                Vector28
                0x08001a00                VectorB8
                0x08001a00                Vector34
                0x08001a00                VectorA4
                0x08001a00                Vector20
                0x08001a00                Vector18C
                0x08001a00                Vector174
 .text.port_halt
                0x08001a10       0x10 build/obj/chcore.o
                0x08001a10                port_halt
 .text._port_switch_from_isr
                0x08001a20       0x10 build/obj/chcore_v7m.o
                0x08001a20                _port_switch_from_isr
 .text.SVCallVector
                0x08001a30       0x30 build/obj/chcore_v7m.o
                0x08001a30                SVCallVector
 .text._port_init
                0x08001a60       0x30 build/obj/chcore_v7m.o
                0x08001a60                _port_init
 .text._port_lock
                0x08001a90       0x10 build/obj/chcore_v7m.o
                0x08001a90                _port_lock
 .text._port_unlock
                0x08001aa0       0x10 build/obj/chcore_v7m.o
                0x08001aa0                _port_unlock
 .text._port_irq_epilogue
                0x08001ab0       0x80 build/obj/chcore_v7m.o
                0x08001ab0                _port_irq_epilogue
 .text.SysTickVector
                0x08001b30       0x20 build/obj/chcore_v7m.o
                0x08001b30                SysTickVector
 .text._port_switch
                0x08001b50       0x20 build/obj/chcore_v7m.o
                0x08001b50                _port_switch
 .text._port_thread_start
                0x08001b70       0x20 build/obj/chcore_v7m.o
                0x08001b70                _port_thread_start
 .text.nvicEnableVector
                0x08001b90       0x50 build/obj/nvic.o
                0x08001b90                nvicEnableVector
 .text.nvicSetSystemHandlerPriority
                0x08001be0       0x30 build/obj/nvic.o
                0x08001be0                nvicSetSystemHandlerPriority
 .text._idle_thread
                0x08001c10       0x20 build/obj/chsys.o
                0x08001c10                _idle_thread
 .text.chSysInit
                0x08001c30       0x70 build/obj/chsys.o
                0x08001c30                chSysInit
 .text.chSysTimerHandlerI
                0x08001ca0       0x60 build/obj/chsys.o
                0x08001ca0                chSysTimerHandlerI
 .text._trace_init
                0x08001d00       0x20 build/obj/chdebug.o
                0x08001d00                _trace_init
 .text.dbg_trace
                0x08001d20       0x40 build/obj/chdebug.o
                0x08001d20                dbg_trace
 .text.chDbgPanic
                0x08001d60       0x10 build/obj/chdebug.o
                0x08001d60                chDbgPanic
 .text.prio_insert
                0x08001d70       0x30 build/obj/chlists.o
                0x08001d70                prio_insert
 .text.queue_insert
                0x08001da0       0x10 build/obj/chlists.o
                0x08001da0                queue_insert
 .text.fifo_remove
                0x08001db0       0x10 build/obj/chlists.o
                0x08001db0                fifo_remove
 .text.dequeue  0x08001dc0       0x10 build/obj/chlists.o
                0x08001dc0                dequeue
 .text.list_remove
                0x08001dd0       0x10 build/obj/chlists.o
                0x08001dd0                list_remove
 .text._vt_init
                0x08001de0       0x20 build/obj/chvt.o
                0x08001de0                _vt_init
 .text.chVTSetI
                0x08001e00       0x50 build/obj/chvt.o
                0x08001e00                chVTSetI
 .text.chVTResetI
                0x08001e50       0x50 build/obj/chvt.o
                0x08001e50                chVTResetI
 .text._scheduler_init
                0x08001ea0       0x20 build/obj/chschd.o
                0x08001ea0                _scheduler_init
 .text.chSchReadyI
                0x08001ec0       0x40 build/obj/chschd.o
                0x08001ec0                chSchReadyI
 .text.wakeup   0x08001f00       0x50 build/obj/chschd.o
 .text.chSchGoSleepS
                0x08001f50       0x50 build/obj/chschd.o
                0x08001f50                chSchGoSleepS
 .text.chSchGoSleepTimeoutS
                0x08001fa0       0x50 build/obj/chschd.o
                0x08001fa0                chSchGoSleepTimeoutS
 .text.chSchWakeupS
                0x08001ff0       0x60 build/obj/chschd.o
                0x08001ff0                chSchWakeupS
 .text.chSchDoRescheduleBehind
                0x08002050       0x50 build/obj/chschd.o
                0x08002050                chSchDoRescheduleBehind
 .text.chSchDoRescheduleAhead
                0x080020a0       0x60 build/obj/chschd.o
                0x080020a0                chSchDoRescheduleAhead
 .text.chSchRescheduleS
                0x08002100       0x20 build/obj/chschd.o
                0x08002100                chSchRescheduleS
 .text.chSchDoReschedule
                0x08002120       0x20 build/obj/chschd.o
                0x08002120                chSchDoReschedule
 .text._thread_init
                0x08002140       0x60 build/obj/chthreads.o
                0x08002140                _thread_init
 .text._thread_memfill
                0x080021a0       0x10 build/obj/chthreads.o
                0x080021a0                _thread_memfill
 .text.chThdCreateI
                0x080021b0       0xa0 build/obj/chthreads.o
                0x080021b0                chThdCreateI
 .text.chThdCreateStatic
                0x08002250       0x50 build/obj/chthreads.o
                0x08002250                chThdCreateStatic
 .text.chThdSleep
                0x080022a0       0x30 build/obj/chthreads.o
                0x080022a0                chThdSleep
 .text.chThdYield
                0x080022d0       0x30 build/obj/chthreads.o
                0x080022d0                chThdYield
 .text.chThdExitS
                0x08002300       0x50 build/obj/chthreads.o
                0x08002300                chThdExitS
 .text.chThdExit
                0x08002350       0x10 build/obj/chthreads.o
                0x08002350                chThdExit
 .text.chThdCreateFromHeap
                0x08002360       0x60 build/obj/chdynamic.o
                0x08002360                chThdCreateFromHeap
 .text.chSemInit
                0x080023c0       0x30 build/obj/chsem.o
                0x080023c0                chSemInit
 .text.chSemWaitS
                0x080023f0       0x60 build/obj/chsem.o
                0x080023f0                chSemWaitS
 .text.chSemWait
                0x08002450       0x10 build/obj/chsem.o
                0x08002450                chSemWait
 .text.chSemWaitTimeoutS
                0x08002460       0x70 build/obj/chsem.o
                0x08002460                chSemWaitTimeoutS
 .text.chSemWaitTimeout
                0x080024d0       0x10 build/obj/chsem.o
                0x080024d0                chSemWaitTimeout
 .text.chSemSignalI
                0x080024e0       0x60 build/obj/chsem.o
                0x080024e0                chSemSignalI
 .text.chMtxInit
                0x08002540       0x20 build/obj/chmtx.o
                0x08002540                chMtxInit
 .text.chMtxLockS
                0x08002560       0xb0 build/obj/chmtx.o
                0x08002560                chMtxLockS
 .text.chMtxLock
                0x08002610       0x10 build/obj/chmtx.o
                0x08002610                chMtxLock
 .text.chMtxUnlock
                0x08002620       0x80 build/obj/chmtx.o
                0x08002620                chMtxUnlock
 .text.chEvtSignalI
                0x080026a0       0x60 build/obj/chevents.o
                0x080026a0                chEvtSignalI
 .text.chEvtBroadcastFlagsI
                0x08002700       0x30 build/obj/chevents.o
                0x08002700                chEvtBroadcastFlagsI
 .text.qwait    0x08002730       0x30 build/obj/chqueues.o
 .text.chIQInit
                0x08002760       0x20 build/obj/chqueues.o
                0x08002760                chIQInit
 .text.chIQPutI
                0x08002780       0x50 build/obj/chqueues.o
                0x08002780                chIQPutI
 .text.chIQGetTimeout
                0x080027d0       0x50 build/obj/chqueues.o
                0x080027d0                chIQGetTimeout
 .text.chIQReadTimeout
                0x08002820       0x90 build/obj/chqueues.o
                0x08002820                chIQReadTimeout
 .text.chOQInit
                0x080028b0       0x20 build/obj/chqueues.o
                0x080028b0                chOQInit
 .text.chOQPutTimeout
                0x080028d0       0x50 build/obj/chqueues.o
                0x080028d0                chOQPutTimeout
 .text.chOQGetI
                0x08002920       0x50 build/obj/chqueues.o
                0x08002920                chOQGetI
 .text.chOQWriteTimeout
                0x08002970       0x80 build/obj/chqueues.o
                0x08002970                chOQWriteTimeout
 .text._core_init
                0x080029f0       0x30 build/obj/chmemcore.o
                0x080029f0                _core_init
 .text.chCoreAlloc
                0x08002a20       0x40 build/obj/chmemcore.o
                0x08002a20                chCoreAlloc
 .text._heap_init
                0x08002a60       0x20 build/obj/chheap.o
                0x08002a60                _heap_init
 .text.chHeapAlloc
                0x08002a80       0x80 build/obj/chheap.o
                0x08002a80                chHeapAlloc
 .text.chHeapFree
                0x08002b00       0xd0 build/obj/chheap.o
                0x08002b00                chHeapFree
 .text.halInit  0x08002bd0       0x30 build/obj/hal.o
                0x08002bd0                halInit
 .text.adcInit  0x08002c00       0x10 build/obj/adc.o
                0x08002c00                adcInit
 .text.adcObjectInit
                0x08002c10       0x20 build/obj/adc.o
                0x08002c10                adcObjectInit
 .text.adcStart
                0x08002c30       0x40 build/obj/adc.o
                0x08002c30                adcStart
 .text.adcStartConversionI
                0x08002c70       0x50 build/obj/adc.o
                0x08002c70                adcStartConversionI
 .text.adcStartConversion
                0x08002cc0       0x20 build/obj/adc.o
                0x08002cc0                adcStartConversion
 .text.adcConvert
                0x08002ce0       0x50 build/obj/adc.o
                0x08002ce0                adcConvert
 .text.icuInit  0x08002d30       0x10 build/obj/icu.o
                0x08002d30                icuInit
 .text.icuObjectInit
                0x08002d40       0x10 build/obj/icu.o
                0x08002d40                icuObjectInit
 .text.icuStart
                0x08002d50       0x40 build/obj/icu.o
                0x08002d50                icuStart
 .text.icuEnable
                0x08002d90       0x40 build/obj/icu.o
                0x08002d90                icuEnable
 .text.palSetBusMode
                0x08002dd0       0x30 build/obj/pal.o
                0x08002dd0                palSetBusMode
 .text.pwmInit  0x08002e00       0x10 build/obj/pwm.o
                0x08002e00                pwmInit
 .text.pwmObjectInit
                0x08002e10       0x10 build/obj/pwm.o
                0x08002e10                pwmObjectInit
 .text.pwmStart
                0x08002e20       0x50 build/obj/pwm.o
                0x08002e20                pwmStart
 .text.pwmEnableChannel
                0x08002e70       0x40 build/obj/pwm.o
                0x08002e70                pwmEnableChannel
 .text.readt    0x08002eb0       0x10 build/obj/serial.o
 .text.read     0x08002ec0       0x10 build/obj/serial.o
 .text.writet   0x08002ed0       0x10 build/obj/serial.o
 .text.write    0x08002ee0       0x10 build/obj/serial.o
 .text.gett     0x08002ef0       0x10 build/obj/serial.o
 .text.get      0x08002f00       0x10 build/obj/serial.o
 .text.putt     0x08002f10       0x10 build/obj/serial.o
 .text.put      0x08002f20       0x10 build/obj/serial.o
 .text.sdInit   0x08002f30       0x10 build/obj/serial.o
                0x08002f30                sdInit
 .text.sdObjectInit
                0x08002f40       0x40 build/obj/serial.o
                0x08002f40                sdObjectInit
 .text.sdStart  0x08002f80       0x40 build/obj/serial.o
                0x08002f80                sdStart
 .text.sdIncomingDataI
                0x08002fc0       0x50 build/obj/serial.o
                0x08002fc0                sdIncomingDataI
 .text.spiInit  0x08003010       0x10 build/obj/spi.o
                0x08003010                spiInit
 .text.spiObjectInit
                0x08003020       0x10 build/obj/spi.o
                0x08003020                spiObjectInit
 .text.spiStart
                0x08003030       0x40 build/obj/spi.o
                0x08003030                spiStart
 .text.spiExchange
                0x08003070       0x80 build/obj/spi.o
                0x08003070                spiExchange
 .text.spiAcquireBus
                0x080030f0       0x30 build/obj/spi.o
                0x080030f0                spiAcquireBus
 .text.spiReleaseBus
                0x08003120       0x20 build/obj/spi.o
                0x08003120                spiReleaseBus
 .text.Vector6C
                0x08003140       0x30 build/obj/stm32_dma.o
                0x08003140                Vector6C
 .text.Vector70
                0x08003170       0x30 build/obj/stm32_dma.o
                0x08003170                Vector70
 .text.Vector74
                0x080031a0       0x30 build/obj/stm32_dma.o
                0x080031a0                Vector74
 .text.Vector78
                0x080031d0       0x30 build/obj/stm32_dma.o
                0x080031d0                Vector78
 .text.Vector7C
                0x08003200       0x30 build/obj/stm32_dma.o
                0x08003200                Vector7C
 .text.Vector80
                0x08003230       0x30 build/obj/stm32_dma.o
                0x08003230                Vector80
 .text.Vector84
                0x08003260       0x30 build/obj/stm32_dma.o
                0x08003260                Vector84
 .text.VectorFC
                0x08003290       0x30 build/obj/stm32_dma.o
                0x08003290                VectorFC
 .text.Vector120
                0x080032c0       0x30 build/obj/stm32_dma.o
                0x080032c0                Vector120
 .text.Vector124
                0x080032f0       0x30 build/obj/stm32_dma.o
                0x080032f0                Vector124
 .text.Vector128
                0x08003320       0x30 build/obj/stm32_dma.o
                0x08003320                Vector128
 .text.Vector12C
                0x08003350       0x30 build/obj/stm32_dma.o
                0x08003350                Vector12C
 .text.Vector130
                0x08003380       0x30 build/obj/stm32_dma.o
                0x08003380                Vector130
 .text.Vector150
                0x080033b0       0x30 build/obj/stm32_dma.o
                0x080033b0                Vector150
 .text.Vector154
                0x080033e0       0x30 build/obj/stm32_dma.o
                0x080033e0                Vector154
 .text.Vector158
                0x08003410       0x30 build/obj/stm32_dma.o
                0x08003410                Vector158
 .text.dmaInit  0x08003440       0x50 build/obj/stm32_dma.o
                0x08003440                dmaInit
 .text.dmaStreamAllocate
                0x08003490       0xc0 build/obj/stm32_dma.o
                0x08003490                dmaStreamAllocate
 .text.hal_lld_init
                0x08003550       0xa0 build/obj/hal_lld.o
                0x08003550                hal_lld_init
 .text.stm32_clock_init
                0x080035f0       0xd0 build/obj/hal_lld.o
                0x080035f0                stm32_clock_init
 .text.adc_lld_init
                0x080036c0       0x60 build/obj/adc_lld.o
                0x080036c0                adc_lld_init
 .text.adc_lld_start
                0x08003720       0xb0 build/obj/adc_lld.o
                0x08003720                adc_lld_start
 .text.adc_lld_start_conversion
                0x080037d0       0x90 build/obj/adc_lld.o
                0x080037d0                adc_lld_start_conversion
 .text.adc_lld_stop_conversion
                0x08003860       0x40 build/obj/adc_lld.o
                0x08003860                adc_lld_stop_conversion
 .text.Vector88
                0x080038a0       0xd0 build/obj/adc_lld.o
                0x080038a0                Vector88
 .text.adc_lld_serve_rx_interrupt
                0x08003970       0xd0 build/obj/adc_lld.o
 .text.adcSTM32EnableTSVREFE
                0x08003a40       0x10 build/obj/adc_lld.o
                0x08003a40                adcSTM32EnableTSVREFE
 .text._pal_lld_init
                0x08003a50      0x1c0 build/obj/pal_lld.o
                0x08003a50                _pal_lld_init
 .text._pal_lld_setgroupmode
                0x08003c10       0xd0 build/obj/pal_lld.o
                0x08003c10                _pal_lld_setgroupmode
 .text.spi_lld_serve_tx_interrupt
                0x08003ce0       0x10 build/obj/spi_lld.o
 .text.spi_lld_serve_rx_interrupt
                0x08003cf0       0x80 build/obj/spi_lld.o
 .text.spi_lld_init
                0x08003d70       0x50 build/obj/spi_lld.o
                0x08003d70                spi_lld_init
 .text.spi_lld_start
                0x08003dc0       0xb0 build/obj/spi_lld.o
                0x08003dc0                spi_lld_start
 .text.spi_lld_exchange
                0x08003e70       0x40 build/obj/spi_lld.o
                0x08003e70                spi_lld_exchange
 .text.Vector108
                0x08003eb0       0x90 build/obj/icu_lld.o
                0x08003eb0                Vector108
 .text.icu_lld_init
                0x08003f40       0x20 build/obj/icu_lld.o
                0x08003f40                icu_lld_init
 .text.icu_lld_start
                0x08003f60       0xf0 build/obj/icu_lld.o
                0x08003f60                icu_lld_start
 .text.icu_lld_enable
                0x08004050       0x60 build/obj/icu_lld.o
                0x08004050                icu_lld_enable
 .text.VectorB4
                0x080040b0       0x70 build/obj/pwm_lld.o
                0x080040b0                VectorB4
 .text.pwm_lld_init
                0x08004120       0x20 build/obj/pwm_lld.o
                0x08004120                pwm_lld_init
 .text.pwm_lld_start
                0x08004140      0x120 build/obj/pwm_lld.o
                0x08004140                pwm_lld_start
 .text.pwm_lld_enable_channel
                0x08004260       0x40 build/obj/pwm_lld.o
                0x08004260                pwm_lld_enable_channel
 .text.notify2  0x080042a0       0x20 build/obj/serial_lld.o
 .text.VectorD8
                0x080042c0      0x100 build/obj/serial_lld.o
                0x080042c0                VectorD8
 .text.sd_lld_init
                0x080043c0       0x20 build/obj/serial_lld.o
                0x080043c0                sd_lld_init
 .text.sd_lld_start
                0x080043e0       0xa0 build/obj/serial_lld.o
                0x080043e0                sd_lld_start
 .text.__early_init
                0x08004480       0x10 build/obj/board.o
                0x08004480                __early_init
 .text.boardInit
                0x08004490       0x10 build/obj/board.o
                0x08004490                boardInit
 .text.gfxInit  0x080044a0       0x40 build/obj/gfx.o
                0x080044a0                gfxInit
 .text._gosInit
                0x080044e0       0x20 build/obj/chibios.o
                0x080044e0                _gosInit
 .text.gfxSleepMilliseconds
                0x08004500       0x30 build/obj/chibios.o
                0x08004500                gfxSleepMilliseconds
 .text.gfxSleepMicroseconds
                0x08004530       0x30 build/obj/chibios.o
                0x08004530                gfxSleepMicroseconds
 .text.gfxSemInit
                0x08004560       0x10 build/obj/chibios.o
                0x08004560                gfxSemInit
 .text.gfxSemWait
                0x08004570       0x40 build/obj/chibios.o
                0x08004570                gfxSemWait
 .text.gfxSemSignal
                0x080045b0       0x20 build/obj/chibios.o
                0x080045b0                gfxSemSignal
 .text.gfxThreadCreate
                0x080045d0       0x30 build/obj/chibios.o
                0x080045d0                gfxThreadCreate
 .text._gqueueInit
                0x08004600       0x10 build/obj/gqueue.o
                0x08004600                _gqueueInit
 .text.gfxQueueASyncInit
                0x08004610       0x10 build/obj/gqueue.o
                0x08004610                gfxQueueASyncInit
 .text.gfxQueueASyncPut
                0x08004620       0x30 build/obj/gqueue.o
                0x08004620                gfxQueueASyncPut
 .text.gfxQueueASyncRemoveI
                0x08004650       0x50 build/obj/gqueue.o
                0x08004650                gfxQueueASyncRemoveI
 .text.gfxQueueASyncRemove
                0x080046a0       0x10 build/obj/gqueue.o
                0x080046a0                gfxQueueASyncRemove
 .text.drawcharglyph
                0x080046b0       0x30 build/obj/gdisp.o
 .text.fillcharglyph
                0x080046e0       0x30 build/obj/gdisp.o
 .text.hline_clip
                0x08004710       0xb0 build/obj/gdisp.o
 .text.drawcharline
                0x080047c0       0x70 build/obj/gdisp.o
 .text.vline_clip
                0x08004830       0xb0 build/obj/gdisp.o
 .text.gdispGDrawLine
                0x080048e0      0x230 build/obj/gdisp.o
                0x080048e0                gdispGDrawLine
 .text.gdispGClear
                0x08004b10       0x30 build/obj/gdisp.o
                0x08004b10                gdispGClear
 .text.gdispGFillArea
                0x08004b40       0xb0 build/obj/gdisp.o
                0x08004b40                gdispGFillArea
 .text.gdispGSetClip
                0x08004bf0       0x80 build/obj/gdisp.o
                0x08004bf0                gdispGSetClip
 .text.gdispGControl
                0x08004c70       0x80 build/obj/gdisp.o
                0x08004c70                gdispGControl
 .text._gdispInit
                0x08004cf0      0x100 build/obj/gdisp.o
                0x08004cf0                _gdispInit
 .text.gdispGDrawBox
                0x08004df0       0xf0 build/obj/gdisp.o
                0x08004df0                gdispGDrawBox
 .text.gdispGDrawChar
                0x08004ee0       0x80 build/obj/gdisp.o
                0x08004ee0                gdispGDrawChar
 .text.gdispGDrawStringBox
                0x08004f60       0xc0 build/obj/gdisp.o
                0x08004f60                gdispGDrawStringBox
 .text.gdispGFillStringBox
                0x08005020      0x170 build/obj/gdisp.o
                0x08005020                gdispGFillStringBox
 .text.gdispGetFontMetric
                0x08005190       0x40 build/obj/gdisp.o
                0x08005190                gdispGetFontMetric
 .text.gdispGetCharWidth
                0x080051d0       0x10 build/obj/gdisp.o
                0x080051d0                gdispGetCharWidth
 .text.gdispGetStringWidth
                0x080051e0       0x20 build/obj/gdisp.o
                0x080051e0                gdispGetStringWidth
 .text.gdispBlendColor
                0x08005200       0x60 build/obj/gdisp.o
                0x08005200                gdispBlendColor
 .text.matchfont
                0x08005260       0x50 build/obj/fonts.o
 .text.gdispOpenFont
                0x080052b0       0x50 build/obj/fonts.o
                0x080052b0                gdispOpenFont
 .text.gdispCloseFont
                0x08005300       0x20 build/obj/fonts.o
                0x08005300                gdispCloseFont
 .text.mf_getchar
                0x08005320       0xa0 build/obj/mf_encoding.o
                0x08005320                mf_getchar
 .text.mf_rewind
                0x080053c0       0x30 build/obj/mf_encoding.o
                0x080053c0                mf_rewind
 .text.mf_render_character
                0x080053f0       0x30 build/obj/mf_font.o
                0x080053f0                mf_render_character
 .text.mf_character_width
                0x08005420       0x20 build/obj/mf_font.o
                0x08005420                mf_character_width
 .text.mf_get_font_list
                0x08005440       0x10 build/obj/mf_font.o
                0x08005440                mf_get_font_list
 .text.mf_round_to_tab
                0x08005450       0x40 build/obj/mf_justify.o
 .text.render_left
                0x08005490       0x60 build/obj/mf_justify.o
 .text.mf_get_string_width
                0x080054f0       0x60 build/obj/mf_justify.o
                0x080054f0                mf_get_string_width
 .text.mf_render_aligned
                0x08005550      0x160 build/obj/mf_justify.o
                0x08005550                mf_render_aligned
 .text.write_pixels
                0x080056b0       0x70 build/obj/mf_rlefont.o
 .text.find_glyph.isra.0
                0x08005720       0x40 build/obj/mf_rlefont.o
 .text.write_ref_codeword
                0x08005760      0x1a0 build/obj/mf_rlefont.o
 .text.mf_rlefont_render_character
                0x08005900       0xd0 build/obj/mf_rlefont.o
                0x08005900                mf_rlefont_render_character
 .text.mf_rlefont_character_width
                0x080059d0       0x20 build/obj/mf_rlefont.o
                0x080059d0                mf_rlefont_character_width
 .text.mf_bwfont_render_character
                0x080059f0      0x1a0 build/obj/mf_bwfont.o
                0x080059f0                mf_bwfont_render_character
 .text.mf_bwfont_character_width
                0x08005b90       0x50 build/obj/mf_bwfont.o
                0x08005b90                mf_bwfont_character_width
 .text.scaled_pixel_callback
                0x08005be0       0x60 build/obj/mf_scaledfont.o
 .text.mf_scaled_character_width
                0x08005c40       0x20 build/obj/mf_scaledfont.o
                0x08005c40                mf_scaled_character_width
 .text.mf_scaled_render_character
                0x08005c60       0x50 build/obj/mf_scaledfont.o
                0x08005c60                mf_scaled_render_character
 .text.deleteAssignments
                0x08005cb0       0x80 build/obj/gevent.o
 .text._geventInit
                0x08005d30       0x10 build/obj/gevent.o
                0x08005d30                _geventInit
 .text.geventListenerInit
                0x08005d40       0x30 build/obj/gevent.o
                0x08005d40                geventListenerInit
 .text.geventAttachSource
                0x08005d70       0xb0 build/obj/gevent.o
                0x08005d70                geventAttachSource
 .text.geventEventWait
                0x08005e20       0x20 build/obj/gevent.o
                0x08005e20                geventEventWait
 .text.geventRegisterCallback
                0x08005e40       0x60 build/obj/gevent.o
                0x08005e40                geventRegisterCallback
 .text.geventGetSourceListener
                0x08005ea0       0x70 build/obj/gevent.o
                0x08005ea0                geventGetSourceListener
 .text.geventGetEventBuffer
                0x08005f10       0x20 build/obj/gevent.o
                0x08005f10                geventGetEventBuffer
 .text.geventSendEvent
                0x08005f30       0x40 build/obj/gevent.o
                0x08005f30                geventSendEvent
 .text.geventDetachSourceListeners
                0x08005f70       0x20 build/obj/gevent.o
                0x08005f70                geventDetachSourceListeners
 .text.GTimerThreadHandler
                0x08005f90       0xd0 build/obj/gtimer.o
 .text._gtimerInit
                0x08006060       0x20 build/obj/gtimer.o
                0x08006060                _gtimerInit
 .text.gtimerInit
                0x08006080       0x10 build/obj/gtimer.o
                0x08006080                gtimerInit
 .text.gtimerStart
                0x08006090      0x110 build/obj/gtimer.o
                0x08006090                gtimerStart
 .text.gtimerStop
                0x080061a0       0x50 build/obj/gtimer.o
                0x080061a0                gtimerStop
 .text._gwinInit
                0x080061f0       0x10 build/obj/gwin.o
                0x080061f0                _gwinInit
 .text._gwindowCreate
                0x08006200       0x90 build/obj/gwin.o
                0x08006200                _gwindowCreate
 .text.gwinSetDefaultColor
                0x08006290       0x10 build/obj/gwin.o
                0x08006290                gwinSetDefaultColor
 .text.gwinSetDefaultBgColor
                0x080062a0       0x10 build/obj/gwin.o
                0x080062a0                gwinSetDefaultBgColor
 .text.gwinGetDefaultBgColor
                0x080062b0       0x10 build/obj/gwin.o
                0x080062b0                gwinGetDefaultBgColor
 .text.gwinSetDefaultFont
                0x080062c0       0x10 build/obj/gwin.o
                0x080062c0                gwinSetDefaultFont
 .text.gwinGetDefaultFont
                0x080062d0       0x10 build/obj/gwin.o
                0x080062d0                gwinGetDefaultFont
 .text.gwinSetVisible
                0x080062e0       0x40 build/obj/gwin.o
                0x080062e0                gwinSetVisible
 .text.gwinGetVisible
                0x08006320       0x10 build/obj/gwin.o
                0x08006320                gwinGetVisible
 .text.gwinResize
                0x08006330       0x20 build/obj/gwin.o
                0x08006330                gwinResize
 .text.gwinRedraw
                0x08006350       0x20 build/obj/gwin.o
                0x08006350                gwinRedraw
 .text._gwidgetCreate
                0x08006370       0x50 build/obj/gwidget.o
                0x08006370                _gwidgetCreate
 .text.gwidgetEvent
                0x080063c0       0xf0 build/obj/gwidget.o
 .text._gwidgetUpdate.part.1
                0x080064b0       0x30 build/obj/gwidget.o
 .text._gwidgetInit
                0x080064e0       0x20 build/obj/gwidget.o
                0x080064e0                _gwidgetInit
 .text._gwidgetDestroy
                0x08006500       0x20 build/obj/gwidget.o
                0x08006500                _gwidgetDestroy
 .text._gwidgetRedraw
                0x08006520       0x10 build/obj/gwidget.o
                0x08006520                _gwidgetRedraw
 .text._gwidgetUpdate
                0x08006530       0x10 build/obj/gwidget.o
                0x08006530                _gwidgetUpdate
 .text.gwinSetText
                0x08006540       0x70 build/obj/gwidget.o
                0x08006540                gwinSetText
 .text.gwinGetText
                0x080065b0       0x10 build/obj/gwidget.o
                0x080065b0                gwinGetText
 .text.gwinSetStyle
                0x080065c0       0x30 build/obj/gwidget.o
                0x080065c0                gwinSetStyle
 .text.gwinSetDefaultStyle
                0x080065f0       0x60 build/obj/gwidget.o
                0x080065f0                gwinSetDefaultStyle
 .text.gwinAttachListener
                0x08006650       0x10 build/obj/gwidget.o
                0x08006650                gwinAttachListener
 .text.gwinAttachMouse
                0x08006660       0x20 build/obj/gwidget.o
                0x08006660                gwinAttachMouse
 .text._gwinRedrawDisplay
                0x08006680       0x50 build/obj/gwm.o
 .text.WM_Init  0x080066d0       0x10 build/obj/gwm.o
 .text.WM_DeInit
                0x080066e0       0x10 build/obj/gwm.o
 .text.WM_MinMax
                0x080066f0       0x10 build/obj/gwm.o
 .text.WM_Delete
                0x08006700       0x10 build/obj/gwm.o
 .text.WM_Redraw
                0x08006710       0xe0 build/obj/gwm.o
 .text.WM_Raise
                0x080067f0       0x30 build/obj/gwm.o
 .text.WM_Move  0x08006820       0x90 build/obj/gwm.o
 .text.WM_Size  0x080068b0       0xa0 build/obj/gwm.o
 .text.WM_Add   0x08006950       0x40 build/obj/gwm.o
 .text._gwmInit
                0x08006990       0x50 build/obj/gwm.o
                0x08006990                _gwmInit
 .text.gwinGetNextWindow
                0x080069e0       0x10 build/obj/gwm.o
                0x080069e0                gwinGetNextWindow
 .text.AfterClear
                0x080069f0       0x10 build/obj/console.o
 .text.ltoa_wd.constprop.1
                0x08006a00       0x50 build/obj/console.o
 .text.gwinPutChar
                0x08006a50      0x150 build/obj/console.o
                0x08006a50                gwinPutChar
 .text.gwinPrintf
                0x08006ba0      0x270 build/obj/console.o
                0x08006ba0                gwinPrintf
 .text.MouseDown
                0x08006e10       0x10 build/obj/button.o
 .text.MouseUp  0x08006e20       0x40 build/obj/button.o
 .text.gwinButtonDraw_Normal
                0x08006e60      0x130 build/obj/button.o
                0x08006e60                gwinButtonDraw_Normal
 .text.gwinGButtonCreate
                0x08006f90       0x20 build/obj/button.o
                0x08006f90                gwinGButtonCreate
 .text.ResetDisplayPos
                0x08006fb0       0x50 build/obj/slider.o
 .text.MouseMove
                0x08007000       0x50 build/obj/slider.o
 .text.MouseUp  0x08007050       0xd0 build/obj/slider.o
 .text.gwinSliderDraw_Std
                0x08007120      0x240 build/obj/slider.o
                0x08007120                gwinSliderDraw_Std
 .text.gwinGSliderCreate
                0x08007360       0x30 build/obj/slider.o
                0x08007360                gwinGSliderCreate
 .text.gwinSliderSetRange
                0x08007390       0x30 build/obj/slider.o
                0x08007390                gwinSliderSetRange
 .text.gwinSliderSetPosition
                0x080073c0       0x50 build/obj/slider.o
                0x080073c0                gwinSliderSetPosition
 .text.gwinLabelDefaultDraw
                0x08007410       0xc0 build/obj/label.o
 .text.gwinGLabelCreate
                0x080074d0       0x70 build/obj/label.o
                0x080074d0                gwinGLabelCreate
 .text._ginputInit
                0x08007540       0x10 build/obj/ginput.o
                0x08007540                _ginputInit
 .text.get_raw_reading.constprop.1
                0x08007550       0x60 build/obj/mouse.o
 .text._tsOrientClip
                0x080075b0       0x90 build/obj/mouse.o
                0x080075b0                _tsOrientClip
 .text.get_calibrated_reading.constprop.0
                0x08007640       0x90 build/obj/mouse.o
 .text.MousePoll
                0x080076d0      0x1b0 build/obj/mouse.o
 .text.ginputCalibrateMouse
                0x08007880      0x6d0 build/obj/mouse.o
                0x08007880                ginputCalibrateMouse
 .text.ginputGetMouse
                0x08007f50       0xe0 build/obj/mouse.o
                0x08007f50                ginputGetMouse
 .text.ginputSetMouseCalibrationRoutines
                0x08008030       0x50 build/obj/mouse.o
                0x08008030                ginputSetMouseCalibrationRoutines
 .text.ROMClose
                0x08008080       0x10 build/obj/gfile.o
 .text.ROMSetpos
                0x08008090       0x10 build/obj/gfile.o
 .text.ROMGetsize
                0x080080a0       0x10 build/obj/gfile.o
 .text.ROMEof   0x080080b0       0x10 build/obj/gfile.o
 .text.mode2flags
                0x080080c0       0x90 build/obj/gfile.o
 .text.ROMRead  0x08008150       0x30 build/obj/gfile.o
 .text.ROMFindFile
                0x08008180       0x30 build/obj/gfile.o
 .text.ROMOpen  0x080081b0       0x20 build/obj/gfile.o
 .text.ROMFilesize
                0x080081d0       0x20 build/obj/gfile.o
 .text.ROMExists
                0x080081f0       0x10 build/obj/gfile.o
 .text.testopen
                0x08008200       0x40 build/obj/gfile.o
 .text.gfileOpen
                0x08008240       0x80 build/obj/gfile.o
                0x08008240                gfileOpen
 .text.gfileClose
                0x080082c0       0x20 build/obj/gfile.o
                0x080082c0                gfileClose
 .text.gfileRead
                0x080082e0       0x30 build/obj/gfile.o
                0x080082e0                gfileRead
 .text.gfileWrite
                0x08008310       0x30 build/obj/gfile.o
                0x08008310                gfileWrite
 .text.set_cursor
                0x08008340       0xb0 build/obj/gdisp_lld_SSD1289.o
 .text.set_viewport
                0x080083f0      0x130 build/obj/gdisp_lld_SSD1289.o
 .text.gdisp_lld_init
                0x08008520      0x370 build/obj/gdisp_lld_SSD1289.o
                0x08008520                gdisp_lld_init
 .text.gdisp_lld_write_start
                0x08008890       0x10 build/obj/gdisp_lld_SSD1289.o
                0x08008890                gdisp_lld_write_start
 .text.gdisp_lld_write_color
                0x080088a0       0x10 build/obj/gdisp_lld_SSD1289.o
                0x080088a0                gdisp_lld_write_color
 .text.gdisp_lld_write_stop
                0x080088b0       0x10 build/obj/gdisp_lld_SSD1289.o
                0x080088b0                gdisp_lld_write_stop
 .text.gdisp_lld_write_pos
                0x080088c0       0x10 build/obj/gdisp_lld_SSD1289.o
                0x080088c0                gdisp_lld_write_pos
 .text.gdisp_lld_fill_area
                0x080088d0       0x80 build/obj/gdisp_lld_SSD1289.o
                0x080088d0                gdisp_lld_fill_area
 .text.gdisp_lld_control
                0x08008950      0x120 build/obj/gdisp_lld_SSD1289.o
                0x08008950                gdisp_lld_control
 .text.ginput_lld_mouse_init
                0x08008a70       0x60 build/obj/ginput_lld_mouse.o
                0x08008a70                ginput_lld_mouse_init
 .text.ginput_lld_mouse_get_reading
                0x08008ad0      0x180 build/obj/ginput_lld_mouse.o
                0x08008ad0                ginput_lld_mouse_get_reading
 .text._sbrk_r  0x08008c50       0x30 build/obj/syscalls.o
                0x08008c50                _sbrk_r
 .text.long_to_string_with_divisor.constprop.0
                0x08008c80       0x50 build/obj/chprintf.o
 .text.chvprintf
                0x08008cd0      0x240 build/obj/chprintf.o
                0x08008cd0                chvprintf
 .text.icuwidthcb
                0x08008f10       0x20 build/obj/main.o
 .text.icuperiodcb
                0x08008f30       0x20 build/obj/main.o
 .text.adcerrorcallback
                0x08008f50       0x10 build/obj/main.o
 .text.Thread1  0x08008f60       0x60 build/obj/main.o
 .text.myload   0x08008fc0       0x50 build/obj/main.o
 .text.chprintf.constprop.0
                0x08009010       0x30 build/obj/main.o
 .text.mysave   0x08009040       0x60 build/obj/main.o
 .text.ICUinit  0x080090a0       0x40 build/obj/main.o
                0x080090a0                ICUinit
 .text.myADCinit
                0x080090e0       0x30 build/obj/main.o
                0x080090e0                myADCinit
 .text.readADC  0x08009110       0xe0 build/obj/main.o
                0x08009110                readADC
 .text.readVoltage
                0x080091f0       0xc0 build/obj/main.o
                0x080091f0                readVoltage
 .text.readICU  0x080092b0       0x50 build/obj/main.o
                0x080092b0                readICU
 .text.Thread2  0x08009300       0x70 build/obj/main.o
 .text.memset   0x08009370       0x94 /opt/ARM/bin/../lib/gcc/arm-none-eabi/4.8.4/../../../../arm-none-eabi/lib/armv7e-m/fpu/libg.a(lib_a-memset.o)
                0x08009370                memset
 *fill*         0x08009404        0xc 
 .text.sprintf  0x08009410       0x4c /opt/ARM/bin/../lib/gcc/arm-none-eabi/4.8.4/../../../../arm-none-eabi/lib/armv7e-m/fpu/libg.a(lib_a-sprintf.o)
                0x08009410                sprintf
 *fill*         0x0800945c        0x4 
 .text.strcpy   0x08009460       0xbc /opt/ARM/bin/../lib/gcc/arm-none-eabi/4.8.4/../../../../arm-none-eabi/lib/armv7e-m/fpu/libg.a(lib_a-strcpy.o)
                0x08009460                strcpy
 *fill*         0x0800951c        0x4 
 .text.strlen   0x08009520       0x60 /opt/ARM/bin/../lib/gcc/arm-none-eabi/4.8.4/../../../../arm-none-eabi/lib/armv7e-m/fpu/libg.a(lib_a-strlen.o)
                0x08009520                strlen
 .text.strncat  0x08009580       0x64 /opt/ARM/bin/../lib/gcc/arm-none-eabi/4.8.4/../../../../arm-none-eabi/lib/armv7e-m/fpu/libg.a(lib_a-strncat.o)
                0x08009580                strncat
 *fill*         0x080095e4        0xc 
 .text._svfprintf_r
                0x080095f0     0x14f0 /opt/ARM/bin/../lib/gcc/arm-none-eabi/4.8.4/../../../../arm-none-eabi/lib/armv7e-m/fpu/libg.a(lib_a-svfprintf.o)
                0x080095f0                _svfprintf_r
 .text.quorem   0x0800aae0      0x130 /opt/ARM/bin/../lib/gcc/arm-none-eabi/4.8.4/../../../../arm-none-eabi/lib/armv7e-m/fpu/libg.a(lib_a-dtoa.o)
 .text._dtoa_r  0x0800ac10      0xe58 /opt/ARM/bin/../lib/gcc/arm-none-eabi/4.8.4/../../../../arm-none-eabi/lib/armv7e-m/fpu/libg.a(lib_a-dtoa.o)
                0x0800ac10                _dtoa_r
 *fill*         0x0800ba68        0x8 
 .text._localeconv_r
                0x0800ba70        0x8 /opt/ARM/bin/../lib/gcc/arm-none-eabi/4.8.4/../../../../arm-none-eabi/lib/armv7e-m/fpu/libg.a(lib_a-locale.o)
                0x0800ba70                _localeconv_r
 *fill*         0x0800ba78        0x8 
 .text._malloc_r
                0x0800ba80      0x538 /opt/ARM/bin/../lib/gcc/arm-none-eabi/4.8.4/../../../../arm-none-eabi/lib/armv7e-m/fpu/libg.a(lib_a-mallocr.o)
                0x0800ba80                _malloc_r
 *fill*         0x0800bfb8        0x8 
 .text.memchr   0x0800bfc0       0x90 /opt/ARM/bin/../lib/gcc/arm-none-eabi/4.8.4/../../../../arm-none-eabi/lib/armv7e-m/fpu/libg.a(lib_a-memchr-stub.o)
                0x0800bfc0                memchr
 .text.__malloc_lock
                0x0800c050        0x4 /opt/ARM/bin/../lib/gcc/arm-none-eabi/4.8.4/../../../../arm-none-eabi/lib/armv7e-m/fpu/libg.a(lib_a-mlock.o)
                0x0800c050                __malloc_lock
 *fill*         0x0800c054        0xc 
 .text.__malloc_unlock
                0x0800c060        0x4 /opt/ARM/bin/../lib/gcc/arm-none-eabi/4.8.4/../../../../arm-none-eabi/lib/armv7e-m/fpu/libg.a(lib_a-mlock.o)
                0x0800c060                __malloc_unlock
 *fill*         0x0800c064        0xc 
 .text._Balloc  0x0800c070       0x4c /opt/ARM/bin/../lib/gcc/arm-none-eabi/4.8.4/../../../../arm-none-eabi/lib/armv7e-m/fpu/libg.a(lib_a-mprec.o)
                0x0800c070                _Balloc
 *fill*         0x0800c0bc        0x4 
 .text._Bfree   0x0800c0c0       0x14 /opt/ARM/bin/../lib/gcc/arm-none-eabi/4.8.4/../../../../arm-none-eabi/lib/armv7e-m/fpu/libg.a(lib_a-mprec.o)
                0x0800c0c0                _Bfree
 *fill*         0x0800c0d4        0xc 
 .text.__multadd
                0x0800c0e0       0x98 /opt/ARM/bin/../lib/gcc/arm-none-eabi/4.8.4/../../../../arm-none-eabi/lib/armv7e-m/fpu/libg.a(lib_a-mprec.o)
                0x0800c0e0                __multadd
 *fill*         0x0800c178        0x8 
 .text.__hi0bits
                0x0800c180       0x40 /opt/ARM/bin/../lib/gcc/arm-none-eabi/4.8.4/../../../../arm-none-eabi/lib/armv7e-m/fpu/libg.a(lib_a-mprec.o)
                0x0800c180                __hi0bits
 .text.__lo0bits
                0x0800c1c0       0x5c /opt/ARM/bin/../lib/gcc/arm-none-eabi/4.8.4/../../../../arm-none-eabi/lib/armv7e-m/fpu/libg.a(lib_a-mprec.o)
                0x0800c1c0                __lo0bits
 *fill*         0x0800c21c        0x4 
 .text.__i2b    0x0800c220       0x14 /opt/ARM/bin/../lib/gcc/arm-none-eabi/4.8.4/../../../../arm-none-eabi/lib/armv7e-m/fpu/libg.a(lib_a-mprec.o)
                0x0800c220                __i2b
 *fill*         0x0800c234        0xc 
 .text.__multiply
                0x0800c240      0x13c /opt/ARM/bin/../lib/gcc/arm-none-eabi/4.8.4/../../../../arm-none-eabi/lib/armv7e-m/fpu/libg.a(lib_a-mprec.o)
                0x0800c240                __multiply
 *fill*         0x0800c37c        0x4 
 .text.__pow5mult
                0x0800c380       0x9c /opt/ARM/bin/../lib/gcc/arm-none-eabi/4.8.4/../../../../arm-none-eabi/lib/armv7e-m/fpu/libg.a(lib_a-mprec.o)
                0x0800c380                __pow5mult
 *fill*         0x0800c41c        0x4 
 .text.__lshift
                0x0800c420       0xbc /opt/ARM/bin/../lib/gcc/arm-none-eabi/4.8.4/../../../../arm-none-eabi/lib/armv7e-m/fpu/libg.a(lib_a-mprec.o)
                0x0800c420                __lshift
 *fill*         0x0800c4dc        0x4 
 .text.__mcmp   0x0800c4e0       0x48 /opt/ARM/bin/../lib/gcc/arm-none-eabi/4.8.4/../../../../arm-none-eabi/lib/armv7e-m/fpu/libg.a(lib_a-mprec.o)
                0x0800c4e0                __mcmp
 *fill*         0x0800c528        0x8 
 .text.__mdiff  0x0800c530       0xd4 /opt/ARM/bin/../lib/gcc/arm-none-eabi/4.8.4/../../../../arm-none-eabi/lib/armv7e-m/fpu/libg.a(lib_a-mprec.o)
                0x0800c530                __mdiff
 *fill*         0x0800c604        0xc 
 .text.__d2b    0x0800c610       0xb4 /opt/ARM/bin/../lib/gcc/arm-none-eabi/4.8.4/../../../../arm-none-eabi/lib/armv7e-m/fpu/libg.a(lib_a-mprec.o)
                0x0800c610                __d2b
 *fill*         0x0800c6c4        0xc 
 .text.__fpclassifyd
                0x0800c6d0       0x54 /opt/ARM/bin/../lib/gcc/arm-none-eabi/4.8.4/../../../../arm-none-eabi/lib/armv7e-m/fpu/libg.a(lib_a-s_fpclassify.o)
                0x0800c6d0                __fpclassifyd
 *fill*         0x0800c724        0xc 
 .text.__ssprint_r
                0x0800c730      0x100 /opt/ARM/bin/../lib/gcc/arm-none-eabi/4.8.4/../../../../arm-none-eabi/lib/armv7e-m/fpu/libg.a(lib_a-svfiprintf.o)
                0x0800c730                __ssprint_r
 .text._calloc_r
                0x0800c830       0x60 /opt/ARM/bin/../lib/gcc/arm-none-eabi/4.8.4/../../../../arm-none-eabi/lib/armv7e-m/fpu/libg.a(lib_a-callocr.o)
                0x0800c830                _calloc_r
 .text._malloc_trim_r
                0x0800c890       0x9c /opt/ARM/bin/../lib/gcc/arm-none-eabi/4.8.4/../../../../arm-none-eabi/lib/armv7e-m/fpu/libg.a(lib_a-freer.o)
                0x0800c890                _malloc_trim_r
 *fill*         0x0800c92c        0x4 
 .text._free_r  0x0800c930      0x19c /opt/ARM/bin/../lib/gcc/arm-none-eabi/4.8.4/../../../../arm-none-eabi/lib/armv7e-m/fpu/libg.a(lib_a-freer.o)
                0x0800c930                _free_r
 *fill*         0x0800cacc        0x4 
 .text.memmove  0x0800cad0       0xc0 /opt/ARM/bin/../lib/gcc/arm-none-eabi/4.8.4/../../../../arm-none-eabi/lib/armv7e-m/fpu/libg.a(lib_a-memmove.o)
                0x0800cad0                memmove
 .text._realloc_r
                0x0800cb90      0x3cc /opt/ARM/bin/../lib/gcc/arm-none-eabi/4.8.4/../../../../arm-none-eabi/lib/armv7e-m/fpu/libg.a(lib_a-reallocr.o)
                0x0800cb90                _realloc_r
 *(.rodata)
 *fill*         0x0800cf5c        0x4 
 .rodata        0x0800cf60       0x18 build/obj/gdisp_lld_SSD1289.o
 *(.rodata.*)
 *fill*         0x0800cf78        0x8 
 .rodata.str1.4
                0x0800cf80        0x5 build/obj/chsys.o
                                  0x8 (size before relaxing)
 *fill*         0x0800cf85        0xb 
 .rodata.str1.4
                0x0800cf90       0x31 build/obj/chvt.o
                                 0x34 (size before relaxing)
 *fill*         0x0800cfc1        0xf 
 .rodata.str1.4
                0x0800cfd0       0x23 build/obj/chschd.o
                                 0x24 (size before relaxing)
 *fill*         0x0800cff3        0xd 
 .rodata.str1.4
                0x0800d000       0x94 build/obj/chthreads.o
 *fill*         0x0800d094        0xc 
 .rodata.ch_debug
                0x0800d0a0       0x18 build/obj/chregistry.o
                0x0800d0a0                ch_debug
 *fill*         0x0800d0b8        0x8 
 .rodata.str1.4
                0x0800d0c0      0x146 build/obj/chsem.o
                                0x148 (size before relaxing)
 *fill*         0x0800d206        0xa 
 .rodata.str1.4
                0x0800d210       0xab build/obj/chmtx.o
                                 0xac (size before relaxing)
 *fill*         0x0800d2bb        0x5 
 .rodata.str1.4
                0x0800d2c0       0x90 build/obj/chevents.o
 .rodata.str1.4
                0x0800d350       0x29 build/obj/chqueues.o
                                 0x2c (size before relaxing)
 *fill*         0x0800d379        0x7 
 .rodata.str1.4
                0x0800d380       0x31 build/obj/chheap.o
                                 0x34 (size before relaxing)
 *fill*         0x0800d3b1        0xf 
 .rodata.str1.4
                0x0800d3c0      0x10e build/obj/adc.o
                                0x110 (size before relaxing)
 *fill*         0x0800d4ce        0x2 
 .rodata.str1.4
                0x0800d4d0       0x7d build/obj/icu.o
                                 0x80 (size before relaxing)
 *fill*         0x0800d54d        0x3 
 .rodata.str1.4
                0x0800d550       0x32 build/obj/pal.o
                                 0x34 (size before relaxing)
 *fill*         0x0800d582        0xe 
 .rodata.str1.4
                0x0800d590       0xb0 build/obj/pwm.o
 .rodata.str1.4
                0x0800d640       0x5f build/obj/serial.o
                                 0x60 (size before relaxing)
 *fill*         0x0800d69f        0x1 
 .rodata.vmt    0x0800d6a0       0x20 build/obj/serial.o
 .rodata.str1.4
                0x0800d6c0      0x236 build/obj/spi.o
                                0x238 (size before relaxing)
 *fill*         0x0800d8f6        0xa 
 .rodata.str1.4
                0x0800d900       0x47 build/obj/stm32_dma.o
                                 0x48 (size before relaxing)
 *fill*         0x0800d947        0x9 
 .rodata._stm32_dma_streams
                0x0800d950       0xc0 build/obj/stm32_dma.o
                0x0800d950                _stm32_dma_streams
 .rodata.str1.4
                0x0800da10       0x28 build/obj/adc_lld.o
 *fill*         0x0800da38        0x8 
 .rodata.str1.4
                0x0800da40       0x28 build/obj/spi_lld.o
 *fill*         0x0800da68        0x8 
 .rodata.str1.4
                0x0800da70       0x14 build/obj/icu_lld.o
 *fill*         0x0800da84        0xc 
 .rodata.str1.4
                0x0800da90       0x14 build/obj/pwm_lld.o
 *fill*         0x0800daa4        0xc 
 .rodata.default_config
                0x0800dab0        0xc build/obj/serial_lld.o
 *fill*         0x0800dabc        0x4 
 .rodata.pal_default_config
                0x0800dac0       0xfc build/obj/board.o
                0x0800dac0                pal_default_config
 *fill*         0x0800dbbc        0x4 
 .rodata.blks.7903
                0x0800dbc0       0x80 build/obj/gdisp.o
 .rodata.mf_rlefont_UI1_Narrow_listentry
                0x0800dc40        0x8 build/obj/mf_font.o
 *fill*         0x0800dc48        0x8 
 .rodata.mf_rlefont_UI1_listentry
                0x0800dc50        0x8 build/obj/mf_font.o
 *fill*         0x0800dc58        0x8 
 .rodata.mf_bwfont_fixed_5x8_char_ranges
                0x0800dc60       0x18 build/obj/mf_font.o
 *fill*         0x0800dc78        0x8 
 .rodata.mf_rlefont_UI1_Double
                0x0800dc80       0x24 build/obj/mf_font.o
                0x0800dc80                mf_rlefont_UI1_Double
 *fill*         0x0800dca4        0xc 
 .rodata.mf_rlefont_UI2_char_ranges
                0x0800dcb0        0xc build/obj/mf_font.o
 *fill*         0x0800dcbc        0x4 
 .rodata.mf_rlefont_UI1_glyph_data_0
                0x0800dcc0        0x4 build/obj/mf_font.o
 *fill*         0x0800dcc4        0xc 
 .rodata.mf_rlefont_UI1_dictionary_offsets
                0x0800dcd0       0xd8 build/obj/mf_font.o
 *fill*         0x0800dda8        0x8 
 .rodata.mf_rlefont_UI2_dictionary_offsets
                0x0800ddb0       0x7c build/obj/mf_font.o
 *fill*         0x0800de2c        0x4 
 .rodata.mf_rlefont_UI1
                0x0800de30       0x30 build/obj/mf_font.o
                0x0800de30                mf_rlefont_UI1
 .rodata.mf_rlefont_UI2
                0x0800de60       0x30 build/obj/mf_font.o
                0x0800de60                mf_rlefont_UI2
 .rodata.mf_rlefont_LargeNumbers_glyph_data_0
                0x0800de90      0x278 build/obj/mf_font.o
 *fill*         0x0800e108        0x8 
 .rodata.mf_rlefont_LargeNumbers_char_ranges
                0x0800e110        0xc build/obj/mf_font.o
 *fill*         0x0800e11c        0x4 
 .rodata.mf_rlefont_UI2_listentry
                0x0800e120        0x8 build/obj/mf_font.o
 *fill*         0x0800e128        0x8 
 .rodata.mf_rlefont_UI1_glyph_data_1
                0x0800e130      0x314 build/obj/mf_font.o
 *fill*         0x0800e444        0xc 
 .rodata.mf_rlefont_UI1_glyph_data_2
                0x0800e450      0x314 build/obj/mf_font.o
 *fill*         0x0800e764        0xc 
 .rodata.mf_rlefont_UI2_glyph_data_0
                0x0800e770      0x338 build/obj/mf_font.o
 *fill*         0x0800eaa8        0x8 
 .rodata.mf_rlefont_UI2_Double_listentry
                0x0800eab0        0x8 build/obj/mf_font.o
 *fill*         0x0800eab8        0x8 
 .rodata.mf_rlefont_UI1_dictionary_data
                0x0800eac0      0x11c build/obj/mf_font.o
 *fill*         0x0800ebdc        0x4 
 .rodata.mf_rlefont_LargeNumbers
                0x0800ebe0       0x30 build/obj/mf_font.o
                0x0800ebe0                mf_rlefont_LargeNumbers
 .rodata.str1.4
                0x0800ec10       0x9e build/obj/mf_font.o
                                 0xa0 (size before relaxing)
 *fill*         0x0800ecae        0x2 
 .rodata.mf_rlefont_UI1_glyph_offsets_0
                0x0800ecb0        0x4 build/obj/mf_font.o
 *fill*         0x0800ecb4        0xc 
 .rodata.mf_rlefont_UI1_glyph_offsets_1
                0x0800ecc0       0xc8 build/obj/mf_font.o
 *fill*         0x0800ed88        0x8 
 .rodata.mf_rlefont_UI1_glyph_offsets_2
                0x0800ed90       0xd8 build/obj/mf_font.o
 *fill*         0x0800ee68        0x8 
 .rodata.mf_rlefont_UI2_Narrow
                0x0800ee70       0x24 build/obj/mf_font.o
                0x0800ee70                mf_rlefont_UI2_Narrow
 *fill*         0x0800ee94        0xc 
 .rodata.mf_rlefont_UI1_char_ranges
                0x0800eea0       0x24 build/obj/mf_font.o
 *fill*         0x0800eec4        0xc 
 .rodata.mf_rlefont_UI2_Double
                0x0800eed0       0x24 build/obj/mf_font.o
                0x0800eed0                mf_rlefont_UI2_Double
 *fill*         0x0800eef4        0xc 
 .rodata.mf_rlefont_UI2_Narrow_listentry
                0x0800ef00        0x8 build/obj/mf_font.o
 *fill*         0x0800ef08        0x8 
 .rodata.mf_rlefont_LargeNumbers_dictionary_data
                0x0800ef10       0x90 build/obj/mf_font.o
 .rodata.mf_rlefont_UI1_Double_listentry
                0x0800efa0        0x8 build/obj/mf_font.o
 *fill*         0x0800efa8        0x8 
 .rodata.mf_bwfont_fixed_5x8_glyph_data_0
                0x0800efb0      0x1dc build/obj/mf_font.o
 *fill*         0x0800f18c        0x4 
 .rodata.mf_rlefont_UI2_dictionary_data
                0x0800f190       0xa0 build/obj/mf_font.o
 .rodata.mf_rlefont_LargeNumbers_glyph_offsets_0
                0x0800f230       0x34 build/obj/mf_font.o
 *fill*         0x0800f264        0xc 
 .rodata.mf_rlefont_LargeNumbers_listentry
                0x0800f270        0x8 build/obj/mf_font.o
 *fill*         0x0800f278        0x8 
 .rodata.mf_rlefont_LargeNumbers_dictionary_offsets
                0x0800f280       0x70 build/obj/mf_font.o
 .rodata.mf_rlefont_UI2_glyph_offsets_0
                0x0800f2f0       0xc0 build/obj/mf_font.o
 .rodata.mf_rlefont_UI1_Narrow
                0x0800f3b0       0x24 build/obj/mf_font.o
                0x0800f3b0                mf_rlefont_UI1_Narrow
 *fill*         0x0800f3d4        0xc 
 .rodata.mf_bwfont_fixed_5x8
                0x0800f3e0       0x24 build/obj/mf_font.o
                0x0800f3e0                mf_bwfont_fixed_5x8
 *fill*         0x0800f404        0xc 
 .rodata.mf_bwfont_fixed_5x8_listentry
                0x0800f410        0x8 build/obj/mf_font.o
 *fill*         0x0800f418        0x8 
 .rodata.BlackWidgetStyle
                0x0800f420       0x1c build/obj/gwidget.o
                0x0800f420                BlackWidgetStyle
 *fill*         0x0800f43c        0x4 
 .rodata.WhiteWidgetStyle
                0x0800f440       0x1c build/obj/gwidget.o
                0x0800f440                WhiteWidgetStyle
 .rodata.str1.4
                0x00000000       0x9e build/obj/gwidget.o
                                  0x4 (size before relaxing)
 *fill*         0x0800f45c        0x4 
 .rodata.GNullWindowManagerVMT
                0x0800f460       0x24 build/obj/gwm.o
 *fill*         0x0800f484        0xc 
 .rodata.GNullWindowManager
                0x0800f490        0x4 build/obj/gwm.o
 *fill*         0x0800f494        0xc 
 .rodata.str1.4
                0x0800f4a0       0x10 build/obj/console.o
 .rodata.consoleVMT
                0x0800f4b0       0x14 build/obj/console.o
 *fill*         0x0800f4c4        0xc 
 .rodata.buttonVMT
                0x0800f4d0       0x24 build/obj/button.o
 *fill*         0x0800f4f4        0xc 
 .rodata.str1.4
                0x0800f500        0x7 build/obj/button.o
                                  0x8 (size before relaxing)
 *fill*         0x0800f507        0x9 
 .rodata.str1.4
                0x0800f510        0x7 build/obj/slider.o
                                  0x8 (size before relaxing)
 *fill*         0x0800f517        0x9 
 .rodata.sliderVMT
                0x0800f520       0x24 build/obj/slider.o
 *fill*         0x0800f544        0xc 
 .rodata.labelVMT
                0x0800f550       0x24 build/obj/label.o
 *fill*         0x0800f574        0xc 
 .rodata.str1.4
                0x0800f580        0x6 build/obj/label.o
                                  0x8 (size before relaxing)
 *fill*         0x0800f586        0xa 
 .rodata.str1.4
                0x0800f590       0x63 build/obj/mouse.o
                                 0x64 (size before relaxing)
 *fill*         0x0800f5f3        0xd 
 .rodata.FsROMVMT
                0x0800f600       0x34 build/obj/gfile.o
 *fill*         0x0800f634        0xc 
 .rodata.str1.4
                0x0800f640        0x9 build/obj/gfile.o
                                  0xc (size before relaxing)
 *fill*         0x0800f649        0x7 
 .rodata.uGFX_dir
                0x0800f650       0x14 build/obj/gfile.o
 *fill*         0x0800f664        0xc 
 .rodata.uGFX   0x0800f670     0xe68c build/obj/gfile.o
 *fill*         0x0801dcfc        0x4 
 .rodata.pwmcfg
                0x0801dd00       0x34 build/obj/gdisp_lld_SSD1289.o
 *fill*         0x0801dd34        0xc 
 .rodata.spicfg
                0x0801dd40        0xc build/obj/ginput_lld_mouse.o
 *fill*         0x0801dd4c        0x4 
 .rodata.str1.4
                0x0801dd50        0xc build/obj/syscalls.o
 .rodata.str1.4
                0x00000000        0x8 build/obj/chprintf.o
 *fill*         0x0801dd5c        0x4 
 .rodata.adcgrpcfg1
                0x0801dd60       0x28 build/obj/main.o
 *fill*         0x0801dd88        0x8 
 .rodata.adcgrpcfg2
                0x0801dd90       0x28 build/obj/main.o
 *fill*         0x0801ddb8        0x8 
 .rodata.str1.4
                0x0801ddc0      0x1a5 build/obj/main.o
                                0x1bc (size before relaxing)
 *fill*         0x0801df65        0xb 
 .rodata.zeroes.6763
                0x0801df70       0x10 /opt/ARM/bin/../lib/gcc/arm-none-eabi/4.8.4/../../../../arm-none-eabi/lib/armv7e-m/fpu/libg.a(lib_a-svfprintf.o)
 .rodata.str1.4
                0x0801df80       0x3a /opt/ARM/bin/../lib/gcc/arm-none-eabi/4.8.4/../../../../arm-none-eabi/lib/armv7e-m/fpu/libg.a(lib_a-svfprintf.o)
                                 0x44 (size before relaxing)
 *fill*         0x0801dfba        0x6 
 .rodata.blanks.6762
                0x0801dfc0       0x10 /opt/ARM/bin/../lib/gcc/arm-none-eabi/4.8.4/../../../../arm-none-eabi/lib/armv7e-m/fpu/libg.a(lib_a-svfprintf.o)
 .rodata.str1.4
                0x0801dfd0       0x10 /opt/ARM/bin/../lib/gcc/arm-none-eabi/4.8.4/../../../../arm-none-eabi/lib/armv7e-m/fpu/libg.a(lib_a-dtoa.o)
                                 0x14 (size before relaxing)
 .rodata.str1.4
                0x0801dfe0        0x2 /opt/ARM/bin/../lib/gcc/arm-none-eabi/4.8.4/../../../../arm-none-eabi/lib/armv7e-m/fpu/libg.a(lib_a-impure.o)
                                  0x4 (size before relaxing)
 *fill*         0x0801dfe2        0xe 
 .rodata.str1.4
                0x0801dff0        0xc /opt/ARM/bin/../lib/gcc/arm-none-eabi/4.8.4/../../../../arm-none-eabi/lib/armv7e-m/fpu/libg.a(lib_a-locale.o)
                                 0x14 (size before relaxing)
 *fill*         0x0801dffc        0x4 
 .rodata.__mprec_tens
                0x0801e000       0xc8 /opt/ARM/bin/../lib/gcc/arm-none-eabi/4.8.4/../../../../arm-none-eabi/lib/armv7e-m/fpu/libg.a(lib_a-mprec.o)
                0x0801e000                __mprec_tens
 *fill*         0x0801e0c8        0x8 
 .rodata.__mprec_bigtens
                0x0801e0d0       0x28 /opt/ARM/bin/../lib/gcc/arm-none-eabi/4.8.4/../../../../arm-none-eabi/lib/armv7e-m/fpu/libg.a(lib_a-mprec.o)
                0x0801e0d0                __mprec_bigtens
 *fill*         0x0801e0f8        0x8 
 .rodata.p05.5269
                0x0801e100        0xc /opt/ARM/bin/../lib/gcc/arm-none-eabi/4.8.4/../../../../arm-none-eabi/lib/armv7e-m/fpu/libg.a(lib_a-mprec.o)
 *(.glue_7t)
 .glue_7t       0x00000000        0x0 linker stubs
 *(.glue_7)
 .glue_7        0x00000000        0x0 linker stubs
 *(.gcc*)

.vfp11_veneer   0x0801e10c        0x0
 .vfp11_veneer  0x00000000        0x0 linker stubs

.v4_bx          0x0801e10c        0x0
 .v4_bx         0x00000000        0x0 linker stubs

.iplt           0x0801e10c        0x0
 .iplt          0x00000000        0x0 build/obj/crt0.o

.ARM.extab
 *(.ARM.extab* .gnu.linkonce.armextab.*)

.ARM.exidx      0x0801e10c        0x8
                0x0801e10c                PROVIDE (__exidx_start, .)
 *(.ARM.exidx* .gnu.linkonce.armexidx.*)
 .ARM.exidx     0x0801e10c        0x8 /opt/ARM/bin/../lib/gcc/arm-none-eabi/4.8.4/armv7e-m/fpu/libgcc.a(_divdi3.o)
 .ARM.exidx     0x0801e114        0x0 /opt/ARM/bin/../lib/gcc/arm-none-eabi/4.8.4/armv7e-m/fpu/libgcc.a(_udivdi3.o)
                                  0x8 (size before relaxing)
                0x0801e114                PROVIDE (__exidx_end, .)

.rel.dyn        0x0801e114        0x0
 .rel.iplt      0x00000000        0x0 build/obj/crt0.o

.eh_frame_hdr
 *(.eh_frame_hdr)

.eh_frame
 *(.eh_frame)

.textalign      0x0801e114        0x4
                0x0801e118                . = ALIGN (0x8)
 *fill*         0x0801e114        0x4 
                0x0801e118                . = ALIGN (0x4)
                0x0801e118                _etext = .
                0x0801e118                _textdata = _etext

.stacks         0x20000000      0x800
                0x20000000                . = ALIGN (0x8)
                0x20000000                __main_stack_base__ = .
                0x20000400                . = (. + __main_stack_size__)
 *fill*         0x20000000      0x400 
                0x20000400                . = ALIGN (0x8)
                0x20000400                __main_stack_end__ = .
                0x20000400                __process_stack_base__ = .
                0x20000400                __main_thread_stack_base__ = .
                0x20000800                . = (. + __process_stack_size__)
 *fill*         0x20000400      0x400 
                0x20000800                . = ALIGN (0x8)
                0x20000800                __process_stack_end__ = .
                0x20000800                __main_thread_stack_end__ = .

.data           0x20000800      0x8a4 load address 0x0801e118
                0x20000800                . = ALIGN (0x4)
                0x20000800                PROVIDE (_data, .)
 *(.data)
                0x20000800                . = ALIGN (0x4)
 *(.data.*)
 .data.GDISP    0x20000800        0x4 build/obj/gdisp.o
                0x20000800                GDISP
 .data.defaultFgColor
                0x20000804        0x2 build/obj/gwin.o
 *fill*         0x20000806        0x2 
 .data.defaultStyle
                0x20000808        0x4 build/obj/gwidget.o
 .data.icucfg   0x2000080c       0x1c build/obj/main.o
 .data.VREFMeasured
                0x20000828        0x4 build/obj/main.o
                0x20000828                VREFMeasured
 *fill*         0x2000082c        0x4 
 .data.impure_data
                0x20000830      0x428 /opt/ARM/bin/../lib/gcc/arm-none-eabi/4.8.4/../../../../arm-none-eabi/lib/armv7e-m/fpu/libg.a(lib_a-impure.o)
 .data._impure_ptr
                0x20000c58        0x4 /opt/ARM/bin/../lib/gcc/arm-none-eabi/4.8.4/../../../../arm-none-eabi/lib/armv7e-m/fpu/libg.a(lib_a-impure.o)
                0x20000c58                _impure_ptr
 .data.lconv    0x20000c5c       0x38 /opt/ARM/bin/../lib/gcc/arm-none-eabi/4.8.4/../../../../arm-none-eabi/lib/armv7e-m/fpu/libg.a(lib_a-locale.o)
 .data.__malloc_av_
                0x20000c94      0x408 /opt/ARM/bin/../lib/gcc/arm-none-eabi/4.8.4/../../../../arm-none-eabi/lib/armv7e-m/fpu/libg.a(lib_a-mallocr.o)
                0x20000c94                __malloc_av_
 .data.__malloc_trim_threshold
                0x2000109c        0x4 /opt/ARM/bin/../lib/gcc/arm-none-eabi/4.8.4/../../../../arm-none-eabi/lib/armv7e-m/fpu/libg.a(lib_a-mallocr.o)
                0x2000109c                __malloc_trim_threshold
 .data.__malloc_sbrk_base
                0x200010a0        0x4 /opt/ARM/bin/../lib/gcc/arm-none-eabi/4.8.4/../../../../arm-none-eabi/lib/armv7e-m/fpu/libg.a(lib_a-mallocr.o)
                0x200010a0                __malloc_sbrk_base
                0x200010a4                . = ALIGN (0x4)
 *(.ramtext)
                0x200010a4                . = ALIGN (0x4)
                0x200010a4                PROVIDE (_edata, .)

.igot.plt       0x200010a4        0x0 load address 0x0801e9bc
 .igot.plt      0x00000000        0x0 build/obj/crt0.o

.bss            0x200010a8     0x3480 load address 0x0801e9bc
                0x200010a8                . = ALIGN (0x4)
                0x200010a8                PROVIDE (_bss_start, .)
 *(.bss)
                0x200010a8                . = ALIGN (0x4)
 *(.bss.*)
 .bss.mainthread.4840
                0x200010a8       0x4c build/obj/chsys.o
 *fill*         0x200010f4        0x4 
 .bss._idle_thread_wa
                0x200010f8      0x168 build/obj/chsys.o
                0x200010f8                _idle_thread_wa
 .bss.dbg_trace_buffer
                0x20001260      0x408 build/obj/chdebug.o
                0x20001260                dbg_trace_buffer
 .bss.dbg_panic_msg
                0x20001668        0x4 build/obj/chdebug.o
                0x20001668                dbg_panic_msg
 .bss.vtlist    0x2000166c       0x10 build/obj/chvt.o
                0x2000166c                vtlist
 .bss.rlist     0x2000167c       0x1c build/obj/chschd.o
                0x2000167c                rlist
 .bss.endmem    0x20001698        0x4 build/obj/chmemcore.o
 .bss.nextmem   0x2000169c        0x4 build/obj/chmemcore.o
 .bss.default_heap
                0x200016a0       0x20 build/obj/chheap.o
 .bss.dma_isr_redir
                0x200016c0       0x80 build/obj/stm32_dma.o
 .bss.dma_streams_mask
                0x20001740        0x4 build/obj/stm32_dma.o
 .bss.ADCD1     0x20001744       0x34 build/obj/adc_lld.o
                0x20001744                ADCD1
 .bss.ADCD2     0x20001778       0x34 build/obj/adc_lld.o
                0x20001778                ADCD2
 .bss.dummytx   0x200017ac        0x2 build/obj/spi_lld.o
 *fill*         0x200017ae        0x2 
 .bss.SPID2     0x200017b0       0x30 build/obj/spi_lld.o
                0x200017b0                SPID2
 .bss.ICUD5     0x200017e0       0x18 build/obj/icu_lld.o
                0x200017e0                ICUD5
 .bss.PWMD3     0x200017f8       0x14 build/obj/pwm_lld.o
                0x200017f8                PWMD3
 .bss.SD2       0x2000180c       0x78 build/obj/serial_lld.o
                0x2000180c                SD2
 .bss.initDone  0x20001884        0x1 build/obj/gfx.o
 *fill*         0x20001885        0x3 
 .bss.GDisplayArray
                0x20001888       0x58 build/obj/gdisp.o
 .bss.Assignments
                0x200018e0      0x200 build/obj/gevent.o
 .bss.geventMutex
                0x20001ae0       0x10 build/obj/gevent.o
 .bss.mutex     0x20001af0       0x10 build/obj/gtimer.o
 .bss.hThread   0x20001b00        0x4 build/obj/gtimer.o
 *fill*         0x20001b04        0x4 
 .bss.waTimerThread
                0x20001b08      0x958 build/obj/gtimer.o
 .bss.pTimerHead
                0x20002460        0x4 build/obj/gtimer.o
 .bss.waitsem   0x20002464       0x10 build/obj/gtimer.o
 .bss.defaultFont
                0x20002474        0x4 build/obj/gwin.o
 .bss.defaultBgColor
                0x20002478        0x2 build/obj/gwin.o
 *fill*         0x2000247a        0x2 
 .bss.gl        0x2000247c       0x48 build/obj/gwidget.o
 .bss._GWINwm   0x200024c4        0x4 build/obj/gwm.o
                0x200024c4                _GWINwm
 .bss.RedrawTimer
                0x200024c8       0x1c build/obj/gwm.o
 .bss.RedrawDisplay
                0x200024e4        0x4 build/obj/gwm.o
 .bss._GWINList
                0x200024e8        0x8 build/obj/gwm.o
 .bss.RedrawPreserve
                0x200024f0        0x1 build/obj/gwm.o
 *fill*         0x200024f1        0x3 
 .bss.MouseTimer
                0x200024f4       0x1c build/obj/mouse.o
 .bss.MouseConfig
                0x20002510       0x3c build/obj/mouse.o
 .bss.gfileArr  0x2000254c       0x30 build/obj/gfile.o
 .bss.txbuf.7834
                0x2000257c        0x4 build/obj/ginput_lld_mouse.o
 .bss.rxbuf.7835
                0x20002580        0x4 build/obj/ginput_lld_mouse.o
 .bss.sampleBuf
                0x20002584       0x10 build/obj/ginput_lld_mouse.o
 .bss.lastx     0x20002594        0x2 build/obj/ginput_lld_mouse.o
 .bss.lasty     0x20002596        0x2 build/obj/ginput_lld_mouse.o
 .bss.ADCvalue  0x20002598        0x4 build/obj/main.o
 .bss.console   0x2000259c        0x1 build/obj/main.o
                0x2000259c                console
 .bss.ADC2status
                0x2000259d        0x1 build/obj/main.o
                0x2000259d                ADC2status
 .bss.width     0x2000259e        0x2 build/obj/main.o
 .bss.Result    0x200025a0        0x8 build/obj/main.o
                0x200025a0                Result
 .bss.ADCvalue2
                0x200025a8        0x4 build/obj/main.o
 .bss.last_period
                0x200025ac        0x2 build/obj/main.o
                0x200025ac                last_period
 .bss.last_width
                0x200025ae        0x2 build/obj/main.o
                0x200025ae                last_width
 .bss.ghc       0x200025b0        0x4 build/obj/main.o
 .bss.samples1  0x200025b4      0x800 build/obj/main.o
 .bss.samples2  0x20002db4      0x800 build/obj/main.o
 .bss.ghBrightness
                0x200035b4        0x4 build/obj/main.o
 .bss.pe        0x200035b8        0x4 build/obj/main.o
 .bss.bWidth    0x200035bc        0x2 build/obj/main.o
 *fill*         0x200035be        0x2 
 .bss.pem       0x200035c0        0x4 build/obj/main.o
 .bss.ghStatus2
                0x200035c4        0x4 build/obj/main.o
 .bss.height    0x200035c8        0x2 build/obj/main.o
 *fill*         0x200035ca        0x2 
 .bss.ghConsole
                0x200035cc        0x4 build/obj/main.o
 .bss.ICU1label
                0x200035d0        0x4 build/obj/main.o
 .bss.ADClabel2
                0x200035d4        0x4 build/obj/main.o
 .bss.ghStatus1
                0x200035d8        0x4 build/obj/main.o
 .bss.font      0x200035dc        0x4 build/obj/main.o
 .bss.swidth    0x200035e0        0x2 build/obj/main.o
 *fill*         0x200035e2        0x2 
 .bss.ICU1value
                0x200035e4        0x4 build/obj/main.o
 .bss.mouse     0x200035e8        0x4 build/obj/main.o
 .bss.ADClabel  0x200035ec        0x4 build/obj/main.o
 .bss.sum       0x200035f0        0x4 build/obj/main.o
                0x200035f0                sum
 .bss.gl        0x200035f4       0x48 build/obj/main.o
 .bss.sheight   0x2000363c        0x2 build/obj/main.o
 *fill*         0x2000363e        0x2 
 .bss.waThread1
                0x20003640      0x558 build/obj/main.o
 .bss.waThread2
                0x20003b98      0x958 build/obj/main.o
 .bss.bHeight   0x200044f0        0x2 build/obj/main.o
 *fill*         0x200044f2        0x2 
 .bss.__malloc_max_total_mem
                0x200044f4        0x4 /opt/ARM/bin/../lib/gcc/arm-none-eabi/4.8.4/../../../../arm-none-eabi/lib/armv7e-m/fpu/libg.a(lib_a-mallocr.o)
                0x200044f4                __malloc_max_total_mem
 .bss.__malloc_max_sbrked_mem
                0x200044f8        0x4 /opt/ARM/bin/../lib/gcc/arm-none-eabi/4.8.4/../../../../arm-none-eabi/lib/armv7e-m/fpu/libg.a(lib_a-mallocr.o)
                0x200044f8                __malloc_max_sbrked_mem
 .bss.__malloc_top_pad
                0x200044fc        0x4 /opt/ARM/bin/../lib/gcc/arm-none-eabi/4.8.4/../../../../arm-none-eabi/lib/armv7e-m/fpu/libg.a(lib_a-mallocr.o)
                0x200044fc                __malloc_top_pad
 .bss.__malloc_current_mallinfo
                0x20004500       0x28 /opt/ARM/bin/../lib/gcc/arm-none-eabi/4.8.4/../../../../arm-none-eabi/lib/armv7e-m/fpu/libg.a(lib_a-mallocr.o)
                0x20004500                __malloc_current_mallinfo
                0x20004528                . = ALIGN (0x4)
 *(COMMON)
                0x20004528                . = ALIGN (0x4)
                0x20004528                PROVIDE (_bss_end, .)
                0x20004528                PROVIDE (end, .)
                0x20004528                _end = .
                0x20004528                __heap_base__ = _end
                0x2001c000                __heap_end__ = __ram_end__
START GROUP
LOAD /opt/ARM/bin/../lib/gcc/arm-none-eabi/4.8.4/armv7e-m/fpu/libgcc.a
LOAD /opt/ARM/bin/../lib/gcc/arm-none-eabi/4.8.4/../../../../arm-none-eabi/lib/armv7e-m/fpu/libg.a
LOAD /opt/ARM/bin/../lib/gcc/arm-none-eabi/4.8.4/../../../../arm-none-eabi/lib/armv7e-m/fpu/libc.a
END GROUP
OUTPUT(build/ch.elf elf32-littlearm)

.debug_info     0x00000000    0x2c178
 .debug_info    0x00000000      0x2ba build/obj/crt0.o
 .debug_info    0x000002ba      0x1cd build/obj/vectors.o
 .debug_info    0x00000487       0x92 build/obj/chcore.o
 .debug_info    0x00000519      0x9e4 build/obj/chcore_v7m.o
 .debug_info    0x00000efd      0x406 build/obj/nvic.o
 .debug_info    0x00001303      0x8f6 build/obj/chsys.o
 .debug_info    0x00001bf9      0x6fd build/obj/chdebug.o
 .debug_info    0x000022f6      0x617 build/obj/chlists.o
 .debug_info    0x0000290d      0x25e build/obj/chvt.o
 .debug_info    0x00002b6b      0xa79 build/obj/chschd.o
 .debug_info    0x000035e4      0xbdd build/obj/chthreads.o
 .debug_info    0x000041c1      0x9a1 build/obj/chdynamic.o
 .debug_info    0x00004b62      0x6eb build/obj/chregistry.o
 .debug_info    0x0000524d      0xb47 build/obj/chsem.o
 .debug_info    0x00005d94      0x9a5 build/obj/chmtx.o
 .debug_info    0x00006739      0xaea build/obj/chevents.o
 .debug_info    0x00007223      0xada build/obj/chqueues.o
 .debug_info    0x00007cfd      0x1d5 build/obj/chmemcore.o
 .debug_info    0x00007ed2      0x82e build/obj/chheap.o
 .debug_info    0x00008700      0x3d1 build/obj/hal.o
 .debug_info    0x00008ad1      0xf00 build/obj/adc.o
 .debug_info    0x000099d1      0x5d6 build/obj/icu.o
 .debug_info    0x00009fa7      0x329 build/obj/pal.o
 .debug_info    0x0000a2d0      0x695 build/obj/pwm.o
 .debug_info    0x0000a965     0x10f3 build/obj/serial.o
 .debug_info    0x0000ba58     0x127b build/obj/spi.o
 .debug_info    0x0000ccd3      0xace build/obj/stm32_dma.o
 .debug_info    0x0000d7a1      0x491 build/obj/hal_lld.o
 .debug_info    0x0000dc32     0x120c build/obj/adc_lld.o
 .debug_info    0x0000ee3e      0x704 build/obj/pal_lld.o
 .debug_info    0x0000f542      0xee4 build/obj/spi_lld.o
 .debug_info    0x00010426      0x7fe build/obj/icu_lld.o
 .debug_info    0x00010c24      0x7f8 build/obj/pwm_lld.o
 .debug_info    0x0001141c      0xefd build/obj/serial_lld.o
 .debug_info    0x00012319      0x1f4 build/obj/board.o
 .debug_info    0x0001250d      0x1d0 build/obj/gfx.o
 .debug_info    0x000126dd      0xbe1 build/obj/chibios.o
 .debug_info    0x000132be      0x562 build/obj/gqueue.o
 .debug_info    0x00013820     0x22c7 build/obj/gdisp.o
 .debug_info    0x00015ae7      0x98d build/obj/fonts.o
 .debug_info    0x00016474      0x181 build/obj/mf_encoding.o
 .debug_info    0x000165f5      0xa48 build/obj/mf_font.o
 .debug_info    0x0001703d      0x9a1 build/obj/mf_justify.o
 .debug_info    0x000179de      0xa51 build/obj/mf_rlefont.o
 .debug_info    0x0001842f      0x774 build/obj/mf_bwfont.o
 .debug_info    0x00018ba3      0x4cf build/obj/mf_scaledfont.o
 .debug_info    0x00019072      0xc34 build/obj/gevent.o
 .debug_info    0x00019ca6      0xb9e build/obj/gtimer.o
 .debug_info    0x0001a844     0x1915 build/obj/gwin.o
 .debug_info    0x0001c159     0x1395 build/obj/gwidget.o
 .debug_info    0x0001d4ee      0xd09 build/obj/gwm.o
 .debug_info    0x0001e1f7      0x9a4 build/obj/console.o
 .debug_info    0x0001eb9b     0x11d6 build/obj/button.o
 .debug_info    0x0001fd71     0x1332 build/obj/slider.o
 .debug_info    0x000210a3      0xaa1 build/obj/label.o
 .debug_info    0x00021b44       0xca build/obj/ginput.o
 .debug_info    0x00021c0e     0x1a16 build/obj/mouse.o
 .debug_info    0x00023624      0xcc0 build/obj/gfile.o
 .debug_info    0x000242e4     0x2e9a build/obj/gdisp_lld_SSD1289.o
 .debug_info    0x0002717e      0xe9c build/obj/ginput_lld_mouse.o
 .debug_info    0x0002801a      0xc42 build/obj/syscalls.o
 .debug_info    0x00028c5c      0x61d build/obj/chprintf.o
 .debug_info    0x00029279     0x2eff build/obj/main.o

.debug_abbrev   0x00000000     0x8d47
 .debug_abbrev  0x00000000       0xee build/obj/crt0.o
 .debug_abbrev  0x000000ee       0xaf build/obj/vectors.o
 .debug_abbrev  0x0000019d       0x42 build/obj/chcore.o
 .debug_abbrev  0x000001df      0x1ca build/obj/chcore_v7m.o
 .debug_abbrev  0x000003a9      0x10e build/obj/nvic.o
 .debug_abbrev  0x000004b7      0x213 build/obj/chsys.o
 .debug_abbrev  0x000006ca      0x1b2 build/obj/chdebug.o
 .debug_abbrev  0x0000087c      0x153 build/obj/chlists.o
 .debug_abbrev  0x000009cf      0x135 build/obj/chvt.o
 .debug_abbrev  0x00000b04      0x27d build/obj/chschd.o
 .debug_abbrev  0x00000d81      0x2ed build/obj/chthreads.o
 .debug_abbrev  0x0000106e      0x21b build/obj/chdynamic.o
 .debug_abbrev  0x00001289      0x193 build/obj/chregistry.o
 .debug_abbrev  0x0000141c      0x250 build/obj/chsem.o
 .debug_abbrev  0x0000166c      0x238 build/obj/chmtx.o
 .debug_abbrev  0x000018a4      0x2a3 build/obj/chevents.o
 .debug_abbrev  0x00001b47      0x2b5 build/obj/chqueues.o
 .debug_abbrev  0x00001dfc      0x148 build/obj/chmemcore.o
 .debug_abbrev  0x00001f44      0x1f2 build/obj/chheap.o
 .debug_abbrev  0x00002136      0x1c8 build/obj/hal.o
 .debug_abbrev  0x000022fe      0x2a3 build/obj/adc.o
 .debug_abbrev  0x000025a1      0x190 build/obj/icu.o
 .debug_abbrev  0x00002731      0x155 build/obj/pal.o
 .debug_abbrev  0x00002886      0x190 build/obj/pwm.o
 .debug_abbrev  0x00002a16      0x2b5 build/obj/serial.o
 .debug_abbrev  0x00002ccb      0x254 build/obj/spi.o
 .debug_abbrev  0x00002f1f      0x23f build/obj/stm32_dma.o
 .debug_abbrev  0x0000315e      0x12b build/obj/hal_lld.o
 .debug_abbrev  0x00003289      0x2fc build/obj/adc_lld.o
 .debug_abbrev  0x00003585      0x1aa build/obj/pal_lld.o
 .debug_abbrev  0x0000372f      0x30a build/obj/spi_lld.o
 .debug_abbrev  0x00003a39      0x23d build/obj/icu_lld.o
 .debug_abbrev  0x00003c76      0x23c build/obj/pwm_lld.o
 .debug_abbrev  0x00003eb2      0x2f3 build/obj/serial_lld.o
 .debug_abbrev  0x000041a5       0xe3 build/obj/board.o
 .debug_abbrev  0x00004288       0xa2 build/obj/gfx.o
 .debug_abbrev  0x0000432a      0x28a build/obj/chibios.o
 .debug_abbrev  0x000045b4      0x1c4 build/obj/gqueue.o
 .debug_abbrev  0x00004778      0x3d2 build/obj/gdisp.o
 .debug_abbrev  0x00004b4a      0x21e build/obj/fonts.o
 .debug_abbrev  0x00004d68       0xd1 build/obj/mf_encoding.o
 .debug_abbrev  0x00004e39      0x1fe build/obj/mf_font.o
 .debug_abbrev  0x00005037      0x299 build/obj/mf_justify.o
 .debug_abbrev  0x000052d0      0x2c1 build/obj/mf_rlefont.o
 .debug_abbrev  0x00005591      0x1c7 build/obj/mf_bwfont.o
 .debug_abbrev  0x00005758      0x18a build/obj/mf_scaledfont.o
 .debug_abbrev  0x000058e2      0x270 build/obj/gevent.o
 .debug_abbrev  0x00005b52      0x283 build/obj/gtimer.o
 .debug_abbrev  0x00005dd5      0x3c1 build/obj/gwin.o
 .debug_abbrev  0x00006196      0x415 build/obj/gwidget.o
 .debug_abbrev  0x000065ab      0x353 build/obj/gwm.o
 .debug_abbrev  0x000068fe      0x2da build/obj/console.o
 .debug_abbrev  0x00006bd8      0x373 build/obj/button.o
 .debug_abbrev  0x00006f4b      0x38f build/obj/slider.o
 .debug_abbrev  0x000072da      0x2ac build/obj/label.o
 .debug_abbrev  0x00007586       0x67 build/obj/ginput.o
 .debug_abbrev  0x000075ed      0x41d build/obj/mouse.o
 .debug_abbrev  0x00007a0a      0x30d build/obj/gfile.o
 .debug_abbrev  0x00007d17      0x3a9 build/obj/gdisp_lld_SSD1289.o
 .debug_abbrev  0x000080c0      0x2d0 build/obj/ginput_lld_mouse.o
 .debug_abbrev  0x00008390      0x228 build/obj/syscalls.o
 .debug_abbrev  0x000085b8      0x271 build/obj/chprintf.o
 .debug_abbrev  0x00008829      0x51e build/obj/main.o

.debug_loc      0x00000000    0x106b9
 .debug_loc     0x00000000       0xfe build/obj/crt0.o
 .debug_loc     0x000000fe       0x5e build/obj/chcore_v7m.o
 .debug_loc     0x0000015c      0x159 build/obj/nvic.o
 .debug_loc     0x000002b5       0x31 build/obj/chsys.o
 .debug_loc     0x000002e6       0x21 build/obj/chdebug.o
 .debug_loc     0x00000307       0x7b build/obj/chlists.o
 .debug_loc     0x00000382      0x12e build/obj/chvt.o
 .debug_loc     0x000004b0      0x27e build/obj/chschd.o
 .debug_loc     0x0000072e      0x3a0 build/obj/chthreads.o
 .debug_loc     0x00000ace      0x2b8 build/obj/chdynamic.o
 .debug_loc     0x00000d86       0x5e build/obj/chregistry.o
 .debug_loc     0x00000de4      0x480 build/obj/chsem.o
 .debug_loc     0x00001264      0x230 build/obj/chmtx.o
 .debug_loc     0x00001494      0x5cd build/obj/chevents.o
 .debug_loc     0x00001a61      0x68e build/obj/chqueues.o
 .debug_loc     0x000020ef       0xcc build/obj/chmemcore.o
 .debug_loc     0x000021bb      0x3ef build/obj/chheap.o
 .debug_loc     0x000025aa       0x9d build/obj/hal.o
 .debug_loc     0x00002647      0x472 build/obj/adc.o
 .debug_loc     0x00002ab9      0x104 build/obj/icu.o
 .debug_loc     0x00002bbd       0xe7 build/obj/pal.o
 .debug_loc     0x00002ca4      0x220 build/obj/pwm.o
 .debug_loc     0x00002ec4      0x539 build/obj/serial.o
 .debug_loc     0x000033fd      0x5da build/obj/spi.o
 .debug_loc     0x000039d7      0x25a build/obj/stm32_dma.o
 .debug_loc     0x00003c31      0x320 build/obj/adc_lld.o
 .debug_loc     0x00003f51      0x1b2 build/obj/pal_lld.o
 .debug_loc     0x00004103      0x29e build/obj/spi_lld.o
 .debug_loc     0x000043a1       0xed build/obj/icu_lld.o
 .debug_loc     0x0000448e      0x1ba build/obj/pwm_lld.o
 .debug_loc     0x00004648      0x20e build/obj/serial_lld.o
 .debug_loc     0x00004856      0x431 build/obj/chibios.o
 .debug_loc     0x00004c87      0x22c build/obj/gqueue.o
 .debug_loc     0x00004eb3     0x1d6d build/obj/gdisp.o
 .debug_loc     0x00006c20      0x1da build/obj/fonts.o
 .debug_loc     0x00006dfa      0x157 build/obj/mf_encoding.o
 .debug_loc     0x00006f51      0x1c9 build/obj/mf_font.o
 .debug_loc     0x0000711a      0x8ff build/obj/mf_justify.o
 .debug_loc     0x00007a19      0x9c6 build/obj/mf_rlefont.o
 .debug_loc     0x000083df      0x740 build/obj/mf_bwfont.o
 .debug_loc     0x00008b1f      0x33a build/obj/mf_scaledfont.o
 .debug_loc     0x00008e59      0x4af build/obj/gevent.o
 .debug_loc     0x00009308      0x2cb build/obj/gtimer.o
 .debug_loc     0x000095d3      0xce7 build/obj/gwin.o
 .debug_loc     0x0000a2ba      0x5ac build/obj/gwidget.o
 .debug_loc     0x0000a866      0x4ee build/obj/gwm.o
 .debug_loc     0x0000ad54      0x84d build/obj/console.o
 .debug_loc     0x0000b5a1      0x42f build/obj/button.o
 .debug_loc     0x0000b9d0      0x5fd build/obj/slider.o
 .debug_loc     0x0000bfcd      0x361 build/obj/label.o
 .debug_loc     0x0000c32e      0xd78 build/obj/mouse.o
 .debug_loc     0x0000d0a6      0x9e1 build/obj/gfile.o
 .debug_loc     0x0000da87     0x1d89 build/obj/gdisp_lld_SSD1289.o
 .debug_loc     0x0000f810      0x1ba build/obj/ginput_lld_mouse.o
 .debug_loc     0x0000f9ca      0x1ac build/obj/syscalls.o
 .debug_loc     0x0000fb76      0x77a build/obj/chprintf.o
 .debug_loc     0x000102f0      0x3c9 build/obj/main.o

.debug_aranges  0x00000000     0x1660
 .debug_aranges
                0x00000000       0x38 build/obj/crt0.o
 .debug_aranges
                0x00000038       0x20 build/obj/vectors.o
 .debug_aranges
                0x00000058       0x20 build/obj/chcore.o
 .debug_aranges
                0x00000078       0x60 build/obj/chcore_v7m.o
 .debug_aranges
                0x000000d8       0x30 build/obj/nvic.o
 .debug_aranges
                0x00000108       0x30 build/obj/chsys.o
 .debug_aranges
                0x00000138       0x30 build/obj/chdebug.o
 .debug_aranges
                0x00000168       0x50 build/obj/chlists.o
 .debug_aranges
                0x000001b8       0x30 build/obj/chvt.o
 .debug_aranges
                0x000001e8       0x68 build/obj/chschd.o
 .debug_aranges
                0x00000250       0x80 build/obj/chthreads.o
 .debug_aranges
                0x000002d0       0x38 build/obj/chdynamic.o
 .debug_aranges
                0x00000308       0x28 build/obj/chregistry.o
 .debug_aranges
                0x00000330       0x70 build/obj/chsem.o
 .debug_aranges
                0x000003a0       0x58 build/obj/chmtx.o
 .debug_aranges
                0x000003f8       0x88 build/obj/chevents.o
 .debug_aranges
                0x00000480       0x70 build/obj/chqueues.o
 .debug_aranges
                0x000004f0       0x38 build/obj/chmemcore.o
 .debug_aranges
                0x00000528       0x40 build/obj/chheap.o
 .debug_aranges
                0x00000568       0x30 build/obj/hal.o
 .debug_aranges
                0x00000598       0x70 build/obj/adc.o
 .debug_aranges
                0x00000608       0x48 build/obj/icu.o
 .debug_aranges
                0x00000650       0x30 build/obj/pal.o
 .debug_aranges
                0x00000680       0x50 build/obj/pwm.o
 .debug_aranges
                0x000006d0       0x88 build/obj/serial.o
 .debug_aranges
                0x00000758       0x98 build/obj/spi.o
 .debug_aranges
                0x000007f0       0xb0 build/obj/stm32_dma.o
 .debug_aranges
                0x000008a0       0x28 build/obj/hal_lld.o
 .debug_aranges
                0x000008c8       0x70 build/obj/adc_lld.o
 .debug_aranges
                0x00000938       0x28 build/obj/pal_lld.o
 .debug_aranges
                0x00000960       0x78 build/obj/spi_lld.o
 .debug_aranges
                0x000009d8       0x48 build/obj/icu_lld.o
 .debug_aranges
                0x00000a20       0x48 build/obj/pwm_lld.o
 .debug_aranges
                0x00000a68       0x40 build/obj/serial_lld.o
 .debug_aranges
                0x00000aa8       0x28 build/obj/board.o
 .debug_aranges
                0x00000ad0       0x28 build/obj/gfx.o
 .debug_aranges
                0x00000af8       0x78 build/obj/chibios.o
 .debug_aranges
                0x00000b70       0x90 build/obj/gqueue.o
 .debug_aranges
                0x00000c00      0x100 build/obj/gdisp.o
 .debug_aranges
                0x00000d00       0x40 build/obj/fonts.o
 .debug_aranges
                0x00000d40       0x28 build/obj/mf_encoding.o
 .debug_aranges
                0x00000d68       0x38 build/obj/mf_font.o
 .debug_aranges
                0x00000da0       0x40 build/obj/mf_justify.o
 .debug_aranges
                0x00000de0       0x40 build/obj/mf_rlefont.o
 .debug_aranges
                0x00000e20       0x28 build/obj/mf_bwfont.o
 .debug_aranges
                0x00000e48       0x38 build/obj/mf_scaledfont.o
 .debug_aranges
                0x00000e80       0x78 build/obj/gevent.o
 .debug_aranges
                0x00000ef8       0x68 build/obj/gtimer.o
 .debug_aranges
                0x00000f60      0x128 build/obj/gwin.o
 .debug_aranges
                0x00001088       0xa8 build/obj/gwidget.o
 .debug_aranges
                0x00001130       0xa8 build/obj/gwm.o
 .debug_aranges
                0x000011d8       0x50 build/obj/console.o
 .debug_aranges
                0x00001228       0x48 build/obj/button.o
 .debug_aranges
                0x00001270       0x58 build/obj/slider.o
 .debug_aranges
                0x000012c8       0x30 build/obj/label.o
 .debug_aranges
                0x000012f8       0x28 build/obj/ginput.o
 .debug_aranges
                0x00001320       0x80 build/obj/mouse.o
 .debug_aranges
                0x000013a0      0x100 build/obj/gfile.o
 .debug_aranges
                0x000014a0       0x80 build/obj/gdisp_lld_SSD1289.o
 .debug_aranges
                0x00001520       0x28 build/obj/ginput_lld_mouse.o
 .debug_aranges
                0x00001548       0x50 build/obj/syscalls.o
 .debug_aranges
                0x00001598       0x30 build/obj/chprintf.o
 .debug_aranges
                0x000015c8       0x98 build/obj/main.o

.debug_ranges   0x00000000     0x2330
 .debug_ranges  0x00000000       0x58 build/obj/crt0.o
 .debug_ranges  0x00000058       0x10 build/obj/vectors.o
 .debug_ranges  0x00000068       0x10 build/obj/chcore.o
 .debug_ranges  0x00000078       0x68 build/obj/chcore_v7m.o
 .debug_ranges  0x000000e0       0x20 build/obj/nvic.o
 .debug_ranges  0x00000100       0x20 build/obj/chsys.o
 .debug_ranges  0x00000120       0x20 build/obj/chdebug.o
 .debug_ranges  0x00000140       0x40 build/obj/chlists.o
 .debug_ranges  0x00000180       0x20 build/obj/chvt.o
 .debug_ranges  0x000001a0       0xf0 build/obj/chschd.o
 .debug_ranges  0x00000290       0x98 build/obj/chthreads.o
 .debug_ranges  0x00000328       0x28 build/obj/chdynamic.o
 .debug_ranges  0x00000350       0x18 build/obj/chregistry.o
 .debug_ranges  0x00000368       0x78 build/obj/chsem.o
 .debug_ranges  0x000003e0       0x98 build/obj/chmtx.o
 .debug_ranges  0x00000478       0x90 build/obj/chevents.o
 .debug_ranges  0x00000508       0x98 build/obj/chqueues.o
 .debug_ranges  0x000005a0       0x28 build/obj/chmemcore.o
 .debug_ranges  0x000005c8       0x30 build/obj/chheap.o
 .debug_ranges  0x000005f8       0x38 build/obj/hal.o
 .debug_ranges  0x00000630       0x78 build/obj/adc.o
 .debug_ranges  0x000006a8       0x38 build/obj/icu.o
 .debug_ranges  0x000006e0       0x20 build/obj/pal.o
 .debug_ranges  0x00000700       0x40 build/obj/pwm.o
 .debug_ranges  0x00000740       0x78 build/obj/serial.o
 .debug_ranges  0x000007b8       0x88 build/obj/spi.o
 .debug_ranges  0x00000840       0xa0 build/obj/stm32_dma.o
 .debug_ranges  0x000008e0       0x30 build/obj/hal_lld.o
 .debug_ranges  0x00000910       0x90 build/obj/adc_lld.o
 .debug_ranges  0x000009a0      0x108 build/obj/pal_lld.o
 .debug_ranges  0x00000aa8       0x68 build/obj/spi_lld.o
 .debug_ranges  0x00000b10       0x50 build/obj/icu_lld.o
 .debug_ranges  0x00000b60       0x50 build/obj/pwm_lld.o
 .debug_ranges  0x00000bb0       0x90 build/obj/serial_lld.o
 .debug_ranges  0x00000c40       0x18 build/obj/board.o
 .debug_ranges  0x00000c58       0x18 build/obj/gfx.o
 .debug_ranges  0x00000c70       0x68 build/obj/chibios.o
 .debug_ranges  0x00000cd8       0xe0 build/obj/gqueue.o
 .debug_ranges  0x00000db8      0x238 build/obj/gdisp.o
 .debug_ranges  0x00000ff0       0x30 build/obj/fonts.o
 .debug_ranges  0x00001020       0x18 build/obj/mf_encoding.o
 .debug_ranges  0x00001038       0x28 build/obj/mf_font.o
 .debug_ranges  0x00001060       0x48 build/obj/mf_justify.o
 .debug_ranges  0x000010a8      0x118 build/obj/mf_rlefont.o
 .debug_ranges  0x000011c0       0x78 build/obj/mf_bwfont.o
 .debug_ranges  0x00001238       0x28 build/obj/mf_scaledfont.o
 .debug_ranges  0x00001260       0x68 build/obj/gevent.o
 .debug_ranges  0x000012c8       0x58 build/obj/gtimer.o
 .debug_ranges  0x00001320      0x138 build/obj/gwin.o
 .debug_ranges  0x00001458       0xe8 build/obj/gwidget.o
 .debug_ranges  0x00001540       0xb0 build/obj/gwm.o
 .debug_ranges  0x000015f0       0x40 build/obj/console.o
 .debug_ranges  0x00001630       0x90 build/obj/button.o
 .debug_ranges  0x000016c0       0x60 build/obj/slider.o
 .debug_ranges  0x00001720       0x50 build/obj/label.o
 .debug_ranges  0x00001770       0x18 build/obj/ginput.o
 .debug_ranges  0x00001788      0x1a8 build/obj/mouse.o
 .debug_ranges  0x00001930       0xf0 build/obj/gfile.o
 .debug_ranges  0x00001a20      0x728 build/obj/gdisp_lld_SSD1289.o
 .debug_ranges  0x00002148       0xa8 build/obj/ginput_lld_mouse.o
 .debug_ranges  0x000021f0       0x40 build/obj/syscalls.o
 .debug_ranges  0x00002230       0x38 build/obj/chprintf.o
 .debug_ranges  0x00002268       0xc8 build/obj/main.o

.debug_line     0x00000000     0xbed2
 .debug_line    0x00000000      0x12a build/obj/crt0.o
 .debug_line    0x0000012a       0xc4 build/obj/vectors.o
 .debug_line    0x000001ee       0x53 build/obj/chcore.o
 .debug_line    0x00000241      0x21a build/obj/chcore_v7m.o
 .debug_line    0x0000045b      0x100 build/obj/nvic.o
 .debug_line    0x0000055b      0x1ef build/obj/chsys.o
 .debug_line    0x0000074a      0x17d build/obj/chdebug.o
 .debug_line    0x000008c7      0x1b0 build/obj/chlists.o
 .debug_line    0x00000a77      0x166 build/obj/chvt.o
 .debug_line    0x00000bdd      0x2d7 build/obj/chschd.o
 .debug_line    0x00000eb4      0x378 build/obj/chthreads.o
 .debug_line    0x0000122c      0x231 build/obj/chdynamic.o
 .debug_line    0x0000145d      0x1c5 build/obj/chregistry.o
 .debug_line    0x00001622      0x34a build/obj/chsem.o
 .debug_line    0x0000196c      0x29d build/obj/chmtx.o
 .debug_line    0x00001c09      0x30d build/obj/chevents.o
 .debug_line    0x00001f16      0x34e build/obj/chqueues.o
 .debug_line    0x00002264      0x13d build/obj/chmemcore.o
 .debug_line    0x000023a1      0x28a build/obj/chheap.o
 .debug_line    0x0000262b      0x260 build/obj/hal.o
 .debug_line    0x0000288b      0x399 build/obj/adc.o
 .debug_line    0x00002c24      0x217 build/obj/icu.o
 .debug_line    0x00002e3b      0x1aa build/obj/pal.o
 .debug_line    0x00002fe5      0x24d build/obj/pwm.o
 .debug_line    0x00003232      0x380 build/obj/serial.o
 .debug_line    0x000035b2      0x541 build/obj/spi.o
 .debug_line    0x00003af3      0x3ec build/obj/stm32_dma.o
 .debug_line    0x00003edf      0x1c8 build/obj/hal_lld.o
 .debug_line    0x000040a7      0x438 build/obj/adc_lld.o
 .debug_line    0x000044df      0x1d7 build/obj/pal_lld.o
 .debug_line    0x000046b6      0x421 build/obj/spi_lld.o
 .debug_line    0x00004ad7      0x2e2 build/obj/icu_lld.o
 .debug_line    0x00004db9      0x2cf build/obj/pwm_lld.o
 .debug_line    0x00005088      0x31a build/obj/serial_lld.o
 .debug_line    0x000053a2      0x168 build/obj/board.o
 .debug_line    0x0000550a      0x144 build/obj/gfx.o
 .debug_line    0x0000564e      0x309 build/obj/chibios.o
 .debug_line    0x00005957      0x298 build/obj/gqueue.o
 .debug_line    0x00005bef      0x884 build/obj/gdisp.o
 .debug_line    0x00006473      0x29f build/obj/fonts.o
 .debug_line    0x00006712      0x172 build/obj/mf_encoding.o
 .debug_line    0x00006884      0x20f build/obj/mf_font.o
 .debug_line    0x00006a93      0x232 build/obj/mf_justify.o
 .debug_line    0x00006cc5      0x288 build/obj/mf_rlefont.o
 .debug_line    0x00006f4d      0x1cc build/obj/mf_bwfont.o
 .debug_line    0x00007119      0x1bd build/obj/mf_scaledfont.o
 .debug_line    0x000072d6      0x33b build/obj/gevent.o
 .debug_line    0x00007611      0x341 build/obj/gtimer.o
 .debug_line    0x00007952      0x5e3 build/obj/gwin.o
 .debug_line    0x00007f35      0x536 build/obj/gwidget.o
 .debug_line    0x0000846b      0x43a build/obj/gwm.o
 .debug_line    0x000088a5      0x39e build/obj/console.o
 .debug_line    0x00008c43      0x3f9 build/obj/button.o
 .debug_line    0x0000903c      0x470 build/obj/slider.o
 .debug_line    0x000094ac      0x279 build/obj/label.o
 .debug_line    0x00009725      0x10c build/obj/ginput.o
 .debug_line    0x00009831      0x74f build/obj/mouse.o
 .debug_line    0x00009f80      0x4cf build/obj/gfile.o
 .debug_line    0x0000a44f      0xa28 build/obj/gdisp_lld_SSD1289.o
 .debug_line    0x0000ae77      0x401 build/obj/ginput_lld_mouse.o
 .debug_line    0x0000b278      0x195 build/obj/syscalls.o
 .debug_line    0x0000b40d      0x262 build/obj/chprintf.o
 .debug_line    0x0000b66f      0x863 build/obj/main.o

.debug_str      0x00000000     0x5aea
 .debug_str     0x00000000      0x2f4 build/obj/crt0.o
                                0x33f (size before relaxing)
 .debug_str     0x000002f4      0x145 build/obj/vectors.o
                                0x360 (size before relaxing)
 .debug_str     0x00000439       0x2d build/obj/chcore.o
                                0x228 (size before relaxing)
 .debug_str     0x00000466      0x347 build/obj/chcore_v7m.o
                                0x594 (size before relaxing)
 .debug_str     0x000007ad       0x9e build/obj/nvic.o
                                0x332 (size before relaxing)
 .debug_str     0x0000084b      0x21a build/obj/chsys.o
                                0x63c (size before relaxing)
 .debug_str     0x00000a65       0xad build/obj/chdebug.o
                                0x50c (size before relaxing)
 .debug_str     0x00000b12       0x6f build/obj/chlists.o
                                0x423 (size before relaxing)
 .debug_str     0x00000b81       0x36 build/obj/chvt.o
                                0x2be (size before relaxing)
 .debug_str     0x00000bb7       0xc1 build/obj/chschd.o
                                0x568 (size before relaxing)
 .debug_str     0x00000c78       0xd7 build/obj/chthreads.o
                                0x5e5 (size before relaxing)
 .debug_str     0x00000d4f      0x10d build/obj/chdynamic.o
                                0x53c (size before relaxing)
 .debug_str     0x00000e5c       0x42 build/obj/chregistry.o
                                0x557 (size before relaxing)
 .debug_str     0x00000e9e       0xaf build/obj/chsem.o
                                0x542 (size before relaxing)
 .debug_str     0x00000f4d       0x85 build/obj/chmtx.o
                                0x4e3 (size before relaxing)
 .debug_str     0x00000fd2      0x192 build/obj/chevents.o
                                0x5d2 (size before relaxing)
 .debug_str     0x00001164      0x119 build/obj/chqueues.o
                                0x56e (size before relaxing)
 .debug_str     0x0000127d       0x70 build/obj/chmemcore.o
                                0x294 (size before relaxing)
 .debug_str     0x000012ed       0x48 build/obj/chheap.o
                                0x4b3 (size before relaxing)
 .debug_str     0x00001335      0x186 build/obj/hal.o
                                0x3bc (size before relaxing)
 .debug_str     0x000014bb      0x2f9 build/obj/adc.o
                                0x798 (size before relaxing)
 .debug_str     0x000017b4      0x1eb build/obj/icu.o
                                0x446 (size before relaxing)
 .debug_str     0x0000199f       0xd4 build/obj/pal.o
                                0x332 (size before relaxing)
 .debug_str     0x00001a73      0x141 build/obj/pwm.o
                                0x437 (size before relaxing)
 .debug_str     0x00001bb4      0x169 build/obj/serial.o
                                0x6e6 (size before relaxing)
 .debug_str     0x00001d1d      0x22e build/obj/spi.o
                                0x79f (size before relaxing)
 .debug_str     0x00001f4b      0x740 build/obj/stm32_dma.o
                                0xa89 (size before relaxing)
 .debug_str     0x0000268b       0xbe build/obj/hal_lld.o
                                0x45c (size before relaxing)
 .debug_str     0x00002749       0xd4 build/obj/adc_lld.o
                                0xdd4 (size before relaxing)
 .debug_str     0x0000281d       0x4b build/obj/pal_lld.o
                                0x4ba (size before relaxing)
 .debug_str     0x00002868       0x97 build/obj/spi_lld.o
                                0x83f (size before relaxing)
 .debug_str     0x000028ff       0x64 build/obj/icu_lld.o
                                0x5be (size before relaxing)
 .debug_str     0x00002963       0x59 build/obj/pwm_lld.o
                                0x572 (size before relaxing)
 .debug_str     0x000029bc       0x65 build/obj/serial_lld.o
                                0x781 (size before relaxing)
 .debug_str     0x00002a21       0x2a build/obj/board.o
                                0x314 (size before relaxing)
 .debug_str     0x00002a4b       0xea build/obj/gfx.o
                                0x30b (size before relaxing)
 .debug_str     0x00002b35      0x135 build/obj/chibios.o
                                0x693 (size before relaxing)
 .debug_str     0x00002c6a      0x15c build/obj/gqueue.o
                                0x3a1 (size before relaxing)
 .debug_str     0x00002dc6      0x65a build/obj/gdisp.o
                                0xb2c (size before relaxing)
 .debug_str     0x00003420       0xf1 build/obj/fonts.o
                                0x62b (size before relaxing)
 .debug_str     0x00003511       0x57 build/obj/mf_encoding.o
                                0x2ad (size before relaxing)
 .debug_str     0x00003568      0x56e build/obj/mf_font.o
                                0x94f (size before relaxing)
 .debug_str     0x00003ad6       0xad build/obj/mf_justify.o
                                0x49d (size before relaxing)
 .debug_str     0x00003b83      0x141 build/obj/mf_rlefont.o
                                0x568 (size before relaxing)
 .debug_str     0x00003cc4       0xbe build/obj/mf_bwfont.o
                                0x4ca (size before relaxing)
 .debug_str     0x00003d82       0xc4 build/obj/mf_scaledfont.o
                                0x446 (size before relaxing)
 .debug_str     0x00003e46      0x1c8 build/obj/gevent.o
                                0x680 (size before relaxing)
 .debug_str     0x0000400e      0x112 build/obj/gtimer.o
                                0x695 (size before relaxing)
 .debug_str     0x00004120      0x386 build/obj/gwin.o
                                0x9d9 (size before relaxing)
 .debug_str     0x000044a6      0x2fc build/obj/gwidget.o
                                0x9ab (size before relaxing)
 .debug_str     0x000047a2      0x126 build/obj/gwm.o
                                0x72c (size before relaxing)
 .debug_str     0x000048c8       0xf8 build/obj/console.o
                                0x531 (size before relaxing)
 .debug_str     0x000049c0       0xe8 build/obj/button.o
                                0x8ed (size before relaxing)
 .debug_str     0x00004aa8       0xee build/obj/slider.o
                                0x8ff (size before relaxing)
 .debug_str     0x00004b96       0xa5 build/obj/label.o
                                0x712 (size before relaxing)
 .debug_str     0x00004c3b       0x2f build/obj/ginput.o
                                0x263 (size before relaxing)
 .debug_str     0x00004c6a      0x2dc build/obj/mouse.o
                                0xbde (size before relaxing)
 .debug_str     0x00004f46      0x228 build/obj/gfile.o
                                0x4b8 (size before relaxing)
 .debug_str     0x0000516e      0x16a build/obj/gdisp_lld_SSD1289.o
                                0xb71 (size before relaxing)
 .debug_str     0x000052d8       0x99 build/obj/ginput_lld_mouse.o
                                0x757 (size before relaxing)
 .debug_str     0x00005371      0x4b0 build/obj/syscalls.o
                                0x728 (size before relaxing)
 .debug_str     0x00005821       0xa6 build/obj/chprintf.o
                                0x36c (size before relaxing)
 .debug_str     0x000058c7      0x223 build/obj/main.o
                               0x143c (size before relaxing)

.comment        0x00000000       0x70
 .comment       0x00000000       0x70 build/obj/crt0.o
                                 0x71 (size before relaxing)
 .comment       0x00000000       0x71 build/obj/vectors.o
 .comment       0x00000000       0x71 build/obj/chcore.o
 .comment       0x00000000       0x71 build/obj/chcore_v7m.o
 .comment       0x00000000       0x71 build/obj/nvic.o
 .comment       0x00000000       0x71 build/obj/chsys.o
 .comment       0x00000000       0x71 build/obj/chdebug.o
 .comment       0x00000000       0x71 build/obj/chlists.o
 .comment       0x00000000       0x71 build/obj/chvt.o
 .comment       0x00000000       0x71 build/obj/chschd.o
 .comment       0x00000000       0x71 build/obj/chthreads.o
 .comment       0x00000000       0x71 build/obj/chdynamic.o
 .comment       0x00000000       0x71 build/obj/chregistry.o
 .comment       0x00000000       0x71 build/obj/chsem.o
 .comment       0x00000000       0x71 build/obj/chmtx.o
 .comment       0x00000000       0x71 build/obj/chevents.o
 .comment       0x00000000       0x71 build/obj/chqueues.o
 .comment       0x00000000       0x71 build/obj/chmemcore.o
 .comment       0x00000000       0x71 build/obj/chheap.o
 .comment       0x00000000       0x71 build/obj/hal.o
 .comment       0x00000000       0x71 build/obj/adc.o
 .comment       0x00000000       0x71 build/obj/icu.o
 .comment       0x00000000       0x71 build/obj/pal.o
 .comment       0x00000000       0x71 build/obj/pwm.o
 .comment       0x00000000       0x71 build/obj/serial.o
 .comment       0x00000000       0x71 build/obj/spi.o
 .comment       0x00000000       0x71 build/obj/stm32_dma.o
 .comment       0x00000000       0x71 build/obj/hal_lld.o
 .comment       0x00000000       0x71 build/obj/adc_lld.o
 .comment       0x00000000       0x71 build/obj/pal_lld.o
 .comment       0x00000000       0x71 build/obj/spi_lld.o
 .comment       0x00000000       0x71 build/obj/icu_lld.o
 .comment       0x00000000       0x71 build/obj/pwm_lld.o
 .comment       0x00000000       0x71 build/obj/serial_lld.o
 .comment       0x00000000       0x71 build/obj/board.o
 .comment       0x00000000       0x71 build/obj/gfx.o
 .comment       0x00000000       0x71 build/obj/chibios.o
 .comment       0x00000000       0x71 build/obj/gqueue.o
 .comment       0x00000000       0x71 build/obj/gdisp.o
 .comment       0x00000000       0x71 build/obj/fonts.o
 .comment       0x00000000       0x71 build/obj/mf_encoding.o
 .comment       0x00000000       0x71 build/obj/mf_font.o
 .comment       0x00000000       0x71 build/obj/mf_justify.o
 .comment       0x00000000       0x71 build/obj/mf_rlefont.o
 .comment       0x00000000       0x71 build/obj/mf_bwfont.o
 .comment       0x00000000       0x71 build/obj/mf_scaledfont.o
 .comment       0x00000000       0x71 build/obj/gevent.o
 .comment       0x00000000       0x71 build/obj/gtimer.o
 .comment       0x00000000       0x71 build/obj/gwin.o
 .comment       0x00000000       0x71 build/obj/gwidget.o
 .comment       0x00000000       0x71 build/obj/gwm.o
 .comment       0x00000000       0x71 build/obj/console.o
 .comment       0x00000000       0x71 build/obj/button.o
 .comment       0x00000000       0x71 build/obj/slider.o
 .comment       0x00000000       0x71 build/obj/label.o
 .comment       0x00000000       0x71 build/obj/ginput.o
 .comment       0x00000000       0x71 build/obj/mouse.o
 .comment       0x00000000       0x71 build/obj/gfile.o
 .comment       0x00000000       0x71 build/obj/gdisp_lld_SSD1289.o
 .comment       0x00000000       0x71 build/obj/ginput_lld_mouse.o
 .comment       0x00000000       0x71 build/obj/syscalls.o
 .comment       0x00000000       0x71 build/obj/chprintf.o
 .comment       0x00000000       0x71 build/obj/main.o

.ARM.attributes
                0x00000000       0x37
 .ARM.attributes
                0x00000000       0x39 build/obj/crt0.o
 .ARM.attributes
                0x00000039       0x39 build/obj/vectors.o
 .ARM.attributes
                0x00000072       0x39 build/obj/chcore.o
 .ARM.attributes
                0x000000ab       0x39 build/obj/chcore_v7m.o
 .ARM.attributes
                0x000000e4       0x39 build/obj/nvic.o
 .ARM.attributes
                0x0000011d       0x39 build/obj/chsys.o
 .ARM.attributes
                0x00000156       0x39 build/obj/chdebug.o
 .ARM.attributes
                0x0000018f       0x39 build/obj/chlists.o
 .ARM.attributes
                0x000001c8       0x39 build/obj/chvt.o
 .ARM.attributes
                0x00000201       0x39 build/obj/chschd.o
 .ARM.attributes
                0x0000023a       0x39 build/obj/chthreads.o
 .ARM.attributes
                0x00000273       0x39 build/obj/chdynamic.o
 .ARM.attributes
                0x000002ac       0x39 build/obj/chregistry.o
 .ARM.attributes
                0x000002e5       0x39 build/obj/chsem.o
 .ARM.attributes
                0x0000031e       0x39 build/obj/chmtx.o
 .ARM.attributes
                0x00000357       0x39 build/obj/chevents.o
 .ARM.attributes
                0x00000390       0x39 build/obj/chqueues.o
 .ARM.attributes
                0x000003c9       0x39 build/obj/chmemcore.o
 .ARM.attributes
                0x00000402       0x39 build/obj/chheap.o
 .ARM.attributes
                0x0000043b       0x39 build/obj/hal.o
 .ARM.attributes
                0x00000474       0x39 build/obj/adc.o
 .ARM.attributes
                0x000004ad       0x39 build/obj/icu.o
 .ARM.attributes
                0x000004e6       0x39 build/obj/pal.o
 .ARM.attributes
                0x0000051f       0x39 build/obj/pwm.o
 .ARM.attributes
                0x00000558       0x39 build/obj/serial.o
 .ARM.attributes
                0x00000591       0x39 build/obj/spi.o
 .ARM.attributes
                0x000005ca       0x39 build/obj/stm32_dma.o
 .ARM.attributes
                0x00000603       0x39 build/obj/hal_lld.o
 .ARM.attributes
                0x0000063c       0x39 build/obj/adc_lld.o
 .ARM.attributes
                0x00000675       0x39 build/obj/pal_lld.o
 .ARM.attributes
                0x000006ae       0x39 build/obj/spi_lld.o
 .ARM.attributes
                0x000006e7       0x39 build/obj/icu_lld.o
 .ARM.attributes
                0x00000720       0x39 build/obj/pwm_lld.o
 .ARM.attributes
                0x00000759       0x39 build/obj/serial_lld.o
 .ARM.attributes
                0x00000792       0x39 build/obj/board.o
 .ARM.attributes
                0x000007cb       0x39 build/obj/gfx.o
 .ARM.attributes
                0x00000804       0x39 build/obj/chibios.o
 .ARM.attributes
                0x0000083d       0x39 build/obj/gqueue.o
 .ARM.attributes
                0x00000876       0x39 build/obj/gdisp.o
 .ARM.attributes
                0x000008af       0x39 build/obj/fonts.o
 .ARM.attributes
                0x000008e8       0x39 build/obj/mf_encoding.o
 .ARM.attributes
                0x00000921       0x39 build/obj/mf_font.o
 .ARM.attributes
                0x0000095a       0x39 build/obj/mf_justify.o
 .ARM.attributes
                0x00000993       0x39 build/obj/mf_rlefont.o
 .ARM.attributes
                0x000009cc       0x39 build/obj/mf_bwfont.o
 .ARM.attributes
                0x00000a05       0x39 build/obj/mf_scaledfont.o
 .ARM.attributes
                0x00000a3e       0x39 build/obj/gevent.o
 .ARM.attributes
                0x00000a77       0x39 build/obj/gtimer.o
 .ARM.attributes
                0x00000ab0       0x39 build/obj/gwin.o
 .ARM.attributes
                0x00000ae9       0x39 build/obj/gwidget.o
 .ARM.attributes
                0x00000b22       0x39 build/obj/gwm.o
 .ARM.attributes
                0x00000b5b       0x39 build/obj/console.o
 .ARM.attributes
                0x00000b94       0x39 build/obj/button.o
 .ARM.attributes
                0x00000bcd       0x39 build/obj/slider.o
 .ARM.attributes
                0x00000c06       0x39 build/obj/label.o
 .ARM.attributes
                0x00000c3f       0x39 build/obj/ginput.o
 .ARM.attributes
                0x00000c78       0x39 build/obj/mouse.o
 .ARM.attributes
                0x00000cb1       0x39 build/obj/gfile.o
 .ARM.attributes
                0x00000cea       0x39 build/obj/gdisp_lld_SSD1289.o
 .ARM.attributes
                0x00000d23       0x39 build/obj/ginput_lld_mouse.o
 .ARM.attributes
                0x00000d5c       0x39 build/obj/syscalls.o
 .ARM.attributes
                0x00000d95       0x39 build/obj/chprintf.o
 .ARM.attributes
                0x00000dce       0x39 build/obj/main.o
 .ARM.attributes
                0x00000e07       0x22 /opt/ARM/bin/../lib/gcc/arm-none-eabi/4.8.4/armv7e-m/fpu/libgcc.a(_aeabi_ldivmod.o)
 .ARM.attributes
                0x00000e29       0x22 /opt/ARM/bin/../lib/gcc/arm-none-eabi/4.8.4/armv7e-m/fpu/libgcc.a(_aeabi_uldivmod.o)
 .ARM.attributes
                0x00000e4b       0x34 /opt/ARM/bin/../lib/gcc/arm-none-eabi/4.8.4/armv7e-m/fpu/libgcc.a(bpabi.o)
 .ARM.attributes
                0x00000e7f       0x22 /opt/ARM/bin/../lib/gcc/arm-none-eabi/4.8.4/armv7e-m/fpu/libgcc.a(_dvmd_tls.o)
 .ARM.attributes
                0x00000ea1       0x34 /opt/ARM/bin/../lib/gcc/arm-none-eabi/4.8.4/armv7e-m/fpu/libgcc.a(_divdi3.o)
 .ARM.attributes
                0x00000ed5       0x34 /opt/ARM/bin/../lib/gcc/arm-none-eabi/4.8.4/armv7e-m/fpu/libgcc.a(_udivdi3.o)
 .ARM.attributes
                0x00000f09       0x20 /opt/ARM/bin/../lib/gcc/arm-none-eabi/4.8.4/../../../../arm-none-eabi/lib/armv7e-m/fpu/libg.a(lib_a-memcpy.o)
 .ARM.attributes
                0x00000f29       0x34 /opt/ARM/bin/../lib/gcc/arm-none-eabi/4.8.4/../../../../arm-none-eabi/lib/armv7e-m/fpu/libg.a(lib_a-memset.o)
 .ARM.attributes
                0x00000f5d       0x34 /opt/ARM/bin/../lib/gcc/arm-none-eabi/4.8.4/../../../../arm-none-eabi/lib/armv7e-m/fpu/libg.a(lib_a-sprintf.o)
 .ARM.attributes
                0x00000f91       0x20 /opt/ARM/bin/../lib/gcc/arm-none-eabi/4.8.4/../../../../arm-none-eabi/lib/armv7e-m/fpu/libg.a(lib_a-strcmp.o)
 .ARM.attributes
                0x00000fb1       0x34 /opt/ARM/bin/../lib/gcc/arm-none-eabi/4.8.4/../../../../arm-none-eabi/lib/armv7e-m/fpu/libg.a(lib_a-strcpy.o)
 .ARM.attributes
                0x00000fe5       0x34 /opt/ARM/bin/../lib/gcc/arm-none-eabi/4.8.4/../../../../arm-none-eabi/lib/armv7e-m/fpu/libg.a(lib_a-strlen.o)
 .ARM.attributes
                0x00001019       0x34 /opt/ARM/bin/../lib/gcc/arm-none-eabi/4.8.4/../../../../arm-none-eabi/lib/armv7e-m/fpu/libg.a(lib_a-strncat.o)
 .ARM.attributes
                0x0000104d       0x34 /opt/ARM/bin/../lib/gcc/arm-none-eabi/4.8.4/../../../../arm-none-eabi/lib/armv7e-m/fpu/libg.a(lib_a-svfprintf.o)
 .ARM.attributes
                0x00001081       0x34 /opt/ARM/bin/../lib/gcc/arm-none-eabi/4.8.4/../../../../arm-none-eabi/lib/armv7e-m/fpu/libg.a(lib_a-dtoa.o)
 .ARM.attributes
                0x000010b5       0x34 /opt/ARM/bin/../lib/gcc/arm-none-eabi/4.8.4/../../../../arm-none-eabi/lib/armv7e-m/fpu/libg.a(lib_a-impure.o)
 .ARM.attributes
                0x000010e9       0x34 /opt/ARM/bin/../lib/gcc/arm-none-eabi/4.8.4/../../../../arm-none-eabi/lib/armv7e-m/fpu/libg.a(lib_a-locale.o)
 .ARM.attributes
                0x0000111d       0x34 /opt/ARM/bin/../lib/gcc/arm-none-eabi/4.8.4/../../../../arm-none-eabi/lib/armv7e-m/fpu/libg.a(lib_a-mallocr.o)
 .ARM.attributes
                0x00001151       0x34 /opt/ARM/bin/../lib/gcc/arm-none-eabi/4.8.4/../../../../arm-none-eabi/lib/armv7e-m/fpu/libg.a(lib_a-memchr-stub.o)
 .ARM.attributes
                0x00001185       0x34 /opt/ARM/bin/../lib/gcc/arm-none-eabi/4.8.4/../../../../arm-none-eabi/lib/armv7e-m/fpu/libg.a(lib_a-mlock.o)
 .ARM.attributes
                0x000011b9       0x34 /opt/ARM/bin/../lib/gcc/arm-none-eabi/4.8.4/../../../../arm-none-eabi/lib/armv7e-m/fpu/libg.a(lib_a-mprec.o)
 .ARM.attributes
                0x000011ed       0x34 /opt/ARM/bin/../lib/gcc/arm-none-eabi/4.8.4/../../../../arm-none-eabi/lib/armv7e-m/fpu/libg.a(lib_a-s_fpclassify.o)
 .ARM.attributes
                0x00001221       0x34 /opt/ARM/bin/../lib/gcc/arm-none-eabi/4.8.4/../../../../arm-none-eabi/lib/armv7e-m/fpu/libg.a(lib_a-svfiprintf.o)
 .ARM.attributes
                0x00001255       0x34 /opt/ARM/bin/../lib/gcc/arm-none-eabi/4.8.4/../../../../arm-none-eabi/lib/armv7e-m/fpu/libg.a(lib_a-callocr.o)
 .ARM.attributes
                0x00001289       0x34 /opt/ARM/bin/../lib/gcc/arm-none-eabi/4.8.4/../../../../arm-none-eabi/lib/armv7e-m/fpu/libg.a(lib_a-freer.o)
 .ARM.attributes
                0x000012bd       0x34 /opt/ARM/bin/../lib/gcc/arm-none-eabi/4.8.4/../../../../arm-none-eabi/lib/armv7e-m/fpu/libg.a(lib_a-memmove.o)
 .ARM.attributes
                0x000012f1       0x34 /opt/ARM/bin/../lib/gcc/arm-none-eabi/4.8.4/../../../../arm-none-eabi/lib/armv7e-m/fpu/libg.a(lib_a-reallocr.o)
 .ARM.attributes
                0x00001325       0x22 /opt/ARM/bin/../lib/gcc/arm-none-eabi/4.8.4/armv7e-m/fpu/libgcc.a(_arm_addsubdf3.o)
 .ARM.attributes
                0x00001347       0x22 /opt/ARM/bin/../lib/gcc/arm-none-eabi/4.8.4/armv7e-m/fpu/libgcc.a(_arm_muldivdf3.o)
 .ARM.attributes
                0x00001369       0x22 /opt/ARM/bin/../lib/gcc/arm-none-eabi/4.8.4/armv7e-m/fpu/libgcc.a(_arm_cmpdf2.o)
 .ARM.attributes
                0x0000138b       0x22 /opt/ARM/bin/../lib/gcc/arm-none-eabi/4.8.4/armv7e-m/fpu/libgcc.a(_arm_fixdfsi.o)

.debug_frame    0x00000000     0x4480
 .debug_frame   0x00000000       0x50 build/obj/crt0.o
 .debug_frame   0x00000050       0x20 build/obj/vectors.o
 .debug_frame   0x00000070       0x20 build/obj/chcore.o
 .debug_frame   0x00000090       0xd0 build/obj/chcore_v7m.o
 .debug_frame   0x00000160       0x64 build/obj/nvic.o
 .debug_frame   0x000001c4       0x5c build/obj/chsys.o
 .debug_frame   0x00000220       0x48 build/obj/chdebug.o
 .debug_frame   0x00000268       0x88 build/obj/chlists.o
 .debug_frame   0x000002f0       0x64 build/obj/chvt.o
 .debug_frame   0x00000354      0x120 build/obj/chschd.o
 .debug_frame   0x00000474      0x1a4 build/obj/chthreads.o
 .debug_frame   0x00000618       0x9c build/obj/chdynamic.o
 .debug_frame   0x000006b4       0x48 build/obj/chregistry.o
 .debug_frame   0x000006fc      0x15c build/obj/chsem.o
 .debug_frame   0x00000858      0x100 build/obj/chmtx.o
 .debug_frame   0x00000958      0x1a8 build/obj/chevents.o
 .debug_frame   0x00000b00      0x17c build/obj/chqueues.o
 .debug_frame   0x00000c7c       0x58 build/obj/chmemcore.o
 .debug_frame   0x00000cd4       0xb0 build/obj/chheap.o
 .debug_frame   0x00000d84       0x4c build/obj/hal.o
 .debug_frame   0x00000dd0      0x148 build/obj/adc.o
 .debug_frame   0x00000f18       0xa4 build/obj/icu.o
 .debug_frame   0x00000fbc       0x6c build/obj/pal.o
 .debug_frame   0x00001028       0xcc build/obj/pwm.o
 .debug_frame   0x000010f4      0x140 build/obj/serial.o
 .debug_frame   0x00001234      0x1ec build/obj/spi.o
 .debug_frame   0x00001420      0x234 build/obj/stm32_dma.o
 .debug_frame   0x00001654       0x44 build/obj/hal_lld.o
 .debug_frame   0x00001698      0x128 build/obj/adc_lld.o
 .debug_frame   0x000017c0       0x68 build/obj/pal_lld.o
 .debug_frame   0x00001828      0x13c build/obj/spi_lld.o
 .debug_frame   0x00001964       0xb0 build/obj/icu_lld.o
 .debug_frame   0x00001a14       0xb0 build/obj/pwm_lld.o
 .debug_frame   0x00001ac4       0x94 build/obj/serial_lld.o
 .debug_frame   0x00001b58       0x30 build/obj/board.o
 .debug_frame   0x00001b88       0x48 build/obj/gfx.o
 .debug_frame   0x00001bd0      0x110 build/obj/chibios.o
 .debug_frame   0x00001ce0      0x148 build/obj/gqueue.o
 .debug_frame   0x00001e28      0x42c build/obj/gdisp.o
 .debug_frame   0x00002254       0x88 build/obj/fonts.o
 .debug_frame   0x000022dc       0x40 build/obj/mf_encoding.o
 .debug_frame   0x0000231c       0x84 build/obj/mf_font.o
 .debug_frame   0x000023a0       0xe4 build/obj/mf_justify.o
 .debug_frame   0x00002484       0xc8 build/obj/mf_rlefont.o
 .debug_frame   0x0000254c       0x60 build/obj/mf_bwfont.o
 .debug_frame   0x000025ac       0xb0 build/obj/mf_scaledfont.o
 .debug_frame   0x0000265c      0x170 build/obj/gevent.o
 .debug_frame   0x000027cc      0x10c build/obj/gtimer.o
 .debug_frame   0x000028d8      0x40c build/obj/gwin.o
 .debug_frame   0x00002ce4      0x1c8 build/obj/gwidget.o
 .debug_frame   0x00002eac      0x1e4 build/obj/gwm.o
 .debug_frame   0x00003090      0x10c build/obj/console.o
 .debug_frame   0x0000319c       0xcc build/obj/button.o
 .debug_frame   0x00003268      0x118 build/obj/slider.o
 .debug_frame   0x00003380       0x70 build/obj/label.o
 .debug_frame   0x000033f0       0x30 build/obj/ginput.o
 .debug_frame   0x00003420      0x1a4 build/obj/mouse.o
 .debug_frame   0x000035c4      0x2b8 build/obj/gfile.o
 .debug_frame   0x0000387c      0x164 build/obj/gdisp_lld_SSD1289.o
 .debug_frame   0x000039e0       0x60 build/obj/ginput_lld_mouse.o
 .debug_frame   0x00003a40       0x9c build/obj/syscalls.o
 .debug_frame   0x00003adc       0x8c build/obj/chprintf.o
 .debug_frame   0x00003b68      0x204 build/obj/main.o
 .debug_frame   0x00003d6c       0x50 /opt/ARM/bin/../lib/gcc/arm-none-eabi/4.8.4/armv7e-m/fpu/libgcc.a(bpabi.o)
 .debug_frame   0x00003dbc       0x34 /opt/ARM/bin/../lib/gcc/arm-none-eabi/4.8.4/armv7e-m/fpu/libgcc.a(_divdi3.o)
 .debug_frame   0x00003df0       0x34 /opt/ARM/bin/../lib/gcc/arm-none-eabi/4.8.4/armv7e-m/fpu/libgcc.a(_udivdi3.o)
 .debug_frame   0x00003e24       0x2c /opt/ARM/bin/../lib/gcc/arm-none-eabi/4.8.4/../../../../arm-none-eabi/lib/armv7e-m/fpu/libg.a(lib_a-memset.o)
 .debug_frame   0x00003e50       0x64 /opt/ARM/bin/../lib/gcc/arm-none-eabi/4.8.4/../../../../arm-none-eabi/lib/armv7e-m/fpu/libg.a(lib_a-sprintf.o)
 .debug_frame   0x00003eb4       0x20 /opt/ARM/bin/../lib/gcc/arm-none-eabi/4.8.4/../../../../arm-none-eabi/lib/armv7e-m/fpu/libg.a(lib_a-strcpy.o)
 .debug_frame   0x00003ed4       0x20 /opt/ARM/bin/../lib/gcc/arm-none-eabi/4.8.4/../../../../arm-none-eabi/lib/armv7e-m/fpu/libg.a(lib_a-strlen.o)
 .debug_frame   0x00003ef4       0x2c /opt/ARM/bin/../lib/gcc/arm-none-eabi/4.8.4/../../../../arm-none-eabi/lib/armv7e-m/fpu/libg.a(lib_a-strncat.o)
 .debug_frame   0x00003f20       0x3c /opt/ARM/bin/../lib/gcc/arm-none-eabi/4.8.4/../../../../arm-none-eabi/lib/armv7e-m/fpu/libg.a(lib_a-svfprintf.o)
 .debug_frame   0x00003f5c       0x64 /opt/ARM/bin/../lib/gcc/arm-none-eabi/4.8.4/../../../../arm-none-eabi/lib/armv7e-m/fpu/libg.a(lib_a-dtoa.o)
 .debug_frame   0x00003fc0       0x98 /opt/ARM/bin/../lib/gcc/arm-none-eabi/4.8.4/../../../../arm-none-eabi/lib/armv7e-m/fpu/libg.a(lib_a-locale.o)
 .debug_frame   0x00004058       0x38 /opt/ARM/bin/../lib/gcc/arm-none-eabi/4.8.4/../../../../arm-none-eabi/lib/armv7e-m/fpu/libg.a(lib_a-mallocr.o)
 .debug_frame   0x00004090       0x2c /opt/ARM/bin/../lib/gcc/arm-none-eabi/4.8.4/../../../../arm-none-eabi/lib/armv7e-m/fpu/libg.a(lib_a-memchr-stub.o)
 .debug_frame   0x000040bc       0x30 /opt/ARM/bin/../lib/gcc/arm-none-eabi/4.8.4/../../../../arm-none-eabi/lib/armv7e-m/fpu/libg.a(lib_a-mlock.o)
 .debug_frame   0x000040ec      0x22c /opt/ARM/bin/../lib/gcc/arm-none-eabi/4.8.4/../../../../arm-none-eabi/lib/armv7e-m/fpu/libg.a(lib_a-mprec.o)
 .debug_frame   0x00004318       0x28 /opt/ARM/bin/../lib/gcc/arm-none-eabi/4.8.4/../../../../arm-none-eabi/lib/armv7e-m/fpu/libg.a(lib_a-s_fpclassify.o)
 .debug_frame   0x00004340       0x64 /opt/ARM/bin/../lib/gcc/arm-none-eabi/4.8.4/../../../../arm-none-eabi/lib/armv7e-m/fpu/libg.a(lib_a-svfiprintf.o)
 .debug_frame   0x000043a4       0x28 /opt/ARM/bin/../lib/gcc/arm-none-eabi/4.8.4/../../../../arm-none-eabi/lib/armv7e-m/fpu/libg.a(lib_a-callocr.o)
 .debug_frame   0x000043cc       0x50 /opt/ARM/bin/../lib/gcc/arm-none-eabi/4.8.4/../../../../arm-none-eabi/lib/armv7e-m/fpu/libg.a(lib_a-freer.o)
 .debug_frame   0x0000441c       0x2c /opt/ARM/bin/../lib/gcc/arm-none-eabi/4.8.4/../../../../arm-none-eabi/lib/armv7e-m/fpu/libg.a(lib_a-memmove.o)
 .debug_frame   0x00004448       0x38 /opt/ARM/bin/../lib/gcc/arm-none-eabi/4.8.4/../../../../arm-none-eabi/lib/armv7e-m/fpu/libg.a(lib_a-reallocr.o)

Cross Reference Table

Symbol                                            File
ADC2status                                        build/obj/main.o
ADCD1                                             build/obj/adc_lld.o
                                                  build/obj/main.o
ADCD2                                             build/obj/adc_lld.o
BlackWidgetStyle                                  build/obj/gwidget.o
BusFaultVector                                    build/obj/vectors.o
DebugMonitorVector                                build/obj/vectors.o
GDISP                                             build/obj/gdisp.o
                                                  build/obj/main.o
                                                  build/obj/mouse.o
HardFaultVector                                   build/obj/vectors.o
ICUD5                                             build/obj/icu_lld.o
                                                  build/obj/main.o
ICUinit                                           build/obj/main.o
MemManageVector                                   build/obj/vectors.o
NMIVector                                         build/obj/vectors.o
PWMD3                                             build/obj/pwm_lld.o
                                                  build/obj/gdisp_lld_SSD1289.o
PendSVVector                                      build/obj/vectors.o
ResetHandler                                      build/obj/crt0.o
                                                  build/obj/vectors.o
Result                                            build/obj/main.o
SD2                                               build/obj/serial_lld.o
                                                  build/obj/main.o
SPID2                                             build/obj/spi_lld.o
                                                  build/obj/ginput_lld_mouse.o
SVCallVector                                      build/obj/chcore_v7m.o
                                                  build/obj/vectors.o
SysTickVector                                     build/obj/chcore_v7m.o
                                                  build/obj/vectors.o
UsageFaultVector                                  build/obj/vectors.o
VREFMeasured                                      build/obj/main.o
Vector100                                         build/obj/vectors.o
Vector104                                         build/obj/vectors.o
Vector108                                         build/obj/icu_lld.o
                                                  build/obj/vectors.o
Vector10C                                         build/obj/vectors.o
Vector110                                         build/obj/vectors.o
Vector114                                         build/obj/vectors.o
Vector118                                         build/obj/vectors.o
Vector11C                                         build/obj/vectors.o
Vector120                                         build/obj/stm32_dma.o
                                                  build/obj/vectors.o
Vector124                                         build/obj/stm32_dma.o
                                                  build/obj/vectors.o
Vector128                                         build/obj/stm32_dma.o
                                                  build/obj/vectors.o
Vector12C                                         build/obj/stm32_dma.o
                                                  build/obj/vectors.o
Vector130                                         build/obj/stm32_dma.o
                                                  build/obj/vectors.o
Vector134                                         build/obj/vectors.o
Vector138                                         build/obj/vectors.o
Vector13C                                         build/obj/vectors.o
Vector140                                         build/obj/vectors.o
Vector144                                         build/obj/vectors.o
Vector148                                         build/obj/vectors.o
Vector14C                                         build/obj/vectors.o
Vector150                                         build/obj/stm32_dma.o
                                                  build/obj/vectors.o
Vector154                                         build/obj/stm32_dma.o
                                                  build/obj/vectors.o
Vector158                                         build/obj/stm32_dma.o
                                                  build/obj/vectors.o
Vector15C                                         build/obj/vectors.o
Vector160                                         build/obj/vectors.o
Vector164                                         build/obj/vectors.o
Vector168                                         build/obj/vectors.o
Vector16C                                         build/obj/vectors.o
Vector170                                         build/obj/vectors.o
Vector174                                         build/obj/vectors.o
Vector178                                         build/obj/vectors.o
Vector17C                                         build/obj/vectors.o
Vector180                                         build/obj/vectors.o
Vector184                                         build/obj/vectors.o
Vector188                                         build/obj/vectors.o
Vector18C                                         build/obj/vectors.o
Vector190                                         build/obj/vectors.o
Vector194                                         build/obj/vectors.o
Vector198                                         build/obj/vectors.o
Vector19C                                         build/obj/vectors.o
Vector1A0                                         build/obj/vectors.o
Vector1A4                                         build/obj/vectors.o
Vector1A8                                         build/obj/vectors.o
Vector1C                                          build/obj/vectors.o
Vector20                                          build/obj/vectors.o
Vector24                                          build/obj/vectors.o
Vector28                                          build/obj/vectors.o
Vector34                                          build/obj/vectors.o
Vector40                                          build/obj/vectors.o
Vector44                                          build/obj/vectors.o
Vector48                                          build/obj/vectors.o
Vector4C                                          build/obj/vectors.o
Vector50                                          build/obj/vectors.o
Vector54                                          build/obj/vectors.o
Vector58                                          build/obj/vectors.o
Vector5C                                          build/obj/vectors.o
Vector60                                          build/obj/vectors.o
Vector64                                          build/obj/vectors.o
Vector68                                          build/obj/vectors.o
Vector6C                                          build/obj/stm32_dma.o
                                                  build/obj/vectors.o
Vector70                                          build/obj/stm32_dma.o
                                                  build/obj/vectors.o
Vector74                                          build/obj/stm32_dma.o
                                                  build/obj/vectors.o
Vector78                                          build/obj/stm32_dma.o
                                                  build/obj/vectors.o
Vector7C                                          build/obj/stm32_dma.o
                                                  build/obj/vectors.o
Vector80                                          build/obj/stm32_dma.o
                                                  build/obj/vectors.o
Vector84                                          build/obj/stm32_dma.o
                                                  build/obj/vectors.o
Vector88                                          build/obj/adc_lld.o
                                                  build/obj/vectors.o
Vector8C                                          build/obj/vectors.o
Vector90                                          build/obj/vectors.o
Vector94                                          build/obj/vectors.o
Vector98                                          build/obj/vectors.o
Vector9C                                          build/obj/vectors.o
VectorA0                                          build/obj/vectors.o
VectorA4                                          build/obj/vectors.o
VectorA8                                          build/obj/vectors.o
VectorAC                                          build/obj/vectors.o
VectorB0                                          build/obj/vectors.o
VectorB4                                          build/obj/pwm_lld.o
                                                  build/obj/vectors.o
VectorB8                                          build/obj/vectors.o
VectorBC                                          build/obj/vectors.o
VectorC0                                          build/obj/vectors.o
VectorC4                                          build/obj/vectors.o
VectorC8                                          build/obj/vectors.o
VectorCC                                          build/obj/vectors.o
VectorD0                                          build/obj/vectors.o
VectorD4                                          build/obj/vectors.o
VectorD8                                          build/obj/serial_lld.o
                                                  build/obj/vectors.o
VectorDC                                          build/obj/vectors.o
VectorE0                                          build/obj/vectors.o
VectorE4                                          build/obj/vectors.o
VectorE8                                          build/obj/vectors.o
VectorEC                                          build/obj/vectors.o
VectorF0                                          build/obj/vectors.o
VectorF4                                          build/obj/vectors.o
VectorF8                                          build/obj/vectors.o
VectorFC                                          build/obj/stm32_dma.o
                                                  build/obj/vectors.o
WhiteWidgetStyle                                  build/obj/gwidget.o
                                                  build/obj/main.o
_Balloc                                           /opt/ARM/bin/../lib/gcc/arm-none-eabi/4.8.4/../../../../arm-none-eabi/lib/armv7e-m/fpu/libg.a(lib_a-mprec.o)
                                                  /opt/ARM/bin/../lib/gcc/arm-none-eabi/4.8.4/../../../../arm-none-eabi/lib/armv7e-m/fpu/libg.a(lib_a-dtoa.o)
_Bfree                                            /opt/ARM/bin/../lib/gcc/arm-none-eabi/4.8.4/../../../../arm-none-eabi/lib/armv7e-m/fpu/libg.a(lib_a-mprec.o)
                                                  /opt/ARM/bin/../lib/gcc/arm-none-eabi/4.8.4/../../../../arm-none-eabi/lib/armv7e-m/fpu/libg.a(lib_a-dtoa.o)
_GWINwm                                           build/obj/gwm.o
                                                  build/obj/gwin.o
_PathLocale                                       /opt/ARM/bin/../lib/gcc/arm-none-eabi/4.8.4/../../../../arm-none-eabi/lib/armv7e-m/fpu/libg.a(lib_a-locale.o)
__adddf3                                          /opt/ARM/bin/../lib/gcc/arm-none-eabi/4.8.4/armv7e-m/fpu/libgcc.a(_arm_addsubdf3.o)
__aeabi_cdcmpeq                                   /opt/ARM/bin/../lib/gcc/arm-none-eabi/4.8.4/armv7e-m/fpu/libgcc.a(_arm_cmpdf2.o)
__aeabi_cdcmple                                   /opt/ARM/bin/../lib/gcc/arm-none-eabi/4.8.4/armv7e-m/fpu/libgcc.a(_arm_cmpdf2.o)
__aeabi_cdrcmple                                  /opt/ARM/bin/../lib/gcc/arm-none-eabi/4.8.4/armv7e-m/fpu/libgcc.a(_arm_cmpdf2.o)
__aeabi_d2iz                                      /opt/ARM/bin/../lib/gcc/arm-none-eabi/4.8.4/armv7e-m/fpu/libgcc.a(_arm_fixdfsi.o)
                                                  /opt/ARM/bin/../lib/gcc/arm-none-eabi/4.8.4/../../../../arm-none-eabi/lib/armv7e-m/fpu/libg.a(lib_a-dtoa.o)
__aeabi_dadd                                      /opt/ARM/bin/../lib/gcc/arm-none-eabi/4.8.4/armv7e-m/fpu/libgcc.a(_arm_addsubdf3.o)
                                                  /opt/ARM/bin/../lib/gcc/arm-none-eabi/4.8.4/../../../../arm-none-eabi/lib/armv7e-m/fpu/libg.a(lib_a-dtoa.o)
__aeabi_dcmpeq                                    /opt/ARM/bin/../lib/gcc/arm-none-eabi/4.8.4/armv7e-m/fpu/libgcc.a(_arm_cmpdf2.o)
                                                  /opt/ARM/bin/../lib/gcc/arm-none-eabi/4.8.4/../../../../arm-none-eabi/lib/armv7e-m/fpu/libg.a(lib_a-dtoa.o)
                                                  /opt/ARM/bin/../lib/gcc/arm-none-eabi/4.8.4/../../../../arm-none-eabi/lib/armv7e-m/fpu/libg.a(lib_a-svfprintf.o)
__aeabi_dcmpge                                    /opt/ARM/bin/../lib/gcc/arm-none-eabi/4.8.4/armv7e-m/fpu/libgcc.a(_arm_cmpdf2.o)
                                                  /opt/ARM/bin/../lib/gcc/arm-none-eabi/4.8.4/../../../../arm-none-eabi/lib/armv7e-m/fpu/libg.a(lib_a-dtoa.o)
__aeabi_dcmpgt                                    /opt/ARM/bin/../lib/gcc/arm-none-eabi/4.8.4/armv7e-m/fpu/libgcc.a(_arm_cmpdf2.o)
                                                  /opt/ARM/bin/../lib/gcc/arm-none-eabi/4.8.4/../../../../arm-none-eabi/lib/armv7e-m/fpu/libg.a(lib_a-dtoa.o)
__aeabi_dcmple                                    /opt/ARM/bin/../lib/gcc/arm-none-eabi/4.8.4/armv7e-m/fpu/libgcc.a(_arm_cmpdf2.o)
__aeabi_dcmplt                                    /opt/ARM/bin/../lib/gcc/arm-none-eabi/4.8.4/armv7e-m/fpu/libgcc.a(_arm_cmpdf2.o)
                                                  /opt/ARM/bin/../lib/gcc/arm-none-eabi/4.8.4/../../../../arm-none-eabi/lib/armv7e-m/fpu/libg.a(lib_a-dtoa.o)
                                                  /opt/ARM/bin/../lib/gcc/arm-none-eabi/4.8.4/../../../../arm-none-eabi/lib/armv7e-m/fpu/libg.a(lib_a-svfprintf.o)
__aeabi_ddiv                                      /opt/ARM/bin/../lib/gcc/arm-none-eabi/4.8.4/armv7e-m/fpu/libgcc.a(_arm_muldivdf3.o)
                                                  /opt/ARM/bin/../lib/gcc/arm-none-eabi/4.8.4/../../../../arm-none-eabi/lib/armv7e-m/fpu/libg.a(lib_a-mprec.o)
                                                  /opt/ARM/bin/../lib/gcc/arm-none-eabi/4.8.4/../../../../arm-none-eabi/lib/armv7e-m/fpu/libg.a(lib_a-dtoa.o)
__aeabi_dmul                                      /opt/ARM/bin/../lib/gcc/arm-none-eabi/4.8.4/armv7e-m/fpu/libgcc.a(_arm_muldivdf3.o)
                                                  /opt/ARM/bin/../lib/gcc/arm-none-eabi/4.8.4/../../../../arm-none-eabi/lib/armv7e-m/fpu/libg.a(lib_a-mprec.o)
                                                  /opt/ARM/bin/../lib/gcc/arm-none-eabi/4.8.4/../../../../arm-none-eabi/lib/armv7e-m/fpu/libg.a(lib_a-dtoa.o)
__aeabi_drsub                                     /opt/ARM/bin/../lib/gcc/arm-none-eabi/4.8.4/armv7e-m/fpu/libgcc.a(_arm_addsubdf3.o)
__aeabi_dsub                                      /opt/ARM/bin/../lib/gcc/arm-none-eabi/4.8.4/armv7e-m/fpu/libgcc.a(_arm_addsubdf3.o)
                                                  /opt/ARM/bin/../lib/gcc/arm-none-eabi/4.8.4/../../../../arm-none-eabi/lib/armv7e-m/fpu/libg.a(lib_a-dtoa.o)
__aeabi_f2d                                       /opt/ARM/bin/../lib/gcc/arm-none-eabi/4.8.4/armv7e-m/fpu/libgcc.a(_arm_addsubdf3.o)
__aeabi_i2d                                       /opt/ARM/bin/../lib/gcc/arm-none-eabi/4.8.4/armv7e-m/fpu/libgcc.a(_arm_addsubdf3.o)
                                                  /opt/ARM/bin/../lib/gcc/arm-none-eabi/4.8.4/../../../../arm-none-eabi/lib/armv7e-m/fpu/libg.a(lib_a-dtoa.o)
__aeabi_idiv0                                     /opt/ARM/bin/../lib/gcc/arm-none-eabi/4.8.4/armv7e-m/fpu/libgcc.a(_dvmd_tls.o)
__aeabi_l2d                                       /opt/ARM/bin/../lib/gcc/arm-none-eabi/4.8.4/armv7e-m/fpu/libgcc.a(_arm_addsubdf3.o)
__aeabi_ldiv0                                     /opt/ARM/bin/../lib/gcc/arm-none-eabi/4.8.4/armv7e-m/fpu/libgcc.a(_dvmd_tls.o)
                                                  /opt/ARM/bin/../lib/gcc/arm-none-eabi/4.8.4/armv7e-m/fpu/libgcc.a(_aeabi_uldivmod.o)
                                                  /opt/ARM/bin/../lib/gcc/arm-none-eabi/4.8.4/armv7e-m/fpu/libgcc.a(_aeabi_ldivmod.o)
__aeabi_ldivmod                                   /opt/ARM/bin/../lib/gcc/arm-none-eabi/4.8.4/armv7e-m/fpu/libgcc.a(_aeabi_ldivmod.o)
                                                  build/obj/main.o
__aeabi_ui2d                                      /opt/ARM/bin/../lib/gcc/arm-none-eabi/4.8.4/armv7e-m/fpu/libgcc.a(_arm_addsubdf3.o)
                                                  /opt/ARM/bin/../lib/gcc/arm-none-eabi/4.8.4/../../../../arm-none-eabi/lib/armv7e-m/fpu/libg.a(lib_a-dtoa.o)
__aeabi_ul2d                                      /opt/ARM/bin/../lib/gcc/arm-none-eabi/4.8.4/armv7e-m/fpu/libgcc.a(_arm_addsubdf3.o)
__aeabi_uldivmod                                  /opt/ARM/bin/../lib/gcc/arm-none-eabi/4.8.4/armv7e-m/fpu/libgcc.a(_aeabi_uldivmod.o)
                                                  /opt/ARM/bin/../lib/gcc/arm-none-eabi/4.8.4/../../../../arm-none-eabi/lib/armv7e-m/fpu/libg.a(lib_a-svfiprintf.o)
                                                  /opt/ARM/bin/../lib/gcc/arm-none-eabi/4.8.4/../../../../arm-none-eabi/lib/armv7e-m/fpu/libg.a(lib_a-svfprintf.o)
                                                  build/obj/main.o
__any_on                                          /opt/ARM/bin/../lib/gcc/arm-none-eabi/4.8.4/../../../../arm-none-eabi/lib/armv7e-m/fpu/libg.a(lib_a-mprec.o)
__b2d                                             /opt/ARM/bin/../lib/gcc/arm-none-eabi/4.8.4/../../../../arm-none-eabi/lib/armv7e-m/fpu/libg.a(lib_a-mprec.o)
__cmpdf2                                          /opt/ARM/bin/../lib/gcc/arm-none-eabi/4.8.4/armv7e-m/fpu/libgcc.a(_arm_cmpdf2.o)
__copybits                                        /opt/ARM/bin/../lib/gcc/arm-none-eabi/4.8.4/../../../../arm-none-eabi/lib/armv7e-m/fpu/libg.a(lib_a-mprec.o)
__d2b                                             /opt/ARM/bin/../lib/gcc/arm-none-eabi/4.8.4/../../../../arm-none-eabi/lib/armv7e-m/fpu/libg.a(lib_a-mprec.o)
                                                  /opt/ARM/bin/../lib/gcc/arm-none-eabi/4.8.4/../../../../arm-none-eabi/lib/armv7e-m/fpu/libg.a(lib_a-dtoa.o)
__divdf3                                          /opt/ARM/bin/../lib/gcc/arm-none-eabi/4.8.4/armv7e-m/fpu/libgcc.a(_arm_muldivdf3.o)
__divdi3                                          /opt/ARM/bin/../lib/gcc/arm-none-eabi/4.8.4/armv7e-m/fpu/libgcc.a(_divdi3.o)
                                                  /opt/ARM/bin/../lib/gcc/arm-none-eabi/4.8.4/armv7e-m/fpu/libgcc.a(bpabi.o)
__early_init                                      build/obj/board.o
                                                  build/obj/crt0.o
__eqdf2                                           /opt/ARM/bin/../lib/gcc/arm-none-eabi/4.8.4/armv7e-m/fpu/libgcc.a(_arm_cmpdf2.o)
__extendsfdf2                                     /opt/ARM/bin/../lib/gcc/arm-none-eabi/4.8.4/armv7e-m/fpu/libgcc.a(_arm_addsubdf3.o)
__fini_array_end                                  build/obj/crt0.o
__fini_array_start                                build/obj/crt0.o
__fixdfsi                                         /opt/ARM/bin/../lib/gcc/arm-none-eabi/4.8.4/armv7e-m/fpu/libgcc.a(_arm_fixdfsi.o)
__floatdidf                                       /opt/ARM/bin/../lib/gcc/arm-none-eabi/4.8.4/armv7e-m/fpu/libgcc.a(_arm_addsubdf3.o)
__floatsidf                                       /opt/ARM/bin/../lib/gcc/arm-none-eabi/4.8.4/armv7e-m/fpu/libgcc.a(_arm_addsubdf3.o)
__floatundidf                                     /opt/ARM/bin/../lib/gcc/arm-none-eabi/4.8.4/armv7e-m/fpu/libgcc.a(_arm_addsubdf3.o)
__floatunsidf                                     /opt/ARM/bin/../lib/gcc/arm-none-eabi/4.8.4/armv7e-m/fpu/libgcc.a(_arm_addsubdf3.o)
__fpclassifyd                                     /opt/ARM/bin/../lib/gcc/arm-none-eabi/4.8.4/../../../../arm-none-eabi/lib/armv7e-m/fpu/libg.a(lib_a-s_fpclassify.o)
                                                  /opt/ARM/bin/../lib/gcc/arm-none-eabi/4.8.4/../../../../arm-none-eabi/lib/armv7e-m/fpu/libg.a(lib_a-svfprintf.o)
__gedf2                                           /opt/ARM/bin/../lib/gcc/arm-none-eabi/4.8.4/armv7e-m/fpu/libgcc.a(_arm_cmpdf2.o)
__gnu_ldivmod_helper                              /opt/ARM/bin/../lib/gcc/arm-none-eabi/4.8.4/armv7e-m/fpu/libgcc.a(bpabi.o)
                                                  /opt/ARM/bin/../lib/gcc/arm-none-eabi/4.8.4/armv7e-m/fpu/libgcc.a(_aeabi_ldivmod.o)
__gnu_uldivmod_helper                             /opt/ARM/bin/../lib/gcc/arm-none-eabi/4.8.4/armv7e-m/fpu/libgcc.a(bpabi.o)
                                                  /opt/ARM/bin/../lib/gcc/arm-none-eabi/4.8.4/armv7e-m/fpu/libgcc.a(_aeabi_uldivmod.o)
__gtdf2                                           /opt/ARM/bin/../lib/gcc/arm-none-eabi/4.8.4/armv7e-m/fpu/libgcc.a(_arm_cmpdf2.o)
__heap_base__                                     build/obj/chmemcore.o
__heap_end__                                      build/obj/chmemcore.o
__hi0bits                                         /opt/ARM/bin/../lib/gcc/arm-none-eabi/4.8.4/../../../../arm-none-eabi/lib/armv7e-m/fpu/libg.a(lib_a-mprec.o)
                                                  /opt/ARM/bin/../lib/gcc/arm-none-eabi/4.8.4/../../../../arm-none-eabi/lib/armv7e-m/fpu/libg.a(lib_a-dtoa.o)
__i2b                                             /opt/ARM/bin/../lib/gcc/arm-none-eabi/4.8.4/../../../../arm-none-eabi/lib/armv7e-m/fpu/libg.a(lib_a-mprec.o)
                                                  /opt/ARM/bin/../lib/gcc/arm-none-eabi/4.8.4/../../../../arm-none-eabi/lib/armv7e-m/fpu/libg.a(lib_a-dtoa.o)
__init_array_end                                  build/obj/crt0.o
__init_array_start                                build/obj/crt0.o
__late_init                                       build/obj/crt0.o
__ledf2                                           /opt/ARM/bin/../lib/gcc/arm-none-eabi/4.8.4/armv7e-m/fpu/libgcc.a(_arm_cmpdf2.o)
__lo0bits                                         /opt/ARM/bin/../lib/gcc/arm-none-eabi/4.8.4/../../../../arm-none-eabi/lib/armv7e-m/fpu/libg.a(lib_a-mprec.o)
__locale_charset                                  /opt/ARM/bin/../lib/gcc/arm-none-eabi/4.8.4/../../../../arm-none-eabi/lib/armv7e-m/fpu/libg.a(lib_a-locale.o)
__locale_cjk_lang                                 /opt/ARM/bin/../lib/gcc/arm-none-eabi/4.8.4/../../../../arm-none-eabi/lib/armv7e-m/fpu/libg.a(lib_a-locale.o)
__locale_mb_cur_max                               /opt/ARM/bin/../lib/gcc/arm-none-eabi/4.8.4/../../../../arm-none-eabi/lib/armv7e-m/fpu/libg.a(lib_a-locale.o)
__locale_msgcharset                               /opt/ARM/bin/../lib/gcc/arm-none-eabi/4.8.4/../../../../arm-none-eabi/lib/armv7e-m/fpu/libg.a(lib_a-locale.o)
__lshift                                          /opt/ARM/bin/../lib/gcc/arm-none-eabi/4.8.4/../../../../arm-none-eabi/lib/armv7e-m/fpu/libg.a(lib_a-mprec.o)
                                                  /opt/ARM/bin/../lib/gcc/arm-none-eabi/4.8.4/../../../../arm-none-eabi/lib/armv7e-m/fpu/libg.a(lib_a-dtoa.o)
__ltdf2                                           /opt/ARM/bin/../lib/gcc/arm-none-eabi/4.8.4/armv7e-m/fpu/libgcc.a(_arm_cmpdf2.o)
__main_stack_base__                               build/obj/crt0.o
__main_stack_end__                                build/obj/vectors.o
                                                  build/obj/crt0.o
__main_thread_stack_base__                        build/obj/chsys.o
__malloc_av_                                      /opt/ARM/bin/../lib/gcc/arm-none-eabi/4.8.4/../../../../arm-none-eabi/lib/armv7e-m/fpu/libg.a(lib_a-mallocr.o)
                                                  /opt/ARM/bin/../lib/gcc/arm-none-eabi/4.8.4/../../../../arm-none-eabi/lib/armv7e-m/fpu/libg.a(lib_a-reallocr.o)
                                                  /opt/ARM/bin/../lib/gcc/arm-none-eabi/4.8.4/../../../../arm-none-eabi/lib/armv7e-m/fpu/libg.a(lib_a-freer.o)
__malloc_current_mallinfo                         /opt/ARM/bin/../lib/gcc/arm-none-eabi/4.8.4/../../../../arm-none-eabi/lib/armv7e-m/fpu/libg.a(lib_a-mallocr.o)
                                                  /opt/ARM/bin/../lib/gcc/arm-none-eabi/4.8.4/../../../../arm-none-eabi/lib/armv7e-m/fpu/libg.a(lib_a-freer.o)
__malloc_lock                                     /opt/ARM/bin/../lib/gcc/arm-none-eabi/4.8.4/../../../../arm-none-eabi/lib/armv7e-m/fpu/libg.a(lib_a-mlock.o)
                                                  /opt/ARM/bin/../lib/gcc/arm-none-eabi/4.8.4/../../../../arm-none-eabi/lib/armv7e-m/fpu/libg.a(lib_a-reallocr.o)
                                                  /opt/ARM/bin/../lib/gcc/arm-none-eabi/4.8.4/../../../../arm-none-eabi/lib/armv7e-m/fpu/libg.a(lib_a-freer.o)
                                                  /opt/ARM/bin/../lib/gcc/arm-none-eabi/4.8.4/../../../../arm-none-eabi/lib/armv7e-m/fpu/libg.a(lib_a-mallocr.o)
__malloc_max_sbrked_mem                           /opt/ARM/bin/../lib/gcc/arm-none-eabi/4.8.4/../../../../arm-none-eabi/lib/armv7e-m/fpu/libg.a(lib_a-mallocr.o)
__malloc_max_total_mem                            /opt/ARM/bin/../lib/gcc/arm-none-eabi/4.8.4/../../../../arm-none-eabi/lib/armv7e-m/fpu/libg.a(lib_a-mallocr.o)
__malloc_sbrk_base                                /opt/ARM/bin/../lib/gcc/arm-none-eabi/4.8.4/../../../../arm-none-eabi/lib/armv7e-m/fpu/libg.a(lib_a-mallocr.o)
                                                  /opt/ARM/bin/../lib/gcc/arm-none-eabi/4.8.4/../../../../arm-none-eabi/lib/armv7e-m/fpu/libg.a(lib_a-freer.o)
__malloc_top_pad                                  /opt/ARM/bin/../lib/gcc/arm-none-eabi/4.8.4/../../../../arm-none-eabi/lib/armv7e-m/fpu/libg.a(lib_a-mallocr.o)
                                                  /opt/ARM/bin/../lib/gcc/arm-none-eabi/4.8.4/../../../../arm-none-eabi/lib/armv7e-m/fpu/libg.a(lib_a-freer.o)
__malloc_trim_threshold                           /opt/ARM/bin/../lib/gcc/arm-none-eabi/4.8.4/../../../../arm-none-eabi/lib/armv7e-m/fpu/libg.a(lib_a-mallocr.o)
                                                  /opt/ARM/bin/../lib/gcc/arm-none-eabi/4.8.4/../../../../arm-none-eabi/lib/armv7e-m/fpu/libg.a(lib_a-freer.o)
__malloc_unlock                                   /opt/ARM/bin/../lib/gcc/arm-none-eabi/4.8.4/../../../../arm-none-eabi/lib/armv7e-m/fpu/libg.a(lib_a-mlock.o)
                                                  /opt/ARM/bin/../lib/gcc/arm-none-eabi/4.8.4/../../../../arm-none-eabi/lib/armv7e-m/fpu/libg.a(lib_a-reallocr.o)
                                                  /opt/ARM/bin/../lib/gcc/arm-none-eabi/4.8.4/../../../../arm-none-eabi/lib/armv7e-m/fpu/libg.a(lib_a-freer.o)
                                                  /opt/ARM/bin/../lib/gcc/arm-none-eabi/4.8.4/../../../../arm-none-eabi/lib/armv7e-m/fpu/libg.a(lib_a-mallocr.o)
__mb_cur_max                                      /opt/ARM/bin/../lib/gcc/arm-none-eabi/4.8.4/../../../../arm-none-eabi/lib/armv7e-m/fpu/libg.a(lib_a-locale.o)
__mcmp                                            /opt/ARM/bin/../lib/gcc/arm-none-eabi/4.8.4/../../../../arm-none-eabi/lib/armv7e-m/fpu/libg.a(lib_a-mprec.o)
                                                  /opt/ARM/bin/../lib/gcc/arm-none-eabi/4.8.4/../../../../arm-none-eabi/lib/armv7e-m/fpu/libg.a(lib_a-dtoa.o)
__mdiff                                           /opt/ARM/bin/../lib/gcc/arm-none-eabi/4.8.4/../../../../arm-none-eabi/lib/armv7e-m/fpu/libg.a(lib_a-mprec.o)
                                                  /opt/ARM/bin/../lib/gcc/arm-none-eabi/4.8.4/../../../../arm-none-eabi/lib/armv7e-m/fpu/libg.a(lib_a-dtoa.o)
__mlocale_changed                                 /opt/ARM/bin/../lib/gcc/arm-none-eabi/4.8.4/../../../../arm-none-eabi/lib/armv7e-m/fpu/libg.a(lib_a-locale.o)
__mprec_bigtens                                   /opt/ARM/bin/../lib/gcc/arm-none-eabi/4.8.4/../../../../arm-none-eabi/lib/armv7e-m/fpu/libg.a(lib_a-mprec.o)
                                                  /opt/ARM/bin/../lib/gcc/arm-none-eabi/4.8.4/../../../../arm-none-eabi/lib/armv7e-m/fpu/libg.a(lib_a-dtoa.o)
__mprec_tens                                      /opt/ARM/bin/../lib/gcc/arm-none-eabi/4.8.4/../../../../arm-none-eabi/lib/armv7e-m/fpu/libg.a(lib_a-mprec.o)
                                                  /opt/ARM/bin/../lib/gcc/arm-none-eabi/4.8.4/../../../../arm-none-eabi/lib/armv7e-m/fpu/libg.a(lib_a-dtoa.o)
__mprec_tinytens                                  /opt/ARM/bin/../lib/gcc/arm-none-eabi/4.8.4/../../../../arm-none-eabi/lib/armv7e-m/fpu/libg.a(lib_a-mprec.o)
__muldf3                                          /opt/ARM/bin/../lib/gcc/arm-none-eabi/4.8.4/armv7e-m/fpu/libgcc.a(_arm_muldivdf3.o)
__multadd                                         /opt/ARM/bin/../lib/gcc/arm-none-eabi/4.8.4/../../../../arm-none-eabi/lib/armv7e-m/fpu/libg.a(lib_a-mprec.o)
                                                  /opt/ARM/bin/../lib/gcc/arm-none-eabi/4.8.4/../../../../arm-none-eabi/lib/armv7e-m/fpu/libg.a(lib_a-dtoa.o)
__multiply                                        /opt/ARM/bin/../lib/gcc/arm-none-eabi/4.8.4/../../../../arm-none-eabi/lib/armv7e-m/fpu/libg.a(lib_a-mprec.o)
                                                  /opt/ARM/bin/../lib/gcc/arm-none-eabi/4.8.4/../../../../arm-none-eabi/lib/armv7e-m/fpu/libg.a(lib_a-dtoa.o)
__nedf2                                           /opt/ARM/bin/../lib/gcc/arm-none-eabi/4.8.4/armv7e-m/fpu/libgcc.a(_arm_cmpdf2.o)
__nlocale_changed                                 /opt/ARM/bin/../lib/gcc/arm-none-eabi/4.8.4/../../../../arm-none-eabi/lib/armv7e-m/fpu/libg.a(lib_a-locale.o)
__pow5mult                                        /opt/ARM/bin/../lib/gcc/arm-none-eabi/4.8.4/../../../../arm-none-eabi/lib/armv7e-m/fpu/libg.a(lib_a-mprec.o)
                                                  /opt/ARM/bin/../lib/gcc/arm-none-eabi/4.8.4/../../../../arm-none-eabi/lib/armv7e-m/fpu/libg.a(lib_a-dtoa.o)
__process_stack_base__                            build/obj/crt0.o
__process_stack_end__                             build/obj/crt0.o
__ratio                                           /opt/ARM/bin/../lib/gcc/arm-none-eabi/4.8.4/../../../../arm-none-eabi/lib/armv7e-m/fpu/libg.a(lib_a-mprec.o)
__s2b                                             /opt/ARM/bin/../lib/gcc/arm-none-eabi/4.8.4/../../../../arm-none-eabi/lib/armv7e-m/fpu/libg.a(lib_a-mprec.o)
__ssprint_r                                       /opt/ARM/bin/../lib/gcc/arm-none-eabi/4.8.4/../../../../arm-none-eabi/lib/armv7e-m/fpu/libg.a(lib_a-svfiprintf.o)
                                                  /opt/ARM/bin/../lib/gcc/arm-none-eabi/4.8.4/../../../../arm-none-eabi/lib/armv7e-m/fpu/libg.a(lib_a-svfprintf.o)
__subdf3                                          /opt/ARM/bin/../lib/gcc/arm-none-eabi/4.8.4/armv7e-m/fpu/libgcc.a(_arm_addsubdf3.o)
__udivdi3                                         /opt/ARM/bin/../lib/gcc/arm-none-eabi/4.8.4/armv7e-m/fpu/libgcc.a(_udivdi3.o)
                                                  /opt/ARM/bin/../lib/gcc/arm-none-eabi/4.8.4/armv7e-m/fpu/libgcc.a(bpabi.o)
__ulp                                             /opt/ARM/bin/../lib/gcc/arm-none-eabi/4.8.4/../../../../arm-none-eabi/lib/armv7e-m/fpu/libg.a(lib_a-mprec.o)
_bss_end                                          build/obj/crt0.o
_bss_start                                        build/obj/crt0.o
_calloc_r                                         /opt/ARM/bin/../lib/gcc/arm-none-eabi/4.8.4/../../../../arm-none-eabi/lib/armv7e-m/fpu/libg.a(lib_a-callocr.o)
                                                  /opt/ARM/bin/../lib/gcc/arm-none-eabi/4.8.4/../../../../arm-none-eabi/lib/armv7e-m/fpu/libg.a(lib_a-mprec.o)
_close_r                                          build/obj/syscalls.o
_core_init                                        build/obj/chmemcore.o
                                                  build/obj/chsys.o
_data                                             build/obj/crt0.o
_default_exit                                     build/obj/crt0.o
_dtoa_r                                           /opt/ARM/bin/../lib/gcc/arm-none-eabi/4.8.4/../../../../arm-none-eabi/lib/armv7e-m/fpu/libg.a(lib_a-dtoa.o)
                                                  /opt/ARM/bin/../lib/gcc/arm-none-eabi/4.8.4/../../../../arm-none-eabi/lib/armv7e-m/fpu/libg.a(lib_a-svfprintf.o)
_edata                                            build/obj/crt0.o
_free_r                                           /opt/ARM/bin/../lib/gcc/arm-none-eabi/4.8.4/../../../../arm-none-eabi/lib/armv7e-m/fpu/libg.a(lib_a-freer.o)
                                                  /opt/ARM/bin/../lib/gcc/arm-none-eabi/4.8.4/../../../../arm-none-eabi/lib/armv7e-m/fpu/libg.a(lib_a-reallocr.o)
                                                  /opt/ARM/bin/../lib/gcc/arm-none-eabi/4.8.4/../../../../arm-none-eabi/lib/armv7e-m/fpu/libg.a(lib_a-svfiprintf.o)
                                                  /opt/ARM/bin/../lib/gcc/arm-none-eabi/4.8.4/../../../../arm-none-eabi/lib/armv7e-m/fpu/libg.a(lib_a-mallocr.o)
_fstat_r                                          build/obj/syscalls.o
_gdispDeinit                                      build/obj/gdisp.o
                                                  build/obj/gfx.o
_gdispInit                                        build/obj/gdisp.o
                                                  build/obj/gfx.o
_geventDeinit                                     build/obj/gevent.o
                                                  build/obj/gfx.o
_geventInit                                       build/obj/gevent.o
                                                  build/obj/gfx.o
_gfileDeinit                                      build/obj/gfile.o
_gfileInit                                        build/obj/gfile.o
_ginputDeinit                                     build/obj/ginput.o
                                                  build/obj/gfx.o
_ginputInit                                       build/obj/ginput.o
                                                  build/obj/gfx.o
_global_impure_ptr                                /opt/ARM/bin/../lib/gcc/arm-none-eabi/4.8.4/../../../../arm-none-eabi/lib/armv7e-m/fpu/libg.a(lib_a-impure.o)
_gosDeinit                                        build/obj/chibios.o
                                                  build/obj/gfx.o
_gosInit                                          build/obj/chibios.o
                                                  build/obj/gfx.o
_gqueueDeinit                                     build/obj/gqueue.o
                                                  build/obj/gfx.o
_gqueueInit                                       build/obj/gqueue.o
                                                  build/obj/gfx.o
_gtimerDeinit                                     build/obj/gtimer.o
                                                  build/obj/gfx.o
_gtimerInit                                       build/obj/gtimer.o
                                                  build/obj/gfx.o
_gwidgetCreate                                    build/obj/gwidget.o
                                                  build/obj/label.o
                                                  build/obj/slider.o
                                                  build/obj/button.o
_gwidgetDeinit                                    build/obj/gwidget.o
                                                  build/obj/gwin.o
_gwidgetDestroy                                   build/obj/gwidget.o
                                                  build/obj/label.o
                                                  build/obj/slider.o
                                                  build/obj/button.o
_gwidgetInit                                      build/obj/gwidget.o
                                                  build/obj/gwin.o
_gwidgetRedraw                                    build/obj/gwidget.o
                                                  build/obj/label.o
                                                  build/obj/slider.o
                                                  build/obj/button.o
_gwidgetUpdate                                    build/obj/gwidget.o
                                                  build/obj/slider.o
                                                  build/obj/button.o
_gwinDeinit                                       build/obj/gwin.o
                                                  build/obj/gfx.o
_gwinInit                                         build/obj/gwin.o
                                                  build/obj/gfx.o
_gwindowCreate                                    build/obj/gwin.o
                                                  build/obj/gimage.o
                                                  build/obj/console.o
                                                  build/obj/gwidget.o
_gwmDeinit                                        build/obj/gwm.o
                                                  build/obj/gwin.o
_gwmInit                                          build/obj/gwm.o
                                                  build/obj/gwin.o
_heap_init                                        build/obj/chheap.o
                                                  build/obj/chsys.o
_idle_thread                                      build/obj/chsys.o
_idle_thread_wa                                   build/obj/chsys.o
_impure_ptr                                       /opt/ARM/bin/../lib/gcc/arm-none-eabi/4.8.4/../../../../arm-none-eabi/lib/armv7e-m/fpu/libg.a(lib_a-impure.o)
                                                  /opt/ARM/bin/../lib/gcc/arm-none-eabi/4.8.4/../../../../arm-none-eabi/lib/armv7e-m/fpu/libg.a(lib_a-locale.o)
                                                  /opt/ARM/bin/../lib/gcc/arm-none-eabi/4.8.4/../../../../arm-none-eabi/lib/armv7e-m/fpu/libg.a(lib_a-sprintf.o)
_isatty_r                                         build/obj/syscalls.o
_localeconv_r                                     /opt/ARM/bin/../lib/gcc/arm-none-eabi/4.8.4/../../../../arm-none-eabi/lib/armv7e-m/fpu/libg.a(lib_a-locale.o)
                                                  /opt/ARM/bin/../lib/gcc/arm-none-eabi/4.8.4/../../../../arm-none-eabi/lib/armv7e-m/fpu/libg.a(lib_a-svfprintf.o)
_lseek_r                                          build/obj/syscalls.o
_malloc_r                                         /opt/ARM/bin/../lib/gcc/arm-none-eabi/4.8.4/../../../../arm-none-eabi/lib/armv7e-m/fpu/libg.a(lib_a-mallocr.o)
                                                  /opt/ARM/bin/../lib/gcc/arm-none-eabi/4.8.4/../../../../arm-none-eabi/lib/armv7e-m/fpu/libg.a(lib_a-reallocr.o)
                                                  /opt/ARM/bin/../lib/gcc/arm-none-eabi/4.8.4/../../../../arm-none-eabi/lib/armv7e-m/fpu/libg.a(lib_a-callocr.o)
                                                  /opt/ARM/bin/../lib/gcc/arm-none-eabi/4.8.4/../../../../arm-none-eabi/lib/armv7e-m/fpu/libg.a(lib_a-svfiprintf.o)
                                                  /opt/ARM/bin/../lib/gcc/arm-none-eabi/4.8.4/../../../../arm-none-eabi/lib/armv7e-m/fpu/libg.a(lib_a-svfprintf.o)
_malloc_trim_r                                    /opt/ARM/bin/../lib/gcc/arm-none-eabi/4.8.4/../../../../arm-none-eabi/lib/armv7e-m/fpu/libg.a(lib_a-freer.o)
_mprec_log10                                      /opt/ARM/bin/../lib/gcc/arm-none-eabi/4.8.4/../../../../arm-none-eabi/lib/armv7e-m/fpu/libg.a(lib_a-mprec.o)
_pal_lld_init                                     build/obj/pal_lld.o
                                                  build/obj/hal.o
_pal_lld_setgroupmode                             build/obj/pal_lld.o
                                                  build/obj/main.o
                                                  build/obj/ginput_lld_mouse.o
                                                  build/obj/gdisp_lld_SSD1289.o
                                                  build/obj/pal.o
_port_init                                        build/obj/chcore_v7m.o
                                                  build/obj/chsys.o
_port_irq_epilogue                                build/obj/chcore_v7m.o
                                                  build/obj/serial_lld.o
                                                  build/obj/pwm_lld.o
                                                  build/obj/icu_lld.o
                                                  build/obj/adc_lld.o
                                                  build/obj/stm32_dma.o
_port_lock                                        build/obj/chcore_v7m.o
                                                  build/obj/main.o
                                                  build/obj/gqueue.o
                                                  build/obj/chibios.o
                                                  build/obj/serial_lld.o
                                                  build/obj/spi_lld.o
                                                  build/obj/adc_lld.o
                                                  build/obj/spi.o
                                                  build/obj/serial.o
                                                  build/obj/pwm.o
                                                  build/obj/icu.o
                                                  build/obj/adc.o
                                                  build/obj/chmempools.o
                                                  build/obj/chmemcore.o
                                                  build/obj/chqueues.o
                                                  build/obj/chmboxes.o
                                                  build/obj/chmsg.o
                                                  build/obj/chevents.o
                                                  build/obj/chcond.o
                                                  build/obj/chmtx.o
                                                  build/obj/chsem.o
                                                  build/obj/chregistry.o
                                                  build/obj/chdynamic.o
                                                  build/obj/chthreads.o
                                                  build/obj/chschd.o
                                                  build/obj/chsys.o
_port_switch                                      build/obj/chcore_v7m.o
                                                  build/obj/chschd.o
_port_switch_from_isr                             build/obj/chcore_v7m.o
_port_thread_start                                build/obj/chcore_v7m.o
                                                  build/obj/chthreads.o
_port_unlock                                      build/obj/chcore_v7m.o
                                                  build/obj/main.o
                                                  build/obj/gqueue.o
                                                  build/obj/chibios.o
                                                  build/obj/serial_lld.o
                                                  build/obj/spi_lld.o
                                                  build/obj/adc_lld.o
                                                  build/obj/spi.o
                                                  build/obj/serial.o
                                                  build/obj/pwm.o
                                                  build/obj/icu.o
                                                  build/obj/adc.o
                                                  build/obj/chmempools.o
                                                  build/obj/chmemcore.o
                                                  build/obj/chqueues.o
                                                  build/obj/chmboxes.o
                                                  build/obj/chmsg.o
                                                  build/obj/chevents.o
                                                  build/obj/chcond.o
                                                  build/obj/chmtx.o
                                                  build/obj/chsem.o
                                                  build/obj/chregistry.o
                                                  build/obj/chdynamic.o
                                                  build/obj/chthreads.o
                                                  build/obj/chschd.o
                                                  build/obj/chsys.o
_read_r                                           build/obj/syscalls.o
_realloc_r                                        /opt/ARM/bin/../lib/gcc/arm-none-eabi/4.8.4/../../../../arm-none-eabi/lib/armv7e-m/fpu/libg.a(lib_a-reallocr.o)
                                                  /opt/ARM/bin/../lib/gcc/arm-none-eabi/4.8.4/../../../../arm-none-eabi/lib/armv7e-m/fpu/libg.a(lib_a-svfiprintf.o)
_sbrk_r                                           build/obj/syscalls.o
                                                  /opt/ARM/bin/../lib/gcc/arm-none-eabi/4.8.4/../../../../arm-none-eabi/lib/armv7e-m/fpu/libg.a(lib_a-freer.o)
                                                  /opt/ARM/bin/../lib/gcc/arm-none-eabi/4.8.4/../../../../arm-none-eabi/lib/armv7e-m/fpu/libg.a(lib_a-mallocr.o)
_scheduler_init                                   build/obj/chschd.o
                                                  build/obj/chsys.o
_setlocale_r                                      /opt/ARM/bin/../lib/gcc/arm-none-eabi/4.8.4/../../../../arm-none-eabi/lib/armv7e-m/fpu/libg.a(lib_a-locale.o)
_sprintf_r                                        /opt/ARM/bin/../lib/gcc/arm-none-eabi/4.8.4/../../../../arm-none-eabi/lib/armv7e-m/fpu/libg.a(lib_a-sprintf.o)
_stm32_dma_streams                                build/obj/stm32_dma.o
                                                  build/obj/gdisp_lld_SSD1289.o
                                                  build/obj/spi_lld.o
                                                  build/obj/adc_lld.o
_svfiprintf_r                                     /opt/ARM/bin/../lib/gcc/arm-none-eabi/4.8.4/../../../../arm-none-eabi/lib/armv7e-m/fpu/libg.a(lib_a-svfiprintf.o)
_svfprintf_r                                      /opt/ARM/bin/../lib/gcc/arm-none-eabi/4.8.4/../../../../arm-none-eabi/lib/armv7e-m/fpu/libg.a(lib_a-svfprintf.o)
                                                  /opt/ARM/bin/../lib/gcc/arm-none-eabi/4.8.4/../../../../arm-none-eabi/lib/armv7e-m/fpu/libg.a(lib_a-sprintf.o)
_textdata                                         build/obj/crt0.o
_thread_init                                      build/obj/chthreads.o
                                                  build/obj/chsys.o
_thread_memfill                                   build/obj/chthreads.o
                                                  build/obj/chdynamic.o
_trace_init                                       build/obj/chdebug.o
                                                  build/obj/chsys.o
_tsOrientClip                                     build/obj/mouse.o
_unhandled_exception                              build/obj/vectors.o
_vectors                                          build/obj/vectors.o
_vt_init                                          build/obj/chvt.o
                                                  build/obj/chsys.o
_write_r                                          build/obj/syscalls.o
adcAcquireBus                                     build/obj/adc.o
adcConvert                                        build/obj/adc.o
                                                  build/obj/main.o
adcInit                                           build/obj/adc.o
                                                  build/obj/hal.o
adcObjectInit                                     build/obj/adc.o
                                                  build/obj/adc_lld.o
adcReleaseBus                                     build/obj/adc.o
adcSTM32DisableTSVREFE                            build/obj/adc_lld.o
adcSTM32DisableVBATE                              build/obj/adc_lld.o
adcSTM32EnableTSVREFE                             build/obj/adc_lld.o
                                                  build/obj/main.o
adcSTM32EnableVBATE                               build/obj/adc_lld.o
adcStart                                          build/obj/adc.o
                                                  build/obj/main.o
adcStartConversion                                build/obj/adc.o
                                                  build/obj/main.o
adcStartConversionI                               build/obj/adc.o
adcStop                                           build/obj/adc.o
adcStopConversion                                 build/obj/adc.o
adcStopConversionI                                build/obj/adc.o
adc_lld_init                                      build/obj/adc_lld.o
                                                  build/obj/adc.o
adc_lld_start                                     build/obj/adc_lld.o
                                                  build/obj/adc.o
adc_lld_start_conversion                          build/obj/adc_lld.o
                                                  build/obj/adc.o
adc_lld_stop                                      build/obj/adc_lld.o
                                                  build/obj/adc.o
adc_lld_stop_conversion                           build/obj/adc_lld.o
                                                  build/obj/adc.o
average                                           build/obj/main.o
boardInit                                         build/obj/board.o
                                                  build/obj/hal.o
chCondBroadcast                                   build/obj/chcond.o
chCondBroadcastI                                  build/obj/chcond.o
chCondInit                                        build/obj/chcond.o
chCondSignal                                      build/obj/chcond.o
chCondSignalI                                     build/obj/chcond.o
chCondWait                                        build/obj/chcond.o
chCondWaitS                                       build/obj/chcond.o
chCondWaitTimeout                                 build/obj/chcond.o
chCondWaitTimeoutS                                build/obj/chcond.o
chCoreAlloc                                       build/obj/chmemcore.o
                                                  build/obj/syscalls.o
                                                  build/obj/chheap.o
chCoreAllocI                                      build/obj/chmemcore.o
chCoreStatus                                      build/obj/chmemcore.o
chDbgPanic                                        build/obj/chdebug.o
                                                  build/obj/syscalls.o
                                                  build/obj/pwm_lld.o
                                                  build/obj/icu_lld.o
                                                  build/obj/spi_lld.o
                                                  build/obj/adc_lld.o
                                                  build/obj/stm32_dma.o
                                                  build/obj/spi.o
                                                  build/obj/serial.o
                                                  build/obj/pwm.o
                                                  build/obj/pal.o
                                                  build/obj/icu.o
                                                  build/obj/adc.o
                                                  build/obj/chmempools.o
                                                  build/obj/chheap.o
                                                  build/obj/chqueues.o
                                                  build/obj/chmboxes.o
                                                  build/obj/chmsg.o
                                                  build/obj/chevents.o
                                                  build/obj/chcond.o
                                                  build/obj/chmtx.o
                                                  build/obj/chsem.o
                                                  build/obj/chregistry.o
                                                  build/obj/chdynamic.o
                                                  build/obj/chthreads.o
                                                  build/obj/chschd.o
                                                  build/obj/chvt.o
chEvtAddEvents                                    build/obj/chevents.o
chEvtBroadcastFlags                               build/obj/chevents.o
chEvtBroadcastFlagsI                              build/obj/chevents.o
                                                  build/obj/serial_lld.o
                                                  build/obj/serial.o
chEvtDispatch                                     build/obj/chevents.o
chEvtGetAndClearEvents                            build/obj/chevents.o
chEvtGetAndClearFlags                             build/obj/chevents.o
chEvtGetAndClearFlagsI                            build/obj/chevents.o
chEvtRegisterMask                                 build/obj/chevents.o
chEvtSignal                                       build/obj/chevents.o
chEvtSignalI                                      build/obj/chevents.o
chEvtUnregister                                   build/obj/chevents.o
chEvtWaitAllTimeout                               build/obj/chevents.o
chEvtWaitAnyTimeout                               build/obj/chevents.o
chEvtWaitOneTimeout                               build/obj/chevents.o
chHeapAlloc                                       build/obj/chheap.o
                                                  build/obj/main.o
                                                  build/obj/gwidget.o
                                                  build/obj/gwin.o
                                                  build/obj/image.o
                                                  build/obj/fonts.o
                                                  build/obj/chibios.o
                                                  build/obj/chdynamic.o
chHeapFree                                        build/obj/chheap.o
                                                  build/obj/mouse.o
                                                  build/obj/gwidget.o
                                                  build/obj/gwin.o
                                                  build/obj/image.o
                                                  build/obj/fonts.o
                                                  build/obj/chdynamic.o
chHeapInit                                        build/obj/chheap.o
chHeapStatus                                      build/obj/chheap.o
chIQGetTimeout                                    build/obj/chqueues.o
                                                  build/obj/serial.o
chIQInit                                          build/obj/chqueues.o
                                                  build/obj/serial.o
chIQPutI                                          build/obj/chqueues.o
                                                  build/obj/serial.o
chIQReadTimeout                                   build/obj/chqueues.o
                                                  build/obj/serial.o
chIQResetI                                        build/obj/chqueues.o
                                                  build/obj/serial.o
chMBFetch                                         build/obj/chmboxes.o
chMBFetchI                                        build/obj/chmboxes.o
chMBFetchS                                        build/obj/chmboxes.o
chMBInit                                          build/obj/chmboxes.o
chMBPost                                          build/obj/chmboxes.o
chMBPostAhead                                     build/obj/chmboxes.o
chMBPostAheadI                                    build/obj/chmboxes.o
chMBPostAheadS                                    build/obj/chmboxes.o
chMBPostI                                         build/obj/chmboxes.o
chMBPostS                                         build/obj/chmboxes.o
chMBReset                                         build/obj/chmboxes.o
chMsgRelease                                      build/obj/chmsg.o
chMsgSend                                         build/obj/chmsg.o
chMsgWait                                         build/obj/chmsg.o
chMtxInit                                         build/obj/chmtx.o
                                                  build/obj/gtimer.o
                                                  build/obj/gevent.o
                                                  build/obj/gdisp.o
                                                  build/obj/spi.o
                                                  build/obj/adc.o
                                                  build/obj/chheap.o
chMtxLock                                         build/obj/chmtx.o
                                                  build/obj/gtimer.o
                                                  build/obj/gevent.o
                                                  build/obj/gdisp.o
                                                  build/obj/spi.o
                                                  build/obj/adc.o
                                                  build/obj/chheap.o
chMtxLockS                                        build/obj/chmtx.o
                                                  build/obj/chcond.o
chMtxTryLock                                      build/obj/chmtx.o
chMtxTryLockS                                     build/obj/chmtx.o
chMtxUnlock                                       build/obj/chmtx.o
                                                  build/obj/gtimer.o
                                                  build/obj/gevent.o
                                                  build/obj/gdisp.o
                                                  build/obj/spi.o
                                                  build/obj/adc.o
                                                  build/obj/chheap.o
chMtxUnlockAll                                    build/obj/chmtx.o
chMtxUnlockS                                      build/obj/chmtx.o
                                                  build/obj/chcond.o
chOQGetI                                          build/obj/chqueues.o
                                                  build/obj/serial_lld.o
                                                  build/obj/serial.o
chOQInit                                          build/obj/chqueues.o
                                                  build/obj/serial.o
chOQPutTimeout                                    build/obj/chqueues.o
                                                  build/obj/serial.o
chOQResetI                                        build/obj/chqueues.o
                                                  build/obj/serial.o
chOQWriteTimeout                                  build/obj/chqueues.o
                                                  build/obj/serial.o
chPoolAlloc                                       build/obj/chmempools.o
                                                  build/obj/chdynamic.o
chPoolAllocI                                      build/obj/chmempools.o
chPoolFree                                        build/obj/chmempools.o
                                                  build/obj/chdynamic.o
chPoolFreeI                                       build/obj/chmempools.o
chPoolInit                                        build/obj/chmempools.o
chPoolLoadArray                                   build/obj/chmempools.o
chRegFirstThread                                  build/obj/chregistry.o
chRegNextThread                                   build/obj/chregistry.o
chSchDoReschedule                                 build/obj/chschd.o
                                                  build/obj/chcore_v7m.o
chSchDoRescheduleAhead                            build/obj/chschd.o
chSchDoRescheduleBehind                           build/obj/chschd.o
                                                  build/obj/chthreads.o
chSchGoSleepS                                     build/obj/chschd.o
                                                  build/obj/spi.o
                                                  build/obj/adc.o
                                                  build/obj/chmsg.o
                                                  build/obj/chcond.o
                                                  build/obj/chmtx.o
                                                  build/obj/chsem.o
                                                  build/obj/chthreads.o
chSchGoSleepTimeoutS                              build/obj/chschd.o
                                                  build/obj/chqueues.o
                                                  build/obj/chevents.o
                                                  build/obj/chcond.o
                                                  build/obj/chsem.o
                                                  build/obj/chthreads.o
chSchReadyI                                       build/obj/chschd.o
                                                  build/obj/spi_lld.o
                                                  build/obj/adc_lld.o
                                                  build/obj/adc.o
                                                  build/obj/chqueues.o
                                                  build/obj/chmsg.o
                                                  build/obj/chevents.o
                                                  build/obj/chcond.o
                                                  build/obj/chmtx.o
                                                  build/obj/chsem.o
                                                  build/obj/chthreads.o
chSchRescheduleS                                  build/obj/chschd.o
                                                  build/obj/chibios.o
                                                  build/obj/serial.o
                                                  build/obj/chmboxes.o
                                                  build/obj/chevents.o
                                                  build/obj/chcond.o
                                                  build/obj/chmtx.o
                                                  build/obj/chsem.o
                                                  build/obj/chthreads.o
chSchWakeupS                                      build/obj/chschd.o
                                                  build/obj/adc.o
                                                  build/obj/chmsg.o
                                                  build/obj/chcond.o
                                                  build/obj/chmtx.o
                                                  build/obj/chsem.o
                                                  build/obj/chdynamic.o
                                                  build/obj/chthreads.o
chSemAddCounterI                                  build/obj/chsem.o
chSemInit                                         build/obj/chsem.o
                                                  build/obj/chibios.o
                                                  build/obj/chmboxes.o
chSemReset                                        build/obj/chsem.o
                                                  build/obj/chibios.o
chSemResetI                                       build/obj/chsem.o
                                                  build/obj/chmboxes.o
chSemSignal                                       build/obj/chsem.o
chSemSignalI                                      build/obj/chsem.o
                                                  build/obj/chibios.o
                                                  build/obj/chmboxes.o
chSemSignalWait                                   build/obj/chsem.o
chSemWait                                         build/obj/chsem.o
                                                  build/obj/chibios.o
chSemWaitS                                        build/obj/chsem.o
chSemWaitTimeout                                  build/obj/chsem.o
                                                  build/obj/chibios.o
chSemWaitTimeoutS                                 build/obj/chsem.o
                                                  build/obj/chmboxes.o
chSysInit                                         build/obj/chsys.o
                                                  build/obj/main.o
                                                  build/obj/chibios.o
chSysTimerHandlerI                                build/obj/chsys.o
                                                  build/obj/chcore_v7m.o
chThdAddRef                                       build/obj/chdynamic.o
chThdCreateFromHeap                               build/obj/chdynamic.o
                                                  build/obj/chibios.o
chThdCreateFromMemoryPool                         build/obj/chdynamic.o
chThdCreateI                                      build/obj/chthreads.o
                                                  build/obj/chdynamic.o
chThdCreateStatic                                 build/obj/chthreads.o
                                                  build/obj/main.o
                                                  build/obj/chibios.o
                                                  build/obj/chsys.o
chThdExit                                         build/obj/chthreads.o
                                                  build/obj/chcore_v7m.o
chThdExitS                                        build/obj/chthreads.o
chThdRelease                                      build/obj/chdynamic.o
                                                  build/obj/chregistry.o
                                                  build/obj/chthreads.o
chThdResume                                       build/obj/chthreads.o
chThdSetPriority                                  build/obj/chthreads.o
chThdSleep                                        build/obj/chthreads.o
                                                  build/obj/main.o
                                                  build/obj/chibios.o
chThdSleepUntil                                   build/obj/chthreads.o
chThdTerminate                                    build/obj/chthreads.o
chThdWait                                         build/obj/chthreads.o
chThdYield                                        build/obj/chthreads.o
                                                  build/obj/gtimer.o
                                                  build/obj/chibios.o
chVTResetI                                        build/obj/chvt.o
                                                  build/obj/chschd.o
chVTSetI                                          build/obj/chvt.o
                                                  build/obj/chschd.o
ch_debug                                          build/obj/chregistry.o
                                                  build/obj/chsys.o
chsnprintf                                        build/obj/chprintf.o
chvprintf                                         build/obj/chprintf.o
                                                  build/obj/main.o
console                                           build/obj/main.o
dbg_panic_msg                                     build/obj/chdebug.o
dbg_trace                                         build/obj/chdebug.o
                                                  build/obj/chschd.o
dbg_trace_buffer                                  build/obj/chdebug.o
dequeue                                           build/obj/chlists.o
                                                  build/obj/chmtx.o
                                                  build/obj/chschd.o
dmaInit                                           build/obj/stm32_dma.o
                                                  build/obj/hal_lld.o
dmaStreamAllocate                                 build/obj/stm32_dma.o
                                                  build/obj/gdisp_lld_SSD1289.o
                                                  build/obj/spi_lld.o
                                                  build/obj/adc_lld.o
dmaStreamRelease                                  build/obj/stm32_dma.o
                                                  build/obj/spi_lld.o
                                                  build/obj/adc_lld.o
fifo_remove                                       build/obj/chlists.o
                                                  build/obj/chqueues.o
                                                  build/obj/chmsg.o
                                                  build/obj/chcond.o
                                                  build/obj/chmtx.o
                                                  build/obj/chsem.o
                                                  build/obj/chschd.o
gdispBlendColor                                   build/obj/gdisp.o
                                                  build/obj/button.o
gdispCloseFont                                    build/obj/fonts.o
                                                  build/obj/mouse.o
gdispContrastColor                                build/obj/gdisp.o
gdispGBlitArea                                    build/obj/gdisp.o
                                                  build/obj/gwin.o
                                                  build/obj/image_bmp.o
gdispGClear                                       build/obj/gdisp.o
                                                  build/obj/main.o
                                                  build/obj/mouse.o
gdispGControl                                     build/obj/gdisp.o
                                                  build/obj/main.o
gdispGDrawBox                                     build/obj/gdisp.o
                                                  build/obj/label.o
                                                  build/obj/slider.o
                                                  build/obj/gwin.o
gdispGDrawChar                                    build/obj/gdisp.o
                                                  build/obj/console.o
                                                  build/obj/gwin.o
gdispGDrawLine                                    build/obj/gdisp.o
                                                  build/obj/mouse.o
                                                  build/obj/slider.o
                                                  build/obj/button.o
                                                  build/obj/gwin.o
gdispGDrawPixel                                   build/obj/gdisp.o
                                                  build/obj/gwin.o
                                                  build/obj/image_bmp.o
gdispGDrawString                                  build/obj/gdisp.o
                                                  build/obj/gwin.o
gdispGDrawStringBox                               build/obj/gdisp.o
                                                  build/obj/slider.o
                                                  build/obj/button.o
                                                  build/obj/gwin.o
gdispGFillArea                                    build/obj/gdisp.o
                                                  build/obj/mouse.o
                                                  build/obj/gimage.o
                                                  build/obj/slider.o
                                                  build/obj/console.o
                                                  build/obj/gwm.o
                                                  build/obj/gwin.o
gdispGFillChar                                    build/obj/gdisp.o
                                                  build/obj/gwin.o
gdispGFillString                                  build/obj/gdisp.o
                                                  build/obj/gwin.o
gdispGFillStringBox                               build/obj/gdisp.o
                                                  build/obj/mouse.o
                                                  build/obj/label.o
                                                  build/obj/gwin.o
gdispGFlush                                       build/obj/gdisp.o
gdispGImageDraw                                   build/obj/image.o
                                                  build/obj/gimage.o
                                                  build/obj/slider.o
                                                  build/obj/button.o
                                                  build/obj/gwin.o
gdispGImageDraw_BMP                               build/obj/image_bmp.o
                                                  build/obj/image.o
gdispGSetClip                                     build/obj/gdisp.o
                                                  build/obj/mouse.o
                                                  build/obj/gimage.o
                                                  build/obj/console.o
                                                  build/obj/gwm.o
                                                  build/obj/gwidget.o
                                                  build/obj/gwin.o
gdispGetCharWidth                                 build/obj/gdisp.o
                                                  build/obj/console.o
gdispGetDisplay                                   build/obj/gdisp.o
gdispGetFontMetric                                build/obj/gdisp.o
                                                  build/obj/main.o
                                                  build/obj/label.o
                                                  build/obj/console.o
gdispGetFontName                                  build/obj/fonts.o
gdispGetStringWidth                               build/obj/gdisp.o
                                                  build/obj/main.o
                                                  build/obj/label.o
gdispImageAlloc                                   build/obj/image.o
                                                  build/obj/image_bmp.o
gdispImageCache                                   build/obj/image.o
                                                  build/obj/gimage.o
gdispImageCache_BMP                               build/obj/image_bmp.o
                                                  build/obj/image.o
gdispImageClose                                   build/obj/image.o
                                                  build/obj/gimage.o
gdispImageClose_BMP                               build/obj/image_bmp.o
                                                  build/obj/image.o
gdispImageFree                                    build/obj/image.o
                                                  build/obj/image_bmp.o
gdispImageInit                                    build/obj/image.o
                                                  build/obj/gimage.o
gdispImageIsOpen                                  build/obj/image.o
                                                  build/obj/gimage.o
gdispImageNext                                    build/obj/image.o
gdispImageNext_BMP                                build/obj/image_bmp.o
                                                  build/obj/image.o
gdispImageOpen                                    build/obj/image.o
gdispImageOpenGFile                               build/obj/image.o
                                                  build/obj/gimage.o
gdispImageOpen_BMP                                build/obj/image_bmp.o
                                                  build/obj/image.o
gdispImageSetBgColor                              build/obj/image.o
                                                  build/obj/gimage.o
gdispImageSetMemoryReader                         build/obj/image.o
gdispOpenFont                                     build/obj/fonts.o
                                                  build/obj/main.o
                                                  build/obj/mouse.o
gdispScaleFont                                    build/obj/fonts.o
gdispSetDisplay                                   build/obj/gdisp.o
gdisp_lld_blit_area                               build/obj/gdisp_lld_SSD1289.o
                                                  build/obj/gdisp.o
gdisp_lld_control                                 build/obj/gdisp_lld_SSD1289.o
                                                  build/obj/gdisp.o
gdisp_lld_fill_area                               build/obj/gdisp_lld_SSD1289.o
                                                  build/obj/gdisp.o
gdisp_lld_init                                    build/obj/gdisp_lld_SSD1289.o
                                                  build/obj/gdisp.o
gdisp_lld_read_color                              build/obj/gdisp_lld_SSD1289.o
gdisp_lld_read_start                              build/obj/gdisp_lld_SSD1289.o
gdisp_lld_read_stop                               build/obj/gdisp_lld_SSD1289.o
gdisp_lld_write_color                             build/obj/gdisp_lld_SSD1289.o
                                                  build/obj/gdisp.o
gdisp_lld_write_pos                               build/obj/gdisp_lld_SSD1289.o
                                                  build/obj/gdisp.o
gdisp_lld_write_start                             build/obj/gdisp_lld_SSD1289.o
                                                  build/obj/gdisp.o
gdisp_lld_write_stop                              build/obj/gdisp_lld_SSD1289.o
                                                  build/obj/gdisp.o
geventAttachSource                                build/obj/gevent.o
                                                  build/obj/gwidget.o
geventDetachSource                                build/obj/gevent.o
geventDetachSourceListeners                       build/obj/gevent.o
                                                  build/obj/gwidget.o
geventEventWait                                   build/obj/gevent.o
                                                  build/obj/main.o
geventGetEventBuffer                              build/obj/gevent.o
                                                  build/obj/mouse.o
                                                  build/obj/slider.o
                                                  build/obj/button.o
geventGetSourceListener                           build/obj/gevent.o
                                                  build/obj/mouse.o
                                                  build/obj/slider.o
                                                  build/obj/button.o
geventListenerInit                                build/obj/gevent.o
                                                  build/obj/main.o
                                                  build/obj/gwidget.o
geventRegisterCallback                            build/obj/gevent.o
                                                  build/obj/gwidget.o
geventSendEvent                                   build/obj/gevent.o
                                                  build/obj/mouse.o
                                                  build/obj/slider.o
                                                  build/obj/button.o
gfileClose                                        build/obj/gfile.o
                                                  build/obj/main.o
                                                  build/obj/image.o
gfileDelete                                       build/obj/gfile.o
gfileEOF                                          build/obj/gfile.o
gfileExists                                       build/obj/gfile.o
gfileGetFilesize                                  build/obj/gfile.o
gfileGetPos                                       build/obj/gfile.o
                                                  build/obj/image_bmp.o
gfileGetSize                                      build/obj/gfile.o
gfileOpen                                         build/obj/gfile.o
                                                  build/obj/main.o
gfileOpenMemory                                   build/obj/gfile.o
                                                  build/obj/image.o
gfileRead                                         build/obj/gfile.o
                                                  build/obj/main.o
                                                  build/obj/image_bmp.o
gfileRename                                       build/obj/gfile.o
gfileSetPos                                       build/obj/gfile.o
                                                  build/obj/image_bmp.o
                                                  build/obj/image.o
gfileStdErr                                       build/obj/gfile.o
gfileStdIn                                        build/obj/gfile.o
gfileStdOut                                       build/obj/gfile.o
gfileWrite                                        build/obj/gfile.o
                                                  build/obj/main.o
gfxDeinit                                         build/obj/gfx.o
gfxInit                                           build/obj/gfx.o
                                                  build/obj/main.o
gfxQueueASyncGet                                  build/obj/gqueue.o
gfxQueueASyncGetI                                 build/obj/gqueue.o
gfxQueueASyncInit                                 build/obj/gqueue.o
                                                  build/obj/gwm.o
gfxQueueASyncInsert                               build/obj/gqueue.o
gfxQueueASyncInsertI                              build/obj/gqueue.o
gfxQueueASyncIsIn                                 build/obj/gqueue.o
gfxQueueASyncIsInI                                build/obj/gqueue.o
gfxQueueASyncPush                                 build/obj/gqueue.o
gfxQueueASyncPushI                                build/obj/gqueue.o
gfxQueueASyncPut                                  build/obj/gqueue.o
                                                  build/obj/gwm.o
gfxQueueASyncPutI                                 build/obj/gqueue.o
gfxQueueASyncRemove                               build/obj/gqueue.o
                                                  build/obj/gwm.o
gfxQueueASyncRemoveI                              build/obj/gqueue.o
gfxRealloc                                        build/obj/chibios.o
gfxSemDestroy                                     build/obj/chibios.o
                                                  build/obj/gtimer.o
gfxSemInit                                        build/obj/chibios.o
                                                  build/obj/gtimer.o
                                                  build/obj/gevent.o
gfxSemSignal                                      build/obj/chibios.o
                                                  build/obj/gtimer.o
                                                  build/obj/gevent.o
gfxSemSignalI                                     build/obj/chibios.o
                                                  build/obj/gtimer.o
gfxSemWait                                        build/obj/chibios.o
                                                  build/obj/gtimer.o
                                                  build/obj/gevent.o
gfxSemWaitI                                       build/obj/chibios.o
gfxSleepMicroseconds                              build/obj/chibios.o
                                                  build/obj/gdisp_lld_SSD1289.o
gfxSleepMilliseconds                              build/obj/chibios.o
                                                  build/obj/gdisp_lld_SSD1289.o
                                                  build/obj/mouse.o
                                                  build/obj/gdisp.o
gfxThreadCreate                                   build/obj/chibios.o
                                                  build/obj/gtimer.o
ginputCalibrateMouse                              build/obj/mouse.o
ginputGetMouse                                    build/obj/mouse.o
                                                  build/obj/main.o
                                                  build/obj/gwidget.o
ginputGetMouseDisplay                             build/obj/mouse.o
ginputGetMouseStatus                              build/obj/mouse.o
ginputMouseWakeup                                 build/obj/mouse.o
ginputMouseWakeupI                                build/obj/mouse.o
ginputRequireMouseCalibrationStorage              build/obj/mouse.o
ginputSetMouseCalibrationRoutines                 build/obj/mouse.o
                                                  build/obj/main.o
ginputSetMouseDisplay                             build/obj/mouse.o
ginput_lld_mouse_get_reading                      build/obj/ginput_lld_mouse.o
                                                  build/obj/mouse.o
ginput_lld_mouse_init                             build/obj/ginput_lld_mouse.o
                                                  build/obj/mouse.o
gtimerDeinit                                      build/obj/gtimer.o
gtimerInit                                        build/obj/gtimer.o
                                                  build/obj/gwm.o
gtimerIsActive                                    build/obj/gtimer.o
gtimerJab                                         build/obj/gtimer.o
                                                  build/obj/mouse.o
                                                  build/obj/gwm.o
gtimerJabI                                        build/obj/gtimer.o
                                                  build/obj/mouse.o
gtimerStart                                       build/obj/gtimer.o
                                                  build/obj/mouse.o
                                                  build/obj/gwm.o
gtimerStop                                        build/obj/gtimer.o
                                                  build/obj/mouse.o
gwinAttachListener                                build/obj/gwidget.o
                                                  build/obj/main.o
gwinAttachMouse                                   build/obj/gwidget.o
                                                  build/obj/main.o
gwinBlitArea                                      build/obj/gwin.o
gwinButtonDraw_Image                              build/obj/button.o
gwinButtonDraw_Normal                             build/obj/button.o
gwinButtonIsPressed                               build/obj/button.o
gwinClear                                         build/obj/gwin.o
gwinClearInit                                     build/obj/gwin.o
gwinDestroy                                       build/obj/gwin.o
gwinDrawBox                                       build/obj/gwin.o
gwinDrawChar                                      build/obj/gwin.o
gwinDrawImage                                     build/obj/gwin.o
gwinDrawLine                                      build/obj/gwin.o
gwinDrawPixel                                     build/obj/gwin.o
gwinDrawString                                    build/obj/gwin.o
gwinDrawStringBox                                 build/obj/gwin.o
gwinFillArea                                      build/obj/gwin.o
gwinFillChar                                      build/obj/gwin.o
gwinFillString                                    build/obj/gwin.o
gwinFillStringBox                                 build/obj/gwin.o
gwinGButtonCreate                                 build/obj/button.o
                                                  build/obj/main.o
gwinGConsoleCreate                                build/obj/console.o
gwinGImageCreate                                  build/obj/gimage.o
gwinGLabelCreate                                  build/obj/label.o
                                                  build/obj/main.o
gwinGSliderCreate                                 build/obj/slider.o
                                                  build/obj/main.o
gwinGWindowCreate                                 build/obj/gwin.o
gwinGetClassName                                  build/obj/gwin.o
gwinGetDefaultBgColor                             build/obj/gwin.o
                                                  build/obj/mouse.o
                                                  build/obj/gimage.o
                                                  build/obj/gwm.o
gwinGetDefaultColor                               build/obj/gwin.o
gwinGetDefaultFont                                build/obj/gwin.o
                                                  build/obj/label.o
gwinGetDefaultStyle                               build/obj/gwidget.o
gwinGetEnabled                                    build/obj/gwin.o
gwinGetMinMax                                     build/obj/gwm.o
gwinGetNextWindow                                 build/obj/gwm.o
                                                  build/obj/gwidget.o
gwinGetStyle                                      build/obj/gwidget.o
gwinGetText                                       build/obj/gwidget.o
                                                  build/obj/main.o
gwinGetVisible                                    build/obj/gwin.o
                                                  build/obj/console.o
gwinImageCache                                    build/obj/gimage.o
gwinImageOpenGFile                                build/obj/gimage.o
gwinLabelSetBorder                                build/obj/label.o
gwinMove                                          build/obj/gwin.o
gwinPrintf                                        build/obj/console.o
                                                  build/obj/main.o
gwinPutChar                                       build/obj/console.o
gwinPutCharArray                                  build/obj/console.o
gwinPutString                                     build/obj/console.o
gwinRaise                                         build/obj/gwm.o
gwinRedraw                                        build/obj/gwin.o
                                                  build/obj/gwidget.o
gwinRedrawDisplay                                 build/obj/gwm.o
gwinResize                                        build/obj/gwin.o
                                                  build/obj/label.o
gwinSetCustomDraw                                 build/obj/gwidget.o
gwinSetDefaultBgColor                             build/obj/gwin.o
                                                  build/obj/main.o
                                                  build/obj/gwidget.o
gwinSetDefaultColor                               build/obj/gwin.o
                                                  build/obj/main.o
gwinSetDefaultFont                                build/obj/gwin.o
                                                  build/obj/main.o
gwinSetDefaultStyle                               build/obj/gwidget.o
                                                  build/obj/main.o
gwinSetEnabled                                    build/obj/gwin.o
gwinSetFont                                       build/obj/gwin.o
gwinSetMinMax                                     build/obj/gwm.o
gwinSetStyle                                      build/obj/gwidget.o
gwinSetText                                       build/obj/gwidget.o
                                                  build/obj/main.o
gwinSetVisible                                    build/obj/gwin.o
                                                  build/obj/label.o
                                                  build/obj/gimage.o
                                                  build/obj/slider.o
                                                  build/obj/button.o
                                                  build/obj/console.o
gwinSetWindowManager                              build/obj/gwm.o
gwinSliderDraw_Image                              build/obj/slider.o
gwinSliderDraw_Std                                build/obj/slider.o
gwinSliderSetPosition                             build/obj/slider.o
                                                  build/obj/main.o
gwinSliderSetRange                                build/obj/slider.o
                                                  build/obj/main.o
gwinWidgetClearInit                               build/obj/gwidget.o
halInit                                           build/obj/hal.o
                                                  build/obj/main.o
                                                  build/obj/chibios.o
halIsCounterWithin                                build/obj/hal.o
halPolledDelay                                    build/obj/hal.o
hal_lld_init                                      build/obj/hal_lld.o
                                                  build/obj/hal.o
i                                                 build/obj/main.o
icuDisable                                        build/obj/icu.o
icuEnable                                         build/obj/icu.o
                                                  build/obj/main.o
icuInit                                           build/obj/icu.o
                                                  build/obj/hal.o
icuObjectInit                                     build/obj/icu.o
                                                  build/obj/icu_lld.o
icuStart                                          build/obj/icu.o
                                                  build/obj/main.o
icuStop                                           build/obj/icu.o
icu_lld_disable                                   build/obj/icu_lld.o
                                                  build/obj/icu.o
icu_lld_enable                                    build/obj/icu_lld.o
                                                  build/obj/icu.o
icu_lld_init                                      build/obj/icu_lld.o
                                                  build/obj/icu.o
icu_lld_start                                     build/obj/icu_lld.o
                                                  build/obj/icu.o
icu_lld_stop                                      build/obj/icu_lld.o
                                                  build/obj/icu.o
j                                                 build/obj/main.o
last_period                                       build/obj/main.o
last_width                                        build/obj/main.o
lifo_remove                                       build/obj/chlists.o
                                                  build/obj/chsem.o
list_insert                                       build/obj/chlists.o
                                                  build/obj/chthreads.o
list_remove                                       build/obj/chlists.o
                                                  build/obj/chthreads.o
localeconv                                        /opt/ARM/bin/../lib/gcc/arm-none-eabi/4.8.4/../../../../arm-none-eabi/lib/armv7e-m/fpu/libg.a(lib_a-locale.o)
main                                              build/obj/main.o
                                                  build/obj/crt0.o
memchr                                            /opt/ARM/bin/../lib/gcc/arm-none-eabi/4.8.4/../../../../arm-none-eabi/lib/armv7e-m/fpu/libg.a(lib_a-memchr-stub.o)
                                                  /opt/ARM/bin/../lib/gcc/arm-none-eabi/4.8.4/../../../../arm-none-eabi/lib/armv7e-m/fpu/libg.a(lib_a-svfiprintf.o)
                                                  /opt/ARM/bin/../lib/gcc/arm-none-eabi/4.8.4/../../../../arm-none-eabi/lib/armv7e-m/fpu/libg.a(lib_a-svfprintf.o)
memcpy                                            /opt/ARM/bin/../lib/gcc/arm-none-eabi/4.8.4/../../../../arm-none-eabi/lib/armv7e-m/fpu/libg.a(lib_a-memcpy.o)
                                                  /opt/ARM/bin/../lib/gcc/arm-none-eabi/4.8.4/../../../../arm-none-eabi/lib/armv7e-m/fpu/libg.a(lib_a-svfiprintf.o)
                                                  /opt/ARM/bin/../lib/gcc/arm-none-eabi/4.8.4/../../../../arm-none-eabi/lib/armv7e-m/fpu/libg.a(lib_a-mprec.o)
                                                  /opt/ARM/bin/../lib/gcc/arm-none-eabi/4.8.4/../../../../arm-none-eabi/lib/armv7e-m/fpu/libg.a(lib_a-dtoa.o)
                                                  build/obj/gfile.o
                                                  build/obj/chibios.o
memmove                                           /opt/ARM/bin/../lib/gcc/arm-none-eabi/4.8.4/../../../../arm-none-eabi/lib/armv7e-m/fpu/libg.a(lib_a-memmove.o)
                                                  /opt/ARM/bin/../lib/gcc/arm-none-eabi/4.8.4/../../../../arm-none-eabi/lib/armv7e-m/fpu/libg.a(lib_a-reallocr.o)
                                                  /opt/ARM/bin/../lib/gcc/arm-none-eabi/4.8.4/../../../../arm-none-eabi/lib/armv7e-m/fpu/libg.a(lib_a-svfiprintf.o)
memset                                            /opt/ARM/bin/../lib/gcc/arm-none-eabi/4.8.4/../../../../arm-none-eabi/lib/armv7e-m/fpu/libg.a(lib_a-memset.o)
                                                  /opt/ARM/bin/../lib/gcc/arm-none-eabi/4.8.4/../../../../arm-none-eabi/lib/armv7e-m/fpu/libg.a(lib_a-callocr.o)
                                                  build/obj/syscalls.o
mf_bwfont_character_width                         build/obj/mf_bwfont.o
                                                  build/obj/mf_font.o
mf_bwfont_fixed_5x8                               build/obj/mf_font.o
mf_bwfont_render_character                        build/obj/mf_bwfont.o
                                                  build/obj/mf_font.o
mf_character_width                                build/obj/mf_font.o
                                                  build/obj/mf_wordwrap.o
                                                  build/obj/mf_justify.o
                                                  build/obj/gdisp.o
mf_find_font                                      build/obj/mf_font.o
mf_get_font_list                                  build/obj/mf_font.o
                                                  build/obj/fonts.o
mf_get_string_width                               build/obj/mf_justify.o
                                                  build/obj/gdisp.o
mf_getchar                                        build/obj/mf_encoding.o
                                                  build/obj/mf_wordwrap.o
                                                  build/obj/mf_justify.o
mf_render_aligned                                 build/obj/mf_justify.o
                                                  build/obj/gdisp.o
mf_render_character                               build/obj/mf_font.o
                                                  build/obj/gdisp.o
mf_render_justified                               build/obj/mf_justify.o
mf_rewind                                         build/obj/mf_encoding.o
                                                  build/obj/mf_justify.o
mf_rlefont_LargeNumbers                           build/obj/mf_font.o
mf_rlefont_UI1                                    build/obj/mf_font.o
mf_rlefont_UI1_Double                             build/obj/mf_font.o
mf_rlefont_UI1_Narrow                             build/obj/mf_font.o
mf_rlefont_UI2                                    build/obj/mf_font.o
mf_rlefont_UI2_Double                             build/obj/mf_font.o
mf_rlefont_UI2_Narrow                             build/obj/mf_font.o
mf_rlefont_character_width                        build/obj/mf_rlefont.o
                                                  build/obj/mf_font.o
mf_rlefont_render_character                       build/obj/mf_rlefont.o
                                                  build/obj/mf_font.o
mf_scale_font                                     build/obj/mf_scaledfont.o
                                                  build/obj/fonts.o
mf_scaled_character_width                         build/obj/mf_scaledfont.o
                                                  build/obj/mf_font.o
mf_scaled_render_character                        build/obj/mf_scaledfont.o
                                                  build/obj/mf_font.o
mf_wordwrap                                       build/obj/mf_wordwrap.o
msObjectInit                                      build/obj/chprintf.o
myADCinit                                         build/obj/main.o
nvicDisableVector                                 build/obj/nvic.o
                                                  build/obj/serial_lld.o
                                                  build/obj/pwm_lld.o
                                                  build/obj/icu_lld.o
                                                  build/obj/stm32_dma.o
nvicEnableVector                                  build/obj/nvic.o
                                                  build/obj/serial_lld.o
                                                  build/obj/pwm_lld.o
                                                  build/obj/icu_lld.o
                                                  build/obj/adc_lld.o
                                                  build/obj/stm32_dma.o
nvicSetSystemHandlerPriority                      build/obj/nvic.o
                                                  build/obj/chcore_v7m.o
palReadBus                                        build/obj/pal.o
palSetBusMode                                     build/obj/pal.o
                                                  build/obj/gdisp_lld_SSD1289.o
palWriteBus                                       build/obj/pal.o
pal_default_config                                build/obj/board.o
                                                  build/obj/hal.o
port_halt                                         build/obj/chcore.o
                                                  build/obj/gdisp_lld_SSD1289.o
                                                  build/obj/spi_lld.o
                                                  build/obj/chdebug.o
prio_insert                                       build/obj/chlists.o
                                                  build/obj/chcond.o
                                                  build/obj/chmtx.o
pwmChangePeriod                                   build/obj/pwm.o
pwmDisableChannel                                 build/obj/pwm.o
pwmEnableChannel                                  build/obj/pwm.o
                                                  build/obj/gdisp_lld_SSD1289.o
pwmInit                                           build/obj/pwm.o
                                                  build/obj/hal.o
pwmObjectInit                                     build/obj/pwm.o
                                                  build/obj/pwm_lld.o
pwmStart                                          build/obj/pwm.o
                                                  build/obj/gdisp_lld_SSD1289.o
pwmStop                                           build/obj/pwm.o
pwm_lld_disable_channel                           build/obj/pwm_lld.o
                                                  build/obj/pwm.o
pwm_lld_enable_channel                            build/obj/pwm_lld.o
                                                  build/obj/pwm.o
pwm_lld_init                                      build/obj/pwm_lld.o
                                                  build/obj/pwm.o
pwm_lld_start                                     build/obj/pwm_lld.o
                                                  build/obj/pwm.o
pwm_lld_stop                                      build/obj/pwm_lld.o
                                                  build/obj/pwm.o
queue_insert                                      build/obj/chlists.o
                                                  build/obj/chqueues.o
                                                  build/obj/chmsg.o
                                                  build/obj/chsem.o
readADC                                           build/obj/main.o
readICU                                           build/obj/main.o
readVoltage                                       build/obj/main.o
rlist                                             build/obj/chschd.o
                                                  build/obj/main.o
                                                  build/obj/chibios.o
                                                  build/obj/spi.o
                                                  build/obj/adc.o
                                                  build/obj/chqueues.o
                                                  build/obj/chmsg.o
                                                  build/obj/chevents.o
                                                  build/obj/chcond.o
                                                  build/obj/chmtx.o
                                                  build/obj/chsem.o
                                                  build/obj/chregistry.o
                                                  build/obj/chthreads.o
                                                  build/obj/chdebug.o
                                                  build/obj/chsys.o
                                                  build/obj/chcore_v7m.o
sdIncomingDataI                                   build/obj/serial.o
                                                  build/obj/serial_lld.o
sdInit                                            build/obj/serial.o
                                                  build/obj/hal.o
sdObjectInit                                      build/obj/serial.o
                                                  build/obj/serial_lld.o
sdRequestDataI                                    build/obj/serial.o
sdStart                                           build/obj/serial.o
                                                  build/obj/main.o
sdStop                                            build/obj/serial.o
sd_lld_init                                       build/obj/serial_lld.o
                                                  build/obj/serial.o
sd_lld_start                                      build/obj/serial_lld.o
                                                  build/obj/serial.o
sd_lld_stop                                       build/obj/serial_lld.o
                                                  build/obj/serial.o
setlocale                                         /opt/ARM/bin/../lib/gcc/arm-none-eabi/4.8.4/../../../../arm-none-eabi/lib/armv7e-m/fpu/libg.a(lib_a-locale.o)
spiAcquireBus                                     build/obj/spi.o
                                                  build/obj/ginput_lld_mouse.o
spiExchange                                       build/obj/spi.o
                                                  build/obj/ginput_lld_mouse.o
spiIgnore                                         build/obj/spi.o
spiInit                                           build/obj/spi.o
                                                  build/obj/hal.o
spiObjectInit                                     build/obj/spi.o
                                                  build/obj/spi_lld.o
spiReceive                                        build/obj/spi.o
spiReleaseBus                                     build/obj/spi.o
                                                  build/obj/ginput_lld_mouse.o
spiSelect                                         build/obj/spi.o
spiSend                                           build/obj/spi.o
spiStart                                          build/obj/spi.o
                                                  build/obj/ginput_lld_mouse.o
spiStartExchange                                  build/obj/spi.o
spiStartIgnore                                    build/obj/spi.o
spiStartReceive                                   build/obj/spi.o
spiStartSend                                      build/obj/spi.o
spiStop                                           build/obj/spi.o
spiUnselect                                       build/obj/spi.o
spi_lld_exchange                                  build/obj/spi_lld.o
                                                  build/obj/spi.o
spi_lld_ignore                                    build/obj/spi_lld.o
                                                  build/obj/spi.o
spi_lld_init                                      build/obj/spi_lld.o
                                                  build/obj/spi.o
spi_lld_polled_exchange                           build/obj/spi_lld.o
spi_lld_receive                                   build/obj/spi_lld.o
                                                  build/obj/spi.o
spi_lld_select                                    build/obj/spi_lld.o
                                                  build/obj/spi.o
spi_lld_send                                      build/obj/spi_lld.o
                                                  build/obj/spi.o
spi_lld_start                                     build/obj/spi_lld.o
                                                  build/obj/spi.o
spi_lld_stop                                      build/obj/spi_lld.o
                                                  build/obj/spi.o
spi_lld_unselect                                  build/obj/spi_lld.o
                                                  build/obj/spi.o
sprintf                                           /opt/ARM/bin/../lib/gcc/arm-none-eabi/4.8.4/../../../../arm-none-eabi/lib/armv7e-m/fpu/libg.a(lib_a-sprintf.o)
                                                  build/obj/main.o
startBlinker                                      build/obj/main.o
stm32_clock_init                                  build/obj/hal_lld.o
                                                  build/obj/board.o
strcmp                                            /opt/ARM/bin/../lib/gcc/arm-none-eabi/4.8.4/../../../../arm-none-eabi/lib/armv7e-m/fpu/libg.a(lib_a-strcmp.o)
                                                  /opt/ARM/bin/../lib/gcc/arm-none-eabi/4.8.4/../../../../arm-none-eabi/lib/armv7e-m/fpu/libg.a(lib_a-locale.o)
                                                  build/obj/gfile.o
strcpy                                            /opt/ARM/bin/../lib/gcc/arm-none-eabi/4.8.4/../../../../arm-none-eabi/lib/armv7e-m/fpu/libg.a(lib_a-strcpy.o)
                                                  build/obj/gwidget.o
strlen                                            /opt/ARM/bin/../lib/gcc/arm-none-eabi/4.8.4/../../../../arm-none-eabi/lib/armv7e-m/fpu/libg.a(lib_a-strlen.o)
                                                  /opt/ARM/bin/../lib/gcc/arm-none-eabi/4.8.4/../../../../arm-none-eabi/lib/armv7e-m/fpu/libg.a(lib_a-svfiprintf.o)
                                                  /opt/ARM/bin/../lib/gcc/arm-none-eabi/4.8.4/../../../../arm-none-eabi/lib/armv7e-m/fpu/libg.a(lib_a-svfprintf.o)
                                                  build/obj/gwidget.o
strncat                                           /opt/ARM/bin/../lib/gcc/arm-none-eabi/4.8.4/../../../../arm-none-eabi/lib/armv7e-m/fpu/libg.a(lib_a-strncat.o)
                                                  build/obj/main.o
sum                                               build/obj/main.o
uitoa                                             build/obj/main.o
vtlist                                            build/obj/chvt.o
                                                  build/obj/mouse.o
                                                  build/obj/gtimer.o
                                                  build/obj/chthreads.o
                                                  build/obj/chdebug.o
                                                  build/obj/chsys.o
